ARM GAS  /tmp/ccb1QAAE.s 			page 1


   1              		.cpu cortex-m4
   2              		.eabi_attribute 27, 1
   3              		.eabi_attribute 28, 1
   4              		.eabi_attribute 20, 1
   5              		.eabi_attribute 21, 1
   6              		.eabi_attribute 23, 3
   7              		.eabi_attribute 24, 1
   8              		.eabi_attribute 25, 1
   9              		.eabi_attribute 26, 1
  10              		.eabi_attribute 30, 2
  11              		.eabi_attribute 34, 1
  12              		.eabi_attribute 18, 4
  13              		.file	"buffer.c"
  14              		.text
  15              	.Ltext0:
  16              		.cfi_sections	.debug_frame
  17              		.section	.text.buffer_append_int32,"ax",%progbits
  18              		.align	1
  19              		.p2align 4,,15
  20              		.global	buffer_append_int32
  21              		.syntax unified
  22              		.thumb
  23              		.thumb_func
  24              		.fpu fpv4-sp-d16
  25              		.type	buffer_append_int32, %function
  26              	buffer_append_int32:
  27              	.LFB0:
  28              		.file 1 "buffer.c"
  29              		.loc 1 27 0
  30              		.cfi_startproc
  31              		@ args = 0, pretend = 0, frame = 0
  32              		@ frame_needed = 0, uses_anonymous_args = 0
  33              		@ link register save eliminated.
  34              	.LVL0:
  35              		.loc 1 28 0
  36 0000 1368     		ldr	r3, [r2]
  37              		.loc 1 27 0
  38 0002 30B4     		push	{r4, r5}
  39              		.cfi_def_cfa_offset 8
  40              		.cfi_offset 4, -8
  41              		.cfi_offset 5, -4
  42              		.loc 1 28 0
  43 0004 5D1C     		adds	r5, r3, #1
  44 0006 0C16     		asrs	r4, r1, #24
  45 0008 1560     		str	r5, [r2]
  46 000a C454     		strb	r4, [r0, r3]
  47              		.loc 1 29 0
  48 000c 1368     		ldr	r3, [r2]
  49 000e 0C14     		asrs	r4, r1, #16
  50 0010 5D1C     		adds	r5, r3, #1
  51 0012 1560     		str	r5, [r2]
  52 0014 C454     		strb	r4, [r0, r3]
  53              		.loc 1 30 0
  54 0016 1368     		ldr	r3, [r2]
  55 0018 0C12     		asrs	r4, r1, #8
  56 001a 5D1C     		adds	r5, r3, #1
  57 001c 1560     		str	r5, [r2]
ARM GAS  /tmp/ccb1QAAE.s 			page 2


  58 001e C454     		strb	r4, [r0, r3]
  59              		.loc 1 31 0
  60 0020 1368     		ldr	r3, [r2]
  61 0022 5C1C     		adds	r4, r3, #1
  62 0024 1460     		str	r4, [r2]
  63 0026 C154     		strb	r1, [r0, r3]
  64              		.loc 1 32 0
  65 0028 30BC     		pop	{r4, r5}
  66              		.cfi_restore 5
  67              		.cfi_restore 4
  68              		.cfi_def_cfa_offset 0
  69 002a 7047     		bx	lr
  70              		.cfi_endproc
  71              	.LFE0:
  72              		.size	buffer_append_int32, .-buffer_append_int32
  73              		.section	.text.buffer_append_uint32,"ax",%progbits
  74              		.align	1
  75              		.p2align 4,,15
  76              		.global	buffer_append_uint32
  77              		.syntax unified
  78              		.thumb
  79              		.thumb_func
  80              		.fpu fpv4-sp-d16
  81              		.type	buffer_append_uint32, %function
  82              	buffer_append_uint32:
  83              	.LFB1:
  84              		.loc 1 34 0
  85              		.cfi_startproc
  86              		@ args = 0, pretend = 0, frame = 0
  87              		@ frame_needed = 0, uses_anonymous_args = 0
  88              		@ link register save eliminated.
  89              	.LVL1:
  90              		.loc 1 35 0
  91 0000 1368     		ldr	r3, [r2]
  92              		.loc 1 34 0
  93 0002 30B4     		push	{r4, r5}
  94              		.cfi_def_cfa_offset 8
  95              		.cfi_offset 4, -8
  96              		.cfi_offset 5, -4
  97              		.loc 1 35 0
  98 0004 5D1C     		adds	r5, r3, #1
  99 0006 0C0E     		lsrs	r4, r1, #24
 100 0008 1560     		str	r5, [r2]
 101 000a C454     		strb	r4, [r0, r3]
 102              		.loc 1 36 0
 103 000c 1368     		ldr	r3, [r2]
 104 000e 0C0C     		lsrs	r4, r1, #16
 105 0010 5D1C     		adds	r5, r3, #1
 106 0012 1560     		str	r5, [r2]
 107 0014 C454     		strb	r4, [r0, r3]
 108              		.loc 1 37 0
 109 0016 1368     		ldr	r3, [r2]
 110 0018 0C0A     		lsrs	r4, r1, #8
 111 001a 5D1C     		adds	r5, r3, #1
 112 001c 1560     		str	r5, [r2]
 113 001e C454     		strb	r4, [r0, r3]
 114              		.loc 1 38 0
ARM GAS  /tmp/ccb1QAAE.s 			page 3


 115 0020 1368     		ldr	r3, [r2]
 116 0022 5C1C     		adds	r4, r3, #1
 117 0024 1460     		str	r4, [r2]
 118 0026 C154     		strb	r1, [r0, r3]
 119              		.loc 1 39 0
 120 0028 30BC     		pop	{r4, r5}
 121              		.cfi_restore 5
 122              		.cfi_restore 4
 123              		.cfi_def_cfa_offset 0
 124 002a 7047     		bx	lr
 125              		.cfi_endproc
 126              	.LFE1:
 127              		.size	buffer_append_uint32, .-buffer_append_uint32
 128              		.section	.text.buffer_append_int16,"ax",%progbits
 129              		.align	1
 130              		.p2align 4,,15
 131              		.global	buffer_append_int16
 132              		.syntax unified
 133              		.thumb
 134              		.thumb_func
 135              		.fpu fpv4-sp-d16
 136              		.type	buffer_append_int16, %function
 137              	buffer_append_int16:
 138              	.LFB2:
 139              		.loc 1 41 0
 140              		.cfi_startproc
 141              		@ args = 0, pretend = 0, frame = 0
 142              		@ frame_needed = 0, uses_anonymous_args = 0
 143              		@ link register save eliminated.
 144              	.LVL2:
 145              		.loc 1 42 0
 146 0000 1368     		ldr	r3, [r2]
 147              		.loc 1 41 0
 148 0002 30B4     		push	{r4, r5}
 149              		.cfi_def_cfa_offset 8
 150              		.cfi_offset 4, -8
 151              		.cfi_offset 5, -4
 152              		.loc 1 42 0
 153 0004 5D1C     		adds	r5, r3, #1
 154 0006 0C12     		asrs	r4, r1, #8
 155 0008 1560     		str	r5, [r2]
 156 000a C454     		strb	r4, [r0, r3]
 157              		.loc 1 43 0
 158 000c 1368     		ldr	r3, [r2]
 159 000e 5C1C     		adds	r4, r3, #1
 160 0010 1460     		str	r4, [r2]
 161 0012 C154     		strb	r1, [r0, r3]
 162              		.loc 1 44 0
 163 0014 30BC     		pop	{r4, r5}
 164              		.cfi_restore 5
 165              		.cfi_restore 4
 166              		.cfi_def_cfa_offset 0
 167 0016 7047     		bx	lr
 168              		.cfi_endproc
 169              	.LFE2:
 170              		.size	buffer_append_int16, .-buffer_append_int16
 171              		.section	.text.buffer_append_uint16,"ax",%progbits
ARM GAS  /tmp/ccb1QAAE.s 			page 4


 172              		.align	1
 173              		.p2align 4,,15
 174              		.global	buffer_append_uint16
 175              		.syntax unified
 176              		.thumb
 177              		.thumb_func
 178              		.fpu fpv4-sp-d16
 179              		.type	buffer_append_uint16, %function
 180              	buffer_append_uint16:
 181              	.LFB3:
 182              		.loc 1 46 0
 183              		.cfi_startproc
 184              		@ args = 0, pretend = 0, frame = 0
 185              		@ frame_needed = 0, uses_anonymous_args = 0
 186              		@ link register save eliminated.
 187              	.LVL3:
 188              		.loc 1 47 0
 189 0000 1368     		ldr	r3, [r2]
 190              		.loc 1 46 0
 191 0002 30B4     		push	{r4, r5}
 192              		.cfi_def_cfa_offset 8
 193              		.cfi_offset 4, -8
 194              		.cfi_offset 5, -4
 195              		.loc 1 47 0
 196 0004 5D1C     		adds	r5, r3, #1
 197 0006 0C0A     		lsrs	r4, r1, #8
 198 0008 1560     		str	r5, [r2]
 199 000a C454     		strb	r4, [r0, r3]
 200              		.loc 1 48 0
 201 000c 1368     		ldr	r3, [r2]
 202 000e 5C1C     		adds	r4, r3, #1
 203 0010 1460     		str	r4, [r2]
 204 0012 C154     		strb	r1, [r0, r3]
 205              		.loc 1 49 0
 206 0014 30BC     		pop	{r4, r5}
 207              		.cfi_restore 5
 208              		.cfi_restore 4
 209              		.cfi_def_cfa_offset 0
 210 0016 7047     		bx	lr
 211              		.cfi_endproc
 212              	.LFE3:
 213              		.size	buffer_append_uint16, .-buffer_append_uint16
 214              		.section	.text.buffer_get_int16,"ax",%progbits
 215              		.align	1
 216              		.p2align 4,,15
 217              		.global	buffer_get_int16
 218              		.syntax unified
 219              		.thumb
 220              		.thumb_func
 221              		.fpu fpv4-sp-d16
 222              		.type	buffer_get_int16, %function
 223              	buffer_get_int16:
 224              	.LFB4:
 225              		.loc 1 51 0
 226              		.cfi_startproc
 227              		@ args = 0, pretend = 0, frame = 0
 228              		@ frame_needed = 0, uses_anonymous_args = 0
ARM GAS  /tmp/ccb1QAAE.s 			page 5


 229              		@ link register save eliminated.
 230              	.LVL4:
 231 0000 10B4     		push	{r4}
 232              		.cfi_def_cfa_offset 4
 233              		.cfi_offset 4, -4
 234              		.loc 1 52 0
 235 0002 0B68     		ldr	r3, [r1]
 236              		.loc 1 53 0
 237 0004 C418     		adds	r4, r0, r3
 238              		.loc 1 52 0
 239 0006 C25C     		ldrb	r2, [r0, r3]	@ zero_extendqisi2
 240              		.loc 1 53 0
 241 0008 6078     		ldrb	r0, [r4, #1]	@ zero_extendqisi2
 242              	.LVL5:
 243              		.loc 1 56 0
 244 000a 5DF8044B 		ldr	r4, [sp], #4
 245              		.cfi_restore 4
 246              		.cfi_def_cfa_offset 0
 247              		.loc 1 54 0
 248 000e 0233     		adds	r3, r3, #2
 249              		.loc 1 52 0
 250 0010 40EA0220 		orr	r0, r0, r2, lsl #8
 251              	.LVL6:
 252              		.loc 1 56 0
 253 0014 00B2     		sxth	r0, r0
 254              		.loc 1 54 0
 255 0016 0B60     		str	r3, [r1]
 256              		.loc 1 56 0
 257 0018 7047     		bx	lr
 258              		.cfi_endproc
 259              	.LFE4:
 260              		.size	buffer_get_int16, .-buffer_get_int16
 261              		.section	.text.buffer_get_uint16,"ax",%progbits
 262              		.align	1
 263              		.p2align 4,,15
 264              		.global	buffer_get_uint16
 265              		.syntax unified
 266              		.thumb
 267              		.thumb_func
 268              		.fpu fpv4-sp-d16
 269              		.type	buffer_get_uint16, %function
 270              	buffer_get_uint16:
 271              	.LFB5:
 272              		.loc 1 58 0
 273              		.cfi_startproc
 274              		@ args = 0, pretend = 0, frame = 0
 275              		@ frame_needed = 0, uses_anonymous_args = 0
 276              		@ link register save eliminated.
 277              	.LVL7:
 278              		.loc 1 59 0
 279 0000 0B68     		ldr	r3, [r1]
 280              		.loc 1 60 0
 281 0002 C218     		adds	r2, r0, r3
 282              		.loc 1 59 0
 283 0004 C05C     		ldrb	r0, [r0, r3]	@ zero_extendqisi2
 284              	.LVL8:
 285              		.loc 1 60 0
ARM GAS  /tmp/ccb1QAAE.s 			page 6


 286 0006 5278     		ldrb	r2, [r2, #1]	@ zero_extendqisi2
 287              	.LVL9:
 288              		.loc 1 61 0
 289 0008 0233     		adds	r3, r3, #2
 290 000a 0B60     		str	r3, [r1]
 291              		.loc 1 63 0
 292 000c 42EA0020 		orr	r0, r2, r0, lsl #8
 293              	.LVL10:
 294 0010 7047     		bx	lr
 295              		.cfi_endproc
 296              	.LFE5:
 297              		.size	buffer_get_uint16, .-buffer_get_uint16
 298 0012 00BF     		.section	.text.buffer_get_int32,"ax",%progbits
 299              		.align	1
 300              		.p2align 4,,15
 301              		.global	buffer_get_int32
 302              		.syntax unified
 303              		.thumb
 304              		.thumb_func
 305              		.fpu fpv4-sp-d16
 306              		.type	buffer_get_int32, %function
 307              	buffer_get_int32:
 308              	.LFB6:
 309              		.loc 1 65 0
 310              		.cfi_startproc
 311              		@ args = 0, pretend = 0, frame = 0
 312              		@ frame_needed = 0, uses_anonymous_args = 0
 313              		@ link register save eliminated.
 314              	.LVL11:
 315 0000 70B4     		push	{r4, r5, r6}
 316              		.cfi_def_cfa_offset 12
 317              		.cfi_offset 4, -12
 318              		.cfi_offset 5, -8
 319              		.cfi_offset 6, -4
 320              		.loc 1 66 0
 321 0002 0A68     		ldr	r2, [r1]
 322              		.loc 1 69 0
 323 0004 8418     		adds	r4, r0, r2
 324              		.loc 1 66 0
 325 0006 865C     		ldrb	r6, [r0, r2]	@ zero_extendqisi2
 326              		.loc 1 69 0
 327 0008 E378     		ldrb	r3, [r4, #3]	@ zero_extendqisi2
 328              		.loc 1 67 0
 329 000a 6578     		ldrb	r5, [r4, #1]	@ zero_extendqisi2
 330              		.loc 1 68 0
 331 000c A078     		ldrb	r0, [r4, #2]	@ zero_extendqisi2
 332              	.LVL12:
 333 000e 43EA0663 		orr	r3, r3, r6, lsl #24
 334 0012 43EA0543 		orr	r3, r3, r5, lsl #16
 335              	.LVL13:
 336              		.loc 1 70 0
 337 0016 0432     		adds	r2, r2, #4
 338              		.loc 1 72 0
 339 0018 43EA0020 		orr	r0, r3, r0, lsl #8
 340              	.LVL14:
 341              		.loc 1 70 0
 342 001c 0A60     		str	r2, [r1]
ARM GAS  /tmp/ccb1QAAE.s 			page 7


 343              		.loc 1 72 0
 344 001e 70BC     		pop	{r4, r5, r6}
 345              		.cfi_restore 6
 346              		.cfi_restore 5
 347              		.cfi_restore 4
 348              		.cfi_def_cfa_offset 0
 349 0020 7047     		bx	lr
 350              		.cfi_endproc
 351              	.LFE6:
 352              		.size	buffer_get_int32, .-buffer_get_int32
 353 0022 00BF     		.section	.text.buffer_get_uint32,"ax",%progbits
 354              		.align	1
 355              		.p2align 4,,15
 356              		.global	buffer_get_uint32
 357              		.syntax unified
 358              		.thumb
 359              		.thumb_func
 360              		.fpu fpv4-sp-d16
 361              		.type	buffer_get_uint32, %function
 362              	buffer_get_uint32:
 363              	.LFB7:
 364              		.loc 1 74 0
 365              		.cfi_startproc
 366              		@ args = 0, pretend = 0, frame = 0
 367              		@ frame_needed = 0, uses_anonymous_args = 0
 368              		@ link register save eliminated.
 369              	.LVL15:
 370 0000 70B4     		push	{r4, r5, r6}
 371              		.cfi_def_cfa_offset 12
 372              		.cfi_offset 4, -12
 373              		.cfi_offset 5, -8
 374              		.cfi_offset 6, -4
 375              		.loc 1 75 0
 376 0002 0A68     		ldr	r2, [r1]
 377              		.loc 1 78 0
 378 0004 8418     		adds	r4, r0, r2
 379              		.loc 1 75 0
 380 0006 865C     		ldrb	r6, [r0, r2]	@ zero_extendqisi2
 381              		.loc 1 78 0
 382 0008 E378     		ldrb	r3, [r4, #3]	@ zero_extendqisi2
 383              		.loc 1 76 0
 384 000a 6578     		ldrb	r5, [r4, #1]	@ zero_extendqisi2
 385              		.loc 1 77 0
 386 000c A078     		ldrb	r0, [r4, #2]	@ zero_extendqisi2
 387              	.LVL16:
 388              		.loc 1 75 0
 389 000e 43EA0663 		orr	r3, r3, r6, lsl #24
 390 0012 43EA0543 		orr	r3, r3, r5, lsl #16
 391              	.LVL17:
 392              		.loc 1 79 0
 393 0016 0432     		adds	r2, r2, #4
 394              		.loc 1 81 0
 395 0018 43EA0020 		orr	r0, r3, r0, lsl #8
 396              	.LVL18:
 397              		.loc 1 79 0
 398 001c 0A60     		str	r2, [r1]
 399              		.loc 1 81 0
ARM GAS  /tmp/ccb1QAAE.s 			page 8


 400 001e 70BC     		pop	{r4, r5, r6}
 401              		.cfi_restore 6
 402              		.cfi_restore 5
 403              		.cfi_restore 4
 404              		.cfi_def_cfa_offset 0
 405 0020 7047     		bx	lr
 406              		.cfi_endproc
 407              	.LFE7:
 408              		.size	buffer_get_uint32, .-buffer_get_uint32
 409 0022 00BF     		.text
 410              	.Letext0:
 411              		.file 2 "/usr/arm-none-eabi/include/machine/_default_types.h"
 412              		.file 3 "/usr/arm-none-eabi/include/sys/_stdint.h"