ARM GAS  /tmp/ccQGuPHp.s 			page 1


   1              		.cpu cortex-m4
   2              		.eabi_attribute 27, 1
   3              		.eabi_attribute 28, 1
   4              		.eabi_attribute 20, 1
   5              		.eabi_attribute 21, 1
   6              		.eabi_attribute 23, 3
   7              		.eabi_attribute 24, 1
   8              		.eabi_attribute 25, 1
   9              		.eabi_attribute 26, 1
  10              		.eabi_attribute 30, 2
  11              		.eabi_attribute 34, 1
  12              		.eabi_attribute 18, 4
  13              		.file	"chcond.c"
  14              		.text
  15              	.Ltext0:
  16              		.cfi_sections	.debug_frame
  17              		.section	.text.chCondInit,"ax",%progbits
  18              		.align	1
  19              		.p2align 4,,15
  20              		.global	chCondInit
  21              		.syntax unified
  22              		.thumb
  23              		.thumb_func
  24              		.fpu fpv4-sp-d16
  25              		.type	chCondInit, %function
  26              	chCondInit:
  27              	.LFB7:
  28              		.file 1 "ChibiOS_2.6.6/os/kernel/src/chcond.c"
  29              		.loc 1 59 0
  30              		.cfi_startproc
  31              		@ args = 0, pretend = 0, frame = 0
  32              		@ frame_needed = 0, uses_anonymous_args = 0
  33              	.LVL0:
  34 0000 10B5     		push	{r4, lr}
  35              		.cfi_def_cfa_offset 8
  36              		.cfi_offset 4, -8
  37              		.cfi_offset 14, -4
  38              		.loc 1 61 0
  39 0002 0446     		mov	r4, r0
  40 0004 10B1     		cbz	r0, .L5
  41              		.loc 1 63 0
  42 0006 C4E90044 		strd	r4, r4, [r4]
  43              		.loc 1 64 0
  44 000a 10BD     		pop	{r4, pc}
  45              	.L5:
  46              		.loc 1 61 0 discriminator 1
  47 000c 0248     		ldr	r0, .L6
  48              	.LVL1:
  49 000e FFF7FEFF 		bl	chDbgPanic
  50              	.LVL2:
  51              		.loc 1 63 0 discriminator 1
  52 0012 C4E90044 		strd	r4, r4, [r4]
  53              		.loc 1 64 0 discriminator 1
  54 0016 10BD     		pop	{r4, pc}
  55              	.LVL3:
  56              	.L7:
  57              		.align	2
ARM GAS  /tmp/ccQGuPHp.s 			page 2


  58              	.L6:
  59 0018 00000000 		.word	.LC0
  60              		.cfi_endproc
  61              	.LFE7:
  62              		.size	chCondInit, .-chCondInit
  63              		.section	.text.chCondSignal,"ax",%progbits
  64              		.align	1
  65              		.p2align 4,,15
  66              		.global	chCondSignal
  67              		.syntax unified
  68              		.thumb
  69              		.thumb_func
  70              		.fpu fpv4-sp-d16
  71              		.type	chCondSignal, %function
  72              	chCondSignal:
  73              	.LFB8:
  74              		.loc 1 73 0
  75              		.cfi_startproc
  76              		@ args = 0, pretend = 0, frame = 0
  77              		@ frame_needed = 0, uses_anonymous_args = 0
  78              	.LVL4:
  79 0000 10B5     		push	{r4, lr}
  80              		.cfi_def_cfa_offset 8
  81              		.cfi_offset 4, -8
  82              		.cfi_offset 14, -4
  83              		.loc 1 75 0
  84 0002 0446     		mov	r4, r0
  85 0004 78B1     		cbz	r0, .L12
  86              	.LVL5:
  87              	.L9:
  88              		.loc 1 77 0
  89              		.syntax unified
  90              	@ 77 "ChibiOS_2.6.6/os/kernel/src/chcond.c" 1
  91 0006 72B6     		cpsid   i
  92              	@ 0 "" 2
  93              		.thumb
  94              		.syntax unified
  95 0008 FFF7FEFF 		bl	dbg_check_lock
  96              	.LVL6:
  97              		.loc 1 78 0
  98 000c 2068     		ldr	r0, [r4]
  99 000e A042     		cmp	r0, r4
 100 0010 05D0     		beq	.L10
 101              	.LVL7:
 102              	.LBB12:
 103              	.LBB13:
 104              		.file 2 "ChibiOS_2.6.6/os/kernel/include/chinline.h"
 105              		.loc 2 62 0
 106 0012 0368     		ldr	r3, [r0]
 107 0014 2360     		str	r3, [r4]
 108              	.LBE13:
 109              	.LBE12:
 110              		.loc 1 79 0
 111 0016 0021     		movs	r1, #0
 112              	.LBB15:
 113              	.LBB14:
 114              		.loc 2 62 0
ARM GAS  /tmp/ccQGuPHp.s 			page 3


 115 0018 5C60     		str	r4, [r3, #4]
 116              	.LVL8:
 117              	.LBE14:
 118              	.LBE15:
 119              		.loc 1 79 0
 120 001a FFF7FEFF 		bl	chSchWakeupS
 121              	.LVL9:
 122              	.L10:
 123              		.loc 1 80 0
 124 001e FFF7FEFF 		bl	dbg_check_unlock
 125              	.LVL10:
 126              		.syntax unified
 127              	@ 80 "ChibiOS_2.6.6/os/kernel/src/chcond.c" 1
 128 0022 62B6     		cpsie   i
 129              	@ 0 "" 2
 130              		.loc 1 81 0
 131              		.thumb
 132              		.syntax unified
 133 0024 10BD     		pop	{r4, pc}
 134              	.LVL11:
 135              	.L12:
 136              		.loc 1 75 0 discriminator 1
 137 0026 0248     		ldr	r0, .L13
 138              	.LVL12:
 139 0028 FFF7FEFF 		bl	chDbgPanic
 140              	.LVL13:
 141 002c EBE7     		b	.L9
 142              	.L14:
 143 002e 00BF     		.align	2
 144              	.L13:
 145 0030 00000000 		.word	.LC1
 146              		.cfi_endproc
 147              	.LFE8:
 148              		.size	chCondSignal, .-chCondSignal
 149              		.section	.text.chCondSignalI,"ax",%progbits
 150              		.align	1
 151              		.p2align 4,,15
 152              		.global	chCondSignalI
 153              		.syntax unified
 154              		.thumb
 155              		.thumb_func
 156              		.fpu fpv4-sp-d16
 157              		.type	chCondSignalI, %function
 158              	chCondSignalI:
 159              	.LFB9:
 160              		.loc 1 94 0
 161              		.cfi_startproc
 162              		@ args = 0, pretend = 0, frame = 0
 163              		@ frame_needed = 0, uses_anonymous_args = 0
 164              	.LVL14:
 165 0000 10B5     		push	{r4, lr}
 166              		.cfi_def_cfa_offset 8
 167              		.cfi_offset 4, -8
 168              		.cfi_offset 14, -4
 169              		.loc 1 94 0
 170 0002 0446     		mov	r4, r0
 171              		.loc 1 96 0
ARM GAS  /tmp/ccQGuPHp.s 			page 4


 172 0004 FFF7FEFF 		bl	chDbgCheckClassI
 173              	.LVL15:
 174              		.loc 1 97 0
 175 0008 54B1     		cbz	r4, .L19
 176              	.L16:
 177              		.loc 1 99 0
 178 000a 2068     		ldr	r0, [r4]
 179 000c A042     		cmp	r0, r4
 180 000e 06D0     		beq	.L15
 181              	.LVL16:
 182              	.LBB16:
 183              	.LBB17:
 184              		.loc 2 62 0
 185 0010 0368     		ldr	r3, [r0]
 186 0012 2360     		str	r3, [r4]
 187 0014 5C60     		str	r4, [r3, #4]
 188              	.LVL17:
 189              	.LBE17:
 190              	.LBE16:
 191              		.loc 1 100 0
 192 0016 FFF7FEFF 		bl	chSchReadyI
 193              	.LVL18:
 194 001a 0023     		movs	r3, #0
 195 001c 8362     		str	r3, [r0, #40]
 196              	.L15:
 197              		.loc 1 101 0
 198 001e 10BD     		pop	{r4, pc}
 199              	.LVL19:
 200              	.L19:
 201              		.loc 1 97 0 discriminator 1
 202 0020 0148     		ldr	r0, .L20
 203 0022 FFF7FEFF 		bl	chDbgPanic
 204              	.LVL20:
 205 0026 F0E7     		b	.L16
 206              	.L21:
 207              		.align	2
 208              	.L20:
 209 0028 00000000 		.word	.LC2
 210              		.cfi_endproc
 211              	.LFE9:
 212              		.size	chCondSignalI, .-chCondSignalI
 213              		.section	.text.chCondBroadcastI,"ax",%progbits
 214              		.align	1
 215              		.p2align 4,,15
 216              		.global	chCondBroadcastI
 217              		.syntax unified
 218              		.thumb
 219              		.thumb_func
 220              		.fpu fpv4-sp-d16
 221              		.type	chCondBroadcastI, %function
 222              	chCondBroadcastI:
 223              	.LFB11:
 224              		.loc 1 129 0
 225              		.cfi_startproc
 226              		@ args = 0, pretend = 0, frame = 0
 227              		@ frame_needed = 0, uses_anonymous_args = 0
 228              	.LVL21:
ARM GAS  /tmp/ccQGuPHp.s 			page 5


 229 0000 38B5     		push	{r3, r4, r5, lr}
 230              		.cfi_def_cfa_offset 16
 231              		.cfi_offset 3, -16
 232              		.cfi_offset 4, -12
 233              		.cfi_offset 5, -8
 234              		.cfi_offset 14, -4
 235              		.loc 1 129 0
 236 0002 0446     		mov	r4, r0
 237              		.loc 1 131 0
 238 0004 FFF7FEFF 		bl	chDbgCheckClassI
 239              	.LVL22:
 240              		.loc 1 132 0
 241 0008 7CB1     		cbz	r4, .L28
 242              	.L23:
 243              		.loc 1 137 0
 244 000a 2368     		ldr	r3, [r4]
 245 000c A342     		cmp	r3, r4
 246 000e 0BD0     		beq	.L22
 247              		.loc 1 138 0
 248 0010 6FF00105 		mvn	r5, #1
 249              	.L25:
 250              	.LVL23:
 251              	.LBB18:
 252              	.LBB19:
 253              		.loc 2 62 0
 254 0014 1A68     		ldr	r2, [r3]
 255 0016 2260     		str	r2, [r4]
 256              	.LBE19:
 257              	.LBE18:
 258              		.loc 1 138 0
 259 0018 1846     		mov	r0, r3
 260              	.LBB21:
 261              	.LBB20:
 262              		.loc 2 62 0
 263 001a 5460     		str	r4, [r2, #4]
 264              	.LVL24:
 265              	.LBE20:
 266              	.LBE21:
 267              		.loc 1 138 0
 268 001c FFF7FEFF 		bl	chSchReadyI
 269              	.LVL25:
 270              		.loc 1 137 0
 271 0020 2368     		ldr	r3, [r4]
 272              		.loc 1 138 0
 273 0022 8562     		str	r5, [r0, #40]
 274              		.loc 1 137 0
 275 0024 A342     		cmp	r3, r4
 276 0026 F5D1     		bne	.L25
 277              	.L22:
 278              		.loc 1 139 0
 279 0028 38BD     		pop	{r3, r4, r5, pc}
 280              	.LVL26:
 281              	.L28:
 282              		.loc 1 132 0 discriminator 1
 283 002a 0248     		ldr	r0, .L29
 284 002c FFF7FEFF 		bl	chDbgPanic
 285              	.LVL27:
ARM GAS  /tmp/ccQGuPHp.s 			page 6


 286 0030 EBE7     		b	.L23
 287              	.L30:
 288 0032 00BF     		.align	2
 289              	.L29:
 290 0034 00000000 		.word	.LC3
 291              		.cfi_endproc
 292              	.LFE11:
 293              		.size	chCondBroadcastI, .-chCondBroadcastI
 294              		.section	.text.chCondBroadcast,"ax",%progbits
 295              		.align	1
 296              		.p2align 4,,15
 297              		.global	chCondBroadcast
 298              		.syntax unified
 299              		.thumb
 300              		.thumb_func
 301              		.fpu fpv4-sp-d16
 302              		.type	chCondBroadcast, %function
 303              	chCondBroadcast:
 304              	.LFB10:
 305              		.loc 1 110 0
 306              		.cfi_startproc
 307              		@ args = 0, pretend = 0, frame = 0
 308              		@ frame_needed = 0, uses_anonymous_args = 0
 309              	.LVL28:
 310 0000 10B5     		push	{r4, lr}
 311              		.cfi_def_cfa_offset 8
 312              		.cfi_offset 4, -8
 313              		.cfi_offset 14, -4
 314              		.loc 1 110 0
 315 0002 0446     		mov	r4, r0
 316              		.loc 1 112 0
 317              		.syntax unified
 318              	@ 112 "ChibiOS_2.6.6/os/kernel/src/chcond.c" 1
 319 0004 72B6     		cpsid   i
 320              	@ 0 "" 2
 321              		.thumb
 322              		.syntax unified
 323 0006 FFF7FEFF 		bl	dbg_check_lock
 324              	.LVL29:
 325              		.loc 1 113 0
 326 000a 2046     		mov	r0, r4
 327 000c FFF7FEFF 		bl	chCondBroadcastI
 328              	.LVL30:
 329              		.loc 1 114 0
 330 0010 FFF7FEFF 		bl	chSchRescheduleS
 331              	.LVL31:
 332              		.loc 1 115 0
 333 0014 FFF7FEFF 		bl	dbg_check_unlock
 334              	.LVL32:
 335              		.syntax unified
 336              	@ 115 "ChibiOS_2.6.6/os/kernel/src/chcond.c" 1
 337 0018 62B6     		cpsie   i
 338              	@ 0 "" 2
 339              		.loc 1 116 0
 340              		.thumb
 341              		.syntax unified
 342 001a 10BD     		pop	{r4, pc}
ARM GAS  /tmp/ccQGuPHp.s 			page 7


 343              		.cfi_endproc
 344              	.LFE10:
 345              		.size	chCondBroadcast, .-chCondBroadcast
 346              		.section	.text.chCondWaitS,"ax",%progbits
 347              		.align	1
 348              		.p2align 4,,15
 349              		.global	chCondWaitS
 350              		.syntax unified
 351              		.thumb
 352              		.thumb_func
 353              		.fpu fpv4-sp-d16
 354              		.type	chCondWaitS, %function
 355              	chCondWaitS:
 356              	.LFB13:
 357              		.loc 1 184 0
 358              		.cfi_startproc
 359              		@ args = 0, pretend = 0, frame = 0
 360              		@ frame_needed = 0, uses_anonymous_args = 0
 361              	.LVL33:
 362              		.loc 1 185 0
 363 0000 174B     		ldr	r3, .L44
 364              		.loc 1 184 0
 365 0002 70B5     		push	{r4, r5, r6, lr}
 366              		.cfi_def_cfa_offset 16
 367              		.cfi_offset 4, -16
 368              		.cfi_offset 5, -12
 369              		.cfi_offset 6, -8
 370              		.cfi_offset 14, -4
 371              		.loc 1 184 0
 372 0004 0546     		mov	r5, r0
 373              		.loc 1 185 0
 374 0006 9C69     		ldr	r4, [r3, #24]
 375              	.LVL34:
 376              		.loc 1 189 0
 377 0008 FFF7FEFF 		bl	chDbgCheckClassS
 378              	.LVL35:
 379              		.loc 1 190 0
 380 000c 25B3     		cbz	r5, .L40
 381              	.L34:
 382              		.loc 1 191 0
 383 000e 236C     		ldr	r3, [r4, #64]
 384 0010 F3B1     		cbz	r3, .L41
 385              	.L35:
 386              		.loc 1 195 0
 387 0012 FFF7FEFF 		bl	chMtxUnlockS
 388              	.LVL36:
 389              		.loc 1 196 0
 390 0016 A562     		str	r5, [r4, #40]
 391              		.loc 1 195 0
 392 0018 0646     		mov	r6, r0
 393              	.LVL37:
 394              		.loc 1 197 0
 395 001a 2B46     		mov	r3, r5
 396 001c 2846     		mov	r0, r5
 397              	.LVL38:
 398 001e 03E0     		b	.L37
 399              	.LVL39:
ARM GAS  /tmp/ccQGuPHp.s 			page 8


 400              	.L43:
 401              	.LBB22:
 402              	.LBB23:
 403              		.loc 2 46 0
 404 0020 9968     		ldr	r1, [r3, #8]
 405 0022 A268     		ldr	r2, [r4, #8]
 406 0024 9142     		cmp	r1, r2
 407 0026 11D3     		bcc	.L42
 408              	.L37:
 409              		.loc 2 45 0
 410 0028 1B68     		ldr	r3, [r3]
 411              	.LVL40:
 412              		.loc 2 46 0
 413 002a 9D42     		cmp	r5, r3
 414 002c F8D1     		bne	.L43
 415              	.LVL41:
 416              	.L36:
 417              		.loc 2 48 0
 418 002e 4368     		ldr	r3, [r0, #4]
 419              	.LVL42:
 420 0030 C4E90003 		strd	r0, r3, [r4]
 421              		.loc 2 49 0
 422 0034 4460     		str	r4, [r0, #4]
 423 0036 6368     		ldr	r3, [r4, #4]
 424              	.LBE23:
 425              	.LBE22:
 426              		.loc 1 198 0
 427 0038 0520     		movs	r0, #5
 428              	.LBB26:
 429              	.LBB24:
 430              		.loc 2 49 0
 431 003a 1C60     		str	r4, [r3]
 432              	.LVL43:
 433              	.LBE24:
 434              	.LBE26:
 435              		.loc 1 198 0
 436 003c FFF7FEFF 		bl	chSchGoSleepS
 437              	.LVL44:
 438              		.loc 1 199 0
 439 0040 A46A     		ldr	r4, [r4, #40]
 440              	.LVL45:
 441              		.loc 1 200 0
 442 0042 3046     		mov	r0, r6
 443 0044 FFF7FEFF 		bl	chMtxLockS
 444              	.LVL46:
 445              		.loc 1 202 0
 446 0048 2046     		mov	r0, r4
 447 004a 70BD     		pop	{r4, r5, r6, pc}
 448              	.LVL47:
 449              	.L42:
 450              	.LBB27:
 451              	.LBB25:
 452              		.loc 2 45 0
 453 004c 1846     		mov	r0, r3
 454              	.LVL48:
 455 004e EEE7     		b	.L36
 456              	.LVL49:
ARM GAS  /tmp/ccQGuPHp.s 			page 9


 457              	.L41:
 458              	.LBE25:
 459              	.LBE27:
 460              		.loc 1 191 0 discriminator 1
 461 0050 0448     		ldr	r0, .L44+4
 462 0052 FFF7FEFF 		bl	chDbgPanic
 463              	.LVL50:
 464 0056 DCE7     		b	.L35
 465              	.L40:
 466              		.loc 1 190 0 discriminator 1
 467 0058 0348     		ldr	r0, .L44+8
 468 005a FFF7FEFF 		bl	chDbgPanic
 469              	.LVL51:
 470 005e D6E7     		b	.L34
 471              	.L45:
 472              		.align	2
 473              	.L44:
 474 0060 00000000 		.word	rlist
 475 0064 10000000 		.word	.LC5
 476 0068 00000000 		.word	.LC4
 477              		.cfi_endproc
 478              	.LFE13:
 479              		.size	chCondWaitS, .-chCondWaitS
 480              		.section	.text.chCondWait,"ax",%progbits
 481              		.align	1
 482              		.p2align 4,,15
 483              		.global	chCondWait
 484              		.syntax unified
 485              		.thumb
 486              		.thumb_func
 487              		.fpu fpv4-sp-d16
 488              		.type	chCondWait, %function
 489              	chCondWait:
 490              	.LFB12:
 491              		.loc 1 158 0
 492              		.cfi_startproc
 493              		@ args = 0, pretend = 0, frame = 0
 494              		@ frame_needed = 0, uses_anonymous_args = 0
 495              	.LVL52:
 496 0000 10B5     		push	{r4, lr}
 497              		.cfi_def_cfa_offset 8
 498              		.cfi_offset 4, -8
 499              		.cfi_offset 14, -4
 500              		.loc 1 158 0
 501 0002 0446     		mov	r4, r0
 502              		.loc 1 161 0
 503              		.syntax unified
 504              	@ 161 "ChibiOS_2.6.6/os/kernel/src/chcond.c" 1
 505 0004 72B6     		cpsid   i
 506              	@ 0 "" 2
 507              		.thumb
 508              		.syntax unified
 509 0006 FFF7FEFF 		bl	dbg_check_lock
 510              	.LVL53:
 511              		.loc 1 162 0
 512 000a 2046     		mov	r0, r4
 513 000c FFF7FEFF 		bl	chCondWaitS
ARM GAS  /tmp/ccQGuPHp.s 			page 10


 514              	.LVL54:
 515 0010 0446     		mov	r4, r0
 516              	.LVL55:
 517              		.loc 1 163 0
 518 0012 FFF7FEFF 		bl	dbg_check_unlock
 519              	.LVL56:
 520              		.syntax unified
 521              	@ 163 "ChibiOS_2.6.6/os/kernel/src/chcond.c" 1
 522 0016 62B6     		cpsie   i
 523              	@ 0 "" 2
 524              		.loc 1 165 0
 525              		.thumb
 526              		.syntax unified
 527 0018 2046     		mov	r0, r4
 528 001a 10BD     		pop	{r4, pc}
 529              		.cfi_endproc
 530              	.LFE12:
 531              		.size	chCondWait, .-chCondWait
 532              		.section	.text.chCondWaitTimeoutS,"ax",%progbits
 533              		.align	1
 534              		.p2align 4,,15
 535              		.global	chCondWaitTimeoutS
 536              		.syntax unified
 537              		.thumb
 538              		.thumb_func
 539              		.fpu fpv4-sp-d16
 540              		.type	chCondWaitTimeoutS, %function
 541              	chCondWaitTimeoutS:
 542              	.LFB15:
 543              		.loc 1 270 0
 544              		.cfi_startproc
 545              		@ args = 0, pretend = 0, frame = 0
 546              		@ frame_needed = 0, uses_anonymous_args = 0
 547              	.LVL57:
 548 0000 F8B5     		push	{r3, r4, r5, r6, r7, lr}
 549              		.cfi_def_cfa_offset 24
 550              		.cfi_offset 3, -24
 551              		.cfi_offset 4, -20
 552              		.cfi_offset 5, -16
 553              		.cfi_offset 6, -12
 554              		.cfi_offset 7, -8
 555              		.cfi_offset 14, -4
 556              		.loc 1 270 0
 557 0002 0446     		mov	r4, r0
 558 0004 0F46     		mov	r7, r1
 559              		.loc 1 274 0
 560 0006 FFF7FEFF 		bl	chDbgCheckClassS
 561              	.LVL58:
 562              		.loc 1 275 0
 563 000a 2CB3     		cbz	r4, .L49
 564              		.loc 1 275 0 is_stmt 0 discriminator 2
 565 000c 27B3     		cbz	r7, .L49
 566              		.loc 1 276 0 is_stmt 1
 567 000e 194D     		ldr	r5, .L66
 568 0010 AB69     		ldr	r3, [r5, #24]
 569 0012 1B6C     		ldr	r3, [r3, #64]
 570 0014 43B3     		cbz	r3, .L63
ARM GAS  /tmp/ccQGuPHp.s 			page 11


 571              	.L51:
 572              		.loc 1 280 0
 573 0016 FFF7FEFF 		bl	chMtxUnlockS
 574              	.LVL59:
 575              		.loc 1 281 0
 576 001a AA69     		ldr	r2, [r5, #24]
 577              		.loc 1 280 0
 578 001c 0646     		mov	r6, r0
 579              	.LVL60:
 580              		.loc 1 282 0
 581 001e 2546     		mov	r5, r4
 582              	.LVL61:
 583              		.loc 1 281 0
 584 0020 9462     		str	r4, [r2, #40]
 585              		.loc 1 282 0
 586 0022 2346     		mov	r3, r4
 587 0024 03E0     		b	.L53
 588              	.LVL62:
 589              	.L65:
 590              	.LBB28:
 591              	.LBB29:
 592              		.loc 2 46 0
 593 0026 9868     		ldr	r0, [r3, #8]
 594 0028 9168     		ldr	r1, [r2, #8]
 595 002a 8842     		cmp	r0, r1
 596 002c 20D3     		bcc	.L64
 597              	.L53:
 598              		.loc 2 45 0
 599 002e 1B68     		ldr	r3, [r3]
 600              	.LVL63:
 601              		.loc 2 46 0
 602 0030 9C42     		cmp	r4, r3
 603 0032 F8D1     		bne	.L65
 604              	.L52:
 605              		.loc 2 48 0
 606 0034 6B68     		ldr	r3, [r5, #4]
 607              	.LVL64:
 608 0036 C2E90053 		strd	r5, r3, [r2]
 609              		.loc 2 49 0
 610 003a 6A60     		str	r2, [r5, #4]
 611 003c 5368     		ldr	r3, [r2, #4]
 612              	.LBE29:
 613              	.LBE28:
 614              		.loc 1 283 0
 615 003e 3946     		mov	r1, r7
 616              	.LBB32:
 617              	.LBB30:
 618              		.loc 2 49 0
 619 0040 1A60     		str	r2, [r3]
 620              	.LVL65:
 621              	.LBE30:
 622              	.LBE32:
 623              		.loc 1 283 0
 624 0042 0520     		movs	r0, #5
 625 0044 FFF7FEFF 		bl	chSchGoSleepTimeoutS
 626              	.LVL66:
 627              		.loc 1 284 0
ARM GAS  /tmp/ccQGuPHp.s 			page 12


 628 0048 431C     		adds	r3, r0, #1
 629              		.loc 1 283 0
 630 004a 0446     		mov	r4, r0
 631              	.LVL67:
 632              		.loc 1 284 0
 633 004c 02D0     		beq	.L48
 634              		.loc 1 285 0
 635 004e 3046     		mov	r0, r6
 636              	.LVL68:
 637 0050 FFF7FEFF 		bl	chMtxLockS
 638              	.LVL69:
 639              	.L48:
 640              		.loc 1 287 0
 641 0054 2046     		mov	r0, r4
 642 0056 F8BD     		pop	{r3, r4, r5, r6, r7, pc}
 643              	.LVL70:
 644              	.L49:
 645              		.loc 1 276 0 discriminator 3
 646 0058 064D     		ldr	r5, .L66
 647              		.loc 1 275 0 discriminator 3
 648 005a 0748     		ldr	r0, .L66+4
 649 005c FFF7FEFF 		bl	chDbgPanic
 650              	.LVL71:
 651              		.loc 1 276 0 discriminator 3
 652 0060 AB69     		ldr	r3, [r5, #24]
 653 0062 1B6C     		ldr	r3, [r3, #64]
 654 0064 002B     		cmp	r3, #0
 655 0066 D6D1     		bne	.L51
 656              	.L63:
 657              		.loc 1 276 0 is_stmt 0 discriminator 1
 658 0068 0448     		ldr	r0, .L66+8
 659 006a FFF7FEFF 		bl	chDbgPanic
 660              	.LVL72:
 661 006e D2E7     		b	.L51
 662              	.LVL73:
 663              	.L64:
 664              	.LBB33:
 665              	.LBB31:
 666              		.loc 2 45 0 is_stmt 1
 667 0070 1D46     		mov	r5, r3
 668 0072 DFE7     		b	.L52
 669              	.L67:
 670              		.align	2
 671              	.L66:
 672 0074 00000000 		.word	rlist
 673 0078 00000000 		.word	.LC6
 674 007c 18000000 		.word	.LC7
 675              	.LBE31:
 676              	.LBE33:
 677              		.cfi_endproc
 678              	.LFE15:
 679              		.size	chCondWaitTimeoutS, .-chCondWaitTimeoutS
 680              		.section	.text.chCondWaitTimeout,"ax",%progbits
 681              		.align	1
 682              		.p2align 4,,15
 683              		.global	chCondWaitTimeout
 684              		.syntax unified
ARM GAS  /tmp/ccQGuPHp.s 			page 13


 685              		.thumb
 686              		.thumb_func
 687              		.fpu fpv4-sp-d16
 688              		.type	chCondWaitTimeout, %function
 689              	chCondWaitTimeout:
 690              	.LFB14:
 691              		.loc 1 233 0
 692              		.cfi_startproc
 693              		@ args = 0, pretend = 0, frame = 0
 694              		@ frame_needed = 0, uses_anonymous_args = 0
 695              	.LVL74:
 696 0000 38B5     		push	{r3, r4, r5, lr}
 697              		.cfi_def_cfa_offset 16
 698              		.cfi_offset 3, -16
 699              		.cfi_offset 4, -12
 700              		.cfi_offset 5, -8
 701              		.cfi_offset 14, -4
 702              		.loc 1 233 0
 703 0002 0446     		mov	r4, r0
 704 0004 0D46     		mov	r5, r1
 705              		.loc 1 236 0
 706              		.syntax unified
 707              	@ 236 "ChibiOS_2.6.6/os/kernel/src/chcond.c" 1
 708 0006 72B6     		cpsid   i
 709              	@ 0 "" 2
 710              		.thumb
 711              		.syntax unified
 712 0008 FFF7FEFF 		bl	dbg_check_lock
 713              	.LVL75:
 714              		.loc 1 237 0
 715 000c 2946     		mov	r1, r5
 716 000e 2046     		mov	r0, r4
 717 0010 FFF7FEFF 		bl	chCondWaitTimeoutS
 718              	.LVL76:
 719 0014 0446     		mov	r4, r0
 720              	.LVL77:
 721              		.loc 1 238 0
 722 0016 FFF7FEFF 		bl	dbg_check_unlock
 723              	.LVL78:
 724              		.syntax unified
 725              	@ 238 "ChibiOS_2.6.6/os/kernel/src/chcond.c" 1
 726 001a 62B6     		cpsie   i
 727              	@ 0 "" 2
 728              		.loc 1 240 0
 729              		.thumb
 730              		.syntax unified
 731 001c 2046     		mov	r0, r4
 732 001e 38BD     		pop	{r3, r4, r5, pc}
 733              		.cfi_endproc
 734              	.LFE14:
 735              		.size	chCondWaitTimeout, .-chCondWaitTimeout
 736              		.section	.rodata.chCondBroadcastI.str1.4,"aMS",%progbits,1
 737              		.align	2
 738              	.LC3:
 739 0000 22636843 		.ascii	"\"chCondBroadcastI\"()\000"
 739      6F6E6442 
 739      726F6164 
ARM GAS  /tmp/ccQGuPHp.s 			page 14


 739      63617374 
 739      49222829 
 740              		.section	.rodata.chCondInit.str1.4,"aMS",%progbits,1
 741              		.align	2
 742              	.LC0:
 743 0000 22636843 		.ascii	"\"chCondInit\"()\000"
 743      6F6E6449 
 743      6E697422 
 743      282900
 744              		.section	.rodata.chCondSignal.str1.4,"aMS",%progbits,1
 745              		.align	2
 746              	.LC1:
 747 0000 22636843 		.ascii	"\"chCondSignal\"()\000"
 747      6F6E6453 
 747      69676E61 
 747      6C222829 
 747      00
 748              		.section	.rodata.chCondSignalI.str1.4,"aMS",%progbits,1
 749              		.align	2
 750              	.LC2:
 751 0000 22636843 		.ascii	"\"chCondSignalI\"()\000"
 751      6F6E6453 
 751      69676E61 
 751      6C492228 
 751      2900
 752              		.section	.rodata.chCondWaitS.str1.4,"aMS",%progbits,1
 753              		.align	2
 754              	.LC4:
 755 0000 22636843 		.ascii	"\"chCondWaitS\"()\000"
 755      6F6E6457 
 755      61697453 
 755      22282900 
 756              	.LC5:
 757 0010 6368436F 		.ascii	"chCondWaitS(), #1\000"
 757      6E645761 
 757      69745328 
 757      292C2023 
 757      3100
 758              		.section	.rodata.chCondWaitTimeoutS.str1.4,"aMS",%progbits,1
 759              		.align	2
 760              	.LC6:
 761 0000 22636843 		.ascii	"\"chCondWaitTimeoutS\"()\000"
 761      6F6E6457 
 761      61697454 
 761      696D656F 
 761      75745322 
 762 0017 00       		.space	1
 763              	.LC7:
 764 0018 6368436F 		.ascii	"chCondWaitTimeoutS(), #1\000"
 764      6E645761 
 764      69745469 
 764      6D656F75 
 764      74532829 
 765              		.text
 766              	.Letext0:
 767              		.file 3 "/usr/arm-none-eabi/include/machine/_default_types.h"
 768              		.file 4 "/usr/arm-none-eabi/include/sys/_stdint.h"
ARM GAS  /tmp/ccQGuPHp.s 			page 15


 769              		.file 5 "ChibiOS_2.6.6/os/ports/GCC/ARMCMx/chtypes.h"
 770              		.file 6 "ChibiOS_2.6.6/os/kernel/include/chlists.h"
 771              		.file 7 "ChibiOS_2.6.6/os/kernel/include/chthreads.h"
 772              		.file 8 "ChibiOS_2.6.6/os/ports/GCC/ARMCMx/chcore_v7m.h"
 773              		.file 9 "ChibiOS_2.6.6/os/kernel/include/chvt.h"
 774              		.file 10 "ChibiOS_2.6.6/os/kernel/include/chschd.h"
 775              		.file 11 "ChibiOS_2.6.6/os/kernel/include/chmtx.h"
 776              		.file 12 "ChibiOS_2.6.6/os/kernel/include/chcond.h"
 777              		.file 13 "ChibiOS_2.6.6/os/kernel/include/chregistry.h"
 778              		.file 14 "ChibiOS_2.6.6/os/kernel/include/chdebug.h"
 779              		.file 15 "ChibiOS_2.6.6/os/kernel/include/ch.h"