ARM GAS  /tmp/ccFb4fbO.s 			page 1


   1              		.cpu cortex-m4
   2              		.eabi_attribute 27, 1
   3              		.eabi_attribute 28, 1
   4              		.eabi_attribute 20, 1
   5              		.eabi_attribute 21, 1
   6              		.eabi_attribute 23, 3
   7              		.eabi_attribute 24, 1
   8              		.eabi_attribute 25, 1
   9              		.eabi_attribute 26, 1
  10              		.eabi_attribute 30, 2
  11              		.eabi_attribute 34, 1
  12              		.eabi_attribute 18, 4
  13              		.file	"chcore_v7m.c"
  14              		.text
  15              	.Ltext0:
  16              		.cfi_sections	.debug_frame
  17              		.section	.text._port_switch_from_isr,"ax",%progbits
  18              		.align	1
  19              		.p2align 4,,15
  20              		.global	_port_switch_from_isr
  21              		.syntax unified
  22              		.thumb
  23              		.thumb_func
  24              		.fpu fpv4-sp-d16
  25              		.type	_port_switch_from_isr, %function
  26              	_port_switch_from_isr:
  27              	.LFB11:
  28              		.file 1 "ChibiOS_2.6.6/os/ports/GCC/ARMCMx/chcore_v7m.c"
  29              		.loc 1 200 0
  30              		.cfi_startproc
  31              		@ Naked Function: prologue and epilogue provided by programmer.
  32              		@ Volatile: function does not return.
  33              		@ args = 0, pretend = 0, frame = 0
  34              		@ frame_needed = 0, uses_anonymous_args = 0
  35              		.loc 1 202 0
  36 0000 FFF7FEFF 		bl	dbg_check_lock
  37              	.LVL0:
  38              		.loc 1 203 0
  39 0004 FFF7FEFF 		bl	chSchDoReschedule
  40              	.LVL1:
  41              		.loc 1 204 0
  42 0008 FFF7FEFF 		bl	dbg_check_unlock
  43              	.LVL2:
  44              		.loc 1 205 0
  45              		.syntax unified
  46              	@ 205 "ChibiOS_2.6.6/os/ports/GCC/ARMCMx/chcore_v7m.c" 1
  47              		_port_exit_from_isr:
  48              	@ 0 "" 2
  49              		.loc 1 209 0
  50              		.thumb
  51              		.syntax unified
  52 000c 024B     		ldr	r3, .L4
  53 000e 4FF08052 		mov	r2, #268435456
  54 0012 5A60     		str	r2, [r3, #4]
  55              		.loc 1 210 0
  56              		.syntax unified
  57              	@ 210 "ChibiOS_2.6.6/os/ports/GCC/ARMCMx/chcore_v7m.c" 1
ARM GAS  /tmp/ccFb4fbO.s 			page 2


  58 0014 62B6     		cpsie   i
  59              	@ 0 "" 2
  60              		.thumb
  61              		.syntax unified
  62              	.L2:
  63 0016 FEE7     		b	.L2
  64              	.L5:
  65              		.align	2
  66              	.L4:
  67 0018 00ED00E0 		.word	-536810240
  68              		.cfi_endproc
  69              	.LFE11:
  70              		.size	_port_switch_from_isr, .-_port_switch_from_isr
  71              		.section	.text._port_irq_epilogue.part.0,"ax",%progbits
  72              		.align	1
  73              		.p2align 4,,15
  74              		.syntax unified
  75              		.thumb
  76              		.thumb_func
  77              		.fpu fpv4-sp-d16
  78              		.type	_port_irq_epilogue.part.0, %function
  79              	_port_irq_epilogue.part.0:
  80              	.LFB14:
  81              		.loc 1 150 0
  82              		.cfi_startproc
  83              		@ args = 0, pretend = 0, frame = 0
  84              		@ frame_needed = 0, uses_anonymous_args = 0
  85              		@ link register save eliminated.
  86              	.LBB5:
  87              		.loc 1 159 0
  88              		.syntax unified
  89              	@ 159 "ChibiOS_2.6.6/os/ports/GCC/ARMCMx/chcore_v7m.c" 1
  90 0000 F1EE10FA 		vmrs    APSR_nzcv, FPSCR
  91              	@ 0 "" 2
  92              		.loc 1 163 0
  93              	@ 163 "ChibiOS_2.6.6/os/ports/GCC/ARMCMx/chcore_v7m.c" 1
  94 0004 EFF30983 		mrs     r3, PSP
  95              	@ 0 "" 2
  96              	.LVL3:
  97              		.loc 1 170 0
  98              		.thumb
  99              		.syntax unified
 100 0008 144A     		ldr	r2, .L12
 101              		.loc 1 168 0
 102 000a 4FF08071 		mov	r1, #16777216
 103              		.loc 1 170 0
 104 000e D268     		ldr	r2, [r2, #12]
 105 0010 43F8082C 		str	r2, [r3, #-8]
 106              		.loc 1 168 0
 107 0014 43F84C1C 		str	r1, [r3, #-76]
 108              		.loc 1 167 0
 109 0018 A3F16802 		sub	r2, r3, #104
 110              	.LVL4:
 111              		.loc 1 172 0
 112              		.syntax unified
 113              	@ 172 "ChibiOS_2.6.6/os/ports/GCC/ARMCMx/chcore_v7m.c" 1
 114 001c 82F30988 		msr     PSP, r2
ARM GAS  /tmp/ccFb4fbO.s 			page 3


 115              	@ 0 "" 2
 116              		.loc 1 176 0
 117              		.thumb
 118              		.syntax unified
 119 0020 0F49     		ldr	r1, .L12+4
 120 0022 8A69     		ldr	r2, [r1, #24]
 121              	.LVL5:
 122 0024 92F82300 		ldrb	r0, [r2, #35]	@ zero_extendqisi2
 123 0028 58B1     		cbz	r0, .L7
 124 002a 0868     		ldr	r0, [r1]
 125 002c 9168     		ldr	r1, [r2, #8]
 126 002e 8268     		ldr	r2, [r0, #8]
 127 0030 8A42     		cmp	r2, r1
 128 0032 94BF     		ite	ls
 129 0034 0022     		movls	r2, #0
 130 0036 0122     		movhi	r2, #1
 131 0038 62B1     		cbz	r2, .L9
 132              	.L11:
 133              		.loc 1 178 0
 134 003a 0A4A     		ldr	r2, .L12+8
 135 003c 43F8502C 		str	r2, [r3, #-80]
 136 0040 7047     		bx	lr
 137              	.L7:
 138              		.loc 1 176 0
 139 0042 0868     		ldr	r0, [r1]
 140 0044 9168     		ldr	r1, [r2, #8]
 141 0046 8268     		ldr	r2, [r0, #8]
 142 0048 8A42     		cmp	r2, r1
 143 004a 34BF     		ite	cc
 144 004c 0022     		movcc	r2, #0
 145 004e 0122     		movcs	r2, #1
 146 0050 002A     		cmp	r2, #0
 147 0052 F2D1     		bne	.L11
 148              	.L9:
 149              		.loc 1 183 0
 150 0054 044A     		ldr	r2, .L12+12
 151 0056 43F8502C 		str	r2, [r3, #-80]
 152              	.LBE5:
 153              		.loc 1 191 0
 154 005a 7047     		bx	lr
 155              	.L13:
 156              		.align	2
 157              	.L12:
 158 005c 30EF00E0 		.word	-536809680
 159 0060 00000000 		.word	rlist
 160 0064 00000000 		.word	_port_switch_from_isr
 161 0068 0C000000 		.word	_port_exit_from_isr
 162              		.cfi_endproc
 163              	.LFE14:
 164              		.size	_port_irq_epilogue.part.0, .-_port_irq_epilogue.part.0
 165              		.section	.text.SysTickVector,"ax",%progbits
 166              		.align	1
 167              		.p2align 4,,15
 168              		.global	SysTickVector
 169              		.syntax unified
 170              		.thumb
 171              		.thumb_func
ARM GAS  /tmp/ccFb4fbO.s 			page 4


 172              		.fpu fpv4-sp-d16
 173              		.type	SysTickVector, %function
 174              	SysTickVector:
 175              	.LFB7:
 176              		.loc 1 47 0
 177              		.cfi_startproc
 178              		@ args = 0, pretend = 0, frame = 0
 179              		@ frame_needed = 0, uses_anonymous_args = 0
 180 0000 08B5     		push	{r3, lr}
 181              		.cfi_def_cfa_offset 8
 182              		.cfi_offset 3, -8
 183              		.cfi_offset 14, -4
 184              		.loc 1 49 0
 185 0002 FFF7FEFF 		bl	dbg_check_enter_isr
 186              	.LVL6:
 187              		.loc 1 51 0
 188              		.syntax unified
 189              	@ 51 "ChibiOS_2.6.6/os/ports/GCC/ARMCMx/chcore_v7m.c" 1
 190 0006 72B6     		cpsid   i
 191              	@ 0 "" 2
 192              		.thumb
 193              		.syntax unified
 194 0008 FFF7FEFF 		bl	dbg_check_lock_from_isr
 195              	.LVL7:
 196              		.loc 1 52 0
 197 000c FFF7FEFF 		bl	chSysTimerHandlerI
 198              	.LVL8:
 199              		.loc 1 53 0
 200 0010 FFF7FEFF 		bl	dbg_check_unlock_from_isr
 201              	.LVL9:
 202              		.syntax unified
 203              	@ 53 "ChibiOS_2.6.6/os/ports/GCC/ARMCMx/chcore_v7m.c" 1
 204 0014 62B6     		cpsie   i
 205              	@ 0 "" 2
 206              		.loc 1 55 0
 207              		.thumb
 208              		.syntax unified
 209 0016 FFF7FEFF 		bl	dbg_check_leave_isr
 210              	.LVL10:
 211              	.LBB6:
 212              	.LBB7:
 213              		.loc 1 152 0
 214              		.syntax unified
 215              	@ 152 "ChibiOS_2.6.6/os/ports/GCC/ARMCMx/chcore_v7m.c" 1
 216 001a 72B6     		cpsid   i
 217              	@ 0 "" 2
 218              		.loc 1 153 0
 219              		.thumb
 220              		.syntax unified
 221 001c 044B     		ldr	r3, .L18
 222 001e 5B68     		ldr	r3, [r3, #4]
 223 0020 1B05     		lsls	r3, r3, #20
 224 0022 01D4     		bmi	.L17
 225              		.loc 1 190 0
 226              		.syntax unified
 227              	@ 190 "ChibiOS_2.6.6/os/ports/GCC/ARMCMx/chcore_v7m.c" 1
 228 0024 62B6     		cpsie   i
ARM GAS  /tmp/ccFb4fbO.s 			page 5


 229              	@ 0 "" 2
 230              		.thumb
 231              		.syntax unified
 232              	.LBE7:
 233              	.LBE6:
 234              		.loc 1 56 0
 235 0026 08BD     		pop	{r3, pc}
 236              	.L17:
 237 0028 BDE80840 		pop	{r3, lr}
 238              		.cfi_restore 14
 239              		.cfi_restore 3
 240              		.cfi_def_cfa_offset 0
 241              	.LBB9:
 242              	.LBB8:
 243 002c FFF7FEBF 		b	_port_irq_epilogue.part.0
 244              	.LVL11:
 245              	.L19:
 246              		.align	2
 247              	.L18:
 248 0030 00ED00E0 		.word	-536810240
 249              	.LBE8:
 250              	.LBE9:
 251              		.cfi_endproc
 252              	.LFE7:
 253              		.size	SysTickVector, .-SysTickVector
 254              		.section	.text.PendSVVector,"ax",%progbits
 255              		.align	1
 256              		.p2align 4,,15
 257              		.global	PendSVVector
 258              		.syntax unified
 259              		.thumb
 260              		.thumb_func
 261              		.fpu fpv4-sp-d16
 262              		.type	PendSVVector, %function
 263              	PendSVVector:
 264              	.LFB8:
 265              		.loc 1 93 0
 266              		.cfi_startproc
 267              		@ args = 0, pretend = 0, frame = 0
 268              		@ frame_needed = 0, uses_anonymous_args = 0
 269              		@ link register save eliminated.
 270              		.loc 1 98 0
 271 0000 054A     		ldr	r2, .L21
 272 0002 5368     		ldr	r3, [r2, #4]
 273 0004 23F00103 		bic	r3, r3, #1
 274 0008 5360     		str	r3, [r2, #4]
 275              		.loc 1 102 0
 276              		.syntax unified
 277              	@ 102 "ChibiOS_2.6.6/os/ports/GCC/ARMCMx/chcore_v7m.c" 1
 278 000a EFF30983 		mrs     r3, PSP
 279              	@ 0 "" 2
 280              	.LVL12:
 281              		.loc 1 106 0
 282              		.thumb
 283              		.syntax unified
 284 000e 6833     		adds	r3, r3, #104
 285              	.LVL13:
ARM GAS  /tmp/ccFb4fbO.s 			page 6


 286              		.loc 1 109 0
 287              		.syntax unified
 288              	@ 109 "ChibiOS_2.6.6/os/ports/GCC/ARMCMx/chcore_v7m.c" 1
 289 0010 83F30988 		msr     PSP, r3
 290              	@ 0 "" 2
 291              		.loc 1 110 0
 292              		.thumb
 293              		.syntax unified
 294 0014 7047     		bx	lr
 295              	.L22:
 296 0016 00BF     		.align	2
 297              	.L21:
 298 0018 30EF00E0 		.word	-536809680
 299              		.cfi_endproc
 300              	.LFE8:
 301              		.size	PendSVVector, .-PendSVVector
 302              		.section	.text._port_init,"ax",%progbits
 303              		.align	1
 304              		.p2align 4,,15
 305              		.global	_port_init
 306              		.syntax unified
 307              		.thumb
 308              		.thumb_func
 309              		.fpu fpv4-sp-d16
 310              		.type	_port_init, %function
 311              	_port_init:
 312              	.LFB9:
 313              		.loc 1 120 0
 314              		.cfi_startproc
 315              		@ args = 0, pretend = 0, frame = 0
 316              		@ frame_needed = 0, uses_anonymous_args = 0
 317 0000 08B5     		push	{r3, lr}
 318              		.cfi_def_cfa_offset 8
 319              		.cfi_offset 3, -8
 320              		.cfi_offset 14, -4
 321              		.loc 1 123 0
 322 0002 094B     		ldr	r3, .L25
 323              		.loc 1 124 0
 324 0004 094A     		ldr	r2, .L25+4
 325              		.loc 1 123 0
 326 0006 0021     		movs	r1, #0
 327 0008 9960     		str	r1, [r3, #8]
 328              		.loc 1 127 0
 329 000a 0720     		movs	r0, #7
 330              		.loc 1 124 0
 331 000c DA60     		str	r2, [r3, #12]
 332              		.loc 1 127 0
 333 000e 1021     		movs	r1, #16
 334 0010 FFF7FEFF 		bl	nvicSetSystemHandlerPriority
 335              	.LVL14:
 336              		.loc 1 129 0
 337 0014 1021     		movs	r1, #16
 338 0016 0A20     		movs	r0, #10
 339 0018 FFF7FEFF 		bl	nvicSetSystemHandlerPriority
 340              	.LVL15:
 341              		.loc 1 131 0
 342 001c 8021     		movs	r1, #128
ARM GAS  /tmp/ccFb4fbO.s 			page 7


 343 001e 0B20     		movs	r0, #11
 344              		.loc 1 133 0
 345 0020 BDE80840 		pop	{r3, lr}
 346              		.cfi_restore 14
 347              		.cfi_restore 3
 348              		.cfi_def_cfa_offset 0
 349              		.loc 1 131 0
 350 0024 FFF7FEBF 		b	nvicSetSystemHandlerPriority
 351              	.LVL16:
 352              	.L26:
 353              		.align	2
 354              	.L25:
 355 0028 00ED00E0 		.word	-536810240
 356 002c 0003FA05 		.word	100270848
 357              		.cfi_endproc
 358              	.LFE9:
 359              		.size	_port_init, .-_port_init
 360              		.section	.text._port_irq_epilogue,"ax",%progbits
 361              		.align	1
 362              		.p2align 4,,15
 363              		.global	_port_irq_epilogue
 364              		.syntax unified
 365              		.thumb
 366              		.thumb_func
 367              		.fpu fpv4-sp-d16
 368              		.type	_port_irq_epilogue, %function
 369              	_port_irq_epilogue:
 370              	.LFB10:
 371              		.loc 1 150 0
 372              		.cfi_startproc
 373              		@ args = 0, pretend = 0, frame = 0
 374              		@ frame_needed = 0, uses_anonymous_args = 0
 375              		@ link register save eliminated.
 376              		.loc 1 152 0
 377              		.syntax unified
 378              	@ 152 "ChibiOS_2.6.6/os/ports/GCC/ARMCMx/chcore_v7m.c" 1
 379 0000 72B6     		cpsid   i
 380              	@ 0 "" 2
 381              		.loc 1 153 0
 382              		.thumb
 383              		.syntax unified
 384 0002 044B     		ldr	r3, .L29
 385 0004 5B68     		ldr	r3, [r3, #4]
 386 0006 1B05     		lsls	r3, r3, #20
 387 0008 01D5     		bpl	.L28
 388 000a FFF7FEBF 		b	_port_irq_epilogue.part.0
 389              	.LVL17:
 390              	.L28:
 391              		.loc 1 190 0
 392              		.syntax unified
 393              	@ 190 "ChibiOS_2.6.6/os/ports/GCC/ARMCMx/chcore_v7m.c" 1
 394 000e 62B6     		cpsie   i
 395              	@ 0 "" 2
 396              		.loc 1 191 0
 397              		.thumb
 398              		.syntax unified
 399 0010 7047     		bx	lr
ARM GAS  /tmp/ccFb4fbO.s 			page 8


 400              	.L30:
 401 0012 00BF     		.align	2
 402              	.L29:
 403 0014 00ED00E0 		.word	-536810240
 404              		.cfi_endproc
 405              	.LFE10:
 406              		.size	_port_irq_epilogue, .-_port_irq_epilogue
 407              		.section	.text._port_switch,"ax",%progbits
 408              		.align	1
 409              		.p2align 4,,15
 410              		.global	_port_switch
 411              		.syntax unified
 412              		.thumb
 413              		.thumb_func
 414              		.fpu fpv4-sp-d16
 415              		.type	_port_switch, %function
 416              	_port_switch:
 417              	.LFB12:
 418              		.loc 1 229 0
 419              		.cfi_startproc
 420              		@ Naked Function: prologue and epilogue provided by programmer.
 421              		@ args = 0, pretend = 0, frame = 0
 422              		@ frame_needed = 0, uses_anonymous_args = 0
 423              	.LVL18:
 424              		.loc 1 231 0
 425              		.syntax unified
 426              	@ 231 "ChibiOS_2.6.6/os/ports/GCC/ARMCMx/chcore_v7m.c" 1
 427 0000 2DE9F04F 		push    {r4, r5, r6, r7, r8, r9, r10, r11, lr}
 428              	@ 0 "" 2
 429              		.loc 1 234 0
 430              	@ 234 "ChibiOS_2.6.6/os/ports/GCC/ARMCMx/chcore_v7m.c" 1
 431 0004 2DED108A 		vpush   {s16-s31}
 432              	@ 0 "" 2
 433              		.loc 1 237 0
 434              	@ 237 "ChibiOS_2.6.6/os/ports/GCC/ARMCMx/chcore_v7m.c" 1
 435 0008 C1F80CD0 		str     sp, [r1, #12]                          
 436 000c D0F80CD0 		ldr     sp, [r0, #12]
 437              	@ 0 "" 2
 438              		.loc 1 241 0
 439              	@ 241 "ChibiOS_2.6.6/os/ports/GCC/ARMCMx/chcore_v7m.c" 1
 440 0010 BDEC108A 		vpop    {s16-s31}
 441              	@ 0 "" 2
 442              		.loc 1 243 0
 443              	@ 243 "ChibiOS_2.6.6/os/ports/GCC/ARMCMx/chcore_v7m.c" 1
 444 0014 BDE8F08F 		pop     {r4, r5, r6, r7, r8, r9, r10, r11, pc}
 445              	@ 0 "" 2
 446              		.loc 1 245 0
 447              		.thumb
 448              		.syntax unified
 449              		.cfi_endproc
 450              	.LFE12:
 451              		.size	_port_switch, .-_port_switch
 452              		.section	.text._port_thread_start,"ax",%progbits
 453              		.align	1
 454              		.p2align 4,,15
 455              		.global	_port_thread_start
 456              		.syntax unified
ARM GAS  /tmp/ccFb4fbO.s 			page 9


 457              		.thumb
 458              		.thumb_func
 459              		.fpu fpv4-sp-d16
 460              		.type	_port_thread_start, %function
 461              	_port_thread_start:
 462              	.LFB13:
 463              		.loc 1 252 0
 464              		.cfi_startproc
 465              		@ args = 0, pretend = 0, frame = 0
 466              		@ frame_needed = 0, uses_anonymous_args = 0
 467 0000 08B5     		push	{r3, lr}
 468              		.cfi_def_cfa_offset 8
 469              		.cfi_offset 3, -8
 470              		.cfi_offset 14, -4
 471              		.loc 1 254 0
 472 0002 FFF7FEFF 		bl	dbg_check_unlock
 473              	.LVL19:
 474              		.syntax unified
 475              	@ 254 "ChibiOS_2.6.6/os/ports/GCC/ARMCMx/chcore_v7m.c" 1
 476 0006 62B6     		cpsie   i
 477              	@ 0 "" 2
 478              		.loc 1 255 0
 479              	@ 255 "ChibiOS_2.6.6/os/ports/GCC/ARMCMx/chcore_v7m.c" 1
 480 0008 2846     		mov     r0, r5                                 
 481 000a A047     		blx     r4                                     
 482 000c FFF7FEFF 		bl      chThdExit
 483              	@ 0 "" 2
 484              		.loc 1 258 0
 485              		.thumb
 486              		.syntax unified
 487 0010 08BD     		pop	{r3, pc}
 488              		.cfi_endproc
 489              	.LFE13:
 490              		.size	_port_thread_start, .-_port_thread_start
 491 0012 00BF     		.text
 492              	.Letext0:
 493              		.file 2 "/usr/arm-none-eabi/include/machine/_default_types.h"
 494              		.file 3 "/usr/arm-none-eabi/include/sys/_stdint.h"
 495              		.file 4 "ChibiOS_2.6.6/os/ports/GCC/ARMCMx/chtypes.h"
 496              		.file 5 "ChibiOS_2.6.6/os/kernel/include/chlists.h"
 497              		.file 6 "ChibiOS_2.6.6/os/kernel/include/chthreads.h"
 498              		.file 7 "ChibiOS_2.6.6/os/ports/GCC/ARMCMx/chcore_v7m.h"
 499              		.file 8 "ChibiOS_2.6.6/os/ports/common/ARMCMx/nvic.h"
 500              		.file 9 "ChibiOS_2.6.6/os/kernel/include/chvt.h"
 501              		.file 10 "ChibiOS_2.6.6/os/kernel/include/chschd.h"
 502              		.file 11 "ChibiOS_2.6.6/os/kernel/include/chmtx.h"
 503              		.file 12 "ChibiOS_2.6.6/os/kernel/include/chregistry.h"
 504              		.file 13 "ChibiOS_2.6.6/os/kernel/include/chdebug.h"
 505              		.file 14 "ChibiOS_2.6.6/os/kernel/include/ch.h"
 506              		.file 15 "ChibiOS_2.6.6/os/kernel/include/chsys.h"
 507              		.section	.debug_info,"",%progbits
 508              	.Ldebug_info0:
 509 0000 290D0000 		.4byte	0xd29
 510 0004 0400     		.2byte	0x4
 511 0006 00000000 		.4byte	.Ldebug_abbrev0
 512 000a 04       		.byte	0x4
 513 000b 01       		.uleb128 0x1
ARM GAS  /tmp/ccFb4fbO.s 			page 10


 514 000c 67000000 		.4byte	.LASF159
 515 0010 0C       		.byte	0xc
 516 0011 8B010000 		.4byte	.LASF160
 517 0015 2C040000 		.4byte	.LASF161
 518 0019 18000000 		.4byte	.Ldebug_ranges0+0x18
 519 001d 00000000 		.4byte	0
 520 0021 00000000 		.4byte	.Ldebug_line0
 521 0025 02       		.uleb128 0x2
 522 0026 04       		.byte	0x4
 523 0027 05       		.byte	0x5
 524 0028 696E7400 		.ascii	"int\000"
 525 002c 03       		.uleb128 0x3
 526 002d 04       		.byte	0x4
 527 002e 07       		.byte	0x7
 528 002f 38030000 		.4byte	.LASF0
 529 0033 03       		.uleb128 0x3
 530 0034 01       		.byte	0x1
 531 0035 06       		.byte	0x6
 532 0036 0D020000 		.4byte	.LASF1
 533 003a 04       		.uleb128 0x4
 534 003b 2D000000 		.4byte	.LASF4
 535 003f 02       		.byte	0x2
 536 0040 2B       		.byte	0x2b
 537 0041 45000000 		.4byte	0x45
 538 0045 03       		.uleb128 0x3
 539 0046 01       		.byte	0x1
 540 0047 08       		.byte	0x8
 541 0048 D2050000 		.4byte	.LASF2
 542 004c 03       		.uleb128 0x3
 543 004d 02       		.byte	0x2
 544 004e 05       		.byte	0x5
 545 004f FE050000 		.4byte	.LASF3
 546 0053 04       		.uleb128 0x4
 547 0054 AD060000 		.4byte	.LASF5
 548 0058 02       		.byte	0x2
 549 0059 39       		.byte	0x39
 550 005a 5E000000 		.4byte	0x5e
 551 005e 03       		.uleb128 0x3
 552 005f 02       		.byte	0x2
 553 0060 07       		.byte	0x7
 554 0061 E2030000 		.4byte	.LASF6
 555 0065 04       		.uleb128 0x4
 556 0066 D4060000 		.4byte	.LASF7
 557 006a 02       		.byte	0x2
 558 006b 4D       		.byte	0x4d
 559 006c 70000000 		.4byte	0x70
 560 0070 03       		.uleb128 0x3
 561 0071 04       		.byte	0x4
 562 0072 05       		.byte	0x5
 563 0073 5A020000 		.4byte	.LASF8
 564 0077 04       		.uleb128 0x4
 565 0078 B7020000 		.4byte	.LASF9
 566 007c 02       		.byte	0x2
 567 007d 4F       		.byte	0x4f
 568 007e 82000000 		.4byte	0x82
 569 0082 03       		.uleb128 0x3
 570 0083 04       		.byte	0x4
ARM GAS  /tmp/ccFb4fbO.s 			page 11


 571 0084 07       		.byte	0x7
 572 0085 73030000 		.4byte	.LASF10
 573 0089 03       		.uleb128 0x3
 574 008a 08       		.byte	0x8
 575 008b 05       		.byte	0x5
 576 008c FF010000 		.4byte	.LASF11
 577 0090 04       		.uleb128 0x4
 578 0091 6B050000 		.4byte	.LASF12
 579 0095 02       		.byte	0x2
 580 0096 69       		.byte	0x69
 581 0097 9B000000 		.4byte	0x9b
 582 009b 03       		.uleb128 0x3
 583 009c 08       		.byte	0x8
 584 009d 07       		.byte	0x7
 585 009e C8010000 		.4byte	.LASF13
 586 00a2 04       		.uleb128 0x4
 587 00a3 61070000 		.4byte	.LASF14
 588 00a7 03       		.byte	0x3
 589 00a8 18       		.byte	0x18
 590 00a9 3A000000 		.4byte	0x3a
 591 00ad 04       		.uleb128 0x4
 592 00ae 79020000 		.4byte	.LASF15
 593 00b2 03       		.byte	0x3
 594 00b3 24       		.byte	0x24
 595 00b4 53000000 		.4byte	0x53
 596 00b8 04       		.uleb128 0x4
 597 00b9 CA050000 		.4byte	.LASF16
 598 00bd 03       		.byte	0x3
 599 00be 2C       		.byte	0x2c
 600 00bf 65000000 		.4byte	0x65
 601 00c3 04       		.uleb128 0x4
 602 00c4 7B060000 		.4byte	.LASF17
 603 00c8 03       		.byte	0x3
 604 00c9 30       		.byte	0x30
 605 00ca 77000000 		.4byte	0x77
 606 00ce 05       		.uleb128 0x5
 607 00cf C3000000 		.4byte	0xc3
 608 00d3 04       		.uleb128 0x4
 609 00d4 24000000 		.4byte	.LASF18
 610 00d8 03       		.byte	0x3
 611 00d9 3C       		.byte	0x3c
 612 00da 90000000 		.4byte	0x90
 613 00de 03       		.uleb128 0x3
 614 00df 01       		.byte	0x1
 615 00e0 02       		.byte	0x2
 616 00e1 C4050000 		.4byte	.LASF19
 617 00e5 04       		.uleb128 0x4
 618 00e6 4D040000 		.4byte	.LASF20
 619 00ea 04       		.byte	0x4
 620 00eb 2C       		.byte	0x2c
 621 00ec A2000000 		.4byte	0xa2
 622 00f0 04       		.uleb128 0x4
 623 00f1 63020000 		.4byte	.LASF21
 624 00f5 04       		.byte	0x4
 625 00f6 2D       		.byte	0x2d
 626 00f7 A2000000 		.4byte	0xa2
 627 00fb 04       		.uleb128 0x4
ARM GAS  /tmp/ccFb4fbO.s 			page 12


 628 00fc 93050000 		.4byte	.LASF22
 629 0100 04       		.byte	0x4
 630 0101 2E       		.byte	0x2e
 631 0102 A2000000 		.4byte	0xa2
 632 0106 04       		.uleb128 0x4
 633 0107 50020000 		.4byte	.LASF23
 634 010b 04       		.byte	0x4
 635 010c 2F       		.byte	0x2f
 636 010d A2000000 		.4byte	0xa2
 637 0111 04       		.uleb128 0x4
 638 0112 BC050000 		.4byte	.LASF24
 639 0116 04       		.byte	0x4
 640 0117 30       		.byte	0x30
 641 0118 C3000000 		.4byte	0xc3
 642 011c 04       		.uleb128 0x4
 643 011d FA030000 		.4byte	.LASF25
 644 0121 04       		.byte	0x4
 645 0122 31       		.byte	0x31
 646 0123 B8000000 		.4byte	0xb8
 647 0127 04       		.uleb128 0x4
 648 0128 80040000 		.4byte	.LASF26
 649 012c 04       		.byte	0x4
 650 012d 33       		.byte	0x33
 651 012e C3000000 		.4byte	0xc3
 652 0132 04       		.uleb128 0x4
 653 0133 BF060000 		.4byte	.LASF27
 654 0137 04       		.byte	0x4
 655 0138 35       		.byte	0x35
 656 0139 C3000000 		.4byte	0xc3
 657 013d 05       		.uleb128 0x5
 658 013e 32010000 		.4byte	0x132
 659 0142 04       		.uleb128 0x4
 660 0143 27030000 		.4byte	.LASF28
 661 0147 04       		.byte	0x4
 662 0148 36       		.byte	0x36
 663 0149 B8000000 		.4byte	0xb8
 664 014d 04       		.uleb128 0x4
 665 014e 5C060000 		.4byte	.LASF29
 666 0152 05       		.byte	0x5
 667 0153 2A       		.byte	0x2a
 668 0154 58010000 		.4byte	0x158
 669 0158 06       		.uleb128 0x6
 670 0159 5C060000 		.4byte	.LASF29
 671 015d 4C       		.byte	0x4c
 672 015e 06       		.byte	0x6
 673 015f 5E       		.byte	0x5e
 674 0160 61020000 		.4byte	0x261
 675 0164 07       		.uleb128 0x7
 676 0165 41060000 		.4byte	.LASF30
 677 0169 06       		.byte	0x6
 678 016a 5F       		.byte	0x5f
 679 016b 82020000 		.4byte	0x282
 680 016f 00       		.byte	0
 681 0170 07       		.uleb128 0x7
 682 0171 B5050000 		.4byte	.LASF31
 683 0175 06       		.byte	0x6
 684 0176 61       		.byte	0x61
ARM GAS  /tmp/ccFb4fbO.s 			page 13


 685 0177 82020000 		.4byte	0x282
 686 017b 04       		.byte	0x4
 687 017c 07       		.uleb128 0x7
 688 017d F8010000 		.4byte	.LASF32
 689 0181 06       		.byte	0x6
 690 0182 63       		.byte	0x63
 691 0183 11010000 		.4byte	0x111
 692 0187 08       		.byte	0x8
 693 0188 07       		.uleb128 0x7
 694 0189 C9070000 		.4byte	.LASF33
 695 018d 06       		.byte	0x6
 696 018e 64       		.byte	0x64
 697 018f 57050000 		.4byte	0x557
 698 0193 0C       		.byte	0xc
 699 0194 07       		.uleb128 0x7
 700 0195 8C020000 		.4byte	.LASF34
 701 0199 06       		.byte	0x6
 702 019a 66       		.byte	0x66
 703 019b 82020000 		.4byte	0x282
 704 019f 10       		.byte	0x10
 705 01a0 07       		.uleb128 0x7
 706 01a1 17050000 		.4byte	.LASF35
 707 01a5 06       		.byte	0x6
 708 01a6 67       		.byte	0x67
 709 01a7 82020000 		.4byte	0x282
 710 01ab 14       		.byte	0x14
 711 01ac 07       		.uleb128 0x7
 712 01ad 93070000 		.4byte	.LASF36
 713 01b1 06       		.byte	0x6
 714 01b2 6E       		.byte	0x6e
 715 01b3 FB080000 		.4byte	0x8fb
 716 01b7 18       		.byte	0x18
 717 01b8 07       		.uleb128 0x7
 718 01b9 2D030000 		.4byte	.LASF37
 719 01bd 06       		.byte	0x6
 720 01be 74       		.byte	0x74
 721 01bf 0D090000 		.4byte	0x90d
 722 01c3 1C       		.byte	0x1c
 723 01c4 07       		.uleb128 0x7
 724 01c5 08060000 		.4byte	.LASF38
 725 01c9 06       		.byte	0x6
 726 01ca 79       		.byte	0x79
 727 01cb F0000000 		.4byte	0xf0
 728 01cf 20       		.byte	0x20
 729 01d0 07       		.uleb128 0x7
 730 01d1 4E060000 		.4byte	.LASF39
 731 01d5 06       		.byte	0x6
 732 01d6 7D       		.byte	0x7d
 733 01d7 E5000000 		.4byte	0xe5
 734 01db 21       		.byte	0x21
 735 01dc 07       		.uleb128 0x7
 736 01dd 3C070000 		.4byte	.LASF40
 737 01e1 06       		.byte	0x6
 738 01e2 82       		.byte	0x82
 739 01e3 FB000000 		.4byte	0xfb
 740 01e7 22       		.byte	0x22
 741 01e8 07       		.uleb128 0x7
ARM GAS  /tmp/ccFb4fbO.s 			page 14


 742 01e9 18060000 		.4byte	.LASF41
 743 01ed 06       		.byte	0x6
 744 01ee 88       		.byte	0x88
 745 01ef 06010000 		.4byte	0x106
 746 01f3 23       		.byte	0x23
 747 01f4 07       		.uleb128 0x7
 748 01f5 EB060000 		.4byte	.LASF42
 749 01f9 06       		.byte	0x6
 750 01fa 8F       		.byte	0x8f
 751 01fb 3D010000 		.4byte	0x13d
 752 01ff 24       		.byte	0x24
 753 0200 08       		.uleb128 0x8
 754 0201 705F7500 		.ascii	"p_u\000"
 755 0205 06       		.byte	0x6
 756 0206 B4       		.byte	0xb4
 757 0207 C6080000 		.4byte	0x8c6
 758 020b 28       		.byte	0x28
 759 020c 07       		.uleb128 0x7
 760 020d CF070000 		.4byte	.LASF43
 761 0211 06       		.byte	0x6
 762 0212 B9       		.byte	0xb9
 763 0213 A8020000 		.4byte	0x2a8
 764 0217 2C       		.byte	0x2c
 765 0218 07       		.uleb128 0x7
 766 0219 1F070000 		.4byte	.LASF44
 767 021d 06       		.byte	0x6
 768 021e BF       		.byte	0xbf
 769 021f 88020000 		.4byte	0x288
 770 0223 30       		.byte	0x30
 771 0224 07       		.uleb128 0x7
 772 0225 00000000 		.4byte	.LASF45
 773 0229 06       		.byte	0x6
 774 022a C3       		.byte	0xc3
 775 022b 1C010000 		.4byte	0x11c
 776 022f 38       		.byte	0x38
 777 0230 07       		.uleb128 0x7
 778 0231 70060000 		.4byte	.LASF46
 779 0235 06       		.byte	0x6
 780 0236 C9       		.byte	0xc9
 781 0237 27010000 		.4byte	0x127
 782 023b 3C       		.byte	0x3c
 783 023c 07       		.uleb128 0x7
 784 023d F4050000 		.4byte	.LASF47
 785 0241 06       		.byte	0x6
 786 0242 D0       		.byte	0xd0
 787 0243 13090000 		.4byte	0x913
 788 0247 40       		.byte	0x40
 789 0248 07       		.uleb128 0x7
 790 0249 C9060000 		.4byte	.LASF48
 791 024d 06       		.byte	0x6
 792 024e D4       		.byte	0xd4
 793 024f 11010000 		.4byte	0x111
 794 0253 44       		.byte	0x44
 795 0254 07       		.uleb128 0x7
 796 0255 40020000 		.4byte	.LASF49
 797 0259 06       		.byte	0x6
 798 025a DA       		.byte	0xda
ARM GAS  /tmp/ccFb4fbO.s 			page 15


 799 025b BE020000 		.4byte	0x2be
 800 025f 48       		.byte	0x48
 801 0260 00       		.byte	0
 802 0261 09       		.uleb128 0x9
 803 0262 08       		.byte	0x8
 804 0263 05       		.byte	0x5
 805 0264 61       		.byte	0x61
 806 0265 82020000 		.4byte	0x282
 807 0269 07       		.uleb128 0x7
 808 026a 41060000 		.4byte	.LASF30
 809 026e 05       		.byte	0x5
 810 026f 62       		.byte	0x62
 811 0270 82020000 		.4byte	0x282
 812 0274 00       		.byte	0
 813 0275 07       		.uleb128 0x7
 814 0276 B5050000 		.4byte	.LASF31
 815 027a 05       		.byte	0x5
 816 027b 64       		.byte	0x64
 817 027c 82020000 		.4byte	0x282
 818 0280 04       		.byte	0x4
 819 0281 00       		.byte	0
 820 0282 0A       		.uleb128 0xa
 821 0283 04       		.byte	0x4
 822 0284 4D010000 		.4byte	0x14d
 823 0288 04       		.uleb128 0x4
 824 0289 25050000 		.4byte	.LASF50
 825 028d 05       		.byte	0x5
 826 028e 66       		.byte	0x66
 827 028f 61020000 		.4byte	0x261
 828 0293 09       		.uleb128 0x9
 829 0294 04       		.byte	0x4
 830 0295 05       		.byte	0x5
 831 0296 6B       		.byte	0x6b
 832 0297 A8020000 		.4byte	0x2a8
 833 029b 07       		.uleb128 0x7
 834 029c 41060000 		.4byte	.LASF30
 835 02a0 05       		.byte	0x5
 836 02a1 6D       		.byte	0x6d
 837 02a2 82020000 		.4byte	0x282
 838 02a6 00       		.byte	0
 839 02a7 00       		.byte	0
 840 02a8 04       		.uleb128 0x4
 841 02a9 74040000 		.4byte	.LASF51
 842 02ad 05       		.byte	0x5
 843 02ae 70       		.byte	0x70
 844 02af 93020000 		.4byte	0x293
 845 02b3 04       		.uleb128 0x4
 846 02b4 DF020000 		.4byte	.LASF52
 847 02b8 07       		.byte	0x7
 848 02b9 E5       		.byte	0xe5
 849 02ba BE020000 		.4byte	0x2be
 850 02be 0B       		.uleb128 0xb
 851 02bf 04       		.byte	0x4
 852 02c0 0C       		.uleb128 0xc
 853 02c1 92040000 		.4byte	.LASF162
 854 02c5 07       		.byte	0x7
 855 02c6 EB       		.byte	0xeb
ARM GAS  /tmp/ccFb4fbO.s 			page 16


 856 02c7 D3000000 		.4byte	0xd3
 857 02cb 08       		.byte	0x8
 858 02cc 06       		.uleb128 0x6
 859 02cd 54030000 		.4byte	.LASF53
 860 02d1 68       		.byte	0x68
 861 02d2 07       		.byte	0x7
 862 02d3 ED       		.byte	0xed
 863 02d4 0B040000 		.4byte	0x40b
 864 02d8 08       		.uleb128 0x8
 865 02d9 723000   		.ascii	"r0\000"
 866 02dc 07       		.byte	0x7
 867 02dd EE       		.byte	0xee
 868 02de B3020000 		.4byte	0x2b3
 869 02e2 00       		.byte	0
 870 02e3 08       		.uleb128 0x8
 871 02e4 723100   		.ascii	"r1\000"
 872 02e7 07       		.byte	0x7
 873 02e8 EF       		.byte	0xef
 874 02e9 B3020000 		.4byte	0x2b3
 875 02ed 04       		.byte	0x4
 876 02ee 08       		.uleb128 0x8
 877 02ef 723200   		.ascii	"r2\000"
 878 02f2 07       		.byte	0x7
 879 02f3 F0       		.byte	0xf0
 880 02f4 B3020000 		.4byte	0x2b3
 881 02f8 08       		.byte	0x8
 882 02f9 08       		.uleb128 0x8
 883 02fa 723300   		.ascii	"r3\000"
 884 02fd 07       		.byte	0x7
 885 02fe F1       		.byte	0xf1
 886 02ff B3020000 		.4byte	0x2b3
 887 0303 0C       		.byte	0xc
 888 0304 08       		.uleb128 0x8
 889 0305 72313200 		.ascii	"r12\000"
 890 0309 07       		.byte	0x7
 891 030a F2       		.byte	0xf2
 892 030b B3020000 		.4byte	0x2b3
 893 030f 10       		.byte	0x10
 894 0310 07       		.uleb128 0x7
 895 0311 45030000 		.4byte	.LASF54
 896 0315 07       		.byte	0x7
 897 0316 F3       		.byte	0xf3
 898 0317 B3020000 		.4byte	0x2b3
 899 031b 14       		.byte	0x14
 900 031c 08       		.uleb128 0x8
 901 031d 706300   		.ascii	"pc\000"
 902 0320 07       		.byte	0x7
 903 0321 F4       		.byte	0xf4
 904 0322 B3020000 		.4byte	0x2b3
 905 0326 18       		.byte	0x18
 906 0327 07       		.uleb128 0x7
 907 0328 2E060000 		.4byte	.LASF55
 908 032c 07       		.byte	0x7
 909 032d F5       		.byte	0xf5
 910 032e B3020000 		.4byte	0x2b3
 911 0332 1C       		.byte	0x1c
 912 0333 08       		.uleb128 0x8
ARM GAS  /tmp/ccFb4fbO.s 			page 17


 913 0334 733000   		.ascii	"s0\000"
 914 0337 07       		.byte	0x7
 915 0338 F7       		.byte	0xf7
 916 0339 B3020000 		.4byte	0x2b3
 917 033d 20       		.byte	0x20
 918 033e 08       		.uleb128 0x8
 919 033f 733100   		.ascii	"s1\000"
 920 0342 07       		.byte	0x7
 921 0343 F8       		.byte	0xf8
 922 0344 B3020000 		.4byte	0x2b3
 923 0348 24       		.byte	0x24
 924 0349 08       		.uleb128 0x8
 925 034a 733200   		.ascii	"s2\000"
 926 034d 07       		.byte	0x7
 927 034e F9       		.byte	0xf9
 928 034f B3020000 		.4byte	0x2b3
 929 0353 28       		.byte	0x28
 930 0354 08       		.uleb128 0x8
 931 0355 733300   		.ascii	"s3\000"
 932 0358 07       		.byte	0x7
 933 0359 FA       		.byte	0xfa
 934 035a B3020000 		.4byte	0x2b3
 935 035e 2C       		.byte	0x2c
 936 035f 08       		.uleb128 0x8
 937 0360 733400   		.ascii	"s4\000"
 938 0363 07       		.byte	0x7
 939 0364 FB       		.byte	0xfb
 940 0365 B3020000 		.4byte	0x2b3
 941 0369 30       		.byte	0x30
 942 036a 08       		.uleb128 0x8
 943 036b 733500   		.ascii	"s5\000"
 944 036e 07       		.byte	0x7
 945 036f FC       		.byte	0xfc
 946 0370 B3020000 		.4byte	0x2b3
 947 0374 34       		.byte	0x34
 948 0375 08       		.uleb128 0x8
 949 0376 733600   		.ascii	"s6\000"
 950 0379 07       		.byte	0x7
 951 037a FD       		.byte	0xfd
 952 037b B3020000 		.4byte	0x2b3
 953 037f 38       		.byte	0x38
 954 0380 08       		.uleb128 0x8
 955 0381 733700   		.ascii	"s7\000"
 956 0384 07       		.byte	0x7
 957 0385 FE       		.byte	0xfe
 958 0386 B3020000 		.4byte	0x2b3
 959 038a 3C       		.byte	0x3c
 960 038b 08       		.uleb128 0x8
 961 038c 733800   		.ascii	"s8\000"
 962 038f 07       		.byte	0x7
 963 0390 FF       		.byte	0xff
 964 0391 B3020000 		.4byte	0x2b3
 965 0395 40       		.byte	0x40
 966 0396 0D       		.uleb128 0xd
 967 0397 733900   		.ascii	"s9\000"
 968 039a 07       		.byte	0x7
 969 039b 0001     		.2byte	0x100
ARM GAS  /tmp/ccFb4fbO.s 			page 18


 970 039d B3020000 		.4byte	0x2b3
 971 03a1 44       		.byte	0x44
 972 03a2 0D       		.uleb128 0xd
 973 03a3 73313000 		.ascii	"s10\000"
 974 03a7 07       		.byte	0x7
 975 03a8 0101     		.2byte	0x101
 976 03aa B3020000 		.4byte	0x2b3
 977 03ae 48       		.byte	0x48
 978 03af 0D       		.uleb128 0xd
 979 03b0 73313100 		.ascii	"s11\000"
 980 03b4 07       		.byte	0x7
 981 03b5 0201     		.2byte	0x102
 982 03b7 B3020000 		.4byte	0x2b3
 983 03bb 4C       		.byte	0x4c
 984 03bc 0D       		.uleb128 0xd
 985 03bd 73313200 		.ascii	"s12\000"
 986 03c1 07       		.byte	0x7
 987 03c2 0301     		.2byte	0x103
 988 03c4 B3020000 		.4byte	0x2b3
 989 03c8 50       		.byte	0x50
 990 03c9 0D       		.uleb128 0xd
 991 03ca 73313300 		.ascii	"s13\000"
 992 03ce 07       		.byte	0x7
 993 03cf 0401     		.2byte	0x104
 994 03d1 B3020000 		.4byte	0x2b3
 995 03d5 54       		.byte	0x54
 996 03d6 0D       		.uleb128 0xd
 997 03d7 73313400 		.ascii	"s14\000"
 998 03db 07       		.byte	0x7
 999 03dc 0501     		.2byte	0x105
 1000 03de B3020000 		.4byte	0x2b3
 1001 03e2 58       		.byte	0x58
 1002 03e3 0D       		.uleb128 0xd
 1003 03e4 73313500 		.ascii	"s15\000"
 1004 03e8 07       		.byte	0x7
 1005 03e9 0601     		.2byte	0x106
 1006 03eb B3020000 		.4byte	0x2b3
 1007 03ef 5C       		.byte	0x5c
 1008 03f0 0E       		.uleb128 0xe
 1009 03f1 48060000 		.4byte	.LASF56
 1010 03f5 07       		.byte	0x7
 1011 03f6 0701     		.2byte	0x107
 1012 03f8 B3020000 		.4byte	0x2b3
 1013 03fc 60       		.byte	0x60
 1014 03fd 0E       		.uleb128 0xe
 1015 03fe F0020000 		.4byte	.LASF57
 1016 0402 07       		.byte	0x7
 1017 0403 0801     		.2byte	0x108
 1018 0405 B3020000 		.4byte	0x2b3
 1019 0409 64       		.byte	0x64
 1020 040a 00       		.byte	0
 1021 040b 0F       		.uleb128 0xf
 1022 040c 18070000 		.4byte	.LASF58
 1023 0410 64       		.byte	0x64
 1024 0411 07       		.byte	0x7
 1025 0412 0C01     		.2byte	0x10c
 1026 0414 57050000 		.4byte	0x557
ARM GAS  /tmp/ccFb4fbO.s 			page 19


 1027 0418 0D       		.uleb128 0xd
 1028 0419 73313600 		.ascii	"s16\000"
 1029 041d 07       		.byte	0x7
 1030 041e 0E01     		.2byte	0x10e
 1031 0420 B3020000 		.4byte	0x2b3
 1032 0424 00       		.byte	0
 1033 0425 0D       		.uleb128 0xd
 1034 0426 73313700 		.ascii	"s17\000"
 1035 042a 07       		.byte	0x7
 1036 042b 0F01     		.2byte	0x10f
 1037 042d B3020000 		.4byte	0x2b3
 1038 0431 04       		.byte	0x4
 1039 0432 0D       		.uleb128 0xd
 1040 0433 73313800 		.ascii	"s18\000"
 1041 0437 07       		.byte	0x7
 1042 0438 1001     		.2byte	0x110
 1043 043a B3020000 		.4byte	0x2b3
 1044 043e 08       		.byte	0x8
 1045 043f 0D       		.uleb128 0xd
 1046 0440 73313900 		.ascii	"s19\000"
 1047 0444 07       		.byte	0x7
 1048 0445 1101     		.2byte	0x111
 1049 0447 B3020000 		.4byte	0x2b3
 1050 044b 0C       		.byte	0xc
 1051 044c 0D       		.uleb128 0xd
 1052 044d 73323000 		.ascii	"s20\000"
 1053 0451 07       		.byte	0x7
 1054 0452 1201     		.2byte	0x112
 1055 0454 B3020000 		.4byte	0x2b3
 1056 0458 10       		.byte	0x10
 1057 0459 0D       		.uleb128 0xd
 1058 045a 73323100 		.ascii	"s21\000"
 1059 045e 07       		.byte	0x7
 1060 045f 1301     		.2byte	0x113
 1061 0461 B3020000 		.4byte	0x2b3
 1062 0465 14       		.byte	0x14
 1063 0466 0D       		.uleb128 0xd
 1064 0467 73323200 		.ascii	"s22\000"
 1065 046b 07       		.byte	0x7
 1066 046c 1401     		.2byte	0x114
 1067 046e B3020000 		.4byte	0x2b3
 1068 0472 18       		.byte	0x18
 1069 0473 0D       		.uleb128 0xd
 1070 0474 73323300 		.ascii	"s23\000"
 1071 0478 07       		.byte	0x7
 1072 0479 1501     		.2byte	0x115
 1073 047b B3020000 		.4byte	0x2b3
 1074 047f 1C       		.byte	0x1c
 1075 0480 0D       		.uleb128 0xd
 1076 0481 73323400 		.ascii	"s24\000"
 1077 0485 07       		.byte	0x7
 1078 0486 1601     		.2byte	0x116
 1079 0488 B3020000 		.4byte	0x2b3
 1080 048c 20       		.byte	0x20
 1081 048d 0D       		.uleb128 0xd
 1082 048e 73323500 		.ascii	"s25\000"
 1083 0492 07       		.byte	0x7
ARM GAS  /tmp/ccFb4fbO.s 			page 20


 1084 0493 1701     		.2byte	0x117
 1085 0495 B3020000 		.4byte	0x2b3
 1086 0499 24       		.byte	0x24
 1087 049a 0D       		.uleb128 0xd
 1088 049b 73323600 		.ascii	"s26\000"
 1089 049f 07       		.byte	0x7
 1090 04a0 1801     		.2byte	0x118
 1091 04a2 B3020000 		.4byte	0x2b3
 1092 04a6 28       		.byte	0x28
 1093 04a7 0D       		.uleb128 0xd
 1094 04a8 73323700 		.ascii	"s27\000"
 1095 04ac 07       		.byte	0x7
 1096 04ad 1901     		.2byte	0x119
 1097 04af B3020000 		.4byte	0x2b3
 1098 04b3 2C       		.byte	0x2c
 1099 04b4 0D       		.uleb128 0xd
 1100 04b5 73323800 		.ascii	"s28\000"
 1101 04b9 07       		.byte	0x7
 1102 04ba 1A01     		.2byte	0x11a
 1103 04bc B3020000 		.4byte	0x2b3
 1104 04c0 30       		.byte	0x30
 1105 04c1 0D       		.uleb128 0xd
 1106 04c2 73323900 		.ascii	"s29\000"
 1107 04c6 07       		.byte	0x7
 1108 04c7 1B01     		.2byte	0x11b
 1109 04c9 B3020000 		.4byte	0x2b3
 1110 04cd 34       		.byte	0x34
 1111 04ce 0D       		.uleb128 0xd
 1112 04cf 73333000 		.ascii	"s30\000"
 1113 04d3 07       		.byte	0x7
 1114 04d4 1C01     		.2byte	0x11c
 1115 04d6 B3020000 		.4byte	0x2b3
 1116 04da 38       		.byte	0x38
 1117 04db 0D       		.uleb128 0xd
 1118 04dc 73333100 		.ascii	"s31\000"
 1119 04e0 07       		.byte	0x7
 1120 04e1 1D01     		.2byte	0x11d
 1121 04e3 B3020000 		.4byte	0x2b3
 1122 04e7 3C       		.byte	0x3c
 1123 04e8 0D       		.uleb128 0xd
 1124 04e9 723400   		.ascii	"r4\000"
 1125 04ec 07       		.byte	0x7
 1126 04ed 1F01     		.2byte	0x11f
 1127 04ef B3020000 		.4byte	0x2b3
 1128 04f3 40       		.byte	0x40
 1129 04f4 0D       		.uleb128 0xd
 1130 04f5 723500   		.ascii	"r5\000"
 1131 04f8 07       		.byte	0x7
 1132 04f9 2001     		.2byte	0x120
 1133 04fb B3020000 		.4byte	0x2b3
 1134 04ff 44       		.byte	0x44
 1135 0500 0D       		.uleb128 0xd
 1136 0501 723600   		.ascii	"r6\000"
 1137 0504 07       		.byte	0x7
 1138 0505 2101     		.2byte	0x121
 1139 0507 B3020000 		.4byte	0x2b3
 1140 050b 48       		.byte	0x48
ARM GAS  /tmp/ccFb4fbO.s 			page 21


 1141 050c 0D       		.uleb128 0xd
 1142 050d 723700   		.ascii	"r7\000"
 1143 0510 07       		.byte	0x7
 1144 0511 2201     		.2byte	0x122
 1145 0513 B3020000 		.4byte	0x2b3
 1146 0517 4C       		.byte	0x4c
 1147 0518 0D       		.uleb128 0xd
 1148 0519 723800   		.ascii	"r8\000"
 1149 051c 07       		.byte	0x7
 1150 051d 2301     		.2byte	0x123
 1151 051f B3020000 		.4byte	0x2b3
 1152 0523 50       		.byte	0x50
 1153 0524 0D       		.uleb128 0xd
 1154 0525 723900   		.ascii	"r9\000"
 1155 0528 07       		.byte	0x7
 1156 0529 2401     		.2byte	0x124
 1157 052b B3020000 		.4byte	0x2b3
 1158 052f 54       		.byte	0x54
 1159 0530 0D       		.uleb128 0xd
 1160 0531 72313000 		.ascii	"r10\000"
 1161 0535 07       		.byte	0x7
 1162 0536 2501     		.2byte	0x125
 1163 0538 B3020000 		.4byte	0x2b3
 1164 053c 58       		.byte	0x58
 1165 053d 0D       		.uleb128 0xd
 1166 053e 72313100 		.ascii	"r11\000"
 1167 0542 07       		.byte	0x7
 1168 0543 2601     		.2byte	0x126
 1169 0545 B3020000 		.4byte	0x2b3
 1170 0549 5C       		.byte	0x5c
 1171 054a 0D       		.uleb128 0xd
 1172 054b 6C7200   		.ascii	"lr\000"
 1173 054e 07       		.byte	0x7
 1174 054f 2701     		.2byte	0x127
 1175 0551 B3020000 		.4byte	0x2b3
 1176 0555 60       		.byte	0x60
 1177 0556 00       		.byte	0
 1178 0557 0F       		.uleb128 0xf
 1179 0558 DA030000 		.4byte	.LASF59
 1180 055c 04       		.byte	0x4
 1181 055d 07       		.byte	0x7
 1182 055e 3101     		.2byte	0x131
 1183 0560 72050000 		.4byte	0x572
 1184 0564 0D       		.uleb128 0xd
 1185 0565 72313300 		.ascii	"r13\000"
 1186 0569 07       		.byte	0x7
 1187 056a 3201     		.2byte	0x132
 1188 056c 72050000 		.4byte	0x572
 1189 0570 00       		.byte	0
 1190 0571 00       		.byte	0
 1191 0572 0A       		.uleb128 0xa
 1192 0573 04       		.byte	0x4
 1193 0574 0B040000 		.4byte	0x40b
 1194 0578 04       		.uleb128 0x4
 1195 0579 A5060000 		.4byte	.LASF60
 1196 057d 08       		.byte	0x8
 1197 057e 3A       		.byte	0x3a
ARM GAS  /tmp/ccFb4fbO.s 			page 22


 1198 057f CE000000 		.4byte	0xce
 1199 0583 09       		.uleb128 0x9
 1200 0584 8C       		.byte	0x8c
 1201 0585 08       		.byte	0x8
 1202 0586 89       		.byte	0x89
 1203 0587 88060000 		.4byte	0x688
 1204 058b 07       		.uleb128 0x7
 1205 058c E5010000 		.4byte	.LASF61
 1206 0590 08       		.byte	0x8
 1207 0591 8A       		.byte	0x8a
 1208 0592 78050000 		.4byte	0x578
 1209 0596 00       		.byte	0
 1210 0597 07       		.uleb128 0x7
 1211 0598 F5030000 		.4byte	.LASF62
 1212 059c 08       		.byte	0x8
 1213 059d 8B       		.byte	0x8b
 1214 059e 78050000 		.4byte	0x578
 1215 05a2 04       		.byte	0x4
 1216 05a3 07       		.uleb128 0x7
 1217 05a4 A3030000 		.4byte	.LASF63
 1218 05a8 08       		.byte	0x8
 1219 05a9 8C       		.byte	0x8c
 1220 05aa 78050000 		.4byte	0x578
 1221 05ae 08       		.byte	0x8
 1222 05af 07       		.uleb128 0x7
 1223 05b0 00040000 		.4byte	.LASF64
 1224 05b4 08       		.byte	0x8
 1225 05b5 8D       		.byte	0x8d
 1226 05b6 78050000 		.4byte	0x578
 1227 05ba 0C       		.byte	0xc
 1228 05bb 08       		.uleb128 0x8
 1229 05bc 53435200 		.ascii	"SCR\000"
 1230 05c0 08       		.byte	0x8
 1231 05c1 8E       		.byte	0x8e
 1232 05c2 78050000 		.4byte	0x578
 1233 05c6 10       		.byte	0x10
 1234 05c7 08       		.uleb128 0x8
 1235 05c8 43435200 		.ascii	"CCR\000"
 1236 05cc 08       		.byte	0x8
 1237 05cd 8F       		.byte	0x8f
 1238 05ce 78050000 		.4byte	0x578
 1239 05d2 14       		.byte	0x14
 1240 05d3 07       		.uleb128 0x7
 1241 05d4 F2060000 		.4byte	.LASF65
 1242 05d8 08       		.byte	0x8
 1243 05d9 90       		.byte	0x90
 1244 05da 98060000 		.4byte	0x698
 1245 05de 18       		.byte	0x18
 1246 05df 07       		.uleb128 0x7
 1247 05e0 EE050000 		.4byte	.LASF66
 1248 05e4 08       		.byte	0x8
 1249 05e5 91       		.byte	0x91
 1250 05e6 78050000 		.4byte	0x578
 1251 05ea 24       		.byte	0x24
 1252 05eb 07       		.uleb128 0x7
 1253 05ec DE040000 		.4byte	.LASF67
 1254 05f0 08       		.byte	0x8
ARM GAS  /tmp/ccFb4fbO.s 			page 23


 1255 05f1 92       		.byte	0x92
 1256 05f2 78050000 		.4byte	0x578
 1257 05f6 28       		.byte	0x28
 1258 05f7 07       		.uleb128 0x7
 1259 05f8 B2070000 		.4byte	.LASF68
 1260 05fc 08       		.byte	0x8
 1261 05fd 93       		.byte	0x93
 1262 05fe 78050000 		.4byte	0x578
 1263 0602 2C       		.byte	0x2c
 1264 0603 07       		.uleb128 0x7
 1265 0604 06040000 		.4byte	.LASF69
 1266 0608 08       		.byte	0x8
 1267 0609 94       		.byte	0x94
 1268 060a 78050000 		.4byte	0x578
 1269 060e 30       		.byte	0x30
 1270 060f 07       		.uleb128 0x7
 1271 0610 13040000 		.4byte	.LASF70
 1272 0614 08       		.byte	0x8
 1273 0615 95       		.byte	0x95
 1274 0616 78050000 		.4byte	0x578
 1275 061a 34       		.byte	0x34
 1276 061b 07       		.uleb128 0x7
 1277 061c A4020000 		.4byte	.LASF71
 1278 0620 08       		.byte	0x8
 1279 0621 96       		.byte	0x96
 1280 0622 78050000 		.4byte	0x578
 1281 0626 38       		.byte	0x38
 1282 0627 07       		.uleb128 0x7
 1283 0628 B2020000 		.4byte	.LASF72
 1284 062c 08       		.byte	0x8
 1285 062d 97       		.byte	0x97
 1286 062e 78050000 		.4byte	0x578
 1287 0632 3C       		.byte	0x3c
 1288 0633 08       		.uleb128 0x8
 1289 0634 50465200 		.ascii	"PFR\000"
 1290 0638 08       		.byte	0x8
 1291 0639 98       		.byte	0x98
 1292 063a AD060000 		.4byte	0x6ad
 1293 063e 40       		.byte	0x40
 1294 063f 08       		.uleb128 0x8
 1295 0640 44465200 		.ascii	"DFR\000"
 1296 0644 08       		.byte	0x8
 1297 0645 99       		.byte	0x99
 1298 0646 78050000 		.4byte	0x578
 1299 064a 48       		.byte	0x48
 1300 064b 08       		.uleb128 0x8
 1301 064c 41445200 		.ascii	"ADR\000"
 1302 0650 08       		.byte	0x8
 1303 0651 9A       		.byte	0x9a
 1304 0652 78050000 		.4byte	0x578
 1305 0656 4C       		.byte	0x4c
 1306 0657 07       		.uleb128 0x7
 1307 0658 56070000 		.4byte	.LASF73
 1308 065c 08       		.byte	0x8
 1309 065d 9B       		.byte	0x9b
 1310 065e C2060000 		.4byte	0x6c2
 1311 0662 50       		.byte	0x50
ARM GAS  /tmp/ccFb4fbO.s 			page 24


 1312 0663 08       		.uleb128 0x8
 1313 0664 53415200 		.ascii	"SAR\000"
 1314 0668 08       		.byte	0x8
 1315 0669 9C       		.byte	0x9c
 1316 066a D7060000 		.4byte	0x6d7
 1317 066e 60       		.byte	0x60
 1318 066f 07       		.uleb128 0x7
 1319 0670 98060000 		.4byte	.LASF74
 1320 0674 08       		.byte	0x8
 1321 0675 9D       		.byte	0x9d
 1322 0676 D7060000 		.4byte	0x6d7
 1323 067a 74       		.byte	0x74
 1324 067b 07       		.uleb128 0x7
 1325 067c AC070000 		.4byte	.LASF75
 1326 0680 08       		.byte	0x8
 1327 0681 9E       		.byte	0x9e
 1328 0682 78050000 		.4byte	0x578
 1329 0686 88       		.byte	0x88
 1330 0687 00       		.byte	0
 1331 0688 10       		.uleb128 0x10
 1332 0689 78050000 		.4byte	0x578
 1333 068d 98060000 		.4byte	0x698
 1334 0691 11       		.uleb128 0x11
 1335 0692 2C000000 		.4byte	0x2c
 1336 0696 02       		.byte	0x2
 1337 0697 00       		.byte	0
 1338 0698 05       		.uleb128 0x5
 1339 0699 88060000 		.4byte	0x688
 1340 069d 10       		.uleb128 0x10
 1341 069e 78050000 		.4byte	0x578
 1342 06a2 AD060000 		.4byte	0x6ad
 1343 06a6 11       		.uleb128 0x11
 1344 06a7 2C000000 		.4byte	0x2c
 1345 06ab 01       		.byte	0x1
 1346 06ac 00       		.byte	0
 1347 06ad 05       		.uleb128 0x5
 1348 06ae 9D060000 		.4byte	0x69d
 1349 06b2 10       		.uleb128 0x10
 1350 06b3 78050000 		.4byte	0x578
 1351 06b7 C2060000 		.4byte	0x6c2
 1352 06bb 11       		.uleb128 0x11
 1353 06bc 2C000000 		.4byte	0x2c
 1354 06c0 03       		.byte	0x3
 1355 06c1 00       		.byte	0
 1356 06c2 05       		.uleb128 0x5
 1357 06c3 B2060000 		.4byte	0x6b2
 1358 06c7 10       		.uleb128 0x10
 1359 06c8 78050000 		.4byte	0x578
 1360 06cc D7060000 		.4byte	0x6d7
 1361 06d0 11       		.uleb128 0x11
 1362 06d1 2C000000 		.4byte	0x2c
 1363 06d5 04       		.byte	0x4
 1364 06d6 00       		.byte	0
 1365 06d7 05       		.uleb128 0x5
 1366 06d8 C7060000 		.4byte	0x6c7
 1367 06dc 04       		.uleb128 0x4
 1368 06dd 37000000 		.4byte	.LASF76
ARM GAS  /tmp/ccFb4fbO.s 			page 25


 1369 06e1 08       		.byte	0x8
 1370 06e2 9F       		.byte	0x9f
 1371 06e3 83050000 		.4byte	0x583
 1372 06e7 09       		.uleb128 0x9
 1373 06e8 18       		.byte	0x18
 1374 06e9 08       		.byte	0x8
 1375 06ea CC       		.byte	0xcc
 1376 06eb 38070000 		.4byte	0x738
 1377 06ef 07       		.uleb128 0x7
 1378 06f0 98060000 		.4byte	.LASF74
 1379 06f4 08       		.byte	0x8
 1380 06f5 CD       		.byte	0xcd
 1381 06f6 48070000 		.4byte	0x748
 1382 06fa 00       		.byte	0
 1383 06fb 07       		.uleb128 0x7
 1384 06fc C1040000 		.4byte	.LASF77
 1385 0700 08       		.byte	0x8
 1386 0701 CE       		.byte	0xce
 1387 0702 78050000 		.4byte	0x578
 1388 0706 04       		.byte	0x4
 1389 0707 07       		.uleb128 0x7
 1390 0708 56060000 		.4byte	.LASF78
 1391 070c 08       		.byte	0x8
 1392 070d CF       		.byte	0xcf
 1393 070e 78050000 		.4byte	0x578
 1394 0712 08       		.byte	0x8
 1395 0713 07       		.uleb128 0x7
 1396 0714 0D000000 		.4byte	.LASF79
 1397 0718 08       		.byte	0x8
 1398 0719 D0       		.byte	0xd0
 1399 071a 78050000 		.4byte	0x578
 1400 071e 0C       		.byte	0xc
 1401 071f 07       		.uleb128 0x7
 1402 0720 87050000 		.4byte	.LASF80
 1403 0724 08       		.byte	0x8
 1404 0725 D1       		.byte	0xd1
 1405 0726 78050000 		.4byte	0x578
 1406 072a 10       		.byte	0x10
 1407 072b 07       		.uleb128 0x7
 1408 072c 8D050000 		.4byte	.LASF81
 1409 0730 08       		.byte	0x8
 1410 0731 D2       		.byte	0xd2
 1411 0732 78050000 		.4byte	0x578
 1412 0736 14       		.byte	0x14
 1413 0737 00       		.byte	0
 1414 0738 10       		.uleb128 0x10
 1415 0739 78050000 		.4byte	0x578
 1416 073d 48070000 		.4byte	0x748
 1417 0741 11       		.uleb128 0x11
 1418 0742 2C000000 		.4byte	0x2c
 1419 0746 00       		.byte	0
 1420 0747 00       		.byte	0
 1421 0748 05       		.uleb128 0x5
 1422 0749 38070000 		.4byte	0x738
 1423 074d 04       		.uleb128 0x4
 1424 074e 10060000 		.4byte	.LASF82
 1425 0752 08       		.byte	0x8
ARM GAS  /tmp/ccFb4fbO.s 			page 26


 1426 0753 D3       		.byte	0xd3
 1427 0754 E7060000 		.4byte	0x6e7
 1428 0758 04       		.uleb128 0x4
 1429 0759 9A030000 		.4byte	.LASF83
 1430 075d 09       		.byte	0x9
 1431 075e 58       		.byte	0x58
 1432 075f 63070000 		.4byte	0x763
 1433 0763 0A       		.uleb128 0xa
 1434 0764 04       		.byte	0x4
 1435 0765 69070000 		.4byte	0x769
 1436 0769 12       		.uleb128 0x12
 1437 076a 74070000 		.4byte	0x774
 1438 076e 13       		.uleb128 0x13
 1439 076f BE020000 		.4byte	0x2be
 1440 0773 00       		.byte	0
 1441 0774 04       		.uleb128 0x4
 1442 0775 A8030000 		.4byte	.LASF84
 1443 0779 09       		.byte	0x9
 1444 077a 5D       		.byte	0x5d
 1445 077b 7F070000 		.4byte	0x77f
 1446 077f 06       		.uleb128 0x6
 1447 0780 A8030000 		.4byte	.LASF84
 1448 0784 14       		.byte	0x14
 1449 0785 09       		.byte	0x9
 1450 0786 64       		.byte	0x64
 1451 0787 C8070000 		.4byte	0x7c8
 1452 078b 07       		.uleb128 0x7
 1453 078c 4C030000 		.4byte	.LASF85
 1454 0790 09       		.byte	0x9
 1455 0791 65       		.byte	0x65
 1456 0792 C8070000 		.4byte	0x7c8
 1457 0796 00       		.byte	0
 1458 0797 07       		.uleb128 0x7
 1459 0798 E8020000 		.4byte	.LASF86
 1460 079c 09       		.byte	0x9
 1461 079d 67       		.byte	0x67
 1462 079e C8070000 		.4byte	0x7c8
 1463 07a2 04       		.byte	0x4
 1464 07a3 07       		.uleb128 0x7
 1465 07a4 B9040000 		.4byte	.LASF87
 1466 07a8 09       		.byte	0x9
 1467 07a9 69       		.byte	0x69
 1468 07aa 32010000 		.4byte	0x132
 1469 07ae 08       		.byte	0x8
 1470 07af 07       		.uleb128 0x7
 1471 07b0 C7040000 		.4byte	.LASF88
 1472 07b4 09       		.byte	0x9
 1473 07b5 6A       		.byte	0x6a
 1474 07b6 58070000 		.4byte	0x758
 1475 07ba 0C       		.byte	0xc
 1476 07bb 07       		.uleb128 0x7
 1477 07bc 2A070000 		.4byte	.LASF89
 1478 07c0 09       		.byte	0x9
 1479 07c1 6C       		.byte	0x6c
 1480 07c2 BE020000 		.4byte	0x2be
 1481 07c6 10       		.byte	0x10
 1482 07c7 00       		.byte	0
ARM GAS  /tmp/ccFb4fbO.s 			page 27


 1483 07c8 0A       		.uleb128 0xa
 1484 07c9 04       		.byte	0x4
 1485 07ca 74070000 		.4byte	0x774
 1486 07ce 09       		.uleb128 0x9
 1487 07cf 10       		.byte	0x10
 1488 07d0 09       		.byte	0x9
 1489 07d1 76       		.byte	0x76
 1490 07d2 07080000 		.4byte	0x807
 1491 07d6 07       		.uleb128 0x7
 1492 07d7 4C030000 		.4byte	.LASF85
 1493 07db 09       		.byte	0x9
 1494 07dc 77       		.byte	0x77
 1495 07dd C8070000 		.4byte	0x7c8
 1496 07e1 00       		.byte	0
 1497 07e2 07       		.uleb128 0x7
 1498 07e3 E8020000 		.4byte	.LASF86
 1499 07e7 09       		.byte	0x9
 1500 07e8 79       		.byte	0x79
 1501 07e9 C8070000 		.4byte	0x7c8
 1502 07ed 04       		.byte	0x4
 1503 07ee 07       		.uleb128 0x7
 1504 07ef B9040000 		.4byte	.LASF87
 1505 07f3 09       		.byte	0x9
 1506 07f4 7B       		.byte	0x7b
 1507 07f5 32010000 		.4byte	0x132
 1508 07f9 08       		.byte	0x8
 1509 07fa 07       		.uleb128 0x7
 1510 07fb 5B030000 		.4byte	.LASF90
 1511 07ff 09       		.byte	0x9
 1512 0800 7C       		.byte	0x7c
 1513 0801 3D010000 		.4byte	0x13d
 1514 0805 0C       		.byte	0xc
 1515 0806 00       		.byte	0
 1516 0807 04       		.uleb128 0x4
 1517 0808 A5070000 		.4byte	.LASF91
 1518 080c 09       		.byte	0x9
 1519 080d 7D       		.byte	0x7d
 1520 080e CE070000 		.4byte	0x7ce
 1521 0812 14       		.uleb128 0x14
 1522 0813 4D000000 		.4byte	.LASF99
 1523 0817 09       		.byte	0x9
 1524 0818 F5       		.byte	0xf5
 1525 0819 07080000 		.4byte	0x807
 1526 081d 09       		.uleb128 0x9
 1527 081e 1C       		.byte	0x1c
 1528 081f 0A       		.byte	0xa
 1529 0820 5E       		.byte	0x5e
 1530 0821 6E080000 		.4byte	0x86e
 1531 0825 07       		.uleb128 0x7
 1532 0826 90060000 		.4byte	.LASF92
 1533 082a 0A       		.byte	0xa
 1534 082b 5F       		.byte	0x5f
 1535 082c 88020000 		.4byte	0x288
 1536 0830 00       		.byte	0
 1537 0831 07       		.uleb128 0x7
 1538 0832 33060000 		.4byte	.LASF93
 1539 0836 0A       		.byte	0xa
ARM GAS  /tmp/ccFb4fbO.s 			page 28


 1540 0837 60       		.byte	0x60
 1541 0838 11010000 		.4byte	0x111
 1542 083c 08       		.byte	0x8
 1543 083d 07       		.uleb128 0x7
 1544 083e 1F050000 		.4byte	.LASF94
 1545 0842 0A       		.byte	0xa
 1546 0843 62       		.byte	0x62
 1547 0844 57050000 		.4byte	0x557
 1548 0848 0C       		.byte	0xc
 1549 0849 07       		.uleb128 0x7
 1550 084a 0B040000 		.4byte	.LASF95
 1551 084e 0A       		.byte	0xa
 1552 084f 65       		.byte	0x65
 1553 0850 82020000 		.4byte	0x282
 1554 0854 10       		.byte	0x10
 1555 0855 07       		.uleb128 0x7
 1556 0856 52050000 		.4byte	.LASF96
 1557 085a 0A       		.byte	0xa
 1558 085b 66       		.byte	0x66
 1559 085c 82020000 		.4byte	0x282
 1560 0860 14       		.byte	0x14
 1561 0861 07       		.uleb128 0x7
 1562 0862 48050000 		.4byte	.LASF97
 1563 0866 0A       		.byte	0xa
 1564 0867 69       		.byte	0x69
 1565 0868 82020000 		.4byte	0x282
 1566 086c 18       		.byte	0x18
 1567 086d 00       		.byte	0
 1568 086e 04       		.uleb128 0x4
 1569 086f 43070000 		.4byte	.LASF98
 1570 0873 0A       		.byte	0xa
 1571 0874 6B       		.byte	0x6b
 1572 0875 1D080000 		.4byte	0x81d
 1573 0879 14       		.uleb128 0x14
 1574 087a 5B070000 		.4byte	.LASF100
 1575 087e 0A       		.byte	0xa
 1576 087f 6F       		.byte	0x6f
 1577 0880 6E080000 		.4byte	0x86e
 1578 0884 06       		.uleb128 0x6
 1579 0885 8C040000 		.4byte	.LASF101
 1580 0889 10       		.byte	0x10
 1581 088a 0B       		.byte	0xb
 1582 088b 2C       		.byte	0x2c
 1583 088c B5080000 		.4byte	0x8b5
 1584 0890 07       		.uleb128 0x7
 1585 0891 48020000 		.4byte	.LASF102
 1586 0895 0B       		.byte	0xb
 1587 0896 2D       		.byte	0x2d
 1588 0897 88020000 		.4byte	0x288
 1589 089b 00       		.byte	0
 1590 089c 07       		.uleb128 0x7
 1591 089d B7070000 		.4byte	.LASF103
 1592 08a1 0B       		.byte	0xb
 1593 08a2 2F       		.byte	0x2f
 1594 08a3 82020000 		.4byte	0x282
 1595 08a7 08       		.byte	0x8
 1596 08a8 07       		.uleb128 0x7
ARM GAS  /tmp/ccFb4fbO.s 			page 29


 1597 08a9 B8060000 		.4byte	.LASF104
 1598 08ad 0B       		.byte	0xb
 1599 08ae 31       		.byte	0x31
 1600 08af B5080000 		.4byte	0x8b5
 1601 08b3 0C       		.byte	0xc
 1602 08b4 00       		.byte	0
 1603 08b5 0A       		.uleb128 0xa
 1604 08b6 04       		.byte	0x4
 1605 08b7 84080000 		.4byte	0x884
 1606 08bb 04       		.uleb128 0x4
 1607 08bc 8C040000 		.4byte	.LASF101
 1608 08c0 0B       		.byte	0xb
 1609 08c1 33       		.byte	0x33
 1610 08c2 84080000 		.4byte	0x884
 1611 08c6 15       		.uleb128 0x15
 1612 08c7 04       		.byte	0x4
 1613 08c8 06       		.byte	0x6
 1614 08c9 96       		.byte	0x96
 1615 08ca FB080000 		.4byte	0x8fb
 1616 08ce 16       		.uleb128 0x16
 1617 08cf 06000000 		.4byte	.LASF105
 1618 08d3 06       		.byte	0x6
 1619 08d4 9D       		.byte	0x9d
 1620 08d5 1C010000 		.4byte	0x11c
 1621 08d9 16       		.uleb128 0x16
 1622 08da A9020000 		.4byte	.LASF106
 1623 08de 06       		.byte	0x6
 1624 08df A4       		.byte	0xa4
 1625 08e0 1C010000 		.4byte	0x11c
 1626 08e4 16       		.uleb128 0x16
 1627 08e5 81070000 		.4byte	.LASF107
 1628 08e9 06       		.byte	0x6
 1629 08ea AB       		.byte	0xab
 1630 08eb BE020000 		.4byte	0x2be
 1631 08ef 16       		.uleb128 0x16
 1632 08f0 3A060000 		.4byte	.LASF108
 1633 08f4 06       		.byte	0x6
 1634 08f5 B2       		.byte	0xb2
 1635 08f6 27010000 		.4byte	0x127
 1636 08fa 00       		.byte	0
 1637 08fb 0A       		.uleb128 0xa
 1638 08fc 04       		.byte	0x4
 1639 08fd 08090000 		.4byte	0x908
 1640 0901 03       		.uleb128 0x3
 1641 0902 01       		.byte	0x1
 1642 0903 08       		.byte	0x8
 1643 0904 A0060000 		.4byte	.LASF109
 1644 0908 17       		.uleb128 0x17
 1645 0909 01090000 		.4byte	0x901
 1646 090d 0A       		.uleb128 0xa
 1647 090e 04       		.byte	0x4
 1648 090f C0020000 		.4byte	0x2c0
 1649 0913 0A       		.uleb128 0xa
 1650 0914 04       		.byte	0x4
 1651 0915 BB080000 		.4byte	0x8bb
 1652 0919 09       		.uleb128 0x9
 1653 091a 16       		.byte	0x16
ARM GAS  /tmp/ccFb4fbO.s 			page 30


 1654 091b 0C       		.byte	0xc
 1655 091c 2C       		.byte	0x2c
 1656 091d FA090000 		.4byte	0x9fa
 1657 0921 07       		.uleb128 0x7
 1658 0922 3A050000 		.4byte	.LASF110
 1659 0926 0C       		.byte	0xc
 1660 0927 2D       		.byte	0x2d
 1661 0928 FA090000 		.4byte	0x9fa
 1662 092c 00       		.byte	0
 1663 092d 07       		.uleb128 0x7
 1664 092e A5040000 		.4byte	.LASF111
 1665 0932 0C       		.byte	0xc
 1666 0933 2E       		.byte	0x2e
 1667 0934 A2000000 		.4byte	0xa2
 1668 0938 04       		.byte	0x4
 1669 0939 07       		.uleb128 0x7
 1670 093a 32050000 		.4byte	.LASF112
 1671 093e 0C       		.byte	0xc
 1672 093f 2F       		.byte	0x2f
 1673 0940 A2000000 		.4byte	0xa2
 1674 0944 05       		.byte	0x5
 1675 0945 07       		.uleb128 0x7
 1676 0946 9A070000 		.4byte	.LASF113
 1677 094a 0C       		.byte	0xc
 1678 094b 30       		.byte	0x30
 1679 094c AD000000 		.4byte	0xad
 1680 0950 06       		.byte	0x6
 1681 0951 07       		.uleb128 0x7
 1682 0952 A5050000 		.4byte	.LASF114
 1683 0956 0C       		.byte	0xc
 1684 0957 31       		.byte	0x31
 1685 0958 A2000000 		.4byte	0xa2
 1686 095c 08       		.byte	0x8
 1687 095d 07       		.uleb128 0x7
 1688 095e 8E030000 		.4byte	.LASF115
 1689 0962 0C       		.byte	0xc
 1690 0963 32       		.byte	0x32
 1691 0964 A2000000 		.4byte	0xa2
 1692 0968 09       		.byte	0x9
 1693 0969 07       		.uleb128 0x7
 1694 096a 3F000000 		.4byte	.LASF116
 1695 096e 0C       		.byte	0xc
 1696 096f 33       		.byte	0x33
 1697 0970 A2000000 		.4byte	0xa2
 1698 0974 0A       		.byte	0xa
 1699 0975 07       		.uleb128 0x7
 1700 0976 84060000 		.4byte	.LASF117
 1701 097a 0C       		.byte	0xc
 1702 097b 34       		.byte	0x34
 1703 097c A2000000 		.4byte	0xa2
 1704 0980 0B       		.byte	0xb
 1705 0981 07       		.uleb128 0x7
 1706 0982 31070000 		.4byte	.LASF118
 1707 0986 0C       		.byte	0xc
 1708 0987 35       		.byte	0x35
 1709 0988 A2000000 		.4byte	0xa2
 1710 098c 0C       		.byte	0xc
ARM GAS  /tmp/ccFb4fbO.s 			page 31


 1711 098d 07       		.uleb128 0x7
 1712 098e 63060000 		.4byte	.LASF119
 1713 0992 0C       		.byte	0xc
 1714 0993 36       		.byte	0x36
 1715 0994 A2000000 		.4byte	0xa2
 1716 0998 0D       		.byte	0xd
 1717 0999 07       		.uleb128 0x7
 1718 099a 66030000 		.4byte	.LASF120
 1719 099e 0C       		.byte	0xc
 1720 099f 37       		.byte	0x37
 1721 09a0 A2000000 		.4byte	0xa2
 1722 09a4 0E       		.byte	0xe
 1723 09a5 07       		.uleb128 0x7
 1724 09a6 F9040000 		.4byte	.LASF121
 1725 09aa 0C       		.byte	0xc
 1726 09ab 38       		.byte	0x38
 1727 09ac A2000000 		.4byte	0xa2
 1728 09b0 0F       		.byte	0xf
 1729 09b1 07       		.uleb128 0x7
 1730 09b2 14000000 		.4byte	.LASF122
 1731 09b6 0C       		.byte	0xc
 1732 09b7 39       		.byte	0x39
 1733 09b8 A2000000 		.4byte	0xa2
 1734 09bc 10       		.byte	0x10
 1735 09bd 07       		.uleb128 0x7
 1736 09be F7060000 		.4byte	.LASF123
 1737 09c2 0C       		.byte	0xc
 1738 09c3 3B       		.byte	0x3b
 1739 09c4 A2000000 		.4byte	0xa2
 1740 09c8 11       		.byte	0x11
 1741 09c9 07       		.uleb128 0x7
 1742 09ca 33020000 		.4byte	.LASF124
 1743 09ce 0C       		.byte	0xc
 1744 09cf 3C       		.byte	0x3c
 1745 09d0 A2000000 		.4byte	0xa2
 1746 09d4 12       		.byte	0x12
 1747 09d5 07       		.uleb128 0x7
 1748 09d6 AD040000 		.4byte	.LASF125
 1749 09da 0C       		.byte	0xc
 1750 09db 3D       		.byte	0x3d
 1751 09dc A2000000 		.4byte	0xa2
 1752 09e0 13       		.byte	0x13
 1753 09e1 07       		.uleb128 0x7
 1754 09e2 B5030000 		.4byte	.LASF126
 1755 09e6 0C       		.byte	0xc
 1756 09e7 3E       		.byte	0x3e
 1757 09e8 A2000000 		.4byte	0xa2
 1758 09ec 14       		.byte	0x14
 1759 09ed 07       		.uleb128 0x7
 1760 09ee 22060000 		.4byte	.LASF127
 1761 09f2 0C       		.byte	0xc
 1762 09f3 40       		.byte	0x40
 1763 09f4 A2000000 		.4byte	0xa2
 1764 09f8 15       		.byte	0x15
 1765 09f9 00       		.byte	0
 1766 09fa 10       		.uleb128 0x10
 1767 09fb 01090000 		.4byte	0x901
ARM GAS  /tmp/ccFb4fbO.s 			page 32


 1768 09ff 0A0A0000 		.4byte	0xa0a
 1769 0a03 11       		.uleb128 0x11
 1770 0a04 2C000000 		.4byte	0x2c
 1771 0a08 03       		.byte	0x3
 1772 0a09 00       		.byte	0
 1773 0a0a 04       		.uleb128 0x4
 1774 0a0b 82020000 		.4byte	.LASF128
 1775 0a0f 0C       		.byte	0xc
 1776 0a10 41       		.byte	0x41
 1777 0a11 19090000 		.4byte	0x919
 1778 0a15 17       		.uleb128 0x17
 1779 0a16 0A0A0000 		.4byte	0xa0a
 1780 0a1a 14       		.uleb128 0x14
 1781 0a1b 85030000 		.4byte	.LASF129
 1782 0a1f 0C       		.byte	0xc
 1783 0a20 7E       		.byte	0x7e
 1784 0a21 150A0000 		.4byte	0xa15
 1785 0a25 09       		.uleb128 0x9
 1786 0a26 10       		.byte	0x10
 1787 0a27 0D       		.byte	0xd
 1788 0a28 71       		.byte	0x71
 1789 0a29 5E0A0000 		.4byte	0xa5e
 1790 0a2d 07       		.uleb128 0x7
 1791 0a2e 1F030000 		.4byte	.LASF130
 1792 0a32 0D       		.byte	0xd
 1793 0a33 72       		.byte	0x72
 1794 0a34 32010000 		.4byte	0x132
 1795 0a38 00       		.byte	0
 1796 0a39 07       		.uleb128 0x7
 1797 0a3a DF010000 		.4byte	.LASF131
 1798 0a3e 0D       		.byte	0xd
 1799 0a3f 73       		.byte	0x73
 1800 0a40 82020000 		.4byte	0x282
 1801 0a44 04       		.byte	0x4
 1802 0a45 07       		.uleb128 0x7
 1803 0a46 BF070000 		.4byte	.LASF132
 1804 0a4a 0D       		.byte	0xd
 1805 0a4b 74       		.byte	0x74
 1806 0a4c BE020000 		.4byte	0x2be
 1807 0a50 08       		.byte	0x8
 1808 0a51 07       		.uleb128 0x7
 1809 0a52 4D070000 		.4byte	.LASF133
 1810 0a56 0D       		.byte	0xd
 1811 0a57 75       		.byte	0x75
 1812 0a58 A2000000 		.4byte	0xa2
 1813 0a5c 0C       		.byte	0xc
 1814 0a5d 00       		.byte	0
 1815 0a5e 04       		.uleb128 0x4
 1816 0a5f EA040000 		.4byte	.LASF134
 1817 0a63 0D       		.byte	0xd
 1818 0a64 76       		.byte	0x76
 1819 0a65 250A0000 		.4byte	0xa25
 1820 0a69 18       		.uleb128 0x18
 1821 0a6a 0804     		.2byte	0x408
 1822 0a6c 0D       		.byte	0xd
 1823 0a6d 7B       		.byte	0x7b
 1824 0a6e 970A0000 		.4byte	0xa97
ARM GAS  /tmp/ccFb4fbO.s 			page 33


 1825 0a72 07       		.uleb128 0x7
 1826 0a73 9D040000 		.4byte	.LASF135
 1827 0a77 0D       		.byte	0xd
 1828 0a78 7C       		.byte	0x7c
 1829 0a79 2C000000 		.4byte	0x2c
 1830 0a7d 00       		.byte	0
 1831 0a7e 07       		.uleb128 0x7
 1832 0a7f E3040000 		.4byte	.LASF136
 1833 0a83 0D       		.byte	0xd
 1834 0a84 7D       		.byte	0x7d
 1835 0a85 970A0000 		.4byte	0xa97
 1836 0a89 04       		.byte	0x4
 1837 0a8a 07       		.uleb128 0x7
 1838 0a8b 9B050000 		.4byte	.LASF137
 1839 0a8f 0D       		.byte	0xd
 1840 0a90 7F       		.byte	0x7f
 1841 0a91 9D0A0000 		.4byte	0xa9d
 1842 0a95 08       		.byte	0x8
 1843 0a96 00       		.byte	0
 1844 0a97 0A       		.uleb128 0xa
 1845 0a98 04       		.byte	0x4
 1846 0a99 5E0A0000 		.4byte	0xa5e
 1847 0a9d 10       		.uleb128 0x10
 1848 0a9e 5E0A0000 		.4byte	0xa5e
 1849 0aa2 AD0A0000 		.4byte	0xaad
 1850 0aa6 11       		.uleb128 0x11
 1851 0aa7 2C000000 		.4byte	0x2c
 1852 0aab 3F       		.byte	0x3f
 1853 0aac 00       		.byte	0
 1854 0aad 04       		.uleb128 0x4
 1855 0aae 05050000 		.4byte	.LASF138
 1856 0ab2 0D       		.byte	0xd
 1857 0ab3 80       		.byte	0x80
 1858 0ab4 690A0000 		.4byte	0xa69
 1859 0ab8 14       		.uleb128 0x14
 1860 0ab9 76050000 		.4byte	.LASF139
 1861 0abd 0D       		.byte	0xd
 1862 0abe 83       		.byte	0x83
 1863 0abf AD0A0000 		.4byte	0xaad
 1864 0ac3 14       		.uleb128 0x14
 1865 0ac4 55040000 		.4byte	.LASF140
 1866 0ac8 0D       		.byte	0xd
 1867 0ac9 E2       		.byte	0xe2
 1868 0aca 42010000 		.4byte	0x142
 1869 0ace 14       		.uleb128 0x14
 1870 0acf DE060000 		.4byte	.LASF141
 1871 0ad3 0D       		.byte	0xd
 1872 0ad4 E3       		.byte	0xe3
 1873 0ad5 42010000 		.4byte	0x142
 1874 0ad9 14       		.uleb128 0x14
 1875 0ada E0050000 		.4byte	.LASF142
 1876 0ade 0D       		.byte	0xd
 1877 0adf F5       		.byte	0xf5
 1878 0ae0 FB080000 		.4byte	0x8fb
 1879 0ae4 19       		.uleb128 0x19
 1880 0ae5 C0020000 		.4byte	0x2c0
 1881 0ae9 08       		.byte	0x8
ARM GAS  /tmp/ccFb4fbO.s 			page 34


 1882 0aea F50A0000 		.4byte	0xaf5
 1883 0aee 11       		.uleb128 0x11
 1884 0aef 2C000000 		.4byte	0x2c
 1885 0af3 3A       		.byte	0x3a
 1886 0af4 00       		.byte	0
 1887 0af5 14       		.uleb128 0x14
 1888 0af6 94020000 		.4byte	.LASF143
 1889 0afa 0E       		.byte	0xe
 1890 0afb 89       		.byte	0x89
 1891 0afc E40A0000 		.4byte	0xae4
 1892 0b00 1A       		.uleb128 0x1a
 1893 0b01 61040000 		.4byte	.LASF144
 1894 0b05 01       		.byte	0x1
 1895 0b06 FC       		.byte	0xfc
 1896 0b07 00000000 		.4byte	.LFB13
 1897 0b0b 12000000 		.4byte	.LFE13-.LFB13
 1898 0b0f 01       		.uleb128 0x1
 1899 0b10 9C       		.byte	0x9c
 1900 0b11 1F0B0000 		.4byte	0xb1f
 1901 0b15 1B       		.uleb128 0x1b
 1902 0b16 06000000 		.4byte	.LVL19
 1903 0b1a C80C0000 		.4byte	0xcc8
 1904 0b1e 00       		.byte	0
 1905 0b1f 1A       		.uleb128 0x1a
 1906 0b20 EB010000 		.4byte	.LASF145
 1907 0b24 01       		.byte	0x1
 1908 0b25 E5       		.byte	0xe5
 1909 0b26 00000000 		.4byte	.LFB12
 1910 0b2a 18000000 		.4byte	.LFE12-.LFB12
 1911 0b2e 01       		.uleb128 0x1
 1912 0b2f 9C       		.byte	0x9c
 1913 0b30 4F0B0000 		.4byte	0xb4f
 1914 0b34 1C       		.uleb128 0x1c
 1915 0b35 6E747000 		.ascii	"ntp\000"
 1916 0b39 01       		.byte	0x1
 1917 0b3a E5       		.byte	0xe5
 1918 0b3b 82020000 		.4byte	0x282
 1919 0b3f 01       		.uleb128 0x1
 1920 0b40 50       		.byte	0x50
 1921 0b41 1C       		.uleb128 0x1c
 1922 0b42 6F747000 		.ascii	"otp\000"
 1923 0b46 01       		.byte	0x1
 1924 0b47 E5       		.byte	0xe5
 1925 0b48 82020000 		.4byte	0x282
 1926 0b4c 01       		.uleb128 0x1
 1927 0b4d 51       		.byte	0x51
 1928 0b4e 00       		.byte	0
 1929 0b4f 1A       		.uleb128 0x1a
 1930 0b50 C4030000 		.4byte	.LASF146
 1931 0b54 01       		.byte	0x1
 1932 0b55 C8       		.byte	0xc8
 1933 0b56 00000000 		.4byte	.LFB11
 1934 0b5a 1C000000 		.4byte	.LFE11-.LFB11
 1935 0b5e 01       		.uleb128 0x1
 1936 0b5f 9C       		.byte	0x9c
 1937 0b60 800B0000 		.4byte	0xb80
 1938 0b64 1B       		.uleb128 0x1b
ARM GAS  /tmp/ccFb4fbO.s 			page 35


 1939 0b65 04000000 		.4byte	.LVL0
 1940 0b69 D30C0000 		.4byte	0xcd3
 1941 0b6d 1B       		.uleb128 0x1b
 1942 0b6e 08000000 		.4byte	.LVL1
 1943 0b72 DE0C0000 		.4byte	0xcde
 1944 0b76 1B       		.uleb128 0x1b
 1945 0b77 0C000000 		.4byte	.LVL2
 1946 0b7b C80C0000 		.4byte	0xcc8
 1947 0b7f 00       		.byte	0
 1948 0b80 1D       		.uleb128 0x1d
 1949 0b81 19040000 		.4byte	.LASF163
 1950 0b85 01       		.byte	0x1
 1951 0b86 96       		.byte	0x96
 1952 0b87 01       		.byte	0x1
 1953 0b88 9A0B0000 		.4byte	0xb9a
 1954 0b8c 1E       		.uleb128 0x1e
 1955 0b8d 1F       		.uleb128 0x1f
 1956 0b8e B0050000 		.4byte	.LASF164
 1957 0b92 01       		.byte	0x1
 1958 0b93 9A       		.byte	0x9a
 1959 0b94 9A0B0000 		.4byte	0xb9a
 1960 0b98 00       		.byte	0
 1961 0b99 00       		.byte	0
 1962 0b9a 0A       		.uleb128 0xa
 1963 0b9b 04       		.byte	0x4
 1964 0b9c CC020000 		.4byte	0x2cc
 1965 0ba0 1A       		.uleb128 0x1a
 1966 0ba1 88070000 		.4byte	.LASF147
 1967 0ba5 01       		.byte	0x1
 1968 0ba6 78       		.byte	0x78
 1969 0ba7 00000000 		.4byte	.LFB9
 1970 0bab 30000000 		.4byte	.LFE9-.LFB9
 1971 0baf 01       		.uleb128 0x1
 1972 0bb0 9C       		.byte	0x9c
 1973 0bb1 FB0B0000 		.4byte	0xbfb
 1974 0bb5 20       		.uleb128 0x20
 1975 0bb6 14000000 		.4byte	.LVL14
 1976 0bba E90C0000 		.4byte	0xce9
 1977 0bbe CD0B0000 		.4byte	0xbcd
 1978 0bc2 21       		.uleb128 0x21
 1979 0bc3 01       		.uleb128 0x1
 1980 0bc4 50       		.byte	0x50
 1981 0bc5 01       		.uleb128 0x1
 1982 0bc6 37       		.byte	0x37
 1983 0bc7 21       		.uleb128 0x21
 1984 0bc8 01       		.uleb128 0x1
 1985 0bc9 51       		.byte	0x51
 1986 0bca 01       		.uleb128 0x1
 1987 0bcb 40       		.byte	0x40
 1988 0bcc 00       		.byte	0
 1989 0bcd 20       		.uleb128 0x20
 1990 0bce 1C000000 		.4byte	.LVL15
 1991 0bd2 E90C0000 		.4byte	0xce9
 1992 0bd6 E50B0000 		.4byte	0xbe5
 1993 0bda 21       		.uleb128 0x21
 1994 0bdb 01       		.uleb128 0x1
 1995 0bdc 50       		.byte	0x50
ARM GAS  /tmp/ccFb4fbO.s 			page 36


 1996 0bdd 01       		.uleb128 0x1
 1997 0bde 3A       		.byte	0x3a
 1998 0bdf 21       		.uleb128 0x21
 1999 0be0 01       		.uleb128 0x1
 2000 0be1 51       		.byte	0x51
 2001 0be2 01       		.uleb128 0x1
 2002 0be3 40       		.byte	0x40
 2003 0be4 00       		.byte	0
 2004 0be5 22       		.uleb128 0x22
 2005 0be6 28000000 		.4byte	.LVL16
 2006 0bea E90C0000 		.4byte	0xce9
 2007 0bee 21       		.uleb128 0x21
 2008 0bef 01       		.uleb128 0x1
 2009 0bf0 50       		.byte	0x50
 2010 0bf1 01       		.uleb128 0x1
 2011 0bf2 3B       		.byte	0x3b
 2012 0bf3 21       		.uleb128 0x21
 2013 0bf4 01       		.uleb128 0x1
 2014 0bf5 51       		.byte	0x51
 2015 0bf6 02       		.uleb128 0x2
 2016 0bf7 08       		.byte	0x8
 2017 0bf8 80       		.byte	0x80
 2018 0bf9 00       		.byte	0
 2019 0bfa 00       		.byte	0
 2020 0bfb 1A       		.uleb128 0x1a
 2021 0bfc 6C020000 		.4byte	.LASF148
 2022 0c00 01       		.byte	0x1
 2023 0c01 5D       		.byte	0x5d
 2024 0c02 00000000 		.4byte	.LFB8
 2025 0c06 1C000000 		.4byte	.LFE8-.LFB8
 2026 0c0a 01       		.uleb128 0x1
 2027 0c0b 9C       		.byte	0x9c
 2028 0c0c 200C0000 		.4byte	0xc20
 2029 0c10 23       		.uleb128 0x23
 2030 0c11 B0050000 		.4byte	.LASF164
 2031 0c15 01       		.byte	0x1
 2032 0c16 5E       		.byte	0x5e
 2033 0c17 9A0B0000 		.4byte	0xb9a
 2034 0c1b 00000000 		.4byte	.LLST1
 2035 0c1f 00       		.byte	0
 2036 0c20 1A       		.uleb128 0x1a
 2037 0c21 BA010000 		.4byte	.LASF149
 2038 0c25 01       		.byte	0x1
 2039 0c26 2F       		.byte	0x2f
 2040 0c27 00000000 		.4byte	.LFB7
 2041 0c2b 34000000 		.4byte	.LFE7-.LFB7
 2042 0c2f 01       		.uleb128 0x1
 2043 0c30 9C       		.byte	0x9c
 2044 0c31 800C0000 		.4byte	0xc80
 2045 0c35 24       		.uleb128 0x24
 2046 0c36 800B0000 		.4byte	0xb80
 2047 0c3a 1A000000 		.4byte	.LBB6
 2048 0c3e 00000000 		.4byte	.Ldebug_ranges0+0
 2049 0c42 01       		.byte	0x1
 2050 0c43 37       		.byte	0x37
 2051 0c44 520C0000 		.4byte	0xc52
 2052 0c48 25       		.uleb128 0x25
ARM GAS  /tmp/ccFb4fbO.s 			page 37


 2053 0c49 30000000 		.4byte	.LVL11
 2054 0c4d 800C0000 		.4byte	0xc80
 2055 0c51 00       		.byte	0
 2056 0c52 1B       		.uleb128 0x1b
 2057 0c53 06000000 		.4byte	.LVL6
 2058 0c57 F50C0000 		.4byte	0xcf5
 2059 0c5b 1B       		.uleb128 0x1b
 2060 0c5c 0C000000 		.4byte	.LVL7
 2061 0c60 000D0000 		.4byte	0xd00
 2062 0c64 1B       		.uleb128 0x1b
 2063 0c65 10000000 		.4byte	.LVL8
 2064 0c69 0B0D0000 		.4byte	0xd0b
 2065 0c6d 1B       		.uleb128 0x1b
 2066 0c6e 14000000 		.4byte	.LVL9
 2067 0c72 160D0000 		.4byte	0xd16
 2068 0c76 1B       		.uleb128 0x1b
 2069 0c77 1A000000 		.4byte	.LVL10
 2070 0c7b 210D0000 		.4byte	0xd21
 2071 0c7f 00       		.byte	0
 2072 0c80 26       		.uleb128 0x26
 2073 0c81 800B0000 		.4byte	0xb80
 2074 0c85 00000000 		.4byte	.LFB14
 2075 0c89 6C000000 		.4byte	.LFE14-.LFB14
 2076 0c8d 01       		.uleb128 0x1
 2077 0c8e 9C       		.byte	0x9c
 2078 0c8f AB0C0000 		.4byte	0xcab
 2079 0c93 27       		.uleb128 0x27
 2080 0c94 8C0B0000 		.4byte	0xb8c
 2081 0c98 00000000 		.4byte	.LBB5
 2082 0c9c 5A000000 		.4byte	.LBE5-.LBB5
 2083 0ca0 28       		.uleb128 0x28
 2084 0ca1 8D0B0000 		.4byte	0xb8d
 2085 0ca5 21000000 		.4byte	.LLST0
 2086 0ca9 00       		.byte	0
 2087 0caa 00       		.byte	0
 2088 0cab 26       		.uleb128 0x26
 2089 0cac 800B0000 		.4byte	0xb80
 2090 0cb0 00000000 		.4byte	.LFB10
 2091 0cb4 18000000 		.4byte	.LFE10-.LFB10
 2092 0cb8 01       		.uleb128 0x1
 2093 0cb9 9C       		.byte	0x9c
 2094 0cba C80C0000 		.4byte	0xcc8
 2095 0cbe 25       		.uleb128 0x25
 2096 0cbf 0E000000 		.4byte	.LVL17
 2097 0cc3 800C0000 		.4byte	0xc80
 2098 0cc7 00       		.byte	0
 2099 0cc8 29       		.uleb128 0x29
 2100 0cc9 5A050000 		.4byte	.LASF150
 2101 0ccd 5A050000 		.4byte	.LASF150
 2102 0cd1 0D       		.byte	0xd
 2103 0cd2 E8       		.byte	0xe8
 2104 0cd3 29       		.uleb128 0x29
 2105 0cd4 CF040000 		.4byte	.LASF151
 2106 0cd8 CF040000 		.4byte	.LASF151
 2107 0cdc 0D       		.byte	0xd
 2108 0cdd E7       		.byte	0xe7
 2109 0cde 29       		.uleb128 0x29
ARM GAS  /tmp/ccFb4fbO.s 			page 38


 2110 0cdf 0D030000 		.4byte	.LASF152
 2111 0ce3 0D030000 		.4byte	.LASF152
 2112 0ce7 0A       		.byte	0xa
 2113 0ce8 A8       		.byte	0xa8
 2114 0ce9 2A       		.uleb128 0x2a
 2115 0cea C2020000 		.4byte	.LASF153
 2116 0cee C2020000 		.4byte	.LASF153
 2117 0cf2 08       		.byte	0x8
 2118 0cf3 2501     		.2byte	0x125
 2119 0cf5 29       		.uleb128 0x29
 2120 0cf6 F9020000 		.4byte	.LASF154
 2121 0cfa F9020000 		.4byte	.LASF154
 2122 0cfe 0D       		.byte	0xd
 2123 0cff EB       		.byte	0xeb
 2124 0d00 29       		.uleb128 0x29
 2125 0d01 69070000 		.4byte	.LASF155
 2126 0d05 69070000 		.4byte	.LASF155
 2127 0d09 0D       		.byte	0xd
 2128 0d0a E9       		.byte	0xe9
 2129 0d0b 29       		.uleb128 0x29
 2130 0d0c 54000000 		.4byte	.LASF156
 2131 0d10 54000000 		.4byte	.LASF156
 2132 0d14 0F       		.byte	0xf
 2133 0d15 F7       		.byte	0xf7
 2134 0d16 29       		.uleb128 0x29
 2135 0d17 19020000 		.4byte	.LASF157
 2136 0d1b 19020000 		.4byte	.LASF157
 2137 0d1f 0D       		.byte	0xd
 2138 0d20 EA       		.byte	0xea
 2139 0d21 29       		.uleb128 0x29
 2140 0d22 04070000 		.4byte	.LASF158
 2141 0d26 04070000 		.4byte	.LASF158
 2142 0d2a 0D       		.byte	0xd
 2143 0d2b EC       		.byte	0xec
 2144 0d2c 00       		.byte	0
 2145              		.section	.debug_abbrev,"",%progbits
 2146              	.Ldebug_abbrev0:
 2147 0000 01       		.uleb128 0x1
 2148 0001 11       		.uleb128 0x11
 2149 0002 01       		.byte	0x1
 2150 0003 25       		.uleb128 0x25
 2151 0004 0E       		.uleb128 0xe
 2152 0005 13       		.uleb128 0x13
 2153 0006 0B       		.uleb128 0xb
 2154 0007 03       		.uleb128 0x3
 2155 0008 0E       		.uleb128 0xe
 2156 0009 1B       		.uleb128 0x1b
 2157 000a 0E       		.uleb128 0xe
 2158 000b 55       		.uleb128 0x55
 2159 000c 17       		.uleb128 0x17
 2160 000d 11       		.uleb128 0x11
 2161 000e 01       		.uleb128 0x1
 2162 000f 10       		.uleb128 0x10
 2163 0010 17       		.uleb128 0x17
 2164 0011 00       		.byte	0
 2165 0012 00       		.byte	0
 2166 0013 02       		.uleb128 0x2
ARM GAS  /tmp/ccFb4fbO.s 			page 39


 2167 0014 24       		.uleb128 0x24
 2168 0015 00       		.byte	0
 2169 0016 0B       		.uleb128 0xb
 2170 0017 0B       		.uleb128 0xb
 2171 0018 3E       		.uleb128 0x3e
 2172 0019 0B       		.uleb128 0xb
 2173 001a 03       		.uleb128 0x3
 2174 001b 08       		.uleb128 0x8
 2175 001c 00       		.byte	0
 2176 001d 00       		.byte	0
 2177 001e 03       		.uleb128 0x3
 2178 001f 24       		.uleb128 0x24
 2179 0020 00       		.byte	0
 2180 0021 0B       		.uleb128 0xb
 2181 0022 0B       		.uleb128 0xb
 2182 0023 3E       		.uleb128 0x3e
 2183 0024 0B       		.uleb128 0xb
 2184 0025 03       		.uleb128 0x3
 2185 0026 0E       		.uleb128 0xe
 2186 0027 00       		.byte	0
 2187 0028 00       		.byte	0
 2188 0029 04       		.uleb128 0x4
 2189 002a 16       		.uleb128 0x16
 2190 002b 00       		.byte	0
 2191 002c 03       		.uleb128 0x3
 2192 002d 0E       		.uleb128 0xe
 2193 002e 3A       		.uleb128 0x3a
 2194 002f 0B       		.uleb128 0xb
 2195 0030 3B       		.uleb128 0x3b
 2196 0031 0B       		.uleb128 0xb
 2197 0032 49       		.uleb128 0x49
 2198 0033 13       		.uleb128 0x13
 2199 0034 00       		.byte	0
 2200 0035 00       		.byte	0
 2201 0036 05       		.uleb128 0x5
 2202 0037 35       		.uleb128 0x35
 2203 0038 00       		.byte	0
 2204 0039 49       		.uleb128 0x49
 2205 003a 13       		.uleb128 0x13
 2206 003b 00       		.byte	0
 2207 003c 00       		.byte	0
 2208 003d 06       		.uleb128 0x6
 2209 003e 13       		.uleb128 0x13
 2210 003f 01       		.byte	0x1
 2211 0040 03       		.uleb128 0x3
 2212 0041 0E       		.uleb128 0xe
 2213 0042 0B       		.uleb128 0xb
 2214 0043 0B       		.uleb128 0xb
 2215 0044 3A       		.uleb128 0x3a
 2216 0045 0B       		.uleb128 0xb
 2217 0046 3B       		.uleb128 0x3b
 2218 0047 0B       		.uleb128 0xb
 2219 0048 01       		.uleb128 0x1
 2220 0049 13       		.uleb128 0x13
 2221 004a 00       		.byte	0
 2222 004b 00       		.byte	0
 2223 004c 07       		.uleb128 0x7
ARM GAS  /tmp/ccFb4fbO.s 			page 40


 2224 004d 0D       		.uleb128 0xd
 2225 004e 00       		.byte	0
 2226 004f 03       		.uleb128 0x3
 2227 0050 0E       		.uleb128 0xe
 2228 0051 3A       		.uleb128 0x3a
 2229 0052 0B       		.uleb128 0xb
 2230 0053 3B       		.uleb128 0x3b
 2231 0054 0B       		.uleb128 0xb
 2232 0055 49       		.uleb128 0x49
 2233 0056 13       		.uleb128 0x13
 2234 0057 38       		.uleb128 0x38
 2235 0058 0B       		.uleb128 0xb
 2236 0059 00       		.byte	0
 2237 005a 00       		.byte	0
 2238 005b 08       		.uleb128 0x8
 2239 005c 0D       		.uleb128 0xd
 2240 005d 00       		.byte	0
 2241 005e 03       		.uleb128 0x3
 2242 005f 08       		.uleb128 0x8
 2243 0060 3A       		.uleb128 0x3a
 2244 0061 0B       		.uleb128 0xb
 2245 0062 3B       		.uleb128 0x3b
 2246 0063 0B       		.uleb128 0xb
 2247 0064 49       		.uleb128 0x49
 2248 0065 13       		.uleb128 0x13
 2249 0066 38       		.uleb128 0x38
 2250 0067 0B       		.uleb128 0xb
 2251 0068 00       		.byte	0
 2252 0069 00       		.byte	0
 2253 006a 09       		.uleb128 0x9
 2254 006b 13       		.uleb128 0x13
 2255 006c 01       		.byte	0x1
 2256 006d 0B       		.uleb128 0xb
 2257 006e 0B       		.uleb128 0xb
 2258 006f 3A       		.uleb128 0x3a
 2259 0070 0B       		.uleb128 0xb
 2260 0071 3B       		.uleb128 0x3b
 2261 0072 0B       		.uleb128 0xb
 2262 0073 01       		.uleb128 0x1
 2263 0074 13       		.uleb128 0x13
 2264 0075 00       		.byte	0
 2265 0076 00       		.byte	0
 2266 0077 0A       		.uleb128 0xa
 2267 0078 0F       		.uleb128 0xf
 2268 0079 00       		.byte	0
 2269 007a 0B       		.uleb128 0xb
 2270 007b 0B       		.uleb128 0xb
 2271 007c 49       		.uleb128 0x49
 2272 007d 13       		.uleb128 0x13
 2273 007e 00       		.byte	0
 2274 007f 00       		.byte	0
 2275 0080 0B       		.uleb128 0xb
 2276 0081 0F       		.uleb128 0xf
 2277 0082 00       		.byte	0
 2278 0083 0B       		.uleb128 0xb
 2279 0084 0B       		.uleb128 0xb
 2280 0085 00       		.byte	0
ARM GAS  /tmp/ccFb4fbO.s 			page 41


 2281 0086 00       		.byte	0
 2282 0087 0C       		.uleb128 0xc
 2283 0088 16       		.uleb128 0x16
 2284 0089 00       		.byte	0
 2285 008a 03       		.uleb128 0x3
 2286 008b 0E       		.uleb128 0xe
 2287 008c 3A       		.uleb128 0x3a
 2288 008d 0B       		.uleb128 0xb
 2289 008e 3B       		.uleb128 0x3b
 2290 008f 0B       		.uleb128 0xb
 2291 0090 49       		.uleb128 0x49
 2292 0091 13       		.uleb128 0x13
 2293 0092 8801     		.uleb128 0x88
 2294 0094 0B       		.uleb128 0xb
 2295 0095 00       		.byte	0
 2296 0096 00       		.byte	0
 2297 0097 0D       		.uleb128 0xd
 2298 0098 0D       		.uleb128 0xd
 2299 0099 00       		.byte	0
 2300 009a 03       		.uleb128 0x3
 2301 009b 08       		.uleb128 0x8
 2302 009c 3A       		.uleb128 0x3a
 2303 009d 0B       		.uleb128 0xb
 2304 009e 3B       		.uleb128 0x3b
 2305 009f 05       		.uleb128 0x5
 2306 00a0 49       		.uleb128 0x49
 2307 00a1 13       		.uleb128 0x13
 2308 00a2 38       		.uleb128 0x38
 2309 00a3 0B       		.uleb128 0xb
 2310 00a4 00       		.byte	0
 2311 00a5 00       		.byte	0
 2312 00a6 0E       		.uleb128 0xe
 2313 00a7 0D       		.uleb128 0xd
 2314 00a8 00       		.byte	0
 2315 00a9 03       		.uleb128 0x3
 2316 00aa 0E       		.uleb128 0xe
 2317 00ab 3A       		.uleb128 0x3a
 2318 00ac 0B       		.uleb128 0xb
 2319 00ad 3B       		.uleb128 0x3b
 2320 00ae 05       		.uleb128 0x5
 2321 00af 49       		.uleb128 0x49
 2322 00b0 13       		.uleb128 0x13
 2323 00b1 38       		.uleb128 0x38
 2324 00b2 0B       		.uleb128 0xb
 2325 00b3 00       		.byte	0
 2326 00b4 00       		.byte	0
 2327 00b5 0F       		.uleb128 0xf
 2328 00b6 13       		.uleb128 0x13
 2329 00b7 01       		.byte	0x1
 2330 00b8 03       		.uleb128 0x3
 2331 00b9 0E       		.uleb128 0xe
 2332 00ba 0B       		.uleb128 0xb
 2333 00bb 0B       		.uleb128 0xb
 2334 00bc 3A       		.uleb128 0x3a
 2335 00bd 0B       		.uleb128 0xb
 2336 00be 3B       		.uleb128 0x3b
 2337 00bf 05       		.uleb128 0x5
ARM GAS  /tmp/ccFb4fbO.s 			page 42


 2338 00c0 01       		.uleb128 0x1
 2339 00c1 13       		.uleb128 0x13
 2340 00c2 00       		.byte	0
 2341 00c3 00       		.byte	0
 2342 00c4 10       		.uleb128 0x10
 2343 00c5 01       		.uleb128 0x1
 2344 00c6 01       		.byte	0x1
 2345 00c7 49       		.uleb128 0x49
 2346 00c8 13       		.uleb128 0x13
 2347 00c9 01       		.uleb128 0x1
 2348 00ca 13       		.uleb128 0x13
 2349 00cb 00       		.byte	0
 2350 00cc 00       		.byte	0
 2351 00cd 11       		.uleb128 0x11
 2352 00ce 21       		.uleb128 0x21
 2353 00cf 00       		.byte	0
 2354 00d0 49       		.uleb128 0x49
 2355 00d1 13       		.uleb128 0x13
 2356 00d2 2F       		.uleb128 0x2f
 2357 00d3 0B       		.uleb128 0xb
 2358 00d4 00       		.byte	0
 2359 00d5 00       		.byte	0
 2360 00d6 12       		.uleb128 0x12
 2361 00d7 15       		.uleb128 0x15
 2362 00d8 01       		.byte	0x1
 2363 00d9 27       		.uleb128 0x27
 2364 00da 19       		.uleb128 0x19
 2365 00db 01       		.uleb128 0x1
 2366 00dc 13       		.uleb128 0x13
 2367 00dd 00       		.byte	0
 2368 00de 00       		.byte	0
 2369 00df 13       		.uleb128 0x13
 2370 00e0 05       		.uleb128 0x5
 2371 00e1 00       		.byte	0
 2372 00e2 49       		.uleb128 0x49
 2373 00e3 13       		.uleb128 0x13
 2374 00e4 00       		.byte	0
 2375 00e5 00       		.byte	0
 2376 00e6 14       		.uleb128 0x14
 2377 00e7 34       		.uleb128 0x34
 2378 00e8 00       		.byte	0
 2379 00e9 03       		.uleb128 0x3
 2380 00ea 0E       		.uleb128 0xe
 2381 00eb 3A       		.uleb128 0x3a
 2382 00ec 0B       		.uleb128 0xb
 2383 00ed 3B       		.uleb128 0x3b
 2384 00ee 0B       		.uleb128 0xb
 2385 00ef 49       		.uleb128 0x49
 2386 00f0 13       		.uleb128 0x13
 2387 00f1 3F       		.uleb128 0x3f
 2388 00f2 19       		.uleb128 0x19
 2389 00f3 3C       		.uleb128 0x3c
 2390 00f4 19       		.uleb128 0x19
 2391 00f5 00       		.byte	0
 2392 00f6 00       		.byte	0
 2393 00f7 15       		.uleb128 0x15
 2394 00f8 17       		.uleb128 0x17
ARM GAS  /tmp/ccFb4fbO.s 			page 43


 2395 00f9 01       		.byte	0x1
 2396 00fa 0B       		.uleb128 0xb
 2397 00fb 0B       		.uleb128 0xb
 2398 00fc 3A       		.uleb128 0x3a
 2399 00fd 0B       		.uleb128 0xb
 2400 00fe 3B       		.uleb128 0x3b
 2401 00ff 0B       		.uleb128 0xb
 2402 0100 01       		.uleb128 0x1
 2403 0101 13       		.uleb128 0x13
 2404 0102 00       		.byte	0
 2405 0103 00       		.byte	0
 2406 0104 16       		.uleb128 0x16
 2407 0105 0D       		.uleb128 0xd
 2408 0106 00       		.byte	0
 2409 0107 03       		.uleb128 0x3
 2410 0108 0E       		.uleb128 0xe
 2411 0109 3A       		.uleb128 0x3a
 2412 010a 0B       		.uleb128 0xb
 2413 010b 3B       		.uleb128 0x3b
 2414 010c 0B       		.uleb128 0xb
 2415 010d 49       		.uleb128 0x49
 2416 010e 13       		.uleb128 0x13
 2417 010f 00       		.byte	0
 2418 0110 00       		.byte	0
 2419 0111 17       		.uleb128 0x17
 2420 0112 26       		.uleb128 0x26
 2421 0113 00       		.byte	0
 2422 0114 49       		.uleb128 0x49
 2423 0115 13       		.uleb128 0x13
 2424 0116 00       		.byte	0
 2425 0117 00       		.byte	0
 2426 0118 18       		.uleb128 0x18
 2427 0119 13       		.uleb128 0x13
 2428 011a 01       		.byte	0x1
 2429 011b 0B       		.uleb128 0xb
 2430 011c 05       		.uleb128 0x5
 2431 011d 3A       		.uleb128 0x3a
 2432 011e 0B       		.uleb128 0xb
 2433 011f 3B       		.uleb128 0x3b
 2434 0120 0B       		.uleb128 0xb
 2435 0121 01       		.uleb128 0x1
 2436 0122 13       		.uleb128 0x13
 2437 0123 00       		.byte	0
 2438 0124 00       		.byte	0
 2439 0125 19       		.uleb128 0x19
 2440 0126 01       		.uleb128 0x1
 2441 0127 01       		.byte	0x1
 2442 0128 49       		.uleb128 0x49
 2443 0129 13       		.uleb128 0x13
 2444 012a 8801     		.uleb128 0x88
 2445 012c 0B       		.uleb128 0xb
 2446 012d 01       		.uleb128 0x1
 2447 012e 13       		.uleb128 0x13
 2448 012f 00       		.byte	0
 2449 0130 00       		.byte	0
 2450 0131 1A       		.uleb128 0x1a
 2451 0132 2E       		.uleb128 0x2e
ARM GAS  /tmp/ccFb4fbO.s 			page 44


 2452 0133 01       		.byte	0x1
 2453 0134 3F       		.uleb128 0x3f
 2454 0135 19       		.uleb128 0x19
 2455 0136 03       		.uleb128 0x3
 2456 0137 0E       		.uleb128 0xe
 2457 0138 3A       		.uleb128 0x3a
 2458 0139 0B       		.uleb128 0xb
 2459 013a 3B       		.uleb128 0x3b
 2460 013b 0B       		.uleb128 0xb
 2461 013c 27       		.uleb128 0x27
 2462 013d 19       		.uleb128 0x19
 2463 013e 11       		.uleb128 0x11
 2464 013f 01       		.uleb128 0x1
 2465 0140 12       		.uleb128 0x12
 2466 0141 06       		.uleb128 0x6
 2467 0142 40       		.uleb128 0x40
 2468 0143 18       		.uleb128 0x18
 2469 0144 9742     		.uleb128 0x2117
 2470 0146 19       		.uleb128 0x19
 2471 0147 01       		.uleb128 0x1
 2472 0148 13       		.uleb128 0x13
 2473 0149 00       		.byte	0
 2474 014a 00       		.byte	0
 2475 014b 1B       		.uleb128 0x1b
 2476 014c 898201   		.uleb128 0x4109
 2477 014f 00       		.byte	0
 2478 0150 11       		.uleb128 0x11
 2479 0151 01       		.uleb128 0x1
 2480 0152 31       		.uleb128 0x31
 2481 0153 13       		.uleb128 0x13
 2482 0154 00       		.byte	0
 2483 0155 00       		.byte	0
 2484 0156 1C       		.uleb128 0x1c
 2485 0157 05       		.uleb128 0x5
 2486 0158 00       		.byte	0
 2487 0159 03       		.uleb128 0x3
 2488 015a 08       		.uleb128 0x8
 2489 015b 3A       		.uleb128 0x3a
 2490 015c 0B       		.uleb128 0xb
 2491 015d 3B       		.uleb128 0x3b
 2492 015e 0B       		.uleb128 0xb
 2493 015f 49       		.uleb128 0x49
 2494 0160 13       		.uleb128 0x13
 2495 0161 02       		.uleb128 0x2
 2496 0162 18       		.uleb128 0x18
 2497 0163 00       		.byte	0
 2498 0164 00       		.byte	0
 2499 0165 1D       		.uleb128 0x1d
 2500 0166 2E       		.uleb128 0x2e
 2501 0167 01       		.byte	0x1
 2502 0168 3F       		.uleb128 0x3f
 2503 0169 19       		.uleb128 0x19
 2504 016a 03       		.uleb128 0x3
 2505 016b 0E       		.uleb128 0xe
 2506 016c 3A       		.uleb128 0x3a
 2507 016d 0B       		.uleb128 0xb
 2508 016e 3B       		.uleb128 0x3b
ARM GAS  /tmp/ccFb4fbO.s 			page 45


 2509 016f 0B       		.uleb128 0xb
 2510 0170 27       		.uleb128 0x27
 2511 0171 19       		.uleb128 0x19
 2512 0172 20       		.uleb128 0x20
 2513 0173 0B       		.uleb128 0xb
 2514 0174 01       		.uleb128 0x1
 2515 0175 13       		.uleb128 0x13
 2516 0176 00       		.byte	0
 2517 0177 00       		.byte	0
 2518 0178 1E       		.uleb128 0x1e
 2519 0179 0B       		.uleb128 0xb
 2520 017a 01       		.byte	0x1
 2521 017b 00       		.byte	0
 2522 017c 00       		.byte	0
 2523 017d 1F       		.uleb128 0x1f
 2524 017e 34       		.uleb128 0x34
 2525 017f 00       		.byte	0
 2526 0180 03       		.uleb128 0x3
 2527 0181 0E       		.uleb128 0xe
 2528 0182 3A       		.uleb128 0x3a
 2529 0183 0B       		.uleb128 0xb
 2530 0184 3B       		.uleb128 0x3b
 2531 0185 0B       		.uleb128 0xb
 2532 0186 49       		.uleb128 0x49
 2533 0187 13       		.uleb128 0x13
 2534 0188 00       		.byte	0
 2535 0189 00       		.byte	0
 2536 018a 20       		.uleb128 0x20
 2537 018b 898201   		.uleb128 0x4109
 2538 018e 01       		.byte	0x1
 2539 018f 11       		.uleb128 0x11
 2540 0190 01       		.uleb128 0x1
 2541 0191 31       		.uleb128 0x31
 2542 0192 13       		.uleb128 0x13
 2543 0193 01       		.uleb128 0x1
 2544 0194 13       		.uleb128 0x13
 2545 0195 00       		.byte	0
 2546 0196 00       		.byte	0
 2547 0197 21       		.uleb128 0x21
 2548 0198 8A8201   		.uleb128 0x410a
 2549 019b 00       		.byte	0
 2550 019c 02       		.uleb128 0x2
 2551 019d 18       		.uleb128 0x18
 2552 019e 9142     		.uleb128 0x2111
 2553 01a0 18       		.uleb128 0x18
 2554 01a1 00       		.byte	0
 2555 01a2 00       		.byte	0
 2556 01a3 22       		.uleb128 0x22
 2557 01a4 898201   		.uleb128 0x4109
 2558 01a7 01       		.byte	0x1
 2559 01a8 11       		.uleb128 0x11
 2560 01a9 01       		.uleb128 0x1
 2561 01aa 9542     		.uleb128 0x2115
 2562 01ac 19       		.uleb128 0x19
 2563 01ad 31       		.uleb128 0x31
 2564 01ae 13       		.uleb128 0x13
 2565 01af 00       		.byte	0
ARM GAS  /tmp/ccFb4fbO.s 			page 46


 2566 01b0 00       		.byte	0
 2567 01b1 23       		.uleb128 0x23
 2568 01b2 34       		.uleb128 0x34
 2569 01b3 00       		.byte	0
 2570 01b4 03       		.uleb128 0x3
 2571 01b5 0E       		.uleb128 0xe
 2572 01b6 3A       		.uleb128 0x3a
 2573 01b7 0B       		.uleb128 0xb
 2574 01b8 3B       		.uleb128 0x3b
 2575 01b9 0B       		.uleb128 0xb
 2576 01ba 49       		.uleb128 0x49
 2577 01bb 13       		.uleb128 0x13
 2578 01bc 02       		.uleb128 0x2
 2579 01bd 17       		.uleb128 0x17
 2580 01be 00       		.byte	0
 2581 01bf 00       		.byte	0
 2582 01c0 24       		.uleb128 0x24
 2583 01c1 1D       		.uleb128 0x1d
 2584 01c2 01       		.byte	0x1
 2585 01c3 31       		.uleb128 0x31
 2586 01c4 13       		.uleb128 0x13
 2587 01c5 52       		.uleb128 0x52
 2588 01c6 01       		.uleb128 0x1
 2589 01c7 55       		.uleb128 0x55
 2590 01c8 17       		.uleb128 0x17
 2591 01c9 58       		.uleb128 0x58
 2592 01ca 0B       		.uleb128 0xb
 2593 01cb 59       		.uleb128 0x59
 2594 01cc 0B       		.uleb128 0xb
 2595 01cd 01       		.uleb128 0x1
 2596 01ce 13       		.uleb128 0x13
 2597 01cf 00       		.byte	0
 2598 01d0 00       		.byte	0
 2599 01d1 25       		.uleb128 0x25
 2600 01d2 898201   		.uleb128 0x4109
 2601 01d5 00       		.byte	0
 2602 01d6 11       		.uleb128 0x11
 2603 01d7 01       		.uleb128 0x1
 2604 01d8 9542     		.uleb128 0x2115
 2605 01da 19       		.uleb128 0x19
 2606 01db 31       		.uleb128 0x31
 2607 01dc 13       		.uleb128 0x13
 2608 01dd 00       		.byte	0
 2609 01de 00       		.byte	0
 2610 01df 26       		.uleb128 0x26
 2611 01e0 2E       		.uleb128 0x2e
 2612 01e1 01       		.byte	0x1
 2613 01e2 31       		.uleb128 0x31
 2614 01e3 13       		.uleb128 0x13
 2615 01e4 11       		.uleb128 0x11
 2616 01e5 01       		.uleb128 0x1
 2617 01e6 12       		.uleb128 0x12
 2618 01e7 06       		.uleb128 0x6
 2619 01e8 40       		.uleb128 0x40
 2620 01e9 18       		.uleb128 0x18
 2621 01ea 9742     		.uleb128 0x2117
 2622 01ec 19       		.uleb128 0x19
ARM GAS  /tmp/ccFb4fbO.s 			page 47


 2623 01ed 01       		.uleb128 0x1
 2624 01ee 13       		.uleb128 0x13
 2625 01ef 00       		.byte	0
 2626 01f0 00       		.byte	0
 2627 01f1 27       		.uleb128 0x27
 2628 01f2 0B       		.uleb128 0xb
 2629 01f3 01       		.byte	0x1
 2630 01f4 31       		.uleb128 0x31
 2631 01f5 13       		.uleb128 0x13
 2632 01f6 11       		.uleb128 0x11
 2633 01f7 01       		.uleb128 0x1
 2634 01f8 12       		.uleb128 0x12
 2635 01f9 06       		.uleb128 0x6
 2636 01fa 00       		.byte	0
 2637 01fb 00       		.byte	0
 2638 01fc 28       		.uleb128 0x28
 2639 01fd 34       		.uleb128 0x34
 2640 01fe 00       		.byte	0
 2641 01ff 31       		.uleb128 0x31
 2642 0200 13       		.uleb128 0x13
 2643 0201 02       		.uleb128 0x2
 2644 0202 17       		.uleb128 0x17
 2645 0203 00       		.byte	0
 2646 0204 00       		.byte	0
 2647 0205 29       		.uleb128 0x29
 2648 0206 2E       		.uleb128 0x2e
 2649 0207 00       		.byte	0
 2650 0208 3F       		.uleb128 0x3f
 2651 0209 19       		.uleb128 0x19
 2652 020a 3C       		.uleb128 0x3c
 2653 020b 19       		.uleb128 0x19
 2654 020c 6E       		.uleb128 0x6e
 2655 020d 0E       		.uleb128 0xe
 2656 020e 03       		.uleb128 0x3
 2657 020f 0E       		.uleb128 0xe
 2658 0210 3A       		.uleb128 0x3a
 2659 0211 0B       		.uleb128 0xb
 2660 0212 3B       		.uleb128 0x3b
 2661 0213 0B       		.uleb128 0xb
 2662 0214 00       		.byte	0
 2663 0215 00       		.byte	0
 2664 0216 2A       		.uleb128 0x2a
 2665 0217 2E       		.uleb128 0x2e
 2666 0218 00       		.byte	0
 2667 0219 3F       		.uleb128 0x3f
 2668 021a 19       		.uleb128 0x19
 2669 021b 3C       		.uleb128 0x3c
 2670 021c 19       		.uleb128 0x19
 2671 021d 6E       		.uleb128 0x6e
 2672 021e 0E       		.uleb128 0xe
 2673 021f 03       		.uleb128 0x3
 2674 0220 0E       		.uleb128 0xe
 2675 0221 3A       		.uleb128 0x3a
 2676 0222 0B       		.uleb128 0xb
 2677 0223 3B       		.uleb128 0x3b
 2678 0224 05       		.uleb128 0x5
 2679 0225 00       		.byte	0
ARM GAS  /tmp/ccFb4fbO.s 			page 48


 2680 0226 00       		.byte	0
 2681 0227 00       		.byte	0
 2682              		.section	.debug_loc,"",%progbits
 2683              	.Ldebug_loc0:
 2684              	.LLST1:
 2685 0000 0E000000 		.4byte	.LVL12
 2686 0004 10000000 		.4byte	.LVL13
 2687 0008 0400     		.2byte	0x4
 2688 000a 73       		.byte	0x73
 2689 000b E800     		.sleb128 104
 2690 000d 9F       		.byte	0x9f
 2691 000e 10000000 		.4byte	.LVL13
 2692 0012 1C000000 		.4byte	.LFE8
 2693 0016 0100     		.2byte	0x1
 2694 0018 53       		.byte	0x53
 2695 0019 00000000 		.4byte	0
 2696 001d 00000000 		.4byte	0
 2697              	.LLST0:
 2698 0021 08000000 		.4byte	.LVL3
 2699 0025 1C000000 		.4byte	.LVL4
 2700 0029 0400     		.2byte	0x4
 2701 002b 73       		.byte	0x73
 2702 002c 987F     		.sleb128 -104
 2703 002e 9F       		.byte	0x9f
 2704 002f 1C000000 		.4byte	.LVL4
 2705 0033 24000000 		.4byte	.LVL5
 2706 0037 0100     		.2byte	0x1
 2707 0039 52       		.byte	0x52
 2708 003a 24000000 		.4byte	.LVL5
 2709 003e 6C000000 		.4byte	.LFE14
 2710 0042 0400     		.2byte	0x4
 2711 0044 73       		.byte	0x73
 2712 0045 987F     		.sleb128 -104
 2713 0047 9F       		.byte	0x9f
 2714 0048 00000000 		.4byte	0
 2715 004c 00000000 		.4byte	0
 2716              		.section	.debug_aranges,"",%progbits
 2717 0000 54000000 		.4byte	0x54
 2718 0004 0200     		.2byte	0x2
 2719 0006 00000000 		.4byte	.Ldebug_info0
 2720 000a 04       		.byte	0x4
 2721 000b 00       		.byte	0
 2722 000c 0000     		.2byte	0
 2723 000e 0000     		.2byte	0
 2724 0010 00000000 		.4byte	.LFB11
 2725 0014 1C000000 		.4byte	.LFE11-.LFB11
 2726 0018 00000000 		.4byte	.LFB14
 2727 001c 6C000000 		.4byte	.LFE14-.LFB14
 2728 0020 00000000 		.4byte	.LFB7
 2729 0024 34000000 		.4byte	.LFE7-.LFB7
 2730 0028 00000000 		.4byte	.LFB8
 2731 002c 1C000000 		.4byte	.LFE8-.LFB8
 2732 0030 00000000 		.4byte	.LFB9
 2733 0034 30000000 		.4byte	.LFE9-.LFB9
 2734 0038 00000000 		.4byte	.LFB10
 2735 003c 18000000 		.4byte	.LFE10-.LFB10
 2736 0040 00000000 		.4byte	.LFB12
ARM GAS  /tmp/ccFb4fbO.s 			page 49


 2737 0044 18000000 		.4byte	.LFE12-.LFB12
 2738 0048 00000000 		.4byte	.LFB13
 2739 004c 12000000 		.4byte	.LFE13-.LFB13
 2740 0050 00000000 		.4byte	0
 2741 0054 00000000 		.4byte	0
 2742              		.section	.debug_ranges,"",%progbits
 2743              	.Ldebug_ranges0:
 2744 0000 1A000000 		.4byte	.LBB6
 2745 0004 26000000 		.4byte	.LBE6
 2746 0008 2C000000 		.4byte	.LBB9
 2747 000c 34000000 		.4byte	.LBE9
 2748 0010 00000000 		.4byte	0
 2749 0014 00000000 		.4byte	0
 2750 0018 00000000 		.4byte	.LFB11
 2751 001c 1C000000 		.4byte	.LFE11
 2752 0020 00000000 		.4byte	.LFB14
 2753 0024 6C000000 		.4byte	.LFE14
 2754 0028 00000000 		.4byte	.LFB7
 2755 002c 34000000 		.4byte	.LFE7
 2756 0030 00000000 		.4byte	.LFB8
 2757 0034 1C000000 		.4byte	.LFE8
 2758 0038 00000000 		.4byte	.LFB9
 2759 003c 30000000 		.4byte	.LFE9
 2760 0040 00000000 		.4byte	.LFB10
 2761 0044 18000000 		.4byte	.LFE10
 2762 0048 00000000 		.4byte	.LFB12
 2763 004c 18000000 		.4byte	.LFE12
 2764 0050 00000000 		.4byte	.LFB13
 2765 0054 12000000 		.4byte	.LFE13
 2766 0058 00000000 		.4byte	0
 2767 005c 00000000 		.4byte	0
 2768              		.section	.debug_line,"",%progbits
 2769              	.Ldebug_line0:
 2770 0000 4A020000 		.section	.debug_str,"MS",%progbits,1
 2770      02008101 
 2770      00000201 
 2770      FB0E0D00 
 2770      01010101 
 2771              	.LASF45:
 2772 0000 705F6D73 		.ascii	"p_msg\000"
 2772      6700
 2773              	.LASF105:
 2774 0006 7264796D 		.ascii	"rdymsg\000"
 2774      736700
 2775              	.LASF79:
 2776 000d 46504453 		.ascii	"FPDSCR\000"
 2776      435200
 2777              	.LASF122:
 2778 0014 63665F6F 		.ascii	"cf_off_stklimit\000"
 2778      66665F73 
 2778      746B6C69 
 2778      6D697400 
 2779              	.LASF18:
 2780 0024 75696E74 		.ascii	"uint64_t\000"
 2780      36345F74 
 2780      00
 2781              	.LASF4:
ARM GAS  /tmp/ccFb4fbO.s 			page 50


 2782 002d 5F5F7569 		.ascii	"__uint8_t\000"
 2782      6E74385F 
 2782      7400
 2783              	.LASF76:
 2784 0037 434D785F 		.ascii	"CMx_SCB\000"
 2784      53434200 
 2785              	.LASF116:
 2786 003f 63685F74 		.ascii	"ch_threadsize\000"
 2786      68726561 
 2786      6473697A 
 2786      6500
 2787              	.LASF99:
 2788 004d 76746C69 		.ascii	"vtlist\000"
 2788      737400
 2789              	.LASF156:
 2790 0054 63685379 		.ascii	"chSysTimerHandlerI\000"
 2790      7354696D 
 2790      65724861 
 2790      6E646C65 
 2790      724900
 2791              	.LASF159:
 2792 0067 474E5520 		.ascii	"GNU C99 7.3.1 20180622 (release) [ARM/embedded-7-br"
 2792      43393920 
 2792      372E332E 
 2792      31203230 
 2792      31383036 
 2793 009a 616E6368 		.ascii	"anch revision 261907] -mcpu=cortex-m4 -mfloat-abi=h"
 2793      20726576 
 2793      6973696F 
 2793      6E203236 
 2793      31393037 
 2794 00cd 61726420 		.ascii	"ard -mfpu=fpv4-sp-d16 -mno-thumb-interwork -mthumb "
 2794      2D6D6670 
 2794      753D6670 
 2794      76342D73 
 2794      702D6431 
 2795 0100 2D676764 		.ascii	"-ggdb -O2 -std=gnu99 -fomit-frame-pointer -falign-f"
 2795      62202D4F 
 2795      32202D73 
 2795      74643D67 
 2795      6E753939 
 2796 0133 756E6374 		.ascii	"unctions=16 -ffunction-sections -fdata-sections -fn"
 2796      696F6E73 
 2796      3D313620 
 2796      2D666675 
 2796      6E637469 
 2797 0166 6F2D636F 		.ascii	"o-common -fsingle-precision-constant\000"
 2797      6D6D6F6E 
 2797      202D6673 
 2797      696E676C 
 2797      652D7072 
 2798              	.LASF160:
 2799 018b 43686962 		.ascii	"ChibiOS_2.6.6/os/ports/GCC/ARMCMx/chcore_v7m.c\000"
 2799      694F535F 
 2799      322E362E 
 2799      362F6F73 
 2799      2F706F72 
ARM GAS  /tmp/ccFb4fbO.s 			page 51


 2800              	.LASF149:
 2801 01ba 53797354 		.ascii	"SysTickVector\000"
 2801      69636B56 
 2801      6563746F 
 2801      7200
 2802              	.LASF13:
 2803 01c8 6C6F6E67 		.ascii	"long long unsigned int\000"
 2803      206C6F6E 
 2803      6720756E 
 2803      7369676E 
 2803      65642069 
 2804              	.LASF131:
 2805 01df 73655F74 		.ascii	"se_tp\000"
 2805      7000
 2806              	.LASF61:
 2807 01e5 43505549 		.ascii	"CPUID\000"
 2807      4400
 2808              	.LASF145:
 2809 01eb 5F706F72 		.ascii	"_port_switch\000"
 2809      745F7377 
 2809      69746368 
 2809      00
 2810              	.LASF32:
 2811 01f8 705F7072 		.ascii	"p_prio\000"
 2811      696F00
 2812              	.LASF11:
 2813 01ff 6C6F6E67 		.ascii	"long long int\000"
 2813      206C6F6E 
 2813      6720696E 
 2813      7400
 2814              	.LASF1:
 2815 020d 7369676E 		.ascii	"signed char\000"
 2815      65642063 
 2815      68617200 
 2816              	.LASF157:
 2817 0219 6462675F 		.ascii	"dbg_check_unlock_from_isr\000"
 2817      63686563 
 2817      6B5F756E 
 2817      6C6F636B 
 2817      5F66726F 
 2818              	.LASF124:
 2819 0233 63665F6F 		.ascii	"cf_off_flags\000"
 2819      66665F66 
 2819      6C616773 
 2819      00
 2820              	.LASF49:
 2821 0240 705F6D70 		.ascii	"p_mpool\000"
 2821      6F6F6C00 
 2822              	.LASF102:
 2823 0248 6D5F7175 		.ascii	"m_queue\000"
 2823      65756500 
 2824              	.LASF23:
 2825 0250 74736C69 		.ascii	"tslices_t\000"
 2825      6365735F 
 2825      7400
 2826              	.LASF8:
 2827 025a 6C6F6E67 		.ascii	"long int\000"
ARM GAS  /tmp/ccFb4fbO.s 			page 52


 2827      20696E74 
 2827      00
 2828              	.LASF21:
 2829 0263 74737461 		.ascii	"tstate_t\000"
 2829      74655F74 
 2829      00
 2830              	.LASF148:
 2831 026c 50656E64 		.ascii	"PendSVVector\000"
 2831      53565665 
 2831      63746F72 
 2831      00
 2832              	.LASF15:
 2833 0279 75696E74 		.ascii	"uint16_t\000"
 2833      31365F74 
 2833      00
 2834              	.LASF128:
 2835 0282 63686465 		.ascii	"chdebug_t\000"
 2835      6275675F 
 2835      7400
 2836              	.LASF34:
 2837 028c 705F6E65 		.ascii	"p_newer\000"
 2837      77657200 
 2838              	.LASF143:
 2839 0294 5F69646C 		.ascii	"_idle_thread_wa\000"
 2839      655F7468 
 2839      72656164 
 2839      5F776100 
 2840              	.LASF71:
 2841 02a4 42464152 		.ascii	"BFAR\000"
 2841      00
 2842              	.LASF106:
 2843 02a9 65786974 		.ascii	"exitcode\000"
 2843      636F6465 
 2843      00
 2844              	.LASF72:
 2845 02b2 41465352 		.ascii	"AFSR\000"
 2845      00
 2846              	.LASF9:
 2847 02b7 5F5F7569 		.ascii	"__uint32_t\000"
 2847      6E743332 
 2847      5F7400
 2848              	.LASF153:
 2849 02c2 6E766963 		.ascii	"nvicSetSystemHandlerPriority\000"
 2849      53657453 
 2849      79737465 
 2849      6D48616E 
 2849      646C6572 
 2850              	.LASF52:
 2851 02df 72656761 		.ascii	"regarm_t\000"
 2851      726D5F74 
 2851      00
 2852              	.LASF86:
 2853 02e8 76745F70 		.ascii	"vt_prev\000"
 2853      72657600 
 2854              	.LASF57:
 2855 02f0 72657365 		.ascii	"reserved\000"
 2855      72766564 
ARM GAS  /tmp/ccFb4fbO.s 			page 53


 2855      00
 2856              	.LASF154:
 2857 02f9 6462675F 		.ascii	"dbg_check_enter_isr\000"
 2857      63686563 
 2857      6B5F656E 
 2857      7465725F 
 2857      69737200 
 2858              	.LASF152:
 2859 030d 63685363 		.ascii	"chSchDoReschedule\000"
 2859      68446F52 
 2859      65736368 
 2859      6564756C 
 2859      6500
 2860              	.LASF130:
 2861 031f 73655F74 		.ascii	"se_time\000"
 2861      696D6500 
 2862              	.LASF28:
 2863 0327 636E745F 		.ascii	"cnt_t\000"
 2863      7400
 2864              	.LASF37:
 2865 032d 705F7374 		.ascii	"p_stklimit\000"
 2865      6B6C696D 
 2865      697400
 2866              	.LASF0:
 2867 0338 756E7369 		.ascii	"unsigned int\000"
 2867      676E6564 
 2867      20696E74 
 2867      00
 2868              	.LASF54:
 2869 0345 6C725F74 		.ascii	"lr_thd\000"
 2869      686400
 2870              	.LASF85:
 2871 034c 76745F6E 		.ascii	"vt_next\000"
 2871      65787400 
 2872              	.LASF53:
 2873 0354 65787463 		.ascii	"extctx\000"
 2873      747800
 2874              	.LASF90:
 2875 035b 76745F73 		.ascii	"vt_systime\000"
 2875      79737469 
 2875      6D6500
 2876              	.LASF120:
 2877 0366 63665F6F 		.ascii	"cf_off_older\000"
 2877      66665F6F 
 2877      6C646572 
 2877      00
 2878              	.LASF10:
 2879 0373 6C6F6E67 		.ascii	"long unsigned int\000"
 2879      20756E73 
 2879      69676E65 
 2879      6420696E 
 2879      7400
 2880              	.LASF129:
 2881 0385 63685F64 		.ascii	"ch_debug\000"
 2881      65627567 
 2881      00
 2882              	.LASF115:
ARM GAS  /tmp/ccFb4fbO.s 			page 54


 2883 038e 63685F74 		.ascii	"ch_timesize\000"
 2883      696D6573 
 2883      697A6500 
 2884              	.LASF83:
 2885 039a 76746675 		.ascii	"vtfunc_t\000"
 2885      6E635F74 
 2885      00
 2886              	.LASF63:
 2887 03a3 56544F52 		.ascii	"VTOR\000"
 2887      00
 2888              	.LASF84:
 2889 03a8 56697274 		.ascii	"VirtualTimer\000"
 2889      75616C54 
 2889      696D6572 
 2889      00
 2890              	.LASF126:
 2891 03b5 63665F6F 		.ascii	"cf_off_preempt\000"
 2891      66665F70 
 2891      7265656D 
 2891      707400
 2892              	.LASF146:
 2893 03c4 5F706F72 		.ascii	"_port_switch_from_isr\000"
 2893      745F7377 
 2893      69746368 
 2893      5F66726F 
 2893      6D5F6973 
 2894              	.LASF59:
 2895 03da 636F6E74 		.ascii	"context\000"
 2895      65787400 
 2896              	.LASF6:
 2897 03e2 73686F72 		.ascii	"short unsigned int\000"
 2897      7420756E 
 2897      7369676E 
 2897      65642069 
 2897      6E7400
 2898              	.LASF62:
 2899 03f5 49435352 		.ascii	"ICSR\000"
 2899      00
 2900              	.LASF25:
 2901 03fa 6D73675F 		.ascii	"msg_t\000"
 2901      7400
 2902              	.LASF64:
 2903 0400 41495243 		.ascii	"AIRCR\000"
 2903      5200
 2904              	.LASF69:
 2905 0406 44465352 		.ascii	"DFSR\000"
 2905      00
 2906              	.LASF95:
 2907 040b 725F6E65 		.ascii	"r_newer\000"
 2907      77657200 
 2908              	.LASF70:
 2909 0413 4D4D4641 		.ascii	"MMFAR\000"
 2909      5200
 2910              	.LASF163:
 2911 0419 5F706F72 		.ascii	"_port_irq_epilogue\000"
 2911      745F6972 
 2911      715F6570 
ARM GAS  /tmp/ccFb4fbO.s 			page 55


 2911      696C6F67 
 2911      756500
 2912              	.LASF161:
 2913 042c 2F686F6D 		.ascii	"/home/renan/BLDC/bldc-bootloader\000"
 2913      652F7265 
 2913      6E616E2F 
 2913      424C4443 
 2913      2F626C64 
 2914              	.LASF20:
 2915 044d 746D6F64 		.ascii	"tmode_t\000"
 2915      655F7400 
 2916              	.LASF140:
 2917 0455 6462675F 		.ascii	"dbg_isr_cnt\000"
 2917      6973725F 
 2917      636E7400 
 2918              	.LASF144:
 2919 0461 5F706F72 		.ascii	"_port_thread_start\000"
 2919      745F7468 
 2919      72656164 
 2919      5F737461 
 2919      727400
 2920              	.LASF51:
 2921 0474 54687265 		.ascii	"ThreadsList\000"
 2921      6164734C 
 2921      69737400 
 2922              	.LASF26:
 2923 0480 6576656E 		.ascii	"eventmask_t\000"
 2923      746D6173 
 2923      6B5F7400 
 2924              	.LASF101:
 2925 048c 4D757465 		.ascii	"Mutex\000"
 2925      7800
 2926              	.LASF162:
 2927 0492 73746B61 		.ascii	"stkalign_t\000"
 2927      6C69676E 
 2927      5F7400
 2928              	.LASF135:
 2929 049d 74625F73 		.ascii	"tb_size\000"
 2929      697A6500 
 2930              	.LASF111:
 2931 04a5 63685F7A 		.ascii	"ch_zero\000"
 2931      65726F00 
 2932              	.LASF125:
 2933 04ad 63665F6F 		.ascii	"cf_off_refs\000"
 2933      66665F72 
 2933      65667300 
 2934              	.LASF87:
 2935 04b9 76745F74 		.ascii	"vt_time\000"
 2935      696D6500 
 2936              	.LASF77:
 2937 04c1 46504343 		.ascii	"FPCCR\000"
 2937      5200
 2938              	.LASF88:
 2939 04c7 76745F66 		.ascii	"vt_func\000"
 2939      756E6300 
 2940              	.LASF151:
 2941 04cf 6462675F 		.ascii	"dbg_check_lock\000"
ARM GAS  /tmp/ccFb4fbO.s 			page 56


 2941      63686563 
 2941      6B5F6C6F 
 2941      636B00
 2942              	.LASF67:
 2943 04de 43465352 		.ascii	"CFSR\000"
 2943      00
 2944              	.LASF136:
 2945 04e3 74625F70 		.ascii	"tb_ptr\000"
 2945      747200
 2946              	.LASF134:
 2947 04ea 63685F73 		.ascii	"ch_swc_event_t\000"
 2947      77635F65 
 2947      76656E74 
 2947      5F7400
 2948              	.LASF121:
 2949 04f9 63665F6F 		.ascii	"cf_off_name\000"
 2949      66665F6E 
 2949      616D6500 
 2950              	.LASF138:
 2951 0505 63685F74 		.ascii	"ch_trace_buffer_t\000"
 2951      72616365 
 2951      5F627566 
 2951      6665725F 
 2951      7400
 2952              	.LASF35:
 2953 0517 705F6F6C 		.ascii	"p_older\000"
 2953      64657200 
 2954              	.LASF94:
 2955 051f 725F6374 		.ascii	"r_ctx\000"
 2955      7800
 2956              	.LASF50:
 2957 0525 54687265 		.ascii	"ThreadsQueue\000"
 2957      61647351 
 2957      75657565 
 2957      00
 2958              	.LASF112:
 2959 0532 63685F73 		.ascii	"ch_size\000"
 2959      697A6500 
 2960              	.LASF110:
 2961 053a 63685F69 		.ascii	"ch_identifier\000"
 2961      64656E74 
 2961      69666965 
 2961      7200
 2962              	.LASF97:
 2963 0548 725F6375 		.ascii	"r_current\000"
 2963      7272656E 
 2963      7400
 2964              	.LASF96:
 2965 0552 725F6F6C 		.ascii	"r_older\000"
 2965      64657200 
 2966              	.LASF150:
 2967 055a 6462675F 		.ascii	"dbg_check_unlock\000"
 2967      63686563 
 2967      6B5F756E 
 2967      6C6F636B 
 2967      00
 2968              	.LASF12:
ARM GAS  /tmp/ccFb4fbO.s 			page 57


 2969 056b 5F5F7569 		.ascii	"__uint64_t\000"
 2969      6E743634 
 2969      5F7400
 2970              	.LASF139:
 2971 0576 6462675F 		.ascii	"dbg_trace_buffer\000"
 2971      74726163 
 2971      655F6275 
 2971      66666572 
 2971      00
 2972              	.LASF80:
 2973 0587 4D564652 		.ascii	"MVFR0\000"
 2973      3000
 2974              	.LASF81:
 2975 058d 4D564652 		.ascii	"MVFR1\000"
 2975      3100
 2976              	.LASF22:
 2977 0593 74726566 		.ascii	"trefs_t\000"
 2977      735F7400 
 2978              	.LASF137:
 2979 059b 74625F62 		.ascii	"tb_buffer\000"
 2979      75666665 
 2979      7200
 2980              	.LASF114:
 2981 05a5 63685F70 		.ascii	"ch_ptrsize\000"
 2981      74727369 
 2981      7A6500
 2982              	.LASF164:
 2983 05b0 63747870 		.ascii	"ctxp\000"
 2983      00
 2984              	.LASF31:
 2985 05b5 705F7072 		.ascii	"p_prev\000"
 2985      657600
 2986              	.LASF24:
 2987 05bc 74707269 		.ascii	"tprio_t\000"
 2987      6F5F7400 
 2988              	.LASF19:
 2989 05c4 5F426F6F 		.ascii	"_Bool\000"
 2989      6C00
 2990              	.LASF16:
 2991 05ca 696E7433 		.ascii	"int32_t\000"
 2991      325F7400 
 2992              	.LASF2:
 2993 05d2 756E7369 		.ascii	"unsigned char\000"
 2993      676E6564 
 2993      20636861 
 2993      7200
 2994              	.LASF142:
 2995 05e0 6462675F 		.ascii	"dbg_panic_msg\000"
 2995      70616E69 
 2995      635F6D73 
 2995      6700
 2996              	.LASF66:
 2997 05ee 53484353 		.ascii	"SHCSR\000"
 2997      5200
 2998              	.LASF47:
 2999 05f4 705F6D74 		.ascii	"p_mtxlist\000"
 2999      786C6973 
ARM GAS  /tmp/ccFb4fbO.s 			page 58


 2999      7400
 3000              	.LASF3:
 3001 05fe 73686F72 		.ascii	"short int\000"
 3001      7420696E 
 3001      7400
 3002              	.LASF38:
 3003 0608 705F7374 		.ascii	"p_state\000"
 3003      61746500 
 3004              	.LASF82:
 3005 0610 434D785F 		.ascii	"CMx_FPU\000"
 3005      46505500 
 3006              	.LASF41:
 3007 0618 705F7072 		.ascii	"p_preempt\000"
 3007      65656D70 
 3007      7400
 3008              	.LASF127:
 3009 0622 63665F6F 		.ascii	"cf_off_time\000"
 3009      66665F74 
 3009      696D6500 
 3010              	.LASF55:
 3011 062e 78707372 		.ascii	"xpsr\000"
 3011      00
 3012              	.LASF93:
 3013 0633 725F7072 		.ascii	"r_prio\000"
 3013      696F00
 3014              	.LASF108:
 3015 063a 65776D61 		.ascii	"ewmask\000"
 3015      736B00
 3016              	.LASF30:
 3017 0641 705F6E65 		.ascii	"p_next\000"
 3017      787400
 3018              	.LASF56:
 3019 0648 66707363 		.ascii	"fpscr\000"
 3019      7200
 3020              	.LASF39:
 3021 064e 705F666C 		.ascii	"p_flags\000"
 3021      61677300 
 3022              	.LASF78:
 3023 0656 46504341 		.ascii	"FPCAR\000"
 3023      5200
 3024              	.LASF29:
 3025 065c 54687265 		.ascii	"Thread\000"
 3025      616400
 3026              	.LASF119:
 3027 0663 63665F6F 		.ascii	"cf_off_newer\000"
 3027      66665F6E 
 3027      65776572 
 3027      00
 3028              	.LASF46:
 3029 0670 705F6570 		.ascii	"p_epending\000"
 3029      656E6469 
 3029      6E6700
 3030              	.LASF17:
 3031 067b 75696E74 		.ascii	"uint32_t\000"
 3031      33325F74 
 3031      00
 3032              	.LASF117:
ARM GAS  /tmp/ccFb4fbO.s 			page 59


 3033 0684 63665F6F 		.ascii	"cf_off_prio\000"
 3033      66665F70 
 3033      72696F00 
 3034              	.LASF92:
 3035 0690 725F7175 		.ascii	"r_queue\000"
 3035      65756500 
 3036              	.LASF74:
 3037 0698 756E7573 		.ascii	"unused1\000"
 3037      65643100 
 3038              	.LASF109:
 3039 06a0 63686172 		.ascii	"char\000"
 3039      00
 3040              	.LASF60:
 3041 06a5 494F5245 		.ascii	"IOREG32\000"
 3041      47333200 
 3042              	.LASF5:
 3043 06ad 5F5F7569 		.ascii	"__uint16_t\000"
 3043      6E743136 
 3043      5F7400
 3044              	.LASF104:
 3045 06b8 6D5F6E65 		.ascii	"m_next\000"
 3045      787400
 3046              	.LASF27:
 3047 06bf 73797374 		.ascii	"systime_t\000"
 3047      696D655F 
 3047      7400
 3048              	.LASF48:
 3049 06c9 705F7265 		.ascii	"p_realprio\000"
 3049      616C7072 
 3049      696F00
 3050              	.LASF7:
 3051 06d4 5F5F696E 		.ascii	"__int32_t\000"
 3051      7433325F 
 3051      7400
 3052              	.LASF141:
 3053 06de 6462675F 		.ascii	"dbg_lock_cnt\000"
 3053      6C6F636B 
 3053      5F636E74 
 3053      00
 3054              	.LASF42:
 3055 06eb 705F7469 		.ascii	"p_time\000"
 3055      6D6500
 3056              	.LASF65:
 3057 06f2 53485052 		.ascii	"SHPR\000"
 3057      00
 3058              	.LASF123:
 3059 06f7 63665F6F 		.ascii	"cf_off_state\000"
 3059      66665F73 
 3059      74617465 
 3059      00
 3060              	.LASF158:
 3061 0704 6462675F 		.ascii	"dbg_check_leave_isr\000"
 3061      63686563 
 3061      6B5F6C65 
 3061      6176655F 
 3061      69737200 
 3062              	.LASF58:
ARM GAS  /tmp/ccFb4fbO.s 			page 60


 3063 0718 696E7463 		.ascii	"intctx\000"
 3063      747800
 3064              	.LASF44:
 3065 071f 705F6D73 		.ascii	"p_msgqueue\000"
 3065      67717565 
 3065      756500
 3066              	.LASF89:
 3067 072a 76745F70 		.ascii	"vt_par\000"
 3067      617200
 3068              	.LASF118:
 3069 0731 63665F6F 		.ascii	"cf_off_ctx\000"
 3069      66665F63 
 3069      747800
 3070              	.LASF40:
 3071 073c 705F7265 		.ascii	"p_refs\000"
 3071      667300
 3072              	.LASF98:
 3073 0743 52656164 		.ascii	"ReadyList\000"
 3073      794C6973 
 3073      7400
 3074              	.LASF133:
 3075 074d 73655F73 		.ascii	"se_state\000"
 3075      74617465 
 3075      00
 3076              	.LASF73:
 3077 0756 4D4D4652 		.ascii	"MMFR\000"
 3077      00
 3078              	.LASF100:
 3079 075b 726C6973 		.ascii	"rlist\000"
 3079      7400
 3080              	.LASF14:
 3081 0761 75696E74 		.ascii	"uint8_t\000"
 3081      385F7400 
 3082              	.LASF155:
 3083 0769 6462675F 		.ascii	"dbg_check_lock_from_isr\000"
 3083      63686563 
 3083      6B5F6C6F 
 3083      636B5F66 
 3083      726F6D5F 
 3084              	.LASF107:
 3085 0781 77746F62 		.ascii	"wtobjp\000"
 3085      6A7000
 3086              	.LASF147:
 3087 0788 5F706F72 		.ascii	"_port_init\000"
 3087      745F696E 
 3087      697400
 3088              	.LASF36:
 3089 0793 705F6E61 		.ascii	"p_name\000"
 3089      6D6500
 3090              	.LASF113:
 3091 079a 63685F76 		.ascii	"ch_version\000"
 3091      65727369 
 3091      6F6E00
 3092              	.LASF91:
 3093 07a5 56544C69 		.ascii	"VTList\000"
 3093      737400
 3094              	.LASF75:
ARM GAS  /tmp/ccFb4fbO.s 			page 61


 3095 07ac 43504143 		.ascii	"CPACR\000"
 3095      5200
 3096              	.LASF68:
 3097 07b2 48465352 		.ascii	"HFSR\000"
 3097      00
 3098              	.LASF103:
 3099 07b7 6D5F6F77 		.ascii	"m_owner\000"
 3099      6E657200 
 3100              	.LASF132:
 3101 07bf 73655F77 		.ascii	"se_wtobjp\000"
 3101      746F626A 
 3101      7000
 3102              	.LASF33:
 3103 07c9 705F6374 		.ascii	"p_ctx\000"
 3103      7800
 3104              	.LASF43:
 3105 07cf 705F7761 		.ascii	"p_waiting\000"
 3105      6974696E 
 3105      6700
 3106              		.ident	"GCC: (GNU Tools for Arm Embedded Processors 7-2018-q3-update) 7.3.1 20180622 (release) [AR
ARM GAS  /tmp/ccFb4fbO.s 			page 62


DEFINED SYMBOLS
                            *ABS*:0000000000000000 chcore_v7m.c
     /tmp/ccFb4fbO.s:18     .text._port_switch_from_isr:0000000000000000 $t
     /tmp/ccFb4fbO.s:26     .text._port_switch_from_isr:0000000000000000 _port_switch_from_isr
     /tmp/ccFb4fbO.s:47     .text._port_switch_from_isr:000000000000000c _port_exit_from_isr
     /tmp/ccFb4fbO.s:67     .text._port_switch_from_isr:0000000000000018 $d
     /tmp/ccFb4fbO.s:72     .text._port_irq_epilogue.part.0:0000000000000000 $t
     /tmp/ccFb4fbO.s:79     .text._port_irq_epilogue.part.0:0000000000000000 _port_irq_epilogue.part.0
     /tmp/ccFb4fbO.s:158    .text._port_irq_epilogue.part.0:000000000000005c $d
     /tmp/ccFb4fbO.s:166    .text.SysTickVector:0000000000000000 $t
     /tmp/ccFb4fbO.s:174    .text.SysTickVector:0000000000000000 SysTickVector
     /tmp/ccFb4fbO.s:248    .text.SysTickVector:0000000000000030 $d
     /tmp/ccFb4fbO.s:255    .text.PendSVVector:0000000000000000 $t
     /tmp/ccFb4fbO.s:263    .text.PendSVVector:0000000000000000 PendSVVector
     /tmp/ccFb4fbO.s:298    .text.PendSVVector:0000000000000018 $d
     /tmp/ccFb4fbO.s:303    .text._port_init:0000000000000000 $t
     /tmp/ccFb4fbO.s:311    .text._port_init:0000000000000000 _port_init
     /tmp/ccFb4fbO.s:355    .text._port_init:0000000000000028 $d
     /tmp/ccFb4fbO.s:361    .text._port_irq_epilogue:0000000000000000 $t
     /tmp/ccFb4fbO.s:369    .text._port_irq_epilogue:0000000000000000 _port_irq_epilogue
     /tmp/ccFb4fbO.s:403    .text._port_irq_epilogue:0000000000000014 $d
     /tmp/ccFb4fbO.s:408    .text._port_switch:0000000000000000 $t
     /tmp/ccFb4fbO.s:416    .text._port_switch:0000000000000000 _port_switch
     /tmp/ccFb4fbO.s:453    .text._port_thread_start:0000000000000000 $t
     /tmp/ccFb4fbO.s:461    .text._port_thread_start:0000000000000000 _port_thread_start

UNDEFINED SYMBOLS
dbg_check_lock
chSchDoReschedule
dbg_check_unlock
rlist
dbg_check_enter_isr
dbg_check_lock_from_isr
chSysTimerHandlerI
dbg_check_unlock_from_isr
dbg_check_leave_isr
nvicSetSystemHandlerPriority
chThdExit
