ARM GAS  /tmp/ccFb4fbO.s 			page 1


   1              		.cpu cortex-m4
   2              		.eabi_attribute 27, 1
   3              		.eabi_attribute 28, 1
   4              		.eabi_attribute 20, 1
   5              		.eabi_attribute 21, 1
   6              		.eabi_attribute 23, 3
   7              		.eabi_attribute 24, 1
   8              		.eabi_attribute 25, 1
   9              		.eabi_attribute 26, 1
  10              		.eabi_attribute 30, 2
  11              		.eabi_attribute 34, 1
  12              		.eabi_attribute 18, 4
  13              		.file	"chcore_v7m.c"
  14              		.text
  15              	.Ltext0:
  16              		.cfi_sections	.debug_frame
  17              		.section	.text._port_switch_from_isr,"ax",%progbits
  18              		.align	1
  19              		.p2align 4,,15
  20              		.global	_port_switch_from_isr
  21              		.syntax unified
  22              		.thumb
  23              		.thumb_func
  24              		.fpu fpv4-sp-d16
  25              		.type	_port_switch_from_isr, %function
  26              	_port_switch_from_isr:
  27              	.LFB11:
  28              		.file 1 "ChibiOS_2.6.6/os/ports/GCC/ARMCMx/chcore_v7m.c"
  29              		.loc 1 200 0
  30              		.cfi_startproc
  31              		@ Naked Function: prologue and epilogue provided by programmer.
  32              		@ Volatile: function does not return.
  33              		@ args = 0, pretend = 0, frame = 0
  34              		@ frame_needed = 0, uses_anonymous_args = 0
  35              		.loc 1 202 0
  36 0000 FFF7FEFF 		bl	dbg_check_lock
  37              	.LVL0:
  38              		.loc 1 203 0
  39 0004 FFF7FEFF 		bl	chSchDoReschedule
  40              	.LVL1:
  41              		.loc 1 204 0
  42 0008 FFF7FEFF 		bl	dbg_check_unlock
  43              	.LVL2:
  44              		.loc 1 205 0
  45              		.syntax unified
  46              	@ 205 "ChibiOS_2.6.6/os/ports/GCC/ARMCMx/chcore_v7m.c" 1
  47              		_port_exit_from_isr:
  48              	@ 0 "" 2
  49              		.loc 1 209 0
  50              		.thumb
  51              		.syntax unified
  52 000c 024B     		ldr	r3, .L4
  53 000e 4FF08052 		mov	r2, #268435456
  54 0012 5A60     		str	r2, [r3, #4]
  55              		.loc 1 210 0
  56              		.syntax unified
  57              	@ 210 "ChibiOS_2.6.6/os/ports/GCC/ARMCMx/chcore_v7m.c" 1
ARM GAS  /tmp/ccFb4fbO.s 			page 2


  58 0014 62B6     		cpsie   i
  59              	@ 0 "" 2
  60              		.thumb
  61              		.syntax unified
  62              	.L2:
  63 0016 FEE7     		b	.L2
  64              	.L5:
  65              		.align	2
  66              	.L4:
  67 0018 00ED00E0 		.word	-536810240
  68              		.cfi_endproc
  69              	.LFE11:
  70              		.size	_port_switch_from_isr, .-_port_switch_from_isr
  71              		.section	.text._port_irq_epilogue.part.0,"ax",%progbits
  72              		.align	1
  73              		.p2align 4,,15
  74              		.syntax unified
  75              		.thumb
  76              		.thumb_func
  77              		.fpu fpv4-sp-d16
  78              		.type	_port_irq_epilogue.part.0, %function
  79              	_port_irq_epilogue.part.0:
  80              	.LFB14:
  81              		.loc 1 150 0
  82              		.cfi_startproc
  83              		@ args = 0, pretend = 0, frame = 0
  84              		@ frame_needed = 0, uses_anonymous_args = 0
  85              		@ link register save eliminated.
  86              	.LBB5:
  87              		.loc 1 159 0
  88              		.syntax unified
  89              	@ 159 "ChibiOS_2.6.6/os/ports/GCC/ARMCMx/chcore_v7m.c" 1
  90 0000 F1EE10FA 		vmrs    APSR_nzcv, FPSCR
  91              	@ 0 "" 2
  92              		.loc 1 163 0
  93              	@ 163 "ChibiOS_2.6.6/os/ports/GCC/ARMCMx/chcore_v7m.c" 1
  94 0004 EFF30983 		mrs     r3, PSP
  95              	@ 0 "" 2
  96              	.LVL3:
  97              		.loc 1 170 0
  98              		.thumb
  99              		.syntax unified
 100 0008 144A     		ldr	r2, .L12
 101              		.loc 1 168 0
 102 000a 4FF08071 		mov	r1, #16777216
 103              		.loc 1 170 0
 104 000e D268     		ldr	r2, [r2, #12]
 105 0010 43F8082C 		str	r2, [r3, #-8]
 106              		.loc 1 168 0
 107 0014 43F84C1C 		str	r1, [r3, #-76]
 108              		.loc 1 167 0
 109 0018 A3F16802 		sub	r2, r3, #104
 110              	.LVL4:
 111              		.loc 1 172 0
 112              		.syntax unified
 113              	@ 172 "ChibiOS_2.6.6/os/ports/GCC/ARMCMx/chcore_v7m.c" 1
 114 001c 82F30988 		msr     PSP, r2
ARM GAS  /tmp/ccFb4fbO.s 			page 3


 115              	@ 0 "" 2
 116              		.loc 1 176 0
 117              		.thumb
 118              		.syntax unified
 119 0020 0F49     		ldr	r1, .L12+4
 120 0022 8A69     		ldr	r2, [r1, #24]
 121              	.LVL5:
 122 0024 92F82300 		ldrb	r0, [r2, #35]	@ zero_extendqisi2
 123 0028 58B1     		cbz	r0, .L7
 124 002a 0868     		ldr	r0, [r1]
 125 002c 9168     		ldr	r1, [r2, #8]
 126 002e 8268     		ldr	r2, [r0, #8]
 127 0030 8A42     		cmp	r2, r1
 128 0032 94BF     		ite	ls
 129 0034 0022     		movls	r2, #0
 130 0036 0122     		movhi	r2, #1
 131 0038 62B1     		cbz	r2, .L9
 132              	.L11:
 133              		.loc 1 178 0
 134 003a 0A4A     		ldr	r2, .L12+8
 135 003c 43F8502C 		str	r2, [r3, #-80]
 136 0040 7047     		bx	lr
 137              	.L7:
 138              		.loc 1 176 0
 139 0042 0868     		ldr	r0, [r1]
 140 0044 9168     		ldr	r1, [r2, #8]
 141 0046 8268     		ldr	r2, [r0, #8]
 142 0048 8A42     		cmp	r2, r1
 143 004a 34BF     		ite	cc
 144 004c 0022     		movcc	r2, #0
 145 004e 0122     		movcs	r2, #1
 146 0050 002A     		cmp	r2, #0
 147 0052 F2D1     		bne	.L11
 148              	.L9:
 149              		.loc 1 183 0
 150 0054 044A     		ldr	r2, .L12+12
 151 0056 43F8502C 		str	r2, [r3, #-80]
 152              	.LBE5:
 153              		.loc 1 191 0
 154 005a 7047     		bx	lr
 155              	.L13:
 156              		.align	2
 157              	.L12:
 158 005c 30EF00E0 		.word	-536809680
 159 0060 00000000 		.word	rlist
 160 0064 00000000 		.word	_port_switch_from_isr
 161 0068 0C000000 		.word	_port_exit_from_isr
 162              		.cfi_endproc
 163              	.LFE14:
 164              		.size	_port_irq_epilogue.part.0, .-_port_irq_epilogue.part.0
 165              		.section	.text.SysTickVector,"ax",%progbits
 166              		.align	1
 167              		.p2align 4,,15
 168              		.global	SysTickVector
 169              		.syntax unified
 170              		.thumb
 171              		.thumb_func
ARM GAS  /tmp/ccFb4fbO.s 			page 4


 172              		.fpu fpv4-sp-d16
 173              		.type	SysTickVector, %function
 174              	SysTickVector:
 175              	.LFB7:
 176              		.loc 1 47 0
 177              		.cfi_startproc
 178              		@ args = 0, pretend = 0, frame = 0
 179              		@ frame_needed = 0, uses_anonymous_args = 0
 180 0000 08B5     		push	{r3, lr}
 181              		.cfi_def_cfa_offset 8
 182              		.cfi_offset 3, -8
 183              		.cfi_offset 14, -4
 184              		.loc 1 49 0
 185 0002 FFF7FEFF 		bl	dbg_check_enter_isr
 186              	.LVL6:
 187              		.loc 1 51 0
 188              		.syntax unified
 189              	@ 51 "ChibiOS_2.6.6/os/ports/GCC/ARMCMx/chcore_v7m.c" 1
 190 0006 72B6     		cpsid   i
 191              	@ 0 "" 2
 192              		.thumb
 193              		.syntax unified
 194 0008 FFF7FEFF 		bl	dbg_check_lock_from_isr
 195              	.LVL7:
 196              		.loc 1 52 0
 197 000c FFF7FEFF 		bl	chSysTimerHandlerI
 198              	.LVL8:
 199              		.loc 1 53 0
 200 0010 FFF7FEFF 		bl	dbg_check_unlock_from_isr
 201              	.LVL9:
 202              		.syntax unified
 203              	@ 53 "ChibiOS_2.6.6/os/ports/GCC/ARMCMx/chcore_v7m.c" 1
 204 0014 62B6     		cpsie   i
 205              	@ 0 "" 2
 206              		.loc 1 55 0
 207              		.thumb
 208              		.syntax unified
 209 0016 FFF7FEFF 		bl	dbg_check_leave_isr
 210              	.LVL10:
 211              	.LBB6:
 212              	.LBB7:
 213              		.loc 1 152 0
 214              		.syntax unified
 215              	@ 152 "ChibiOS_2.6.6/os/ports/GCC/ARMCMx/chcore_v7m.c" 1
 216 001a 72B6     		cpsid   i
 217              	@ 0 "" 2
 218              		.loc 1 153 0
 219              		.thumb
 220              		.syntax unified
 221 001c 044B     		ldr	r3, .L18
 222 001e 5B68     		ldr	r3, [r3, #4]
 223 0020 1B05     		lsls	r3, r3, #20
 224 0022 01D4     		bmi	.L17
 225              		.loc 1 190 0
 226              		.syntax unified
 227              	@ 190 "ChibiOS_2.6.6/os/ports/GCC/ARMCMx/chcore_v7m.c" 1
 228 0024 62B6     		cpsie   i
ARM GAS  /tmp/ccFb4fbO.s 			page 5


 229              	@ 0 "" 2
 230              		.thumb
 231              		.syntax unified
 232              	.LBE7:
 233              	.LBE6:
 234              		.loc 1 56 0
 235 0026 08BD     		pop	{r3, pc}
 236              	.L17:
 237 0028 BDE80840 		pop	{r3, lr}
 238              		.cfi_restore 14
 239              		.cfi_restore 3
 240              		.cfi_def_cfa_offset 0
 241              	.LBB9:
 242              	.LBB8:
 243 002c FFF7FEBF 		b	_port_irq_epilogue.part.0
 244              	.LVL11:
 245              	.L19:
 246              		.align	2
 247              	.L18:
 248 0030 00ED00E0 		.word	-536810240
 249              	.LBE8:
 250              	.LBE9:
 251              		.cfi_endproc
 252              	.LFE7:
 253              		.size	SysTickVector, .-SysTickVector
 254              		.section	.text.PendSVVector,"ax",%progbits
 255              		.align	1
 256              		.p2align 4,,15
 257              		.global	PendSVVector
 258              		.syntax unified
 259              		.thumb
 260              		.thumb_func
 261              		.fpu fpv4-sp-d16
 262              		.type	PendSVVector, %function
 263              	PendSVVector:
 264              	.LFB8:
 265              		.loc 1 93 0
 266              		.cfi_startproc
 267              		@ args = 0, pretend = 0, frame = 0
 268              		@ frame_needed = 0, uses_anonymous_args = 0
 269              		@ link register save eliminated.
 270              		.loc 1 98 0
 271 0000 054A     		ldr	r2, .L21
 272 0002 5368     		ldr	r3, [r2, #4]
 273 0004 23F00103 		bic	r3, r3, #1
 274 0008 5360     		str	r3, [r2, #4]
 275              		.loc 1 102 0
 276              		.syntax unified
 277              	@ 102 "ChibiOS_2.6.6/os/ports/GCC/ARMCMx/chcore_v7m.c" 1
 278 000a EFF30983 		mrs     r3, PSP
 279              	@ 0 "" 2
 280              	.LVL12:
 281              		.loc 1 106 0
 282              		.thumb
 283              		.syntax unified
 284 000e 6833     		adds	r3, r3, #104
 285              	.LVL13:
ARM GAS  /tmp/ccFb4fbO.s 			page 6


 286              		.loc 1 109 0
 287              		.syntax unified
 288              	@ 109 "ChibiOS_2.6.6/os/ports/GCC/ARMCMx/chcore_v7m.c" 1
 289 0010 83F30988 		msr     PSP, r3
 290              	@ 0 "" 2
 291              		.loc 1 110 0
 292              		.thumb
 293              		.syntax unified
 294 0014 7047     		bx	lr
 295              	.L22:
 296 0016 00BF     		.align	2
 297              	.L21:
 298 0018 30EF00E0 		.word	-536809680
 299              		.cfi_endproc
 300              	.LFE8:
 301              		.size	PendSVVector, .-PendSVVector
 302              		.section	.text._port_init,"ax",%progbits
 303              		.align	1
 304              		.p2align 4,,15
 305              		.global	_port_init
 306              		.syntax unified
 307              		.thumb
 308              		.thumb_func
 309              		.fpu fpv4-sp-d16
 310              		.type	_port_init, %function
 311              	_port_init:
 312              	.LFB9:
 313              		.loc 1 120 0
 314              		.cfi_startproc
 315              		@ args = 0, pretend = 0, frame = 0
 316              		@ frame_needed = 0, uses_anonymous_args = 0
 317 0000 08B5     		push	{r3, lr}
 318              		.cfi_def_cfa_offset 8
 319              		.cfi_offset 3, -8
 320              		.cfi_offset 14, -4
 321              		.loc 1 123 0
 322 0002 094B     		ldr	r3, .L25
 323              		.loc 1 124 0
 324 0004 094A     		ldr	r2, .L25+4
 325              		.loc 1 123 0
 326 0006 0021     		movs	r1, #0
 327 0008 9960     		str	r1, [r3, #8]
 328              		.loc 1 127 0
 329 000a 0720     		movs	r0, #7
 330              		.loc 1 124 0
 331 000c DA60     		str	r2, [r3, #12]
 332              		.loc 1 127 0
 333 000e 1021     		movs	r1, #16
 334 0010 FFF7FEFF 		bl	nvicSetSystemHandlerPriority
 335              	.LVL14:
 336              		.loc 1 129 0
 337 0014 1021     		movs	r1, #16
 338 0016 0A20     		movs	r0, #10
 339 0018 FFF7FEFF 		bl	nvicSetSystemHandlerPriority
 340              	.LVL15:
 341              		.loc 1 131 0
 342 001c 8021     		movs	r1, #128
ARM GAS  /tmp/ccFb4fbO.s 			page 7


 343 001e 0B20     		movs	r0, #11
 344              		.loc 1 133 0
 345 0020 BDE80840 		pop	{r3, lr}
 346              		.cfi_restore 14
 347              		.cfi_restore 3
 348              		.cfi_def_cfa_offset 0
 349              		.loc 1 131 0
 350 0024 FFF7FEBF 		b	nvicSetSystemHandlerPriority
 351              	.LVL16:
 352              	.L26:
 353              		.align	2
 354              	.L25:
 355 0028 00ED00E0 		.word	-536810240
 356 002c 0003FA05 		.word	100270848
 357              		.cfi_endproc
 358              	.LFE9:
 359              		.size	_port_init, .-_port_init
 360              		.section	.text._port_irq_epilogue,"ax",%progbits
 361              		.align	1
 362              		.p2align 4,,15
 363              		.global	_port_irq_epilogue
 364              		.syntax unified
 365              		.thumb
 366              		.thumb_func
 367              		.fpu fpv4-sp-d16
 368              		.type	_port_irq_epilogue, %function
 369              	_port_irq_epilogue:
 370              	.LFB10:
 371              		.loc 1 150 0
 372              		.cfi_startproc
 373              		@ args = 0, pretend = 0, frame = 0
 374              		@ frame_needed = 0, uses_anonymous_args = 0
 375              		@ link register save eliminated.
 376              		.loc 1 152 0
 377              		.syntax unified
 378              	@ 152 "ChibiOS_2.6.6/os/ports/GCC/ARMCMx/chcore_v7m.c" 1
 379 0000 72B6     		cpsid   i
 380              	@ 0 "" 2
 381              		.loc 1 153 0
 382              		.thumb
 383              		.syntax unified
 384 0002 044B     		ldr	r3, .L29
 385 0004 5B68     		ldr	r3, [r3, #4]
 386 0006 1B05     		lsls	r3, r3, #20
 387 0008 01D5     		bpl	.L28
 388 000a FFF7FEBF 		b	_port_irq_epilogue.part.0
 389              	.LVL17:
 390              	.L28:
 391              		.loc 1 190 0
 392              		.syntax unified
 393              	@ 190 "ChibiOS_2.6.6/os/ports/GCC/ARMCMx/chcore_v7m.c" 1
 394 000e 62B6     		cpsie   i
 395              	@ 0 "" 2
 396              		.loc 1 191 0
 397              		.thumb
 398              		.syntax unified
 399 0010 7047     		bx	lr
ARM GAS  /tmp/ccFb4fbO.s 			page 8


 400              	.L30:
 401 0012 00BF     		.align	2
 402              	.L29:
 403 0014 00ED00E0 		.word	-536810240
 404              		.cfi_endproc
 405              	.LFE10:
 406              		.size	_port_irq_epilogue, .-_port_irq_epilogue
 407              		.section	.text._port_switch,"ax",%progbits
 408              		.align	1
 409              		.p2align 4,,15
 410              		.global	_port_switch
 411              		.syntax unified
 412              		.thumb
 413              		.thumb_func
 414              		.fpu fpv4-sp-d16
 415              		.type	_port_switch, %function
 416              	_port_switch:
 417              	.LFB12:
 418              		.loc 1 229 0
 419              		.cfi_startproc
 420              		@ Naked Function: prologue and epilogue provided by programmer.
 421              		@ args = 0, pretend = 0, frame = 0
 422              		@ frame_needed = 0, uses_anonymous_args = 0
 423              	.LVL18:
 424              		.loc 1 231 0
 425              		.syntax unified
 426              	@ 231 "ChibiOS_2.6.6/os/ports/GCC/ARMCMx/chcore_v7m.c" 1
 427 0000 2DE9F04F 		push    {r4, r5, r6, r7, r8, r9, r10, r11, lr}
 428              	@ 0 "" 2
 429              		.loc 1 234 0
 430              	@ 234 "ChibiOS_2.6.6/os/ports/GCC/ARMCMx/chcore_v7m.c" 1
 431 0004 2DED108A 		vpush   {s16-s31}
 432              	@ 0 "" 2
 433              		.loc 1 237 0
 434              	@ 237 "ChibiOS_2.6.6/os/ports/GCC/ARMCMx/chcore_v7m.c" 1
 435 0008 C1F80CD0 		str     sp, [r1, #12]                          
 436 000c D0F80CD0 		ldr     sp, [r0, #12]
 437              	@ 0 "" 2
 438              		.loc 1 241 0
 439              	@ 241 "ChibiOS_2.6.6/os/ports/GCC/ARMCMx/chcore_v7m.c" 1
 440 0010 BDEC108A 		vpop    {s16-s31}
 441              	@ 0 "" 2
 442              		.loc 1 243 0
 443              	@ 243 "ChibiOS_2.6.6/os/ports/GCC/ARMCMx/chcore_v7m.c" 1
 444 0014 BDE8F08F 		pop     {r4, r5, r6, r7, r8, r9, r10, r11, pc}
 445              	@ 0 "" 2
 446              		.loc 1 245 0
 447              		.thumb
 448              		.syntax unified
 449              		.cfi_endproc
 450              	.LFE12:
 451              		.size	_port_switch, .-_port_switch
 452              		.section	.text._port_thread_start,"ax",%progbits
 453              		.align	1
 454              		.p2align 4,,15
 455              		.global	_port_thread_start
 456              		.syntax unified
ARM GAS  /tmp/ccFb4fbO.s 			page 9


 457              		.thumb
 458              		.thumb_func
 459              		.fpu fpv4-sp-d16
 460              		.type	_port_thread_start, %function
 461              	_port_thread_start:
 462              	.LFB13:
 463              		.loc 1 252 0
 464              		.cfi_startproc
 465              		@ args = 0, pretend = 0, frame = 0
 466              		@ frame_needed = 0, uses_anonymous_args = 0
 467 0000 08B5     		push	{r3, lr}
 468              		.cfi_def_cfa_offset 8
 469              		.cfi_offset 3, -8
 470              		.cfi_offset 14, -4
 471              		.loc 1 254 0
 472 0002 FFF7FEFF 		bl	dbg_check_unlock
 473              	.LVL19:
 474              		.syntax unified
 475              	@ 254 "ChibiOS_2.6.6/os/ports/GCC/ARMCMx/chcore_v7m.c" 1
 476 0006 62B6     		cpsie   i
 477              	@ 0 "" 2
 478              		.loc 1 255 0
 479              	@ 255 "ChibiOS_2.6.6/os/ports/GCC/ARMCMx/chcore_v7m.c" 1
 480 0008 2846     		mov     r0, r5                                 
 481 000a A047     		blx     r4                                     
 482 000c FFF7FEFF 		bl      chThdExit
 483              	@ 0 "" 2
 484              		.loc 1 258 0
 485              		.thumb
 486              		.syntax unified
 487 0010 08BD     		pop	{r3, pc}
 488              		.cfi_endproc
 489              	.LFE13:
 490              		.size	_port_thread_start, .-_port_thread_start
 491 0012 00BF     		.text
 492              	.Letext0:
 493              		.file 2 "/usr/arm-none-eabi/include/machine/_default_types.h"
 494              		.file 3 "/usr/arm-none-eabi/include/sys/_stdint.h"
 495              		.file 4 "ChibiOS_2.6.6/os/ports/GCC/ARMCMx/chtypes.h"
 496              		.file 5 "ChibiOS_2.6.6/os/kernel/include/chlists.h"
 497              		.file 6 "ChibiOS_2.6.6/os/kernel/include/chthreads.h"
 498              		.file 7 "ChibiOS_2.6.6/os/ports/GCC/ARMCMx/chcore_v7m.h"
 499              		.file 8 "ChibiOS_2.6.6/os/ports/common/ARMCMx/nvic.h"
 500              		.file 9 "ChibiOS_2.6.6/os/kernel/include/chvt.h"
 501              		.file 10 "ChibiOS_2.6.6/os/kernel/include/chschd.h"
 502              		.file 11 "ChibiOS_2.6.6/os/kernel/include/chmtx.h"
 503              		.file 12 "ChibiOS_2.6.6/os/kernel/include/chregistry.h"
 504              		.file 13 "ChibiOS_2.6.6/os/kernel/include/chdebug.h"
 505              		.file 14 "ChibiOS_2.6.6/os/kernel/include/ch.h"
 506              		.file 15 "ChibiOS_2.6.6/os/kernel/include/chsys.h"