ARM GAS  /tmp/ccQGuPHp.s 			page 1


   1              		.cpu cortex-m4
   2              		.eabi_attribute 27, 1
   3              		.eabi_attribute 28, 1
   4              		.eabi_attribute 20, 1
   5              		.eabi_attribute 21, 1
   6              		.eabi_attribute 23, 3
   7              		.eabi_attribute 24, 1
   8              		.eabi_attribute 25, 1
   9              		.eabi_attribute 26, 1
  10              		.eabi_attribute 30, 2
  11              		.eabi_attribute 34, 1
  12              		.eabi_attribute 18, 4
  13              		.file	"chcond.c"
  14              		.text
  15              	.Ltext0:
  16              		.cfi_sections	.debug_frame
  17              		.section	.text.chCondInit,"ax",%progbits
  18              		.align	1
  19              		.p2align 4,,15
  20              		.global	chCondInit
  21              		.syntax unified
  22              		.thumb
  23              		.thumb_func
  24              		.fpu fpv4-sp-d16
  25              		.type	chCondInit, %function
  26              	chCondInit:
  27              	.LFB7:
  28              		.file 1 "ChibiOS_2.6.6/os/kernel/src/chcond.c"
  29              		.loc 1 59 0
  30              		.cfi_startproc
  31              		@ args = 0, pretend = 0, frame = 0
  32              		@ frame_needed = 0, uses_anonymous_args = 0
  33              	.LVL0:
  34 0000 10B5     		push	{r4, lr}
  35              		.cfi_def_cfa_offset 8
  36              		.cfi_offset 4, -8
  37              		.cfi_offset 14, -4
  38              		.loc 1 61 0
  39 0002 0446     		mov	r4, r0
  40 0004 10B1     		cbz	r0, .L5
  41              		.loc 1 63 0
  42 0006 C4E90044 		strd	r4, r4, [r4]
  43              		.loc 1 64 0
  44 000a 10BD     		pop	{r4, pc}
  45              	.L5:
  46              		.loc 1 61 0 discriminator 1
  47 000c 0248     		ldr	r0, .L6
  48              	.LVL1:
  49 000e FFF7FEFF 		bl	chDbgPanic
  50              	.LVL2:
  51              		.loc 1 63 0 discriminator 1
  52 0012 C4E90044 		strd	r4, r4, [r4]
  53              		.loc 1 64 0 discriminator 1
  54 0016 10BD     		pop	{r4, pc}
  55              	.LVL3:
  56              	.L7:
  57              		.align	2
ARM GAS  /tmp/ccQGuPHp.s 			page 2


  58              	.L6:
  59 0018 00000000 		.word	.LC0
  60              		.cfi_endproc
  61              	.LFE7:
  62              		.size	chCondInit, .-chCondInit
  63              		.section	.text.chCondSignal,"ax",%progbits
  64              		.align	1
  65              		.p2align 4,,15
  66              		.global	chCondSignal
  67              		.syntax unified
  68              		.thumb
  69              		.thumb_func
  70              		.fpu fpv4-sp-d16
  71              		.type	chCondSignal, %function
  72              	chCondSignal:
  73              	.LFB8:
  74              		.loc 1 73 0
  75              		.cfi_startproc
  76              		@ args = 0, pretend = 0, frame = 0
  77              		@ frame_needed = 0, uses_anonymous_args = 0
  78              	.LVL4:
  79 0000 10B5     		push	{r4, lr}
  80              		.cfi_def_cfa_offset 8
  81              		.cfi_offset 4, -8
  82              		.cfi_offset 14, -4
  83              		.loc 1 75 0
  84 0002 0446     		mov	r4, r0
  85 0004 78B1     		cbz	r0, .L12
  86              	.LVL5:
  87              	.L9:
  88              		.loc 1 77 0
  89              		.syntax unified
  90              	@ 77 "ChibiOS_2.6.6/os/kernel/src/chcond.c" 1
  91 0006 72B6     		cpsid   i
  92              	@ 0 "" 2
  93              		.thumb
  94              		.syntax unified
  95 0008 FFF7FEFF 		bl	dbg_check_lock
  96              	.LVL6:
  97              		.loc 1 78 0
  98 000c 2068     		ldr	r0, [r4]
  99 000e A042     		cmp	r0, r4
 100 0010 05D0     		beq	.L10
 101              	.LVL7:
 102              	.LBB12:
 103              	.LBB13:
 104              		.file 2 "ChibiOS_2.6.6/os/kernel/include/chinline.h"
 105              		.loc 2 62 0
 106 0012 0368     		ldr	r3, [r0]
 107 0014 2360     		str	r3, [r4]
 108              	.LBE13:
 109              	.LBE12:
 110              		.loc 1 79 0
 111 0016 0021     		movs	r1, #0
 112              	.LBB15:
 113              	.LBB14:
 114              		.loc 2 62 0
ARM GAS  /tmp/ccQGuPHp.s 			page 3


 115 0018 5C60     		str	r4, [r3, #4]
 116              	.LVL8:
 117              	.LBE14:
 118              	.LBE15:
 119              		.loc 1 79 0
 120 001a FFF7FEFF 		bl	chSchWakeupS
 121              	.LVL9:
 122              	.L10:
 123              		.loc 1 80 0
 124 001e FFF7FEFF 		bl	dbg_check_unlock
 125              	.LVL10:
 126              		.syntax unified
 127              	@ 80 "ChibiOS_2.6.6/os/kernel/src/chcond.c" 1
 128 0022 62B6     		cpsie   i
 129              	@ 0 "" 2
 130              		.loc 1 81 0
 131              		.thumb
 132              		.syntax unified
 133 0024 10BD     		pop	{r4, pc}
 134              	.LVL11:
 135              	.L12:
 136              		.loc 1 75 0 discriminator 1
 137 0026 0248     		ldr	r0, .L13
 138              	.LVL12:
 139 0028 FFF7FEFF 		bl	chDbgPanic
 140              	.LVL13:
 141 002c EBE7     		b	.L9
 142              	.L14:
 143 002e 00BF     		.align	2
 144              	.L13:
 145 0030 00000000 		.word	.LC1
 146              		.cfi_endproc
 147              	.LFE8:
 148              		.size	chCondSignal, .-chCondSignal
 149              		.section	.text.chCondSignalI,"ax",%progbits
 150              		.align	1
 151              		.p2align 4,,15
 152              		.global	chCondSignalI
 153              		.syntax unified
 154              		.thumb
 155              		.thumb_func
 156              		.fpu fpv4-sp-d16
 157              		.type	chCondSignalI, %function
 158              	chCondSignalI:
 159              	.LFB9:
 160              		.loc 1 94 0
 161              		.cfi_startproc
 162              		@ args = 0, pretend = 0, frame = 0
 163              		@ frame_needed = 0, uses_anonymous_args = 0
 164              	.LVL14:
 165 0000 10B5     		push	{r4, lr}
 166              		.cfi_def_cfa_offset 8
 167              		.cfi_offset 4, -8
 168              		.cfi_offset 14, -4
 169              		.loc 1 94 0
 170 0002 0446     		mov	r4, r0
 171              		.loc 1 96 0
ARM GAS  /tmp/ccQGuPHp.s 			page 4


 172 0004 FFF7FEFF 		bl	chDbgCheckClassI
 173              	.LVL15:
 174              		.loc 1 97 0
 175 0008 54B1     		cbz	r4, .L19
 176              	.L16:
 177              		.loc 1 99 0
 178 000a 2068     		ldr	r0, [r4]
 179 000c A042     		cmp	r0, r4
 180 000e 06D0     		beq	.L15
 181              	.LVL16:
 182              	.LBB16:
 183              	.LBB17:
 184              		.loc 2 62 0
 185 0010 0368     		ldr	r3, [r0]
 186 0012 2360     		str	r3, [r4]
 187 0014 5C60     		str	r4, [r3, #4]
 188              	.LVL17:
 189              	.LBE17:
 190              	.LBE16:
 191              		.loc 1 100 0
 192 0016 FFF7FEFF 		bl	chSchReadyI
 193              	.LVL18:
 194 001a 0023     		movs	r3, #0
 195 001c 8362     		str	r3, [r0, #40]
 196              	.L15:
 197              		.loc 1 101 0
 198 001e 10BD     		pop	{r4, pc}
 199              	.LVL19:
 200              	.L19:
 201              		.loc 1 97 0 discriminator 1
 202 0020 0148     		ldr	r0, .L20
 203 0022 FFF7FEFF 		bl	chDbgPanic
 204              	.LVL20:
 205 0026 F0E7     		b	.L16
 206              	.L21:
 207              		.align	2
 208              	.L20:
 209 0028 00000000 		.word	.LC2
 210              		.cfi_endproc
 211              	.LFE9:
 212              		.size	chCondSignalI, .-chCondSignalI
 213              		.section	.text.chCondBroadcastI,"ax",%progbits
 214              		.align	1
 215              		.p2align 4,,15
 216              		.global	chCondBroadcastI
 217              		.syntax unified
 218              		.thumb
 219              		.thumb_func
 220              		.fpu fpv4-sp-d16
 221              		.type	chCondBroadcastI, %function
 222              	chCondBroadcastI:
 223              	.LFB11:
 224              		.loc 1 129 0
 225              		.cfi_startproc
 226              		@ args = 0, pretend = 0, frame = 0
 227              		@ frame_needed = 0, uses_anonymous_args = 0
 228              	.LVL21:
ARM GAS  /tmp/ccQGuPHp.s 			page 5


 229 0000 38B5     		push	{r3, r4, r5, lr}
 230              		.cfi_def_cfa_offset 16
 231              		.cfi_offset 3, -16
 232              		.cfi_offset 4, -12
 233              		.cfi_offset 5, -8
 234              		.cfi_offset 14, -4
 235              		.loc 1 129 0
 236 0002 0446     		mov	r4, r0
 237              		.loc 1 131 0
 238 0004 FFF7FEFF 		bl	chDbgCheckClassI
 239              	.LVL22:
 240              		.loc 1 132 0
 241 0008 7CB1     		cbz	r4, .L28
 242              	.L23:
 243              		.loc 1 137 0
 244 000a 2368     		ldr	r3, [r4]
 245 000c A342     		cmp	r3, r4
 246 000e 0BD0     		beq	.L22
 247              		.loc 1 138 0
 248 0010 6FF00105 		mvn	r5, #1
 249              	.L25:
 250              	.LVL23:
 251              	.LBB18:
 252              	.LBB19:
 253              		.loc 2 62 0
 254 0014 1A68     		ldr	r2, [r3]
 255 0016 2260     		str	r2, [r4]
 256              	.LBE19:
 257              	.LBE18:
 258              		.loc 1 138 0
 259 0018 1846     		mov	r0, r3
 260              	.LBB21:
 261              	.LBB20:
 262              		.loc 2 62 0
 263 001a 5460     		str	r4, [r2, #4]
 264              	.LVL24:
 265              	.LBE20:
 266              	.LBE21:
 267              		.loc 1 138 0
 268 001c FFF7FEFF 		bl	chSchReadyI
 269              	.LVL25:
 270              		.loc 1 137 0
 271 0020 2368     		ldr	r3, [r4]
 272              		.loc 1 138 0
 273 0022 8562     		str	r5, [r0, #40]
 274              		.loc 1 137 0
 275 0024 A342     		cmp	r3, r4
 276 0026 F5D1     		bne	.L25
 277              	.L22:
 278              		.loc 1 139 0
 279 0028 38BD     		pop	{r3, r4, r5, pc}
 280              	.LVL26:
 281              	.L28:
 282              		.loc 1 132 0 discriminator 1
 283 002a 0248     		ldr	r0, .L29
 284 002c FFF7FEFF 		bl	chDbgPanic
 285              	.LVL27:
ARM GAS  /tmp/ccQGuPHp.s 			page 6


 286 0030 EBE7     		b	.L23
 287              	.L30:
 288 0032 00BF     		.align	2
 289              	.L29:
 290 0034 00000000 		.word	.LC3
 291              		.cfi_endproc
 292              	.LFE11:
 293              		.size	chCondBroadcastI, .-chCondBroadcastI
 294              		.section	.text.chCondBroadcast,"ax",%progbits
 295              		.align	1
 296              		.p2align 4,,15
 297              		.global	chCondBroadcast
 298              		.syntax unified
 299              		.thumb
 300              		.thumb_func
 301              		.fpu fpv4-sp-d16
 302              		.type	chCondBroadcast, %function
 303              	chCondBroadcast:
 304              	.LFB10:
 305              		.loc 1 110 0
 306              		.cfi_startproc
 307              		@ args = 0, pretend = 0, frame = 0
 308              		@ frame_needed = 0, uses_anonymous_args = 0
 309              	.LVL28:
 310 0000 10B5     		push	{r4, lr}
 311              		.cfi_def_cfa_offset 8
 312              		.cfi_offset 4, -8
 313              		.cfi_offset 14, -4
 314              		.loc 1 110 0
 315 0002 0446     		mov	r4, r0
 316              		.loc 1 112 0
 317              		.syntax unified
 318              	@ 112 "ChibiOS_2.6.6/os/kernel/src/chcond.c" 1
 319 0004 72B6     		cpsid   i
 320              	@ 0 "" 2
 321              		.thumb
 322              		.syntax unified
 323 0006 FFF7FEFF 		bl	dbg_check_lock
 324              	.LVL29:
 325              		.loc 1 113 0
 326 000a 2046     		mov	r0, r4
 327 000c FFF7FEFF 		bl	chCondBroadcastI
 328              	.LVL30:
 329              		.loc 1 114 0
 330 0010 FFF7FEFF 		bl	chSchRescheduleS
 331              	.LVL31:
 332              		.loc 1 115 0
 333 0014 FFF7FEFF 		bl	dbg_check_unlock
 334              	.LVL32:
 335              		.syntax unified
 336              	@ 115 "ChibiOS_2.6.6/os/kernel/src/chcond.c" 1
 337 0018 62B6     		cpsie   i
 338              	@ 0 "" 2
 339              		.loc 1 116 0
 340              		.thumb
 341              		.syntax unified
 342 001a 10BD     		pop	{r4, pc}
ARM GAS  /tmp/ccQGuPHp.s 			page 7


 343              		.cfi_endproc
 344              	.LFE10:
 345              		.size	chCondBroadcast, .-chCondBroadcast
 346              		.section	.text.chCondWaitS,"ax",%progbits
 347              		.align	1
 348              		.p2align 4,,15
 349              		.global	chCondWaitS
 350              		.syntax unified
 351              		.thumb
 352              		.thumb_func
 353              		.fpu fpv4-sp-d16
 354              		.type	chCondWaitS, %function
 355              	chCondWaitS:
 356              	.LFB13:
 357              		.loc 1 184 0
 358              		.cfi_startproc
 359              		@ args = 0, pretend = 0, frame = 0
 360              		@ frame_needed = 0, uses_anonymous_args = 0
 361              	.LVL33:
 362              		.loc 1 185 0
 363 0000 174B     		ldr	r3, .L44
 364              		.loc 1 184 0
 365 0002 70B5     		push	{r4, r5, r6, lr}
 366              		.cfi_def_cfa_offset 16
 367              		.cfi_offset 4, -16
 368              		.cfi_offset 5, -12
 369              		.cfi_offset 6, -8
 370              		.cfi_offset 14, -4
 371              		.loc 1 184 0
 372 0004 0546     		mov	r5, r0
 373              		.loc 1 185 0
 374 0006 9C69     		ldr	r4, [r3, #24]
 375              	.LVL34:
 376              		.loc 1 189 0
 377 0008 FFF7FEFF 		bl	chDbgCheckClassS
 378              	.LVL35:
 379              		.loc 1 190 0
 380 000c 25B3     		cbz	r5, .L40
 381              	.L34:
 382              		.loc 1 191 0
 383 000e 236C     		ldr	r3, [r4, #64]
 384 0010 F3B1     		cbz	r3, .L41
 385              	.L35:
 386              		.loc 1 195 0
 387 0012 FFF7FEFF 		bl	chMtxUnlockS
 388              	.LVL36:
 389              		.loc 1 196 0
 390 0016 A562     		str	r5, [r4, #40]
 391              		.loc 1 195 0
 392 0018 0646     		mov	r6, r0
 393              	.LVL37:
 394              		.loc 1 197 0
 395 001a 2B46     		mov	r3, r5
 396 001c 2846     		mov	r0, r5
 397              	.LVL38:
 398 001e 03E0     		b	.L37
 399              	.LVL39:
ARM GAS  /tmp/ccQGuPHp.s 			page 8


 400              	.L43:
 401              	.LBB22:
 402              	.LBB23:
 403              		.loc 2 46 0
 404 0020 9968     		ldr	r1, [r3, #8]
 405 0022 A268     		ldr	r2, [r4, #8]
 406 0024 9142     		cmp	r1, r2
 407 0026 11D3     		bcc	.L42
 408              	.L37:
 409              		.loc 2 45 0
 410 0028 1B68     		ldr	r3, [r3]
 411              	.LVL40:
 412              		.loc 2 46 0
 413 002a 9D42     		cmp	r5, r3
 414 002c F8D1     		bne	.L43
 415              	.LVL41:
 416              	.L36:
 417              		.loc 2 48 0
 418 002e 4368     		ldr	r3, [r0, #4]
 419              	.LVL42:
 420 0030 C4E90003 		strd	r0, r3, [r4]
 421              		.loc 2 49 0
 422 0034 4460     		str	r4, [r0, #4]
 423 0036 6368     		ldr	r3, [r4, #4]
 424              	.LBE23:
 425              	.LBE22:
 426              		.loc 1 198 0
 427 0038 0520     		movs	r0, #5
 428              	.LBB26:
 429              	.LBB24:
 430              		.loc 2 49 0
 431 003a 1C60     		str	r4, [r3]
 432              	.LVL43:
 433              	.LBE24:
 434              	.LBE26:
 435              		.loc 1 198 0
 436 003c FFF7FEFF 		bl	chSchGoSleepS
 437              	.LVL44:
 438              		.loc 1 199 0
 439 0040 A46A     		ldr	r4, [r4, #40]
 440              	.LVL45:
 441              		.loc 1 200 0
 442 0042 3046     		mov	r0, r6
 443 0044 FFF7FEFF 		bl	chMtxLockS
 444              	.LVL46:
 445              		.loc 1 202 0
 446 0048 2046     		mov	r0, r4
 447 004a 70BD     		pop	{r4, r5, r6, pc}
 448              	.LVL47:
 449              	.L42:
 450              	.LBB27:
 451              	.LBB25:
 452              		.loc 2 45 0
 453 004c 1846     		mov	r0, r3
 454              	.LVL48:
 455 004e EEE7     		b	.L36
 456              	.LVL49:
ARM GAS  /tmp/ccQGuPHp.s 			page 9


 457              	.L41:
 458              	.LBE25:
 459              	.LBE27:
 460              		.loc 1 191 0 discriminator 1
 461 0050 0448     		ldr	r0, .L44+4
 462 0052 FFF7FEFF 		bl	chDbgPanic
 463              	.LVL50:
 464 0056 DCE7     		b	.L35
 465              	.L40:
 466              		.loc 1 190 0 discriminator 1
 467 0058 0348     		ldr	r0, .L44+8
 468 005a FFF7FEFF 		bl	chDbgPanic
 469              	.LVL51:
 470 005e D6E7     		b	.L34
 471              	.L45:
 472              		.align	2
 473              	.L44:
 474 0060 00000000 		.word	rlist
 475 0064 10000000 		.word	.LC5
 476 0068 00000000 		.word	.LC4
 477              		.cfi_endproc
 478              	.LFE13:
 479              		.size	chCondWaitS, .-chCondWaitS
 480              		.section	.text.chCondWait,"ax",%progbits
 481              		.align	1
 482              		.p2align 4,,15
 483              		.global	chCondWait
 484              		.syntax unified
 485              		.thumb
 486              		.thumb_func
 487              		.fpu fpv4-sp-d16
 488              		.type	chCondWait, %function
 489              	chCondWait:
 490              	.LFB12:
 491              		.loc 1 158 0
 492              		.cfi_startproc
 493              		@ args = 0, pretend = 0, frame = 0
 494              		@ frame_needed = 0, uses_anonymous_args = 0
 495              	.LVL52:
 496 0000 10B5     		push	{r4, lr}
 497              		.cfi_def_cfa_offset 8
 498              		.cfi_offset 4, -8
 499              		.cfi_offset 14, -4
 500              		.loc 1 158 0
 501 0002 0446     		mov	r4, r0
 502              		.loc 1 161 0
 503              		.syntax unified
 504              	@ 161 "ChibiOS_2.6.6/os/kernel/src/chcond.c" 1
 505 0004 72B6     		cpsid   i
 506              	@ 0 "" 2
 507              		.thumb
 508              		.syntax unified
 509 0006 FFF7FEFF 		bl	dbg_check_lock
 510              	.LVL53:
 511              		.loc 1 162 0
 512 000a 2046     		mov	r0, r4
 513 000c FFF7FEFF 		bl	chCondWaitS
ARM GAS  /tmp/ccQGuPHp.s 			page 10


 514              	.LVL54:
 515 0010 0446     		mov	r4, r0
 516              	.LVL55:
 517              		.loc 1 163 0
 518 0012 FFF7FEFF 		bl	dbg_check_unlock
 519              	.LVL56:
 520              		.syntax unified
 521              	@ 163 "ChibiOS_2.6.6/os/kernel/src/chcond.c" 1
 522 0016 62B6     		cpsie   i
 523              	@ 0 "" 2
 524              		.loc 1 165 0
 525              		.thumb
 526              		.syntax unified
 527 0018 2046     		mov	r0, r4
 528 001a 10BD     		pop	{r4, pc}
 529              		.cfi_endproc
 530              	.LFE12:
 531              		.size	chCondWait, .-chCondWait
 532              		.section	.text.chCondWaitTimeoutS,"ax",%progbits
 533              		.align	1
 534              		.p2align 4,,15
 535              		.global	chCondWaitTimeoutS
 536              		.syntax unified
 537              		.thumb
 538              		.thumb_func
 539              		.fpu fpv4-sp-d16
 540              		.type	chCondWaitTimeoutS, %function
 541              	chCondWaitTimeoutS:
 542              	.LFB15:
 543              		.loc 1 270 0
 544              		.cfi_startproc
 545              		@ args = 0, pretend = 0, frame = 0
 546              		@ frame_needed = 0, uses_anonymous_args = 0
 547              	.LVL57:
 548 0000 F8B5     		push	{r3, r4, r5, r6, r7, lr}
 549              		.cfi_def_cfa_offset 24
 550              		.cfi_offset 3, -24
 551              		.cfi_offset 4, -20
 552              		.cfi_offset 5, -16
 553              		.cfi_offset 6, -12
 554              		.cfi_offset 7, -8
 555              		.cfi_offset 14, -4
 556              		.loc 1 270 0
 557 0002 0446     		mov	r4, r0
 558 0004 0F46     		mov	r7, r1
 559              		.loc 1 274 0
 560 0006 FFF7FEFF 		bl	chDbgCheckClassS
 561              	.LVL58:
 562              		.loc 1 275 0
 563 000a 2CB3     		cbz	r4, .L49
 564              		.loc 1 275 0 is_stmt 0 discriminator 2
 565 000c 27B3     		cbz	r7, .L49
 566              		.loc 1 276 0 is_stmt 1
 567 000e 194D     		ldr	r5, .L66
 568 0010 AB69     		ldr	r3, [r5, #24]
 569 0012 1B6C     		ldr	r3, [r3, #64]
 570 0014 43B3     		cbz	r3, .L63
ARM GAS  /tmp/ccQGuPHp.s 			page 11


 571              	.L51:
 572              		.loc 1 280 0
 573 0016 FFF7FEFF 		bl	chMtxUnlockS
 574              	.LVL59:
 575              		.loc 1 281 0
 576 001a AA69     		ldr	r2, [r5, #24]
 577              		.loc 1 280 0
 578 001c 0646     		mov	r6, r0
 579              	.LVL60:
 580              		.loc 1 282 0
 581 001e 2546     		mov	r5, r4
 582              	.LVL61:
 583              		.loc 1 281 0
 584 0020 9462     		str	r4, [r2, #40]
 585              		.loc 1 282 0
 586 0022 2346     		mov	r3, r4
 587 0024 03E0     		b	.L53
 588              	.LVL62:
 589              	.L65:
 590              	.LBB28:
 591              	.LBB29:
 592              		.loc 2 46 0
 593 0026 9868     		ldr	r0, [r3, #8]
 594 0028 9168     		ldr	r1, [r2, #8]
 595 002a 8842     		cmp	r0, r1
 596 002c 20D3     		bcc	.L64
 597              	.L53:
 598              		.loc 2 45 0
 599 002e 1B68     		ldr	r3, [r3]
 600              	.LVL63:
 601              		.loc 2 46 0
 602 0030 9C42     		cmp	r4, r3
 603 0032 F8D1     		bne	.L65
 604              	.L52:
 605              		.loc 2 48 0
 606 0034 6B68     		ldr	r3, [r5, #4]
 607              	.LVL64:
 608 0036 C2E90053 		strd	r5, r3, [r2]
 609              		.loc 2 49 0
 610 003a 6A60     		str	r2, [r5, #4]
 611 003c 5368     		ldr	r3, [r2, #4]
 612              	.LBE29:
 613              	.LBE28:
 614              		.loc 1 283 0
 615 003e 3946     		mov	r1, r7
 616              	.LBB32:
 617              	.LBB30:
 618              		.loc 2 49 0
 619 0040 1A60     		str	r2, [r3]
 620              	.LVL65:
 621              	.LBE30:
 622              	.LBE32:
 623              		.loc 1 283 0
 624 0042 0520     		movs	r0, #5
 625 0044 FFF7FEFF 		bl	chSchGoSleepTimeoutS
 626              	.LVL66:
 627              		.loc 1 284 0
ARM GAS  /tmp/ccQGuPHp.s 			page 12


 628 0048 431C     		adds	r3, r0, #1
 629              		.loc 1 283 0
 630 004a 0446     		mov	r4, r0
 631              	.LVL67:
 632              		.loc 1 284 0
 633 004c 02D0     		beq	.L48
 634              		.loc 1 285 0
 635 004e 3046     		mov	r0, r6
 636              	.LVL68:
 637 0050 FFF7FEFF 		bl	chMtxLockS
 638              	.LVL69:
 639              	.L48:
 640              		.loc 1 287 0
 641 0054 2046     		mov	r0, r4
 642 0056 F8BD     		pop	{r3, r4, r5, r6, r7, pc}
 643              	.LVL70:
 644              	.L49:
 645              		.loc 1 276 0 discriminator 3
 646 0058 064D     		ldr	r5, .L66
 647              		.loc 1 275 0 discriminator 3
 648 005a 0748     		ldr	r0, .L66+4
 649 005c FFF7FEFF 		bl	chDbgPanic
 650              	.LVL71:
 651              		.loc 1 276 0 discriminator 3
 652 0060 AB69     		ldr	r3, [r5, #24]
 653 0062 1B6C     		ldr	r3, [r3, #64]
 654 0064 002B     		cmp	r3, #0
 655 0066 D6D1     		bne	.L51
 656              	.L63:
 657              		.loc 1 276 0 is_stmt 0 discriminator 1
 658 0068 0448     		ldr	r0, .L66+8
 659 006a FFF7FEFF 		bl	chDbgPanic
 660              	.LVL72:
 661 006e D2E7     		b	.L51
 662              	.LVL73:
 663              	.L64:
 664              	.LBB33:
 665              	.LBB31:
 666              		.loc 2 45 0 is_stmt 1
 667 0070 1D46     		mov	r5, r3
 668 0072 DFE7     		b	.L52
 669              	.L67:
 670              		.align	2
 671              	.L66:
 672 0074 00000000 		.word	rlist
 673 0078 00000000 		.word	.LC6
 674 007c 18000000 		.word	.LC7
 675              	.LBE31:
 676              	.LBE33:
 677              		.cfi_endproc
 678              	.LFE15:
 679              		.size	chCondWaitTimeoutS, .-chCondWaitTimeoutS
 680              		.section	.text.chCondWaitTimeout,"ax",%progbits
 681              		.align	1
 682              		.p2align 4,,15
 683              		.global	chCondWaitTimeout
 684              		.syntax unified
ARM GAS  /tmp/ccQGuPHp.s 			page 13


 685              		.thumb
 686              		.thumb_func
 687              		.fpu fpv4-sp-d16
 688              		.type	chCondWaitTimeout, %function
 689              	chCondWaitTimeout:
 690              	.LFB14:
 691              		.loc 1 233 0
 692              		.cfi_startproc
 693              		@ args = 0, pretend = 0, frame = 0
 694              		@ frame_needed = 0, uses_anonymous_args = 0
 695              	.LVL74:
 696 0000 38B5     		push	{r3, r4, r5, lr}
 697              		.cfi_def_cfa_offset 16
 698              		.cfi_offset 3, -16
 699              		.cfi_offset 4, -12
 700              		.cfi_offset 5, -8
 701              		.cfi_offset 14, -4
 702              		.loc 1 233 0
 703 0002 0446     		mov	r4, r0
 704 0004 0D46     		mov	r5, r1
 705              		.loc 1 236 0
 706              		.syntax unified
 707              	@ 236 "ChibiOS_2.6.6/os/kernel/src/chcond.c" 1
 708 0006 72B6     		cpsid   i
 709              	@ 0 "" 2
 710              		.thumb
 711              		.syntax unified
 712 0008 FFF7FEFF 		bl	dbg_check_lock
 713              	.LVL75:
 714              		.loc 1 237 0
 715 000c 2946     		mov	r1, r5
 716 000e 2046     		mov	r0, r4
 717 0010 FFF7FEFF 		bl	chCondWaitTimeoutS
 718              	.LVL76:
 719 0014 0446     		mov	r4, r0
 720              	.LVL77:
 721              		.loc 1 238 0
 722 0016 FFF7FEFF 		bl	dbg_check_unlock
 723              	.LVL78:
 724              		.syntax unified
 725              	@ 238 "ChibiOS_2.6.6/os/kernel/src/chcond.c" 1
 726 001a 62B6     		cpsie   i
 727              	@ 0 "" 2
 728              		.loc 1 240 0
 729              		.thumb
 730              		.syntax unified
 731 001c 2046     		mov	r0, r4
 732 001e 38BD     		pop	{r3, r4, r5, pc}
 733              		.cfi_endproc
 734              	.LFE14:
 735              		.size	chCondWaitTimeout, .-chCondWaitTimeout
 736              		.section	.rodata.chCondBroadcastI.str1.4,"aMS",%progbits,1
 737              		.align	2
 738              	.LC3:
 739 0000 22636843 		.ascii	"\"chCondBroadcastI\"()\000"
 739      6F6E6442 
 739      726F6164 
ARM GAS  /tmp/ccQGuPHp.s 			page 14


 739      63617374 
 739      49222829 
 740              		.section	.rodata.chCondInit.str1.4,"aMS",%progbits,1
 741              		.align	2
 742              	.LC0:
 743 0000 22636843 		.ascii	"\"chCondInit\"()\000"
 743      6F6E6449 
 743      6E697422 
 743      282900
 744              		.section	.rodata.chCondSignal.str1.4,"aMS",%progbits,1
 745              		.align	2
 746              	.LC1:
 747 0000 22636843 		.ascii	"\"chCondSignal\"()\000"
 747      6F6E6453 
 747      69676E61 
 747      6C222829 
 747      00
 748              		.section	.rodata.chCondSignalI.str1.4,"aMS",%progbits,1
 749              		.align	2
 750              	.LC2:
 751 0000 22636843 		.ascii	"\"chCondSignalI\"()\000"
 751      6F6E6453 
 751      69676E61 
 751      6C492228 
 751      2900
 752              		.section	.rodata.chCondWaitS.str1.4,"aMS",%progbits,1
 753              		.align	2
 754              	.LC4:
 755 0000 22636843 		.ascii	"\"chCondWaitS\"()\000"
 755      6F6E6457 
 755      61697453 
 755      22282900 
 756              	.LC5:
 757 0010 6368436F 		.ascii	"chCondWaitS(), #1\000"
 757      6E645761 
 757      69745328 
 757      292C2023 
 757      3100
 758              		.section	.rodata.chCondWaitTimeoutS.str1.4,"aMS",%progbits,1
 759              		.align	2
 760              	.LC6:
 761 0000 22636843 		.ascii	"\"chCondWaitTimeoutS\"()\000"
 761      6F6E6457 
 761      61697454 
 761      696D656F 
 761      75745322 
 762 0017 00       		.space	1
 763              	.LC7:
 764 0018 6368436F 		.ascii	"chCondWaitTimeoutS(), #1\000"
 764      6E645761 
 764      69745469 
 764      6D656F75 
 764      74532829 
 765              		.text
 766              	.Letext0:
 767              		.file 3 "/usr/arm-none-eabi/include/machine/_default_types.h"
 768              		.file 4 "/usr/arm-none-eabi/include/sys/_stdint.h"
ARM GAS  /tmp/ccQGuPHp.s 			page 15


 769              		.file 5 "ChibiOS_2.6.6/os/ports/GCC/ARMCMx/chtypes.h"
 770              		.file 6 "ChibiOS_2.6.6/os/kernel/include/chlists.h"
 771              		.file 7 "ChibiOS_2.6.6/os/kernel/include/chthreads.h"
 772              		.file 8 "ChibiOS_2.6.6/os/ports/GCC/ARMCMx/chcore_v7m.h"
 773              		.file 9 "ChibiOS_2.6.6/os/kernel/include/chvt.h"
 774              		.file 10 "ChibiOS_2.6.6/os/kernel/include/chschd.h"
 775              		.file 11 "ChibiOS_2.6.6/os/kernel/include/chmtx.h"
 776              		.file 12 "ChibiOS_2.6.6/os/kernel/include/chcond.h"
 777              		.file 13 "ChibiOS_2.6.6/os/kernel/include/chregistry.h"
 778              		.file 14 "ChibiOS_2.6.6/os/kernel/include/chdebug.h"
 779              		.file 15 "ChibiOS_2.6.6/os/kernel/include/ch.h"
 780              		.section	.debug_info,"",%progbits
 781              	.Ldebug_info0:
 782 0000 920D0000 		.4byte	0xd92
 783 0004 0400     		.2byte	0x4
 784 0006 00000000 		.4byte	.Ldebug_abbrev0
 785 000a 04       		.byte	0x4
 786 000b 01       		.uleb128 0x1
 787 000c 58000000 		.4byte	.LASF140
 788 0010 0C       		.byte	0xc
 789 0011 47020000 		.4byte	.LASF141
 790 0015 96030000 		.4byte	.LASF142
 791 0019 70000000 		.4byte	.Ldebug_ranges0+0x70
 792 001d 00000000 		.4byte	0
 793 0021 00000000 		.4byte	.Ldebug_line0
 794 0025 02       		.uleb128 0x2
 795 0026 04       		.byte	0x4
 796 0027 05       		.byte	0x5
 797 0028 696E7400 		.ascii	"int\000"
 798 002c 03       		.uleb128 0x3
 799 002d 04       		.byte	0x4
 800 002e 07       		.byte	0x7
 801 002f FB020000 		.4byte	.LASF0
 802 0033 03       		.uleb128 0x3
 803 0034 01       		.byte	0x1
 804 0035 06       		.byte	0x6
 805 0036 DE010000 		.4byte	.LASF1
 806 003a 04       		.uleb128 0x4
 807 003b 39000000 		.4byte	.LASF4
 808 003f 03       		.byte	0x3
 809 0040 2B       		.byte	0x2b
 810 0041 45000000 		.4byte	0x45
 811 0045 03       		.uleb128 0x3
 812 0046 01       		.byte	0x1
 813 0047 08       		.byte	0x8
 814 0048 27050000 		.4byte	.LASF2
 815 004c 03       		.uleb128 0x3
 816 004d 02       		.byte	0x2
 817 004e 05       		.byte	0x5
 818 004f 4D050000 		.4byte	.LASF3
 819 0053 04       		.uleb128 0x4
 820 0054 0F060000 		.4byte	.LASF5
 821 0058 03       		.byte	0x3
 822 0059 39       		.byte	0x39
 823 005a 5E000000 		.4byte	0x5e
 824 005e 03       		.uleb128 0x3
 825 005f 02       		.byte	0x2
ARM GAS  /tmp/ccQGuPHp.s 			page 16


 826 0060 07       		.byte	0x7
 827 0061 57030000 		.4byte	.LASF6
 828 0065 04       		.uleb128 0x4
 829 0066 4D060000 		.4byte	.LASF7
 830 006a 03       		.byte	0x3
 831 006b 4D       		.byte	0x4d
 832 006c 70000000 		.4byte	0x70
 833 0070 03       		.uleb128 0x3
 834 0071 04       		.byte	0x4
 835 0072 05       		.byte	0x5
 836 0073 29020000 		.4byte	.LASF8
 837 0077 04       		.uleb128 0x4
 838 0078 B9020000 		.4byte	.LASF9
 839 007c 03       		.byte	0x3
 840 007d 4F       		.byte	0x4f
 841 007e 82000000 		.4byte	0x82
 842 0082 03       		.uleb128 0x3
 843 0083 04       		.byte	0x4
 844 0084 07       		.byte	0x7
 845 0085 10030000 		.4byte	.LASF10
 846 0089 03       		.uleb128 0x3
 847 008a 08       		.byte	0x8
 848 008b 05       		.byte	0x5
 849 008c D0010000 		.4byte	.LASF11
 850 0090 04       		.uleb128 0x4
 851 0091 C3040000 		.4byte	.LASF12
 852 0095 03       		.byte	0x3
 853 0096 69       		.byte	0x69
 854 0097 9B000000 		.4byte	0x9b
 855 009b 03       		.uleb128 0x3
 856 009c 08       		.byte	0x8
 857 009d 07       		.byte	0x7
 858 009e 7C010000 		.4byte	.LASF13
 859 00a2 04       		.uleb128 0x4
 860 00a3 BB060000 		.4byte	.LASF14
 861 00a7 04       		.byte	0x4
 862 00a8 18       		.byte	0x18
 863 00a9 3A000000 		.4byte	0x3a
 864 00ad 04       		.uleb128 0x4
 865 00ae 6C020000 		.4byte	.LASF15
 866 00b2 04       		.byte	0x4
 867 00b3 24       		.byte	0x24
 868 00b4 53000000 		.4byte	0x53
 869 00b8 04       		.uleb128 0x4
 870 00b9 1F050000 		.4byte	.LASF16
 871 00bd 04       		.byte	0x4
 872 00be 2C       		.byte	0x2c
 873 00bf 65000000 		.4byte	0x65
 874 00c3 04       		.uleb128 0x4
 875 00c4 E1050000 		.4byte	.LASF17
 876 00c8 04       		.byte	0x4
 877 00c9 30       		.byte	0x30
 878 00ca 77000000 		.4byte	0x77
 879 00ce 04       		.uleb128 0x4
 880 00cf 30000000 		.4byte	.LASF18
 881 00d3 04       		.byte	0x4
 882 00d4 3C       		.byte	0x3c
ARM GAS  /tmp/ccQGuPHp.s 			page 17


 883 00d5 90000000 		.4byte	0x90
 884 00d9 03       		.uleb128 0x3
 885 00da 01       		.byte	0x1
 886 00db 02       		.byte	0x2
 887 00dc 19050000 		.4byte	.LASF19
 888 00e0 04       		.uleb128 0x4
 889 00e1 B7030000 		.4byte	.LASF20
 890 00e5 05       		.byte	0x5
 891 00e6 2C       		.byte	0x2c
 892 00e7 A2000000 		.4byte	0xa2
 893 00eb 04       		.uleb128 0x4
 894 00ec 3E020000 		.4byte	.LASF21
 895 00f0 05       		.byte	0x5
 896 00f1 2D       		.byte	0x2d
 897 00f2 A2000000 		.4byte	0xa2
 898 00f6 04       		.uleb128 0x4
 899 00f7 DF040000 		.4byte	.LASF22
 900 00fb 05       		.byte	0x5
 901 00fc 2E       		.byte	0x2e
 902 00fd A2000000 		.4byte	0xa2
 903 0101 04       		.uleb128 0x4
 904 0102 17020000 		.4byte	.LASF23
 905 0106 05       		.byte	0x5
 906 0107 2F       		.byte	0x2f
 907 0108 A2000000 		.4byte	0xa2
 908 010c 04       		.uleb128 0x4
 909 010d 03050000 		.4byte	.LASF24
 910 0111 05       		.byte	0x5
 911 0112 30       		.byte	0x30
 912 0113 C3000000 		.4byte	0xc3
 913 0117 04       		.uleb128 0x4
 914 0118 77030000 		.4byte	.LASF25
 915 011c 05       		.byte	0x5
 916 011d 31       		.byte	0x31
 917 011e B8000000 		.4byte	0xb8
 918 0122 04       		.uleb128 0x4
 919 0123 E8030000 		.4byte	.LASF26
 920 0127 05       		.byte	0x5
 921 0128 33       		.byte	0x33
 922 0129 C3000000 		.4byte	0xc3
 923 012d 04       		.uleb128 0x4
 924 012e 38060000 		.4byte	.LASF27
 925 0132 05       		.byte	0x5
 926 0133 35       		.byte	0x35
 927 0134 C3000000 		.4byte	0xc3
 928 0138 05       		.uleb128 0x5
 929 0139 2D010000 		.4byte	0x12d
 930 013d 04       		.uleb128 0x4
 931 013e EA020000 		.4byte	.LASF28
 932 0142 05       		.byte	0x5
 933 0143 36       		.byte	0x36
 934 0144 B8000000 		.4byte	0xb8
 935 0148 04       		.uleb128 0x4
 936 0149 B9050000 		.4byte	.LASF29
 937 014d 06       		.byte	0x6
 938 014e 2A       		.byte	0x2a
 939 014f 53010000 		.4byte	0x153
ARM GAS  /tmp/ccQGuPHp.s 			page 18


 940 0153 06       		.uleb128 0x6
 941 0154 B9050000 		.4byte	.LASF29
 942 0158 4C       		.byte	0x4c
 943 0159 07       		.byte	0x7
 944 015a 5E       		.byte	0x5e
 945 015b 5C020000 		.4byte	0x25c
 946 015f 07       		.uleb128 0x7
 947 0160 83050000 		.4byte	.LASF30
 948 0164 07       		.byte	0x7
 949 0165 5F       		.byte	0x5f
 950 0166 7D020000 		.4byte	0x27d
 951 016a 00       		.byte	0
 952 016b 07       		.uleb128 0x7
 953 016c FC040000 		.4byte	.LASF31
 954 0170 07       		.byte	0x7
 955 0171 61       		.byte	0x61
 956 0172 7D020000 		.4byte	0x27d
 957 0176 04       		.byte	0x4
 958 0177 07       		.uleb128 0x7
 959 0178 B6010000 		.4byte	.LASF32
 960 017c 07       		.byte	0x7
 961 017d 63       		.byte	0x63
 962 017e 0C010000 		.4byte	0x10c
 963 0182 08       		.byte	0x8
 964 0183 07       		.uleb128 0x7
 965 0184 45070000 		.4byte	.LASF33
 966 0188 07       		.byte	0x7
 967 0189 64       		.byte	0x64
 968 018a 13040000 		.4byte	0x413
 969 018e 0C       		.byte	0xc
 970 018f 07       		.uleb128 0x7
 971 0190 7F020000 		.4byte	.LASF34
 972 0194 07       		.byte	0x7
 973 0195 66       		.byte	0x66
 974 0196 7D020000 		.4byte	0x27d
 975 019a 10       		.byte	0x10
 976 019b 07       		.uleb128 0x7
 977 019c 79040000 		.4byte	.LASF35
 978 01a0 07       		.byte	0x7
 979 01a1 67       		.byte	0x67
 980 01a2 7D020000 		.4byte	0x27d
 981 01a6 14       		.byte	0x14
 982 01a7 07       		.uleb128 0x7
 983 01a8 D7060000 		.4byte	.LASF36
 984 01ac 07       		.byte	0x7
 985 01ad 6E       		.byte	0x6e
 986 01ae FB050000 		.4byte	0x5fb
 987 01b2 18       		.byte	0x18
 988 01b3 07       		.uleb128 0x7
 989 01b4 F0020000 		.4byte	.LASF37
 990 01b8 07       		.byte	0x7
 991 01b9 74       		.byte	0x74
 992 01ba 0D060000 		.4byte	0x60d
 993 01be 1C       		.byte	0x1c
 994 01bf 07       		.uleb128 0x7
 995 01c0 57050000 		.4byte	.LASF38
 996 01c4 07       		.byte	0x7
ARM GAS  /tmp/ccQGuPHp.s 			page 19


 997 01c5 79       		.byte	0x79
 998 01c6 EB000000 		.4byte	0xeb
 999 01ca 20       		.byte	0x20
 1000 01cb 07       		.uleb128 0x7
 1001 01cc 99050000 		.4byte	.LASF39
 1002 01d0 07       		.byte	0x7
 1003 01d1 7D       		.byte	0x7d
 1004 01d2 E0000000 		.4byte	0xe0
 1005 01d6 21       		.byte	0x21
 1006 01d7 07       		.uleb128 0x7
 1007 01d8 9B060000 		.4byte	.LASF40
 1008 01dc 07       		.byte	0x7
 1009 01dd 82       		.byte	0x82
 1010 01de F6000000 		.4byte	0xf6
 1011 01e2 22       		.byte	0x22
 1012 01e3 07       		.uleb128 0x7
 1013 01e4 5F050000 		.4byte	.LASF41
 1014 01e8 07       		.byte	0x7
 1015 01e9 88       		.byte	0x88
 1016 01ea 01010000 		.4byte	0x101
 1017 01ee 23       		.byte	0x23
 1018 01ef 07       		.uleb128 0x7
 1019 01f0 70060000 		.4byte	.LASF42
 1020 01f4 07       		.byte	0x7
 1021 01f5 8F       		.byte	0x8f
 1022 01f6 38010000 		.4byte	0x138
 1023 01fa 24       		.byte	0x24
 1024 01fb 08       		.uleb128 0x8
 1025 01fc 705F7500 		.ascii	"p_u\000"
 1026 0200 07       		.byte	0x7
 1027 0201 B4       		.byte	0xb4
 1028 0202 C6050000 		.4byte	0x5c6
 1029 0206 28       		.byte	0x28
 1030 0207 07       		.uleb128 0x7
 1031 0208 4B070000 		.4byte	.LASF43
 1032 020c 07       		.byte	0x7
 1033 020d B9       		.byte	0xb9
 1034 020e A3020000 		.4byte	0x2a3
 1035 0212 2C       		.byte	0x2c
 1036 0213 07       		.uleb128 0x7
 1037 0214 7E060000 		.4byte	.LASF44
 1038 0218 07       		.byte	0x7
 1039 0219 BF       		.byte	0xbf
 1040 021a 83020000 		.4byte	0x283
 1041 021e 30       		.byte	0x30
 1042 021f 07       		.uleb128 0x7
 1043 0220 0D000000 		.4byte	.LASF45
 1044 0224 07       		.byte	0x7
 1045 0225 C3       		.byte	0xc3
 1046 0226 17010000 		.4byte	0x117
 1047 022a 38       		.byte	0x38
 1048 022b 07       		.uleb128 0x7
 1049 022c D6050000 		.4byte	.LASF46
 1050 0230 07       		.byte	0x7
 1051 0231 C9       		.byte	0xc9
 1052 0232 22010000 		.4byte	0x122
 1053 0236 3C       		.byte	0x3c
ARM GAS  /tmp/ccQGuPHp.s 			page 20


 1054 0237 07       		.uleb128 0x7
 1055 0238 43050000 		.4byte	.LASF47
 1056 023c 07       		.byte	0x7
 1057 023d D0       		.byte	0xd0
 1058 023e 13060000 		.4byte	0x613
 1059 0242 40       		.byte	0x40
 1060 0243 07       		.uleb128 0x7
 1061 0244 42060000 		.4byte	.LASF48
 1062 0248 07       		.byte	0x7
 1063 0249 D4       		.byte	0xd4
 1064 024a 0C010000 		.4byte	0x10c
 1065 024e 44       		.byte	0x44
 1066 024f 07       		.uleb128 0x7
 1067 0250 07020000 		.4byte	.LASF49
 1068 0254 07       		.byte	0x7
 1069 0255 DA       		.byte	0xda
 1070 0256 B9020000 		.4byte	0x2b9
 1071 025a 48       		.byte	0x48
 1072 025b 00       		.byte	0
 1073 025c 09       		.uleb128 0x9
 1074 025d 08       		.byte	0x8
 1075 025e 06       		.byte	0x6
 1076 025f 61       		.byte	0x61
 1077 0260 7D020000 		.4byte	0x27d
 1078 0264 07       		.uleb128 0x7
 1079 0265 83050000 		.4byte	.LASF30
 1080 0269 06       		.byte	0x6
 1081 026a 62       		.byte	0x62
 1082 026b 7D020000 		.4byte	0x27d
 1083 026f 00       		.byte	0
 1084 0270 07       		.uleb128 0x7
 1085 0271 FC040000 		.4byte	.LASF31
 1086 0275 06       		.byte	0x6
 1087 0276 64       		.byte	0x64
 1088 0277 7D020000 		.4byte	0x27d
 1089 027b 04       		.byte	0x4
 1090 027c 00       		.byte	0
 1091 027d 0A       		.uleb128 0xa
 1092 027e 04       		.byte	0x4
 1093 027f 48010000 		.4byte	0x148
 1094 0283 04       		.uleb128 0x4
 1095 0284 87040000 		.4byte	.LASF50
 1096 0288 06       		.byte	0x6
 1097 0289 66       		.byte	0x66
 1098 028a 5C020000 		.4byte	0x25c
 1099 028e 09       		.uleb128 0x9
 1100 028f 04       		.byte	0x4
 1101 0290 06       		.byte	0x6
 1102 0291 6B       		.byte	0x6b
 1103 0292 A3020000 		.4byte	0x2a3
 1104 0296 07       		.uleb128 0x7
 1105 0297 83050000 		.4byte	.LASF30
 1106 029b 06       		.byte	0x6
 1107 029c 6D       		.byte	0x6d
 1108 029d 7D020000 		.4byte	0x27d
 1109 02a1 00       		.byte	0
 1110 02a2 00       		.byte	0
ARM GAS  /tmp/ccQGuPHp.s 			page 21


 1111 02a3 04       		.uleb128 0x4
 1112 02a4 DC030000 		.4byte	.LASF51
 1113 02a8 06       		.byte	0x6
 1114 02a9 70       		.byte	0x70
 1115 02aa 8E020000 		.4byte	0x28e
 1116 02ae 04       		.uleb128 0x4
 1117 02af C4020000 		.4byte	.LASF52
 1118 02b3 08       		.byte	0x8
 1119 02b4 E5       		.byte	0xe5
 1120 02b5 B9020000 		.4byte	0x2b9
 1121 02b9 0B       		.uleb128 0xb
 1122 02ba 04       		.byte	0x4
 1123 02bb 0C       		.uleb128 0xc
 1124 02bc 09040000 		.4byte	.LASF143
 1125 02c0 08       		.byte	0x8
 1126 02c1 EB       		.byte	0xeb
 1127 02c2 CE000000 		.4byte	0xce
 1128 02c6 08       		.byte	0x8
 1129 02c7 0D       		.uleb128 0xd
 1130 02c8 77060000 		.4byte	.LASF53
 1131 02cc 64       		.byte	0x64
 1132 02cd 08       		.byte	0x8
 1133 02ce 0C01     		.2byte	0x10c
 1134 02d0 13040000 		.4byte	0x413
 1135 02d4 0E       		.uleb128 0xe
 1136 02d5 73313600 		.ascii	"s16\000"
 1137 02d9 08       		.byte	0x8
 1138 02da 0E01     		.2byte	0x10e
 1139 02dc AE020000 		.4byte	0x2ae
 1140 02e0 00       		.byte	0
 1141 02e1 0E       		.uleb128 0xe
 1142 02e2 73313700 		.ascii	"s17\000"
 1143 02e6 08       		.byte	0x8
 1144 02e7 0F01     		.2byte	0x10f
 1145 02e9 AE020000 		.4byte	0x2ae
 1146 02ed 04       		.byte	0x4
 1147 02ee 0E       		.uleb128 0xe
 1148 02ef 73313800 		.ascii	"s18\000"
 1149 02f3 08       		.byte	0x8
 1150 02f4 1001     		.2byte	0x110
 1151 02f6 AE020000 		.4byte	0x2ae
 1152 02fa 08       		.byte	0x8
 1153 02fb 0E       		.uleb128 0xe
 1154 02fc 73313900 		.ascii	"s19\000"
 1155 0300 08       		.byte	0x8
 1156 0301 1101     		.2byte	0x111
 1157 0303 AE020000 		.4byte	0x2ae
 1158 0307 0C       		.byte	0xc
 1159 0308 0E       		.uleb128 0xe
 1160 0309 73323000 		.ascii	"s20\000"
 1161 030d 08       		.byte	0x8
 1162 030e 1201     		.2byte	0x112
 1163 0310 AE020000 		.4byte	0x2ae
 1164 0314 10       		.byte	0x10
 1165 0315 0E       		.uleb128 0xe
 1166 0316 73323100 		.ascii	"s21\000"
 1167 031a 08       		.byte	0x8
ARM GAS  /tmp/ccQGuPHp.s 			page 22


 1168 031b 1301     		.2byte	0x113
 1169 031d AE020000 		.4byte	0x2ae
 1170 0321 14       		.byte	0x14
 1171 0322 0E       		.uleb128 0xe
 1172 0323 73323200 		.ascii	"s22\000"
 1173 0327 08       		.byte	0x8
 1174 0328 1401     		.2byte	0x114
 1175 032a AE020000 		.4byte	0x2ae
 1176 032e 18       		.byte	0x18
 1177 032f 0E       		.uleb128 0xe
 1178 0330 73323300 		.ascii	"s23\000"
 1179 0334 08       		.byte	0x8
 1180 0335 1501     		.2byte	0x115
 1181 0337 AE020000 		.4byte	0x2ae
 1182 033b 1C       		.byte	0x1c
 1183 033c 0E       		.uleb128 0xe
 1184 033d 73323400 		.ascii	"s24\000"
 1185 0341 08       		.byte	0x8
 1186 0342 1601     		.2byte	0x116
 1187 0344 AE020000 		.4byte	0x2ae
 1188 0348 20       		.byte	0x20
 1189 0349 0E       		.uleb128 0xe
 1190 034a 73323500 		.ascii	"s25\000"
 1191 034e 08       		.byte	0x8
 1192 034f 1701     		.2byte	0x117
 1193 0351 AE020000 		.4byte	0x2ae
 1194 0355 24       		.byte	0x24
 1195 0356 0E       		.uleb128 0xe
 1196 0357 73323600 		.ascii	"s26\000"
 1197 035b 08       		.byte	0x8
 1198 035c 1801     		.2byte	0x118
 1199 035e AE020000 		.4byte	0x2ae
 1200 0362 28       		.byte	0x28
 1201 0363 0E       		.uleb128 0xe
 1202 0364 73323700 		.ascii	"s27\000"
 1203 0368 08       		.byte	0x8
 1204 0369 1901     		.2byte	0x119
 1205 036b AE020000 		.4byte	0x2ae
 1206 036f 2C       		.byte	0x2c
 1207 0370 0E       		.uleb128 0xe
 1208 0371 73323800 		.ascii	"s28\000"
 1209 0375 08       		.byte	0x8
 1210 0376 1A01     		.2byte	0x11a
 1211 0378 AE020000 		.4byte	0x2ae
 1212 037c 30       		.byte	0x30
 1213 037d 0E       		.uleb128 0xe
 1214 037e 73323900 		.ascii	"s29\000"
 1215 0382 08       		.byte	0x8
 1216 0383 1B01     		.2byte	0x11b
 1217 0385 AE020000 		.4byte	0x2ae
 1218 0389 34       		.byte	0x34
 1219 038a 0E       		.uleb128 0xe
 1220 038b 73333000 		.ascii	"s30\000"
 1221 038f 08       		.byte	0x8
 1222 0390 1C01     		.2byte	0x11c
 1223 0392 AE020000 		.4byte	0x2ae
 1224 0396 38       		.byte	0x38
ARM GAS  /tmp/ccQGuPHp.s 			page 23


 1225 0397 0E       		.uleb128 0xe
 1226 0398 73333100 		.ascii	"s31\000"
 1227 039c 08       		.byte	0x8
 1228 039d 1D01     		.2byte	0x11d
 1229 039f AE020000 		.4byte	0x2ae
 1230 03a3 3C       		.byte	0x3c
 1231 03a4 0E       		.uleb128 0xe
 1232 03a5 723400   		.ascii	"r4\000"
 1233 03a8 08       		.byte	0x8
 1234 03a9 1F01     		.2byte	0x11f
 1235 03ab AE020000 		.4byte	0x2ae
 1236 03af 40       		.byte	0x40
 1237 03b0 0E       		.uleb128 0xe
 1238 03b1 723500   		.ascii	"r5\000"
 1239 03b4 08       		.byte	0x8
 1240 03b5 2001     		.2byte	0x120
 1241 03b7 AE020000 		.4byte	0x2ae
 1242 03bb 44       		.byte	0x44
 1243 03bc 0E       		.uleb128 0xe
 1244 03bd 723600   		.ascii	"r6\000"
 1245 03c0 08       		.byte	0x8
 1246 03c1 2101     		.2byte	0x121
 1247 03c3 AE020000 		.4byte	0x2ae
 1248 03c7 48       		.byte	0x48
 1249 03c8 0E       		.uleb128 0xe
 1250 03c9 723700   		.ascii	"r7\000"
 1251 03cc 08       		.byte	0x8
 1252 03cd 2201     		.2byte	0x122
 1253 03cf AE020000 		.4byte	0x2ae
 1254 03d3 4C       		.byte	0x4c
 1255 03d4 0E       		.uleb128 0xe
 1256 03d5 723800   		.ascii	"r8\000"
 1257 03d8 08       		.byte	0x8
 1258 03d9 2301     		.2byte	0x123
 1259 03db AE020000 		.4byte	0x2ae
 1260 03df 50       		.byte	0x50
 1261 03e0 0E       		.uleb128 0xe
 1262 03e1 723900   		.ascii	"r9\000"
 1263 03e4 08       		.byte	0x8
 1264 03e5 2401     		.2byte	0x124
 1265 03e7 AE020000 		.4byte	0x2ae
 1266 03eb 54       		.byte	0x54
 1267 03ec 0E       		.uleb128 0xe
 1268 03ed 72313000 		.ascii	"r10\000"
 1269 03f1 08       		.byte	0x8
 1270 03f2 2501     		.2byte	0x125
 1271 03f4 AE020000 		.4byte	0x2ae
 1272 03f8 58       		.byte	0x58
 1273 03f9 0E       		.uleb128 0xe
 1274 03fa 72313100 		.ascii	"r11\000"
 1275 03fe 08       		.byte	0x8
 1276 03ff 2601     		.2byte	0x126
 1277 0401 AE020000 		.4byte	0x2ae
 1278 0405 5C       		.byte	0x5c
 1279 0406 0E       		.uleb128 0xe
 1280 0407 6C7200   		.ascii	"lr\000"
 1281 040a 08       		.byte	0x8
ARM GAS  /tmp/ccQGuPHp.s 			page 24


 1282 040b 2701     		.2byte	0x127
 1283 040d AE020000 		.4byte	0x2ae
 1284 0411 60       		.byte	0x60
 1285 0412 00       		.byte	0
 1286 0413 0D       		.uleb128 0xd
 1287 0414 4F030000 		.4byte	.LASF54
 1288 0418 04       		.byte	0x4
 1289 0419 08       		.byte	0x8
 1290 041a 3101     		.2byte	0x131
 1291 041c 2E040000 		.4byte	0x42e
 1292 0420 0E       		.uleb128 0xe
 1293 0421 72313300 		.ascii	"r13\000"
 1294 0425 08       		.byte	0x8
 1295 0426 3201     		.2byte	0x132
 1296 0428 2E040000 		.4byte	0x42e
 1297 042c 00       		.byte	0
 1298 042d 00       		.byte	0
 1299 042e 0A       		.uleb128 0xa
 1300 042f 04       		.byte	0x4
 1301 0430 C7020000 		.4byte	0x2c7
 1302 0434 04       		.uleb128 0x4
 1303 0435 2B030000 		.4byte	.LASF55
 1304 0439 09       		.byte	0x9
 1305 043a 58       		.byte	0x58
 1306 043b 3F040000 		.4byte	0x43f
 1307 043f 0A       		.uleb128 0xa
 1308 0440 04       		.byte	0x4
 1309 0441 45040000 		.4byte	0x445
 1310 0445 0F       		.uleb128 0xf
 1311 0446 50040000 		.4byte	0x450
 1312 044a 10       		.uleb128 0x10
 1313 044b B9020000 		.4byte	0x2b9
 1314 044f 00       		.byte	0
 1315 0450 04       		.uleb128 0x4
 1316 0451 42030000 		.4byte	.LASF56
 1317 0455 09       		.byte	0x9
 1318 0456 5D       		.byte	0x5d
 1319 0457 5B040000 		.4byte	0x45b
 1320 045b 06       		.uleb128 0x6
 1321 045c 42030000 		.4byte	.LASF56
 1322 0460 14       		.byte	0x14
 1323 0461 09       		.byte	0x9
 1324 0462 64       		.byte	0x64
 1325 0463 A4040000 		.4byte	0x4a4
 1326 0467 07       		.uleb128 0x7
 1327 0468 08030000 		.4byte	.LASF57
 1328 046c 09       		.byte	0x9
 1329 046d 65       		.byte	0x65
 1330 046e A4040000 		.4byte	0x4a4
 1331 0472 00       		.byte	0
 1332 0473 07       		.uleb128 0x7
 1333 0474 CD020000 		.4byte	.LASF58
 1334 0478 09       		.byte	0x9
 1335 0479 67       		.byte	0x67
 1336 047a A4040000 		.4byte	0x4a4
 1337 047e 04       		.byte	0x4
 1338 047f 07       		.uleb128 0x7
ARM GAS  /tmp/ccQGuPHp.s 			page 25


 1339 0480 28040000 		.4byte	.LASF59
 1340 0484 09       		.byte	0x9
 1341 0485 69       		.byte	0x69
 1342 0486 2D010000 		.4byte	0x12d
 1343 048a 08       		.byte	0x8
 1344 048b 07       		.uleb128 0x7
 1345 048c 37040000 		.4byte	.LASF60
 1346 0490 09       		.byte	0x9
 1347 0491 6A       		.byte	0x6a
 1348 0492 34040000 		.4byte	0x434
 1349 0496 0C       		.byte	0xc
 1350 0497 07       		.uleb128 0x7
 1351 0498 89060000 		.4byte	.LASF61
 1352 049c 09       		.byte	0x9
 1353 049d 6C       		.byte	0x6c
 1354 049e B9020000 		.4byte	0x2b9
 1355 04a2 10       		.byte	0x10
 1356 04a3 00       		.byte	0
 1357 04a4 0A       		.uleb128 0xa
 1358 04a5 04       		.byte	0x4
 1359 04a6 50040000 		.4byte	0x450
 1360 04aa 09       		.uleb128 0x9
 1361 04ab 10       		.byte	0x10
 1362 04ac 09       		.byte	0x9
 1363 04ad 76       		.byte	0x76
 1364 04ae E3040000 		.4byte	0x4e3
 1365 04b2 07       		.uleb128 0x7
 1366 04b3 08030000 		.4byte	.LASF57
 1367 04b7 09       		.byte	0x9
 1368 04b8 77       		.byte	0x77
 1369 04b9 A4040000 		.4byte	0x4a4
 1370 04bd 00       		.byte	0
 1371 04be 07       		.uleb128 0x7
 1372 04bf CD020000 		.4byte	.LASF58
 1373 04c3 09       		.byte	0x9
 1374 04c4 79       		.byte	0x79
 1375 04c5 A4040000 		.4byte	0x4a4
 1376 04c9 04       		.byte	0x4
 1377 04ca 07       		.uleb128 0x7
 1378 04cb 28040000 		.4byte	.LASF59
 1379 04cf 09       		.byte	0x9
 1380 04d0 7B       		.byte	0x7b
 1381 04d1 2D010000 		.4byte	0x12d
 1382 04d5 08       		.byte	0x8
 1383 04d6 07       		.uleb128 0x7
 1384 04d7 F0060000 		.4byte	.LASF62
 1385 04db 09       		.byte	0x9
 1386 04dc 7C       		.byte	0x7c
 1387 04dd 38010000 		.4byte	0x138
 1388 04e1 0C       		.byte	0xc
 1389 04e2 00       		.byte	0
 1390 04e3 04       		.uleb128 0x4
 1391 04e4 2C070000 		.4byte	.LASF63
 1392 04e8 09       		.byte	0x9
 1393 04e9 7D       		.byte	0x7d
 1394 04ea AA040000 		.4byte	0x4aa
 1395 04ee 11       		.uleb128 0x11
ARM GAS  /tmp/ccQGuPHp.s 			page 26


 1396 04ef 51000000 		.4byte	.LASF71
 1397 04f3 09       		.byte	0x9
 1398 04f4 F5       		.byte	0xf5
 1399 04f5 E3040000 		.4byte	0x4e3
 1400 04f9 09       		.uleb128 0x9
 1401 04fa 1C       		.byte	0x1c
 1402 04fb 0A       		.byte	0xa
 1403 04fc 5E       		.byte	0x5e
 1404 04fd 4A050000 		.4byte	0x54a
 1405 0501 07       		.uleb128 0x7
 1406 0502 F6050000 		.4byte	.LASF64
 1407 0506 0A       		.byte	0xa
 1408 0507 5F       		.byte	0x5f
 1409 0508 83020000 		.4byte	0x283
 1410 050c 00       		.byte	0
 1411 050d 07       		.uleb128 0x7
 1412 050e 75050000 		.4byte	.LASF65
 1413 0512 0A       		.byte	0xa
 1414 0513 60       		.byte	0x60
 1415 0514 0C010000 		.4byte	0x10c
 1416 0518 08       		.byte	0x8
 1417 0519 07       		.uleb128 0x7
 1418 051a 81040000 		.4byte	.LASF66
 1419 051e 0A       		.byte	0xa
 1420 051f 62       		.byte	0x62
 1421 0520 13040000 		.4byte	0x413
 1422 0524 0C       		.byte	0xc
 1423 0525 07       		.uleb128 0x7
 1424 0526 7D030000 		.4byte	.LASF67
 1425 052a 0A       		.byte	0xa
 1426 052b 65       		.byte	0x65
 1427 052c 7D020000 		.4byte	0x27d
 1428 0530 10       		.byte	0x10
 1429 0531 07       		.uleb128 0x7
 1430 0532 AB040000 		.4byte	.LASF68
 1431 0536 0A       		.byte	0xa
 1432 0537 66       		.byte	0x66
 1433 0538 7D020000 		.4byte	0x27d
 1434 053c 14       		.byte	0x14
 1435 053d 07       		.uleb128 0x7
 1436 053e A1040000 		.4byte	.LASF69
 1437 0542 0A       		.byte	0xa
 1438 0543 69       		.byte	0x69
 1439 0544 7D020000 		.4byte	0x27d
 1440 0548 18       		.byte	0x18
 1441 0549 00       		.byte	0
 1442 054a 04       		.uleb128 0x4
 1443 054b A2060000 		.4byte	.LASF70
 1444 054f 0A       		.byte	0xa
 1445 0550 6B       		.byte	0x6b
 1446 0551 F9040000 		.4byte	0x4f9
 1447 0555 11       		.uleb128 0x11
 1448 0556 B5060000 		.4byte	.LASF72
 1449 055a 0A       		.byte	0xa
 1450 055b 6F       		.byte	0x6f
 1451 055c 4A050000 		.4byte	0x54a
 1452 0560 06       		.uleb128 0x6
ARM GAS  /tmp/ccQGuPHp.s 			page 27


 1453 0561 F4030000 		.4byte	.LASF73
 1454 0565 10       		.byte	0x10
 1455 0566 0B       		.byte	0xb
 1456 0567 2C       		.byte	0x2c
 1457 0568 91050000 		.4byte	0x591
 1458 056c 07       		.uleb128 0x7
 1459 056d 0F020000 		.4byte	.LASF74
 1460 0571 0B       		.byte	0xb
 1461 0572 2D       		.byte	0x2d
 1462 0573 83020000 		.4byte	0x283
 1463 0577 00       		.byte	0
 1464 0578 07       		.uleb128 0x7
 1465 0579 33070000 		.4byte	.LASF75
 1466 057d 0B       		.byte	0xb
 1467 057e 2F       		.byte	0x2f
 1468 057f 7D020000 		.4byte	0x27d
 1469 0583 08       		.byte	0x8
 1470 0584 07       		.uleb128 0x7
 1471 0585 31060000 		.4byte	.LASF76
 1472 0589 0B       		.byte	0xb
 1473 058a 31       		.byte	0x31
 1474 058b 91050000 		.4byte	0x591
 1475 058f 0C       		.byte	0xc
 1476 0590 00       		.byte	0
 1477 0591 0A       		.uleb128 0xa
 1478 0592 04       		.byte	0x4
 1479 0593 60050000 		.4byte	0x560
 1480 0597 04       		.uleb128 0x4
 1481 0598 F4030000 		.4byte	.LASF73
 1482 059c 0B       		.byte	0xb
 1483 059d 33       		.byte	0x33
 1484 059e 60050000 		.4byte	0x560
 1485 05a2 06       		.uleb128 0x6
 1486 05a3 21020000 		.4byte	.LASF77
 1487 05a7 08       		.byte	0x8
 1488 05a8 0C       		.byte	0xc
 1489 05a9 36       		.byte	0x36
 1490 05aa BB050000 		.4byte	0x5bb
 1491 05ae 07       		.uleb128 0x7
 1492 05af C0050000 		.4byte	.LASF78
 1493 05b3 0C       		.byte	0xc
 1494 05b4 37       		.byte	0x37
 1495 05b5 83020000 		.4byte	0x283
 1496 05b9 00       		.byte	0
 1497 05ba 00       		.byte	0
 1498 05bb 04       		.uleb128 0x4
 1499 05bc 21020000 		.4byte	.LASF77
 1500 05c0 0C       		.byte	0xc
 1501 05c1 38       		.byte	0x38
 1502 05c2 A2050000 		.4byte	0x5a2
 1503 05c6 12       		.uleb128 0x12
 1504 05c7 04       		.byte	0x4
 1505 05c8 07       		.byte	0x7
 1506 05c9 96       		.byte	0x96
 1507 05ca FB050000 		.4byte	0x5fb
 1508 05ce 13       		.uleb128 0x13
 1509 05cf 29000000 		.4byte	.LASF79
ARM GAS  /tmp/ccQGuPHp.s 			page 28


 1510 05d3 07       		.byte	0x7
 1511 05d4 9D       		.byte	0x9d
 1512 05d5 17010000 		.4byte	0x117
 1513 05d9 13       		.uleb128 0x13
 1514 05da 97020000 		.4byte	.LASF80
 1515 05de 07       		.byte	0x7
 1516 05df A4       		.byte	0xa4
 1517 05e0 17010000 		.4byte	0x117
 1518 05e4 13       		.uleb128 0x13
 1519 05e5 C3060000 		.4byte	.LASF81
 1520 05e9 07       		.byte	0x7
 1521 05ea AB       		.byte	0xab
 1522 05eb B9020000 		.4byte	0x2b9
 1523 05ef 13       		.uleb128 0x13
 1524 05f0 7C050000 		.4byte	.LASF82
 1525 05f4 07       		.byte	0x7
 1526 05f5 B2       		.byte	0xb2
 1527 05f6 22010000 		.4byte	0x122
 1528 05fa 00       		.byte	0
 1529 05fb 0A       		.uleb128 0xa
 1530 05fc 04       		.byte	0x4
 1531 05fd 08060000 		.4byte	0x608
 1532 0601 03       		.uleb128 0x3
 1533 0602 01       		.byte	0x1
 1534 0603 08       		.byte	0x8
 1535 0604 FE050000 		.4byte	.LASF83
 1536 0608 14       		.uleb128 0x14
 1537 0609 01060000 		.4byte	0x601
 1538 060d 0A       		.uleb128 0xa
 1539 060e 04       		.byte	0x4
 1540 060f BB020000 		.4byte	0x2bb
 1541 0613 0A       		.uleb128 0xa
 1542 0614 04       		.byte	0x4
 1543 0615 97050000 		.4byte	0x597
 1544 0619 09       		.uleb128 0x9
 1545 061a 16       		.byte	0x16
 1546 061b 0D       		.byte	0xd
 1547 061c 2C       		.byte	0x2c
 1548 061d FA060000 		.4byte	0x6fa
 1549 0621 07       		.uleb128 0x7
 1550 0622 34030000 		.4byte	.LASF84
 1551 0626 0D       		.byte	0xd
 1552 0627 2D       		.byte	0x2d
 1553 0628 FA060000 		.4byte	0x6fa
 1554 062c 00       		.byte	0
 1555 062d 07       		.uleb128 0x7
 1556 062e 14040000 		.4byte	.LASF85
 1557 0632 0D       		.byte	0xd
 1558 0633 2E       		.byte	0x2e
 1559 0634 A2000000 		.4byte	0xa2
 1560 0638 04       		.byte	0x4
 1561 0639 07       		.uleb128 0x7
 1562 063a 94040000 		.4byte	.LASF86
 1563 063e 0D       		.byte	0xd
 1564 063f 2F       		.byte	0x2f
 1565 0640 A2000000 		.4byte	0xa2
 1566 0644 05       		.byte	0x5
ARM GAS  /tmp/ccQGuPHp.s 			page 29


 1567 0645 07       		.uleb128 0x7
 1568 0646 21070000 		.4byte	.LASF87
 1569 064a 0D       		.byte	0xd
 1570 064b 30       		.byte	0x30
 1571 064c AD000000 		.4byte	0xad
 1572 0650 06       		.byte	0x6
 1573 0651 07       		.uleb128 0x7
 1574 0652 F1040000 		.4byte	.LASF88
 1575 0656 0D       		.byte	0xd
 1576 0657 31       		.byte	0x31
 1577 0658 A2000000 		.4byte	0xa2
 1578 065c 08       		.byte	0x8
 1579 065d 07       		.uleb128 0x7
 1580 065e 52040000 		.4byte	.LASF89
 1581 0662 0D       		.byte	0xd
 1582 0663 32       		.byte	0x32
 1583 0664 A2000000 		.4byte	0xa2
 1584 0668 09       		.byte	0x9
 1585 0669 07       		.uleb128 0x7
 1586 066a 43000000 		.4byte	.LASF90
 1587 066e 0D       		.byte	0xd
 1588 066f 33       		.byte	0x33
 1589 0670 A2000000 		.4byte	0xa2
 1590 0674 0A       		.byte	0xa
 1591 0675 07       		.uleb128 0x7
 1592 0676 EA050000 		.4byte	.LASF91
 1593 067a 0D       		.byte	0xd
 1594 067b 34       		.byte	0x34
 1595 067c A2000000 		.4byte	0xa2
 1596 0680 0B       		.byte	0xb
 1597 0681 07       		.uleb128 0x7
 1598 0682 90060000 		.4byte	.LASF92
 1599 0686 0D       		.byte	0xd
 1600 0687 35       		.byte	0x35
 1601 0688 A2000000 		.4byte	0xa2
 1602 068c 0C       		.byte	0xc
 1603 068d 07       		.uleb128 0x7
 1604 068e CA060000 		.4byte	.LASF93
 1605 0692 0D       		.byte	0xd
 1606 0693 36       		.byte	0x36
 1607 0694 A2000000 		.4byte	0xa2
 1608 0698 0D       		.byte	0xd
 1609 0699 07       		.uleb128 0x7
 1610 069a 00000000 		.4byte	.LASF94
 1611 069e 0D       		.byte	0xd
 1612 069f 37       		.byte	0x37
 1613 06a0 A2000000 		.4byte	0xa2
 1614 06a4 0E       		.byte	0xe
 1615 06a5 07       		.uleb128 0x7
 1616 06a6 6D040000 		.4byte	.LASF95
 1617 06aa 0D       		.byte	0xd
 1618 06ab 38       		.byte	0x38
 1619 06ac A2000000 		.4byte	0xa2
 1620 06b0 0F       		.byte	0xf
 1621 06b1 07       		.uleb128 0x7
 1622 06b2 EA010000 		.4byte	.LASF96
 1623 06b6 0D       		.byte	0xd
ARM GAS  /tmp/ccQGuPHp.s 			page 30


 1624 06b7 39       		.byte	0x39
 1625 06b8 A2000000 		.4byte	0xa2
 1626 06bc 10       		.byte	0x10
 1627 06bd 07       		.uleb128 0x7
 1628 06be BD010000 		.4byte	.LASF97
 1629 06c2 0D       		.byte	0xd
 1630 06c3 3B       		.byte	0x3b
 1631 06c4 A2000000 		.4byte	0xa2
 1632 06c8 11       		.byte	0x11
 1633 06c9 07       		.uleb128 0x7
 1634 06ca FA010000 		.4byte	.LASF98
 1635 06ce 0D       		.byte	0xd
 1636 06cf 3C       		.byte	0x3c
 1637 06d0 A2000000 		.4byte	0xa2
 1638 06d4 12       		.byte	0x12
 1639 06d5 07       		.uleb128 0x7
 1640 06d6 1C040000 		.4byte	.LASF99
 1641 06da 0D       		.byte	0xd
 1642 06db 3D       		.byte	0x3d
 1643 06dc A2000000 		.4byte	0xa2
 1644 06e0 13       		.byte	0x13
 1645 06e1 07       		.uleb128 0x7
 1646 06e2 8A050000 		.4byte	.LASF100
 1647 06e6 0D       		.byte	0xd
 1648 06e7 3E       		.byte	0x3e
 1649 06e8 A2000000 		.4byte	0xa2
 1650 06ec 14       		.byte	0x14
 1651 06ed 07       		.uleb128 0x7
 1652 06ee 69050000 		.4byte	.LASF101
 1653 06f2 0D       		.byte	0xd
 1654 06f3 40       		.byte	0x40
 1655 06f4 A2000000 		.4byte	0xa2
 1656 06f8 15       		.byte	0x15
 1657 06f9 00       		.byte	0
 1658 06fa 15       		.uleb128 0x15
 1659 06fb 01060000 		.4byte	0x601
 1660 06ff 0A070000 		.4byte	0x70a
 1661 0703 16       		.uleb128 0x16
 1662 0704 2C000000 		.4byte	0x2c
 1663 0708 03       		.byte	0x3
 1664 0709 00       		.byte	0
 1665 070a 04       		.uleb128 0x4
 1666 070b 75020000 		.4byte	.LASF102
 1667 070f 0D       		.byte	0xd
 1668 0710 41       		.byte	0x41
 1669 0711 19060000 		.4byte	0x619
 1670 0715 14       		.uleb128 0x14
 1671 0716 0A070000 		.4byte	0x70a
 1672 071a 11       		.uleb128 0x11
 1673 071b 22030000 		.4byte	.LASF103
 1674 071f 0D       		.byte	0xd
 1675 0720 7E       		.byte	0x7e
 1676 0721 15070000 		.4byte	0x715
 1677 0725 09       		.uleb128 0x9
 1678 0726 10       		.byte	0x10
 1679 0727 0E       		.byte	0xe
 1680 0728 71       		.byte	0x71
ARM GAS  /tmp/ccQGuPHp.s 			page 31


 1681 0729 5E070000 		.4byte	0x75e
 1682 072d 07       		.uleb128 0x7
 1683 072e E2020000 		.4byte	.LASF104
 1684 0732 0E       		.byte	0xe
 1685 0733 72       		.byte	0x72
 1686 0734 2D010000 		.4byte	0x12d
 1687 0738 00       		.byte	0
 1688 0739 07       		.uleb128 0x7
 1689 073a CA010000 		.4byte	.LASF105
 1690 073e 0E       		.byte	0xe
 1691 073f 73       		.byte	0x73
 1692 0740 7D020000 		.4byte	0x27d
 1693 0744 04       		.byte	0x4
 1694 0745 07       		.uleb128 0x7
 1695 0746 3B070000 		.4byte	.LASF106
 1696 074a 0E       		.byte	0xe
 1697 074b 74       		.byte	0x74
 1698 074c B9020000 		.4byte	0x2b9
 1699 0750 08       		.byte	0x8
 1700 0751 07       		.uleb128 0x7
 1701 0752 AC060000 		.4byte	.LASF107
 1702 0756 0E       		.byte	0xe
 1703 0757 75       		.byte	0x75
 1704 0758 A2000000 		.4byte	0xa2
 1705 075c 0C       		.byte	0xc
 1706 075d 00       		.byte	0
 1707 075e 04       		.uleb128 0x4
 1708 075f 5E040000 		.4byte	.LASF108
 1709 0763 0E       		.byte	0xe
 1710 0764 76       		.byte	0x76
 1711 0765 25070000 		.4byte	0x725
 1712 0769 17       		.uleb128 0x17
 1713 076a 0804     		.2byte	0x408
 1714 076c 0E       		.byte	0xe
 1715 076d 7B       		.byte	0x7b
 1716 076e 97070000 		.4byte	0x797
 1717 0772 07       		.uleb128 0x7
 1718 0773 B1020000 		.4byte	.LASF109
 1719 0777 0E       		.byte	0xe
 1720 0778 7C       		.byte	0x7c
 1721 0779 2C000000 		.4byte	0x2c
 1722 077d 00       		.byte	0
 1723 077e 07       		.uleb128 0x7
 1724 077f 30040000 		.4byte	.LASF110
 1725 0783 0E       		.byte	0xe
 1726 0784 7D       		.byte	0x7d
 1727 0785 97070000 		.4byte	0x797
 1728 0789 04       		.byte	0x4
 1729 078a 07       		.uleb128 0x7
 1730 078b E7040000 		.4byte	.LASF111
 1731 078f 0E       		.byte	0xe
 1732 0790 7F       		.byte	0x7f
 1733 0791 9D070000 		.4byte	0x79d
 1734 0795 08       		.byte	0x8
 1735 0796 00       		.byte	0
 1736 0797 0A       		.uleb128 0xa
 1737 0798 04       		.byte	0x4
ARM GAS  /tmp/ccQGuPHp.s 			page 32


 1738 0799 5E070000 		.4byte	0x75e
 1739 079d 15       		.uleb128 0x15
 1740 079e 5E070000 		.4byte	0x75e
 1741 07a2 AD070000 		.4byte	0x7ad
 1742 07a6 16       		.uleb128 0x16
 1743 07a7 2C000000 		.4byte	0x2c
 1744 07ab 3F       		.byte	0x3f
 1745 07ac 00       		.byte	0
 1746 07ad 04       		.uleb128 0x4
 1747 07ae 93010000 		.4byte	.LASF112
 1748 07b2 0E       		.byte	0xe
 1749 07b3 80       		.byte	0x80
 1750 07b4 69070000 		.4byte	0x769
 1751 07b8 11       		.uleb128 0x11
 1752 07b9 CE040000 		.4byte	.LASF113
 1753 07bd 0E       		.byte	0xe
 1754 07be 83       		.byte	0x83
 1755 07bf AD070000 		.4byte	0x7ad
 1756 07c3 11       		.uleb128 0x11
 1757 07c4 BF030000 		.4byte	.LASF114
 1758 07c8 0E       		.byte	0xe
 1759 07c9 E2       		.byte	0xe2
 1760 07ca 3D010000 		.4byte	0x13d
 1761 07ce 11       		.uleb128 0x11
 1762 07cf 63060000 		.4byte	.LASF115
 1763 07d3 0E       		.byte	0xe
 1764 07d4 E3       		.byte	0xe3
 1765 07d5 3D010000 		.4byte	0x13d
 1766 07d9 11       		.uleb128 0x11
 1767 07da 35050000 		.4byte	.LASF116
 1768 07de 0E       		.byte	0xe
 1769 07df F5       		.byte	0xf5
 1770 07e0 FB050000 		.4byte	0x5fb
 1771 07e4 18       		.uleb128 0x18
 1772 07e5 BB020000 		.4byte	0x2bb
 1773 07e9 08       		.byte	0x8
 1774 07ea F5070000 		.4byte	0x7f5
 1775 07ee 16       		.uleb128 0x16
 1776 07ef 2C000000 		.4byte	0x2c
 1777 07f3 3A       		.byte	0x3a
 1778 07f4 00       		.byte	0
 1779 07f5 11       		.uleb128 0x11
 1780 07f6 87020000 		.4byte	.LASF117
 1781 07fa 0F       		.byte	0xf
 1782 07fb 89       		.byte	0x89
 1783 07fc E4070000 		.4byte	0x7e4
 1784 0800 19       		.uleb128 0x19
 1785 0801 3F040000 		.4byte	.LASF119
 1786 0805 01       		.byte	0x1
 1787 0806 0E01     		.2byte	0x10e
 1788 0808 17010000 		.4byte	0x117
 1789 080c 00000000 		.4byte	.LFB15
 1790 0810 80000000 		.4byte	.LFE15-.LFB15
 1791 0814 01       		.uleb128 0x1
 1792 0815 9C       		.byte	0x9c
 1793 0816 F8080000 		.4byte	0x8f8
 1794 081a 1A       		.uleb128 0x1a
ARM GAS  /tmp/ccQGuPHp.s 			page 33


 1795 081b 637000   		.ascii	"cp\000"
 1796 081e 01       		.byte	0x1
 1797 081f 0E01     		.2byte	0x10e
 1798 0821 F8080000 		.4byte	0x8f8
 1799 0825 00000000 		.4byte	.LLST20
 1800 0829 1B       		.uleb128 0x1b
 1801 082a 9C040000 		.4byte	.LASF118
 1802 082e 01       		.byte	0x1
 1803 082f 0E01     		.2byte	0x10e
 1804 0831 2D010000 		.4byte	0x12d
 1805 0835 37000000 		.4byte	.LLST21
 1806 0839 1C       		.uleb128 0x1c
 1807 083a 6D7000   		.ascii	"mp\000"
 1808 083d 01       		.byte	0x1
 1809 083e 0F01     		.2byte	0x10f
 1810 0840 13060000 		.4byte	0x613
 1811 0844 55000000 		.4byte	.LLST22
 1812 0848 1C       		.uleb128 0x1c
 1813 0849 6D736700 		.ascii	"msg\000"
 1814 084d 01       		.byte	0x1
 1815 084e 1001     		.2byte	0x110
 1816 0850 17010000 		.4byte	0x117
 1817 0854 7E000000 		.4byte	.LLST23
 1818 0858 1D       		.uleb128 0x1d
 1819 0859 E50C0000 		.4byte	0xce5
 1820 085d 26000000 		.4byte	.LBB28
 1821 0861 50000000 		.4byte	.Ldebug_ranges0+0x50
 1822 0865 01       		.byte	0x1
 1823 0866 1A01     		.2byte	0x11a
 1824 0868 8E080000 		.4byte	0x88e
 1825 086c 1E       		.uleb128 0x1e
 1826 086d FB0C0000 		.4byte	0xcfb
 1827 0871 9C000000 		.4byte	.LLST24
 1828 0875 1E       		.uleb128 0x1e
 1829 0876 F10C0000 		.4byte	0xcf1
 1830 087a C5000000 		.4byte	.LLST25
 1831 087e 1F       		.uleb128 0x1f
 1832 087f 50000000 		.4byte	.Ldebug_ranges0+0x50
 1833 0883 20       		.uleb128 0x20
 1834 0884 060D0000 		.4byte	0xd06
 1835 0888 E3000000 		.4byte	.LLST26
 1836 088c 00       		.byte	0
 1837 088d 00       		.byte	0
 1838 088e 21       		.uleb128 0x21
 1839 088f 0A000000 		.4byte	.LVL58
 1840 0893 110D0000 		.4byte	0xd11
 1841 0897 21       		.uleb128 0x21
 1842 0898 1A000000 		.4byte	.LVL59
 1843 089c 1C0D0000 		.4byte	0xd1c
 1844 08a0 22       		.uleb128 0x22
 1845 08a1 48000000 		.4byte	.LVL66
 1846 08a5 270D0000 		.4byte	0xd27
 1847 08a9 B9080000 		.4byte	0x8b9
 1848 08ad 23       		.uleb128 0x23
 1849 08ae 01       		.uleb128 0x1
 1850 08af 50       		.byte	0x50
 1851 08b0 01       		.uleb128 0x1
ARM GAS  /tmp/ccQGuPHp.s 			page 34


 1852 08b1 35       		.byte	0x35
 1853 08b2 23       		.uleb128 0x23
 1854 08b3 01       		.uleb128 0x1
 1855 08b4 51       		.byte	0x51
 1856 08b5 02       		.uleb128 0x2
 1857 08b6 77       		.byte	0x77
 1858 08b7 00       		.sleb128 0
 1859 08b8 00       		.byte	0
 1860 08b9 22       		.uleb128 0x22
 1861 08ba 54000000 		.4byte	.LVL69
 1862 08be 320D0000 		.4byte	0xd32
 1863 08c2 CD080000 		.4byte	0x8cd
 1864 08c6 23       		.uleb128 0x23
 1865 08c7 01       		.uleb128 0x1
 1866 08c8 50       		.byte	0x50
 1867 08c9 02       		.uleb128 0x2
 1868 08ca 76       		.byte	0x76
 1869 08cb 00       		.sleb128 0
 1870 08cc 00       		.byte	0
 1871 08cd 22       		.uleb128 0x22
 1872 08ce 60000000 		.4byte	.LVL71
 1873 08d2 3D0D0000 		.4byte	0xd3d
 1874 08d6 E4080000 		.4byte	0x8e4
 1875 08da 23       		.uleb128 0x23
 1876 08db 01       		.uleb128 0x1
 1877 08dc 50       		.byte	0x50
 1878 08dd 05       		.uleb128 0x5
 1879 08de 03       		.byte	0x3
 1880 08df 00000000 		.4byte	.LC6
 1881 08e3 00       		.byte	0
 1882 08e4 24       		.uleb128 0x24
 1883 08e5 6E000000 		.4byte	.LVL72
 1884 08e9 3D0D0000 		.4byte	0xd3d
 1885 08ed 23       		.uleb128 0x23
 1886 08ee 01       		.uleb128 0x1
 1887 08ef 50       		.byte	0x50
 1888 08f0 05       		.uleb128 0x5
 1889 08f1 03       		.byte	0x3
 1890 08f2 18000000 		.4byte	.LC7
 1891 08f6 00       		.byte	0
 1892 08f7 00       		.byte	0
 1893 08f8 0A       		.uleb128 0xa
 1894 08f9 04       		.byte	0x4
 1895 08fa BB050000 		.4byte	0x5bb
 1896 08fe 25       		.uleb128 0x25
 1897 08ff DE060000 		.4byte	.LASF120
 1898 0903 01       		.byte	0x1
 1899 0904 E9       		.byte	0xe9
 1900 0905 17010000 		.4byte	0x117
 1901 0909 00000000 		.4byte	.LFB14
 1902 090d 20000000 		.4byte	.LFE14-.LFB14
 1903 0911 01       		.uleb128 0x1
 1904 0912 9C       		.byte	0x9c
 1905 0913 70090000 		.4byte	0x970
 1906 0917 26       		.uleb128 0x26
 1907 0918 637000   		.ascii	"cp\000"
 1908 091b 01       		.byte	0x1
ARM GAS  /tmp/ccQGuPHp.s 			page 35


 1909 091c E9       		.byte	0xe9
 1910 091d F8080000 		.4byte	0x8f8
 1911 0921 0C010000 		.4byte	.LLST27
 1912 0925 27       		.uleb128 0x27
 1913 0926 9C040000 		.4byte	.LASF118
 1914 092a 01       		.byte	0x1
 1915 092b E9       		.byte	0xe9
 1916 092c 2D010000 		.4byte	0x12d
 1917 0930 38010000 		.4byte	.LLST28
 1918 0934 28       		.uleb128 0x28
 1919 0935 6D736700 		.ascii	"msg\000"
 1920 0939 01       		.byte	0x1
 1921 093a EA       		.byte	0xea
 1922 093b 17010000 		.4byte	0x117
 1923 093f 56010000 		.4byte	.LLST29
 1924 0943 21       		.uleb128 0x21
 1925 0944 0C000000 		.4byte	.LVL75
 1926 0948 480D0000 		.4byte	0xd48
 1927 094c 22       		.uleb128 0x22
 1928 094d 14000000 		.4byte	.LVL76
 1929 0951 00080000 		.4byte	0x800
 1930 0955 66090000 		.4byte	0x966
 1931 0959 23       		.uleb128 0x23
 1932 095a 01       		.uleb128 0x1
 1933 095b 50       		.byte	0x50
 1934 095c 02       		.uleb128 0x2
 1935 095d 74       		.byte	0x74
 1936 095e 00       		.sleb128 0
 1937 095f 23       		.uleb128 0x23
 1938 0960 01       		.uleb128 0x1
 1939 0961 51       		.byte	0x51
 1940 0962 02       		.uleb128 0x2
 1941 0963 75       		.byte	0x75
 1942 0964 00       		.sleb128 0
 1943 0965 00       		.byte	0
 1944 0966 21       		.uleb128 0x21
 1945 0967 1A000000 		.4byte	.LVL78
 1946 096b 530D0000 		.4byte	0xd53
 1947 096f 00       		.byte	0
 1948 0970 25       		.uleb128 0x25
 1949 0971 32020000 		.4byte	.LASF121
 1950 0975 01       		.byte	0x1
 1951 0976 B8       		.byte	0xb8
 1952 0977 17010000 		.4byte	0x117
 1953 097b 00000000 		.4byte	.LFB13
 1954 097f 6C000000 		.4byte	.LFE13-.LFB13
 1955 0983 01       		.uleb128 0x1
 1956 0984 9C       		.byte	0x9c
 1957 0985 5C0A0000 		.4byte	0xa5c
 1958 0989 26       		.uleb128 0x26
 1959 098a 637000   		.ascii	"cp\000"
 1960 098d 01       		.byte	0x1
 1961 098e B8       		.byte	0xb8
 1962 098f F8080000 		.4byte	0x8f8
 1963 0993 74010000 		.4byte	.LLST11
 1964 0997 28       		.uleb128 0x28
 1965 0998 63747000 		.ascii	"ctp\000"
ARM GAS  /tmp/ccQGuPHp.s 			page 36


 1966 099c 01       		.byte	0x1
 1967 099d B9       		.byte	0xb9
 1968 099e 7D020000 		.4byte	0x27d
 1969 09a2 BE010000 		.4byte	.LLST12
 1970 09a6 28       		.uleb128 0x28
 1971 09a7 6D7000   		.ascii	"mp\000"
 1972 09aa 01       		.byte	0x1
 1973 09ab BA       		.byte	0xba
 1974 09ac 13060000 		.4byte	0x613
 1975 09b0 DC010000 		.4byte	.LLST13
 1976 09b4 28       		.uleb128 0x28
 1977 09b5 6D736700 		.ascii	"msg\000"
 1978 09b9 01       		.byte	0x1
 1979 09ba BB       		.byte	0xbb
 1980 09bb 17010000 		.4byte	0x117
 1981 09bf FA010000 		.4byte	.LLST14
 1982 09c3 29       		.uleb128 0x29
 1983 09c4 E50C0000 		.4byte	0xce5
 1984 09c8 20000000 		.4byte	.LBB22
 1985 09cc 30000000 		.4byte	.Ldebug_ranges0+0x30
 1986 09d0 01       		.byte	0x1
 1987 09d1 C5       		.byte	0xc5
 1988 09d2 F8090000 		.4byte	0x9f8
 1989 09d6 1E       		.uleb128 0x1e
 1990 09d7 FB0C0000 		.4byte	0xcfb
 1991 09db 0D020000 		.4byte	.LLST15
 1992 09df 1E       		.uleb128 0x1e
 1993 09e0 F10C0000 		.4byte	0xcf1
 1994 09e4 41020000 		.4byte	.LLST16
 1995 09e8 1F       		.uleb128 0x1f
 1996 09e9 30000000 		.4byte	.Ldebug_ranges0+0x30
 1997 09ed 20       		.uleb128 0x20
 1998 09ee 060D0000 		.4byte	0xd06
 1999 09f2 5F020000 		.4byte	.LLST17
 2000 09f6 00       		.byte	0
 2001 09f7 00       		.byte	0
 2002 09f8 21       		.uleb128 0x21
 2003 09f9 0C000000 		.4byte	.LVL35
 2004 09fd 110D0000 		.4byte	0xd11
 2005 0a01 21       		.uleb128 0x21
 2006 0a02 16000000 		.4byte	.LVL36
 2007 0a06 1C0D0000 		.4byte	0xd1c
 2008 0a0a 22       		.uleb128 0x22
 2009 0a0b 40000000 		.4byte	.LVL44
 2010 0a0f 5E0D0000 		.4byte	0xd5e
 2011 0a13 1D0A0000 		.4byte	0xa1d
 2012 0a17 23       		.uleb128 0x23
 2013 0a18 01       		.uleb128 0x1
 2014 0a19 50       		.byte	0x50
 2015 0a1a 01       		.uleb128 0x1
 2016 0a1b 35       		.byte	0x35
 2017 0a1c 00       		.byte	0
 2018 0a1d 22       		.uleb128 0x22
 2019 0a1e 48000000 		.4byte	.LVL46
 2020 0a22 320D0000 		.4byte	0xd32
 2021 0a26 310A0000 		.4byte	0xa31
 2022 0a2a 23       		.uleb128 0x23
ARM GAS  /tmp/ccQGuPHp.s 			page 37


 2023 0a2b 01       		.uleb128 0x1
 2024 0a2c 50       		.byte	0x50
 2025 0a2d 02       		.uleb128 0x2
 2026 0a2e 76       		.byte	0x76
 2027 0a2f 00       		.sleb128 0
 2028 0a30 00       		.byte	0
 2029 0a31 22       		.uleb128 0x22
 2030 0a32 56000000 		.4byte	.LVL50
 2031 0a36 3D0D0000 		.4byte	0xd3d
 2032 0a3a 480A0000 		.4byte	0xa48
 2033 0a3e 23       		.uleb128 0x23
 2034 0a3f 01       		.uleb128 0x1
 2035 0a40 50       		.byte	0x50
 2036 0a41 05       		.uleb128 0x5
 2037 0a42 03       		.byte	0x3
 2038 0a43 10000000 		.4byte	.LC5
 2039 0a47 00       		.byte	0
 2040 0a48 24       		.uleb128 0x24
 2041 0a49 5E000000 		.4byte	.LVL51
 2042 0a4d 3D0D0000 		.4byte	0xd3d
 2043 0a51 23       		.uleb128 0x23
 2044 0a52 01       		.uleb128 0x1
 2045 0a53 50       		.byte	0x50
 2046 0a54 05       		.uleb128 0x5
 2047 0a55 03       		.byte	0x3
 2048 0a56 00000000 		.4byte	.LC4
 2049 0a5a 00       		.byte	0
 2050 0a5b 00       		.byte	0
 2051 0a5c 25       		.uleb128 0x25
 2052 0a5d 26060000 		.4byte	.LASF122
 2053 0a61 01       		.byte	0x1
 2054 0a62 9E       		.byte	0x9e
 2055 0a63 17010000 		.4byte	0x117
 2056 0a67 00000000 		.4byte	.LFB12
 2057 0a6b 1C000000 		.4byte	.LFE12-.LFB12
 2058 0a6f 01       		.uleb128 0x1
 2059 0a70 9C       		.byte	0x9c
 2060 0a71 B90A0000 		.4byte	0xab9
 2061 0a75 26       		.uleb128 0x26
 2062 0a76 637000   		.ascii	"cp\000"
 2063 0a79 01       		.byte	0x1
 2064 0a7a 9E       		.byte	0x9e
 2065 0a7b F8080000 		.4byte	0x8f8
 2066 0a7f 88020000 		.4byte	.LLST18
 2067 0a83 28       		.uleb128 0x28
 2068 0a84 6D736700 		.ascii	"msg\000"
 2069 0a88 01       		.byte	0x1
 2070 0a89 9F       		.byte	0x9f
 2071 0a8a 17010000 		.4byte	0x117
 2072 0a8e B4020000 		.4byte	.LLST19
 2073 0a92 21       		.uleb128 0x21
 2074 0a93 0A000000 		.4byte	.LVL53
 2075 0a97 480D0000 		.4byte	0xd48
 2076 0a9b 22       		.uleb128 0x22
 2077 0a9c 10000000 		.4byte	.LVL54
 2078 0aa0 70090000 		.4byte	0x970
 2079 0aa4 AF0A0000 		.4byte	0xaaf
ARM GAS  /tmp/ccQGuPHp.s 			page 38


 2080 0aa8 23       		.uleb128 0x23
 2081 0aa9 01       		.uleb128 0x1
 2082 0aaa 50       		.byte	0x50
 2083 0aab 02       		.uleb128 0x2
 2084 0aac 74       		.byte	0x74
 2085 0aad 00       		.sleb128 0
 2086 0aae 00       		.byte	0
 2087 0aaf 21       		.uleb128 0x21
 2088 0ab0 16000000 		.4byte	.LVL56
 2089 0ab4 530D0000 		.4byte	0xd53
 2090 0ab8 00       		.byte	0
 2091 0ab9 2A       		.uleb128 0x2a
 2092 0aba A5010000 		.4byte	.LASF123
 2093 0abe 01       		.byte	0x1
 2094 0abf 81       		.byte	0x81
 2095 0ac0 00000000 		.4byte	.LFB11
 2096 0ac4 38000000 		.4byte	.LFE11-.LFB11
 2097 0ac8 01       		.uleb128 0x1
 2098 0ac9 9C       		.byte	0x9c
 2099 0aca 2E0B0000 		.4byte	0xb2e
 2100 0ace 26       		.uleb128 0x26
 2101 0acf 637000   		.ascii	"cp\000"
 2102 0ad2 01       		.byte	0x1
 2103 0ad3 81       		.byte	0x81
 2104 0ad4 F8080000 		.4byte	0x8f8
 2105 0ad8 D2020000 		.4byte	.LLST7
 2106 0adc 29       		.uleb128 0x29
 2107 0add B90C0000 		.4byte	0xcb9
 2108 0ae1 14000000 		.4byte	.LBB18
 2109 0ae5 18000000 		.4byte	.Ldebug_ranges0+0x18
 2110 0ae9 01       		.byte	0x1
 2111 0aea 8A       		.byte	0x8a
 2112 0aeb 080B0000 		.4byte	0xb08
 2113 0aef 1E       		.uleb128 0x1e
 2114 0af0 C90C0000 		.4byte	0xcc9
 2115 0af4 F0020000 		.4byte	.LLST8
 2116 0af8 1F       		.uleb128 0x1f
 2117 0af9 18000000 		.4byte	.Ldebug_ranges0+0x18
 2118 0afd 20       		.uleb128 0x20
 2119 0afe D40C0000 		.4byte	0xcd4
 2120 0b02 03030000 		.4byte	.LLST9
 2121 0b06 00       		.byte	0
 2122 0b07 00       		.byte	0
 2123 0b08 21       		.uleb128 0x21
 2124 0b09 08000000 		.4byte	.LVL22
 2125 0b0d 690D0000 		.4byte	0xd69
 2126 0b11 21       		.uleb128 0x21
 2127 0b12 20000000 		.4byte	.LVL25
 2128 0b16 740D0000 		.4byte	0xd74
 2129 0b1a 24       		.uleb128 0x24
 2130 0b1b 30000000 		.4byte	.LVL27
 2131 0b1f 3D0D0000 		.4byte	0xd3d
 2132 0b23 23       		.uleb128 0x23
 2133 0b24 01       		.uleb128 0x1
 2134 0b25 50       		.byte	0x50
 2135 0b26 05       		.uleb128 0x5
 2136 0b27 03       		.byte	0x3
ARM GAS  /tmp/ccQGuPHp.s 			page 39


 2137 0b28 00000000 		.4byte	.LC3
 2138 0b2c 00       		.byte	0
 2139 0b2d 00       		.byte	0
 2140 0b2e 2A       		.uleb128 0x2a
 2141 0b2f B3040000 		.4byte	.LASF124
 2142 0b33 01       		.byte	0x1
 2143 0b34 6E       		.byte	0x6e
 2144 0b35 00000000 		.4byte	.LFB10
 2145 0b39 1C000000 		.4byte	.LFE10-.LFB10
 2146 0b3d 01       		.uleb128 0x1
 2147 0b3e 9C       		.byte	0x9c
 2148 0b3f 810B0000 		.4byte	0xb81
 2149 0b43 26       		.uleb128 0x26
 2150 0b44 637000   		.ascii	"cp\000"
 2151 0b47 01       		.byte	0x1
 2152 0b48 6E       		.byte	0x6e
 2153 0b49 F8080000 		.4byte	0x8f8
 2154 0b4d 16030000 		.4byte	.LLST10
 2155 0b51 21       		.uleb128 0x21
 2156 0b52 0A000000 		.4byte	.LVL29
 2157 0b56 480D0000 		.4byte	0xd48
 2158 0b5a 22       		.uleb128 0x22
 2159 0b5b 10000000 		.4byte	.LVL30
 2160 0b5f B90A0000 		.4byte	0xab9
 2161 0b63 6E0B0000 		.4byte	0xb6e
 2162 0b67 23       		.uleb128 0x23
 2163 0b68 01       		.uleb128 0x1
 2164 0b69 50       		.byte	0x50
 2165 0b6a 02       		.uleb128 0x2
 2166 0b6b 74       		.byte	0x74
 2167 0b6c 00       		.sleb128 0
 2168 0b6d 00       		.byte	0
 2169 0b6e 21       		.uleb128 0x21
 2170 0b6f 14000000 		.4byte	.LVL31
 2171 0b73 7F0D0000 		.4byte	0xd7f
 2172 0b77 21       		.uleb128 0x21
 2173 0b78 18000000 		.4byte	.LVL32
 2174 0b7c 530D0000 		.4byte	0xd53
 2175 0b80 00       		.byte	0
 2176 0b81 2A       		.uleb128 0x2a
 2177 0b82 0B050000 		.4byte	.LASF125
 2178 0b86 01       		.byte	0x1
 2179 0b87 5E       		.byte	0x5e
 2180 0b88 00000000 		.4byte	.LFB9
 2181 0b8c 2C000000 		.4byte	.LFE9-.LFB9
 2182 0b90 01       		.uleb128 0x1
 2183 0b91 9C       		.byte	0x9c
 2184 0b92 FA0B0000 		.4byte	0xbfa
 2185 0b96 26       		.uleb128 0x26
 2186 0b97 637000   		.ascii	"cp\000"
 2187 0b9a 01       		.byte	0x1
 2188 0b9b 5E       		.byte	0x5e
 2189 0b9c F8080000 		.4byte	0x8f8
 2190 0ba0 34030000 		.4byte	.LLST4
 2191 0ba4 2B       		.uleb128 0x2b
 2192 0ba5 B90C0000 		.4byte	0xcb9
 2193 0ba9 10000000 		.4byte	.LBB16
ARM GAS  /tmp/ccQGuPHp.s 			page 40


 2194 0bad 06000000 		.4byte	.LBE16-.LBB16
 2195 0bb1 01       		.byte	0x1
 2196 0bb2 64       		.byte	0x64
 2197 0bb3 D40B0000 		.4byte	0xbd4
 2198 0bb7 1E       		.uleb128 0x1e
 2199 0bb8 C90C0000 		.4byte	0xcc9
 2200 0bbc 52030000 		.4byte	.LLST5
 2201 0bc0 2C       		.uleb128 0x2c
 2202 0bc1 10000000 		.4byte	.LBB17
 2203 0bc5 06000000 		.4byte	.LBE17-.LBB17
 2204 0bc9 20       		.uleb128 0x20
 2205 0bca D40C0000 		.4byte	0xcd4
 2206 0bce 65030000 		.4byte	.LLST6
 2207 0bd2 00       		.byte	0
 2208 0bd3 00       		.byte	0
 2209 0bd4 21       		.uleb128 0x21
 2210 0bd5 08000000 		.4byte	.LVL15
 2211 0bd9 690D0000 		.4byte	0xd69
 2212 0bdd 21       		.uleb128 0x21
 2213 0bde 1A000000 		.4byte	.LVL18
 2214 0be2 740D0000 		.4byte	0xd74
 2215 0be6 24       		.uleb128 0x24
 2216 0be7 26000000 		.4byte	.LVL20
 2217 0beb 3D0D0000 		.4byte	0xd3d
 2218 0bef 23       		.uleb128 0x23
 2219 0bf0 01       		.uleb128 0x1
 2220 0bf1 50       		.byte	0x50
 2221 0bf2 05       		.uleb128 0x5
 2222 0bf3 03       		.byte	0x3
 2223 0bf4 00000000 		.4byte	.LC2
 2224 0bf8 00       		.byte	0
 2225 0bf9 00       		.byte	0
 2226 0bfa 2A       		.uleb128 0x2a
 2227 0bfb D5020000 		.4byte	.LASF126
 2228 0bff 01       		.byte	0x1
 2229 0c00 49       		.byte	0x49
 2230 0c01 00000000 		.4byte	.LFB8
 2231 0c05 34000000 		.4byte	.LFE8-.LFB8
 2232 0c09 01       		.uleb128 0x1
 2233 0c0a 9C       		.byte	0x9c
 2234 0c0b 820C0000 		.4byte	0xc82
 2235 0c0f 26       		.uleb128 0x26
 2236 0c10 637000   		.ascii	"cp\000"
 2237 0c13 01       		.byte	0x1
 2238 0c14 49       		.byte	0x49
 2239 0c15 F8080000 		.4byte	0x8f8
 2240 0c19 78030000 		.4byte	.LLST1
 2241 0c1d 29       		.uleb128 0x29
 2242 0c1e B90C0000 		.4byte	0xcb9
 2243 0c22 12000000 		.4byte	.LBB12
 2244 0c26 00000000 		.4byte	.Ldebug_ranges0+0
 2245 0c2a 01       		.byte	0x1
 2246 0c2b 4F       		.byte	0x4f
 2247 0c2c 490C0000 		.4byte	0xc49
 2248 0c30 1E       		.uleb128 0x1e
 2249 0c31 C90C0000 		.4byte	0xcc9
 2250 0c35 AC030000 		.4byte	.LLST2
ARM GAS  /tmp/ccQGuPHp.s 			page 41


 2251 0c39 1F       		.uleb128 0x1f
 2252 0c3a 00000000 		.4byte	.Ldebug_ranges0+0
 2253 0c3e 20       		.uleb128 0x20
 2254 0c3f D40C0000 		.4byte	0xcd4
 2255 0c43 BF030000 		.4byte	.LLST3
 2256 0c47 00       		.byte	0
 2257 0c48 00       		.byte	0
 2258 0c49 21       		.uleb128 0x21
 2259 0c4a 0C000000 		.4byte	.LVL6
 2260 0c4e 480D0000 		.4byte	0xd48
 2261 0c52 22       		.uleb128 0x22
 2262 0c53 1E000000 		.4byte	.LVL9
 2263 0c57 8A0D0000 		.4byte	0xd8a
 2264 0c5b 650C0000 		.4byte	0xc65
 2265 0c5f 23       		.uleb128 0x23
 2266 0c60 01       		.uleb128 0x1
 2267 0c61 51       		.byte	0x51
 2268 0c62 01       		.uleb128 0x1
 2269 0c63 30       		.byte	0x30
 2270 0c64 00       		.byte	0
 2271 0c65 21       		.uleb128 0x21
 2272 0c66 22000000 		.4byte	.LVL10
 2273 0c6a 530D0000 		.4byte	0xd53
 2274 0c6e 24       		.uleb128 0x24
 2275 0c6f 2C000000 		.4byte	.LVL13
 2276 0c73 3D0D0000 		.4byte	0xd3d
 2277 0c77 23       		.uleb128 0x23
 2278 0c78 01       		.uleb128 0x1
 2279 0c79 50       		.byte	0x50
 2280 0c7a 05       		.uleb128 0x5
 2281 0c7b 03       		.byte	0x3
 2282 0c7c 00000000 		.4byte	.LC1
 2283 0c80 00       		.byte	0
 2284 0c81 00       		.byte	0
 2285 0c82 2A       		.uleb128 0x2a
 2286 0c83 1E000000 		.4byte	.LASF127
 2287 0c87 01       		.byte	0x1
 2288 0c88 3B       		.byte	0x3b
 2289 0c89 00000000 		.4byte	.LFB7
 2290 0c8d 1C000000 		.4byte	.LFE7-.LFB7
 2291 0c91 01       		.uleb128 0x1
 2292 0c92 9C       		.byte	0x9c
 2293 0c93 B90C0000 		.4byte	0xcb9
 2294 0c97 26       		.uleb128 0x26
 2295 0c98 637000   		.ascii	"cp\000"
 2296 0c9b 01       		.byte	0x1
 2297 0c9c 3B       		.byte	0x3b
 2298 0c9d F8080000 		.4byte	0x8f8
 2299 0ca1 D2030000 		.4byte	.LLST0
 2300 0ca5 24       		.uleb128 0x24
 2301 0ca6 12000000 		.4byte	.LVL2
 2302 0caa 3D0D0000 		.4byte	0xd3d
 2303 0cae 23       		.uleb128 0x23
 2304 0caf 01       		.uleb128 0x1
 2305 0cb0 50       		.byte	0x50
 2306 0cb1 05       		.uleb128 0x5
 2307 0cb2 03       		.byte	0x3
ARM GAS  /tmp/ccQGuPHp.s 			page 42


 2308 0cb3 00000000 		.4byte	.LC0
 2309 0cb7 00       		.byte	0
 2310 0cb8 00       		.byte	0
 2311 0cb9 2D       		.uleb128 0x2d
 2312 0cba 03060000 		.4byte	.LASF144
 2313 0cbe 02       		.byte	0x2
 2314 0cbf 3B       		.byte	0x3b
 2315 0cc0 7D020000 		.4byte	0x27d
 2316 0cc4 03       		.byte	0x3
 2317 0cc5 DF0C0000 		.4byte	0xcdf
 2318 0cc9 2E       		.uleb128 0x2e
 2319 0cca 74717000 		.ascii	"tqp\000"
 2320 0cce 02       		.byte	0x2
 2321 0ccf 3B       		.byte	0x3b
 2322 0cd0 DF0C0000 		.4byte	0xcdf
 2323 0cd4 2F       		.uleb128 0x2f
 2324 0cd5 747000   		.ascii	"tp\000"
 2325 0cd8 02       		.byte	0x2
 2326 0cd9 3C       		.byte	0x3c
 2327 0cda 7D020000 		.4byte	0x27d
 2328 0cde 00       		.byte	0
 2329 0cdf 0A       		.uleb128 0xa
 2330 0ce0 04       		.byte	0x4
 2331 0ce1 83020000 		.4byte	0x283
 2332 0ce5 30       		.uleb128 0x30
 2333 0ce6 57060000 		.4byte	.LASF145
 2334 0cea 02       		.byte	0x2
 2335 0ceb 29       		.byte	0x29
 2336 0cec 03       		.byte	0x3
 2337 0ced 110D0000 		.4byte	0xd11
 2338 0cf1 2E       		.uleb128 0x2e
 2339 0cf2 747000   		.ascii	"tp\000"
 2340 0cf5 02       		.byte	0x2
 2341 0cf6 29       		.byte	0x29
 2342 0cf7 7D020000 		.4byte	0x27d
 2343 0cfb 2E       		.uleb128 0x2e
 2344 0cfc 74717000 		.ascii	"tqp\000"
 2345 0d00 02       		.byte	0x2
 2346 0d01 29       		.byte	0x29
 2347 0d02 DF0C0000 		.4byte	0xcdf
 2348 0d06 2F       		.uleb128 0x2f
 2349 0d07 637000   		.ascii	"cp\000"
 2350 0d0a 02       		.byte	0x2
 2351 0d0b 2B       		.byte	0x2b
 2352 0d0c 7D020000 		.4byte	0x27d
 2353 0d10 00       		.byte	0
 2354 0d11 31       		.uleb128 0x31
 2355 0d12 CB030000 		.4byte	.LASF128
 2356 0d16 CB030000 		.4byte	.LASF128
 2357 0d1a 0E       		.byte	0xe
 2358 0d1b EE       		.byte	0xee
 2359 0d1c 31       		.uleb128 0x31
 2360 0d1d AC050000 		.4byte	.LASF129
 2361 0d21 AC050000 		.4byte	.LASF129
 2362 0d25 0B       		.byte	0xb
 2363 0d26 3E       		.byte	0x3e
 2364 0d27 31       		.uleb128 0x31
ARM GAS  /tmp/ccQGuPHp.s 			page 43


 2365 0d28 FB060000 		.4byte	.LASF130
 2366 0d2c FB060000 		.4byte	.LASF130
 2367 0d30 0A       		.byte	0xa
 2368 0d31 96       		.byte	0x96
 2369 0d32 31       		.uleb128 0x31
 2370 0d33 A1050000 		.4byte	.LASF131
 2371 0d37 A1050000 		.4byte	.LASF131
 2372 0d3b 0B       		.byte	0xb
 2373 0d3c 3A       		.byte	0x3a
 2374 0d3d 31       		.uleb128 0x31
 2375 0d3e 13000000 		.4byte	.LASF132
 2376 0d42 13000000 		.4byte	.LASF132
 2377 0d46 0E       		.byte	0xe
 2378 0d47 F6       		.byte	0xf6
 2379 0d48 31       		.uleb128 0x31
 2380 0d49 FA030000 		.4byte	.LASF133
 2381 0d4d FA030000 		.4byte	.LASF133
 2382 0d51 0E       		.byte	0xe
 2383 0d52 E7       		.byte	0xe7
 2384 0d53 31       		.uleb128 0x31
 2385 0d54 10070000 		.4byte	.LASF134
 2386 0d58 10070000 		.4byte	.LASF134
 2387 0d5c 0E       		.byte	0xe
 2388 0d5d E8       		.byte	0xe8
 2389 0d5e 31       		.uleb128 0x31
 2390 0d5f C8050000 		.4byte	.LASF135
 2391 0d63 C8050000 		.4byte	.LASF135
 2392 0d67 0A       		.byte	0xa
 2393 0d68 93       		.byte	0x93
 2394 0d69 31       		.uleb128 0x31
 2395 0d6a 85030000 		.4byte	.LASF136
 2396 0d6e 85030000 		.4byte	.LASF136
 2397 0d72 0E       		.byte	0xe
 2398 0d73 ED       		.byte	0xed
 2399 0d74 31       		.uleb128 0x31
 2400 0d75 1A060000 		.4byte	.LASF137
 2401 0d79 1A060000 		.4byte	.LASF137
 2402 0d7d 0A       		.byte	0xa
 2403 0d7e 90       		.byte	0x90
 2404 0d7f 31       		.uleb128 0x31
 2405 0d80 A0020000 		.4byte	.LASF138
 2406 0d84 A0020000 		.4byte	.LASF138
 2407 0d88 0A       		.byte	0xa
 2408 0d89 9C       		.byte	0x9c
 2409 0d8a 31       		.uleb128 0x31
 2410 0d8b 6A030000 		.4byte	.LASF139
 2411 0d8f 6A030000 		.4byte	.LASF139
 2412 0d93 0A       		.byte	0xa
 2413 0d94 99       		.byte	0x99
 2414 0d95 00       		.byte	0
 2415              		.section	.debug_abbrev,"",%progbits
 2416              	.Ldebug_abbrev0:
 2417 0000 01       		.uleb128 0x1
 2418 0001 11       		.uleb128 0x11
 2419 0002 01       		.byte	0x1
 2420 0003 25       		.uleb128 0x25
 2421 0004 0E       		.uleb128 0xe
ARM GAS  /tmp/ccQGuPHp.s 			page 44


 2422 0005 13       		.uleb128 0x13
 2423 0006 0B       		.uleb128 0xb
 2424 0007 03       		.uleb128 0x3
 2425 0008 0E       		.uleb128 0xe
 2426 0009 1B       		.uleb128 0x1b
 2427 000a 0E       		.uleb128 0xe
 2428 000b 55       		.uleb128 0x55
 2429 000c 17       		.uleb128 0x17
 2430 000d 11       		.uleb128 0x11
 2431 000e 01       		.uleb128 0x1
 2432 000f 10       		.uleb128 0x10
 2433 0010 17       		.uleb128 0x17
 2434 0011 00       		.byte	0
 2435 0012 00       		.byte	0
 2436 0013 02       		.uleb128 0x2
 2437 0014 24       		.uleb128 0x24
 2438 0015 00       		.byte	0
 2439 0016 0B       		.uleb128 0xb
 2440 0017 0B       		.uleb128 0xb
 2441 0018 3E       		.uleb128 0x3e
 2442 0019 0B       		.uleb128 0xb
 2443 001a 03       		.uleb128 0x3
 2444 001b 08       		.uleb128 0x8
 2445 001c 00       		.byte	0
 2446 001d 00       		.byte	0
 2447 001e 03       		.uleb128 0x3
 2448 001f 24       		.uleb128 0x24
 2449 0020 00       		.byte	0
 2450 0021 0B       		.uleb128 0xb
 2451 0022 0B       		.uleb128 0xb
 2452 0023 3E       		.uleb128 0x3e
 2453 0024 0B       		.uleb128 0xb
 2454 0025 03       		.uleb128 0x3
 2455 0026 0E       		.uleb128 0xe
 2456 0027 00       		.byte	0
 2457 0028 00       		.byte	0
 2458 0029 04       		.uleb128 0x4
 2459 002a 16       		.uleb128 0x16
 2460 002b 00       		.byte	0
 2461 002c 03       		.uleb128 0x3
 2462 002d 0E       		.uleb128 0xe
 2463 002e 3A       		.uleb128 0x3a
 2464 002f 0B       		.uleb128 0xb
 2465 0030 3B       		.uleb128 0x3b
 2466 0031 0B       		.uleb128 0xb
 2467 0032 49       		.uleb128 0x49
 2468 0033 13       		.uleb128 0x13
 2469 0034 00       		.byte	0
 2470 0035 00       		.byte	0
 2471 0036 05       		.uleb128 0x5
 2472 0037 35       		.uleb128 0x35
 2473 0038 00       		.byte	0
 2474 0039 49       		.uleb128 0x49
 2475 003a 13       		.uleb128 0x13
 2476 003b 00       		.byte	0
 2477 003c 00       		.byte	0
 2478 003d 06       		.uleb128 0x6
ARM GAS  /tmp/ccQGuPHp.s 			page 45


 2479 003e 13       		.uleb128 0x13
 2480 003f 01       		.byte	0x1
 2481 0040 03       		.uleb128 0x3
 2482 0041 0E       		.uleb128 0xe
 2483 0042 0B       		.uleb128 0xb
 2484 0043 0B       		.uleb128 0xb
 2485 0044 3A       		.uleb128 0x3a
 2486 0045 0B       		.uleb128 0xb
 2487 0046 3B       		.uleb128 0x3b
 2488 0047 0B       		.uleb128 0xb
 2489 0048 01       		.uleb128 0x1
 2490 0049 13       		.uleb128 0x13
 2491 004a 00       		.byte	0
 2492 004b 00       		.byte	0
 2493 004c 07       		.uleb128 0x7
 2494 004d 0D       		.uleb128 0xd
 2495 004e 00       		.byte	0
 2496 004f 03       		.uleb128 0x3
 2497 0050 0E       		.uleb128 0xe
 2498 0051 3A       		.uleb128 0x3a
 2499 0052 0B       		.uleb128 0xb
 2500 0053 3B       		.uleb128 0x3b
 2501 0054 0B       		.uleb128 0xb
 2502 0055 49       		.uleb128 0x49
 2503 0056 13       		.uleb128 0x13
 2504 0057 38       		.uleb128 0x38
 2505 0058 0B       		.uleb128 0xb
 2506 0059 00       		.byte	0
 2507 005a 00       		.byte	0
 2508 005b 08       		.uleb128 0x8
 2509 005c 0D       		.uleb128 0xd
 2510 005d 00       		.byte	0
 2511 005e 03       		.uleb128 0x3
 2512 005f 08       		.uleb128 0x8
 2513 0060 3A       		.uleb128 0x3a
 2514 0061 0B       		.uleb128 0xb
 2515 0062 3B       		.uleb128 0x3b
 2516 0063 0B       		.uleb128 0xb
 2517 0064 49       		.uleb128 0x49
 2518 0065 13       		.uleb128 0x13
 2519 0066 38       		.uleb128 0x38
 2520 0067 0B       		.uleb128 0xb
 2521 0068 00       		.byte	0
 2522 0069 00       		.byte	0
 2523 006a 09       		.uleb128 0x9
 2524 006b 13       		.uleb128 0x13
 2525 006c 01       		.byte	0x1
 2526 006d 0B       		.uleb128 0xb
 2527 006e 0B       		.uleb128 0xb
 2528 006f 3A       		.uleb128 0x3a
 2529 0070 0B       		.uleb128 0xb
 2530 0071 3B       		.uleb128 0x3b
 2531 0072 0B       		.uleb128 0xb
 2532 0073 01       		.uleb128 0x1
 2533 0074 13       		.uleb128 0x13
 2534 0075 00       		.byte	0
 2535 0076 00       		.byte	0
ARM GAS  /tmp/ccQGuPHp.s 			page 46


 2536 0077 0A       		.uleb128 0xa
 2537 0078 0F       		.uleb128 0xf
 2538 0079 00       		.byte	0
 2539 007a 0B       		.uleb128 0xb
 2540 007b 0B       		.uleb128 0xb
 2541 007c 49       		.uleb128 0x49
 2542 007d 13       		.uleb128 0x13
 2543 007e 00       		.byte	0
 2544 007f 00       		.byte	0
 2545 0080 0B       		.uleb128 0xb
 2546 0081 0F       		.uleb128 0xf
 2547 0082 00       		.byte	0
 2548 0083 0B       		.uleb128 0xb
 2549 0084 0B       		.uleb128 0xb
 2550 0085 00       		.byte	0
 2551 0086 00       		.byte	0
 2552 0087 0C       		.uleb128 0xc
 2553 0088 16       		.uleb128 0x16
 2554 0089 00       		.byte	0
 2555 008a 03       		.uleb128 0x3
 2556 008b 0E       		.uleb128 0xe
 2557 008c 3A       		.uleb128 0x3a
 2558 008d 0B       		.uleb128 0xb
 2559 008e 3B       		.uleb128 0x3b
 2560 008f 0B       		.uleb128 0xb
 2561 0090 49       		.uleb128 0x49
 2562 0091 13       		.uleb128 0x13
 2563 0092 8801     		.uleb128 0x88
 2564 0094 0B       		.uleb128 0xb
 2565 0095 00       		.byte	0
 2566 0096 00       		.byte	0
 2567 0097 0D       		.uleb128 0xd
 2568 0098 13       		.uleb128 0x13
 2569 0099 01       		.byte	0x1
 2570 009a 03       		.uleb128 0x3
 2571 009b 0E       		.uleb128 0xe
 2572 009c 0B       		.uleb128 0xb
 2573 009d 0B       		.uleb128 0xb
 2574 009e 3A       		.uleb128 0x3a
 2575 009f 0B       		.uleb128 0xb
 2576 00a0 3B       		.uleb128 0x3b
 2577 00a1 05       		.uleb128 0x5
 2578 00a2 01       		.uleb128 0x1
 2579 00a3 13       		.uleb128 0x13
 2580 00a4 00       		.byte	0
 2581 00a5 00       		.byte	0
 2582 00a6 0E       		.uleb128 0xe
 2583 00a7 0D       		.uleb128 0xd
 2584 00a8 00       		.byte	0
 2585 00a9 03       		.uleb128 0x3
 2586 00aa 08       		.uleb128 0x8
 2587 00ab 3A       		.uleb128 0x3a
 2588 00ac 0B       		.uleb128 0xb
 2589 00ad 3B       		.uleb128 0x3b
 2590 00ae 05       		.uleb128 0x5
 2591 00af 49       		.uleb128 0x49
 2592 00b0 13       		.uleb128 0x13
ARM GAS  /tmp/ccQGuPHp.s 			page 47


 2593 00b1 38       		.uleb128 0x38
 2594 00b2 0B       		.uleb128 0xb
 2595 00b3 00       		.byte	0
 2596 00b4 00       		.byte	0
 2597 00b5 0F       		.uleb128 0xf
 2598 00b6 15       		.uleb128 0x15
 2599 00b7 01       		.byte	0x1
 2600 00b8 27       		.uleb128 0x27
 2601 00b9 19       		.uleb128 0x19
 2602 00ba 01       		.uleb128 0x1
 2603 00bb 13       		.uleb128 0x13
 2604 00bc 00       		.byte	0
 2605 00bd 00       		.byte	0
 2606 00be 10       		.uleb128 0x10
 2607 00bf 05       		.uleb128 0x5
 2608 00c0 00       		.byte	0
 2609 00c1 49       		.uleb128 0x49
 2610 00c2 13       		.uleb128 0x13
 2611 00c3 00       		.byte	0
 2612 00c4 00       		.byte	0
 2613 00c5 11       		.uleb128 0x11
 2614 00c6 34       		.uleb128 0x34
 2615 00c7 00       		.byte	0
 2616 00c8 03       		.uleb128 0x3
 2617 00c9 0E       		.uleb128 0xe
 2618 00ca 3A       		.uleb128 0x3a
 2619 00cb 0B       		.uleb128 0xb
 2620 00cc 3B       		.uleb128 0x3b
 2621 00cd 0B       		.uleb128 0xb
 2622 00ce 49       		.uleb128 0x49
 2623 00cf 13       		.uleb128 0x13
 2624 00d0 3F       		.uleb128 0x3f
 2625 00d1 19       		.uleb128 0x19
 2626 00d2 3C       		.uleb128 0x3c
 2627 00d3 19       		.uleb128 0x19
 2628 00d4 00       		.byte	0
 2629 00d5 00       		.byte	0
 2630 00d6 12       		.uleb128 0x12
 2631 00d7 17       		.uleb128 0x17
 2632 00d8 01       		.byte	0x1
 2633 00d9 0B       		.uleb128 0xb
 2634 00da 0B       		.uleb128 0xb
 2635 00db 3A       		.uleb128 0x3a
 2636 00dc 0B       		.uleb128 0xb
 2637 00dd 3B       		.uleb128 0x3b
 2638 00de 0B       		.uleb128 0xb
 2639 00df 01       		.uleb128 0x1
 2640 00e0 13       		.uleb128 0x13
 2641 00e1 00       		.byte	0
 2642 00e2 00       		.byte	0
 2643 00e3 13       		.uleb128 0x13
 2644 00e4 0D       		.uleb128 0xd
 2645 00e5 00       		.byte	0
 2646 00e6 03       		.uleb128 0x3
 2647 00e7 0E       		.uleb128 0xe
 2648 00e8 3A       		.uleb128 0x3a
 2649 00e9 0B       		.uleb128 0xb
ARM GAS  /tmp/ccQGuPHp.s 			page 48


 2650 00ea 3B       		.uleb128 0x3b
 2651 00eb 0B       		.uleb128 0xb
 2652 00ec 49       		.uleb128 0x49
 2653 00ed 13       		.uleb128 0x13
 2654 00ee 00       		.byte	0
 2655 00ef 00       		.byte	0
 2656 00f0 14       		.uleb128 0x14
 2657 00f1 26       		.uleb128 0x26
 2658 00f2 00       		.byte	0
 2659 00f3 49       		.uleb128 0x49
 2660 00f4 13       		.uleb128 0x13
 2661 00f5 00       		.byte	0
 2662 00f6 00       		.byte	0
 2663 00f7 15       		.uleb128 0x15
 2664 00f8 01       		.uleb128 0x1
 2665 00f9 01       		.byte	0x1
 2666 00fa 49       		.uleb128 0x49
 2667 00fb 13       		.uleb128 0x13
 2668 00fc 01       		.uleb128 0x1
 2669 00fd 13       		.uleb128 0x13
 2670 00fe 00       		.byte	0
 2671 00ff 00       		.byte	0
 2672 0100 16       		.uleb128 0x16
 2673 0101 21       		.uleb128 0x21
 2674 0102 00       		.byte	0
 2675 0103 49       		.uleb128 0x49
 2676 0104 13       		.uleb128 0x13
 2677 0105 2F       		.uleb128 0x2f
 2678 0106 0B       		.uleb128 0xb
 2679 0107 00       		.byte	0
 2680 0108 00       		.byte	0
 2681 0109 17       		.uleb128 0x17
 2682 010a 13       		.uleb128 0x13
 2683 010b 01       		.byte	0x1
 2684 010c 0B       		.uleb128 0xb
 2685 010d 05       		.uleb128 0x5
 2686 010e 3A       		.uleb128 0x3a
 2687 010f 0B       		.uleb128 0xb
 2688 0110 3B       		.uleb128 0x3b
 2689 0111 0B       		.uleb128 0xb
 2690 0112 01       		.uleb128 0x1
 2691 0113 13       		.uleb128 0x13
 2692 0114 00       		.byte	0
 2693 0115 00       		.byte	0
 2694 0116 18       		.uleb128 0x18
 2695 0117 01       		.uleb128 0x1
 2696 0118 01       		.byte	0x1
 2697 0119 49       		.uleb128 0x49
 2698 011a 13       		.uleb128 0x13
 2699 011b 8801     		.uleb128 0x88
 2700 011d 0B       		.uleb128 0xb
 2701 011e 01       		.uleb128 0x1
 2702 011f 13       		.uleb128 0x13
 2703 0120 00       		.byte	0
 2704 0121 00       		.byte	0
 2705 0122 19       		.uleb128 0x19
 2706 0123 2E       		.uleb128 0x2e
ARM GAS  /tmp/ccQGuPHp.s 			page 49


 2707 0124 01       		.byte	0x1
 2708 0125 3F       		.uleb128 0x3f
 2709 0126 19       		.uleb128 0x19
 2710 0127 03       		.uleb128 0x3
 2711 0128 0E       		.uleb128 0xe
 2712 0129 3A       		.uleb128 0x3a
 2713 012a 0B       		.uleb128 0xb
 2714 012b 3B       		.uleb128 0x3b
 2715 012c 05       		.uleb128 0x5
 2716 012d 27       		.uleb128 0x27
 2717 012e 19       		.uleb128 0x19
 2718 012f 49       		.uleb128 0x49
 2719 0130 13       		.uleb128 0x13
 2720 0131 11       		.uleb128 0x11
 2721 0132 01       		.uleb128 0x1
 2722 0133 12       		.uleb128 0x12
 2723 0134 06       		.uleb128 0x6
 2724 0135 40       		.uleb128 0x40
 2725 0136 18       		.uleb128 0x18
 2726 0137 9742     		.uleb128 0x2117
 2727 0139 19       		.uleb128 0x19
 2728 013a 01       		.uleb128 0x1
 2729 013b 13       		.uleb128 0x13
 2730 013c 00       		.byte	0
 2731 013d 00       		.byte	0
 2732 013e 1A       		.uleb128 0x1a
 2733 013f 05       		.uleb128 0x5
 2734 0140 00       		.byte	0
 2735 0141 03       		.uleb128 0x3
 2736 0142 08       		.uleb128 0x8
 2737 0143 3A       		.uleb128 0x3a
 2738 0144 0B       		.uleb128 0xb
 2739 0145 3B       		.uleb128 0x3b
 2740 0146 05       		.uleb128 0x5
 2741 0147 49       		.uleb128 0x49
 2742 0148 13       		.uleb128 0x13
 2743 0149 02       		.uleb128 0x2
 2744 014a 17       		.uleb128 0x17
 2745 014b 00       		.byte	0
 2746 014c 00       		.byte	0
 2747 014d 1B       		.uleb128 0x1b
 2748 014e 05       		.uleb128 0x5
 2749 014f 00       		.byte	0
 2750 0150 03       		.uleb128 0x3
 2751 0151 0E       		.uleb128 0xe
 2752 0152 3A       		.uleb128 0x3a
 2753 0153 0B       		.uleb128 0xb
 2754 0154 3B       		.uleb128 0x3b
 2755 0155 05       		.uleb128 0x5
 2756 0156 49       		.uleb128 0x49
 2757 0157 13       		.uleb128 0x13
 2758 0158 02       		.uleb128 0x2
 2759 0159 17       		.uleb128 0x17
 2760 015a 00       		.byte	0
 2761 015b 00       		.byte	0
 2762 015c 1C       		.uleb128 0x1c
 2763 015d 34       		.uleb128 0x34
ARM GAS  /tmp/ccQGuPHp.s 			page 50


 2764 015e 00       		.byte	0
 2765 015f 03       		.uleb128 0x3
 2766 0160 08       		.uleb128 0x8
 2767 0161 3A       		.uleb128 0x3a
 2768 0162 0B       		.uleb128 0xb
 2769 0163 3B       		.uleb128 0x3b
 2770 0164 05       		.uleb128 0x5
 2771 0165 49       		.uleb128 0x49
 2772 0166 13       		.uleb128 0x13
 2773 0167 02       		.uleb128 0x2
 2774 0168 17       		.uleb128 0x17
 2775 0169 00       		.byte	0
 2776 016a 00       		.byte	0
 2777 016b 1D       		.uleb128 0x1d
 2778 016c 1D       		.uleb128 0x1d
 2779 016d 01       		.byte	0x1
 2780 016e 31       		.uleb128 0x31
 2781 016f 13       		.uleb128 0x13
 2782 0170 52       		.uleb128 0x52
 2783 0171 01       		.uleb128 0x1
 2784 0172 55       		.uleb128 0x55
 2785 0173 17       		.uleb128 0x17
 2786 0174 58       		.uleb128 0x58
 2787 0175 0B       		.uleb128 0xb
 2788 0176 59       		.uleb128 0x59
 2789 0177 05       		.uleb128 0x5
 2790 0178 01       		.uleb128 0x1
 2791 0179 13       		.uleb128 0x13
 2792 017a 00       		.byte	0
 2793 017b 00       		.byte	0
 2794 017c 1E       		.uleb128 0x1e
 2795 017d 05       		.uleb128 0x5
 2796 017e 00       		.byte	0
 2797 017f 31       		.uleb128 0x31
 2798 0180 13       		.uleb128 0x13
 2799 0181 02       		.uleb128 0x2
 2800 0182 17       		.uleb128 0x17
 2801 0183 00       		.byte	0
 2802 0184 00       		.byte	0
 2803 0185 1F       		.uleb128 0x1f
 2804 0186 0B       		.uleb128 0xb
 2805 0187 01       		.byte	0x1
 2806 0188 55       		.uleb128 0x55
 2807 0189 17       		.uleb128 0x17
 2808 018a 00       		.byte	0
 2809 018b 00       		.byte	0
 2810 018c 20       		.uleb128 0x20
 2811 018d 34       		.uleb128 0x34
 2812 018e 00       		.byte	0
 2813 018f 31       		.uleb128 0x31
 2814 0190 13       		.uleb128 0x13
 2815 0191 02       		.uleb128 0x2
 2816 0192 17       		.uleb128 0x17
 2817 0193 00       		.byte	0
 2818 0194 00       		.byte	0
 2819 0195 21       		.uleb128 0x21
 2820 0196 898201   		.uleb128 0x4109
ARM GAS  /tmp/ccQGuPHp.s 			page 51


 2821 0199 00       		.byte	0
 2822 019a 11       		.uleb128 0x11
 2823 019b 01       		.uleb128 0x1
 2824 019c 31       		.uleb128 0x31
 2825 019d 13       		.uleb128 0x13
 2826 019e 00       		.byte	0
 2827 019f 00       		.byte	0
 2828 01a0 22       		.uleb128 0x22
 2829 01a1 898201   		.uleb128 0x4109
 2830 01a4 01       		.byte	0x1
 2831 01a5 11       		.uleb128 0x11
 2832 01a6 01       		.uleb128 0x1
 2833 01a7 31       		.uleb128 0x31
 2834 01a8 13       		.uleb128 0x13
 2835 01a9 01       		.uleb128 0x1
 2836 01aa 13       		.uleb128 0x13
 2837 01ab 00       		.byte	0
 2838 01ac 00       		.byte	0
 2839 01ad 23       		.uleb128 0x23
 2840 01ae 8A8201   		.uleb128 0x410a
 2841 01b1 00       		.byte	0
 2842 01b2 02       		.uleb128 0x2
 2843 01b3 18       		.uleb128 0x18
 2844 01b4 9142     		.uleb128 0x2111
 2845 01b6 18       		.uleb128 0x18
 2846 01b7 00       		.byte	0
 2847 01b8 00       		.byte	0
 2848 01b9 24       		.uleb128 0x24
 2849 01ba 898201   		.uleb128 0x4109
 2850 01bd 01       		.byte	0x1
 2851 01be 11       		.uleb128 0x11
 2852 01bf 01       		.uleb128 0x1
 2853 01c0 31       		.uleb128 0x31
 2854 01c1 13       		.uleb128 0x13
 2855 01c2 00       		.byte	0
 2856 01c3 00       		.byte	0
 2857 01c4 25       		.uleb128 0x25
 2858 01c5 2E       		.uleb128 0x2e
 2859 01c6 01       		.byte	0x1
 2860 01c7 3F       		.uleb128 0x3f
 2861 01c8 19       		.uleb128 0x19
 2862 01c9 03       		.uleb128 0x3
 2863 01ca 0E       		.uleb128 0xe
 2864 01cb 3A       		.uleb128 0x3a
 2865 01cc 0B       		.uleb128 0xb
 2866 01cd 3B       		.uleb128 0x3b
 2867 01ce 0B       		.uleb128 0xb
 2868 01cf 27       		.uleb128 0x27
 2869 01d0 19       		.uleb128 0x19
 2870 01d1 49       		.uleb128 0x49
 2871 01d2 13       		.uleb128 0x13
 2872 01d3 11       		.uleb128 0x11
 2873 01d4 01       		.uleb128 0x1
 2874 01d5 12       		.uleb128 0x12
 2875 01d6 06       		.uleb128 0x6
 2876 01d7 40       		.uleb128 0x40
 2877 01d8 18       		.uleb128 0x18
ARM GAS  /tmp/ccQGuPHp.s 			page 52


 2878 01d9 9742     		.uleb128 0x2117
 2879 01db 19       		.uleb128 0x19
 2880 01dc 01       		.uleb128 0x1
 2881 01dd 13       		.uleb128 0x13
 2882 01de 00       		.byte	0
 2883 01df 00       		.byte	0
 2884 01e0 26       		.uleb128 0x26
 2885 01e1 05       		.uleb128 0x5
 2886 01e2 00       		.byte	0
 2887 01e3 03       		.uleb128 0x3
 2888 01e4 08       		.uleb128 0x8
 2889 01e5 3A       		.uleb128 0x3a
 2890 01e6 0B       		.uleb128 0xb
 2891 01e7 3B       		.uleb128 0x3b
 2892 01e8 0B       		.uleb128 0xb
 2893 01e9 49       		.uleb128 0x49
 2894 01ea 13       		.uleb128 0x13
 2895 01eb 02       		.uleb128 0x2
 2896 01ec 17       		.uleb128 0x17
 2897 01ed 00       		.byte	0
 2898 01ee 00       		.byte	0
 2899 01ef 27       		.uleb128 0x27
 2900 01f0 05       		.uleb128 0x5
 2901 01f1 00       		.byte	0
 2902 01f2 03       		.uleb128 0x3
 2903 01f3 0E       		.uleb128 0xe
 2904 01f4 3A       		.uleb128 0x3a
 2905 01f5 0B       		.uleb128 0xb
 2906 01f6 3B       		.uleb128 0x3b
 2907 01f7 0B       		.uleb128 0xb
 2908 01f8 49       		.uleb128 0x49
 2909 01f9 13       		.uleb128 0x13
 2910 01fa 02       		.uleb128 0x2
 2911 01fb 17       		.uleb128 0x17
 2912 01fc 00       		.byte	0
 2913 01fd 00       		.byte	0
 2914 01fe 28       		.uleb128 0x28
 2915 01ff 34       		.uleb128 0x34
 2916 0200 00       		.byte	0
 2917 0201 03       		.uleb128 0x3
 2918 0202 08       		.uleb128 0x8
 2919 0203 3A       		.uleb128 0x3a
 2920 0204 0B       		.uleb128 0xb
 2921 0205 3B       		.uleb128 0x3b
 2922 0206 0B       		.uleb128 0xb
 2923 0207 49       		.uleb128 0x49
 2924 0208 13       		.uleb128 0x13
 2925 0209 02       		.uleb128 0x2
 2926 020a 17       		.uleb128 0x17
 2927 020b 00       		.byte	0
 2928 020c 00       		.byte	0
 2929 020d 29       		.uleb128 0x29
 2930 020e 1D       		.uleb128 0x1d
 2931 020f 01       		.byte	0x1
 2932 0210 31       		.uleb128 0x31
 2933 0211 13       		.uleb128 0x13
 2934 0212 52       		.uleb128 0x52
ARM GAS  /tmp/ccQGuPHp.s 			page 53


 2935 0213 01       		.uleb128 0x1
 2936 0214 55       		.uleb128 0x55
 2937 0215 17       		.uleb128 0x17
 2938 0216 58       		.uleb128 0x58
 2939 0217 0B       		.uleb128 0xb
 2940 0218 59       		.uleb128 0x59
 2941 0219 0B       		.uleb128 0xb
 2942 021a 01       		.uleb128 0x1
 2943 021b 13       		.uleb128 0x13
 2944 021c 00       		.byte	0
 2945 021d 00       		.byte	0
 2946 021e 2A       		.uleb128 0x2a
 2947 021f 2E       		.uleb128 0x2e
 2948 0220 01       		.byte	0x1
 2949 0221 3F       		.uleb128 0x3f
 2950 0222 19       		.uleb128 0x19
 2951 0223 03       		.uleb128 0x3
 2952 0224 0E       		.uleb128 0xe
 2953 0225 3A       		.uleb128 0x3a
 2954 0226 0B       		.uleb128 0xb
 2955 0227 3B       		.uleb128 0x3b
 2956 0228 0B       		.uleb128 0xb
 2957 0229 27       		.uleb128 0x27
 2958 022a 19       		.uleb128 0x19
 2959 022b 11       		.uleb128 0x11
 2960 022c 01       		.uleb128 0x1
 2961 022d 12       		.uleb128 0x12
 2962 022e 06       		.uleb128 0x6
 2963 022f 40       		.uleb128 0x40
 2964 0230 18       		.uleb128 0x18
 2965 0231 9742     		.uleb128 0x2117
 2966 0233 19       		.uleb128 0x19
 2967 0234 01       		.uleb128 0x1
 2968 0235 13       		.uleb128 0x13
 2969 0236 00       		.byte	0
 2970 0237 00       		.byte	0
 2971 0238 2B       		.uleb128 0x2b
 2972 0239 1D       		.uleb128 0x1d
 2973 023a 01       		.byte	0x1
 2974 023b 31       		.uleb128 0x31
 2975 023c 13       		.uleb128 0x13
 2976 023d 11       		.uleb128 0x11
 2977 023e 01       		.uleb128 0x1
 2978 023f 12       		.uleb128 0x12
 2979 0240 06       		.uleb128 0x6
 2980 0241 58       		.uleb128 0x58
 2981 0242 0B       		.uleb128 0xb
 2982 0243 59       		.uleb128 0x59
 2983 0244 0B       		.uleb128 0xb
 2984 0245 01       		.uleb128 0x1
 2985 0246 13       		.uleb128 0x13
 2986 0247 00       		.byte	0
 2987 0248 00       		.byte	0
 2988 0249 2C       		.uleb128 0x2c
 2989 024a 0B       		.uleb128 0xb
 2990 024b 01       		.byte	0x1
 2991 024c 11       		.uleb128 0x11
ARM GAS  /tmp/ccQGuPHp.s 			page 54


 2992 024d 01       		.uleb128 0x1
 2993 024e 12       		.uleb128 0x12
 2994 024f 06       		.uleb128 0x6
 2995 0250 00       		.byte	0
 2996 0251 00       		.byte	0
 2997 0252 2D       		.uleb128 0x2d
 2998 0253 2E       		.uleb128 0x2e
 2999 0254 01       		.byte	0x1
 3000 0255 03       		.uleb128 0x3
 3001 0256 0E       		.uleb128 0xe
 3002 0257 3A       		.uleb128 0x3a
 3003 0258 0B       		.uleb128 0xb
 3004 0259 3B       		.uleb128 0x3b
 3005 025a 0B       		.uleb128 0xb
 3006 025b 27       		.uleb128 0x27
 3007 025c 19       		.uleb128 0x19
 3008 025d 49       		.uleb128 0x49
 3009 025e 13       		.uleb128 0x13
 3010 025f 20       		.uleb128 0x20
 3011 0260 0B       		.uleb128 0xb
 3012 0261 01       		.uleb128 0x1
 3013 0262 13       		.uleb128 0x13
 3014 0263 00       		.byte	0
 3015 0264 00       		.byte	0
 3016 0265 2E       		.uleb128 0x2e
 3017 0266 05       		.uleb128 0x5
 3018 0267 00       		.byte	0
 3019 0268 03       		.uleb128 0x3
 3020 0269 08       		.uleb128 0x8
 3021 026a 3A       		.uleb128 0x3a
 3022 026b 0B       		.uleb128 0xb
 3023 026c 3B       		.uleb128 0x3b
 3024 026d 0B       		.uleb128 0xb
 3025 026e 49       		.uleb128 0x49
 3026 026f 13       		.uleb128 0x13
 3027 0270 00       		.byte	0
 3028 0271 00       		.byte	0
 3029 0272 2F       		.uleb128 0x2f
 3030 0273 34       		.uleb128 0x34
 3031 0274 00       		.byte	0
 3032 0275 03       		.uleb128 0x3
 3033 0276 08       		.uleb128 0x8
 3034 0277 3A       		.uleb128 0x3a
 3035 0278 0B       		.uleb128 0xb
 3036 0279 3B       		.uleb128 0x3b
 3037 027a 0B       		.uleb128 0xb
 3038 027b 49       		.uleb128 0x49
 3039 027c 13       		.uleb128 0x13
 3040 027d 00       		.byte	0
 3041 027e 00       		.byte	0
 3042 027f 30       		.uleb128 0x30
 3043 0280 2E       		.uleb128 0x2e
 3044 0281 01       		.byte	0x1
 3045 0282 03       		.uleb128 0x3
 3046 0283 0E       		.uleb128 0xe
 3047 0284 3A       		.uleb128 0x3a
 3048 0285 0B       		.uleb128 0xb
ARM GAS  /tmp/ccQGuPHp.s 			page 55


 3049 0286 3B       		.uleb128 0x3b
 3050 0287 0B       		.uleb128 0xb
 3051 0288 27       		.uleb128 0x27
 3052 0289 19       		.uleb128 0x19
 3053 028a 20       		.uleb128 0x20
 3054 028b 0B       		.uleb128 0xb
 3055 028c 01       		.uleb128 0x1
 3056 028d 13       		.uleb128 0x13
 3057 028e 00       		.byte	0
 3058 028f 00       		.byte	0
 3059 0290 31       		.uleb128 0x31
 3060 0291 2E       		.uleb128 0x2e
 3061 0292 00       		.byte	0
 3062 0293 3F       		.uleb128 0x3f
 3063 0294 19       		.uleb128 0x19
 3064 0295 3C       		.uleb128 0x3c
 3065 0296 19       		.uleb128 0x19
 3066 0297 6E       		.uleb128 0x6e
 3067 0298 0E       		.uleb128 0xe
 3068 0299 03       		.uleb128 0x3
 3069 029a 0E       		.uleb128 0xe
 3070 029b 3A       		.uleb128 0x3a
 3071 029c 0B       		.uleb128 0xb
 3072 029d 3B       		.uleb128 0x3b
 3073 029e 0B       		.uleb128 0xb
 3074 029f 00       		.byte	0
 3075 02a0 00       		.byte	0
 3076 02a1 00       		.byte	0
 3077              		.section	.debug_loc,"",%progbits
 3078              	.Ldebug_loc0:
 3079              	.LLST20:
 3080 0000 00000000 		.4byte	.LVL57
 3081 0004 09000000 		.4byte	.LVL58-1
 3082 0008 0100     		.2byte	0x1
 3083 000a 50       		.byte	0x50
 3084 000b 09000000 		.4byte	.LVL58-1
 3085 000f 4C000000 		.4byte	.LVL67
 3086 0013 0100     		.2byte	0x1
 3087 0015 54       		.byte	0x54
 3088 0016 4C000000 		.4byte	.LVL67
 3089 001a 58000000 		.4byte	.LVL70
 3090 001e 0400     		.2byte	0x4
 3091 0020 F3       		.byte	0xf3
 3092 0021 01       		.uleb128 0x1
 3093 0022 50       		.byte	0x50
 3094 0023 9F       		.byte	0x9f
 3095 0024 58000000 		.4byte	.LVL70
 3096 0028 80000000 		.4byte	.LFE15
 3097 002c 0100     		.2byte	0x1
 3098 002e 54       		.byte	0x54
 3099 002f 00000000 		.4byte	0
 3100 0033 00000000 		.4byte	0
 3101              	.LLST21:
 3102 0037 00000000 		.4byte	.LVL57
 3103 003b 09000000 		.4byte	.LVL58-1
 3104 003f 0100     		.2byte	0x1
 3105 0041 51       		.byte	0x51
ARM GAS  /tmp/ccQGuPHp.s 			page 56


 3106 0042 09000000 		.4byte	.LVL58-1
 3107 0046 80000000 		.4byte	.LFE15
 3108 004a 0100     		.2byte	0x1
 3109 004c 57       		.byte	0x57
 3110 004d 00000000 		.4byte	0
 3111 0051 00000000 		.4byte	0
 3112              	.LLST22:
 3113 0055 1E000000 		.4byte	.LVL60
 3114 0059 26000000 		.4byte	.LVL62
 3115 005d 0100     		.2byte	0x1
 3116 005f 50       		.byte	0x50
 3117 0060 26000000 		.4byte	.LVL62
 3118 0064 58000000 		.4byte	.LVL70
 3119 0068 0100     		.2byte	0x1
 3120 006a 56       		.byte	0x56
 3121 006b 70000000 		.4byte	.LVL73
 3122 006f 80000000 		.4byte	.LFE15
 3123 0073 0100     		.2byte	0x1
 3124 0075 56       		.byte	0x56
 3125 0076 00000000 		.4byte	0
 3126 007a 00000000 		.4byte	0
 3127              	.LLST23:
 3128 007e 4C000000 		.4byte	.LVL67
 3129 0082 50000000 		.4byte	.LVL68
 3130 0086 0100     		.2byte	0x1
 3131 0088 50       		.byte	0x50
 3132 0089 50000000 		.4byte	.LVL68
 3133 008d 58000000 		.4byte	.LVL70
 3134 0091 0100     		.2byte	0x1
 3135 0093 54       		.byte	0x54
 3136 0094 00000000 		.4byte	0
 3137 0098 00000000 		.4byte	0
 3138              	.LLST24:
 3139 009c 20000000 		.4byte	.LVL61
 3140 00a0 26000000 		.4byte	.LVL62
 3141 00a4 0100     		.2byte	0x1
 3142 00a6 55       		.byte	0x55
 3143 00a7 26000000 		.4byte	.LVL62
 3144 00ab 42000000 		.4byte	.LVL65
 3145 00af 0100     		.2byte	0x1
 3146 00b1 54       		.byte	0x54
 3147 00b2 70000000 		.4byte	.LVL73
 3148 00b6 80000000 		.4byte	.LFE15
 3149 00ba 0100     		.2byte	0x1
 3150 00bc 54       		.byte	0x54
 3151 00bd 00000000 		.4byte	0
 3152 00c1 00000000 		.4byte	0
 3153              	.LLST25:
 3154 00c5 20000000 		.4byte	.LVL61
 3155 00c9 42000000 		.4byte	.LVL65
 3156 00cd 0100     		.2byte	0x1
 3157 00cf 52       		.byte	0x52
 3158 00d0 70000000 		.4byte	.LVL73
 3159 00d4 80000000 		.4byte	.LFE15
 3160 00d8 0100     		.2byte	0x1
 3161 00da 52       		.byte	0x52
 3162 00db 00000000 		.4byte	0
ARM GAS  /tmp/ccQGuPHp.s 			page 57


 3163 00df 00000000 		.4byte	0
 3164              	.LLST26:
 3165 00e3 20000000 		.4byte	.LVL61
 3166 00e7 26000000 		.4byte	.LVL62
 3167 00eb 0100     		.2byte	0x1
 3168 00ed 55       		.byte	0x55
 3169 00ee 26000000 		.4byte	.LVL62
 3170 00f2 36000000 		.4byte	.LVL64
 3171 00f6 0100     		.2byte	0x1
 3172 00f8 53       		.byte	0x53
 3173 00f9 70000000 		.4byte	.LVL73
 3174 00fd 80000000 		.4byte	.LFE15
 3175 0101 0100     		.2byte	0x1
 3176 0103 53       		.byte	0x53
 3177 0104 00000000 		.4byte	0
 3178 0108 00000000 		.4byte	0
 3179              	.LLST27:
 3180 010c 00000000 		.4byte	.LVL74
 3181 0110 0B000000 		.4byte	.LVL75-1
 3182 0114 0100     		.2byte	0x1
 3183 0116 50       		.byte	0x50
 3184 0117 0B000000 		.4byte	.LVL75-1
 3185 011b 16000000 		.4byte	.LVL77
 3186 011f 0100     		.2byte	0x1
 3187 0121 54       		.byte	0x54
 3188 0122 16000000 		.4byte	.LVL77
 3189 0126 20000000 		.4byte	.LFE14
 3190 012a 0400     		.2byte	0x4
 3191 012c F3       		.byte	0xf3
 3192 012d 01       		.uleb128 0x1
 3193 012e 50       		.byte	0x50
 3194 012f 9F       		.byte	0x9f
 3195 0130 00000000 		.4byte	0
 3196 0134 00000000 		.4byte	0
 3197              	.LLST28:
 3198 0138 00000000 		.4byte	.LVL74
 3199 013c 0B000000 		.4byte	.LVL75-1
 3200 0140 0100     		.2byte	0x1
 3201 0142 51       		.byte	0x51
 3202 0143 0B000000 		.4byte	.LVL75-1
 3203 0147 20000000 		.4byte	.LFE14
 3204 014b 0100     		.2byte	0x1
 3205 014d 55       		.byte	0x55
 3206 014e 00000000 		.4byte	0
 3207 0152 00000000 		.4byte	0
 3208              	.LLST29:
 3209 0156 16000000 		.4byte	.LVL77
 3210 015a 19000000 		.4byte	.LVL78-1
 3211 015e 0100     		.2byte	0x1
 3212 0160 50       		.byte	0x50
 3213 0161 19000000 		.4byte	.LVL78-1
 3214 0165 20000000 		.4byte	.LFE14
 3215 0169 0100     		.2byte	0x1
 3216 016b 54       		.byte	0x54
 3217 016c 00000000 		.4byte	0
 3218 0170 00000000 		.4byte	0
 3219              	.LLST11:
ARM GAS  /tmp/ccQGuPHp.s 			page 58


 3220 0174 00000000 		.4byte	.LVL33
 3221 0178 0B000000 		.4byte	.LVL35-1
 3222 017c 0100     		.2byte	0x1
 3223 017e 50       		.byte	0x50
 3224 017f 0B000000 		.4byte	.LVL35-1
 3225 0183 20000000 		.4byte	.LVL39
 3226 0187 0100     		.2byte	0x1
 3227 0189 55       		.byte	0x55
 3228 018a 20000000 		.4byte	.LVL39
 3229 018e 2E000000 		.4byte	.LVL41
 3230 0192 0100     		.2byte	0x1
 3231 0194 50       		.byte	0x50
 3232 0195 2E000000 		.4byte	.LVL41
 3233 0199 4C000000 		.4byte	.LVL47
 3234 019d 0100     		.2byte	0x1
 3235 019f 55       		.byte	0x55
 3236 01a0 4C000000 		.4byte	.LVL47
 3237 01a4 4E000000 		.4byte	.LVL48
 3238 01a8 0100     		.2byte	0x1
 3239 01aa 50       		.byte	0x50
 3240 01ab 4E000000 		.4byte	.LVL48
 3241 01af 6C000000 		.4byte	.LFE13
 3242 01b3 0100     		.2byte	0x1
 3243 01b5 55       		.byte	0x55
 3244 01b6 00000000 		.4byte	0
 3245 01ba 00000000 		.4byte	0
 3246              	.LLST12:
 3247 01be 08000000 		.4byte	.LVL34
 3248 01c2 42000000 		.4byte	.LVL45
 3249 01c6 0100     		.2byte	0x1
 3250 01c8 54       		.byte	0x54
 3251 01c9 4C000000 		.4byte	.LVL47
 3252 01cd 6C000000 		.4byte	.LFE13
 3253 01d1 0100     		.2byte	0x1
 3254 01d3 54       		.byte	0x54
 3255 01d4 00000000 		.4byte	0
 3256 01d8 00000000 		.4byte	0
 3257              	.LLST13:
 3258 01dc 1A000000 		.4byte	.LVL37
 3259 01e0 1E000000 		.4byte	.LVL38
 3260 01e4 0100     		.2byte	0x1
 3261 01e6 50       		.byte	0x50
 3262 01e7 1E000000 		.4byte	.LVL38
 3263 01eb 50000000 		.4byte	.LVL49
 3264 01ef 0100     		.2byte	0x1
 3265 01f1 56       		.byte	0x56
 3266 01f2 00000000 		.4byte	0
 3267 01f6 00000000 		.4byte	0
 3268              	.LLST14:
 3269 01fa 42000000 		.4byte	.LVL45
 3270 01fe 4C000000 		.4byte	.LVL47
 3271 0202 0100     		.2byte	0x1
 3272 0204 54       		.byte	0x54
 3273 0205 00000000 		.4byte	0
 3274 0209 00000000 		.4byte	0
 3275              	.LLST15:
 3276 020d 1E000000 		.4byte	.LVL38
ARM GAS  /tmp/ccQGuPHp.s 			page 59


 3277 0211 2E000000 		.4byte	.LVL41
 3278 0215 0100     		.2byte	0x1
 3279 0217 50       		.byte	0x50
 3280 0218 2E000000 		.4byte	.LVL41
 3281 021c 3C000000 		.4byte	.LVL43
 3282 0220 0100     		.2byte	0x1
 3283 0222 55       		.byte	0x55
 3284 0223 4C000000 		.4byte	.LVL47
 3285 0227 4E000000 		.4byte	.LVL48
 3286 022b 0100     		.2byte	0x1
 3287 022d 50       		.byte	0x50
 3288 022e 4E000000 		.4byte	.LVL48
 3289 0232 50000000 		.4byte	.LVL49
 3290 0236 0100     		.2byte	0x1
 3291 0238 55       		.byte	0x55
 3292 0239 00000000 		.4byte	0
 3293 023d 00000000 		.4byte	0
 3294              	.LLST16:
 3295 0241 1E000000 		.4byte	.LVL38
 3296 0245 3C000000 		.4byte	.LVL43
 3297 0249 0100     		.2byte	0x1
 3298 024b 54       		.byte	0x54
 3299 024c 4C000000 		.4byte	.LVL47
 3300 0250 50000000 		.4byte	.LVL49
 3301 0254 0100     		.2byte	0x1
 3302 0256 54       		.byte	0x54
 3303 0257 00000000 		.4byte	0
 3304 025b 00000000 		.4byte	0
 3305              	.LLST17:
 3306 025f 1E000000 		.4byte	.LVL38
 3307 0263 20000000 		.4byte	.LVL39
 3308 0267 0100     		.2byte	0x1
 3309 0269 50       		.byte	0x50
 3310 026a 20000000 		.4byte	.LVL39
 3311 026e 30000000 		.4byte	.LVL42
 3312 0272 0100     		.2byte	0x1
 3313 0274 53       		.byte	0x53
 3314 0275 4C000000 		.4byte	.LVL47
 3315 0279 50000000 		.4byte	.LVL49
 3316 027d 0100     		.2byte	0x1
 3317 027f 53       		.byte	0x53
 3318 0280 00000000 		.4byte	0
 3319 0284 00000000 		.4byte	0
 3320              	.LLST18:
 3321 0288 00000000 		.4byte	.LVL52
 3322 028c 09000000 		.4byte	.LVL53-1
 3323 0290 0100     		.2byte	0x1
 3324 0292 50       		.byte	0x50
 3325 0293 09000000 		.4byte	.LVL53-1
 3326 0297 12000000 		.4byte	.LVL55
 3327 029b 0100     		.2byte	0x1
 3328 029d 54       		.byte	0x54
 3329 029e 12000000 		.4byte	.LVL55
 3330 02a2 1C000000 		.4byte	.LFE12
 3331 02a6 0400     		.2byte	0x4
 3332 02a8 F3       		.byte	0xf3
 3333 02a9 01       		.uleb128 0x1
ARM GAS  /tmp/ccQGuPHp.s 			page 60


 3334 02aa 50       		.byte	0x50
 3335 02ab 9F       		.byte	0x9f
 3336 02ac 00000000 		.4byte	0
 3337 02b0 00000000 		.4byte	0
 3338              	.LLST19:
 3339 02b4 12000000 		.4byte	.LVL55
 3340 02b8 15000000 		.4byte	.LVL56-1
 3341 02bc 0100     		.2byte	0x1
 3342 02be 50       		.byte	0x50
 3343 02bf 15000000 		.4byte	.LVL56-1
 3344 02c3 1C000000 		.4byte	.LFE12
 3345 02c7 0100     		.2byte	0x1
 3346 02c9 54       		.byte	0x54
 3347 02ca 00000000 		.4byte	0
 3348 02ce 00000000 		.4byte	0
 3349              	.LLST7:
 3350 02d2 00000000 		.4byte	.LVL21
 3351 02d6 07000000 		.4byte	.LVL22-1
 3352 02da 0100     		.2byte	0x1
 3353 02dc 50       		.byte	0x50
 3354 02dd 07000000 		.4byte	.LVL22-1
 3355 02e1 38000000 		.4byte	.LFE11
 3356 02e5 0100     		.2byte	0x1
 3357 02e7 54       		.byte	0x54
 3358 02e8 00000000 		.4byte	0
 3359 02ec 00000000 		.4byte	0
 3360              	.LLST8:
 3361 02f0 14000000 		.4byte	.LVL23
 3362 02f4 1C000000 		.4byte	.LVL24
 3363 02f8 0100     		.2byte	0x1
 3364 02fa 54       		.byte	0x54
 3365 02fb 00000000 		.4byte	0
 3366 02ff 00000000 		.4byte	0
 3367              	.LLST9:
 3368 0303 14000000 		.4byte	.LVL23
 3369 0307 1C000000 		.4byte	.LVL24
 3370 030b 0100     		.2byte	0x1
 3371 030d 53       		.byte	0x53
 3372 030e 00000000 		.4byte	0
 3373 0312 00000000 		.4byte	0
 3374              	.LLST10:
 3375 0316 00000000 		.4byte	.LVL28
 3376 031a 09000000 		.4byte	.LVL29-1
 3377 031e 0100     		.2byte	0x1
 3378 0320 50       		.byte	0x50
 3379 0321 09000000 		.4byte	.LVL29-1
 3380 0325 1C000000 		.4byte	.LFE10
 3381 0329 0100     		.2byte	0x1
 3382 032b 54       		.byte	0x54
 3383 032c 00000000 		.4byte	0
 3384 0330 00000000 		.4byte	0
 3385              	.LLST4:
 3386 0334 00000000 		.4byte	.LVL14
 3387 0338 07000000 		.4byte	.LVL15-1
 3388 033c 0100     		.2byte	0x1
 3389 033e 50       		.byte	0x50
 3390 033f 07000000 		.4byte	.LVL15-1
ARM GAS  /tmp/ccQGuPHp.s 			page 61


 3391 0343 2C000000 		.4byte	.LFE9
 3392 0347 0100     		.2byte	0x1
 3393 0349 54       		.byte	0x54
 3394 034a 00000000 		.4byte	0
 3395 034e 00000000 		.4byte	0
 3396              	.LLST5:
 3397 0352 10000000 		.4byte	.LVL16
 3398 0356 16000000 		.4byte	.LVL17
 3399 035a 0100     		.2byte	0x1
 3400 035c 54       		.byte	0x54
 3401 035d 00000000 		.4byte	0
 3402 0361 00000000 		.4byte	0
 3403              	.LLST6:
 3404 0365 10000000 		.4byte	.LVL16
 3405 0369 16000000 		.4byte	.LVL17
 3406 036d 0100     		.2byte	0x1
 3407 036f 50       		.byte	0x50
 3408 0370 00000000 		.4byte	0
 3409 0374 00000000 		.4byte	0
 3410              	.LLST1:
 3411 0378 00000000 		.4byte	.LVL4
 3412 037c 06000000 		.4byte	.LVL5
 3413 0380 0100     		.2byte	0x1
 3414 0382 50       		.byte	0x50
 3415 0383 06000000 		.4byte	.LVL5
 3416 0387 26000000 		.4byte	.LVL11
 3417 038b 0100     		.2byte	0x1
 3418 038d 54       		.byte	0x54
 3419 038e 26000000 		.4byte	.LVL11
 3420 0392 28000000 		.4byte	.LVL12
 3421 0396 0100     		.2byte	0x1
 3422 0398 50       		.byte	0x50
 3423 0399 28000000 		.4byte	.LVL12
 3424 039d 34000000 		.4byte	.LFE8
 3425 03a1 0100     		.2byte	0x1
 3426 03a3 54       		.byte	0x54
 3427 03a4 00000000 		.4byte	0
 3428 03a8 00000000 		.4byte	0
 3429              	.LLST2:
 3430 03ac 12000000 		.4byte	.LVL7
 3431 03b0 1A000000 		.4byte	.LVL8
 3432 03b4 0100     		.2byte	0x1
 3433 03b6 54       		.byte	0x54
 3434 03b7 00000000 		.4byte	0
 3435 03bb 00000000 		.4byte	0
 3436              	.LLST3:
 3437 03bf 12000000 		.4byte	.LVL7
 3438 03c3 1A000000 		.4byte	.LVL8
 3439 03c7 0100     		.2byte	0x1
 3440 03c9 50       		.byte	0x50
 3441 03ca 00000000 		.4byte	0
 3442 03ce 00000000 		.4byte	0
 3443              	.LLST0:
 3444 03d2 00000000 		.4byte	.LVL0
 3445 03d6 0E000000 		.4byte	.LVL1
 3446 03da 0100     		.2byte	0x1
 3447 03dc 50       		.byte	0x50
ARM GAS  /tmp/ccQGuPHp.s 			page 62


 3448 03dd 0E000000 		.4byte	.LVL1
 3449 03e1 18000000 		.4byte	.LVL3
 3450 03e5 0100     		.2byte	0x1
 3451 03e7 54       		.byte	0x54
 3452 03e8 18000000 		.4byte	.LVL3
 3453 03ec 1C000000 		.4byte	.LFE7
 3454 03f0 0400     		.2byte	0x4
 3455 03f2 F3       		.byte	0xf3
 3456 03f3 01       		.uleb128 0x1
 3457 03f4 50       		.byte	0x50
 3458 03f5 9F       		.byte	0x9f
 3459 03f6 00000000 		.4byte	0
 3460 03fa 00000000 		.4byte	0
 3461              		.section	.debug_aranges,"",%progbits
 3462 0000 5C000000 		.4byte	0x5c
 3463 0004 0200     		.2byte	0x2
 3464 0006 00000000 		.4byte	.Ldebug_info0
 3465 000a 04       		.byte	0x4
 3466 000b 00       		.byte	0
 3467 000c 0000     		.2byte	0
 3468 000e 0000     		.2byte	0
 3469 0010 00000000 		.4byte	.LFB7
 3470 0014 1C000000 		.4byte	.LFE7-.LFB7
 3471 0018 00000000 		.4byte	.LFB8
 3472 001c 34000000 		.4byte	.LFE8-.LFB8
 3473 0020 00000000 		.4byte	.LFB9
 3474 0024 2C000000 		.4byte	.LFE9-.LFB9
 3475 0028 00000000 		.4byte	.LFB11
 3476 002c 38000000 		.4byte	.LFE11-.LFB11
 3477 0030 00000000 		.4byte	.LFB10
 3478 0034 1C000000 		.4byte	.LFE10-.LFB10
 3479 0038 00000000 		.4byte	.LFB13
 3480 003c 6C000000 		.4byte	.LFE13-.LFB13
 3481 0040 00000000 		.4byte	.LFB12
 3482 0044 1C000000 		.4byte	.LFE12-.LFB12
 3483 0048 00000000 		.4byte	.LFB15
 3484 004c 80000000 		.4byte	.LFE15-.LFB15
 3485 0050 00000000 		.4byte	.LFB14
 3486 0054 20000000 		.4byte	.LFE14-.LFB14
 3487 0058 00000000 		.4byte	0
 3488 005c 00000000 		.4byte	0
 3489              		.section	.debug_ranges,"",%progbits
 3490              	.Ldebug_ranges0:
 3491 0000 12000000 		.4byte	.LBB12
 3492 0004 16000000 		.4byte	.LBE12
 3493 0008 18000000 		.4byte	.LBB15
 3494 000c 1A000000 		.4byte	.LBE15
 3495 0010 00000000 		.4byte	0
 3496 0014 00000000 		.4byte	0
 3497 0018 14000000 		.4byte	.LBB18
 3498 001c 18000000 		.4byte	.LBE18
 3499 0020 1A000000 		.4byte	.LBB21
 3500 0024 1C000000 		.4byte	.LBE21
 3501 0028 00000000 		.4byte	0
 3502 002c 00000000 		.4byte	0
 3503 0030 20000000 		.4byte	.LBB22
 3504 0034 38000000 		.4byte	.LBE22
ARM GAS  /tmp/ccQGuPHp.s 			page 63


 3505 0038 3A000000 		.4byte	.LBB26
 3506 003c 3C000000 		.4byte	.LBE26
 3507 0040 4C000000 		.4byte	.LBB27
 3508 0044 50000000 		.4byte	.LBE27
 3509 0048 00000000 		.4byte	0
 3510 004c 00000000 		.4byte	0
 3511 0050 26000000 		.4byte	.LBB28
 3512 0054 3E000000 		.4byte	.LBE28
 3513 0058 40000000 		.4byte	.LBB32
 3514 005c 42000000 		.4byte	.LBE32
 3515 0060 70000000 		.4byte	.LBB33
 3516 0064 80000000 		.4byte	.LBE33
 3517 0068 00000000 		.4byte	0
 3518 006c 00000000 		.4byte	0
 3519 0070 00000000 		.4byte	.LFB7
 3520 0074 1C000000 		.4byte	.LFE7
 3521 0078 00000000 		.4byte	.LFB8
 3522 007c 34000000 		.4byte	.LFE8
 3523 0080 00000000 		.4byte	.LFB9
 3524 0084 2C000000 		.4byte	.LFE9
 3525 0088 00000000 		.4byte	.LFB11
 3526 008c 38000000 		.4byte	.LFE11
 3527 0090 00000000 		.4byte	.LFB10
 3528 0094 1C000000 		.4byte	.LFE10
 3529 0098 00000000 		.4byte	.LFB13
 3530 009c 6C000000 		.4byte	.LFE13
 3531 00a0 00000000 		.4byte	.LFB12
 3532 00a4 1C000000 		.4byte	.LFE12
 3533 00a8 00000000 		.4byte	.LFB15
 3534 00ac 80000000 		.4byte	.LFE15
 3535 00b0 00000000 		.4byte	.LFB14
 3536 00b4 20000000 		.4byte	.LFE14
 3537 00b8 00000000 		.4byte	0
 3538 00bc 00000000 		.4byte	0
 3539              		.section	.debug_line,"",%progbits
 3540              	.Ldebug_line0:
 3541 0000 1B030000 		.section	.debug_str,"MS",%progbits,1
 3541      02007901 
 3541      00000201 
 3541      FB0E0D00 
 3541      01010101 
 3542              	.LASF94:
 3543 0000 63665F6F 		.ascii	"cf_off_older\000"
 3543      66665F6F 
 3543      6C646572 
 3543      00
 3544              	.LASF45:
 3545 000d 705F6D73 		.ascii	"p_msg\000"
 3545      6700
 3546              	.LASF132:
 3547 0013 63684462 		.ascii	"chDbgPanic\000"
 3547      6750616E 
 3547      696300
 3548              	.LASF127:
 3549 001e 6368436F 		.ascii	"chCondInit\000"
 3549      6E64496E 
 3549      697400
ARM GAS  /tmp/ccQGuPHp.s 			page 64


 3550              	.LASF79:
 3551 0029 7264796D 		.ascii	"rdymsg\000"
 3551      736700
 3552              	.LASF18:
 3553 0030 75696E74 		.ascii	"uint64_t\000"
 3553      36345F74 
 3553      00
 3554              	.LASF4:
 3555 0039 5F5F7569 		.ascii	"__uint8_t\000"
 3555      6E74385F 
 3555      7400
 3556              	.LASF90:
 3557 0043 63685F74 		.ascii	"ch_threadsize\000"
 3557      68726561 
 3557      6473697A 
 3557      6500
 3558              	.LASF71:
 3559 0051 76746C69 		.ascii	"vtlist\000"
 3559      737400
 3560              	.LASF140:
 3561 0058 474E5520 		.ascii	"GNU C99 7.3.1 20180622 (release) [ARM/embedded-7-br"
 3561      43393920 
 3561      372E332E 
 3561      31203230 
 3561      31383036 
 3562 008b 616E6368 		.ascii	"anch revision 261907] -mcpu=cortex-m4 -mfloat-abi=h"
 3562      20726576 
 3562      6973696F 
 3562      6E203236 
 3562      31393037 
 3563 00be 61726420 		.ascii	"ard -mfpu=fpv4-sp-d16 -mno-thumb-interwork -mthumb "
 3563      2D6D6670 
 3563      753D6670 
 3563      76342D73 
 3563      702D6431 
 3564 00f1 2D676764 		.ascii	"-ggdb -O2 -std=gnu99 -fomit-frame-pointer -falign-f"
 3564      62202D4F 
 3564      32202D73 
 3564      74643D67 
 3564      6E753939 
 3565 0124 756E6374 		.ascii	"unctions=16 -ffunction-sections -fdata-sections -fn"
 3565      696F6E73 
 3565      3D313620 
 3565      2D666675 
 3565      6E637469 
 3566 0157 6F2D636F 		.ascii	"o-common -fsingle-precision-constant\000"
 3566      6D6D6F6E 
 3566      202D6673 
 3566      696E676C 
 3566      652D7072 
 3567              	.LASF13:
 3568 017c 6C6F6E67 		.ascii	"long long unsigned int\000"
 3568      206C6F6E 
 3568      6720756E 
 3568      7369676E 
 3568      65642069 
 3569              	.LASF112:
ARM GAS  /tmp/ccQGuPHp.s 			page 65


 3570 0193 63685F74 		.ascii	"ch_trace_buffer_t\000"
 3570      72616365 
 3570      5F627566 
 3570      6665725F 
 3570      7400
 3571              	.LASF123:
 3572 01a5 6368436F 		.ascii	"chCondBroadcastI\000"
 3572      6E644272 
 3572      6F616463 
 3572      61737449 
 3572      00
 3573              	.LASF32:
 3574 01b6 705F7072 		.ascii	"p_prio\000"
 3574      696F00
 3575              	.LASF97:
 3576 01bd 63665F6F 		.ascii	"cf_off_state\000"
 3576      66665F73 
 3576      74617465 
 3576      00
 3577              	.LASF105:
 3578 01ca 73655F74 		.ascii	"se_tp\000"
 3578      7000
 3579              	.LASF11:
 3580 01d0 6C6F6E67 		.ascii	"long long int\000"
 3580      206C6F6E 
 3580      6720696E 
 3580      7400
 3581              	.LASF1:
 3582 01de 7369676E 		.ascii	"signed char\000"
 3582      65642063 
 3582      68617200 
 3583              	.LASF96:
 3584 01ea 63665F6F 		.ascii	"cf_off_stklimit\000"
 3584      66665F73 
 3584      746B6C69 
 3584      6D697400 
 3585              	.LASF98:
 3586 01fa 63665F6F 		.ascii	"cf_off_flags\000"
 3586      66665F66 
 3586      6C616773 
 3586      00
 3587              	.LASF49:
 3588 0207 705F6D70 		.ascii	"p_mpool\000"
 3588      6F6F6C00 
 3589              	.LASF74:
 3590 020f 6D5F7175 		.ascii	"m_queue\000"
 3590      65756500 
 3591              	.LASF23:
 3592 0217 74736C69 		.ascii	"tslices_t\000"
 3592      6365735F 
 3592      7400
 3593              	.LASF77:
 3594 0221 436F6E64 		.ascii	"CondVar\000"
 3594      56617200 
 3595              	.LASF8:
 3596 0229 6C6F6E67 		.ascii	"long int\000"
 3596      20696E74 
ARM GAS  /tmp/ccQGuPHp.s 			page 66


 3596      00
 3597              	.LASF121:
 3598 0232 6368436F 		.ascii	"chCondWaitS\000"
 3598      6E645761 
 3598      69745300 
 3599              	.LASF21:
 3600 023e 74737461 		.ascii	"tstate_t\000"
 3600      74655F74 
 3600      00
 3601              	.LASF141:
 3602 0247 43686962 		.ascii	"ChibiOS_2.6.6/os/kernel/src/chcond.c\000"
 3602      694F535F 
 3602      322E362E 
 3602      362F6F73 
 3602      2F6B6572 
 3603              	.LASF15:
 3604 026c 75696E74 		.ascii	"uint16_t\000"
 3604      31365F74 
 3604      00
 3605              	.LASF102:
 3606 0275 63686465 		.ascii	"chdebug_t\000"
 3606      6275675F 
 3606      7400
 3607              	.LASF34:
 3608 027f 705F6E65 		.ascii	"p_newer\000"
 3608      77657200 
 3609              	.LASF117:
 3610 0287 5F69646C 		.ascii	"_idle_thread_wa\000"
 3610      655F7468 
 3610      72656164 
 3610      5F776100 
 3611              	.LASF80:
 3612 0297 65786974 		.ascii	"exitcode\000"
 3612      636F6465 
 3612      00
 3613              	.LASF138:
 3614 02a0 63685363 		.ascii	"chSchRescheduleS\000"
 3614      68526573 
 3614      63686564 
 3614      756C6553 
 3614      00
 3615              	.LASF109:
 3616 02b1 74625F73 		.ascii	"tb_size\000"
 3616      697A6500 
 3617              	.LASF9:
 3618 02b9 5F5F7569 		.ascii	"__uint32_t\000"
 3618      6E743332 
 3618      5F7400
 3619              	.LASF52:
 3620 02c4 72656761 		.ascii	"regarm_t\000"
 3620      726D5F74 
 3620      00
 3621              	.LASF58:
 3622 02cd 76745F70 		.ascii	"vt_prev\000"
 3622      72657600 
 3623              	.LASF126:
 3624 02d5 6368436F 		.ascii	"chCondSignal\000"
ARM GAS  /tmp/ccQGuPHp.s 			page 67


 3624      6E645369 
 3624      676E616C 
 3624      00
 3625              	.LASF104:
 3626 02e2 73655F74 		.ascii	"se_time\000"
 3626      696D6500 
 3627              	.LASF28:
 3628 02ea 636E745F 		.ascii	"cnt_t\000"
 3628      7400
 3629              	.LASF37:
 3630 02f0 705F7374 		.ascii	"p_stklimit\000"
 3630      6B6C696D 
 3630      697400
 3631              	.LASF0:
 3632 02fb 756E7369 		.ascii	"unsigned int\000"
 3632      676E6564 
 3632      20696E74 
 3632      00
 3633              	.LASF57:
 3634 0308 76745F6E 		.ascii	"vt_next\000"
 3634      65787400 
 3635              	.LASF10:
 3636 0310 6C6F6E67 		.ascii	"long unsigned int\000"
 3636      20756E73 
 3636      69676E65 
 3636      6420696E 
 3636      7400
 3637              	.LASF103:
 3638 0322 63685F64 		.ascii	"ch_debug\000"
 3638      65627567 
 3638      00
 3639              	.LASF55:
 3640 032b 76746675 		.ascii	"vtfunc_t\000"
 3640      6E635F74 
 3640      00
 3641              	.LASF84:
 3642 0334 63685F69 		.ascii	"ch_identifier\000"
 3642      64656E74 
 3642      69666965 
 3642      7200
 3643              	.LASF56:
 3644 0342 56697274 		.ascii	"VirtualTimer\000"
 3644      75616C54 
 3644      696D6572 
 3644      00
 3645              	.LASF54:
 3646 034f 636F6E74 		.ascii	"context\000"
 3646      65787400 
 3647              	.LASF6:
 3648 0357 73686F72 		.ascii	"short unsigned int\000"
 3648      7420756E 
 3648      7369676E 
 3648      65642069 
 3648      6E7400
 3649              	.LASF139:
 3650 036a 63685363 		.ascii	"chSchWakeupS\000"
 3650      6857616B 
ARM GAS  /tmp/ccQGuPHp.s 			page 68


 3650      65757053 
 3650      00
 3651              	.LASF25:
 3652 0377 6D73675F 		.ascii	"msg_t\000"
 3652      7400
 3653              	.LASF67:
 3654 037d 725F6E65 		.ascii	"r_newer\000"
 3654      77657200 
 3655              	.LASF136:
 3656 0385 63684462 		.ascii	"chDbgCheckClassI\000"
 3656      67436865 
 3656      636B436C 
 3656      61737349 
 3656      00
 3657              	.LASF142:
 3658 0396 2F686F6D 		.ascii	"/home/renan/BLDC/bldc-bootloader\000"
 3658      652F7265 
 3658      6E616E2F 
 3658      424C4443 
 3658      2F626C64 
 3659              	.LASF20:
 3660 03b7 746D6F64 		.ascii	"tmode_t\000"
 3660      655F7400 
 3661              	.LASF114:
 3662 03bf 6462675F 		.ascii	"dbg_isr_cnt\000"
 3662      6973725F 
 3662      636E7400 
 3663              	.LASF128:
 3664 03cb 63684462 		.ascii	"chDbgCheckClassS\000"
 3664      67436865 
 3664      636B436C 
 3664      61737353 
 3664      00
 3665              	.LASF51:
 3666 03dc 54687265 		.ascii	"ThreadsList\000"
 3666      6164734C 
 3666      69737400 
 3667              	.LASF26:
 3668 03e8 6576656E 		.ascii	"eventmask_t\000"
 3668      746D6173 
 3668      6B5F7400 
 3669              	.LASF73:
 3670 03f4 4D757465 		.ascii	"Mutex\000"
 3670      7800
 3671              	.LASF133:
 3672 03fa 6462675F 		.ascii	"dbg_check_lock\000"
 3672      63686563 
 3672      6B5F6C6F 
 3672      636B00
 3673              	.LASF143:
 3674 0409 73746B61 		.ascii	"stkalign_t\000"
 3674      6C69676E 
 3674      5F7400
 3675              	.LASF85:
 3676 0414 63685F7A 		.ascii	"ch_zero\000"
 3676      65726F00 
 3677              	.LASF99:
ARM GAS  /tmp/ccQGuPHp.s 			page 69


 3678 041c 63665F6F 		.ascii	"cf_off_refs\000"
 3678      66665F72 
 3678      65667300 
 3679              	.LASF59:
 3680 0428 76745F74 		.ascii	"vt_time\000"
 3680      696D6500 
 3681              	.LASF110:
 3682 0430 74625F70 		.ascii	"tb_ptr\000"
 3682      747200
 3683              	.LASF60:
 3684 0437 76745F66 		.ascii	"vt_func\000"
 3684      756E6300 
 3685              	.LASF119:
 3686 043f 6368436F 		.ascii	"chCondWaitTimeoutS\000"
 3686      6E645761 
 3686      69745469 
 3686      6D656F75 
 3686      745300
 3687              	.LASF89:
 3688 0452 63685F74 		.ascii	"ch_timesize\000"
 3688      696D6573 
 3688      697A6500 
 3689              	.LASF108:
 3690 045e 63685F73 		.ascii	"ch_swc_event_t\000"
 3690      77635F65 
 3690      76656E74 
 3690      5F7400
 3691              	.LASF95:
 3692 046d 63665F6F 		.ascii	"cf_off_name\000"
 3692      66665F6E 
 3692      616D6500 
 3693              	.LASF35:
 3694 0479 705F6F6C 		.ascii	"p_older\000"
 3694      64657200 
 3695              	.LASF66:
 3696 0481 725F6374 		.ascii	"r_ctx\000"
 3696      7800
 3697              	.LASF50:
 3698 0487 54687265 		.ascii	"ThreadsQueue\000"
 3698      61647351 
 3698      75657565 
 3698      00
 3699              	.LASF86:
 3700 0494 63685F73 		.ascii	"ch_size\000"
 3700      697A6500 
 3701              	.LASF118:
 3702 049c 74696D65 		.ascii	"time\000"
 3702      00
 3703              	.LASF69:
 3704 04a1 725F6375 		.ascii	"r_current\000"
 3704      7272656E 
 3704      7400
 3705              	.LASF68:
 3706 04ab 725F6F6C 		.ascii	"r_older\000"
 3706      64657200 
 3707              	.LASF124:
 3708 04b3 6368436F 		.ascii	"chCondBroadcast\000"
ARM GAS  /tmp/ccQGuPHp.s 			page 70


 3708      6E644272 
 3708      6F616463 
 3708      61737400 
 3709              	.LASF12:
 3710 04c3 5F5F7569 		.ascii	"__uint64_t\000"
 3710      6E743634 
 3710      5F7400
 3711              	.LASF113:
 3712 04ce 6462675F 		.ascii	"dbg_trace_buffer\000"
 3712      74726163 
 3712      655F6275 
 3712      66666572 
 3712      00
 3713              	.LASF22:
 3714 04df 74726566 		.ascii	"trefs_t\000"
 3714      735F7400 
 3715              	.LASF111:
 3716 04e7 74625F62 		.ascii	"tb_buffer\000"
 3716      75666665 
 3716      7200
 3717              	.LASF88:
 3718 04f1 63685F70 		.ascii	"ch_ptrsize\000"
 3718      74727369 
 3718      7A6500
 3719              	.LASF31:
 3720 04fc 705F7072 		.ascii	"p_prev\000"
 3720      657600
 3721              	.LASF24:
 3722 0503 74707269 		.ascii	"tprio_t\000"
 3722      6F5F7400 
 3723              	.LASF125:
 3724 050b 6368436F 		.ascii	"chCondSignalI\000"
 3724      6E645369 
 3724      676E616C 
 3724      4900
 3725              	.LASF19:
 3726 0519 5F426F6F 		.ascii	"_Bool\000"
 3726      6C00
 3727              	.LASF16:
 3728 051f 696E7433 		.ascii	"int32_t\000"
 3728      325F7400 
 3729              	.LASF2:
 3730 0527 756E7369 		.ascii	"unsigned char\000"
 3730      676E6564 
 3730      20636861 
 3730      7200
 3731              	.LASF116:
 3732 0535 6462675F 		.ascii	"dbg_panic_msg\000"
 3732      70616E69 
 3732      635F6D73 
 3732      6700
 3733              	.LASF47:
 3734 0543 705F6D74 		.ascii	"p_mtxlist\000"
 3734      786C6973 
 3734      7400
 3735              	.LASF3:
 3736 054d 73686F72 		.ascii	"short int\000"
ARM GAS  /tmp/ccQGuPHp.s 			page 71


 3736      7420696E 
 3736      7400
 3737              	.LASF38:
 3738 0557 705F7374 		.ascii	"p_state\000"
 3738      61746500 
 3739              	.LASF41:
 3740 055f 705F7072 		.ascii	"p_preempt\000"
 3740      65656D70 
 3740      7400
 3741              	.LASF101:
 3742 0569 63665F6F 		.ascii	"cf_off_time\000"
 3742      66665F74 
 3742      696D6500 
 3743              	.LASF65:
 3744 0575 725F7072 		.ascii	"r_prio\000"
 3744      696F00
 3745              	.LASF82:
 3746 057c 65776D61 		.ascii	"ewmask\000"
 3746      736B00
 3747              	.LASF30:
 3748 0583 705F6E65 		.ascii	"p_next\000"
 3748      787400
 3749              	.LASF100:
 3750 058a 63665F6F 		.ascii	"cf_off_preempt\000"
 3750      66665F70 
 3750      7265656D 
 3750      707400
 3751              	.LASF39:
 3752 0599 705F666C 		.ascii	"p_flags\000"
 3752      61677300 
 3753              	.LASF131:
 3754 05a1 63684D74 		.ascii	"chMtxLockS\000"
 3754      784C6F63 
 3754      6B5300
 3755              	.LASF129:
 3756 05ac 63684D74 		.ascii	"chMtxUnlockS\000"
 3756      78556E6C 
 3756      6F636B53 
 3756      00
 3757              	.LASF29:
 3758 05b9 54687265 		.ascii	"Thread\000"
 3758      616400
 3759              	.LASF78:
 3760 05c0 635F7175 		.ascii	"c_queue\000"
 3760      65756500 
 3761              	.LASF135:
 3762 05c8 63685363 		.ascii	"chSchGoSleepS\000"
 3762      68476F53 
 3762      6C656570 
 3762      5300
 3763              	.LASF46:
 3764 05d6 705F6570 		.ascii	"p_epending\000"
 3764      656E6469 
 3764      6E6700
 3765              	.LASF17:
 3766 05e1 75696E74 		.ascii	"uint32_t\000"
 3766      33325F74 
ARM GAS  /tmp/ccQGuPHp.s 			page 72


 3766      00
 3767              	.LASF91:
 3768 05ea 63665F6F 		.ascii	"cf_off_prio\000"
 3768      66665F70 
 3768      72696F00 
 3769              	.LASF64:
 3770 05f6 725F7175 		.ascii	"r_queue\000"
 3770      65756500 
 3771              	.LASF83:
 3772 05fe 63686172 		.ascii	"char\000"
 3772      00
 3773              	.LASF144:
 3774 0603 6669666F 		.ascii	"fifo_remove\000"
 3774      5F72656D 
 3774      6F766500 
 3775              	.LASF5:
 3776 060f 5F5F7569 		.ascii	"__uint16_t\000"
 3776      6E743136 
 3776      5F7400
 3777              	.LASF137:
 3778 061a 63685363 		.ascii	"chSchReadyI\000"
 3778      68526561 
 3778      64794900 
 3779              	.LASF122:
 3780 0626 6368436F 		.ascii	"chCondWait\000"
 3780      6E645761 
 3780      697400
 3781              	.LASF76:
 3782 0631 6D5F6E65 		.ascii	"m_next\000"
 3782      787400
 3783              	.LASF27:
 3784 0638 73797374 		.ascii	"systime_t\000"
 3784      696D655F 
 3784      7400
 3785              	.LASF48:
 3786 0642 705F7265 		.ascii	"p_realprio\000"
 3786      616C7072 
 3786      696F00
 3787              	.LASF7:
 3788 064d 5F5F696E 		.ascii	"__int32_t\000"
 3788      7433325F 
 3788      7400
 3789              	.LASF145:
 3790 0657 7072696F 		.ascii	"prio_insert\000"
 3790      5F696E73 
 3790      65727400 
 3791              	.LASF115:
 3792 0663 6462675F 		.ascii	"dbg_lock_cnt\000"
 3792      6C6F636B 
 3792      5F636E74 
 3792      00
 3793              	.LASF42:
 3794 0670 705F7469 		.ascii	"p_time\000"
 3794      6D6500
 3795              	.LASF53:
 3796 0677 696E7463 		.ascii	"intctx\000"
 3796      747800
ARM GAS  /tmp/ccQGuPHp.s 			page 73


 3797              	.LASF44:
 3798 067e 705F6D73 		.ascii	"p_msgqueue\000"
 3798      67717565 
 3798      756500
 3799              	.LASF61:
 3800 0689 76745F70 		.ascii	"vt_par\000"
 3800      617200
 3801              	.LASF92:
 3802 0690 63665F6F 		.ascii	"cf_off_ctx\000"
 3802      66665F63 
 3802      747800
 3803              	.LASF40:
 3804 069b 705F7265 		.ascii	"p_refs\000"
 3804      667300
 3805              	.LASF70:
 3806 06a2 52656164 		.ascii	"ReadyList\000"
 3806      794C6973 
 3806      7400
 3807              	.LASF107:
 3808 06ac 73655F73 		.ascii	"se_state\000"
 3808      74617465 
 3808      00
 3809              	.LASF72:
 3810 06b5 726C6973 		.ascii	"rlist\000"
 3810      7400
 3811              	.LASF14:
 3812 06bb 75696E74 		.ascii	"uint8_t\000"
 3812      385F7400 
 3813              	.LASF81:
 3814 06c3 77746F62 		.ascii	"wtobjp\000"
 3814      6A7000
 3815              	.LASF93:
 3816 06ca 63665F6F 		.ascii	"cf_off_newer\000"
 3816      66665F6E 
 3816      65776572 
 3816      00
 3817              	.LASF36:
 3818 06d7 705F6E61 		.ascii	"p_name\000"
 3818      6D6500
 3819              	.LASF120:
 3820 06de 6368436F 		.ascii	"chCondWaitTimeout\000"
 3820      6E645761 
 3820      69745469 
 3820      6D656F75 
 3820      7400
 3821              	.LASF62:
 3822 06f0 76745F73 		.ascii	"vt_systime\000"
 3822      79737469 
 3822      6D6500
 3823              	.LASF130:
 3824 06fb 63685363 		.ascii	"chSchGoSleepTimeoutS\000"
 3824      68476F53 
 3824      6C656570 
 3824      54696D65 
 3824      6F757453 
 3825              	.LASF134:
 3826 0710 6462675F 		.ascii	"dbg_check_unlock\000"
ARM GAS  /tmp/ccQGuPHp.s 			page 74


 3826      63686563 
 3826      6B5F756E 
 3826      6C6F636B 
 3826      00
 3827              	.LASF87:
 3828 0721 63685F76 		.ascii	"ch_version\000"
 3828      65727369 
 3828      6F6E00
 3829              	.LASF63:
 3830 072c 56544C69 		.ascii	"VTList\000"
 3830      737400
 3831              	.LASF75:
 3832 0733 6D5F6F77 		.ascii	"m_owner\000"
 3832      6E657200 
 3833              	.LASF106:
 3834 073b 73655F77 		.ascii	"se_wtobjp\000"
 3834      746F626A 
 3834      7000
 3835              	.LASF33:
 3836 0745 705F6374 		.ascii	"p_ctx\000"
 3836      7800
 3837              	.LASF43:
 3838 074b 705F7761 		.ascii	"p_waiting\000"
 3838      6974696E 
 3838      6700
 3839              		.ident	"GCC: (GNU Tools for Arm Embedded Processors 7-2018-q3-update) 7.3.1 20180622 (release) [AR
ARM GAS  /tmp/ccQGuPHp.s 			page 75


DEFINED SYMBOLS
                            *ABS*:0000000000000000 chcond.c
     /tmp/ccQGuPHp.s:18     .text.chCondInit:0000000000000000 $t
     /tmp/ccQGuPHp.s:26     .text.chCondInit:0000000000000000 chCondInit
     /tmp/ccQGuPHp.s:59     .text.chCondInit:0000000000000018 $d
     /tmp/ccQGuPHp.s:64     .text.chCondSignal:0000000000000000 $t
     /tmp/ccQGuPHp.s:72     .text.chCondSignal:0000000000000000 chCondSignal
     /tmp/ccQGuPHp.s:145    .text.chCondSignal:0000000000000030 $d
     /tmp/ccQGuPHp.s:150    .text.chCondSignalI:0000000000000000 $t
     /tmp/ccQGuPHp.s:158    .text.chCondSignalI:0000000000000000 chCondSignalI
     /tmp/ccQGuPHp.s:209    .text.chCondSignalI:0000000000000028 $d
     /tmp/ccQGuPHp.s:214    .text.chCondBroadcastI:0000000000000000 $t
     /tmp/ccQGuPHp.s:222    .text.chCondBroadcastI:0000000000000000 chCondBroadcastI
     /tmp/ccQGuPHp.s:290    .text.chCondBroadcastI:0000000000000034 $d
     /tmp/ccQGuPHp.s:295    .text.chCondBroadcast:0000000000000000 $t
     /tmp/ccQGuPHp.s:303    .text.chCondBroadcast:0000000000000000 chCondBroadcast
     /tmp/ccQGuPHp.s:347    .text.chCondWaitS:0000000000000000 $t
     /tmp/ccQGuPHp.s:355    .text.chCondWaitS:0000000000000000 chCondWaitS
     /tmp/ccQGuPHp.s:474    .text.chCondWaitS:0000000000000060 $d
     /tmp/ccQGuPHp.s:481    .text.chCondWait:0000000000000000 $t
     /tmp/ccQGuPHp.s:489    .text.chCondWait:0000000000000000 chCondWait
     /tmp/ccQGuPHp.s:533    .text.chCondWaitTimeoutS:0000000000000000 $t
     /tmp/ccQGuPHp.s:541    .text.chCondWaitTimeoutS:0000000000000000 chCondWaitTimeoutS
     /tmp/ccQGuPHp.s:672    .text.chCondWaitTimeoutS:0000000000000074 $d
     /tmp/ccQGuPHp.s:681    .text.chCondWaitTimeout:0000000000000000 $t
     /tmp/ccQGuPHp.s:689    .text.chCondWaitTimeout:0000000000000000 chCondWaitTimeout
     /tmp/ccQGuPHp.s:737    .rodata.chCondBroadcastI.str1.4:0000000000000000 $d
     /tmp/ccQGuPHp.s:741    .rodata.chCondInit.str1.4:0000000000000000 $d
     /tmp/ccQGuPHp.s:745    .rodata.chCondSignal.str1.4:0000000000000000 $d
     /tmp/ccQGuPHp.s:749    .rodata.chCondSignalI.str1.4:0000000000000000 $d
     /tmp/ccQGuPHp.s:753    .rodata.chCondWaitS.str1.4:0000000000000000 $d
     /tmp/ccQGuPHp.s:759    .rodata.chCondWaitTimeoutS.str1.4:0000000000000000 $d

UNDEFINED SYMBOLS
chDbgPanic
dbg_check_lock
chSchWakeupS
dbg_check_unlock
chDbgCheckClassI
chSchReadyI
chSchRescheduleS
chDbgCheckClassS
chMtxUnlockS
chSchGoSleepS
chMtxLockS
rlist
chSchGoSleepTimeoutS
