ARM GAS  /tmp/ccy0l3Hv.s 			page 1


   1              		.cpu cortex-m4
   2              		.eabi_attribute 27, 1
   3              		.eabi_attribute 28, 1
   4              		.eabi_attribute 20, 1
   5              		.eabi_attribute 21, 1
   6              		.eabi_attribute 23, 3
   7              		.eabi_attribute 24, 1
   8              		.eabi_attribute 25, 1
   9              		.eabi_attribute 26, 1
  10              		.eabi_attribute 30, 2
  11              		.eabi_attribute 34, 1
  12              		.eabi_attribute 18, 4
  13              		.file	"chevents.c"
  14              		.text
  15              	.Ltext0:
  16              		.cfi_sections	.debug_frame
  17              		.section	.text.chEvtRegisterMask,"ax",%progbits
  18              		.align	1
  19              		.p2align 4,,15
  20              		.global	chEvtRegisterMask
  21              		.syntax unified
  22              		.thumb
  23              		.thumb_func
  24              		.fpu fpv4-sp-d16
  25              		.type	chEvtRegisterMask, %function
  26              	chEvtRegisterMask:
  27              	.LFB7:
  28              		.file 1 "ChibiOS_2.6.6/os/kernel/src/chevents.c"
  29              		.loc 1 85 0
  30              		.cfi_startproc
  31              		@ args = 0, pretend = 0, frame = 0
  32              		@ frame_needed = 0, uses_anonymous_args = 0
  33              	.LVL0:
  34 0000 70B5     		push	{r4, r5, r6, lr}
  35              		.cfi_def_cfa_offset 16
  36              		.cfi_offset 4, -16
  37              		.cfi_offset 5, -12
  38              		.cfi_offset 6, -8
  39              		.cfi_offset 14, -4
  40              		.loc 1 85 0
  41 0002 0C46     		mov	r4, r1
  42 0004 1646     		mov	r6, r2
  43              		.loc 1 87 0
  44 0006 0546     		mov	r5, r0
  45 0008 80B1     		cbz	r0, .L2
  46              		.loc 1 87 0 is_stmt 0 discriminator 2
  47 000a 79B1     		cbz	r1, .L2
  48              	.LVL1:
  49              	.L3:
  50              		.loc 1 89 0 is_stmt 1
  51              		.syntax unified
  52              	@ 89 "ChibiOS_2.6.6/os/kernel/src/chevents.c" 1
  53 000c 72B6     		cpsid   i
  54              	@ 0 "" 2
  55              		.thumb
  56              		.syntax unified
  57 000e FFF7FEFF 		bl	dbg_check_lock
ARM GAS  /tmp/ccy0l3Hv.s 			page 2


  58              	.LVL2:
  59              		.loc 1 92 0
  60 0012 084A     		ldr	r2, .L9
  61              		.loc 1 90 0
  62 0014 2B68     		ldr	r3, [r5]
  63              		.loc 1 92 0
  64 0016 9269     		ldr	r2, [r2, #24]
  65              		.loc 1 90 0
  66 0018 2360     		str	r3, [r4]
  67              		.loc 1 94 0
  68 001a 0023     		movs	r3, #0
  69              		.loc 1 91 0
  70 001c 2C60     		str	r4, [r5]
  71              		.loc 1 93 0
  72 001e C4E90126 		strd	r2, r6, [r4, #4]
  73              		.loc 1 94 0
  74 0022 E360     		str	r3, [r4, #12]
  75              		.loc 1 95 0
  76 0024 FFF7FEFF 		bl	dbg_check_unlock
  77              	.LVL3:
  78              		.syntax unified
  79              	@ 95 "ChibiOS_2.6.6/os/kernel/src/chevents.c" 1
  80 0028 62B6     		cpsie   i
  81              	@ 0 "" 2
  82              		.loc 1 96 0
  83              		.thumb
  84              		.syntax unified
  85 002a 70BD     		pop	{r4, r5, r6, pc}
  86              	.LVL4:
  87              	.L2:
  88              		.loc 1 87 0 discriminator 3
  89 002c 0248     		ldr	r0, .L9+4
  90              	.LVL5:
  91 002e FFF7FEFF 		bl	chDbgPanic
  92              	.LVL6:
  93 0032 EBE7     		b	.L3
  94              	.L10:
  95              		.align	2
  96              	.L9:
  97 0034 00000000 		.word	rlist
  98 0038 00000000 		.word	.LC0
  99              		.cfi_endproc
 100              	.LFE7:
 101              		.size	chEvtRegisterMask, .-chEvtRegisterMask
 102              		.section	.text.chEvtUnregister,"ax",%progbits
 103              		.align	1
 104              		.p2align 4,,15
 105              		.global	chEvtUnregister
 106              		.syntax unified
 107              		.thumb
 108              		.thumb_func
 109              		.fpu fpv4-sp-d16
 110              		.type	chEvtUnregister, %function
 111              	chEvtUnregister:
 112              	.LFB8:
 113              		.loc 1 111 0
 114              		.cfi_startproc
ARM GAS  /tmp/ccy0l3Hv.s 			page 3


 115              		@ args = 0, pretend = 0, frame = 0
 116              		@ frame_needed = 0, uses_anonymous_args = 0
 117              	.LVL7:
 118 0000 38B5     		push	{r3, r4, r5, lr}
 119              		.cfi_def_cfa_offset 16
 120              		.cfi_offset 3, -16
 121              		.cfi_offset 4, -12
 122              		.cfi_offset 5, -8
 123              		.cfi_offset 14, -4
 124              		.loc 1 111 0
 125 0002 0D46     		mov	r5, r1
 126              		.loc 1 114 0
 127 0004 0446     		mov	r4, r0
 128 0006 A8B1     		cbz	r0, .L12
 129              		.loc 1 114 0 is_stmt 0 discriminator 2
 130 0008 A1B1     		cbz	r1, .L12
 131              	.LVL8:
 132              	.L13:
 133              		.loc 1 117 0 is_stmt 1
 134              		.syntax unified
 135              	@ 117 "ChibiOS_2.6.6/os/kernel/src/chevents.c" 1
 136 000a 72B6     		cpsid   i
 137              	@ 0 "" 2
 138              		.thumb
 139              		.syntax unified
 140 000c FFF7FEFF 		bl	dbg_check_lock
 141              	.LVL9:
 142              		.loc 1 118 0
 143 0010 2246     		mov	r2, r4
 144 0012 02E0     		b	.L14
 145              	.LVL10:
 146              	.L16:
 147              		.loc 1 119 0
 148 0014 AB42     		cmp	r3, r5
 149 0016 07D0     		beq	.L22
 150 0018 1A46     		mov	r2, r3
 151              	.LVL11:
 152              	.L14:
 153              		.loc 1 118 0
 154 001a 1368     		ldr	r3, [r2]
 155 001c A342     		cmp	r3, r4
 156 001e F9D1     		bne	.L16
 157              		.loc 1 125 0
 158 0020 FFF7FEFF 		bl	dbg_check_unlock
 159              	.LVL12:
 160              		.syntax unified
 161              	@ 125 "ChibiOS_2.6.6/os/kernel/src/chevents.c" 1
 162 0024 62B6     		cpsie   i
 163              	@ 0 "" 2
 164              		.loc 1 126 0
 165              		.thumb
 166              		.syntax unified
 167 0026 38BD     		pop	{r3, r4, r5, pc}
 168              	.LVL13:
 169              	.L22:
 170              		.loc 1 120 0
 171 0028 2B68     		ldr	r3, [r5]
ARM GAS  /tmp/ccy0l3Hv.s 			page 4


 172 002a 1360     		str	r3, [r2]
 173              		.loc 1 125 0
 174 002c FFF7FEFF 		bl	dbg_check_unlock
 175              	.LVL14:
 176              		.syntax unified
 177              	@ 125 "ChibiOS_2.6.6/os/kernel/src/chevents.c" 1
 178 0030 62B6     		cpsie   i
 179              	@ 0 "" 2
 180              		.loc 1 126 0
 181              		.thumb
 182              		.syntax unified
 183 0032 38BD     		pop	{r3, r4, r5, pc}
 184              	.LVL15:
 185              	.L12:
 186              		.loc 1 114 0 discriminator 3
 187 0034 0148     		ldr	r0, .L23
 188              	.LVL16:
 189 0036 FFF7FEFF 		bl	chDbgPanic
 190              	.LVL17:
 191 003a E6E7     		b	.L13
 192              	.L24:
 193              		.align	2
 194              	.L23:
 195 003c 00000000 		.word	.LC1
 196              		.cfi_endproc
 197              	.LFE8:
 198              		.size	chEvtUnregister, .-chEvtUnregister
 199              		.section	.text.chEvtGetAndClearEvents,"ax",%progbits
 200              		.align	1
 201              		.p2align 4,,15
 202              		.global	chEvtGetAndClearEvents
 203              		.syntax unified
 204              		.thumb
 205              		.thumb_func
 206              		.fpu fpv4-sp-d16
 207              		.type	chEvtGetAndClearEvents, %function
 208              	chEvtGetAndClearEvents:
 209              	.LFB9:
 210              		.loc 1 136 0
 211              		.cfi_startproc
 212              		@ args = 0, pretend = 0, frame = 0
 213              		@ frame_needed = 0, uses_anonymous_args = 0
 214              	.LVL18:
 215 0000 10B5     		push	{r4, lr}
 216              		.cfi_def_cfa_offset 8
 217              		.cfi_offset 4, -8
 218              		.cfi_offset 14, -4
 219              		.loc 1 136 0
 220 0002 0446     		mov	r4, r0
 221              		.loc 1 139 0
 222              		.syntax unified
 223              	@ 139 "ChibiOS_2.6.6/os/kernel/src/chevents.c" 1
 224 0004 72B6     		cpsid   i
 225              	@ 0 "" 2
 226              		.thumb
 227              		.syntax unified
 228 0006 FFF7FEFF 		bl	dbg_check_lock
ARM GAS  /tmp/ccy0l3Hv.s 			page 5


 229              	.LVL19:
 230              		.loc 1 141 0
 231 000a 064B     		ldr	r3, .L27
 232 000c 9A69     		ldr	r2, [r3, #24]
 233 000e D36B     		ldr	r3, [r2, #60]
 234              		.loc 1 142 0
 235 0010 23EA0401 		bic	r1, r3, r4
 236 0014 D163     		str	r1, [r2, #60]
 237              		.loc 1 141 0
 238 0016 1C40     		ands	r4, r4, r3
 239              	.LVL20:
 240              		.loc 1 144 0
 241 0018 FFF7FEFF 		bl	dbg_check_unlock
 242              	.LVL21:
 243              		.syntax unified
 244              	@ 144 "ChibiOS_2.6.6/os/kernel/src/chevents.c" 1
 245 001c 62B6     		cpsie   i
 246              	@ 0 "" 2
 247              		.loc 1 146 0
 248              		.thumb
 249              		.syntax unified
 250 001e 2046     		mov	r0, r4
 251 0020 10BD     		pop	{r4, pc}
 252              	.LVL22:
 253              	.L28:
 254 0022 00BF     		.align	2
 255              	.L27:
 256 0024 00000000 		.word	rlist
 257              		.cfi_endproc
 258              	.LFE9:
 259              		.size	chEvtGetAndClearEvents, .-chEvtGetAndClearEvents
 260              		.section	.text.chEvtAddEvents,"ax",%progbits
 261              		.align	1
 262              		.p2align 4,,15
 263              		.global	chEvtAddEvents
 264              		.syntax unified
 265              		.thumb
 266              		.thumb_func
 267              		.fpu fpv4-sp-d16
 268              		.type	chEvtAddEvents, %function
 269              	chEvtAddEvents:
 270              	.LFB10:
 271              		.loc 1 157 0
 272              		.cfi_startproc
 273              		@ args = 0, pretend = 0, frame = 0
 274              		@ frame_needed = 0, uses_anonymous_args = 0
 275              	.LVL23:
 276 0000 10B5     		push	{r4, lr}
 277              		.cfi_def_cfa_offset 8
 278              		.cfi_offset 4, -8
 279              		.cfi_offset 14, -4
 280              		.loc 1 157 0
 281 0002 0446     		mov	r4, r0
 282              		.loc 1 159 0
 283              		.syntax unified
 284              	@ 159 "ChibiOS_2.6.6/os/kernel/src/chevents.c" 1
 285 0004 72B6     		cpsid   i
ARM GAS  /tmp/ccy0l3Hv.s 			page 6


 286              	@ 0 "" 2
 287              		.thumb
 288              		.syntax unified
 289 0006 FFF7FEFF 		bl	dbg_check_lock
 290              	.LVL24:
 291              		.loc 1 161 0
 292 000a 054B     		ldr	r3, .L31
 293 000c 9B69     		ldr	r3, [r3, #24]
 294 000e D86B     		ldr	r0, [r3, #60]
 295 0010 0443     		orrs	r4, r4, r0
 296              	.LVL25:
 297 0012 DC63     		str	r4, [r3, #60]
 298              	.LVL26:
 299              		.loc 1 163 0
 300 0014 FFF7FEFF 		bl	dbg_check_unlock
 301              	.LVL27:
 302              		.syntax unified
 303              	@ 163 "ChibiOS_2.6.6/os/kernel/src/chevents.c" 1
 304 0018 62B6     		cpsie   i
 305              	@ 0 "" 2
 306              		.loc 1 165 0
 307              		.thumb
 308              		.syntax unified
 309 001a 2046     		mov	r0, r4
 310 001c 10BD     		pop	{r4, pc}
 311              	.LVL28:
 312              	.L32:
 313 001e 00BF     		.align	2
 314              	.L31:
 315 0020 00000000 		.word	rlist
 316              		.cfi_endproc
 317              	.LFE10:
 318              		.size	chEvtAddEvents, .-chEvtAddEvents
 319              		.section	.text.chEvtGetAndClearFlags,"ax",%progbits
 320              		.align	1
 321              		.p2align 4,,15
 322              		.global	chEvtGetAndClearFlags
 323              		.syntax unified
 324              		.thumb
 325              		.thumb_func
 326              		.fpu fpv4-sp-d16
 327              		.type	chEvtGetAndClearFlags, %function
 328              	chEvtGetAndClearFlags:
 329              	.LFB12:
 330              		.loc 1 209 0
 331              		.cfi_startproc
 332              		@ args = 0, pretend = 0, frame = 0
 333              		@ frame_needed = 0, uses_anonymous_args = 0
 334              	.LVL29:
 335 0000 38B5     		push	{r3, r4, r5, lr}
 336              		.cfi_def_cfa_offset 16
 337              		.cfi_offset 3, -16
 338              		.cfi_offset 4, -12
 339              		.cfi_offset 5, -8
 340              		.cfi_offset 14, -4
 341              		.loc 1 209 0
 342 0002 0446     		mov	r4, r0
ARM GAS  /tmp/ccy0l3Hv.s 			page 7


 343              		.loc 1 212 0
 344              		.syntax unified
 345              	@ 212 "ChibiOS_2.6.6/os/kernel/src/chevents.c" 1
 346 0004 72B6     		cpsid   i
 347              	@ 0 "" 2
 348              		.thumb
 349              		.syntax unified
 350 0006 FFF7FEFF 		bl	dbg_check_lock
 351              	.LVL30:
 352              		.loc 1 215 0
 353 000a 0023     		movs	r3, #0
 354              		.loc 1 214 0
 355 000c E568     		ldr	r5, [r4, #12]
 356              	.LVL31:
 357              		.loc 1 215 0
 358 000e E360     		str	r3, [r4, #12]
 359              		.loc 1 217 0
 360 0010 FFF7FEFF 		bl	dbg_check_unlock
 361              	.LVL32:
 362              		.syntax unified
 363              	@ 217 "ChibiOS_2.6.6/os/kernel/src/chevents.c" 1
 364 0014 62B6     		cpsie   i
 365              	@ 0 "" 2
 366              		.loc 1 219 0
 367              		.thumb
 368              		.syntax unified
 369 0016 2846     		mov	r0, r5
 370 0018 38BD     		pop	{r3, r4, r5, pc}
 371              		.cfi_endproc
 372              	.LFE12:
 373              		.size	chEvtGetAndClearFlags, .-chEvtGetAndClearFlags
 374 001a 00BF     		.section	.text.chEvtSignalI,"ax",%progbits
 375              		.align	1
 376              		.p2align 4,,15
 377              		.global	chEvtSignalI
 378              		.syntax unified
 379              		.thumb
 380              		.thumb_func
 381              		.fpu fpv4-sp-d16
 382              		.type	chEvtSignalI, %function
 383              	chEvtSignalI:
 384              	.LFB14:
 385              		.loc 1 251 0
 386              		.cfi_startproc
 387              		@ args = 0, pretend = 0, frame = 0
 388              		@ frame_needed = 0, uses_anonymous_args = 0
 389              	.LVL33:
 390 0000 38B5     		push	{r3, r4, r5, lr}
 391              		.cfi_def_cfa_offset 16
 392              		.cfi_offset 3, -16
 393              		.cfi_offset 4, -12
 394              		.cfi_offset 5, -8
 395              		.cfi_offset 14, -4
 396              		.loc 1 251 0
 397 0002 0446     		mov	r4, r0
 398 0004 0D46     		mov	r5, r1
 399              		.loc 1 253 0
ARM GAS  /tmp/ccy0l3Hv.s 			page 8


 400 0006 FFF7FEFF 		bl	chDbgCheckClassI
 401              	.LVL34:
 402              		.loc 1 254 0
 403 000a DCB1     		cbz	r4, .L42
 404              	.L36:
 405              		.loc 1 256 0
 406 000c E16B     		ldr	r1, [r4, #60]
 407              		.loc 1 258 0
 408 000e 94F82030 		ldrb	r3, [r4, #32]	@ zero_extendqisi2
 409              		.loc 1 256 0
 410 0012 2943     		orrs	r1, r1, r5
 411              		.loc 1 258 0
 412 0014 082B     		cmp	r3, #8
 413              		.loc 1 256 0
 414 0016 E163     		str	r1, [r4, #60]
 415              		.loc 1 258 0
 416 0018 0BD0     		beq	.L43
 417              		.loc 1 259 0
 418 001a 092B     		cmp	r3, #9
 419 001c 00D0     		beq	.L44
 420              	.L35:
 421              		.loc 1 263 0
 422 001e 38BD     		pop	{r3, r4, r5, pc}
 423              	.LVL35:
 424              	.L44:
 425              		.loc 1 261 0
 426 0020 A36A     		ldr	r3, [r4, #40]
 427              		.loc 1 260 0
 428 0022 8B43     		bics	r3, r3, r1
 429 0024 FBD1     		bne	.L35
 430              	.LVL36:
 431              	.LBB4:
 432              	.LBB5:
 433              		.loc 1 262 0
 434 0026 2046     		mov	r0, r4
 435 0028 FFF7FEFF 		bl	chSchReadyI
 436              	.LVL37:
 437 002c 0023     		movs	r3, #0
 438 002e 8362     		str	r3, [r0, #40]
 439              	.L45:
 440              	.LBE5:
 441              	.LBE4:
 442              		.loc 1 263 0
 443 0030 38BD     		pop	{r3, r4, r5, pc}
 444              	.LVL38:
 445              	.L43:
 446              		.loc 1 259 0 discriminator 1
 447 0032 A36A     		ldr	r3, [r4, #40]
 448              		.loc 1 258 0 discriminator 1
 449 0034 1942     		tst	r1, r3
 450 0036 F2D0     		beq	.L35
 451              	.LVL39:
 452              	.LBB7:
 453              	.LBB6:
 454              		.loc 1 262 0
 455 0038 2046     		mov	r0, r4
 456 003a FFF7FEFF 		bl	chSchReadyI
ARM GAS  /tmp/ccy0l3Hv.s 			page 9


 457              	.LVL40:
 458 003e 0023     		movs	r3, #0
 459 0040 8362     		str	r3, [r0, #40]
 460 0042 F5E7     		b	.L45
 461              	.LVL41:
 462              	.L42:
 463              	.LBE6:
 464              	.LBE7:
 465              		.loc 1 254 0 discriminator 1
 466 0044 0148     		ldr	r0, .L46
 467 0046 FFF7FEFF 		bl	chDbgPanic
 468              	.LVL42:
 469 004a DFE7     		b	.L36
 470              	.L47:
 471              		.align	2
 472              	.L46:
 473 004c 00000000 		.word	.LC2
 474              		.cfi_endproc
 475              	.LFE14:
 476              		.size	chEvtSignalI, .-chEvtSignalI
 477              		.section	.text.chEvtBroadcastFlagsI,"ax",%progbits
 478              		.align	1
 479              		.p2align 4,,15
 480              		.global	chEvtBroadcastFlagsI
 481              		.syntax unified
 482              		.thumb
 483              		.thumb_func
 484              		.fpu fpv4-sp-d16
 485              		.type	chEvtBroadcastFlagsI, %function
 486              	chEvtBroadcastFlagsI:
 487              	.LFB11:
 488              		.loc 1 184 0
 489              		.cfi_startproc
 490              		@ args = 0, pretend = 0, frame = 0
 491              		@ frame_needed = 0, uses_anonymous_args = 0
 492              	.LVL43:
 493 0000 70B5     		push	{r4, r5, r6, lr}
 494              		.cfi_def_cfa_offset 16
 495              		.cfi_offset 4, -16
 496              		.cfi_offset 5, -12
 497              		.cfi_offset 6, -8
 498              		.cfi_offset 14, -4
 499              		.loc 1 184 0
 500 0002 0546     		mov	r5, r0
 501 0004 0E46     		mov	r6, r1
 502              		.loc 1 187 0
 503 0006 FFF7FEFF 		bl	chDbgCheckClassI
 504              	.LVL44:
 505              		.loc 1 188 0
 506 000a 6DB1     		cbz	r5, .L54
 507              	.L49:
 508              		.loc 1 190 0
 509 000c 2C68     		ldr	r4, [r5]
 510              	.LVL45:
 511              		.loc 1 191 0
 512 000e A542     		cmp	r5, r4
 513 0010 09D0     		beq	.L48
ARM GAS  /tmp/ccy0l3Hv.s 			page 10


 514              	.L51:
 515              		.loc 1 193 0
 516 0012 D4E90213 		ldrd	r1, r3, [r4, #8]
 517              		.loc 1 192 0
 518 0016 3343     		orrs	r3, r3, r6
 519              		.loc 1 193 0
 520 0018 6068     		ldr	r0, [r4, #4]
 521              		.loc 1 192 0
 522 001a E360     		str	r3, [r4, #12]
 523              		.loc 1 193 0
 524 001c FFF7FEFF 		bl	chEvtSignalI
 525              	.LVL46:
 526              		.loc 1 194 0
 527 0020 2468     		ldr	r4, [r4]
 528              	.LVL47:
 529              		.loc 1 191 0
 530 0022 A542     		cmp	r5, r4
 531 0024 F5D1     		bne	.L51
 532              	.L48:
 533              		.loc 1 196 0
 534 0026 70BD     		pop	{r4, r5, r6, pc}
 535              	.LVL48:
 536              	.L54:
 537              		.loc 1 188 0 discriminator 1
 538 0028 0148     		ldr	r0, .L55
 539 002a FFF7FEFF 		bl	chDbgPanic
 540              	.LVL49:
 541 002e EDE7     		b	.L49
 542              	.L56:
 543              		.align	2
 544              	.L55:
 545 0030 00000000 		.word	.LC3
 546              		.cfi_endproc
 547              	.LFE11:
 548              		.size	chEvtBroadcastFlagsI, .-chEvtBroadcastFlagsI
 549              		.section	.text.chEvtSignal,"ax",%progbits
 550              		.align	1
 551              		.p2align 4,,15
 552              		.global	chEvtSignal
 553              		.syntax unified
 554              		.thumb
 555              		.thumb_func
 556              		.fpu fpv4-sp-d16
 557              		.type	chEvtSignal, %function
 558              	chEvtSignal:
 559              	.LFB13:
 560              		.loc 1 229 0
 561              		.cfi_startproc
 562              		@ args = 0, pretend = 0, frame = 0
 563              		@ frame_needed = 0, uses_anonymous_args = 0
 564              	.LVL50:
 565 0000 38B5     		push	{r3, r4, r5, lr}
 566              		.cfi_def_cfa_offset 16
 567              		.cfi_offset 3, -16
 568              		.cfi_offset 4, -12
 569              		.cfi_offset 5, -8
 570              		.cfi_offset 14, -4
ARM GAS  /tmp/ccy0l3Hv.s 			page 11


 571              		.loc 1 229 0
 572 0002 0D46     		mov	r5, r1
 573              		.loc 1 231 0
 574 0004 0446     		mov	r4, r0
 575 0006 60B1     		cbz	r0, .L60
 576              	.LVL51:
 577              	.L58:
 578              		.loc 1 233 0
 579              		.syntax unified
 580              	@ 233 "ChibiOS_2.6.6/os/kernel/src/chevents.c" 1
 581 0008 72B6     		cpsid   i
 582              	@ 0 "" 2
 583              		.thumb
 584              		.syntax unified
 585 000a FFF7FEFF 		bl	dbg_check_lock
 586              	.LVL52:
 587              		.loc 1 234 0
 588 000e 2946     		mov	r1, r5
 589 0010 2046     		mov	r0, r4
 590 0012 FFF7FEFF 		bl	chEvtSignalI
 591              	.LVL53:
 592              		.loc 1 235 0
 593 0016 FFF7FEFF 		bl	chSchRescheduleS
 594              	.LVL54:
 595              		.loc 1 236 0
 596 001a FFF7FEFF 		bl	dbg_check_unlock
 597              	.LVL55:
 598              		.syntax unified
 599              	@ 236 "ChibiOS_2.6.6/os/kernel/src/chevents.c" 1
 600 001e 62B6     		cpsie   i
 601              	@ 0 "" 2
 602              		.loc 1 237 0
 603              		.thumb
 604              		.syntax unified
 605 0020 38BD     		pop	{r3, r4, r5, pc}
 606              	.LVL56:
 607              	.L60:
 608              		.loc 1 231 0 discriminator 1
 609 0022 0248     		ldr	r0, .L61
 610              	.LVL57:
 611 0024 FFF7FEFF 		bl	chDbgPanic
 612              	.LVL58:
 613 0028 EEE7     		b	.L58
 614              	.L62:
 615 002a 00BF     		.align	2
 616              	.L61:
 617 002c 00000000 		.word	.LC4
 618              		.cfi_endproc
 619              	.LFE13:
 620              		.size	chEvtSignal, .-chEvtSignal
 621              		.section	.text.chEvtBroadcastFlags,"ax",%progbits
 622              		.align	1
 623              		.p2align 4,,15
 624              		.global	chEvtBroadcastFlags
 625              		.syntax unified
 626              		.thumb
 627              		.thumb_func
ARM GAS  /tmp/ccy0l3Hv.s 			page 12


 628              		.fpu fpv4-sp-d16
 629              		.type	chEvtBroadcastFlags, %function
 630              	chEvtBroadcastFlags:
 631              	.LFB15:
 632              		.loc 1 278 0
 633              		.cfi_startproc
 634              		@ args = 0, pretend = 0, frame = 0
 635              		@ frame_needed = 0, uses_anonymous_args = 0
 636              	.LVL59:
 637 0000 38B5     		push	{r3, r4, r5, lr}
 638              		.cfi_def_cfa_offset 16
 639              		.cfi_offset 3, -16
 640              		.cfi_offset 4, -12
 641              		.cfi_offset 5, -8
 642              		.cfi_offset 14, -4
 643              		.loc 1 278 0
 644 0002 0446     		mov	r4, r0
 645 0004 0D46     		mov	r5, r1
 646              		.loc 1 280 0
 647              		.syntax unified
 648              	@ 280 "ChibiOS_2.6.6/os/kernel/src/chevents.c" 1
 649 0006 72B6     		cpsid   i
 650              	@ 0 "" 2
 651              		.thumb
 652              		.syntax unified
 653 0008 FFF7FEFF 		bl	dbg_check_lock
 654              	.LVL60:
 655              		.loc 1 281 0
 656 000c 2946     		mov	r1, r5
 657 000e 2046     		mov	r0, r4
 658 0010 FFF7FEFF 		bl	chEvtBroadcastFlagsI
 659              	.LVL61:
 660              		.loc 1 282 0
 661 0014 FFF7FEFF 		bl	chSchRescheduleS
 662              	.LVL62:
 663              		.loc 1 283 0
 664 0018 FFF7FEFF 		bl	dbg_check_unlock
 665              	.LVL63:
 666              		.syntax unified
 667              	@ 283 "ChibiOS_2.6.6/os/kernel/src/chevents.c" 1
 668 001c 62B6     		cpsie   i
 669              	@ 0 "" 2
 670              		.loc 1 284 0
 671              		.thumb
 672              		.syntax unified
 673 001e 38BD     		pop	{r3, r4, r5, pc}
 674              		.cfi_endproc
 675              	.LFE15:
 676              		.size	chEvtBroadcastFlags, .-chEvtBroadcastFlags
 677              		.section	.text.chEvtGetAndClearFlagsI,"ax",%progbits
 678              		.align	1
 679              		.p2align 4,,15
 680              		.global	chEvtGetAndClearFlagsI
 681              		.syntax unified
 682              		.thumb
 683              		.thumb_func
 684              		.fpu fpv4-sp-d16
ARM GAS  /tmp/ccy0l3Hv.s 			page 13


 685              		.type	chEvtGetAndClearFlagsI, %function
 686              	chEvtGetAndClearFlagsI:
 687              	.LFB16:
 688              		.loc 1 297 0
 689              		.cfi_startproc
 690              		@ args = 0, pretend = 0, frame = 0
 691              		@ frame_needed = 0, uses_anonymous_args = 0
 692              		@ link register save eliminated.
 693              	.LVL64:
 694              		.loc 1 297 0
 695 0000 0346     		mov	r3, r0
 696              		.loc 1 301 0
 697 0002 0022     		movs	r2, #0
 698              		.loc 1 300 0
 699 0004 C068     		ldr	r0, [r0, #12]
 700              	.LVL65:
 701              		.loc 1 301 0
 702 0006 DA60     		str	r2, [r3, #12]
 703              		.loc 1 304 0
 704 0008 7047     		bx	lr
 705              		.cfi_endproc
 706              	.LFE16:
 707              		.size	chEvtGetAndClearFlagsI, .-chEvtGetAndClearFlagsI
 708 000a 00BF     		.section	.text.chEvtDispatch,"ax",%progbits
 709              		.align	1
 710              		.p2align 4,,15
 711              		.global	chEvtDispatch
 712              		.syntax unified
 713              		.thumb
 714              		.thumb_func
 715              		.fpu fpv4-sp-d16
 716              		.type	chEvtDispatch, %function
 717              	chEvtDispatch:
 718              	.LFB17:
 719              		.loc 1 315 0
 720              		.cfi_startproc
 721              		@ args = 0, pretend = 0, frame = 0
 722              		@ frame_needed = 0, uses_anonymous_args = 0
 723              	.LVL66:
 724 0000 2DE9F041 		push	{r4, r5, r6, r7, r8, lr}
 725              		.cfi_def_cfa_offset 24
 726              		.cfi_offset 4, -24
 727              		.cfi_offset 5, -20
 728              		.cfi_offset 6, -16
 729              		.cfi_offset 7, -12
 730              		.cfi_offset 8, -8
 731              		.cfi_offset 14, -4
 732              		.loc 1 315 0
 733 0004 0D46     		mov	r5, r1
 734              		.loc 1 318 0
 735 0006 0746     		mov	r7, r0
 736 0008 E0B1     		cbz	r0, .L75
 737              	.LVL67:
 738              	.L67:
 739              		.loc 1 321 0
 740 000a 8DB1     		cbz	r5, .L66
 741              		.loc 1 323 0
ARM GAS  /tmp/ccy0l3Hv.s 			page 14


 742 000c DFF84080 		ldr	r8, .L77+4
 743              		.loc 1 321 0
 744 0010 0024     		movs	r4, #0
 745              		.loc 1 322 0
 746 0012 0126     		movs	r6, #1
 747              	.LVL68:
 748              	.L68:
 749 0014 06FA04F3 		lsl	r3, r6, r4
 750 0018 2B42     		tst	r3, r5
 751 001a 0BD0     		beq	.L70
 752              		.loc 1 323 0
 753 001c 57F82420 		ldr	r2, [r7, r4, lsl #2]
 754              		.loc 1 326 0
 755 0020 25EA0305 		bic	r5, r5, r3
 756              	.LVL69:
 757              		.loc 1 323 0
 758 0024 42B1     		cbz	r2, .L76
 759              	.L71:
 760              	.LVL70:
 761              		.loc 1 327 0
 762 0026 2046     		mov	r0, r4
 763 0028 9047     		blx	r2
 764              	.LVL71:
 765              		.loc 1 329 0
 766 002a 0134     		adds	r4, r4, #1
 767              	.LVL72:
 768              		.loc 1 321 0
 769 002c 002D     		cmp	r5, #0
 770 002e F1D1     		bne	.L68
 771              	.LVL73:
 772              	.L66:
 773              		.loc 1 331 0
 774 0030 BDE8F081 		pop	{r4, r5, r6, r7, r8, pc}
 775              	.LVL74:
 776              	.L70:
 777              		.loc 1 329 0
 778 0034 0134     		adds	r4, r4, #1
 779              	.LVL75:
 780 0036 EDE7     		b	.L68
 781              	.LVL76:
 782              	.L76:
 783              		.loc 1 323 0 discriminator 1
 784 0038 4046     		mov	r0, r8
 785 003a FFF7FEFF 		bl	chDbgPanic
 786              	.LVL77:
 787 003e 57F82420 		ldr	r2, [r7, r4, lsl #2]
 788 0042 F0E7     		b	.L71
 789              	.LVL78:
 790              	.L75:
 791              		.loc 1 318 0 discriminator 1
 792 0044 0148     		ldr	r0, .L77
 793              	.LVL79:
 794 0046 FFF7FEFF 		bl	chDbgPanic
 795              	.LVL80:
 796 004a DEE7     		b	.L67
 797              	.L78:
 798              		.align	2
ARM GAS  /tmp/ccy0l3Hv.s 			page 15


 799              	.L77:
 800 004c 00000000 		.word	.LC5
 801 0050 14000000 		.word	.LC6
 802              		.cfi_endproc
 803              	.LFE17:
 804              		.size	chEvtDispatch, .-chEvtDispatch
 805              		.section	.text.chEvtWaitOne,"ax",%progbits
 806              		.align	1
 807              		.p2align 4,,15
 808              		.global	chEvtWaitOne
 809              		.syntax unified
 810              		.thumb
 811              		.thumb_func
 812              		.fpu fpv4-sp-d16
 813              		.type	chEvtWaitOne, %function
 814              	chEvtWaitOne:
 815              	.LFB18:
 816              		.loc 1 350 0
 817              		.cfi_startproc
 818              		@ args = 0, pretend = 0, frame = 0
 819              		@ frame_needed = 0, uses_anonymous_args = 0
 820              	.LVL81:
 821              		.loc 1 351 0
 822 0000 0D4B     		ldr	r3, .L82
 823              		.loc 1 350 0
 824 0002 70B5     		push	{r4, r5, r6, lr}
 825              		.cfi_def_cfa_offset 16
 826              		.cfi_offset 4, -16
 827              		.cfi_offset 5, -12
 828              		.cfi_offset 6, -8
 829              		.cfi_offset 14, -4
 830              		.loc 1 350 0
 831 0004 0646     		mov	r6, r0
 832              		.loc 1 351 0
 833 0006 9D69     		ldr	r5, [r3, #24]
 834              	.LVL82:
 835              		.loc 1 354 0
 836              		.syntax unified
 837              	@ 354 "ChibiOS_2.6.6/os/kernel/src/chevents.c" 1
 838 0008 72B6     		cpsid   i
 839              	@ 0 "" 2
 840              		.thumb
 841              		.syntax unified
 842 000a FFF7FEFF 		bl	dbg_check_lock
 843              	.LVL83:
 844              		.loc 1 356 0
 845 000e EB6B     		ldr	r3, [r5, #60]
 846              	.LVL84:
 847 0010 13EA0600 		ands	r0, r3, r6
 848              	.LVL85:
 849 0014 06D1     		bne	.L80
 850              		.loc 1 358 0
 851 0016 0820     		movs	r0, #8
 852              	.LVL86:
 853              		.loc 1 357 0
 854 0018 AE62     		str	r6, [r5, #40]
 855              		.loc 1 358 0
ARM GAS  /tmp/ccy0l3Hv.s 			page 16


 856 001a FFF7FEFF 		bl	chSchGoSleepS
 857              	.LVL87:
 858              		.loc 1 359 0
 859 001e EB6B     		ldr	r3, [r5, #60]
 860 0020 03EA0600 		and	r0, r3, r6
 861              	.LVL88:
 862              	.L80:
 863              		.loc 1 361 0
 864 0024 4442     		negs	r4, r0
 865 0026 0440     		ands	r4, r4, r0
 866              	.LVL89:
 867              		.loc 1 362 0
 868 0028 23EA0403 		bic	r3, r3, r4
 869 002c EB63     		str	r3, [r5, #60]
 870              		.loc 1 364 0
 871 002e FFF7FEFF 		bl	dbg_check_unlock
 872              	.LVL90:
 873              		.syntax unified
 874              	@ 364 "ChibiOS_2.6.6/os/kernel/src/chevents.c" 1
 875 0032 62B6     		cpsie   i
 876              	@ 0 "" 2
 877              		.loc 1 366 0
 878              		.thumb
 879              		.syntax unified
 880 0034 2046     		mov	r0, r4
 881 0036 70BD     		pop	{r4, r5, r6, pc}
 882              	.LVL91:
 883              	.L83:
 884              		.align	2
 885              	.L82:
 886 0038 00000000 		.word	rlist
 887              		.cfi_endproc
 888              	.LFE18:
 889              		.size	chEvtWaitOne, .-chEvtWaitOne
 890              		.section	.text.chEvtWaitAny,"ax",%progbits
 891              		.align	1
 892              		.p2align 4,,15
 893              		.global	chEvtWaitAny
 894              		.syntax unified
 895              		.thumb
 896              		.thumb_func
 897              		.fpu fpv4-sp-d16
 898              		.type	chEvtWaitAny, %function
 899              	chEvtWaitAny:
 900              	.LFB19:
 901              		.loc 1 379 0
 902              		.cfi_startproc
 903              		@ args = 0, pretend = 0, frame = 0
 904              		@ frame_needed = 0, uses_anonymous_args = 0
 905              	.LVL92:
 906              		.loc 1 380 0
 907 0000 0C4B     		ldr	r3, .L87
 908              		.loc 1 379 0
 909 0002 70B5     		push	{r4, r5, r6, lr}
 910              		.cfi_def_cfa_offset 16
 911              		.cfi_offset 4, -16
 912              		.cfi_offset 5, -12
ARM GAS  /tmp/ccy0l3Hv.s 			page 17


 913              		.cfi_offset 6, -8
 914              		.cfi_offset 14, -4
 915              		.loc 1 379 0
 916 0004 0546     		mov	r5, r0
 917              		.loc 1 380 0
 918 0006 9C69     		ldr	r4, [r3, #24]
 919              	.LVL93:
 920              		.loc 1 383 0
 921              		.syntax unified
 922              	@ 383 "ChibiOS_2.6.6/os/kernel/src/chevents.c" 1
 923 0008 72B6     		cpsid   i
 924              	@ 0 "" 2
 925              		.thumb
 926              		.syntax unified
 927 000a FFF7FEFF 		bl	dbg_check_lock
 928              	.LVL94:
 929              		.loc 1 385 0
 930 000e E36B     		ldr	r3, [r4, #60]
 931              	.LVL95:
 932 0010 13EA0506 		ands	r6, r3, r5
 933              	.LVL96:
 934 0014 06D1     		bne	.L85
 935              		.loc 1 386 0
 936 0016 A562     		str	r5, [r4, #40]
 937              		.loc 1 387 0
 938 0018 0820     		movs	r0, #8
 939 001a FFF7FEFF 		bl	chSchGoSleepS
 940              	.LVL97:
 941              		.loc 1 388 0
 942 001e E36B     		ldr	r3, [r4, #60]
 943 0020 03EA0506 		and	r6, r3, r5
 944              	.LVL98:
 945              	.L85:
 946              		.loc 1 390 0
 947 0024 23EA0603 		bic	r3, r3, r6
 948 0028 E363     		str	r3, [r4, #60]
 949              		.loc 1 392 0
 950 002a FFF7FEFF 		bl	dbg_check_unlock
 951              	.LVL99:
 952              		.syntax unified
 953              	@ 392 "ChibiOS_2.6.6/os/kernel/src/chevents.c" 1
 954 002e 62B6     		cpsie   i
 955              	@ 0 "" 2
 956              		.loc 1 394 0
 957              		.thumb
 958              		.syntax unified
 959 0030 3046     		mov	r0, r6
 960 0032 70BD     		pop	{r4, r5, r6, pc}
 961              	.LVL100:
 962              	.L88:
 963              		.align	2
 964              	.L87:
 965 0034 00000000 		.word	rlist
 966              		.cfi_endproc
 967              	.LFE19:
 968              		.size	chEvtWaitAny, .-chEvtWaitAny
 969              		.section	.text.chEvtWaitAll,"ax",%progbits
ARM GAS  /tmp/ccy0l3Hv.s 			page 18


 970              		.align	1
 971              		.p2align 4,,15
 972              		.global	chEvtWaitAll
 973              		.syntax unified
 974              		.thumb
 975              		.thumb_func
 976              		.fpu fpv4-sp-d16
 977              		.type	chEvtWaitAll, %function
 978              	chEvtWaitAll:
 979              	.LFB20:
 980              		.loc 1 407 0
 981              		.cfi_startproc
 982              		@ args = 0, pretend = 0, frame = 0
 983              		@ frame_needed = 0, uses_anonymous_args = 0
 984              	.LVL101:
 985 0000 38B5     		push	{r3, r4, r5, lr}
 986              		.cfi_def_cfa_offset 16
 987              		.cfi_offset 3, -16
 988              		.cfi_offset 4, -12
 989              		.cfi_offset 5, -8
 990              		.cfi_offset 14, -4
 991              		.loc 1 408 0
 992 0002 0B4B     		ldr	r3, .L92
 993              		.loc 1 407 0
 994 0004 0446     		mov	r4, r0
 995              		.loc 1 408 0
 996 0006 9D69     		ldr	r5, [r3, #24]
 997              	.LVL102:
 998              		.loc 1 410 0
 999              		.syntax unified
 1000              	@ 410 "ChibiOS_2.6.6/os/kernel/src/chevents.c" 1
 1001 0008 72B6     		cpsid   i
 1002              	@ 0 "" 2
 1003              		.thumb
 1004              		.syntax unified
 1005 000a FFF7FEFF 		bl	dbg_check_lock
 1006              	.LVL103:
 1007              		.loc 1 412 0
 1008 000e EB6B     		ldr	r3, [r5, #60]
 1009 0010 34EA0302 		bics	r2, r4, r3
 1010 0014 04D0     		beq	.L90
 1011              		.loc 1 413 0
 1012 0016 AC62     		str	r4, [r5, #40]
 1013              		.loc 1 414 0
 1014 0018 0920     		movs	r0, #9
 1015 001a FFF7FEFF 		bl	chSchGoSleepS
 1016              	.LVL104:
 1017 001e EB6B     		ldr	r3, [r5, #60]
 1018              	.L90:
 1019              		.loc 1 416 0
 1020 0020 23EA0403 		bic	r3, r3, r4
 1021 0024 EB63     		str	r3, [r5, #60]
 1022              		.loc 1 418 0
 1023 0026 FFF7FEFF 		bl	dbg_check_unlock
 1024              	.LVL105:
 1025              		.syntax unified
 1026              	@ 418 "ChibiOS_2.6.6/os/kernel/src/chevents.c" 1
ARM GAS  /tmp/ccy0l3Hv.s 			page 19


 1027 002a 62B6     		cpsie   i
 1028              	@ 0 "" 2
 1029              		.loc 1 420 0
 1030              		.thumb
 1031              		.syntax unified
 1032 002c 2046     		mov	r0, r4
 1033 002e 38BD     		pop	{r3, r4, r5, pc}
 1034              	.LVL106:
 1035              	.L93:
 1036              		.align	2
 1037              	.L92:
 1038 0030 00000000 		.word	rlist
 1039              		.cfi_endproc
 1040              	.LFE20:
 1041              		.size	chEvtWaitAll, .-chEvtWaitAll
 1042              		.section	.text.chEvtWaitOneTimeout,"ax",%progbits
 1043              		.align	1
 1044              		.p2align 4,,15
 1045              		.global	chEvtWaitOneTimeout
 1046              		.syntax unified
 1047              		.thumb
 1048              		.thumb_func
 1049              		.fpu fpv4-sp-d16
 1050              		.type	chEvtWaitOneTimeout, %function
 1051              	chEvtWaitOneTimeout:
 1052              	.LFB21:
 1053              		.loc 1 446 0
 1054              		.cfi_startproc
 1055              		@ args = 0, pretend = 0, frame = 0
 1056              		@ frame_needed = 0, uses_anonymous_args = 0
 1057              	.LVL107:
 1058 0000 F8B5     		push	{r3, r4, r5, r6, r7, lr}
 1059              		.cfi_def_cfa_offset 24
 1060              		.cfi_offset 3, -24
 1061              		.cfi_offset 4, -20
 1062              		.cfi_offset 5, -16
 1063              		.cfi_offset 6, -12
 1064              		.cfi_offset 7, -8
 1065              		.cfi_offset 14, -4
 1066              		.loc 1 447 0
 1067 0002 104B     		ldr	r3, .L101
 1068              		.loc 1 446 0
 1069 0004 0546     		mov	r5, r0
 1070 0006 0F46     		mov	r7, r1
 1071              		.loc 1 447 0
 1072 0008 9E69     		ldr	r6, [r3, #24]
 1073              	.LVL108:
 1074              		.loc 1 450 0
 1075              		.syntax unified
 1076              	@ 450 "ChibiOS_2.6.6/os/kernel/src/chevents.c" 1
 1077 000a 72B6     		cpsid   i
 1078              	@ 0 "" 2
 1079              		.thumb
 1080              		.syntax unified
 1081 000c FFF7FEFF 		bl	dbg_check_lock
 1082              	.LVL109:
 1083              		.loc 1 452 0
ARM GAS  /tmp/ccy0l3Hv.s 			page 20


 1084 0010 F36B     		ldr	r3, [r6, #60]
 1085              	.LVL110:
 1086 0012 13EA0504 		ands	r4, r3, r5
 1087              	.LVL111:
 1088 0016 0AD1     		bne	.L95
 1089              		.loc 1 453 0
 1090 0018 77B1     		cbz	r7, .L100
 1091              		.loc 1 457 0
 1092 001a B562     		str	r5, [r6, #40]
 1093              		.loc 1 458 0
 1094 001c 3946     		mov	r1, r7
 1095 001e 0820     		movs	r0, #8
 1096 0020 FFF7FEFF 		bl	chSchGoSleepTimeoutS
 1097              	.LVL112:
 1098 0024 0028     		cmp	r0, #0
 1099 0026 07DB     		blt	.L100
 1100              		.loc 1 462 0
 1101 0028 F36B     		ldr	r3, [r6, #60]
 1102 002a 03EA0504 		and	r4, r3, r5
 1103              	.LVL113:
 1104              	.L95:
 1105              		.loc 1 464 0
 1106 002e 6242     		negs	r2, r4
 1107 0030 1440     		ands	r4, r4, r2
 1108              	.LVL114:
 1109              		.loc 1 465 0
 1110 0032 23EA0403 		bic	r3, r3, r4
 1111 0036 F363     		str	r3, [r6, #60]
 1112              	.LVL115:
 1113              	.L100:
 1114              		.loc 1 467 0
 1115 0038 FFF7FEFF 		bl	dbg_check_unlock
 1116              	.LVL116:
 1117              		.syntax unified
 1118              	@ 467 "ChibiOS_2.6.6/os/kernel/src/chevents.c" 1
 1119 003c 62B6     		cpsie   i
 1120              	@ 0 "" 2
 1121              		.loc 1 469 0
 1122              		.thumb
 1123              		.syntax unified
 1124 003e 2046     		mov	r0, r4
 1125 0040 F8BD     		pop	{r3, r4, r5, r6, r7, pc}
 1126              	.LVL117:
 1127              	.L102:
 1128 0042 00BF     		.align	2
 1129              	.L101:
 1130 0044 00000000 		.word	rlist
 1131              		.cfi_endproc
 1132              	.LFE21:
 1133              		.size	chEvtWaitOneTimeout, .-chEvtWaitOneTimeout
 1134              		.section	.text.chEvtWaitAnyTimeout,"ax",%progbits
 1135              		.align	1
 1136              		.p2align 4,,15
 1137              		.global	chEvtWaitAnyTimeout
 1138              		.syntax unified
 1139              		.thumb
 1140              		.thumb_func
ARM GAS  /tmp/ccy0l3Hv.s 			page 21


 1141              		.fpu fpv4-sp-d16
 1142              		.type	chEvtWaitAnyTimeout, %function
 1143              	chEvtWaitAnyTimeout:
 1144              	.LFB22:
 1145              		.loc 1 489 0
 1146              		.cfi_startproc
 1147              		@ args = 0, pretend = 0, frame = 0
 1148              		@ frame_needed = 0, uses_anonymous_args = 0
 1149              	.LVL118:
 1150 0000 F8B5     		push	{r3, r4, r5, r6, r7, lr}
 1151              		.cfi_def_cfa_offset 24
 1152              		.cfi_offset 3, -24
 1153              		.cfi_offset 4, -20
 1154              		.cfi_offset 5, -16
 1155              		.cfi_offset 6, -12
 1156              		.cfi_offset 7, -8
 1157              		.cfi_offset 14, -4
 1158              		.loc 1 490 0
 1159 0002 0F4B     		ldr	r3, .L110
 1160              		.loc 1 489 0
 1161 0004 0446     		mov	r4, r0
 1162 0006 0F46     		mov	r7, r1
 1163              		.loc 1 490 0
 1164 0008 9D69     		ldr	r5, [r3, #24]
 1165              	.LVL119:
 1166              		.loc 1 493 0
 1167              		.syntax unified
 1168              	@ 493 "ChibiOS_2.6.6/os/kernel/src/chevents.c" 1
 1169 000a 72B6     		cpsid   i
 1170              	@ 0 "" 2
 1171              		.thumb
 1172              		.syntax unified
 1173 000c FFF7FEFF 		bl	dbg_check_lock
 1174              	.LVL120:
 1175              		.loc 1 495 0
 1176 0010 EB6B     		ldr	r3, [r5, #60]
 1177              	.LVL121:
 1178 0012 13EA0406 		ands	r6, r3, r4
 1179              	.LVL122:
 1180 0016 0AD1     		bne	.L104
 1181              		.loc 1 496 0
 1182 0018 67B1     		cbz	r7, .L109
 1183              		.loc 1 500 0
 1184 001a AC62     		str	r4, [r5, #40]
 1185              		.loc 1 501 0
 1186 001c 3946     		mov	r1, r7
 1187 001e 0820     		movs	r0, #8
 1188 0020 FFF7FEFF 		bl	chSchGoSleepTimeoutS
 1189              	.LVL123:
 1190 0024 0028     		cmp	r0, #0
 1191 0026 05DB     		blt	.L109
 1192              		.loc 1 505 0
 1193 0028 EB6B     		ldr	r3, [r5, #60]
 1194 002a 03EA0406 		and	r6, r3, r4
 1195              	.LVL124:
 1196              	.L104:
 1197              		.loc 1 507 0
ARM GAS  /tmp/ccy0l3Hv.s 			page 22


 1198 002e 23EA0603 		bic	r3, r3, r6
 1199 0032 EB63     		str	r3, [r5, #60]
 1200              	.LVL125:
 1201              	.L109:
 1202              		.loc 1 509 0
 1203 0034 FFF7FEFF 		bl	dbg_check_unlock
 1204              	.LVL126:
 1205              		.syntax unified
 1206              	@ 509 "ChibiOS_2.6.6/os/kernel/src/chevents.c" 1
 1207 0038 62B6     		cpsie   i
 1208              	@ 0 "" 2
 1209              		.loc 1 511 0
 1210              		.thumb
 1211              		.syntax unified
 1212 003a 3046     		mov	r0, r6
 1213 003c F8BD     		pop	{r3, r4, r5, r6, r7, pc}
 1214              	.LVL127:
 1215              	.L111:
 1216 003e 00BF     		.align	2
 1217              	.L110:
 1218 0040 00000000 		.word	rlist
 1219              		.cfi_endproc
 1220              	.LFE22:
 1221              		.size	chEvtWaitAnyTimeout, .-chEvtWaitAnyTimeout
 1222              		.section	.text.chEvtWaitAllTimeout,"ax",%progbits
 1223              		.align	1
 1224              		.p2align 4,,15
 1225              		.global	chEvtWaitAllTimeout
 1226              		.syntax unified
 1227              		.thumb
 1228              		.thumb_func
 1229              		.fpu fpv4-sp-d16
 1230              		.type	chEvtWaitAllTimeout, %function
 1231              	chEvtWaitAllTimeout:
 1232              	.LFB23:
 1233              		.loc 1 530 0
 1234              		.cfi_startproc
 1235              		@ args = 0, pretend = 0, frame = 0
 1236              		@ frame_needed = 0, uses_anonymous_args = 0
 1237              	.LVL128:
 1238              		.loc 1 531 0
 1239 0000 104B     		ldr	r3, .L118
 1240              		.loc 1 530 0
 1241 0002 70B5     		push	{r4, r5, r6, lr}
 1242              		.cfi_def_cfa_offset 16
 1243              		.cfi_offset 4, -16
 1244              		.cfi_offset 5, -12
 1245              		.cfi_offset 6, -8
 1246              		.cfi_offset 14, -4
 1247              		.loc 1 530 0
 1248 0004 0446     		mov	r4, r0
 1249 0006 0E46     		mov	r6, r1
 1250              		.loc 1 531 0
 1251 0008 9D69     		ldr	r5, [r3, #24]
 1252              	.LVL129:
 1253              		.loc 1 533 0
 1254              		.syntax unified
ARM GAS  /tmp/ccy0l3Hv.s 			page 23


 1255              	@ 533 "ChibiOS_2.6.6/os/kernel/src/chevents.c" 1
 1256 000a 72B6     		cpsid   i
 1257              	@ 0 "" 2
 1258              		.thumb
 1259              		.syntax unified
 1260 000c FFF7FEFF 		bl	dbg_check_lock
 1261              	.LVL130:
 1262              		.loc 1 535 0
 1263 0010 EB6B     		ldr	r3, [r5, #60]
 1264 0012 34EA0302 		bics	r2, r4, r3
 1265 0016 08D0     		beq	.L113
 1266              		.loc 1 536 0
 1267 0018 7EB1     		cbz	r6, .L116
 1268              		.loc 1 540 0
 1269 001a AC62     		str	r4, [r5, #40]
 1270              		.loc 1 541 0
 1271 001c 3146     		mov	r1, r6
 1272 001e 0920     		movs	r0, #9
 1273 0020 FFF7FEFF 		bl	chSchGoSleepTimeoutS
 1274              	.LVL131:
 1275 0024 0028     		cmp	r0, #0
 1276 0026 08DB     		blt	.L116
 1277 0028 EB6B     		ldr	r3, [r5, #60]
 1278              	.L113:
 1279              		.loc 1 546 0
 1280 002a 23EA0403 		bic	r3, r3, r4
 1281 002e EB63     		str	r3, [r5, #60]
 1282              		.loc 1 548 0
 1283 0030 FFF7FEFF 		bl	dbg_check_unlock
 1284              	.LVL132:
 1285              		.syntax unified
 1286              	@ 548 "ChibiOS_2.6.6/os/kernel/src/chevents.c" 1
 1287 0034 62B6     		cpsie   i
 1288              	@ 0 "" 2
 1289              		.loc 1 549 0
 1290              		.thumb
 1291              		.syntax unified
 1292 0036 2046     		mov	r0, r4
 1293              		.loc 1 550 0
 1294 0038 70BD     		pop	{r4, r5, r6, pc}
 1295              	.LVL133:
 1296              	.L116:
 1297              		.loc 1 542 0
 1298 003a FFF7FEFF 		bl	dbg_check_unlock
 1299              	.LVL134:
 1300              		.syntax unified
 1301              	@ 542 "ChibiOS_2.6.6/os/kernel/src/chevents.c" 1
 1302 003e 62B6     		cpsie   i
 1303              	@ 0 "" 2
 1304              		.loc 1 543 0
 1305              		.thumb
 1306              		.syntax unified
 1307 0040 0020     		movs	r0, #0
 1308              		.loc 1 550 0
 1309 0042 70BD     		pop	{r4, r5, r6, pc}
 1310              	.LVL135:
 1311              	.L119:
ARM GAS  /tmp/ccy0l3Hv.s 			page 24


 1312              		.align	2
 1313              	.L118:
 1314 0044 00000000 		.word	rlist
 1315              		.cfi_endproc
 1316              	.LFE23:
 1317              		.size	chEvtWaitAllTimeout, .-chEvtWaitAllTimeout
 1318              		.section	.rodata.chEvtBroadcastFlagsI.str1.4,"aMS",%progbits,1
 1319              		.align	2
 1320              	.LC3:
 1321 0000 22636845 		.ascii	"\"chEvtBroadcastMaskI\"()\000"
 1321      76744272 
 1321      6F616463 
 1321      6173744D 
 1321      61736B49 
 1322              		.section	.rodata.chEvtDispatch.str1.4,"aMS",%progbits,1
 1323              		.align	2
 1324              	.LC5:
 1325 0000 22636845 		.ascii	"\"chEvtDispatch\"()\000"
 1325      76744469 
 1325      73706174 
 1325      63682228 
 1325      2900
 1326 0012 0000     		.space	2
 1327              	.LC6:
 1328 0014 63684576 		.ascii	"chEvtDispatch(), #1\000"
 1328      74446973 
 1328      70617463 
 1328      6828292C 
 1328      20233100 
 1329              		.section	.rodata.chEvtRegisterMask.str1.4,"aMS",%progbits,1
 1330              		.align	2
 1331              	.LC0:
 1332 0000 22636845 		.ascii	"\"chEvtRegisterMask\"()\000"
 1332      76745265 
 1332      67697374 
 1332      65724D61 
 1332      736B2228 
 1333              		.section	.rodata.chEvtSignal.str1.4,"aMS",%progbits,1
 1334              		.align	2
 1335              	.LC4:
 1336 0000 22636845 		.ascii	"\"chEvtSignal\"()\000"
 1336      76745369 
 1336      676E616C 
 1336      22282900 
 1337              		.section	.rodata.chEvtSignalI.str1.4,"aMS",%progbits,1
 1338              		.align	2
 1339              	.LC2:
 1340 0000 22636845 		.ascii	"\"chEvtSignalI\"()\000"
 1340      76745369 
 1340      676E616C 
 1340      49222829 
 1340      00
 1341              		.section	.rodata.chEvtUnregister.str1.4,"aMS",%progbits,1
 1342              		.align	2
 1343              	.LC1:
 1344 0000 22636845 		.ascii	"\"chEvtUnregister\"()\000"
 1344      7674556E 
ARM GAS  /tmp/ccy0l3Hv.s 			page 25


 1344      72656769 
 1344      73746572 
 1344      22282900 
 1345              		.text
 1346              	.Letext0:
 1347              		.file 2 "/usr/arm-none-eabi/include/machine/_default_types.h"
 1348              		.file 3 "/usr/arm-none-eabi/include/sys/_stdint.h"
 1349              		.file 4 "ChibiOS_2.6.6/os/ports/GCC/ARMCMx/chtypes.h"
 1350              		.file 5 "ChibiOS_2.6.6/os/kernel/include/chlists.h"
 1351              		.file 6 "ChibiOS_2.6.6/os/kernel/include/chthreads.h"
 1352              		.file 7 "ChibiOS_2.6.6/os/ports/GCC/ARMCMx/chcore_v7m.h"
 1353              		.file 8 "ChibiOS_2.6.6/os/kernel/include/chvt.h"
 1354              		.file 9 "ChibiOS_2.6.6/os/kernel/include/chschd.h"
 1355              		.file 10 "ChibiOS_2.6.6/os/kernel/include/chmtx.h"
 1356              		.file 11 "ChibiOS_2.6.6/os/kernel/include/chevents.h"
 1357              		.file 12 "ChibiOS_2.6.6/os/kernel/include/chregistry.h"
 1358              		.file 13 "ChibiOS_2.6.6/os/kernel/include/chdebug.h"
 1359              		.file 14 "ChibiOS_2.6.6/os/kernel/include/ch.h"
 1360              		.section	.debug_info,"",%progbits
 1361              	.Ldebug_info0:
 1362 0000 F90F0000 		.4byte	0xff9
 1363 0004 0400     		.2byte	0x4
 1364 0006 00000000 		.4byte	.Ldebug_abbrev0
 1365 000a 04       		.byte	0x4
 1366 000b 01       		.uleb128 0x1
 1367 000c 69000000 		.4byte	.LASF154
 1368 0010 0C       		.byte	0xc
 1369 0011 FE010000 		.4byte	.LASF155
 1370 0015 0F040000 		.4byte	.LASF156
 1371 0019 18000000 		.4byte	.Ldebug_ranges0+0x18
 1372 001d 00000000 		.4byte	0
 1373 0021 00000000 		.4byte	.Ldebug_line0
 1374 0025 02       		.uleb128 0x2
 1375 0026 04       		.byte	0x4
 1376 0027 05       		.byte	0x5
 1377 0028 696E7400 		.ascii	"int\000"
 1378 002c 03       		.uleb128 0x3
 1379 002d 04       		.byte	0x4
 1380 002e 07       		.byte	0x7
 1381 002f 51030000 		.4byte	.LASF0
 1382 0033 03       		.uleb128 0x3
 1383 0034 01       		.byte	0x1
 1384 0035 06       		.byte	0x6
 1385 0036 F2010000 		.4byte	.LASF1
 1386 003a 04       		.uleb128 0x4
 1387 003b 3E000000 		.4byte	.LASF4
 1388 003f 02       		.byte	0x2
 1389 0040 2B       		.byte	0x2b
 1390 0041 45000000 		.4byte	0x45
 1391 0045 03       		.uleb128 0x3
 1392 0046 01       		.byte	0x1
 1393 0047 08       		.byte	0x8
 1394 0048 AE050000 		.4byte	.LASF2
 1395 004c 03       		.uleb128 0x3
 1396 004d 02       		.byte	0x2
 1397 004e 05       		.byte	0x5
 1398 004f F6050000 		.4byte	.LASF3
ARM GAS  /tmp/ccy0l3Hv.s 			page 26


 1399 0053 04       		.uleb128 0x4
 1400 0054 B0060000 		.4byte	.LASF5
 1401 0058 02       		.byte	0x2
 1402 0059 39       		.byte	0x39
 1403 005a 5E000000 		.4byte	0x5e
 1404 005e 03       		.uleb128 0x3
 1405 005f 02       		.byte	0x2
 1406 0060 07       		.byte	0x7
 1407 0061 C4030000 		.4byte	.LASF6
 1408 0065 04       		.uleb128 0x4
 1409 0066 E3060000 		.4byte	.LASF7
 1410 006a 02       		.byte	0x2
 1411 006b 4D       		.byte	0x4d
 1412 006c 70000000 		.4byte	0x70
 1413 0070 03       		.uleb128 0x3
 1414 0071 04       		.byte	0x4
 1415 0072 05       		.byte	0x5
 1416 0073 60020000 		.4byte	.LASF8
 1417 0077 04       		.uleb128 0x4
 1418 0078 E1020000 		.4byte	.LASF9
 1419 007c 02       		.byte	0x2
 1420 007d 4F       		.byte	0x4f
 1421 007e 82000000 		.4byte	0x82
 1422 0082 03       		.uleb128 0x3
 1423 0083 04       		.byte	0x4
 1424 0084 07       		.byte	0x7
 1425 0085 66030000 		.4byte	.LASF10
 1426 0089 03       		.uleb128 0x3
 1427 008a 08       		.byte	0x8
 1428 008b 05       		.byte	0x5
 1429 008c E4010000 		.4byte	.LASF11
 1430 0090 04       		.uleb128 0x4
 1431 0091 40050000 		.4byte	.LASF12
 1432 0095 02       		.byte	0x2
 1433 0096 69       		.byte	0x69
 1434 0097 9B000000 		.4byte	0x9b
 1435 009b 03       		.uleb128 0x3
 1436 009c 08       		.byte	0x8
 1437 009d 07       		.byte	0x7
 1438 009e 8D010000 		.4byte	.LASF13
 1439 00a2 04       		.uleb128 0x4
 1440 00a3 51070000 		.4byte	.LASF14
 1441 00a7 03       		.byte	0x3
 1442 00a8 18       		.byte	0x18
 1443 00a9 3A000000 		.4byte	0x3a
 1444 00ad 04       		.uleb128 0x4
 1445 00ae 7F020000 		.4byte	.LASF15
 1446 00b2 03       		.byte	0x3
 1447 00b3 24       		.byte	0x24
 1448 00b4 53000000 		.4byte	0x53
 1449 00b8 04       		.uleb128 0x4
 1450 00b9 A6050000 		.4byte	.LASF16
 1451 00bd 03       		.byte	0x3
 1452 00be 2C       		.byte	0x2c
 1453 00bf 65000000 		.4byte	0x65
 1454 00c3 04       		.uleb128 0x4
 1455 00c4 8E060000 		.4byte	.LASF17
ARM GAS  /tmp/ccy0l3Hv.s 			page 27


 1456 00c8 03       		.byte	0x3
 1457 00c9 30       		.byte	0x30
 1458 00ca 77000000 		.4byte	0x77
 1459 00ce 04       		.uleb128 0x4
 1460 00cf 35000000 		.4byte	.LASF18
 1461 00d3 03       		.byte	0x3
 1462 00d4 3C       		.byte	0x3c
 1463 00d5 90000000 		.4byte	0x90
 1464 00d9 03       		.uleb128 0x3
 1465 00da 01       		.byte	0x1
 1466 00db 02       		.byte	0x2
 1467 00dc A0050000 		.4byte	.LASF19
 1468 00e0 04       		.uleb128 0x4
 1469 00e1 30040000 		.4byte	.LASF20
 1470 00e5 04       		.byte	0x4
 1471 00e6 2C       		.byte	0x2c
 1472 00e7 A2000000 		.4byte	0xa2
 1473 00eb 04       		.uleb128 0x4
 1474 00ec 69020000 		.4byte	.LASF21
 1475 00f0 04       		.byte	0x4
 1476 00f1 2D       		.byte	0x2d
 1477 00f2 A2000000 		.4byte	0xa2
 1478 00f6 04       		.uleb128 0x4
 1479 00f7 65050000 		.4byte	.LASF22
 1480 00fb 04       		.byte	0x4
 1481 00fc 2E       		.byte	0x2e
 1482 00fd A2000000 		.4byte	0xa2
 1483 0101 04       		.uleb128 0x4
 1484 0102 56020000 		.4byte	.LASF23
 1485 0106 04       		.byte	0x4
 1486 0107 2F       		.byte	0x2f
 1487 0108 A2000000 		.4byte	0xa2
 1488 010c 04       		.uleb128 0x4
 1489 010d 89050000 		.4byte	.LASF24
 1490 0111 04       		.byte	0x4
 1491 0112 30       		.byte	0x30
 1492 0113 C3000000 		.4byte	0xc3
 1493 0117 04       		.uleb128 0x4
 1494 0118 E9030000 		.4byte	.LASF25
 1495 011c 04       		.byte	0x4
 1496 011d 31       		.byte	0x31
 1497 011e B8000000 		.4byte	0xb8
 1498 0122 04       		.uleb128 0x4
 1499 0123 16030000 		.4byte	.LASF26
 1500 0127 04       		.byte	0x4
 1501 0128 32       		.byte	0x32
 1502 0129 B8000000 		.4byte	0xb8
 1503 012d 04       		.uleb128 0x4
 1504 012e 50040000 		.4byte	.LASF27
 1505 0132 04       		.byte	0x4
 1506 0133 33       		.byte	0x33
 1507 0134 C3000000 		.4byte	0xc3
 1508 0138 04       		.uleb128 0x4
 1509 0139 1A070000 		.4byte	.LASF28
 1510 013d 04       		.byte	0x4
 1511 013e 34       		.byte	0x34
 1512 013f C3000000 		.4byte	0xc3
ARM GAS  /tmp/ccy0l3Hv.s 			page 28


 1513 0143 04       		.uleb128 0x4
 1514 0144 CE060000 		.4byte	.LASF29
 1515 0148 04       		.byte	0x4
 1516 0149 35       		.byte	0x35
 1517 014a C3000000 		.4byte	0xc3
 1518 014e 05       		.uleb128 0x5
 1519 014f 43010000 		.4byte	0x143
 1520 0153 04       		.uleb128 0x4
 1521 0154 40030000 		.4byte	.LASF30
 1522 0158 04       		.byte	0x4
 1523 0159 36       		.byte	0x36
 1524 015a B8000000 		.4byte	0xb8
 1525 015e 04       		.uleb128 0x4
 1526 015f 61060000 		.4byte	.LASF31
 1527 0163 05       		.byte	0x5
 1528 0164 2A       		.byte	0x2a
 1529 0165 69010000 		.4byte	0x169
 1530 0169 06       		.uleb128 0x6
 1531 016a 61060000 		.4byte	.LASF31
 1532 016e 4C       		.byte	0x4c
 1533 016f 06       		.byte	0x6
 1534 0170 5E       		.byte	0x5e
 1535 0171 72020000 		.4byte	0x272
 1536 0175 07       		.uleb128 0x7
 1537 0176 43060000 		.4byte	.LASF32
 1538 017a 06       		.byte	0x6
 1539 017b 5F       		.byte	0x5f
 1540 017c 93020000 		.4byte	0x293
 1541 0180 00       		.byte	0
 1542 0181 07       		.uleb128 0x7
 1543 0182 82050000 		.4byte	.LASF33
 1544 0186 06       		.byte	0x6
 1545 0187 61       		.byte	0x61
 1546 0188 93020000 		.4byte	0x293
 1547 018c 04       		.byte	0x4
 1548 018d 07       		.uleb128 0x7
 1549 018e CA010000 		.4byte	.LASF34
 1550 0192 06       		.byte	0x6
 1551 0193 63       		.byte	0x63
 1552 0194 0C010000 		.4byte	0x10c
 1553 0198 08       		.byte	0x8
 1554 0199 07       		.uleb128 0x7
 1555 019a FE070000 		.4byte	.LASF35
 1556 019e 06       		.byte	0x6
 1557 019f 64       		.byte	0x64
 1558 01a0 29040000 		.4byte	0x429
 1559 01a4 0C       		.byte	0xc
 1560 01a5 07       		.uleb128 0x7
 1561 01a6 A7020000 		.4byte	.LASF36
 1562 01aa 06       		.byte	0x6
 1563 01ab 66       		.byte	0x66
 1564 01ac 93020000 		.4byte	0x293
 1565 01b0 10       		.byte	0x10
 1566 01b1 07       		.uleb128 0x7
 1567 01b2 F1040000 		.4byte	.LASF37
 1568 01b6 06       		.byte	0x6
 1569 01b7 67       		.byte	0x67
ARM GAS  /tmp/ccy0l3Hv.s 			page 29


 1570 01b8 93020000 		.4byte	0x293
 1571 01bc 14       		.byte	0x14
 1572 01bd 07       		.uleb128 0x7
 1573 01be 88070000 		.4byte	.LASF38
 1574 01c2 06       		.byte	0x6
 1575 01c3 6E       		.byte	0x6e
 1576 01c4 80060000 		.4byte	0x680
 1577 01c8 18       		.byte	0x18
 1578 01c9 07       		.uleb128 0x7
 1579 01ca 46030000 		.4byte	.LASF39
 1580 01ce 06       		.byte	0x6
 1581 01cf 74       		.byte	0x74
 1582 01d0 92060000 		.4byte	0x692
 1583 01d4 1C       		.byte	0x1c
 1584 01d5 07       		.uleb128 0x7
 1585 01d6 00060000 		.4byte	.LASF40
 1586 01da 06       		.byte	0x6
 1587 01db 79       		.byte	0x79
 1588 01dc EB000000 		.4byte	0xeb
 1589 01e0 20       		.byte	0x20
 1590 01e1 07       		.uleb128 0x7
 1591 01e2 59060000 		.4byte	.LASF41
 1592 01e6 06       		.byte	0x6
 1593 01e7 7D       		.byte	0x7d
 1594 01e8 E0000000 		.4byte	0xe0
 1595 01ec 21       		.byte	0x21
 1596 01ed 07       		.uleb128 0x7
 1597 01ee 31070000 		.4byte	.LASF42
 1598 01f2 06       		.byte	0x6
 1599 01f3 82       		.byte	0x82
 1600 01f4 F6000000 		.4byte	0xf6
 1601 01f8 22       		.byte	0x22
 1602 01f9 07       		.uleb128 0x7
 1603 01fa 08060000 		.4byte	.LASF43
 1604 01fe 06       		.byte	0x6
 1605 01ff 88       		.byte	0x88
 1606 0200 01010000 		.4byte	0x101
 1607 0204 23       		.byte	0x23
 1608 0205 07       		.uleb128 0x7
 1609 0206 FA060000 		.4byte	.LASF44
 1610 020a 06       		.byte	0x6
 1611 020b 8F       		.byte	0x8f
 1612 020c 4E010000 		.4byte	0x14e
 1613 0210 24       		.byte	0x24
 1614 0211 08       		.uleb128 0x8
 1615 0212 705F7500 		.ascii	"p_u\000"
 1616 0216 06       		.byte	0x6
 1617 0217 B4       		.byte	0xb4
 1618 0218 4B060000 		.4byte	0x64b
 1619 021c 28       		.byte	0x28
 1620 021d 07       		.uleb128 0x7
 1621 021e 04080000 		.4byte	.LASF45
 1622 0222 06       		.byte	0x6
 1623 0223 B9       		.byte	0xb9
 1624 0224 B9020000 		.4byte	0x2b9
 1625 0228 2C       		.byte	0x2c
 1626 0229 07       		.uleb128 0x7
ARM GAS  /tmp/ccy0l3Hv.s 			page 30


 1627 022a 08070000 		.4byte	.LASF46
 1628 022e 06       		.byte	0x6
 1629 022f BF       		.byte	0xbf
 1630 0230 99020000 		.4byte	0x299
 1631 0234 30       		.byte	0x30
 1632 0235 07       		.uleb128 0x7
 1633 0236 0D000000 		.4byte	.LASF47
 1634 023a 06       		.byte	0x6
 1635 023b C3       		.byte	0xc3
 1636 023c 17010000 		.4byte	0x117
 1637 0240 38       		.byte	0x38
 1638 0241 07       		.uleb128 0x7
 1639 0242 83060000 		.4byte	.LASF48
 1640 0246 06       		.byte	0x6
 1641 0247 C9       		.byte	0xc9
 1642 0248 2D010000 		.4byte	0x12d
 1643 024c 3C       		.byte	0x3c
 1644 024d 07       		.uleb128 0x7
 1645 024e EC050000 		.4byte	.LASF49
 1646 0252 06       		.byte	0x6
 1647 0253 D0       		.byte	0xd0
 1648 0254 98060000 		.4byte	0x698
 1649 0258 40       		.byte	0x40
 1650 0259 07       		.uleb128 0x7
 1651 025a D8060000 		.4byte	.LASF50
 1652 025e 06       		.byte	0x6
 1653 025f D4       		.byte	0xd4
 1654 0260 0C010000 		.4byte	0x10c
 1655 0264 44       		.byte	0x44
 1656 0265 07       		.uleb128 0x7
 1657 0266 46020000 		.4byte	.LASF51
 1658 026a 06       		.byte	0x6
 1659 026b DA       		.byte	0xda
 1660 026c CF020000 		.4byte	0x2cf
 1661 0270 48       		.byte	0x48
 1662 0271 00       		.byte	0
 1663 0272 09       		.uleb128 0x9
 1664 0273 08       		.byte	0x8
 1665 0274 05       		.byte	0x5
 1666 0275 61       		.byte	0x61
 1667 0276 93020000 		.4byte	0x293
 1668 027a 07       		.uleb128 0x7
 1669 027b 43060000 		.4byte	.LASF32
 1670 027f 05       		.byte	0x5
 1671 0280 62       		.byte	0x62
 1672 0281 93020000 		.4byte	0x293
 1673 0285 00       		.byte	0
 1674 0286 07       		.uleb128 0x7
 1675 0287 82050000 		.4byte	.LASF33
 1676 028b 05       		.byte	0x5
 1677 028c 64       		.byte	0x64
 1678 028d 93020000 		.4byte	0x293
 1679 0291 04       		.byte	0x4
 1680 0292 00       		.byte	0
 1681 0293 0A       		.uleb128 0xa
 1682 0294 04       		.byte	0x4
 1683 0295 5E010000 		.4byte	0x15e
ARM GAS  /tmp/ccy0l3Hv.s 			page 31


 1684 0299 04       		.uleb128 0x4
 1685 029a FF040000 		.4byte	.LASF52
 1686 029e 05       		.byte	0x5
 1687 029f 66       		.byte	0x66
 1688 02a0 72020000 		.4byte	0x272
 1689 02a4 09       		.uleb128 0x9
 1690 02a5 04       		.byte	0x4
 1691 02a6 05       		.byte	0x5
 1692 02a7 6B       		.byte	0x6b
 1693 02a8 B9020000 		.4byte	0x2b9
 1694 02ac 07       		.uleb128 0x7
 1695 02ad 43060000 		.4byte	.LASF32
 1696 02b1 05       		.byte	0x5
 1697 02b2 6D       		.byte	0x6d
 1698 02b3 93020000 		.4byte	0x293
 1699 02b7 00       		.byte	0
 1700 02b8 00       		.byte	0
 1701 02b9 04       		.uleb128 0x4
 1702 02ba 44040000 		.4byte	.LASF53
 1703 02be 05       		.byte	0x5
 1704 02bf 70       		.byte	0x70
 1705 02c0 A4020000 		.4byte	0x2a4
 1706 02c4 04       		.uleb128 0x4
 1707 02c5 F1020000 		.4byte	.LASF54
 1708 02c9 07       		.byte	0x7
 1709 02ca E5       		.byte	0xe5
 1710 02cb CF020000 		.4byte	0x2cf
 1711 02cf 0B       		.uleb128 0xb
 1712 02d0 04       		.byte	0x4
 1713 02d1 0C       		.uleb128 0xc
 1714 02d2 71040000 		.4byte	.LASF157
 1715 02d6 07       		.byte	0x7
 1716 02d7 EB       		.byte	0xeb
 1717 02d8 CE000000 		.4byte	0xce
 1718 02dc 08       		.byte	0x8
 1719 02dd 0D       		.uleb128 0xd
 1720 02de 01070000 		.4byte	.LASF55
 1721 02e2 64       		.byte	0x64
 1722 02e3 07       		.byte	0x7
 1723 02e4 0C01     		.2byte	0x10c
 1724 02e6 29040000 		.4byte	0x429
 1725 02ea 0E       		.uleb128 0xe
 1726 02eb 73313600 		.ascii	"s16\000"
 1727 02ef 07       		.byte	0x7
 1728 02f0 0E01     		.2byte	0x10e
 1729 02f2 C4020000 		.4byte	0x2c4
 1730 02f6 00       		.byte	0
 1731 02f7 0E       		.uleb128 0xe
 1732 02f8 73313700 		.ascii	"s17\000"
 1733 02fc 07       		.byte	0x7
 1734 02fd 0F01     		.2byte	0x10f
 1735 02ff C4020000 		.4byte	0x2c4
 1736 0303 04       		.byte	0x4
 1737 0304 0E       		.uleb128 0xe
 1738 0305 73313800 		.ascii	"s18\000"
 1739 0309 07       		.byte	0x7
 1740 030a 1001     		.2byte	0x110
ARM GAS  /tmp/ccy0l3Hv.s 			page 32


 1741 030c C4020000 		.4byte	0x2c4
 1742 0310 08       		.byte	0x8
 1743 0311 0E       		.uleb128 0xe
 1744 0312 73313900 		.ascii	"s19\000"
 1745 0316 07       		.byte	0x7
 1746 0317 1101     		.2byte	0x111
 1747 0319 C4020000 		.4byte	0x2c4
 1748 031d 0C       		.byte	0xc
 1749 031e 0E       		.uleb128 0xe
 1750 031f 73323000 		.ascii	"s20\000"
 1751 0323 07       		.byte	0x7
 1752 0324 1201     		.2byte	0x112
 1753 0326 C4020000 		.4byte	0x2c4
 1754 032a 10       		.byte	0x10
 1755 032b 0E       		.uleb128 0xe
 1756 032c 73323100 		.ascii	"s21\000"
 1757 0330 07       		.byte	0x7
 1758 0331 1301     		.2byte	0x113
 1759 0333 C4020000 		.4byte	0x2c4
 1760 0337 14       		.byte	0x14
 1761 0338 0E       		.uleb128 0xe
 1762 0339 73323200 		.ascii	"s22\000"
 1763 033d 07       		.byte	0x7
 1764 033e 1401     		.2byte	0x114
 1765 0340 C4020000 		.4byte	0x2c4
 1766 0344 18       		.byte	0x18
 1767 0345 0E       		.uleb128 0xe
 1768 0346 73323300 		.ascii	"s23\000"
 1769 034a 07       		.byte	0x7
 1770 034b 1501     		.2byte	0x115
 1771 034d C4020000 		.4byte	0x2c4
 1772 0351 1C       		.byte	0x1c
 1773 0352 0E       		.uleb128 0xe
 1774 0353 73323400 		.ascii	"s24\000"
 1775 0357 07       		.byte	0x7
 1776 0358 1601     		.2byte	0x116
 1777 035a C4020000 		.4byte	0x2c4
 1778 035e 20       		.byte	0x20
 1779 035f 0E       		.uleb128 0xe
 1780 0360 73323500 		.ascii	"s25\000"
 1781 0364 07       		.byte	0x7
 1782 0365 1701     		.2byte	0x117
 1783 0367 C4020000 		.4byte	0x2c4
 1784 036b 24       		.byte	0x24
 1785 036c 0E       		.uleb128 0xe
 1786 036d 73323600 		.ascii	"s26\000"
 1787 0371 07       		.byte	0x7
 1788 0372 1801     		.2byte	0x118
 1789 0374 C4020000 		.4byte	0x2c4
 1790 0378 28       		.byte	0x28
 1791 0379 0E       		.uleb128 0xe
 1792 037a 73323700 		.ascii	"s27\000"
 1793 037e 07       		.byte	0x7
 1794 037f 1901     		.2byte	0x119
 1795 0381 C4020000 		.4byte	0x2c4
 1796 0385 2C       		.byte	0x2c
 1797 0386 0E       		.uleb128 0xe
ARM GAS  /tmp/ccy0l3Hv.s 			page 33


 1798 0387 73323800 		.ascii	"s28\000"
 1799 038b 07       		.byte	0x7
 1800 038c 1A01     		.2byte	0x11a
 1801 038e C4020000 		.4byte	0x2c4
 1802 0392 30       		.byte	0x30
 1803 0393 0E       		.uleb128 0xe
 1804 0394 73323900 		.ascii	"s29\000"
 1805 0398 07       		.byte	0x7
 1806 0399 1B01     		.2byte	0x11b
 1807 039b C4020000 		.4byte	0x2c4
 1808 039f 34       		.byte	0x34
 1809 03a0 0E       		.uleb128 0xe
 1810 03a1 73333000 		.ascii	"s30\000"
 1811 03a5 07       		.byte	0x7
 1812 03a6 1C01     		.2byte	0x11c
 1813 03a8 C4020000 		.4byte	0x2c4
 1814 03ac 38       		.byte	0x38
 1815 03ad 0E       		.uleb128 0xe
 1816 03ae 73333100 		.ascii	"s31\000"
 1817 03b2 07       		.byte	0x7
 1818 03b3 1D01     		.2byte	0x11d
 1819 03b5 C4020000 		.4byte	0x2c4
 1820 03b9 3C       		.byte	0x3c
 1821 03ba 0E       		.uleb128 0xe
 1822 03bb 723400   		.ascii	"r4\000"
 1823 03be 07       		.byte	0x7
 1824 03bf 1F01     		.2byte	0x11f
 1825 03c1 C4020000 		.4byte	0x2c4
 1826 03c5 40       		.byte	0x40
 1827 03c6 0E       		.uleb128 0xe
 1828 03c7 723500   		.ascii	"r5\000"
 1829 03ca 07       		.byte	0x7
 1830 03cb 2001     		.2byte	0x120
 1831 03cd C4020000 		.4byte	0x2c4
 1832 03d1 44       		.byte	0x44
 1833 03d2 0E       		.uleb128 0xe
 1834 03d3 723600   		.ascii	"r6\000"
 1835 03d6 07       		.byte	0x7
 1836 03d7 2101     		.2byte	0x121
 1837 03d9 C4020000 		.4byte	0x2c4
 1838 03dd 48       		.byte	0x48
 1839 03de 0E       		.uleb128 0xe
 1840 03df 723700   		.ascii	"r7\000"
 1841 03e2 07       		.byte	0x7
 1842 03e3 2201     		.2byte	0x122
 1843 03e5 C4020000 		.4byte	0x2c4
 1844 03e9 4C       		.byte	0x4c
 1845 03ea 0E       		.uleb128 0xe
 1846 03eb 723800   		.ascii	"r8\000"
 1847 03ee 07       		.byte	0x7
 1848 03ef 2301     		.2byte	0x123
 1849 03f1 C4020000 		.4byte	0x2c4
 1850 03f5 50       		.byte	0x50
 1851 03f6 0E       		.uleb128 0xe
 1852 03f7 723900   		.ascii	"r9\000"
 1853 03fa 07       		.byte	0x7
 1854 03fb 2401     		.2byte	0x124
ARM GAS  /tmp/ccy0l3Hv.s 			page 34


 1855 03fd C4020000 		.4byte	0x2c4
 1856 0401 54       		.byte	0x54
 1857 0402 0E       		.uleb128 0xe
 1858 0403 72313000 		.ascii	"r10\000"
 1859 0407 07       		.byte	0x7
 1860 0408 2501     		.2byte	0x125
 1861 040a C4020000 		.4byte	0x2c4
 1862 040e 58       		.byte	0x58
 1863 040f 0E       		.uleb128 0xe
 1864 0410 72313100 		.ascii	"r11\000"
 1865 0414 07       		.byte	0x7
 1866 0415 2601     		.2byte	0x126
 1867 0417 C4020000 		.4byte	0x2c4
 1868 041b 5C       		.byte	0x5c
 1869 041c 0E       		.uleb128 0xe
 1870 041d 6C7200   		.ascii	"lr\000"
 1871 0420 07       		.byte	0x7
 1872 0421 2701     		.2byte	0x127
 1873 0423 C4020000 		.4byte	0x2c4
 1874 0427 60       		.byte	0x60
 1875 0428 00       		.byte	0
 1876 0429 0D       		.uleb128 0xd
 1877 042a BC030000 		.4byte	.LASF56
 1878 042e 04       		.byte	0x4
 1879 042f 07       		.byte	0x7
 1880 0430 3101     		.2byte	0x131
 1881 0432 44040000 		.4byte	0x444
 1882 0436 0E       		.uleb128 0xe
 1883 0437 72313300 		.ascii	"r13\000"
 1884 043b 07       		.byte	0x7
 1885 043c 3201     		.2byte	0x132
 1886 043e 44040000 		.4byte	0x444
 1887 0442 00       		.byte	0
 1888 0443 00       		.byte	0
 1889 0444 0A       		.uleb128 0xa
 1890 0445 04       		.byte	0x4
 1891 0446 DD020000 		.4byte	0x2dd
 1892 044a 04       		.uleb128 0x4
 1893 044b 98030000 		.4byte	.LASF57
 1894 044f 08       		.byte	0x8
 1895 0450 58       		.byte	0x58
 1896 0451 55040000 		.4byte	0x455
 1897 0455 0A       		.uleb128 0xa
 1898 0456 04       		.byte	0x4
 1899 0457 5B040000 		.4byte	0x45b
 1900 045b 0F       		.uleb128 0xf
 1901 045c 66040000 		.4byte	0x466
 1902 0460 10       		.uleb128 0x10
 1903 0461 CF020000 		.4byte	0x2cf
 1904 0465 00       		.byte	0
 1905 0466 04       		.uleb128 0x4
 1906 0467 AF030000 		.4byte	.LASF58
 1907 046b 08       		.byte	0x8
 1908 046c 5D       		.byte	0x5d
 1909 046d 71040000 		.4byte	0x471
 1910 0471 06       		.uleb128 0x6
 1911 0472 AF030000 		.4byte	.LASF58
ARM GAS  /tmp/ccy0l3Hv.s 			page 35


 1912 0476 14       		.byte	0x14
 1913 0477 08       		.byte	0x8
 1914 0478 64       		.byte	0x64
 1915 0479 BA040000 		.4byte	0x4ba
 1916 047d 07       		.uleb128 0x7
 1917 047e 5E030000 		.4byte	.LASF59
 1918 0482 08       		.byte	0x8
 1919 0483 65       		.byte	0x65
 1920 0484 BA040000 		.4byte	0x4ba
 1921 0488 00       		.byte	0
 1922 0489 07       		.uleb128 0x7
 1923 048a FA020000 		.4byte	.LASF60
 1924 048e 08       		.byte	0x8
 1925 048f 67       		.byte	0x67
 1926 0490 BA040000 		.4byte	0x4ba
 1927 0494 04       		.byte	0x4
 1928 0495 07       		.uleb128 0x7
 1929 0496 90040000 		.4byte	.LASF61
 1930 049a 08       		.byte	0x8
 1931 049b 69       		.byte	0x69
 1932 049c 43010000 		.4byte	0x143
 1933 04a0 08       		.byte	0x8
 1934 04a1 07       		.uleb128 0x7
 1935 04a2 B4040000 		.4byte	.LASF62
 1936 04a6 08       		.byte	0x8
 1937 04a7 6A       		.byte	0x6a
 1938 04a8 4A040000 		.4byte	0x44a
 1939 04ac 0C       		.byte	0xc
 1940 04ad 07       		.uleb128 0x7
 1941 04ae 13070000 		.4byte	.LASF63
 1942 04b2 08       		.byte	0x8
 1943 04b3 6C       		.byte	0x6c
 1944 04b4 CF020000 		.4byte	0x2cf
 1945 04b8 10       		.byte	0x10
 1946 04b9 00       		.byte	0
 1947 04ba 0A       		.uleb128 0xa
 1948 04bb 04       		.byte	0x4
 1949 04bc 66040000 		.4byte	0x466
 1950 04c0 09       		.uleb128 0x9
 1951 04c1 10       		.byte	0x10
 1952 04c2 08       		.byte	0x8
 1953 04c3 76       		.byte	0x76
 1954 04c4 F9040000 		.4byte	0x4f9
 1955 04c8 07       		.uleb128 0x7
 1956 04c9 5E030000 		.4byte	.LASF59
 1957 04cd 08       		.byte	0x8
 1958 04ce 77       		.byte	0x77
 1959 04cf BA040000 		.4byte	0x4ba
 1960 04d3 00       		.byte	0
 1961 04d4 07       		.uleb128 0x7
 1962 04d5 FA020000 		.4byte	.LASF60
 1963 04d9 08       		.byte	0x8
 1964 04da 79       		.byte	0x79
 1965 04db BA040000 		.4byte	0x4ba
 1966 04df 04       		.byte	0x4
 1967 04e0 07       		.uleb128 0x7
 1968 04e1 90040000 		.4byte	.LASF61
ARM GAS  /tmp/ccy0l3Hv.s 			page 36


 1969 04e5 08       		.byte	0x8
 1970 04e6 7B       		.byte	0x7b
 1971 04e7 43010000 		.4byte	0x143
 1972 04eb 08       		.byte	0x8
 1973 04ec 07       		.uleb128 0x7
 1974 04ed 8F070000 		.4byte	.LASF64
 1975 04f1 08       		.byte	0x8
 1976 04f2 7C       		.byte	0x7c
 1977 04f3 4E010000 		.4byte	0x14e
 1978 04f7 0C       		.byte	0xc
 1979 04f8 00       		.byte	0
 1980 04f9 04       		.uleb128 0x4
 1981 04fa D4070000 		.4byte	.LASF65
 1982 04fe 08       		.byte	0x8
 1983 04ff 7D       		.byte	0x7d
 1984 0500 C0040000 		.4byte	0x4c0
 1985 0504 11       		.uleb128 0x11
 1986 0505 56000000 		.4byte	.LASF73
 1987 0509 08       		.byte	0x8
 1988 050a F5       		.byte	0xf5
 1989 050b F9040000 		.4byte	0x4f9
 1990 050f 09       		.uleb128 0x9
 1991 0510 1C       		.byte	0x1c
 1992 0511 09       		.byte	0x9
 1993 0512 5E       		.byte	0x5e
 1994 0513 60050000 		.4byte	0x560
 1995 0517 07       		.uleb128 0x7
 1996 0518 A3060000 		.4byte	.LASF66
 1997 051c 09       		.byte	0x9
 1998 051d 5F       		.byte	0x5f
 1999 051e 99020000 		.4byte	0x299
 2000 0522 00       		.byte	0
 2001 0523 07       		.uleb128 0x7
 2002 0524 1E060000 		.4byte	.LASF67
 2003 0528 09       		.byte	0x9
 2004 0529 60       		.byte	0x60
 2005 052a 0C010000 		.4byte	0x10c
 2006 052e 08       		.byte	0x8
 2007 052f 07       		.uleb128 0x7
 2008 0530 F9040000 		.4byte	.LASF68
 2009 0534 09       		.byte	0x9
 2010 0535 62       		.byte	0x62
 2011 0536 29040000 		.4byte	0x429
 2012 053a 0C       		.byte	0xc
 2013 053b 07       		.uleb128 0x7
 2014 053c EF030000 		.4byte	.LASF69
 2015 0540 09       		.byte	0x9
 2016 0541 65       		.byte	0x65
 2017 0542 93020000 		.4byte	0x293
 2018 0546 10       		.byte	0x10
 2019 0547 07       		.uleb128 0x7
 2020 0548 30050000 		.4byte	.LASF70
 2021 054c 09       		.byte	0x9
 2022 054d 66       		.byte	0x66
 2023 054e 93020000 		.4byte	0x293
 2024 0552 14       		.byte	0x14
 2025 0553 07       		.uleb128 0x7
ARM GAS  /tmp/ccy0l3Hv.s 			page 37


 2026 0554 26050000 		.4byte	.LASF71
 2027 0558 09       		.byte	0x9
 2028 0559 69       		.byte	0x69
 2029 055a 93020000 		.4byte	0x293
 2030 055e 18       		.byte	0x18
 2031 055f 00       		.byte	0
 2032 0560 04       		.uleb128 0x4
 2033 0561 38070000 		.4byte	.LASF72
 2034 0565 09       		.byte	0x9
 2035 0566 6B       		.byte	0x6b
 2036 0567 0F050000 		.4byte	0x50f
 2037 056b 11       		.uleb128 0x11
 2038 056c 4B070000 		.4byte	.LASF74
 2039 0570 09       		.byte	0x9
 2040 0571 6F       		.byte	0x6f
 2041 0572 60050000 		.4byte	0x560
 2042 0576 06       		.uleb128 0x6
 2043 0577 5C040000 		.4byte	.LASF75
 2044 057b 10       		.byte	0x10
 2045 057c 0A       		.byte	0xa
 2046 057d 2C       		.byte	0x2c
 2047 057e A7050000 		.4byte	0x5a7
 2048 0582 07       		.uleb128 0x7
 2049 0583 4E020000 		.4byte	.LASF76
 2050 0587 0A       		.byte	0xa
 2051 0588 2D       		.byte	0x2d
 2052 0589 99020000 		.4byte	0x299
 2053 058d 00       		.byte	0
 2054 058e 07       		.uleb128 0x7
 2055 058f EC070000 		.4byte	.LASF77
 2056 0593 0A       		.byte	0xa
 2057 0594 2F       		.byte	0x2f
 2058 0595 93020000 		.4byte	0x293
 2059 0599 08       		.byte	0x8
 2060 059a 07       		.uleb128 0x7
 2061 059b C7060000 		.4byte	.LASF78
 2062 059f 0A       		.byte	0xa
 2063 05a0 31       		.byte	0x31
 2064 05a1 A7050000 		.4byte	0x5a7
 2065 05a5 0C       		.byte	0xc
 2066 05a6 00       		.byte	0
 2067 05a7 0A       		.uleb128 0xa
 2068 05a8 04       		.byte	0x4
 2069 05a9 76050000 		.4byte	0x576
 2070 05ad 04       		.uleb128 0x4
 2071 05ae 5C040000 		.4byte	.LASF75
 2072 05b2 0A       		.byte	0xa
 2073 05b3 33       		.byte	0x33
 2074 05b4 76050000 		.4byte	0x576
 2075 05b8 04       		.uleb128 0x4
 2076 05b9 5F070000 		.4byte	.LASF79
 2077 05bd 0B       		.byte	0xb
 2078 05be 2C       		.byte	0x2c
 2079 05bf C3050000 		.4byte	0x5c3
 2080 05c3 06       		.uleb128 0x6
 2081 05c4 5F070000 		.4byte	.LASF79
 2082 05c8 10       		.byte	0x10
ARM GAS  /tmp/ccy0l3Hv.s 			page 38


 2083 05c9 0B       		.byte	0xb
 2084 05ca 31       		.byte	0x31
 2085 05cb 00060000 		.4byte	0x600
 2086 05cf 07       		.uleb128 0x7
 2087 05d0 F7030000 		.4byte	.LASF80
 2088 05d4 0B       		.byte	0xb
 2089 05d5 32       		.byte	0x32
 2090 05d6 00060000 		.4byte	0x600
 2091 05da 00       		.byte	0
 2092 05db 07       		.uleb128 0x7
 2093 05dc D7050000 		.4byte	.LASF81
 2094 05e0 0B       		.byte	0xb
 2095 05e1 35       		.byte	0x35
 2096 05e2 93020000 		.4byte	0x293
 2097 05e6 04       		.byte	0x4
 2098 05e7 07       		.uleb128 0x7
 2099 05e8 38050000 		.4byte	.LASF82
 2100 05ec 0B       		.byte	0xb
 2101 05ed 37       		.byte	0x37
 2102 05ee 2D010000 		.4byte	0x12d
 2103 05f2 08       		.byte	0x8
 2104 05f3 07       		.uleb128 0x7
 2105 05f4 E3050000 		.4byte	.LASF83
 2106 05f8 0B       		.byte	0xb
 2107 05f9 3A       		.byte	0x3a
 2108 05fa 38010000 		.4byte	0x138
 2109 05fe 0C       		.byte	0xc
 2110 05ff 00       		.byte	0
 2111 0600 0A       		.uleb128 0xa
 2112 0601 04       		.byte	0x4
 2113 0602 B8050000 		.4byte	0x5b8
 2114 0606 06       		.uleb128 0x6
 2115 0607 20030000 		.4byte	.LASF84
 2116 060b 04       		.byte	0x4
 2117 060c 0B       		.byte	0xb
 2118 060d 41       		.byte	0x41
 2119 060e 1F060000 		.4byte	0x61f
 2120 0612 07       		.uleb128 0x7
 2121 0613 9A070000 		.4byte	.LASF85
 2122 0617 0B       		.byte	0xb
 2123 0618 42       		.byte	0x42
 2124 0619 00060000 		.4byte	0x600
 2125 061d 00       		.byte	0
 2126 061e 00       		.byte	0
 2127 061f 04       		.uleb128 0x4
 2128 0620 20030000 		.4byte	.LASF84
 2129 0624 0B       		.byte	0xb
 2130 0625 45       		.byte	0x45
 2131 0626 06060000 		.4byte	0x606
 2132 062a 04       		.uleb128 0x4
 2133 062b 34030000 		.4byte	.LASF86
 2134 062f 0B       		.byte	0xb
 2135 0630 4A       		.byte	0x4a
 2136 0631 3A060000 		.4byte	0x63a
 2137 0635 12       		.uleb128 0x12
 2138 0636 2A060000 		.4byte	0x62a
 2139 063a 0A       		.uleb128 0xa
ARM GAS  /tmp/ccy0l3Hv.s 			page 39


 2140 063b 04       		.byte	0x4
 2141 063c 40060000 		.4byte	0x640
 2142 0640 0F       		.uleb128 0xf
 2143 0641 4B060000 		.4byte	0x64b
 2144 0645 10       		.uleb128 0x10
 2145 0646 22010000 		.4byte	0x122
 2146 064a 00       		.byte	0
 2147 064b 13       		.uleb128 0x13
 2148 064c 04       		.byte	0x4
 2149 064d 06       		.byte	0x6
 2150 064e 96       		.byte	0x96
 2151 064f 80060000 		.4byte	0x680
 2152 0653 14       		.uleb128 0x14
 2153 0654 1E000000 		.4byte	.LASF87
 2154 0658 06       		.byte	0x6
 2155 0659 9D       		.byte	0x9d
 2156 065a 17010000 		.4byte	0x117
 2157 065e 14       		.uleb128 0x14
 2158 065f BF020000 		.4byte	.LASF88
 2159 0663 06       		.byte	0x6
 2160 0664 A4       		.byte	0xa4
 2161 0665 17010000 		.4byte	0x117
 2162 0669 14       		.uleb128 0x14
 2163 066a 81070000 		.4byte	.LASF89
 2164 066e 06       		.byte	0x6
 2165 066f AB       		.byte	0xab
 2166 0670 CF020000 		.4byte	0x2cf
 2167 0674 14       		.uleb128 0x14
 2168 0675 3C060000 		.4byte	.LASF90
 2169 0679 06       		.byte	0x6
 2170 067a B2       		.byte	0xb2
 2171 067b 2D010000 		.4byte	0x12d
 2172 067f 00       		.byte	0
 2173 0680 0A       		.uleb128 0xa
 2174 0681 04       		.byte	0x4
 2175 0682 8D060000 		.4byte	0x68d
 2176 0686 03       		.uleb128 0x3
 2177 0687 01       		.byte	0x1
 2178 0688 08       		.byte	0x8
 2179 0689 AB060000 		.4byte	.LASF91
 2180 068d 12       		.uleb128 0x12
 2181 068e 86060000 		.4byte	0x686
 2182 0692 0A       		.uleb128 0xa
 2183 0693 04       		.byte	0x4
 2184 0694 D1020000 		.4byte	0x2d1
 2185 0698 0A       		.uleb128 0xa
 2186 0699 04       		.byte	0x4
 2187 069a AD050000 		.4byte	0x5ad
 2188 069e 09       		.uleb128 0x9
 2189 069f 16       		.byte	0x16
 2190 06a0 0C       		.byte	0xc
 2191 06a1 2C       		.byte	0x2c
 2192 06a2 7F070000 		.4byte	0x77f
 2193 06a6 07       		.uleb128 0x7
 2194 06a7 A1030000 		.4byte	.LASF92
 2195 06ab 0C       		.byte	0xc
 2196 06ac 2D       		.byte	0x2d
ARM GAS  /tmp/ccy0l3Hv.s 			page 40


 2197 06ad 7F070000 		.4byte	0x77f
 2198 06b1 00       		.byte	0
 2199 06b2 07       		.uleb128 0x7
 2200 06b3 7C040000 		.4byte	.LASF93
 2201 06b7 0C       		.byte	0xc
 2202 06b8 2E       		.byte	0x2e
 2203 06b9 A2000000 		.4byte	0xa2
 2204 06bd 04       		.byte	0x4
 2205 06be 07       		.uleb128 0x7
 2206 06bf 0C050000 		.4byte	.LASF94
 2207 06c3 0C       		.byte	0xc
 2208 06c4 2F       		.byte	0x2f
 2209 06c5 A2000000 		.4byte	0xa2
 2210 06c9 05       		.byte	0x5
 2211 06ca 07       		.uleb128 0x7
 2212 06cb C9070000 		.4byte	.LASF95
 2213 06cf 0C       		.byte	0xc
 2214 06d0 30       		.byte	0x30
 2215 06d1 AD000000 		.4byte	0xad
 2216 06d5 06       		.byte	0x6
 2217 06d6 07       		.uleb128 0x7
 2218 06d7 77050000 		.4byte	.LASF96
 2219 06db 0C       		.byte	0xc
 2220 06dc 31       		.byte	0x31
 2221 06dd A2000000 		.4byte	0xa2
 2222 06e1 08       		.byte	0x8
 2223 06e2 07       		.uleb128 0x7
 2224 06e3 CA040000 		.4byte	.LASF97
 2225 06e7 0C       		.byte	0xc
 2226 06e8 32       		.byte	0x32
 2227 06e9 A2000000 		.4byte	0xa2
 2228 06ed 09       		.byte	0x9
 2229 06ee 07       		.uleb128 0x7
 2230 06ef 48000000 		.4byte	.LASF98
 2231 06f3 0C       		.byte	0xc
 2232 06f4 33       		.byte	0x33
 2233 06f5 A2000000 		.4byte	0xa2
 2234 06f9 0A       		.byte	0xa
 2235 06fa 07       		.uleb128 0x7
 2236 06fb 97060000 		.4byte	.LASF99
 2237 06ff 0C       		.byte	0xc
 2238 0700 34       		.byte	0x34
 2239 0701 A2000000 		.4byte	0xa2
 2240 0705 0B       		.byte	0xb
 2241 0706 07       		.uleb128 0x7
 2242 0707 26070000 		.4byte	.LASF100
 2243 070b 0C       		.byte	0xc
 2244 070c 35       		.byte	0x35
 2245 070d A2000000 		.4byte	0xa2
 2246 0711 0C       		.byte	0xc
 2247 0712 07       		.uleb128 0x7
 2248 0713 68060000 		.4byte	.LASF101
 2249 0717 0C       		.byte	0xc
 2250 0718 36       		.byte	0x36
 2251 0719 A2000000 		.4byte	0xa2
 2252 071d 0D       		.byte	0xd
 2253 071e 07       		.uleb128 0x7
ARM GAS  /tmp/ccy0l3Hv.s 			page 41


 2254 071f 00000000 		.4byte	.LASF102
 2255 0723 0C       		.byte	0xc
 2256 0724 37       		.byte	0x37
 2257 0725 A2000000 		.4byte	0xa2
 2258 0729 0E       		.byte	0xe
 2259 072a 07       		.uleb128 0x7
 2260 072b E5040000 		.4byte	.LASF103
 2261 072f 0C       		.byte	0xc
 2262 0730 38       		.byte	0x38
 2263 0731 A2000000 		.4byte	0xa2
 2264 0735 0F       		.byte	0xf
 2265 0736 07       		.uleb128 0x7
 2266 0737 25000000 		.4byte	.LASF104
 2267 073b 0C       		.byte	0xc
 2268 073c 39       		.byte	0x39
 2269 073d A2000000 		.4byte	0xa2
 2270 0741 10       		.byte	0x10
 2271 0742 07       		.uleb128 0x7
 2272 0743 D1010000 		.4byte	.LASF105
 2273 0747 0C       		.byte	0xc
 2274 0748 3B       		.byte	0x3b
 2275 0749 A2000000 		.4byte	0xa2
 2276 074d 11       		.byte	0x11
 2277 074e 07       		.uleb128 0x7
 2278 074f 39020000 		.4byte	.LASF106
 2279 0753 0C       		.byte	0xc
 2280 0754 3C       		.byte	0x3c
 2281 0755 A2000000 		.4byte	0xa2
 2282 0759 12       		.byte	0x12
 2283 075a 07       		.uleb128 0x7
 2284 075b 84040000 		.4byte	.LASF107
 2285 075f 0C       		.byte	0xc
 2286 0760 3D       		.byte	0x3d
 2287 0761 A2000000 		.4byte	0xa2
 2288 0765 13       		.byte	0x13
 2289 0766 07       		.uleb128 0x7
 2290 0767 4A060000 		.4byte	.LASF108
 2291 076b 0C       		.byte	0xc
 2292 076c 3E       		.byte	0x3e
 2293 076d A2000000 		.4byte	0xa2
 2294 0771 14       		.byte	0x14
 2295 0772 07       		.uleb128 0x7
 2296 0773 12060000 		.4byte	.LASF109
 2297 0777 0C       		.byte	0xc
 2298 0778 40       		.byte	0x40
 2299 0779 A2000000 		.4byte	0xa2
 2300 077d 15       		.byte	0x15
 2301 077e 00       		.byte	0
 2302 077f 15       		.uleb128 0x15
 2303 0780 86060000 		.4byte	0x686
 2304 0784 8F070000 		.4byte	0x78f
 2305 0788 16       		.uleb128 0x16
 2306 0789 2C000000 		.4byte	0x2c
 2307 078d 03       		.byte	0x3
 2308 078e 00       		.byte	0
 2309 078f 04       		.uleb128 0x4
 2310 0790 88020000 		.4byte	.LASF110
ARM GAS  /tmp/ccy0l3Hv.s 			page 42


 2311 0794 0C       		.byte	0xc
 2312 0795 41       		.byte	0x41
 2313 0796 9E060000 		.4byte	0x69e
 2314 079a 12       		.uleb128 0x12
 2315 079b 8F070000 		.4byte	0x78f
 2316 079f 11       		.uleb128 0x11
 2317 07a0 8F030000 		.4byte	.LASF111
 2318 07a4 0C       		.byte	0xc
 2319 07a5 7E       		.byte	0x7e
 2320 07a6 9A070000 		.4byte	0x79a
 2321 07aa 09       		.uleb128 0x9
 2322 07ab 10       		.byte	0x10
 2323 07ac 0D       		.byte	0xd
 2324 07ad 71       		.byte	0x71
 2325 07ae E3070000 		.4byte	0x7e3
 2326 07b2 07       		.uleb128 0x7
 2327 07b3 2C030000 		.4byte	.LASF112
 2328 07b7 0D       		.byte	0xd
 2329 07b8 72       		.byte	0x72
 2330 07b9 43010000 		.4byte	0x143
 2331 07bd 00       		.byte	0
 2332 07be 07       		.uleb128 0x7
 2333 07bf DE010000 		.4byte	.LASF113
 2334 07c3 0D       		.byte	0xd
 2335 07c4 73       		.byte	0x73
 2336 07c5 93020000 		.4byte	0x293
 2337 07c9 04       		.byte	0x4
 2338 07ca 07       		.uleb128 0x7
 2339 07cb F4070000 		.4byte	.LASF114
 2340 07cf 0D       		.byte	0xd
 2341 07d0 74       		.byte	0x74
 2342 07d1 CF020000 		.4byte	0x2cf
 2343 07d5 08       		.byte	0x8
 2344 07d6 07       		.uleb128 0x7
 2345 07d7 42070000 		.4byte	.LASF115
 2346 07db 0D       		.byte	0xd
 2347 07dc 75       		.byte	0x75
 2348 07dd A2000000 		.4byte	0xa2
 2349 07e1 0C       		.byte	0xc
 2350 07e2 00       		.byte	0
 2351 07e3 04       		.uleb128 0x4
 2352 07e4 D6040000 		.4byte	.LASF116
 2353 07e8 0D       		.byte	0xd
 2354 07e9 76       		.byte	0x76
 2355 07ea AA070000 		.4byte	0x7aa
 2356 07ee 17       		.uleb128 0x17
 2357 07ef 0804     		.2byte	0x408
 2358 07f1 0D       		.byte	0xd
 2359 07f2 7B       		.byte	0x7b
 2360 07f3 1C080000 		.4byte	0x81c
 2361 07f7 07       		.uleb128 0x7
 2362 07f8 D9020000 		.4byte	.LASF117
 2363 07fc 0D       		.byte	0xd
 2364 07fd 7C       		.byte	0x7c
 2365 07fe 2C000000 		.4byte	0x2c
 2366 0802 00       		.byte	0
 2367 0803 07       		.uleb128 0x7
ARM GAS  /tmp/ccy0l3Hv.s 			page 43


 2368 0804 98040000 		.4byte	.LASF118
 2369 0808 0D       		.byte	0xd
 2370 0809 7D       		.byte	0x7d
 2371 080a 1C080000 		.4byte	0x81c
 2372 080e 04       		.byte	0x4
 2373 080f 07       		.uleb128 0x7
 2374 0810 6D050000 		.4byte	.LASF119
 2375 0814 0D       		.byte	0xd
 2376 0815 7F       		.byte	0x7f
 2377 0816 22080000 		.4byte	0x822
 2378 081a 08       		.byte	0x8
 2379 081b 00       		.byte	0
 2380 081c 0A       		.uleb128 0xa
 2381 081d 04       		.byte	0x4
 2382 081e E3070000 		.4byte	0x7e3
 2383 0822 15       		.uleb128 0x15
 2384 0823 E3070000 		.4byte	0x7e3
 2385 0827 32080000 		.4byte	0x832
 2386 082b 16       		.uleb128 0x16
 2387 082c 2C000000 		.4byte	0x2c
 2388 0830 3F       		.byte	0x3f
 2389 0831 00       		.byte	0
 2390 0832 04       		.uleb128 0x4
 2391 0833 A4010000 		.4byte	.LASF120
 2392 0837 0D       		.byte	0xd
 2393 0838 80       		.byte	0x80
 2394 0839 EE070000 		.4byte	0x7ee
 2395 083d 11       		.uleb128 0x11
 2396 083e 54050000 		.4byte	.LASF121
 2397 0842 0D       		.byte	0xd
 2398 0843 83       		.byte	0x83
 2399 0844 32080000 		.4byte	0x832
 2400 0848 11       		.uleb128 0x11
 2401 0849 38040000 		.4byte	.LASF122
 2402 084d 0D       		.byte	0xd
 2403 084e E2       		.byte	0xe2
 2404 084f 53010000 		.4byte	0x153
 2405 0853 11       		.uleb128 0x11
 2406 0854 ED060000 		.4byte	.LASF123
 2407 0858 0D       		.byte	0xd
 2408 0859 E3       		.byte	0xe3
 2409 085a 53010000 		.4byte	0x153
 2410 085e 11       		.uleb128 0x11
 2411 085f C9050000 		.4byte	.LASF124
 2412 0863 0D       		.byte	0xd
 2413 0864 F5       		.byte	0xf5
 2414 0865 80060000 		.4byte	0x680
 2415 0869 18       		.uleb128 0x18
 2416 086a D1020000 		.4byte	0x2d1
 2417 086e 08       		.byte	0x8
 2418 086f 7A080000 		.4byte	0x87a
 2419 0873 16       		.uleb128 0x16
 2420 0874 2C000000 		.4byte	0x2c
 2421 0878 3A       		.byte	0x3a
 2422 0879 00       		.byte	0
 2423 087a 11       		.uleb128 0x11
 2424 087b AF020000 		.4byte	.LASF125
ARM GAS  /tmp/ccy0l3Hv.s 			page 44


 2425 087f 0E       		.byte	0xe
 2426 0880 89       		.byte	0x89
 2427 0881 69080000 		.4byte	0x869
 2428 0885 19       		.uleb128 0x19
 2429 0886 25020000 		.4byte	.LASF128
 2430 088a 01       		.byte	0x1
 2431 088b 1202     		.2byte	0x212
 2432 088d 2D010000 		.4byte	0x12d
 2433 0891 00000000 		.4byte	.LFB23
 2434 0895 48000000 		.4byte	.LFE23-.LFB23
 2435 0899 01       		.uleb128 0x1
 2436 089a 9C       		.byte	0x9c
 2437 089b 04090000 		.4byte	0x904
 2438 089f 1A       		.uleb128 0x1a
 2439 08a0 EC020000 		.4byte	.LASF126
 2440 08a4 01       		.byte	0x1
 2441 08a5 1202     		.2byte	0x212
 2442 08a7 2D010000 		.4byte	0x12d
 2443 08ab 00000000 		.4byte	.LLST41
 2444 08af 1A       		.uleb128 0x1a
 2445 08b0 14050000 		.4byte	.LASF127
 2446 08b4 01       		.byte	0x1
 2447 08b5 1202     		.2byte	0x212
 2448 08b7 43010000 		.4byte	0x143
 2449 08bb 2C000000 		.4byte	.LLST42
 2450 08bf 1B       		.uleb128 0x1b
 2451 08c0 63747000 		.ascii	"ctp\000"
 2452 08c4 01       		.byte	0x1
 2453 08c5 1302     		.2byte	0x213
 2454 08c7 93020000 		.4byte	0x293
 2455 08cb 58000000 		.4byte	.LLST43
 2456 08cf 1C       		.uleb128 0x1c
 2457 08d0 10000000 		.4byte	.LVL130
 2458 08d4 A40F0000 		.4byte	0xfa4
 2459 08d8 1D       		.uleb128 0x1d
 2460 08d9 24000000 		.4byte	.LVL131
 2461 08dd AF0F0000 		.4byte	0xfaf
 2462 08e1 F1080000 		.4byte	0x8f1
 2463 08e5 1E       		.uleb128 0x1e
 2464 08e6 01       		.uleb128 0x1
 2465 08e7 50       		.byte	0x50
 2466 08e8 01       		.uleb128 0x1
 2467 08e9 39       		.byte	0x39
 2468 08ea 1E       		.uleb128 0x1e
 2469 08eb 01       		.uleb128 0x1
 2470 08ec 51       		.byte	0x51
 2471 08ed 02       		.uleb128 0x2
 2472 08ee 76       		.byte	0x76
 2473 08ef 00       		.sleb128 0
 2474 08f0 00       		.byte	0
 2475 08f1 1C       		.uleb128 0x1c
 2476 08f2 34000000 		.4byte	.LVL132
 2477 08f6 BA0F0000 		.4byte	0xfba
 2478 08fa 1C       		.uleb128 0x1c
 2479 08fb 3E000000 		.4byte	.LVL134
 2480 08ff BA0F0000 		.4byte	0xfba
 2481 0903 00       		.byte	0
ARM GAS  /tmp/ccy0l3Hv.s 			page 45


 2482 0904 19       		.uleb128 0x19
 2483 0905 B6010000 		.4byte	.LASF129
 2484 0909 01       		.byte	0x1
 2485 090a E901     		.2byte	0x1e9
 2486 090c 2D010000 		.4byte	0x12d
 2487 0910 00000000 		.4byte	.LFB22
 2488 0914 44000000 		.4byte	.LFE22-.LFB22
 2489 0918 01       		.uleb128 0x1
 2490 0919 9C       		.byte	0x9c
 2491 091a 88090000 		.4byte	0x988
 2492 091e 1A       		.uleb128 0x1a
 2493 091f EC020000 		.4byte	.LASF126
 2494 0923 01       		.byte	0x1
 2495 0924 E901     		.2byte	0x1e9
 2496 0926 2D010000 		.4byte	0x12d
 2497 092a 6B000000 		.4byte	.LLST37
 2498 092e 1A       		.uleb128 0x1a
 2499 092f 14050000 		.4byte	.LASF127
 2500 0933 01       		.byte	0x1
 2501 0934 E901     		.2byte	0x1e9
 2502 0936 43010000 		.4byte	0x143
 2503 093a 97000000 		.4byte	.LLST38
 2504 093e 1B       		.uleb128 0x1b
 2505 093f 63747000 		.ascii	"ctp\000"
 2506 0943 01       		.byte	0x1
 2507 0944 EA01     		.2byte	0x1ea
 2508 0946 93020000 		.4byte	0x293
 2509 094a C3000000 		.4byte	.LLST39
 2510 094e 1B       		.uleb128 0x1b
 2511 094f 6D00     		.ascii	"m\000"
 2512 0951 01       		.byte	0x1
 2513 0952 EB01     		.2byte	0x1eb
 2514 0954 2D010000 		.4byte	0x12d
 2515 0958 D6000000 		.4byte	.LLST40
 2516 095c 1C       		.uleb128 0x1c
 2517 095d 10000000 		.4byte	.LVL120
 2518 0961 A40F0000 		.4byte	0xfa4
 2519 0965 1D       		.uleb128 0x1d
 2520 0966 24000000 		.4byte	.LVL123
 2521 096a AF0F0000 		.4byte	0xfaf
 2522 096e 7E090000 		.4byte	0x97e
 2523 0972 1E       		.uleb128 0x1e
 2524 0973 01       		.uleb128 0x1
 2525 0974 50       		.byte	0x50
 2526 0975 01       		.uleb128 0x1
 2527 0976 38       		.byte	0x38
 2528 0977 1E       		.uleb128 0x1e
 2529 0978 01       		.uleb128 0x1
 2530 0979 51       		.byte	0x51
 2531 097a 02       		.uleb128 0x2
 2532 097b 77       		.byte	0x77
 2533 097c 00       		.sleb128 0
 2534 097d 00       		.byte	0
 2535 097e 1C       		.uleb128 0x1c
 2536 097f 38000000 		.4byte	.LVL126
 2537 0983 BA0F0000 		.4byte	0xfba
 2538 0987 00       		.byte	0
ARM GAS  /tmp/ccy0l3Hv.s 			page 46


 2539 0988 19       		.uleb128 0x19
 2540 0989 6D070000 		.4byte	.LASF130
 2541 098d 01       		.byte	0x1
 2542 098e BE01     		.2byte	0x1be
 2543 0990 2D010000 		.4byte	0x12d
 2544 0994 00000000 		.4byte	.LFB21
 2545 0998 48000000 		.4byte	.LFE21-.LFB21
 2546 099c 01       		.uleb128 0x1
 2547 099d 9C       		.byte	0x9c
 2548 099e 0C0A0000 		.4byte	0xa0c
 2549 09a2 1A       		.uleb128 0x1a
 2550 09a3 EC020000 		.4byte	.LASF126
 2551 09a7 01       		.byte	0x1
 2552 09a8 BE01     		.2byte	0x1be
 2553 09aa 2D010000 		.4byte	0x12d
 2554 09ae F9000000 		.4byte	.LLST33
 2555 09b2 1A       		.uleb128 0x1a
 2556 09b3 14050000 		.4byte	.LASF127
 2557 09b7 01       		.byte	0x1
 2558 09b8 BE01     		.2byte	0x1be
 2559 09ba 43010000 		.4byte	0x143
 2560 09be 25010000 		.4byte	.LLST34
 2561 09c2 1B       		.uleb128 0x1b
 2562 09c3 63747000 		.ascii	"ctp\000"
 2563 09c7 01       		.byte	0x1
 2564 09c8 BF01     		.2byte	0x1bf
 2565 09ca 93020000 		.4byte	0x293
 2566 09ce 51010000 		.4byte	.LLST35
 2567 09d2 1B       		.uleb128 0x1b
 2568 09d3 6D00     		.ascii	"m\000"
 2569 09d5 01       		.byte	0x1
 2570 09d6 C001     		.2byte	0x1c0
 2571 09d8 2D010000 		.4byte	0x12d
 2572 09dc 64010000 		.4byte	.LLST36
 2573 09e0 1C       		.uleb128 0x1c
 2574 09e1 10000000 		.4byte	.LVL109
 2575 09e5 A40F0000 		.4byte	0xfa4
 2576 09e9 1D       		.uleb128 0x1d
 2577 09ea 24000000 		.4byte	.LVL112
 2578 09ee AF0F0000 		.4byte	0xfaf
 2579 09f2 020A0000 		.4byte	0xa02
 2580 09f6 1E       		.uleb128 0x1e
 2581 09f7 01       		.uleb128 0x1
 2582 09f8 50       		.byte	0x50
 2583 09f9 01       		.uleb128 0x1
 2584 09fa 38       		.byte	0x38
 2585 09fb 1E       		.uleb128 0x1e
 2586 09fc 01       		.uleb128 0x1
 2587 09fd 51       		.byte	0x51
 2588 09fe 02       		.uleb128 0x2
 2589 09ff 77       		.byte	0x77
 2590 0a00 00       		.sleb128 0
 2591 0a01 00       		.byte	0
 2592 0a02 1C       		.uleb128 0x1c
 2593 0a03 3C000000 		.4byte	.LVL116
 2594 0a07 BA0F0000 		.4byte	0xfba
 2595 0a0b 00       		.byte	0
ARM GAS  /tmp/ccy0l3Hv.s 			page 47


 2596 0a0c 19       		.uleb128 0x19
 2597 0a0d 19050000 		.4byte	.LASF131
 2598 0a11 01       		.byte	0x1
 2599 0a12 9701     		.2byte	0x197
 2600 0a14 2D010000 		.4byte	0x12d
 2601 0a18 00000000 		.4byte	.LFB20
 2602 0a1c 34000000 		.4byte	.LFE20-.LFB20
 2603 0a20 01       		.uleb128 0x1
 2604 0a21 9C       		.byte	0x9c
 2605 0a22 6C0A0000 		.4byte	0xa6c
 2606 0a26 1A       		.uleb128 0x1a
 2607 0a27 EC020000 		.4byte	.LASF126
 2608 0a2b 01       		.byte	0x1
 2609 0a2c 9701     		.2byte	0x197
 2610 0a2e 2D010000 		.4byte	0x12d
 2611 0a32 87010000 		.4byte	.LLST31
 2612 0a36 1B       		.uleb128 0x1b
 2613 0a37 63747000 		.ascii	"ctp\000"
 2614 0a3b 01       		.byte	0x1
 2615 0a3c 9801     		.2byte	0x198
 2616 0a3e 93020000 		.4byte	0x293
 2617 0a42 B0010000 		.4byte	.LLST32
 2618 0a46 1C       		.uleb128 0x1c
 2619 0a47 0E000000 		.4byte	.LVL103
 2620 0a4b A40F0000 		.4byte	0xfa4
 2621 0a4f 1D       		.uleb128 0x1d
 2622 0a50 1E000000 		.4byte	.LVL104
 2623 0a54 C50F0000 		.4byte	0xfc5
 2624 0a58 620A0000 		.4byte	0xa62
 2625 0a5c 1E       		.uleb128 0x1e
 2626 0a5d 01       		.uleb128 0x1
 2627 0a5e 50       		.byte	0x50
 2628 0a5f 01       		.uleb128 0x1
 2629 0a60 39       		.byte	0x39
 2630 0a61 00       		.byte	0
 2631 0a62 1C       		.uleb128 0x1c
 2632 0a63 2A000000 		.4byte	.LVL105
 2633 0a67 BA0F0000 		.4byte	0xfba
 2634 0a6b 00       		.byte	0
 2635 0a6c 19       		.uleb128 0x19
 2636 0a6d 72020000 		.4byte	.LASF132
 2637 0a71 01       		.byte	0x1
 2638 0a72 7B01     		.2byte	0x17b
 2639 0a74 2D010000 		.4byte	0x12d
 2640 0a78 00000000 		.4byte	.LFB19
 2641 0a7c 38000000 		.4byte	.LFE19-.LFB19
 2642 0a80 01       		.uleb128 0x1
 2643 0a81 9C       		.byte	0x9c
 2644 0a82 DA0A0000 		.4byte	0xada
 2645 0a86 1A       		.uleb128 0x1a
 2646 0a87 EC020000 		.4byte	.LASF126
 2647 0a8b 01       		.byte	0x1
 2648 0a8c 7B01     		.2byte	0x17b
 2649 0a8e 2D010000 		.4byte	0x12d
 2650 0a92 C3010000 		.4byte	.LLST28
 2651 0a96 1B       		.uleb128 0x1b
 2652 0a97 63747000 		.ascii	"ctp\000"
ARM GAS  /tmp/ccy0l3Hv.s 			page 48


 2653 0a9b 01       		.byte	0x1
 2654 0a9c 7C01     		.2byte	0x17c
 2655 0a9e 93020000 		.4byte	0x293
 2656 0aa2 EF010000 		.4byte	.LLST29
 2657 0aa6 1B       		.uleb128 0x1b
 2658 0aa7 6D00     		.ascii	"m\000"
 2659 0aa9 01       		.byte	0x1
 2660 0aaa 7D01     		.2byte	0x17d
 2661 0aac 2D010000 		.4byte	0x12d
 2662 0ab0 02020000 		.4byte	.LLST30
 2663 0ab4 1C       		.uleb128 0x1c
 2664 0ab5 0E000000 		.4byte	.LVL94
 2665 0ab9 A40F0000 		.4byte	0xfa4
 2666 0abd 1D       		.uleb128 0x1d
 2667 0abe 1E000000 		.4byte	.LVL97
 2668 0ac2 C50F0000 		.4byte	0xfc5
 2669 0ac6 D00A0000 		.4byte	0xad0
 2670 0aca 1E       		.uleb128 0x1e
 2671 0acb 01       		.uleb128 0x1
 2672 0acc 50       		.byte	0x50
 2673 0acd 01       		.uleb128 0x1
 2674 0ace 38       		.byte	0x38
 2675 0acf 00       		.byte	0
 2676 0ad0 1C       		.uleb128 0x1c
 2677 0ad1 2E000000 		.4byte	.LVL99
 2678 0ad5 BA0F0000 		.4byte	0xfba
 2679 0ad9 00       		.byte	0
 2680 0ada 19       		.uleb128 0x19
 2681 0adb BC050000 		.4byte	.LASF133
 2682 0adf 01       		.byte	0x1
 2683 0ae0 5E01     		.2byte	0x15e
 2684 0ae2 2D010000 		.4byte	0x12d
 2685 0ae6 00000000 		.4byte	.LFB18
 2686 0aea 3C000000 		.4byte	.LFE18-.LFB18
 2687 0aee 01       		.uleb128 0x1
 2688 0aef 9C       		.byte	0x9c
 2689 0af0 480B0000 		.4byte	0xb48
 2690 0af4 1A       		.uleb128 0x1a
 2691 0af5 EC020000 		.4byte	.LASF126
 2692 0af9 01       		.byte	0x1
 2693 0afa 5E01     		.2byte	0x15e
 2694 0afc 2D010000 		.4byte	0x12d
 2695 0b00 30020000 		.4byte	.LLST25
 2696 0b04 1B       		.uleb128 0x1b
 2697 0b05 63747000 		.ascii	"ctp\000"
 2698 0b09 01       		.byte	0x1
 2699 0b0a 5F01     		.2byte	0x15f
 2700 0b0c 93020000 		.4byte	0x293
 2701 0b10 5C020000 		.4byte	.LLST26
 2702 0b14 1B       		.uleb128 0x1b
 2703 0b15 6D00     		.ascii	"m\000"
 2704 0b17 01       		.byte	0x1
 2705 0b18 6001     		.2byte	0x160
 2706 0b1a 2D010000 		.4byte	0x12d
 2707 0b1e 6F020000 		.4byte	.LLST27
 2708 0b22 1C       		.uleb128 0x1c
 2709 0b23 0E000000 		.4byte	.LVL83
ARM GAS  /tmp/ccy0l3Hv.s 			page 49


 2710 0b27 A40F0000 		.4byte	0xfa4
 2711 0b2b 1D       		.uleb128 0x1d
 2712 0b2c 1E000000 		.4byte	.LVL87
 2713 0b30 C50F0000 		.4byte	0xfc5
 2714 0b34 3E0B0000 		.4byte	0xb3e
 2715 0b38 1E       		.uleb128 0x1e
 2716 0b39 01       		.uleb128 0x1
 2717 0b3a 50       		.byte	0x50
 2718 0b3b 01       		.uleb128 0x1
 2719 0b3c 38       		.byte	0x38
 2720 0b3d 00       		.byte	0
 2721 0b3e 1C       		.uleb128 0x1c
 2722 0b3f 32000000 		.4byte	.LVL90
 2723 0b43 BA0F0000 		.4byte	0xfba
 2724 0b47 00       		.byte	0
 2725 0b48 1F       		.uleb128 0x1f
 2726 0b49 BC040000 		.4byte	.LASF137
 2727 0b4d 01       		.byte	0x1
 2728 0b4e 3B01     		.2byte	0x13b
 2729 0b50 00000000 		.4byte	.LFB17
 2730 0b54 54000000 		.4byte	.LFE17-.LFB17
 2731 0b58 01       		.uleb128 0x1
 2732 0b59 9C       		.byte	0x9c
 2733 0b5a C60B0000 		.4byte	0xbc6
 2734 0b5e 1A       		.uleb128 0x1a
 2735 0b5f 4B050000 		.4byte	.LASF134
 2736 0b63 01       		.byte	0x1
 2737 0b64 3B01     		.2byte	0x13b
 2738 0b66 C60B0000 		.4byte	0xbc6
 2739 0b6a C3020000 		.4byte	.LLST22
 2740 0b6e 1A       		.uleb128 0x1a
 2741 0b6f EC020000 		.4byte	.LASF126
 2742 0b73 01       		.byte	0x1
 2743 0b74 3B01     		.2byte	0x13b
 2744 0b76 2D010000 		.4byte	0x12d
 2745 0b7a F7020000 		.4byte	.LLST23
 2746 0b7e 1B       		.uleb128 0x1b
 2747 0b7f 65696400 		.ascii	"eid\000"
 2748 0b83 01       		.byte	0x1
 2749 0b84 3C01     		.2byte	0x13c
 2750 0b86 22010000 		.4byte	0x122
 2751 0b8a 36030000 		.4byte	.LLST24
 2752 0b8e 20       		.uleb128 0x20
 2753 0b8f 2A000000 		.4byte	.LVL71
 2754 0b93 9E0B0000 		.4byte	0xb9e
 2755 0b97 1E       		.uleb128 0x1e
 2756 0b98 01       		.uleb128 0x1
 2757 0b99 50       		.byte	0x50
 2758 0b9a 02       		.uleb128 0x2
 2759 0b9b 74       		.byte	0x74
 2760 0b9c 00       		.sleb128 0
 2761 0b9d 00       		.byte	0
 2762 0b9e 1D       		.uleb128 0x1d
 2763 0b9f 3E000000 		.4byte	.LVL77
 2764 0ba3 D00F0000 		.4byte	0xfd0
 2765 0ba7 B20B0000 		.4byte	0xbb2
 2766 0bab 1E       		.uleb128 0x1e
ARM GAS  /tmp/ccy0l3Hv.s 			page 50


 2767 0bac 01       		.uleb128 0x1
 2768 0bad 50       		.byte	0x50
 2769 0bae 02       		.uleb128 0x2
 2770 0baf 78       		.byte	0x78
 2771 0bb0 00       		.sleb128 0
 2772 0bb1 00       		.byte	0
 2773 0bb2 21       		.uleb128 0x21
 2774 0bb3 4A000000 		.4byte	.LVL80
 2775 0bb7 D00F0000 		.4byte	0xfd0
 2776 0bbb 1E       		.uleb128 0x1e
 2777 0bbc 01       		.uleb128 0x1
 2778 0bbd 50       		.byte	0x50
 2779 0bbe 05       		.uleb128 0x5
 2780 0bbf 03       		.byte	0x3
 2781 0bc0 00000000 		.4byte	.LC5
 2782 0bc4 00       		.byte	0
 2783 0bc5 00       		.byte	0
 2784 0bc6 0A       		.uleb128 0xa
 2785 0bc7 04       		.byte	0x4
 2786 0bc8 35060000 		.4byte	0x635
 2787 0bcc 19       		.uleb128 0x19
 2788 0bcd 25060000 		.4byte	.LASF135
 2789 0bd1 01       		.byte	0x1
 2790 0bd2 2901     		.2byte	0x129
 2791 0bd4 38010000 		.4byte	0x138
 2792 0bd8 00000000 		.4byte	.LFB16
 2793 0bdc 0A000000 		.4byte	.LFE16-.LFB16
 2794 0be0 01       		.uleb128 0x1
 2795 0be1 9C       		.byte	0x9c
 2796 0be2 050C0000 		.4byte	0xc05
 2797 0be6 22       		.uleb128 0x22
 2798 0be7 656C7000 		.ascii	"elp\000"
 2799 0beb 01       		.byte	0x1
 2800 0bec 2901     		.2byte	0x129
 2801 0bee 00060000 		.4byte	0x600
 2802 0bf2 60030000 		.4byte	.LLST21
 2803 0bf6 23       		.uleb128 0x23
 2804 0bf7 59070000 		.4byte	.LASF136
 2805 0bfb 01       		.byte	0x1
 2806 0bfc 2A01     		.2byte	0x12a
 2807 0bfe 38010000 		.4byte	0x138
 2808 0c02 01       		.uleb128 0x1
 2809 0c03 50       		.byte	0x50
 2810 0c04 00       		.byte	0
 2811 0c05 1F       		.uleb128 0x1f
 2812 0c06 02030000 		.4byte	.LASF138
 2813 0c0a 01       		.byte	0x1
 2814 0c0b 1601     		.2byte	0x116
 2815 0c0d 00000000 		.4byte	.LFB15
 2816 0c11 20000000 		.4byte	.LFE15-.LFB15
 2817 0c15 01       		.uleb128 0x1
 2818 0c16 9C       		.byte	0x9c
 2819 0c17 710C0000 		.4byte	0xc71
 2820 0c1b 22       		.uleb128 0x22
 2821 0c1c 65737000 		.ascii	"esp\000"
 2822 0c20 01       		.byte	0x1
 2823 0c21 1601     		.2byte	0x116
ARM GAS  /tmp/ccy0l3Hv.s 			page 51


 2824 0c23 710C0000 		.4byte	0xc71
 2825 0c27 7E030000 		.4byte	.LLST19
 2826 0c2b 1A       		.uleb128 0x1a
 2827 0c2c 59070000 		.4byte	.LASF136
 2828 0c30 01       		.byte	0x1
 2829 0c31 1601     		.2byte	0x116
 2830 0c33 38010000 		.4byte	0x138
 2831 0c37 9C030000 		.4byte	.LLST20
 2832 0c3b 1C       		.uleb128 0x1c
 2833 0c3c 0C000000 		.4byte	.LVL60
 2834 0c40 A40F0000 		.4byte	0xfa4
 2835 0c44 1D       		.uleb128 0x1d
 2836 0c45 14000000 		.4byte	.LVL61
 2837 0c49 5C0D0000 		.4byte	0xd5c
 2838 0c4d 5E0C0000 		.4byte	0xc5e
 2839 0c51 1E       		.uleb128 0x1e
 2840 0c52 01       		.uleb128 0x1
 2841 0c53 50       		.byte	0x50
 2842 0c54 02       		.uleb128 0x2
 2843 0c55 74       		.byte	0x74
 2844 0c56 00       		.sleb128 0
 2845 0c57 1E       		.uleb128 0x1e
 2846 0c58 01       		.uleb128 0x1
 2847 0c59 51       		.byte	0x51
 2848 0c5a 02       		.uleb128 0x2
 2849 0c5b 75       		.byte	0x75
 2850 0c5c 00       		.sleb128 0
 2851 0c5d 00       		.byte	0
 2852 0c5e 1C       		.uleb128 0x1c
 2853 0c5f 18000000 		.4byte	.LVL62
 2854 0c63 DB0F0000 		.4byte	0xfdb
 2855 0c67 1C       		.uleb128 0x1c
 2856 0c68 1C000000 		.4byte	.LVL63
 2857 0c6c BA0F0000 		.4byte	0xfba
 2858 0c70 00       		.byte	0
 2859 0c71 0A       		.uleb128 0xa
 2860 0c72 04       		.byte	0x4
 2861 0c73 1F060000 		.4byte	0x61f
 2862 0c77 24       		.uleb128 0x24
 2863 0c78 0E080000 		.4byte	.LASF158
 2864 0c7c 01       		.byte	0x1
 2865 0c7d FB       		.byte	0xfb
 2866 0c7e 01       		.byte	0x1
 2867 0c7f 990C0000 		.4byte	0xc99
 2868 0c83 25       		.uleb128 0x25
 2869 0c84 747000   		.ascii	"tp\000"
 2870 0c87 01       		.byte	0x1
 2871 0c88 FB       		.byte	0xfb
 2872 0c89 93020000 		.4byte	0x293
 2873 0c8d 26       		.uleb128 0x26
 2874 0c8e EC020000 		.4byte	.LASF126
 2875 0c92 01       		.byte	0x1
 2876 0c93 FB       		.byte	0xfb
 2877 0c94 2D010000 		.4byte	0x12d
 2878 0c98 00       		.byte	0
 2879 0c99 27       		.uleb128 0x27
 2880 0c9a 5D000000 		.4byte	.LASF139
ARM GAS  /tmp/ccy0l3Hv.s 			page 52


 2881 0c9e 01       		.byte	0x1
 2882 0c9f E5       		.byte	0xe5
 2883 0ca0 00000000 		.4byte	.LFB13
 2884 0ca4 30000000 		.4byte	.LFE13-.LFB13
 2885 0ca8 01       		.uleb128 0x1
 2886 0ca9 9C       		.byte	0x9c
 2887 0caa 140D0000 		.4byte	0xd14
 2888 0cae 28       		.uleb128 0x28
 2889 0caf 747000   		.ascii	"tp\000"
 2890 0cb2 01       		.byte	0x1
 2891 0cb3 E5       		.byte	0xe5
 2892 0cb4 93020000 		.4byte	0x293
 2893 0cb8 BA030000 		.4byte	.LLST17
 2894 0cbc 29       		.uleb128 0x29
 2895 0cbd EC020000 		.4byte	.LASF126
 2896 0cc1 01       		.byte	0x1
 2897 0cc2 E5       		.byte	0xe5
 2898 0cc3 2D010000 		.4byte	0x12d
 2899 0cc7 EE030000 		.4byte	.LLST18
 2900 0ccb 1C       		.uleb128 0x1c
 2901 0ccc 0E000000 		.4byte	.LVL52
 2902 0cd0 A40F0000 		.4byte	0xfa4
 2903 0cd4 1D       		.uleb128 0x1d
 2904 0cd5 16000000 		.4byte	.LVL53
 2905 0cd9 770C0000 		.4byte	0xc77
 2906 0cdd EE0C0000 		.4byte	0xcee
 2907 0ce1 1E       		.uleb128 0x1e
 2908 0ce2 01       		.uleb128 0x1
 2909 0ce3 50       		.byte	0x50
 2910 0ce4 02       		.uleb128 0x2
 2911 0ce5 74       		.byte	0x74
 2912 0ce6 00       		.sleb128 0
 2913 0ce7 1E       		.uleb128 0x1e
 2914 0ce8 01       		.uleb128 0x1
 2915 0ce9 51       		.byte	0x51
 2916 0cea 02       		.uleb128 0x2
 2917 0ceb 75       		.byte	0x75
 2918 0cec 00       		.sleb128 0
 2919 0ced 00       		.byte	0
 2920 0cee 1C       		.uleb128 0x1c
 2921 0cef 1A000000 		.4byte	.LVL54
 2922 0cf3 DB0F0000 		.4byte	0xfdb
 2923 0cf7 1C       		.uleb128 0x1c
 2924 0cf8 1E000000 		.4byte	.LVL55
 2925 0cfc BA0F0000 		.4byte	0xfba
 2926 0d00 21       		.uleb128 0x21
 2927 0d01 28000000 		.4byte	.LVL58
 2928 0d05 D00F0000 		.4byte	0xfd0
 2929 0d09 1E       		.uleb128 0x1e
 2930 0d0a 01       		.uleb128 0x1
 2931 0d0b 50       		.byte	0x50
 2932 0d0c 05       		.uleb128 0x5
 2933 0d0d 03       		.byte	0x3
 2934 0d0e 00000000 		.4byte	.LC4
 2935 0d12 00       		.byte	0
 2936 0d13 00       		.byte	0
 2937 0d14 2A       		.uleb128 0x2a
ARM GAS  /tmp/ccy0l3Hv.s 			page 53


 2938 0d15 A2070000 		.4byte	.LASF140
 2939 0d19 01       		.byte	0x1
 2940 0d1a D1       		.byte	0xd1
 2941 0d1b 38010000 		.4byte	0x138
 2942 0d1f 00000000 		.4byte	.LFB12
 2943 0d23 1A000000 		.4byte	.LFE12-.LFB12
 2944 0d27 01       		.uleb128 0x1
 2945 0d28 9C       		.byte	0x9c
 2946 0d29 5C0D0000 		.4byte	0xd5c
 2947 0d2d 28       		.uleb128 0x28
 2948 0d2e 656C7000 		.ascii	"elp\000"
 2949 0d32 01       		.byte	0x1
 2950 0d33 D1       		.byte	0xd1
 2951 0d34 00060000 		.4byte	0x600
 2952 0d38 22040000 		.4byte	.LLST9
 2953 0d3c 2B       		.uleb128 0x2b
 2954 0d3d 59070000 		.4byte	.LASF136
 2955 0d41 01       		.byte	0x1
 2956 0d42 D2       		.byte	0xd2
 2957 0d43 38010000 		.4byte	0x138
 2958 0d47 01       		.uleb128 0x1
 2959 0d48 55       		.byte	0x55
 2960 0d49 1C       		.uleb128 0x1c
 2961 0d4a 0A000000 		.4byte	.LVL30
 2962 0d4e A40F0000 		.4byte	0xfa4
 2963 0d52 1C       		.uleb128 0x1c
 2964 0d53 14000000 		.4byte	.LVL32
 2965 0d57 BA0F0000 		.4byte	0xfba
 2966 0d5b 00       		.byte	0
 2967 0d5c 27       		.uleb128 0x27
 2968 0d5d 92020000 		.4byte	.LASF141
 2969 0d61 01       		.byte	0x1
 2970 0d62 B8       		.byte	0xb8
 2971 0d63 00000000 		.4byte	.LFB11
 2972 0d67 34000000 		.4byte	.LFE11-.LFB11
 2973 0d6b 01       		.uleb128 0x1
 2974 0d6c 9C       		.byte	0x9c
 2975 0d6d C40D0000 		.4byte	0xdc4
 2976 0d71 28       		.uleb128 0x28
 2977 0d72 65737000 		.ascii	"esp\000"
 2978 0d76 01       		.byte	0x1
 2979 0d77 B8       		.byte	0xb8
 2980 0d78 710C0000 		.4byte	0xc71
 2981 0d7c 40040000 		.4byte	.LLST14
 2982 0d80 29       		.uleb128 0x29
 2983 0d81 59070000 		.4byte	.LASF136
 2984 0d85 01       		.byte	0x1
 2985 0d86 B8       		.byte	0xb8
 2986 0d87 38010000 		.4byte	0x138
 2987 0d8b 5E040000 		.4byte	.LLST15
 2988 0d8f 2C       		.uleb128 0x2c
 2989 0d90 656C7000 		.ascii	"elp\000"
 2990 0d94 01       		.byte	0x1
 2991 0d95 B9       		.byte	0xb9
 2992 0d96 00060000 		.4byte	0x600
 2993 0d9a 7C040000 		.4byte	.LLST16
 2994 0d9e 1C       		.uleb128 0x1c
ARM GAS  /tmp/ccy0l3Hv.s 			page 54


 2995 0d9f 0A000000 		.4byte	.LVL44
 2996 0da3 E60F0000 		.4byte	0xfe6
 2997 0da7 1C       		.uleb128 0x1c
 2998 0da8 20000000 		.4byte	.LVL46
 2999 0dac 770C0000 		.4byte	0xc77
 3000 0db0 21       		.uleb128 0x21
 3001 0db1 2E000000 		.4byte	.LVL49
 3002 0db5 D00F0000 		.4byte	0xfd0
 3003 0db9 1E       		.uleb128 0x1e
 3004 0dba 01       		.uleb128 0x1
 3005 0dbb 50       		.byte	0x50
 3006 0dbc 05       		.uleb128 0x5
 3007 0dbd 03       		.byte	0x3
 3008 0dbe 00000000 		.4byte	.LC3
 3009 0dc2 00       		.byte	0
 3010 0dc3 00       		.byte	0
 3011 0dc4 2A       		.uleb128 0x2a
 3012 0dc5 91050000 		.4byte	.LASF142
 3013 0dc9 01       		.byte	0x1
 3014 0dca 9D       		.byte	0x9d
 3015 0dcb 2D010000 		.4byte	0x12d
 3016 0dcf 00000000 		.4byte	.LFB10
 3017 0dd3 24000000 		.4byte	.LFE10-.LFB10
 3018 0dd7 01       		.uleb128 0x1
 3019 0dd8 9C       		.byte	0x9c
 3020 0dd9 FF0D0000 		.4byte	0xdff
 3021 0ddd 29       		.uleb128 0x29
 3022 0dde EC020000 		.4byte	.LASF126
 3023 0de2 01       		.byte	0x1
 3024 0de3 9D       		.byte	0x9d
 3025 0de4 2D010000 		.4byte	0x12d
 3026 0de8 8F040000 		.4byte	.LLST8
 3027 0dec 1C       		.uleb128 0x1c
 3028 0ded 0A000000 		.4byte	.LVL24
 3029 0df1 A40F0000 		.4byte	0xfa4
 3030 0df5 1C       		.uleb128 0x1c
 3031 0df6 18000000 		.4byte	.LVL27
 3032 0dfa BA0F0000 		.4byte	0xfba
 3033 0dfe 00       		.byte	0
 3034 0dff 2A       		.uleb128 0x2a
 3035 0e00 78030000 		.4byte	.LASF143
 3036 0e04 01       		.byte	0x1
 3037 0e05 88       		.byte	0x88
 3038 0e06 2D010000 		.4byte	0x12d
 3039 0e0a 00000000 		.4byte	.LFB9
 3040 0e0e 28000000 		.4byte	.LFE9-.LFB9
 3041 0e12 01       		.uleb128 0x1
 3042 0e13 9C       		.byte	0x9c
 3043 0e14 470E0000 		.4byte	0xe47
 3044 0e18 29       		.uleb128 0x29
 3045 0e19 EC020000 		.4byte	.LASF126
 3046 0e1d 01       		.byte	0x1
 3047 0e1e 88       		.byte	0x88
 3048 0e1f 2D010000 		.4byte	0x12d
 3049 0e23 D1040000 		.4byte	.LLST6
 3050 0e27 2C       		.uleb128 0x2c
 3051 0e28 6D00     		.ascii	"m\000"
ARM GAS  /tmp/ccy0l3Hv.s 			page 55


 3052 0e2a 01       		.byte	0x1
 3053 0e2b 89       		.byte	0x89
 3054 0e2c 2D010000 		.4byte	0x12d
 3055 0e30 FD040000 		.4byte	.LLST7
 3056 0e34 1C       		.uleb128 0x1c
 3057 0e35 0A000000 		.4byte	.LVL19
 3058 0e39 A40F0000 		.4byte	0xfa4
 3059 0e3d 1C       		.uleb128 0x1c
 3060 0e3e 1C000000 		.4byte	.LVL21
 3061 0e42 BA0F0000 		.4byte	0xfba
 3062 0e46 00       		.byte	0
 3063 0e47 27       		.uleb128 0x27
 3064 0e48 FF030000 		.4byte	.LASF144
 3065 0e4c 01       		.byte	0x1
 3066 0e4d 6F       		.byte	0x6f
 3067 0e4e 00000000 		.4byte	.LFB8
 3068 0e52 40000000 		.4byte	.LFE8-.LFB8
 3069 0e56 01       		.uleb128 0x1
 3070 0e57 9C       		.byte	0x9c
 3071 0e58 B60E0000 		.4byte	0xeb6
 3072 0e5c 28       		.uleb128 0x28
 3073 0e5d 65737000 		.ascii	"esp\000"
 3074 0e61 01       		.byte	0x1
 3075 0e62 6F       		.byte	0x6f
 3076 0e63 710C0000 		.4byte	0xc71
 3077 0e67 1B050000 		.4byte	.LLST3
 3078 0e6b 28       		.uleb128 0x28
 3079 0e6c 656C7000 		.ascii	"elp\000"
 3080 0e70 01       		.byte	0x1
 3081 0e71 6F       		.byte	0x6f
 3082 0e72 00060000 		.4byte	0x600
 3083 0e76 4F050000 		.4byte	.LLST4
 3084 0e7a 2C       		.uleb128 0x2c
 3085 0e7b 7000     		.ascii	"p\000"
 3086 0e7d 01       		.byte	0x1
 3087 0e7e 70       		.byte	0x70
 3088 0e7f 00060000 		.4byte	0x600
 3089 0e83 83050000 		.4byte	.LLST5
 3090 0e87 1C       		.uleb128 0x1c
 3091 0e88 10000000 		.4byte	.LVL9
 3092 0e8c A40F0000 		.4byte	0xfa4
 3093 0e90 1C       		.uleb128 0x1c
 3094 0e91 24000000 		.4byte	.LVL12
 3095 0e95 BA0F0000 		.4byte	0xfba
 3096 0e99 1C       		.uleb128 0x1c
 3097 0e9a 30000000 		.4byte	.LVL14
 3098 0e9e BA0F0000 		.4byte	0xfba
 3099 0ea2 21       		.uleb128 0x21
 3100 0ea3 3A000000 		.4byte	.LVL17
 3101 0ea7 D00F0000 		.4byte	0xfd0
 3102 0eab 1E       		.uleb128 0x1e
 3103 0eac 01       		.uleb128 0x1
 3104 0ead 50       		.byte	0x50
 3105 0eae 05       		.uleb128 0x5
 3106 0eaf 03       		.byte	0x3
 3107 0eb0 00000000 		.4byte	.LC1
 3108 0eb4 00       		.byte	0
ARM GAS  /tmp/ccy0l3Hv.s 			page 56


 3109 0eb5 00       		.byte	0
 3110 0eb6 27       		.uleb128 0x27
 3111 0eb7 D7030000 		.4byte	.LASF145
 3112 0ebb 01       		.byte	0x1
 3113 0ebc 55       		.byte	0x55
 3114 0ebd 00000000 		.4byte	.LFB7
 3115 0ec1 3C000000 		.4byte	.LFE7-.LFB7
 3116 0ec5 01       		.uleb128 0x1
 3117 0ec6 9C       		.byte	0x9c
 3118 0ec7 1E0F0000 		.4byte	0xf1e
 3119 0ecb 28       		.uleb128 0x28
 3120 0ecc 65737000 		.ascii	"esp\000"
 3121 0ed0 01       		.byte	0x1
 3122 0ed1 55       		.byte	0x55
 3123 0ed2 710C0000 		.4byte	0xc71
 3124 0ed6 AC050000 		.4byte	.LLST0
 3125 0eda 28       		.uleb128 0x28
 3126 0edb 656C7000 		.ascii	"elp\000"
 3127 0edf 01       		.byte	0x1
 3128 0ee0 55       		.byte	0x55
 3129 0ee1 00060000 		.4byte	0x600
 3130 0ee5 E0050000 		.4byte	.LLST1
 3131 0ee9 29       		.uleb128 0x29
 3132 0eea EC020000 		.4byte	.LASF126
 3133 0eee 01       		.byte	0x1
 3134 0eef 55       		.byte	0x55
 3135 0ef0 2D010000 		.4byte	0x12d
 3136 0ef4 14060000 		.4byte	.LLST2
 3137 0ef8 1C       		.uleb128 0x1c
 3138 0ef9 12000000 		.4byte	.LVL2
 3139 0efd A40F0000 		.4byte	0xfa4
 3140 0f01 1C       		.uleb128 0x1c
 3141 0f02 28000000 		.4byte	.LVL3
 3142 0f06 BA0F0000 		.4byte	0xfba
 3143 0f0a 21       		.uleb128 0x21
 3144 0f0b 32000000 		.4byte	.LVL6
 3145 0f0f D00F0000 		.4byte	0xfd0
 3146 0f13 1E       		.uleb128 0x1e
 3147 0f14 01       		.uleb128 0x1
 3148 0f15 50       		.byte	0x50
 3149 0f16 05       		.uleb128 0x5
 3150 0f17 03       		.byte	0x3
 3151 0f18 00000000 		.4byte	.LC0
 3152 0f1c 00       		.byte	0
 3153 0f1d 00       		.byte	0
 3154 0f1e 2D       		.uleb128 0x2d
 3155 0f1f 770C0000 		.4byte	0xc77
 3156 0f23 00000000 		.4byte	.LFB14
 3157 0f27 50000000 		.4byte	.LFE14-.LFB14
 3158 0f2b 01       		.uleb128 0x1
 3159 0f2c 9C       		.byte	0x9c
 3160 0f2d A40F0000 		.4byte	0xfa4
 3161 0f31 2E       		.uleb128 0x2e
 3162 0f32 830C0000 		.4byte	0xc83
 3163 0f36 48060000 		.4byte	.LLST10
 3164 0f3a 2E       		.uleb128 0x2e
 3165 0f3b 8D0C0000 		.4byte	0xc8d
ARM GAS  /tmp/ccy0l3Hv.s 			page 57


 3166 0f3f 66060000 		.4byte	.LLST11
 3167 0f43 2F       		.uleb128 0x2f
 3168 0f44 770C0000 		.4byte	0xc77
 3169 0f48 00000000 		.4byte	.Ldebug_ranges0+0
 3170 0f4c 870F0000 		.4byte	0xf87
 3171 0f50 2E       		.uleb128 0x2e
 3172 0f51 8D0C0000 		.4byte	0xc8d
 3173 0f55 84060000 		.4byte	.LLST12
 3174 0f59 2E       		.uleb128 0x2e
 3175 0f5a 830C0000 		.4byte	0xc83
 3176 0f5e A2060000 		.4byte	.LLST13
 3177 0f62 1D       		.uleb128 0x1d
 3178 0f63 2C000000 		.4byte	.LVL37
 3179 0f67 F10F0000 		.4byte	0xff1
 3180 0f6b 760F0000 		.4byte	0xf76
 3181 0f6f 1E       		.uleb128 0x1e
 3182 0f70 01       		.uleb128 0x1
 3183 0f71 50       		.byte	0x50
 3184 0f72 02       		.uleb128 0x2
 3185 0f73 74       		.byte	0x74
 3186 0f74 00       		.sleb128 0
 3187 0f75 00       		.byte	0
 3188 0f76 21       		.uleb128 0x21
 3189 0f77 3E000000 		.4byte	.LVL40
 3190 0f7b F10F0000 		.4byte	0xff1
 3191 0f7f 1E       		.uleb128 0x1e
 3192 0f80 01       		.uleb128 0x1
 3193 0f81 50       		.byte	0x50
 3194 0f82 02       		.uleb128 0x2
 3195 0f83 74       		.byte	0x74
 3196 0f84 00       		.sleb128 0
 3197 0f85 00       		.byte	0
 3198 0f86 00       		.byte	0
 3199 0f87 1C       		.uleb128 0x1c
 3200 0f88 0A000000 		.4byte	.LVL34
 3201 0f8c E60F0000 		.4byte	0xfe6
 3202 0f90 21       		.uleb128 0x21
 3203 0f91 4A000000 		.4byte	.LVL42
 3204 0f95 D00F0000 		.4byte	0xfd0
 3205 0f99 1E       		.uleb128 0x1e
 3206 0f9a 01       		.uleb128 0x1
 3207 0f9b 50       		.byte	0x50
 3208 0f9c 05       		.uleb128 0x5
 3209 0f9d 03       		.byte	0x3
 3210 0f9e 00000000 		.4byte	.LC2
 3211 0fa2 00       		.byte	0
 3212 0fa3 00       		.byte	0
 3213 0fa4 30       		.uleb128 0x30
 3214 0fa5 62040000 		.4byte	.LASF146
 3215 0fa9 62040000 		.4byte	.LASF146
 3216 0fad 0D       		.byte	0xd
 3217 0fae E7       		.byte	0xe7
 3218 0faf 30       		.uleb128 0x30
 3219 0fb0 9F040000 		.4byte	.LASF147
 3220 0fb4 9F040000 		.4byte	.LASF147
 3221 0fb8 09       		.byte	0x9
 3222 0fb9 96       		.byte	0x96
ARM GAS  /tmp/ccy0l3Hv.s 			page 58


 3223 0fba 30       		.uleb128 0x30
 3224 0fbb B8070000 		.4byte	.LASF148
 3225 0fbf B8070000 		.4byte	.LASF148
 3226 0fc3 0D       		.byte	0xd
 3227 0fc4 E8       		.byte	0xe8
 3228 0fc5 30       		.uleb128 0x30
 3229 0fc6 75060000 		.4byte	.LASF149
 3230 0fca 75060000 		.4byte	.LASF149
 3231 0fce 09       		.byte	0x9
 3232 0fcf 93       		.byte	0x93
 3233 0fd0 30       		.uleb128 0x30
 3234 0fd1 13000000 		.4byte	.LASF150
 3235 0fd5 13000000 		.4byte	.LASF150
 3236 0fd9 0D       		.byte	0xd
 3237 0fda F6       		.byte	0xf6
 3238 0fdb 30       		.uleb128 0x30
 3239 0fdc C8020000 		.4byte	.LASF151
 3240 0fe0 C8020000 		.4byte	.LASF151
 3241 0fe4 09       		.byte	0x9
 3242 0fe5 9C       		.byte	0x9c
 3243 0fe6 30       		.uleb128 0x30
 3244 0fe7 DB070000 		.4byte	.LASF152
 3245 0feb DB070000 		.4byte	.LASF152
 3246 0fef 0D       		.byte	0xd
 3247 0ff0 ED       		.byte	0xed
 3248 0ff1 30       		.uleb128 0x30
 3249 0ff2 BB060000 		.4byte	.LASF153
 3250 0ff6 BB060000 		.4byte	.LASF153
 3251 0ffa 09       		.byte	0x9
 3252 0ffb 90       		.byte	0x90
 3253 0ffc 00       		.byte	0
 3254              		.section	.debug_abbrev,"",%progbits
 3255              	.Ldebug_abbrev0:
 3256 0000 01       		.uleb128 0x1
 3257 0001 11       		.uleb128 0x11
 3258 0002 01       		.byte	0x1
 3259 0003 25       		.uleb128 0x25
 3260 0004 0E       		.uleb128 0xe
 3261 0005 13       		.uleb128 0x13
 3262 0006 0B       		.uleb128 0xb
 3263 0007 03       		.uleb128 0x3
 3264 0008 0E       		.uleb128 0xe
 3265 0009 1B       		.uleb128 0x1b
 3266 000a 0E       		.uleb128 0xe
 3267 000b 55       		.uleb128 0x55
 3268 000c 17       		.uleb128 0x17
 3269 000d 11       		.uleb128 0x11
 3270 000e 01       		.uleb128 0x1
 3271 000f 10       		.uleb128 0x10
 3272 0010 17       		.uleb128 0x17
 3273 0011 00       		.byte	0
 3274 0012 00       		.byte	0
 3275 0013 02       		.uleb128 0x2
 3276 0014 24       		.uleb128 0x24
 3277 0015 00       		.byte	0
 3278 0016 0B       		.uleb128 0xb
 3279 0017 0B       		.uleb128 0xb
ARM GAS  /tmp/ccy0l3Hv.s 			page 59


 3280 0018 3E       		.uleb128 0x3e
 3281 0019 0B       		.uleb128 0xb
 3282 001a 03       		.uleb128 0x3
 3283 001b 08       		.uleb128 0x8
 3284 001c 00       		.byte	0
 3285 001d 00       		.byte	0
 3286 001e 03       		.uleb128 0x3
 3287 001f 24       		.uleb128 0x24
 3288 0020 00       		.byte	0
 3289 0021 0B       		.uleb128 0xb
 3290 0022 0B       		.uleb128 0xb
 3291 0023 3E       		.uleb128 0x3e
 3292 0024 0B       		.uleb128 0xb
 3293 0025 03       		.uleb128 0x3
 3294 0026 0E       		.uleb128 0xe
 3295 0027 00       		.byte	0
 3296 0028 00       		.byte	0
 3297 0029 04       		.uleb128 0x4
 3298 002a 16       		.uleb128 0x16
 3299 002b 00       		.byte	0
 3300 002c 03       		.uleb128 0x3
 3301 002d 0E       		.uleb128 0xe
 3302 002e 3A       		.uleb128 0x3a
 3303 002f 0B       		.uleb128 0xb
 3304 0030 3B       		.uleb128 0x3b
 3305 0031 0B       		.uleb128 0xb
 3306 0032 49       		.uleb128 0x49
 3307 0033 13       		.uleb128 0x13
 3308 0034 00       		.byte	0
 3309 0035 00       		.byte	0
 3310 0036 05       		.uleb128 0x5
 3311 0037 35       		.uleb128 0x35
 3312 0038 00       		.byte	0
 3313 0039 49       		.uleb128 0x49
 3314 003a 13       		.uleb128 0x13
 3315 003b 00       		.byte	0
 3316 003c 00       		.byte	0
 3317 003d 06       		.uleb128 0x6
 3318 003e 13       		.uleb128 0x13
 3319 003f 01       		.byte	0x1
 3320 0040 03       		.uleb128 0x3
 3321 0041 0E       		.uleb128 0xe
 3322 0042 0B       		.uleb128 0xb
 3323 0043 0B       		.uleb128 0xb
 3324 0044 3A       		.uleb128 0x3a
 3325 0045 0B       		.uleb128 0xb
 3326 0046 3B       		.uleb128 0x3b
 3327 0047 0B       		.uleb128 0xb
 3328 0048 01       		.uleb128 0x1
 3329 0049 13       		.uleb128 0x13
 3330 004a 00       		.byte	0
 3331 004b 00       		.byte	0
 3332 004c 07       		.uleb128 0x7
 3333 004d 0D       		.uleb128 0xd
 3334 004e 00       		.byte	0
 3335 004f 03       		.uleb128 0x3
 3336 0050 0E       		.uleb128 0xe
ARM GAS  /tmp/ccy0l3Hv.s 			page 60


 3337 0051 3A       		.uleb128 0x3a
 3338 0052 0B       		.uleb128 0xb
 3339 0053 3B       		.uleb128 0x3b
 3340 0054 0B       		.uleb128 0xb
 3341 0055 49       		.uleb128 0x49
 3342 0056 13       		.uleb128 0x13
 3343 0057 38       		.uleb128 0x38
 3344 0058 0B       		.uleb128 0xb
 3345 0059 00       		.byte	0
 3346 005a 00       		.byte	0
 3347 005b 08       		.uleb128 0x8
 3348 005c 0D       		.uleb128 0xd
 3349 005d 00       		.byte	0
 3350 005e 03       		.uleb128 0x3
 3351 005f 08       		.uleb128 0x8
 3352 0060 3A       		.uleb128 0x3a
 3353 0061 0B       		.uleb128 0xb
 3354 0062 3B       		.uleb128 0x3b
 3355 0063 0B       		.uleb128 0xb
 3356 0064 49       		.uleb128 0x49
 3357 0065 13       		.uleb128 0x13
 3358 0066 38       		.uleb128 0x38
 3359 0067 0B       		.uleb128 0xb
 3360 0068 00       		.byte	0
 3361 0069 00       		.byte	0
 3362 006a 09       		.uleb128 0x9
 3363 006b 13       		.uleb128 0x13
 3364 006c 01       		.byte	0x1
 3365 006d 0B       		.uleb128 0xb
 3366 006e 0B       		.uleb128 0xb
 3367 006f 3A       		.uleb128 0x3a
 3368 0070 0B       		.uleb128 0xb
 3369 0071 3B       		.uleb128 0x3b
 3370 0072 0B       		.uleb128 0xb
 3371 0073 01       		.uleb128 0x1
 3372 0074 13       		.uleb128 0x13
 3373 0075 00       		.byte	0
 3374 0076 00       		.byte	0
 3375 0077 0A       		.uleb128 0xa
 3376 0078 0F       		.uleb128 0xf
 3377 0079 00       		.byte	0
 3378 007a 0B       		.uleb128 0xb
 3379 007b 0B       		.uleb128 0xb
 3380 007c 49       		.uleb128 0x49
 3381 007d 13       		.uleb128 0x13
 3382 007e 00       		.byte	0
 3383 007f 00       		.byte	0
 3384 0080 0B       		.uleb128 0xb
 3385 0081 0F       		.uleb128 0xf
 3386 0082 00       		.byte	0
 3387 0083 0B       		.uleb128 0xb
 3388 0084 0B       		.uleb128 0xb
 3389 0085 00       		.byte	0
 3390 0086 00       		.byte	0
 3391 0087 0C       		.uleb128 0xc
 3392 0088 16       		.uleb128 0x16
 3393 0089 00       		.byte	0
ARM GAS  /tmp/ccy0l3Hv.s 			page 61


 3394 008a 03       		.uleb128 0x3
 3395 008b 0E       		.uleb128 0xe
 3396 008c 3A       		.uleb128 0x3a
 3397 008d 0B       		.uleb128 0xb
 3398 008e 3B       		.uleb128 0x3b
 3399 008f 0B       		.uleb128 0xb
 3400 0090 49       		.uleb128 0x49
 3401 0091 13       		.uleb128 0x13
 3402 0092 8801     		.uleb128 0x88
 3403 0094 0B       		.uleb128 0xb
 3404 0095 00       		.byte	0
 3405 0096 00       		.byte	0
 3406 0097 0D       		.uleb128 0xd
 3407 0098 13       		.uleb128 0x13
 3408 0099 01       		.byte	0x1
 3409 009a 03       		.uleb128 0x3
 3410 009b 0E       		.uleb128 0xe
 3411 009c 0B       		.uleb128 0xb
 3412 009d 0B       		.uleb128 0xb
 3413 009e 3A       		.uleb128 0x3a
 3414 009f 0B       		.uleb128 0xb
 3415 00a0 3B       		.uleb128 0x3b
 3416 00a1 05       		.uleb128 0x5
 3417 00a2 01       		.uleb128 0x1
 3418 00a3 13       		.uleb128 0x13
 3419 00a4 00       		.byte	0
 3420 00a5 00       		.byte	0
 3421 00a6 0E       		.uleb128 0xe
 3422 00a7 0D       		.uleb128 0xd
 3423 00a8 00       		.byte	0
 3424 00a9 03       		.uleb128 0x3
 3425 00aa 08       		.uleb128 0x8
 3426 00ab 3A       		.uleb128 0x3a
 3427 00ac 0B       		.uleb128 0xb
 3428 00ad 3B       		.uleb128 0x3b
 3429 00ae 05       		.uleb128 0x5
 3430 00af 49       		.uleb128 0x49
 3431 00b0 13       		.uleb128 0x13
 3432 00b1 38       		.uleb128 0x38
 3433 00b2 0B       		.uleb128 0xb
 3434 00b3 00       		.byte	0
 3435 00b4 00       		.byte	0
 3436 00b5 0F       		.uleb128 0xf
 3437 00b6 15       		.uleb128 0x15
 3438 00b7 01       		.byte	0x1
 3439 00b8 27       		.uleb128 0x27
 3440 00b9 19       		.uleb128 0x19
 3441 00ba 01       		.uleb128 0x1
 3442 00bb 13       		.uleb128 0x13
 3443 00bc 00       		.byte	0
 3444 00bd 00       		.byte	0
 3445 00be 10       		.uleb128 0x10
 3446 00bf 05       		.uleb128 0x5
 3447 00c0 00       		.byte	0
 3448 00c1 49       		.uleb128 0x49
 3449 00c2 13       		.uleb128 0x13
 3450 00c3 00       		.byte	0
ARM GAS  /tmp/ccy0l3Hv.s 			page 62


 3451 00c4 00       		.byte	0
 3452 00c5 11       		.uleb128 0x11
 3453 00c6 34       		.uleb128 0x34
 3454 00c7 00       		.byte	0
 3455 00c8 03       		.uleb128 0x3
 3456 00c9 0E       		.uleb128 0xe
 3457 00ca 3A       		.uleb128 0x3a
 3458 00cb 0B       		.uleb128 0xb
 3459 00cc 3B       		.uleb128 0x3b
 3460 00cd 0B       		.uleb128 0xb
 3461 00ce 49       		.uleb128 0x49
 3462 00cf 13       		.uleb128 0x13
 3463 00d0 3F       		.uleb128 0x3f
 3464 00d1 19       		.uleb128 0x19
 3465 00d2 3C       		.uleb128 0x3c
 3466 00d3 19       		.uleb128 0x19
 3467 00d4 00       		.byte	0
 3468 00d5 00       		.byte	0
 3469 00d6 12       		.uleb128 0x12
 3470 00d7 26       		.uleb128 0x26
 3471 00d8 00       		.byte	0
 3472 00d9 49       		.uleb128 0x49
 3473 00da 13       		.uleb128 0x13
 3474 00db 00       		.byte	0
 3475 00dc 00       		.byte	0
 3476 00dd 13       		.uleb128 0x13
 3477 00de 17       		.uleb128 0x17
 3478 00df 01       		.byte	0x1
 3479 00e0 0B       		.uleb128 0xb
 3480 00e1 0B       		.uleb128 0xb
 3481 00e2 3A       		.uleb128 0x3a
 3482 00e3 0B       		.uleb128 0xb
 3483 00e4 3B       		.uleb128 0x3b
 3484 00e5 0B       		.uleb128 0xb
 3485 00e6 01       		.uleb128 0x1
 3486 00e7 13       		.uleb128 0x13
 3487 00e8 00       		.byte	0
 3488 00e9 00       		.byte	0
 3489 00ea 14       		.uleb128 0x14
 3490 00eb 0D       		.uleb128 0xd
 3491 00ec 00       		.byte	0
 3492 00ed 03       		.uleb128 0x3
 3493 00ee 0E       		.uleb128 0xe
 3494 00ef 3A       		.uleb128 0x3a
 3495 00f0 0B       		.uleb128 0xb
 3496 00f1 3B       		.uleb128 0x3b
 3497 00f2 0B       		.uleb128 0xb
 3498 00f3 49       		.uleb128 0x49
 3499 00f4 13       		.uleb128 0x13
 3500 00f5 00       		.byte	0
 3501 00f6 00       		.byte	0
 3502 00f7 15       		.uleb128 0x15
 3503 00f8 01       		.uleb128 0x1
 3504 00f9 01       		.byte	0x1
 3505 00fa 49       		.uleb128 0x49
 3506 00fb 13       		.uleb128 0x13
 3507 00fc 01       		.uleb128 0x1
ARM GAS  /tmp/ccy0l3Hv.s 			page 63


 3508 00fd 13       		.uleb128 0x13
 3509 00fe 00       		.byte	0
 3510 00ff 00       		.byte	0
 3511 0100 16       		.uleb128 0x16
 3512 0101 21       		.uleb128 0x21
 3513 0102 00       		.byte	0
 3514 0103 49       		.uleb128 0x49
 3515 0104 13       		.uleb128 0x13
 3516 0105 2F       		.uleb128 0x2f
 3517 0106 0B       		.uleb128 0xb
 3518 0107 00       		.byte	0
 3519 0108 00       		.byte	0
 3520 0109 17       		.uleb128 0x17
 3521 010a 13       		.uleb128 0x13
 3522 010b 01       		.byte	0x1
 3523 010c 0B       		.uleb128 0xb
 3524 010d 05       		.uleb128 0x5
 3525 010e 3A       		.uleb128 0x3a
 3526 010f 0B       		.uleb128 0xb
 3527 0110 3B       		.uleb128 0x3b
 3528 0111 0B       		.uleb128 0xb
 3529 0112 01       		.uleb128 0x1
 3530 0113 13       		.uleb128 0x13
 3531 0114 00       		.byte	0
 3532 0115 00       		.byte	0
 3533 0116 18       		.uleb128 0x18
 3534 0117 01       		.uleb128 0x1
 3535 0118 01       		.byte	0x1
 3536 0119 49       		.uleb128 0x49
 3537 011a 13       		.uleb128 0x13
 3538 011b 8801     		.uleb128 0x88
 3539 011d 0B       		.uleb128 0xb
 3540 011e 01       		.uleb128 0x1
 3541 011f 13       		.uleb128 0x13
 3542 0120 00       		.byte	0
 3543 0121 00       		.byte	0
 3544 0122 19       		.uleb128 0x19
 3545 0123 2E       		.uleb128 0x2e
 3546 0124 01       		.byte	0x1
 3547 0125 3F       		.uleb128 0x3f
 3548 0126 19       		.uleb128 0x19
 3549 0127 03       		.uleb128 0x3
 3550 0128 0E       		.uleb128 0xe
 3551 0129 3A       		.uleb128 0x3a
 3552 012a 0B       		.uleb128 0xb
 3553 012b 3B       		.uleb128 0x3b
 3554 012c 05       		.uleb128 0x5
 3555 012d 27       		.uleb128 0x27
 3556 012e 19       		.uleb128 0x19
 3557 012f 49       		.uleb128 0x49
 3558 0130 13       		.uleb128 0x13
 3559 0131 11       		.uleb128 0x11
 3560 0132 01       		.uleb128 0x1
 3561 0133 12       		.uleb128 0x12
 3562 0134 06       		.uleb128 0x6
 3563 0135 40       		.uleb128 0x40
 3564 0136 18       		.uleb128 0x18
ARM GAS  /tmp/ccy0l3Hv.s 			page 64


 3565 0137 9742     		.uleb128 0x2117
 3566 0139 19       		.uleb128 0x19
 3567 013a 01       		.uleb128 0x1
 3568 013b 13       		.uleb128 0x13
 3569 013c 00       		.byte	0
 3570 013d 00       		.byte	0
 3571 013e 1A       		.uleb128 0x1a
 3572 013f 05       		.uleb128 0x5
 3573 0140 00       		.byte	0
 3574 0141 03       		.uleb128 0x3
 3575 0142 0E       		.uleb128 0xe
 3576 0143 3A       		.uleb128 0x3a
 3577 0144 0B       		.uleb128 0xb
 3578 0145 3B       		.uleb128 0x3b
 3579 0146 05       		.uleb128 0x5
 3580 0147 49       		.uleb128 0x49
 3581 0148 13       		.uleb128 0x13
 3582 0149 02       		.uleb128 0x2
 3583 014a 17       		.uleb128 0x17
 3584 014b 00       		.byte	0
 3585 014c 00       		.byte	0
 3586 014d 1B       		.uleb128 0x1b
 3587 014e 34       		.uleb128 0x34
 3588 014f 00       		.byte	0
 3589 0150 03       		.uleb128 0x3
 3590 0151 08       		.uleb128 0x8
 3591 0152 3A       		.uleb128 0x3a
 3592 0153 0B       		.uleb128 0xb
 3593 0154 3B       		.uleb128 0x3b
 3594 0155 05       		.uleb128 0x5
 3595 0156 49       		.uleb128 0x49
 3596 0157 13       		.uleb128 0x13
 3597 0158 02       		.uleb128 0x2
 3598 0159 17       		.uleb128 0x17
 3599 015a 00       		.byte	0
 3600 015b 00       		.byte	0
 3601 015c 1C       		.uleb128 0x1c
 3602 015d 898201   		.uleb128 0x4109
 3603 0160 00       		.byte	0
 3604 0161 11       		.uleb128 0x11
 3605 0162 01       		.uleb128 0x1
 3606 0163 31       		.uleb128 0x31
 3607 0164 13       		.uleb128 0x13
 3608 0165 00       		.byte	0
 3609 0166 00       		.byte	0
 3610 0167 1D       		.uleb128 0x1d
 3611 0168 898201   		.uleb128 0x4109
 3612 016b 01       		.byte	0x1
 3613 016c 11       		.uleb128 0x11
 3614 016d 01       		.uleb128 0x1
 3615 016e 31       		.uleb128 0x31
 3616 016f 13       		.uleb128 0x13
 3617 0170 01       		.uleb128 0x1
 3618 0171 13       		.uleb128 0x13
 3619 0172 00       		.byte	0
 3620 0173 00       		.byte	0
 3621 0174 1E       		.uleb128 0x1e
ARM GAS  /tmp/ccy0l3Hv.s 			page 65


 3622 0175 8A8201   		.uleb128 0x410a
 3623 0178 00       		.byte	0
 3624 0179 02       		.uleb128 0x2
 3625 017a 18       		.uleb128 0x18
 3626 017b 9142     		.uleb128 0x2111
 3627 017d 18       		.uleb128 0x18
 3628 017e 00       		.byte	0
 3629 017f 00       		.byte	0
 3630 0180 1F       		.uleb128 0x1f
 3631 0181 2E       		.uleb128 0x2e
 3632 0182 01       		.byte	0x1
 3633 0183 3F       		.uleb128 0x3f
 3634 0184 19       		.uleb128 0x19
 3635 0185 03       		.uleb128 0x3
 3636 0186 0E       		.uleb128 0xe
 3637 0187 3A       		.uleb128 0x3a
 3638 0188 0B       		.uleb128 0xb
 3639 0189 3B       		.uleb128 0x3b
 3640 018a 05       		.uleb128 0x5
 3641 018b 27       		.uleb128 0x27
 3642 018c 19       		.uleb128 0x19
 3643 018d 11       		.uleb128 0x11
 3644 018e 01       		.uleb128 0x1
 3645 018f 12       		.uleb128 0x12
 3646 0190 06       		.uleb128 0x6
 3647 0191 40       		.uleb128 0x40
 3648 0192 18       		.uleb128 0x18
 3649 0193 9742     		.uleb128 0x2117
 3650 0195 19       		.uleb128 0x19
 3651 0196 01       		.uleb128 0x1
 3652 0197 13       		.uleb128 0x13
 3653 0198 00       		.byte	0
 3654 0199 00       		.byte	0
 3655 019a 20       		.uleb128 0x20
 3656 019b 898201   		.uleb128 0x4109
 3657 019e 01       		.byte	0x1
 3658 019f 11       		.uleb128 0x11
 3659 01a0 01       		.uleb128 0x1
 3660 01a1 01       		.uleb128 0x1
 3661 01a2 13       		.uleb128 0x13
 3662 01a3 00       		.byte	0
 3663 01a4 00       		.byte	0
 3664 01a5 21       		.uleb128 0x21
 3665 01a6 898201   		.uleb128 0x4109
 3666 01a9 01       		.byte	0x1
 3667 01aa 11       		.uleb128 0x11
 3668 01ab 01       		.uleb128 0x1
 3669 01ac 31       		.uleb128 0x31
 3670 01ad 13       		.uleb128 0x13
 3671 01ae 00       		.byte	0
 3672 01af 00       		.byte	0
 3673 01b0 22       		.uleb128 0x22
 3674 01b1 05       		.uleb128 0x5
 3675 01b2 00       		.byte	0
 3676 01b3 03       		.uleb128 0x3
 3677 01b4 08       		.uleb128 0x8
 3678 01b5 3A       		.uleb128 0x3a
ARM GAS  /tmp/ccy0l3Hv.s 			page 66


 3679 01b6 0B       		.uleb128 0xb
 3680 01b7 3B       		.uleb128 0x3b
 3681 01b8 05       		.uleb128 0x5
 3682 01b9 49       		.uleb128 0x49
 3683 01ba 13       		.uleb128 0x13
 3684 01bb 02       		.uleb128 0x2
 3685 01bc 17       		.uleb128 0x17
 3686 01bd 00       		.byte	0
 3687 01be 00       		.byte	0
 3688 01bf 23       		.uleb128 0x23
 3689 01c0 34       		.uleb128 0x34
 3690 01c1 00       		.byte	0
 3691 01c2 03       		.uleb128 0x3
 3692 01c3 0E       		.uleb128 0xe
 3693 01c4 3A       		.uleb128 0x3a
 3694 01c5 0B       		.uleb128 0xb
 3695 01c6 3B       		.uleb128 0x3b
 3696 01c7 05       		.uleb128 0x5
 3697 01c8 49       		.uleb128 0x49
 3698 01c9 13       		.uleb128 0x13
 3699 01ca 02       		.uleb128 0x2
 3700 01cb 18       		.uleb128 0x18
 3701 01cc 00       		.byte	0
 3702 01cd 00       		.byte	0
 3703 01ce 24       		.uleb128 0x24
 3704 01cf 2E       		.uleb128 0x2e
 3705 01d0 01       		.byte	0x1
 3706 01d1 3F       		.uleb128 0x3f
 3707 01d2 19       		.uleb128 0x19
 3708 01d3 03       		.uleb128 0x3
 3709 01d4 0E       		.uleb128 0xe
 3710 01d5 3A       		.uleb128 0x3a
 3711 01d6 0B       		.uleb128 0xb
 3712 01d7 3B       		.uleb128 0x3b
 3713 01d8 0B       		.uleb128 0xb
 3714 01d9 27       		.uleb128 0x27
 3715 01da 19       		.uleb128 0x19
 3716 01db 20       		.uleb128 0x20
 3717 01dc 0B       		.uleb128 0xb
 3718 01dd 01       		.uleb128 0x1
 3719 01de 13       		.uleb128 0x13
 3720 01df 00       		.byte	0
 3721 01e0 00       		.byte	0
 3722 01e1 25       		.uleb128 0x25
 3723 01e2 05       		.uleb128 0x5
 3724 01e3 00       		.byte	0
 3725 01e4 03       		.uleb128 0x3
 3726 01e5 08       		.uleb128 0x8
 3727 01e6 3A       		.uleb128 0x3a
 3728 01e7 0B       		.uleb128 0xb
 3729 01e8 3B       		.uleb128 0x3b
 3730 01e9 0B       		.uleb128 0xb
 3731 01ea 49       		.uleb128 0x49
 3732 01eb 13       		.uleb128 0x13
 3733 01ec 00       		.byte	0
 3734 01ed 00       		.byte	0
 3735 01ee 26       		.uleb128 0x26
ARM GAS  /tmp/ccy0l3Hv.s 			page 67


 3736 01ef 05       		.uleb128 0x5
 3737 01f0 00       		.byte	0
 3738 01f1 03       		.uleb128 0x3
 3739 01f2 0E       		.uleb128 0xe
 3740 01f3 3A       		.uleb128 0x3a
 3741 01f4 0B       		.uleb128 0xb
 3742 01f5 3B       		.uleb128 0x3b
 3743 01f6 0B       		.uleb128 0xb
 3744 01f7 49       		.uleb128 0x49
 3745 01f8 13       		.uleb128 0x13
 3746 01f9 00       		.byte	0
 3747 01fa 00       		.byte	0
 3748 01fb 27       		.uleb128 0x27
 3749 01fc 2E       		.uleb128 0x2e
 3750 01fd 01       		.byte	0x1
 3751 01fe 3F       		.uleb128 0x3f
 3752 01ff 19       		.uleb128 0x19
 3753 0200 03       		.uleb128 0x3
 3754 0201 0E       		.uleb128 0xe
 3755 0202 3A       		.uleb128 0x3a
 3756 0203 0B       		.uleb128 0xb
 3757 0204 3B       		.uleb128 0x3b
 3758 0205 0B       		.uleb128 0xb
 3759 0206 27       		.uleb128 0x27
 3760 0207 19       		.uleb128 0x19
 3761 0208 11       		.uleb128 0x11
 3762 0209 01       		.uleb128 0x1
 3763 020a 12       		.uleb128 0x12
 3764 020b 06       		.uleb128 0x6
 3765 020c 40       		.uleb128 0x40
 3766 020d 18       		.uleb128 0x18
 3767 020e 9742     		.uleb128 0x2117
 3768 0210 19       		.uleb128 0x19
 3769 0211 01       		.uleb128 0x1
 3770 0212 13       		.uleb128 0x13
 3771 0213 00       		.byte	0
 3772 0214 00       		.byte	0
 3773 0215 28       		.uleb128 0x28
 3774 0216 05       		.uleb128 0x5
 3775 0217 00       		.byte	0
 3776 0218 03       		.uleb128 0x3
 3777 0219 08       		.uleb128 0x8
 3778 021a 3A       		.uleb128 0x3a
 3779 021b 0B       		.uleb128 0xb
 3780 021c 3B       		.uleb128 0x3b
 3781 021d 0B       		.uleb128 0xb
 3782 021e 49       		.uleb128 0x49
 3783 021f 13       		.uleb128 0x13
 3784 0220 02       		.uleb128 0x2
 3785 0221 17       		.uleb128 0x17
 3786 0222 00       		.byte	0
 3787 0223 00       		.byte	0
 3788 0224 29       		.uleb128 0x29
 3789 0225 05       		.uleb128 0x5
 3790 0226 00       		.byte	0
 3791 0227 03       		.uleb128 0x3
 3792 0228 0E       		.uleb128 0xe
ARM GAS  /tmp/ccy0l3Hv.s 			page 68


 3793 0229 3A       		.uleb128 0x3a
 3794 022a 0B       		.uleb128 0xb
 3795 022b 3B       		.uleb128 0x3b
 3796 022c 0B       		.uleb128 0xb
 3797 022d 49       		.uleb128 0x49
 3798 022e 13       		.uleb128 0x13
 3799 022f 02       		.uleb128 0x2
 3800 0230 17       		.uleb128 0x17
 3801 0231 00       		.byte	0
 3802 0232 00       		.byte	0
 3803 0233 2A       		.uleb128 0x2a
 3804 0234 2E       		.uleb128 0x2e
 3805 0235 01       		.byte	0x1
 3806 0236 3F       		.uleb128 0x3f
 3807 0237 19       		.uleb128 0x19
 3808 0238 03       		.uleb128 0x3
 3809 0239 0E       		.uleb128 0xe
 3810 023a 3A       		.uleb128 0x3a
 3811 023b 0B       		.uleb128 0xb
 3812 023c 3B       		.uleb128 0x3b
 3813 023d 0B       		.uleb128 0xb
 3814 023e 27       		.uleb128 0x27
 3815 023f 19       		.uleb128 0x19
 3816 0240 49       		.uleb128 0x49
 3817 0241 13       		.uleb128 0x13
 3818 0242 11       		.uleb128 0x11
 3819 0243 01       		.uleb128 0x1
 3820 0244 12       		.uleb128 0x12
 3821 0245 06       		.uleb128 0x6
 3822 0246 40       		.uleb128 0x40
 3823 0247 18       		.uleb128 0x18
 3824 0248 9742     		.uleb128 0x2117
 3825 024a 19       		.uleb128 0x19
 3826 024b 01       		.uleb128 0x1
 3827 024c 13       		.uleb128 0x13
 3828 024d 00       		.byte	0
 3829 024e 00       		.byte	0
 3830 024f 2B       		.uleb128 0x2b
 3831 0250 34       		.uleb128 0x34
 3832 0251 00       		.byte	0
 3833 0252 03       		.uleb128 0x3
 3834 0253 0E       		.uleb128 0xe
 3835 0254 3A       		.uleb128 0x3a
 3836 0255 0B       		.uleb128 0xb
 3837 0256 3B       		.uleb128 0x3b
 3838 0257 0B       		.uleb128 0xb
 3839 0258 49       		.uleb128 0x49
 3840 0259 13       		.uleb128 0x13
 3841 025a 02       		.uleb128 0x2
 3842 025b 18       		.uleb128 0x18
 3843 025c 00       		.byte	0
 3844 025d 00       		.byte	0
 3845 025e 2C       		.uleb128 0x2c
 3846 025f 34       		.uleb128 0x34
 3847 0260 00       		.byte	0
 3848 0261 03       		.uleb128 0x3
 3849 0262 08       		.uleb128 0x8
ARM GAS  /tmp/ccy0l3Hv.s 			page 69


 3850 0263 3A       		.uleb128 0x3a
 3851 0264 0B       		.uleb128 0xb
 3852 0265 3B       		.uleb128 0x3b
 3853 0266 0B       		.uleb128 0xb
 3854 0267 49       		.uleb128 0x49
 3855 0268 13       		.uleb128 0x13
 3856 0269 02       		.uleb128 0x2
 3857 026a 17       		.uleb128 0x17
 3858 026b 00       		.byte	0
 3859 026c 00       		.byte	0
 3860 026d 2D       		.uleb128 0x2d
 3861 026e 2E       		.uleb128 0x2e
 3862 026f 01       		.byte	0x1
 3863 0270 31       		.uleb128 0x31
 3864 0271 13       		.uleb128 0x13
 3865 0272 11       		.uleb128 0x11
 3866 0273 01       		.uleb128 0x1
 3867 0274 12       		.uleb128 0x12
 3868 0275 06       		.uleb128 0x6
 3869 0276 40       		.uleb128 0x40
 3870 0277 18       		.uleb128 0x18
 3871 0278 9742     		.uleb128 0x2117
 3872 027a 19       		.uleb128 0x19
 3873 027b 01       		.uleb128 0x1
 3874 027c 13       		.uleb128 0x13
 3875 027d 00       		.byte	0
 3876 027e 00       		.byte	0
 3877 027f 2E       		.uleb128 0x2e
 3878 0280 05       		.uleb128 0x5
 3879 0281 00       		.byte	0
 3880 0282 31       		.uleb128 0x31
 3881 0283 13       		.uleb128 0x13
 3882 0284 02       		.uleb128 0x2
 3883 0285 17       		.uleb128 0x17
 3884 0286 00       		.byte	0
 3885 0287 00       		.byte	0
 3886 0288 2F       		.uleb128 0x2f
 3887 0289 0B       		.uleb128 0xb
 3888 028a 01       		.byte	0x1
 3889 028b 31       		.uleb128 0x31
 3890 028c 13       		.uleb128 0x13
 3891 028d 55       		.uleb128 0x55
 3892 028e 17       		.uleb128 0x17
 3893 028f 01       		.uleb128 0x1
 3894 0290 13       		.uleb128 0x13
 3895 0291 00       		.byte	0
 3896 0292 00       		.byte	0
 3897 0293 30       		.uleb128 0x30
 3898 0294 2E       		.uleb128 0x2e
 3899 0295 00       		.byte	0
 3900 0296 3F       		.uleb128 0x3f
 3901 0297 19       		.uleb128 0x19
 3902 0298 3C       		.uleb128 0x3c
 3903 0299 19       		.uleb128 0x19
 3904 029a 6E       		.uleb128 0x6e
 3905 029b 0E       		.uleb128 0xe
 3906 029c 03       		.uleb128 0x3
ARM GAS  /tmp/ccy0l3Hv.s 			page 70


 3907 029d 0E       		.uleb128 0xe
 3908 029e 3A       		.uleb128 0x3a
 3909 029f 0B       		.uleb128 0xb
 3910 02a0 3B       		.uleb128 0x3b
 3911 02a1 0B       		.uleb128 0xb
 3912 02a2 00       		.byte	0
 3913 02a3 00       		.byte	0
 3914 02a4 00       		.byte	0
 3915              		.section	.debug_loc,"",%progbits
 3916              	.Ldebug_loc0:
 3917              	.LLST41:
 3918 0000 00000000 		.4byte	.LVL128
 3919 0004 0F000000 		.4byte	.LVL130-1
 3920 0008 0100     		.2byte	0x1
 3921 000a 50       		.byte	0x50
 3922 000b 0F000000 		.4byte	.LVL130-1
 3923 000f 44000000 		.4byte	.LVL135
 3924 0013 0100     		.2byte	0x1
 3925 0015 54       		.byte	0x54
 3926 0016 44000000 		.4byte	.LVL135
 3927 001a 48000000 		.4byte	.LFE23
 3928 001e 0400     		.2byte	0x4
 3929 0020 F3       		.byte	0xf3
 3930 0021 01       		.uleb128 0x1
 3931 0022 50       		.byte	0x50
 3932 0023 9F       		.byte	0x9f
 3933 0024 00000000 		.4byte	0
 3934 0028 00000000 		.4byte	0
 3935              	.LLST42:
 3936 002c 00000000 		.4byte	.LVL128
 3937 0030 0F000000 		.4byte	.LVL130-1
 3938 0034 0100     		.2byte	0x1
 3939 0036 51       		.byte	0x51
 3940 0037 0F000000 		.4byte	.LVL130-1
 3941 003b 44000000 		.4byte	.LVL135
 3942 003f 0100     		.2byte	0x1
 3943 0041 56       		.byte	0x56
 3944 0042 44000000 		.4byte	.LVL135
 3945 0046 48000000 		.4byte	.LFE23
 3946 004a 0400     		.2byte	0x4
 3947 004c F3       		.byte	0xf3
 3948 004d 01       		.uleb128 0x1
 3949 004e 51       		.byte	0x51
 3950 004f 9F       		.byte	0x9f
 3951 0050 00000000 		.4byte	0
 3952 0054 00000000 		.4byte	0
 3953              	.LLST43:
 3954 0058 0A000000 		.4byte	.LVL129
 3955 005c 44000000 		.4byte	.LVL135
 3956 0060 0100     		.2byte	0x1
 3957 0062 55       		.byte	0x55
 3958 0063 00000000 		.4byte	0
 3959 0067 00000000 		.4byte	0
 3960              	.LLST37:
 3961 006b 00000000 		.4byte	.LVL118
 3962 006f 0F000000 		.4byte	.LVL120-1
 3963 0073 0100     		.2byte	0x1
ARM GAS  /tmp/ccy0l3Hv.s 			page 71


 3964 0075 50       		.byte	0x50
 3965 0076 0F000000 		.4byte	.LVL120-1
 3966 007a 3E000000 		.4byte	.LVL127
 3967 007e 0100     		.2byte	0x1
 3968 0080 54       		.byte	0x54
 3969 0081 3E000000 		.4byte	.LVL127
 3970 0085 44000000 		.4byte	.LFE22
 3971 0089 0400     		.2byte	0x4
 3972 008b F3       		.byte	0xf3
 3973 008c 01       		.uleb128 0x1
 3974 008d 50       		.byte	0x50
 3975 008e 9F       		.byte	0x9f
 3976 008f 00000000 		.4byte	0
 3977 0093 00000000 		.4byte	0
 3978              	.LLST38:
 3979 0097 00000000 		.4byte	.LVL118
 3980 009b 0F000000 		.4byte	.LVL120-1
 3981 009f 0100     		.2byte	0x1
 3982 00a1 51       		.byte	0x51
 3983 00a2 0F000000 		.4byte	.LVL120-1
 3984 00a6 3E000000 		.4byte	.LVL127
 3985 00aa 0100     		.2byte	0x1
 3986 00ac 57       		.byte	0x57
 3987 00ad 3E000000 		.4byte	.LVL127
 3988 00b1 44000000 		.4byte	.LFE22
 3989 00b5 0400     		.2byte	0x4
 3990 00b7 F3       		.byte	0xf3
 3991 00b8 01       		.uleb128 0x1
 3992 00b9 51       		.byte	0x51
 3993 00ba 9F       		.byte	0x9f
 3994 00bb 00000000 		.4byte	0
 3995 00bf 00000000 		.4byte	0
 3996              	.LLST39:
 3997 00c3 0A000000 		.4byte	.LVL119
 3998 00c7 3E000000 		.4byte	.LVL127
 3999 00cb 0100     		.2byte	0x1
 4000 00cd 55       		.byte	0x55
 4001 00ce 00000000 		.4byte	0
 4002 00d2 00000000 		.4byte	0
 4003              	.LLST40:
 4004 00d6 12000000 		.4byte	.LVL121
 4005 00da 16000000 		.4byte	.LVL122
 4006 00de 0600     		.2byte	0x6
 4007 00e0 73       		.byte	0x73
 4008 00e1 00       		.sleb128 0
 4009 00e2 74       		.byte	0x74
 4010 00e3 00       		.sleb128 0
 4011 00e4 1A       		.byte	0x1a
 4012 00e5 9F       		.byte	0x9f
 4013 00e6 16000000 		.4byte	.LVL122
 4014 00ea 34000000 		.4byte	.LVL125
 4015 00ee 0100     		.2byte	0x1
 4016 00f0 56       		.byte	0x56
 4017 00f1 00000000 		.4byte	0
 4018 00f5 00000000 		.4byte	0
 4019              	.LLST33:
 4020 00f9 00000000 		.4byte	.LVL107
ARM GAS  /tmp/ccy0l3Hv.s 			page 72


 4021 00fd 0F000000 		.4byte	.LVL109-1
 4022 0101 0100     		.2byte	0x1
 4023 0103 50       		.byte	0x50
 4024 0104 0F000000 		.4byte	.LVL109-1
 4025 0108 42000000 		.4byte	.LVL117
 4026 010c 0100     		.2byte	0x1
 4027 010e 55       		.byte	0x55
 4028 010f 42000000 		.4byte	.LVL117
 4029 0113 48000000 		.4byte	.LFE21
 4030 0117 0400     		.2byte	0x4
 4031 0119 F3       		.byte	0xf3
 4032 011a 01       		.uleb128 0x1
 4033 011b 50       		.byte	0x50
 4034 011c 9F       		.byte	0x9f
 4035 011d 00000000 		.4byte	0
 4036 0121 00000000 		.4byte	0
 4037              	.LLST34:
 4038 0125 00000000 		.4byte	.LVL107
 4039 0129 0F000000 		.4byte	.LVL109-1
 4040 012d 0100     		.2byte	0x1
 4041 012f 51       		.byte	0x51
 4042 0130 0F000000 		.4byte	.LVL109-1
 4043 0134 42000000 		.4byte	.LVL117
 4044 0138 0100     		.2byte	0x1
 4045 013a 57       		.byte	0x57
 4046 013b 42000000 		.4byte	.LVL117
 4047 013f 48000000 		.4byte	.LFE21
 4048 0143 0400     		.2byte	0x4
 4049 0145 F3       		.byte	0xf3
 4050 0146 01       		.uleb128 0x1
 4051 0147 51       		.byte	0x51
 4052 0148 9F       		.byte	0x9f
 4053 0149 00000000 		.4byte	0
 4054 014d 00000000 		.4byte	0
 4055              	.LLST35:
 4056 0151 0A000000 		.4byte	.LVL108
 4057 0155 42000000 		.4byte	.LVL117
 4058 0159 0100     		.2byte	0x1
 4059 015b 56       		.byte	0x56
 4060 015c 00000000 		.4byte	0
 4061 0160 00000000 		.4byte	0
 4062              	.LLST36:
 4063 0164 12000000 		.4byte	.LVL110
 4064 0168 16000000 		.4byte	.LVL111
 4065 016c 0600     		.2byte	0x6
 4066 016e 73       		.byte	0x73
 4067 016f 00       		.sleb128 0
 4068 0170 75       		.byte	0x75
 4069 0171 00       		.sleb128 0
 4070 0172 1A       		.byte	0x1a
 4071 0173 9F       		.byte	0x9f
 4072 0174 16000000 		.4byte	.LVL111
 4073 0178 38000000 		.4byte	.LVL115
 4074 017c 0100     		.2byte	0x1
 4075 017e 54       		.byte	0x54
 4076 017f 00000000 		.4byte	0
 4077 0183 00000000 		.4byte	0
ARM GAS  /tmp/ccy0l3Hv.s 			page 73


 4078              	.LLST31:
 4079 0187 00000000 		.4byte	.LVL101
 4080 018b 0D000000 		.4byte	.LVL103-1
 4081 018f 0100     		.2byte	0x1
 4082 0191 50       		.byte	0x50
 4083 0192 0D000000 		.4byte	.LVL103-1
 4084 0196 30000000 		.4byte	.LVL106
 4085 019a 0100     		.2byte	0x1
 4086 019c 54       		.byte	0x54
 4087 019d 30000000 		.4byte	.LVL106
 4088 01a1 34000000 		.4byte	.LFE20
 4089 01a5 0100     		.2byte	0x1
 4090 01a7 50       		.byte	0x50
 4091 01a8 00000000 		.4byte	0
 4092 01ac 00000000 		.4byte	0
 4093              	.LLST32:
 4094 01b0 08000000 		.4byte	.LVL102
 4095 01b4 30000000 		.4byte	.LVL106
 4096 01b8 0100     		.2byte	0x1
 4097 01ba 55       		.byte	0x55
 4098 01bb 00000000 		.4byte	0
 4099 01bf 00000000 		.4byte	0
 4100              	.LLST28:
 4101 01c3 00000000 		.4byte	.LVL92
 4102 01c7 0D000000 		.4byte	.LVL94-1
 4103 01cb 0100     		.2byte	0x1
 4104 01cd 50       		.byte	0x50
 4105 01ce 0D000000 		.4byte	.LVL94-1
 4106 01d2 34000000 		.4byte	.LVL100
 4107 01d6 0100     		.2byte	0x1
 4108 01d8 55       		.byte	0x55
 4109 01d9 34000000 		.4byte	.LVL100
 4110 01dd 38000000 		.4byte	.LFE19
 4111 01e1 0400     		.2byte	0x4
 4112 01e3 F3       		.byte	0xf3
 4113 01e4 01       		.uleb128 0x1
 4114 01e5 50       		.byte	0x50
 4115 01e6 9F       		.byte	0x9f
 4116 01e7 00000000 		.4byte	0
 4117 01eb 00000000 		.4byte	0
 4118              	.LLST29:
 4119 01ef 08000000 		.4byte	.LVL93
 4120 01f3 34000000 		.4byte	.LVL100
 4121 01f7 0100     		.2byte	0x1
 4122 01f9 54       		.byte	0x54
 4123 01fa 00000000 		.4byte	0
 4124 01fe 00000000 		.4byte	0
 4125              	.LLST30:
 4126 0202 10000000 		.4byte	.LVL95
 4127 0206 14000000 		.4byte	.LVL96
 4128 020a 0600     		.2byte	0x6
 4129 020c 73       		.byte	0x73
 4130 020d 00       		.sleb128 0
 4131 020e 75       		.byte	0x75
 4132 020f 00       		.sleb128 0
 4133 0210 1A       		.byte	0x1a
 4134 0211 9F       		.byte	0x9f
ARM GAS  /tmp/ccy0l3Hv.s 			page 74


 4135 0212 14000000 		.4byte	.LVL96
 4136 0216 34000000 		.4byte	.LVL100
 4137 021a 0100     		.2byte	0x1
 4138 021c 56       		.byte	0x56
 4139 021d 34000000 		.4byte	.LVL100
 4140 0221 38000000 		.4byte	.LFE19
 4141 0225 0100     		.2byte	0x1
 4142 0227 50       		.byte	0x50
 4143 0228 00000000 		.4byte	0
 4144 022c 00000000 		.4byte	0
 4145              	.LLST25:
 4146 0230 00000000 		.4byte	.LVL81
 4147 0234 0D000000 		.4byte	.LVL83-1
 4148 0238 0100     		.2byte	0x1
 4149 023a 50       		.byte	0x50
 4150 023b 0D000000 		.4byte	.LVL83-1
 4151 023f 38000000 		.4byte	.LVL91
 4152 0243 0100     		.2byte	0x1
 4153 0245 56       		.byte	0x56
 4154 0246 38000000 		.4byte	.LVL91
 4155 024a 3C000000 		.4byte	.LFE18
 4156 024e 0400     		.2byte	0x4
 4157 0250 F3       		.byte	0xf3
 4158 0251 01       		.uleb128 0x1
 4159 0252 50       		.byte	0x50
 4160 0253 9F       		.byte	0x9f
 4161 0254 00000000 		.4byte	0
 4162 0258 00000000 		.4byte	0
 4163              	.LLST26:
 4164 025c 08000000 		.4byte	.LVL82
 4165 0260 38000000 		.4byte	.LVL91
 4166 0264 0100     		.2byte	0x1
 4167 0266 55       		.byte	0x55
 4168 0267 00000000 		.4byte	0
 4169 026b 00000000 		.4byte	0
 4170              	.LLST27:
 4171 026f 10000000 		.4byte	.LVL84
 4172 0273 14000000 		.4byte	.LVL85
 4173 0277 0600     		.2byte	0x6
 4174 0279 73       		.byte	0x73
 4175 027a 00       		.sleb128 0
 4176 027b 76       		.byte	0x76
 4177 027c 00       		.sleb128 0
 4178 027d 1A       		.byte	0x1a
 4179 027e 9F       		.byte	0x9f
 4180 027f 14000000 		.4byte	.LVL85
 4181 0283 18000000 		.4byte	.LVL86
 4182 0287 0100     		.2byte	0x1
 4183 0289 50       		.byte	0x50
 4184 028a 18000000 		.4byte	.LVL86
 4185 028e 1D000000 		.4byte	.LVL87-1
 4186 0292 0600     		.2byte	0x6
 4187 0294 73       		.byte	0x73
 4188 0295 00       		.sleb128 0
 4189 0296 76       		.byte	0x76
 4190 0297 00       		.sleb128 0
 4191 0298 1A       		.byte	0x1a
ARM GAS  /tmp/ccy0l3Hv.s 			page 75


 4192 0299 9F       		.byte	0x9f
 4193 029a 24000000 		.4byte	.LVL88
 4194 029e 28000000 		.4byte	.LVL89
 4195 02a2 0100     		.2byte	0x1
 4196 02a4 50       		.byte	0x50
 4197 02a5 28000000 		.4byte	.LVL89
 4198 02a9 38000000 		.4byte	.LVL91
 4199 02ad 0100     		.2byte	0x1
 4200 02af 54       		.byte	0x54
 4201 02b0 38000000 		.4byte	.LVL91
 4202 02b4 3C000000 		.4byte	.LFE18
 4203 02b8 0100     		.2byte	0x1
 4204 02ba 50       		.byte	0x50
 4205 02bb 00000000 		.4byte	0
 4206 02bf 00000000 		.4byte	0
 4207              	.LLST22:
 4208 02c3 00000000 		.4byte	.LVL66
 4209 02c7 0A000000 		.4byte	.LVL67
 4210 02cb 0100     		.2byte	0x1
 4211 02cd 50       		.byte	0x50
 4212 02ce 0A000000 		.4byte	.LVL67
 4213 02d2 44000000 		.4byte	.LVL78
 4214 02d6 0100     		.2byte	0x1
 4215 02d8 57       		.byte	0x57
 4216 02d9 44000000 		.4byte	.LVL78
 4217 02dd 46000000 		.4byte	.LVL79
 4218 02e1 0100     		.2byte	0x1
 4219 02e3 50       		.byte	0x50
 4220 02e4 46000000 		.4byte	.LVL79
 4221 02e8 54000000 		.4byte	.LFE17
 4222 02ec 0100     		.2byte	0x1
 4223 02ee 57       		.byte	0x57
 4224 02ef 00000000 		.4byte	0
 4225 02f3 00000000 		.4byte	0
 4226              	.LLST23:
 4227 02f7 00000000 		.4byte	.LVL66
 4228 02fb 0A000000 		.4byte	.LVL67
 4229 02ff 0100     		.2byte	0x1
 4230 0301 51       		.byte	0x51
 4231 0302 0A000000 		.4byte	.LVL67
 4232 0306 24000000 		.4byte	.LVL69
 4233 030a 0100     		.2byte	0x1
 4234 030c 55       		.byte	0x55
 4235 030d 26000000 		.4byte	.LVL70
 4236 0311 38000000 		.4byte	.LVL76
 4237 0315 0100     		.2byte	0x1
 4238 0317 55       		.byte	0x55
 4239 0318 44000000 		.4byte	.LVL78
 4240 031c 49000000 		.4byte	.LVL80-1
 4241 0320 0100     		.2byte	0x1
 4242 0322 51       		.byte	0x51
 4243 0323 49000000 		.4byte	.LVL80-1
 4244 0327 54000000 		.4byte	.LFE17
 4245 032b 0100     		.2byte	0x1
 4246 032d 55       		.byte	0x55
 4247 032e 00000000 		.4byte	0
 4248 0332 00000000 		.4byte	0
ARM GAS  /tmp/ccy0l3Hv.s 			page 76


 4249              	.LLST24:
 4250 0336 0A000000 		.4byte	.LVL67
 4251 033a 14000000 		.4byte	.LVL68
 4252 033e 0200     		.2byte	0x2
 4253 0340 30       		.byte	0x30
 4254 0341 9F       		.byte	0x9f
 4255 0342 14000000 		.4byte	.LVL68
 4256 0346 30000000 		.4byte	.LVL73
 4257 034a 0100     		.2byte	0x1
 4258 034c 54       		.byte	0x54
 4259 034d 34000000 		.4byte	.LVL74
 4260 0351 44000000 		.4byte	.LVL78
 4261 0355 0100     		.2byte	0x1
 4262 0357 54       		.byte	0x54
 4263 0358 00000000 		.4byte	0
 4264 035c 00000000 		.4byte	0
 4265              	.LLST21:
 4266 0360 00000000 		.4byte	.LVL64
 4267 0364 06000000 		.4byte	.LVL65
 4268 0368 0100     		.2byte	0x1
 4269 036a 50       		.byte	0x50
 4270 036b 06000000 		.4byte	.LVL65
 4271 036f 0A000000 		.4byte	.LFE16
 4272 0373 0100     		.2byte	0x1
 4273 0375 53       		.byte	0x53
 4274 0376 00000000 		.4byte	0
 4275 037a 00000000 		.4byte	0
 4276              	.LLST19:
 4277 037e 00000000 		.4byte	.LVL59
 4278 0382 0B000000 		.4byte	.LVL60-1
 4279 0386 0100     		.2byte	0x1
 4280 0388 50       		.byte	0x50
 4281 0389 0B000000 		.4byte	.LVL60-1
 4282 038d 20000000 		.4byte	.LFE15
 4283 0391 0100     		.2byte	0x1
 4284 0393 54       		.byte	0x54
 4285 0394 00000000 		.4byte	0
 4286 0398 00000000 		.4byte	0
 4287              	.LLST20:
 4288 039c 00000000 		.4byte	.LVL59
 4289 03a0 0B000000 		.4byte	.LVL60-1
 4290 03a4 0100     		.2byte	0x1
 4291 03a6 51       		.byte	0x51
 4292 03a7 0B000000 		.4byte	.LVL60-1
 4293 03ab 20000000 		.4byte	.LFE15
 4294 03af 0100     		.2byte	0x1
 4295 03b1 55       		.byte	0x55
 4296 03b2 00000000 		.4byte	0
 4297 03b6 00000000 		.4byte	0
 4298              	.LLST17:
 4299 03ba 00000000 		.4byte	.LVL50
 4300 03be 08000000 		.4byte	.LVL51
 4301 03c2 0100     		.2byte	0x1
 4302 03c4 50       		.byte	0x50
 4303 03c5 08000000 		.4byte	.LVL51
 4304 03c9 22000000 		.4byte	.LVL56
 4305 03cd 0100     		.2byte	0x1
ARM GAS  /tmp/ccy0l3Hv.s 			page 77


 4306 03cf 54       		.byte	0x54
 4307 03d0 22000000 		.4byte	.LVL56
 4308 03d4 24000000 		.4byte	.LVL57
 4309 03d8 0100     		.2byte	0x1
 4310 03da 50       		.byte	0x50
 4311 03db 24000000 		.4byte	.LVL57
 4312 03df 30000000 		.4byte	.LFE13
 4313 03e3 0100     		.2byte	0x1
 4314 03e5 54       		.byte	0x54
 4315 03e6 00000000 		.4byte	0
 4316 03ea 00000000 		.4byte	0
 4317              	.LLST18:
 4318 03ee 00000000 		.4byte	.LVL50
 4319 03f2 08000000 		.4byte	.LVL51
 4320 03f6 0100     		.2byte	0x1
 4321 03f8 51       		.byte	0x51
 4322 03f9 08000000 		.4byte	.LVL51
 4323 03fd 22000000 		.4byte	.LVL56
 4324 0401 0100     		.2byte	0x1
 4325 0403 55       		.byte	0x55
 4326 0404 22000000 		.4byte	.LVL56
 4327 0408 27000000 		.4byte	.LVL58-1
 4328 040c 0100     		.2byte	0x1
 4329 040e 51       		.byte	0x51
 4330 040f 27000000 		.4byte	.LVL58-1
 4331 0413 30000000 		.4byte	.LFE13
 4332 0417 0100     		.2byte	0x1
 4333 0419 55       		.byte	0x55
 4334 041a 00000000 		.4byte	0
 4335 041e 00000000 		.4byte	0
 4336              	.LLST9:
 4337 0422 00000000 		.4byte	.LVL29
 4338 0426 09000000 		.4byte	.LVL30-1
 4339 042a 0100     		.2byte	0x1
 4340 042c 50       		.byte	0x50
 4341 042d 09000000 		.4byte	.LVL30-1
 4342 0431 1A000000 		.4byte	.LFE12
 4343 0435 0100     		.2byte	0x1
 4344 0437 54       		.byte	0x54
 4345 0438 00000000 		.4byte	0
 4346 043c 00000000 		.4byte	0
 4347              	.LLST14:
 4348 0440 00000000 		.4byte	.LVL43
 4349 0444 09000000 		.4byte	.LVL44-1
 4350 0448 0100     		.2byte	0x1
 4351 044a 50       		.byte	0x50
 4352 044b 09000000 		.4byte	.LVL44-1
 4353 044f 34000000 		.4byte	.LFE11
 4354 0453 0100     		.2byte	0x1
 4355 0455 55       		.byte	0x55
 4356 0456 00000000 		.4byte	0
 4357 045a 00000000 		.4byte	0
 4358              	.LLST15:
 4359 045e 00000000 		.4byte	.LVL43
 4360 0462 09000000 		.4byte	.LVL44-1
 4361 0466 0100     		.2byte	0x1
 4362 0468 51       		.byte	0x51
ARM GAS  /tmp/ccy0l3Hv.s 			page 78


 4363 0469 09000000 		.4byte	.LVL44-1
 4364 046d 34000000 		.4byte	.LFE11
 4365 0471 0100     		.2byte	0x1
 4366 0473 56       		.byte	0x56
 4367 0474 00000000 		.4byte	0
 4368 0478 00000000 		.4byte	0
 4369              	.LLST16:
 4370 047c 0E000000 		.4byte	.LVL45
 4371 0480 28000000 		.4byte	.LVL48
 4372 0484 0100     		.2byte	0x1
 4373 0486 54       		.byte	0x54
 4374 0487 00000000 		.4byte	0
 4375 048b 00000000 		.4byte	0
 4376              	.LLST8:
 4377 048f 00000000 		.4byte	.LVL23
 4378 0493 09000000 		.4byte	.LVL24-1
 4379 0497 0100     		.2byte	0x1
 4380 0499 50       		.byte	0x50
 4381 049a 09000000 		.4byte	.LVL24-1
 4382 049e 12000000 		.4byte	.LVL25
 4383 04a2 0100     		.2byte	0x1
 4384 04a4 54       		.byte	0x54
 4385 04a5 12000000 		.4byte	.LVL25
 4386 04a9 14000000 		.4byte	.LVL26
 4387 04ad 0400     		.2byte	0x4
 4388 04af F3       		.byte	0xf3
 4389 04b0 01       		.uleb128 0x1
 4390 04b1 50       		.byte	0x50
 4391 04b2 9F       		.byte	0x9f
 4392 04b3 14000000 		.4byte	.LVL26
 4393 04b7 1E000000 		.4byte	.LVL28
 4394 04bb 0100     		.2byte	0x1
 4395 04bd 54       		.byte	0x54
 4396 04be 1E000000 		.4byte	.LVL28
 4397 04c2 24000000 		.4byte	.LFE10
 4398 04c6 0100     		.2byte	0x1
 4399 04c8 50       		.byte	0x50
 4400 04c9 00000000 		.4byte	0
 4401 04cd 00000000 		.4byte	0
 4402              	.LLST6:
 4403 04d1 00000000 		.4byte	.LVL18
 4404 04d5 09000000 		.4byte	.LVL19-1
 4405 04d9 0100     		.2byte	0x1
 4406 04db 50       		.byte	0x50
 4407 04dc 09000000 		.4byte	.LVL19-1
 4408 04e0 18000000 		.4byte	.LVL20
 4409 04e4 0100     		.2byte	0x1
 4410 04e6 54       		.byte	0x54
 4411 04e7 18000000 		.4byte	.LVL20
 4412 04eb 28000000 		.4byte	.LFE9
 4413 04ef 0400     		.2byte	0x4
 4414 04f1 F3       		.byte	0xf3
 4415 04f2 01       		.uleb128 0x1
 4416 04f3 50       		.byte	0x50
 4417 04f4 9F       		.byte	0x9f
 4418 04f5 00000000 		.4byte	0
 4419 04f9 00000000 		.4byte	0
ARM GAS  /tmp/ccy0l3Hv.s 			page 79


 4420              	.LLST7:
 4421 04fd 18000000 		.4byte	.LVL20
 4422 0501 22000000 		.4byte	.LVL22
 4423 0505 0100     		.2byte	0x1
 4424 0507 54       		.byte	0x54
 4425 0508 22000000 		.4byte	.LVL22
 4426 050c 28000000 		.4byte	.LFE9
 4427 0510 0100     		.2byte	0x1
 4428 0512 50       		.byte	0x50
 4429 0513 00000000 		.4byte	0
 4430 0517 00000000 		.4byte	0
 4431              	.LLST3:
 4432 051b 00000000 		.4byte	.LVL7
 4433 051f 0A000000 		.4byte	.LVL8
 4434 0523 0100     		.2byte	0x1
 4435 0525 50       		.byte	0x50
 4436 0526 0A000000 		.4byte	.LVL8
 4437 052a 34000000 		.4byte	.LVL15
 4438 052e 0100     		.2byte	0x1
 4439 0530 54       		.byte	0x54
 4440 0531 34000000 		.4byte	.LVL15
 4441 0535 36000000 		.4byte	.LVL16
 4442 0539 0100     		.2byte	0x1
 4443 053b 50       		.byte	0x50
 4444 053c 36000000 		.4byte	.LVL16
 4445 0540 40000000 		.4byte	.LFE8
 4446 0544 0100     		.2byte	0x1
 4447 0546 54       		.byte	0x54
 4448 0547 00000000 		.4byte	0
 4449 054b 00000000 		.4byte	0
 4450              	.LLST4:
 4451 054f 00000000 		.4byte	.LVL7
 4452 0553 0A000000 		.4byte	.LVL8
 4453 0557 0100     		.2byte	0x1
 4454 0559 51       		.byte	0x51
 4455 055a 0A000000 		.4byte	.LVL8
 4456 055e 34000000 		.4byte	.LVL15
 4457 0562 0100     		.2byte	0x1
 4458 0564 55       		.byte	0x55
 4459 0565 34000000 		.4byte	.LVL15
 4460 0569 39000000 		.4byte	.LVL17-1
 4461 056d 0100     		.2byte	0x1
 4462 056f 51       		.byte	0x51
 4463 0570 39000000 		.4byte	.LVL17-1
 4464 0574 40000000 		.4byte	.LFE8
 4465 0578 0100     		.2byte	0x1
 4466 057a 55       		.byte	0x55
 4467 057b 00000000 		.4byte	0
 4468 057f 00000000 		.4byte	0
 4469              	.LLST5:
 4470 0583 0A000000 		.4byte	.LVL8
 4471 0587 14000000 		.4byte	.LVL10
 4472 058b 0100     		.2byte	0x1
 4473 058d 54       		.byte	0x54
 4474 058e 14000000 		.4byte	.LVL10
 4475 0592 23000000 		.4byte	.LVL12-1
 4476 0596 0100     		.2byte	0x1
ARM GAS  /tmp/ccy0l3Hv.s 			page 80


 4477 0598 52       		.byte	0x52
 4478 0599 28000000 		.4byte	.LVL13
 4479 059d 2F000000 		.4byte	.LVL14-1
 4480 05a1 0100     		.2byte	0x1
 4481 05a3 52       		.byte	0x52
 4482 05a4 00000000 		.4byte	0
 4483 05a8 00000000 		.4byte	0
 4484              	.LLST0:
 4485 05ac 00000000 		.4byte	.LVL0
 4486 05b0 0C000000 		.4byte	.LVL1
 4487 05b4 0100     		.2byte	0x1
 4488 05b6 50       		.byte	0x50
 4489 05b7 0C000000 		.4byte	.LVL1
 4490 05bb 2C000000 		.4byte	.LVL4
 4491 05bf 0100     		.2byte	0x1
 4492 05c1 55       		.byte	0x55
 4493 05c2 2C000000 		.4byte	.LVL4
 4494 05c6 2E000000 		.4byte	.LVL5
 4495 05ca 0100     		.2byte	0x1
 4496 05cc 50       		.byte	0x50
 4497 05cd 2E000000 		.4byte	.LVL5
 4498 05d1 3C000000 		.4byte	.LFE7
 4499 05d5 0100     		.2byte	0x1
 4500 05d7 55       		.byte	0x55
 4501 05d8 00000000 		.4byte	0
 4502 05dc 00000000 		.4byte	0
 4503              	.LLST1:
 4504 05e0 00000000 		.4byte	.LVL0
 4505 05e4 0C000000 		.4byte	.LVL1
 4506 05e8 0100     		.2byte	0x1
 4507 05ea 51       		.byte	0x51
 4508 05eb 0C000000 		.4byte	.LVL1
 4509 05ef 2C000000 		.4byte	.LVL4
 4510 05f3 0100     		.2byte	0x1
 4511 05f5 54       		.byte	0x54
 4512 05f6 2C000000 		.4byte	.LVL4
 4513 05fa 31000000 		.4byte	.LVL6-1
 4514 05fe 0100     		.2byte	0x1
 4515 0600 51       		.byte	0x51
 4516 0601 31000000 		.4byte	.LVL6-1
 4517 0605 3C000000 		.4byte	.LFE7
 4518 0609 0100     		.2byte	0x1
 4519 060b 54       		.byte	0x54
 4520 060c 00000000 		.4byte	0
 4521 0610 00000000 		.4byte	0
 4522              	.LLST2:
 4523 0614 00000000 		.4byte	.LVL0
 4524 0618 0C000000 		.4byte	.LVL1
 4525 061c 0100     		.2byte	0x1
 4526 061e 52       		.byte	0x52
 4527 061f 0C000000 		.4byte	.LVL1
 4528 0623 2C000000 		.4byte	.LVL4
 4529 0627 0100     		.2byte	0x1
 4530 0629 56       		.byte	0x56
 4531 062a 2C000000 		.4byte	.LVL4
 4532 062e 31000000 		.4byte	.LVL6-1
 4533 0632 0100     		.2byte	0x1
ARM GAS  /tmp/ccy0l3Hv.s 			page 81


 4534 0634 52       		.byte	0x52
 4535 0635 31000000 		.4byte	.LVL6-1
 4536 0639 3C000000 		.4byte	.LFE7
 4537 063d 0100     		.2byte	0x1
 4538 063f 56       		.byte	0x56
 4539 0640 00000000 		.4byte	0
 4540 0644 00000000 		.4byte	0
 4541              	.LLST10:
 4542 0648 00000000 		.4byte	.LVL33
 4543 064c 09000000 		.4byte	.LVL34-1
 4544 0650 0100     		.2byte	0x1
 4545 0652 50       		.byte	0x50
 4546 0653 09000000 		.4byte	.LVL34-1
 4547 0657 50000000 		.4byte	.LFE14
 4548 065b 0100     		.2byte	0x1
 4549 065d 54       		.byte	0x54
 4550 065e 00000000 		.4byte	0
 4551 0662 00000000 		.4byte	0
 4552              	.LLST11:
 4553 0666 00000000 		.4byte	.LVL33
 4554 066a 09000000 		.4byte	.LVL34-1
 4555 066e 0100     		.2byte	0x1
 4556 0670 51       		.byte	0x51
 4557 0671 09000000 		.4byte	.LVL34-1
 4558 0675 50000000 		.4byte	.LFE14
 4559 0679 0100     		.2byte	0x1
 4560 067b 55       		.byte	0x55
 4561 067c 00000000 		.4byte	0
 4562 0680 00000000 		.4byte	0
 4563              	.LLST12:
 4564 0684 26000000 		.4byte	.LVL36
 4565 0688 32000000 		.4byte	.LVL38
 4566 068c 0100     		.2byte	0x1
 4567 068e 55       		.byte	0x55
 4568 068f 38000000 		.4byte	.LVL39
 4569 0693 44000000 		.4byte	.LVL41
 4570 0697 0100     		.2byte	0x1
 4571 0699 55       		.byte	0x55
 4572 069a 00000000 		.4byte	0
 4573 069e 00000000 		.4byte	0
 4574              	.LLST13:
 4575 06a2 26000000 		.4byte	.LVL36
 4576 06a6 32000000 		.4byte	.LVL38
 4577 06aa 0100     		.2byte	0x1
 4578 06ac 54       		.byte	0x54
 4579 06ad 38000000 		.4byte	.LVL39
 4580 06b1 44000000 		.4byte	.LVL41
 4581 06b5 0100     		.2byte	0x1
 4582 06b7 54       		.byte	0x54
 4583 06b8 00000000 		.4byte	0
 4584 06bc 00000000 		.4byte	0
 4585              		.section	.debug_aranges,"",%progbits
 4586 0000 9C000000 		.4byte	0x9c
 4587 0004 0200     		.2byte	0x2
 4588 0006 00000000 		.4byte	.Ldebug_info0
 4589 000a 04       		.byte	0x4
 4590 000b 00       		.byte	0
ARM GAS  /tmp/ccy0l3Hv.s 			page 82


 4591 000c 0000     		.2byte	0
 4592 000e 0000     		.2byte	0
 4593 0010 00000000 		.4byte	.LFB7
 4594 0014 3C000000 		.4byte	.LFE7-.LFB7
 4595 0018 00000000 		.4byte	.LFB8
 4596 001c 40000000 		.4byte	.LFE8-.LFB8
 4597 0020 00000000 		.4byte	.LFB9
 4598 0024 28000000 		.4byte	.LFE9-.LFB9
 4599 0028 00000000 		.4byte	.LFB10
 4600 002c 24000000 		.4byte	.LFE10-.LFB10
 4601 0030 00000000 		.4byte	.LFB12
 4602 0034 1A000000 		.4byte	.LFE12-.LFB12
 4603 0038 00000000 		.4byte	.LFB14
 4604 003c 50000000 		.4byte	.LFE14-.LFB14
 4605 0040 00000000 		.4byte	.LFB11
 4606 0044 34000000 		.4byte	.LFE11-.LFB11
 4607 0048 00000000 		.4byte	.LFB13
 4608 004c 30000000 		.4byte	.LFE13-.LFB13
 4609 0050 00000000 		.4byte	.LFB15
 4610 0054 20000000 		.4byte	.LFE15-.LFB15
 4611 0058 00000000 		.4byte	.LFB16
 4612 005c 0A000000 		.4byte	.LFE16-.LFB16
 4613 0060 00000000 		.4byte	.LFB17
 4614 0064 54000000 		.4byte	.LFE17-.LFB17
 4615 0068 00000000 		.4byte	.LFB18
 4616 006c 3C000000 		.4byte	.LFE18-.LFB18
 4617 0070 00000000 		.4byte	.LFB19
 4618 0074 38000000 		.4byte	.LFE19-.LFB19
 4619 0078 00000000 		.4byte	.LFB20
 4620 007c 34000000 		.4byte	.LFE20-.LFB20
 4621 0080 00000000 		.4byte	.LFB21
 4622 0084 48000000 		.4byte	.LFE21-.LFB21
 4623 0088 00000000 		.4byte	.LFB22
 4624 008c 44000000 		.4byte	.LFE22-.LFB22
 4625 0090 00000000 		.4byte	.LFB23
 4626 0094 48000000 		.4byte	.LFE23-.LFB23
 4627 0098 00000000 		.4byte	0
 4628 009c 00000000 		.4byte	0
 4629              		.section	.debug_ranges,"",%progbits
 4630              	.Ldebug_ranges0:
 4631 0000 26000000 		.4byte	.LBB4
 4632 0004 30000000 		.4byte	.LBE4
 4633 0008 38000000 		.4byte	.LBB7
 4634 000c 44000000 		.4byte	.LBE7
 4635 0010 00000000 		.4byte	0
 4636 0014 00000000 		.4byte	0
 4637 0018 00000000 		.4byte	.LFB7
 4638 001c 3C000000 		.4byte	.LFE7
 4639 0020 00000000 		.4byte	.LFB8
 4640 0024 40000000 		.4byte	.LFE8
 4641 0028 00000000 		.4byte	.LFB9
 4642 002c 28000000 		.4byte	.LFE9
 4643 0030 00000000 		.4byte	.LFB10
 4644 0034 24000000 		.4byte	.LFE10
 4645 0038 00000000 		.4byte	.LFB12
 4646 003c 1A000000 		.4byte	.LFE12
 4647 0040 00000000 		.4byte	.LFB14
ARM GAS  /tmp/ccy0l3Hv.s 			page 83


 4648 0044 50000000 		.4byte	.LFE14
 4649 0048 00000000 		.4byte	.LFB11
 4650 004c 34000000 		.4byte	.LFE11
 4651 0050 00000000 		.4byte	.LFB13
 4652 0054 30000000 		.4byte	.LFE13
 4653 0058 00000000 		.4byte	.LFB15
 4654 005c 20000000 		.4byte	.LFE15
 4655 0060 00000000 		.4byte	.LFB16
 4656 0064 0A000000 		.4byte	.LFE16
 4657 0068 00000000 		.4byte	.LFB17
 4658 006c 54000000 		.4byte	.LFE17
 4659 0070 00000000 		.4byte	.LFB18
 4660 0074 3C000000 		.4byte	.LFE18
 4661 0078 00000000 		.4byte	.LFB19
 4662 007c 38000000 		.4byte	.LFE19
 4663 0080 00000000 		.4byte	.LFB20
 4664 0084 34000000 		.4byte	.LFE20
 4665 0088 00000000 		.4byte	.LFB21
 4666 008c 48000000 		.4byte	.LFE21
 4667 0090 00000000 		.4byte	.LFB22
 4668 0094 44000000 		.4byte	.LFE22
 4669 0098 00000000 		.4byte	.LFB23
 4670 009c 48000000 		.4byte	.LFE23
 4671 00a0 00000000 		.4byte	0
 4672 00a4 00000000 		.4byte	0
 4673              		.section	.debug_line,"",%progbits
 4674              	.Ldebug_line0:
 4675 0000 89030000 		.section	.debug_str,"MS",%progbits,1
 4675      02006F01 
 4675      00000201 
 4675      FB0E0D00 
 4675      01010101 
 4676              	.LASF102:
 4677 0000 63665F6F 		.ascii	"cf_off_older\000"
 4677      66665F6F 
 4677      6C646572 
 4677      00
 4678              	.LASF47:
 4679 000d 705F6D73 		.ascii	"p_msg\000"
 4679      6700
 4680              	.LASF150:
 4681 0013 63684462 		.ascii	"chDbgPanic\000"
 4681      6750616E 
 4681      696300
 4682              	.LASF87:
 4683 001e 7264796D 		.ascii	"rdymsg\000"
 4683      736700
 4684              	.LASF104:
 4685 0025 63665F6F 		.ascii	"cf_off_stklimit\000"
 4685      66665F73 
 4685      746B6C69 
 4685      6D697400 
 4686              	.LASF18:
 4687 0035 75696E74 		.ascii	"uint64_t\000"
 4687      36345F74 
 4687      00
 4688              	.LASF4:
ARM GAS  /tmp/ccy0l3Hv.s 			page 84


 4689 003e 5F5F7569 		.ascii	"__uint8_t\000"
 4689      6E74385F 
 4689      7400
 4690              	.LASF98:
 4691 0048 63685F74 		.ascii	"ch_threadsize\000"
 4691      68726561 
 4691      6473697A 
 4691      6500
 4692              	.LASF73:
 4693 0056 76746C69 		.ascii	"vtlist\000"
 4693      737400
 4694              	.LASF139:
 4695 005d 63684576 		.ascii	"chEvtSignal\000"
 4695      74536967 
 4695      6E616C00 
 4696              	.LASF154:
 4697 0069 474E5520 		.ascii	"GNU C99 7.3.1 20180622 (release) [ARM/embedded-7-br"
 4697      43393920 
 4697      372E332E 
 4697      31203230 
 4697      31383036 
 4698 009c 616E6368 		.ascii	"anch revision 261907] -mcpu=cortex-m4 -mfloat-abi=h"
 4698      20726576 
 4698      6973696F 
 4698      6E203236 
 4698      31393037 
 4699 00cf 61726420 		.ascii	"ard -mfpu=fpv4-sp-d16 -mno-thumb-interwork -mthumb "
 4699      2D6D6670 
 4699      753D6670 
 4699      76342D73 
 4699      702D6431 
 4700 0102 2D676764 		.ascii	"-ggdb -O2 -std=gnu99 -fomit-frame-pointer -falign-f"
 4700      62202D4F 
 4700      32202D73 
 4700      74643D67 
 4700      6E753939 
 4701 0135 756E6374 		.ascii	"unctions=16 -ffunction-sections -fdata-sections -fn"
 4701      696F6E73 
 4701      3D313620 
 4701      2D666675 
 4701      6E637469 
 4702 0168 6F2D636F 		.ascii	"o-common -fsingle-precision-constant\000"
 4702      6D6D6F6E 
 4702      202D6673 
 4702      696E676C 
 4702      652D7072 
 4703              	.LASF13:
 4704 018d 6C6F6E67 		.ascii	"long long unsigned int\000"
 4704      206C6F6E 
 4704      6720756E 
 4704      7369676E 
 4704      65642069 
 4705              	.LASF120:
 4706 01a4 63685F74 		.ascii	"ch_trace_buffer_t\000"
 4706      72616365 
 4706      5F627566 
 4706      6665725F 
ARM GAS  /tmp/ccy0l3Hv.s 			page 85


 4706      7400
 4707              	.LASF129:
 4708 01b6 63684576 		.ascii	"chEvtWaitAnyTimeout\000"
 4708      74576169 
 4708      74416E79 
 4708      54696D65 
 4708      6F757400 
 4709              	.LASF34:
 4710 01ca 705F7072 		.ascii	"p_prio\000"
 4710      696F00
 4711              	.LASF105:
 4712 01d1 63665F6F 		.ascii	"cf_off_state\000"
 4712      66665F73 
 4712      74617465 
 4712      00
 4713              	.LASF113:
 4714 01de 73655F74 		.ascii	"se_tp\000"
 4714      7000
 4715              	.LASF11:
 4716 01e4 6C6F6E67 		.ascii	"long long int\000"
 4716      206C6F6E 
 4716      6720696E 
 4716      7400
 4717              	.LASF1:
 4718 01f2 7369676E 		.ascii	"signed char\000"
 4718      65642063 
 4718      68617200 
 4719              	.LASF155:
 4720 01fe 43686962 		.ascii	"ChibiOS_2.6.6/os/kernel/src/chevents.c\000"
 4720      694F535F 
 4720      322E362E 
 4720      362F6F73 
 4720      2F6B6572 
 4721              	.LASF128:
 4722 0225 63684576 		.ascii	"chEvtWaitAllTimeout\000"
 4722      74576169 
 4722      74416C6C 
 4722      54696D65 
 4722      6F757400 
 4723              	.LASF106:
 4724 0239 63665F6F 		.ascii	"cf_off_flags\000"
 4724      66665F66 
 4724      6C616773 
 4724      00
 4725              	.LASF51:
 4726 0246 705F6D70 		.ascii	"p_mpool\000"
 4726      6F6F6C00 
 4727              	.LASF76:
 4728 024e 6D5F7175 		.ascii	"m_queue\000"
 4728      65756500 
 4729              	.LASF23:
 4730 0256 74736C69 		.ascii	"tslices_t\000"
 4730      6365735F 
 4730      7400
 4731              	.LASF8:
 4732 0260 6C6F6E67 		.ascii	"long int\000"
 4732      20696E74 
ARM GAS  /tmp/ccy0l3Hv.s 			page 86


 4732      00
 4733              	.LASF21:
 4734 0269 74737461 		.ascii	"tstate_t\000"
 4734      74655F74 
 4734      00
 4735              	.LASF132:
 4736 0272 63684576 		.ascii	"chEvtWaitAny\000"
 4736      74576169 
 4736      74416E79 
 4736      00
 4737              	.LASF15:
 4738 027f 75696E74 		.ascii	"uint16_t\000"
 4738      31365F74 
 4738      00
 4739              	.LASF110:
 4740 0288 63686465 		.ascii	"chdebug_t\000"
 4740      6275675F 
 4740      7400
 4741              	.LASF141:
 4742 0292 63684576 		.ascii	"chEvtBroadcastFlagsI\000"
 4742      7442726F 
 4742      61646361 
 4742      7374466C 
 4742      61677349 
 4743              	.LASF36:
 4744 02a7 705F6E65 		.ascii	"p_newer\000"
 4744      77657200 
 4745              	.LASF125:
 4746 02af 5F69646C 		.ascii	"_idle_thread_wa\000"
 4746      655F7468 
 4746      72656164 
 4746      5F776100 
 4747              	.LASF88:
 4748 02bf 65786974 		.ascii	"exitcode\000"
 4748      636F6465 
 4748      00
 4749              	.LASF151:
 4750 02c8 63685363 		.ascii	"chSchRescheduleS\000"
 4750      68526573 
 4750      63686564 
 4750      756C6553 
 4750      00
 4751              	.LASF117:
 4752 02d9 74625F73 		.ascii	"tb_size\000"
 4752      697A6500 
 4753              	.LASF9:
 4754 02e1 5F5F7569 		.ascii	"__uint32_t\000"
 4754      6E743332 
 4754      5F7400
 4755              	.LASF126:
 4756 02ec 6D61736B 		.ascii	"mask\000"
 4756      00
 4757              	.LASF54:
 4758 02f1 72656761 		.ascii	"regarm_t\000"
 4758      726D5F74 
 4758      00
 4759              	.LASF60:
ARM GAS  /tmp/ccy0l3Hv.s 			page 87


 4760 02fa 76745F70 		.ascii	"vt_prev\000"
 4760      72657600 
 4761              	.LASF138:
 4762 0302 63684576 		.ascii	"chEvtBroadcastFlags\000"
 4762      7442726F 
 4762      61646361 
 4762      7374466C 
 4762      61677300 
 4763              	.LASF26:
 4764 0316 6576656E 		.ascii	"eventid_t\000"
 4764      7469645F 
 4764      7400
 4765              	.LASF84:
 4766 0320 4576656E 		.ascii	"EventSource\000"
 4766      74536F75 
 4766      72636500 
 4767              	.LASF112:
 4768 032c 73655F74 		.ascii	"se_time\000"
 4768      696D6500 
 4769              	.LASF86:
 4770 0334 65766861 		.ascii	"evhandler_t\000"
 4770      6E646C65 
 4770      725F7400 
 4771              	.LASF30:
 4772 0340 636E745F 		.ascii	"cnt_t\000"
 4772      7400
 4773              	.LASF39:
 4774 0346 705F7374 		.ascii	"p_stklimit\000"
 4774      6B6C696D 
 4774      697400
 4775              	.LASF0:
 4776 0351 756E7369 		.ascii	"unsigned int\000"
 4776      676E6564 
 4776      20696E74 
 4776      00
 4777              	.LASF59:
 4778 035e 76745F6E 		.ascii	"vt_next\000"
 4778      65787400 
 4779              	.LASF10:
 4780 0366 6C6F6E67 		.ascii	"long unsigned int\000"
 4780      20756E73 
 4780      69676E65 
 4780      6420696E 
 4780      7400
 4781              	.LASF143:
 4782 0378 63684576 		.ascii	"chEvtGetAndClearEvents\000"
 4782      74476574 
 4782      416E6443 
 4782      6C656172 
 4782      4576656E 
 4783              	.LASF111:
 4784 038f 63685F64 		.ascii	"ch_debug\000"
 4784      65627567 
 4784      00
 4785              	.LASF57:
 4786 0398 76746675 		.ascii	"vtfunc_t\000"
 4786      6E635F74 
ARM GAS  /tmp/ccy0l3Hv.s 			page 88


 4786      00
 4787              	.LASF92:
 4788 03a1 63685F69 		.ascii	"ch_identifier\000"
 4788      64656E74 
 4788      69666965 
 4788      7200
 4789              	.LASF58:
 4790 03af 56697274 		.ascii	"VirtualTimer\000"
 4790      75616C54 
 4790      696D6572 
 4790      00
 4791              	.LASF56:
 4792 03bc 636F6E74 		.ascii	"context\000"
 4792      65787400 
 4793              	.LASF6:
 4794 03c4 73686F72 		.ascii	"short unsigned int\000"
 4794      7420756E 
 4794      7369676E 
 4794      65642069 
 4794      6E7400
 4795              	.LASF145:
 4796 03d7 63684576 		.ascii	"chEvtRegisterMask\000"
 4796      74526567 
 4796      69737465 
 4796      724D6173 
 4796      6B00
 4797              	.LASF25:
 4798 03e9 6D73675F 		.ascii	"msg_t\000"
 4798      7400
 4799              	.LASF69:
 4800 03ef 725F6E65 		.ascii	"r_newer\000"
 4800      77657200 
 4801              	.LASF80:
 4802 03f7 656C5F6E 		.ascii	"el_next\000"
 4802      65787400 
 4803              	.LASF144:
 4804 03ff 63684576 		.ascii	"chEvtUnregister\000"
 4804      74556E72 
 4804      65676973 
 4804      74657200 
 4805              	.LASF156:
 4806 040f 2F686F6D 		.ascii	"/home/renan/BLDC/bldc-bootloader\000"
 4806      652F7265 
 4806      6E616E2F 
 4806      424C4443 
 4806      2F626C64 
 4807              	.LASF20:
 4808 0430 746D6F64 		.ascii	"tmode_t\000"
 4808      655F7400 
 4809              	.LASF122:
 4810 0438 6462675F 		.ascii	"dbg_isr_cnt\000"
 4810      6973725F 
 4810      636E7400 
 4811              	.LASF53:
 4812 0444 54687265 		.ascii	"ThreadsList\000"
 4812      6164734C 
 4812      69737400 
ARM GAS  /tmp/ccy0l3Hv.s 			page 89


 4813              	.LASF27:
 4814 0450 6576656E 		.ascii	"eventmask_t\000"
 4814      746D6173 
 4814      6B5F7400 
 4815              	.LASF75:
 4816 045c 4D757465 		.ascii	"Mutex\000"
 4816      7800
 4817              	.LASF146:
 4818 0462 6462675F 		.ascii	"dbg_check_lock\000"
 4818      63686563 
 4818      6B5F6C6F 
 4818      636B00
 4819              	.LASF157:
 4820 0471 73746B61 		.ascii	"stkalign_t\000"
 4820      6C69676E 
 4820      5F7400
 4821              	.LASF93:
 4822 047c 63685F7A 		.ascii	"ch_zero\000"
 4822      65726F00 
 4823              	.LASF107:
 4824 0484 63665F6F 		.ascii	"cf_off_refs\000"
 4824      66665F72 
 4824      65667300 
 4825              	.LASF61:
 4826 0490 76745F74 		.ascii	"vt_time\000"
 4826      696D6500 
 4827              	.LASF118:
 4828 0498 74625F70 		.ascii	"tb_ptr\000"
 4828      747200
 4829              	.LASF147:
 4830 049f 63685363 		.ascii	"chSchGoSleepTimeoutS\000"
 4830      68476F53 
 4830      6C656570 
 4830      54696D65 
 4830      6F757453 
 4831              	.LASF62:
 4832 04b4 76745F66 		.ascii	"vt_func\000"
 4832      756E6300 
 4833              	.LASF137:
 4834 04bc 63684576 		.ascii	"chEvtDispatch\000"
 4834      74446973 
 4834      70617463 
 4834      6800
 4835              	.LASF97:
 4836 04ca 63685F74 		.ascii	"ch_timesize\000"
 4836      696D6573 
 4836      697A6500 
 4837              	.LASF116:
 4838 04d6 63685F73 		.ascii	"ch_swc_event_t\000"
 4838      77635F65 
 4838      76656E74 
 4838      5F7400
 4839              	.LASF103:
 4840 04e5 63665F6F 		.ascii	"cf_off_name\000"
 4840      66665F6E 
 4840      616D6500 
 4841              	.LASF37:
ARM GAS  /tmp/ccy0l3Hv.s 			page 90


 4842 04f1 705F6F6C 		.ascii	"p_older\000"
 4842      64657200 
 4843              	.LASF68:
 4844 04f9 725F6374 		.ascii	"r_ctx\000"
 4844      7800
 4845              	.LASF52:
 4846 04ff 54687265 		.ascii	"ThreadsQueue\000"
 4846      61647351 
 4846      75657565 
 4846      00
 4847              	.LASF94:
 4848 050c 63685F73 		.ascii	"ch_size\000"
 4848      697A6500 
 4849              	.LASF127:
 4850 0514 74696D65 		.ascii	"time\000"
 4850      00
 4851              	.LASF131:
 4852 0519 63684576 		.ascii	"chEvtWaitAll\000"
 4852      74576169 
 4852      74416C6C 
 4852      00
 4853              	.LASF71:
 4854 0526 725F6375 		.ascii	"r_current\000"
 4854      7272656E 
 4854      7400
 4855              	.LASF70:
 4856 0530 725F6F6C 		.ascii	"r_older\000"
 4856      64657200 
 4857              	.LASF82:
 4858 0538 656C5F6D 		.ascii	"el_mask\000"
 4858      61736B00 
 4859              	.LASF12:
 4860 0540 5F5F7569 		.ascii	"__uint64_t\000"
 4860      6E743634 
 4860      5F7400
 4861              	.LASF134:
 4862 054b 68616E64 		.ascii	"handlers\000"
 4862      6C657273 
 4862      00
 4863              	.LASF121:
 4864 0554 6462675F 		.ascii	"dbg_trace_buffer\000"
 4864      74726163 
 4864      655F6275 
 4864      66666572 
 4864      00
 4865              	.LASF22:
 4866 0565 74726566 		.ascii	"trefs_t\000"
 4866      735F7400 
 4867              	.LASF119:
 4868 056d 74625F62 		.ascii	"tb_buffer\000"
 4868      75666665 
 4868      7200
 4869              	.LASF96:
 4870 0577 63685F70 		.ascii	"ch_ptrsize\000"
 4870      74727369 
 4870      7A6500
 4871              	.LASF33:
ARM GAS  /tmp/ccy0l3Hv.s 			page 91


 4872 0582 705F7072 		.ascii	"p_prev\000"
 4872      657600
 4873              	.LASF24:
 4874 0589 74707269 		.ascii	"tprio_t\000"
 4874      6F5F7400 
 4875              	.LASF142:
 4876 0591 63684576 		.ascii	"chEvtAddEvents\000"
 4876      74416464 
 4876      4576656E 
 4876      747300
 4877              	.LASF19:
 4878 05a0 5F426F6F 		.ascii	"_Bool\000"
 4878      6C00
 4879              	.LASF16:
 4880 05a6 696E7433 		.ascii	"int32_t\000"
 4880      325F7400 
 4881              	.LASF2:
 4882 05ae 756E7369 		.ascii	"unsigned char\000"
 4882      676E6564 
 4882      20636861 
 4882      7200
 4883              	.LASF133:
 4884 05bc 63684576 		.ascii	"chEvtWaitOne\000"
 4884      74576169 
 4884      744F6E65 
 4884      00
 4885              	.LASF124:
 4886 05c9 6462675F 		.ascii	"dbg_panic_msg\000"
 4886      70616E69 
 4886      635F6D73 
 4886      6700
 4887              	.LASF81:
 4888 05d7 656C5F6C 		.ascii	"el_listener\000"
 4888      69737465 
 4888      6E657200 
 4889              	.LASF83:
 4890 05e3 656C5F66 		.ascii	"el_flags\000"
 4890      6C616773 
 4890      00
 4891              	.LASF49:
 4892 05ec 705F6D74 		.ascii	"p_mtxlist\000"
 4892      786C6973 
 4892      7400
 4893              	.LASF3:
 4894 05f6 73686F72 		.ascii	"short int\000"
 4894      7420696E 
 4894      7400
 4895              	.LASF40:
 4896 0600 705F7374 		.ascii	"p_state\000"
 4896      61746500 
 4897              	.LASF43:
 4898 0608 705F7072 		.ascii	"p_preempt\000"
 4898      65656D70 
 4898      7400
 4899              	.LASF109:
 4900 0612 63665F6F 		.ascii	"cf_off_time\000"
 4900      66665F74 
ARM GAS  /tmp/ccy0l3Hv.s 			page 92


 4900      696D6500 
 4901              	.LASF67:
 4902 061e 725F7072 		.ascii	"r_prio\000"
 4902      696F00
 4903              	.LASF135:
 4904 0625 63684576 		.ascii	"chEvtGetAndClearFlagsI\000"
 4904      74476574 
 4904      416E6443 
 4904      6C656172 
 4904      466C6167 
 4905              	.LASF90:
 4906 063c 65776D61 		.ascii	"ewmask\000"
 4906      736B00
 4907              	.LASF32:
 4908 0643 705F6E65 		.ascii	"p_next\000"
 4908      787400
 4909              	.LASF108:
 4910 064a 63665F6F 		.ascii	"cf_off_preempt\000"
 4910      66665F70 
 4910      7265656D 
 4910      707400
 4911              	.LASF41:
 4912 0659 705F666C 		.ascii	"p_flags\000"
 4912      61677300 
 4913              	.LASF31:
 4914 0661 54687265 		.ascii	"Thread\000"
 4914      616400
 4915              	.LASF101:
 4916 0668 63665F6F 		.ascii	"cf_off_newer\000"
 4916      66665F6E 
 4916      65776572 
 4916      00
 4917              	.LASF149:
 4918 0675 63685363 		.ascii	"chSchGoSleepS\000"
 4918      68476F53 
 4918      6C656570 
 4918      5300
 4919              	.LASF48:
 4920 0683 705F6570 		.ascii	"p_epending\000"
 4920      656E6469 
 4920      6E6700
 4921              	.LASF17:
 4922 068e 75696E74 		.ascii	"uint32_t\000"
 4922      33325F74 
 4922      00
 4923              	.LASF99:
 4924 0697 63665F6F 		.ascii	"cf_off_prio\000"
 4924      66665F70 
 4924      72696F00 
 4925              	.LASF66:
 4926 06a3 725F7175 		.ascii	"r_queue\000"
 4926      65756500 
 4927              	.LASF91:
 4928 06ab 63686172 		.ascii	"char\000"
 4928      00
 4929              	.LASF5:
 4930 06b0 5F5F7569 		.ascii	"__uint16_t\000"
ARM GAS  /tmp/ccy0l3Hv.s 			page 93


 4930      6E743136 
 4930      5F7400
 4931              	.LASF153:
 4932 06bb 63685363 		.ascii	"chSchReadyI\000"
 4932      68526561 
 4932      64794900 
 4933              	.LASF78:
 4934 06c7 6D5F6E65 		.ascii	"m_next\000"
 4934      787400
 4935              	.LASF29:
 4936 06ce 73797374 		.ascii	"systime_t\000"
 4936      696D655F 
 4936      7400
 4937              	.LASF50:
 4938 06d8 705F7265 		.ascii	"p_realprio\000"
 4938      616C7072 
 4938      696F00
 4939              	.LASF7:
 4940 06e3 5F5F696E 		.ascii	"__int32_t\000"
 4940      7433325F 
 4940      7400
 4941              	.LASF123:
 4942 06ed 6462675F 		.ascii	"dbg_lock_cnt\000"
 4942      6C6F636B 
 4942      5F636E74 
 4942      00
 4943              	.LASF44:
 4944 06fa 705F7469 		.ascii	"p_time\000"
 4944      6D6500
 4945              	.LASF55:
 4946 0701 696E7463 		.ascii	"intctx\000"
 4946      747800
 4947              	.LASF46:
 4948 0708 705F6D73 		.ascii	"p_msgqueue\000"
 4948      67717565 
 4948      756500
 4949              	.LASF63:
 4950 0713 76745F70 		.ascii	"vt_par\000"
 4950      617200
 4951              	.LASF28:
 4952 071a 666C6167 		.ascii	"flagsmask_t\000"
 4952      736D6173 
 4952      6B5F7400 
 4953              	.LASF100:
 4954 0726 63665F6F 		.ascii	"cf_off_ctx\000"
 4954      66665F63 
 4954      747800
 4955              	.LASF42:
 4956 0731 705F7265 		.ascii	"p_refs\000"
 4956      667300
 4957              	.LASF72:
 4958 0738 52656164 		.ascii	"ReadyList\000"
 4958      794C6973 
 4958      7400
 4959              	.LASF115:
 4960 0742 73655F73 		.ascii	"se_state\000"
 4960      74617465 
ARM GAS  /tmp/ccy0l3Hv.s 			page 94


 4960      00
 4961              	.LASF74:
 4962 074b 726C6973 		.ascii	"rlist\000"
 4962      7400
 4963              	.LASF14:
 4964 0751 75696E74 		.ascii	"uint8_t\000"
 4964      385F7400 
 4965              	.LASF136:
 4966 0759 666C6167 		.ascii	"flags\000"
 4966      7300
 4967              	.LASF79:
 4968 075f 4576656E 		.ascii	"EventListener\000"
 4968      744C6973 
 4968      74656E65 
 4968      7200
 4969              	.LASF130:
 4970 076d 63684576 		.ascii	"chEvtWaitOneTimeout\000"
 4970      74576169 
 4970      744F6E65 
 4970      54696D65 
 4970      6F757400 
 4971              	.LASF89:
 4972 0781 77746F62 		.ascii	"wtobjp\000"
 4972      6A7000
 4973              	.LASF38:
 4974 0788 705F6E61 		.ascii	"p_name\000"
 4974      6D6500
 4975              	.LASF64:
 4976 078f 76745F73 		.ascii	"vt_systime\000"
 4976      79737469 
 4976      6D6500
 4977              	.LASF85:
 4978 079a 65735F6E 		.ascii	"es_next\000"
 4978      65787400 
 4979              	.LASF140:
 4980 07a2 63684576 		.ascii	"chEvtGetAndClearFlags\000"
 4980      74476574 
 4980      416E6443 
 4980      6C656172 
 4980      466C6167 
 4981              	.LASF148:
 4982 07b8 6462675F 		.ascii	"dbg_check_unlock\000"
 4982      63686563 
 4982      6B5F756E 
 4982      6C6F636B 
 4982      00
 4983              	.LASF95:
 4984 07c9 63685F76 		.ascii	"ch_version\000"
 4984      65727369 
 4984      6F6E00
 4985              	.LASF65:
 4986 07d4 56544C69 		.ascii	"VTList\000"
 4986      737400
 4987              	.LASF152:
 4988 07db 63684462 		.ascii	"chDbgCheckClassI\000"
 4988      67436865 
 4988      636B436C 
ARM GAS  /tmp/ccy0l3Hv.s 			page 95


 4988      61737349 
 4988      00
 4989              	.LASF77:
 4990 07ec 6D5F6F77 		.ascii	"m_owner\000"
 4990      6E657200 
 4991              	.LASF114:
 4992 07f4 73655F77 		.ascii	"se_wtobjp\000"
 4992      746F626A 
 4992      7000
 4993              	.LASF35:
 4994 07fe 705F6374 		.ascii	"p_ctx\000"
 4994      7800
 4995              	.LASF45:
 4996 0804 705F7761 		.ascii	"p_waiting\000"
 4996      6974696E 
 4996      6700
 4997              	.LASF158:
 4998 080e 63684576 		.ascii	"chEvtSignalI\000"
 4998      74536967 
 4998      6E616C49 
 4998      00
 4999              		.ident	"GCC: (GNU Tools for Arm Embedded Processors 7-2018-q3-update) 7.3.1 20180622 (release) [AR
ARM GAS  /tmp/ccy0l3Hv.s 			page 96


DEFINED SYMBOLS
                            *ABS*:0000000000000000 chevents.c
     /tmp/ccy0l3Hv.s:18     .text.chEvtRegisterMask:0000000000000000 $t
     /tmp/ccy0l3Hv.s:26     .text.chEvtRegisterMask:0000000000000000 chEvtRegisterMask
     /tmp/ccy0l3Hv.s:97     .text.chEvtRegisterMask:0000000000000034 $d
     /tmp/ccy0l3Hv.s:103    .text.chEvtUnregister:0000000000000000 $t
     /tmp/ccy0l3Hv.s:111    .text.chEvtUnregister:0000000000000000 chEvtUnregister
     /tmp/ccy0l3Hv.s:195    .text.chEvtUnregister:000000000000003c $d
     /tmp/ccy0l3Hv.s:200    .text.chEvtGetAndClearEvents:0000000000000000 $t
     /tmp/ccy0l3Hv.s:208    .text.chEvtGetAndClearEvents:0000000000000000 chEvtGetAndClearEvents
     /tmp/ccy0l3Hv.s:256    .text.chEvtGetAndClearEvents:0000000000000024 $d
     /tmp/ccy0l3Hv.s:261    .text.chEvtAddEvents:0000000000000000 $t
     /tmp/ccy0l3Hv.s:269    .text.chEvtAddEvents:0000000000000000 chEvtAddEvents
     /tmp/ccy0l3Hv.s:315    .text.chEvtAddEvents:0000000000000020 $d
     /tmp/ccy0l3Hv.s:320    .text.chEvtGetAndClearFlags:0000000000000000 $t
     /tmp/ccy0l3Hv.s:328    .text.chEvtGetAndClearFlags:0000000000000000 chEvtGetAndClearFlags
     /tmp/ccy0l3Hv.s:375    .text.chEvtSignalI:0000000000000000 $t
     /tmp/ccy0l3Hv.s:383    .text.chEvtSignalI:0000000000000000 chEvtSignalI
     /tmp/ccy0l3Hv.s:473    .text.chEvtSignalI:000000000000004c $d
     /tmp/ccy0l3Hv.s:478    .text.chEvtBroadcastFlagsI:0000000000000000 $t
     /tmp/ccy0l3Hv.s:486    .text.chEvtBroadcastFlagsI:0000000000000000 chEvtBroadcastFlagsI
     /tmp/ccy0l3Hv.s:545    .text.chEvtBroadcastFlagsI:0000000000000030 $d
     /tmp/ccy0l3Hv.s:550    .text.chEvtSignal:0000000000000000 $t
     /tmp/ccy0l3Hv.s:558    .text.chEvtSignal:0000000000000000 chEvtSignal
     /tmp/ccy0l3Hv.s:617    .text.chEvtSignal:000000000000002c $d
     /tmp/ccy0l3Hv.s:622    .text.chEvtBroadcastFlags:0000000000000000 $t
     /tmp/ccy0l3Hv.s:630    .text.chEvtBroadcastFlags:0000000000000000 chEvtBroadcastFlags
     /tmp/ccy0l3Hv.s:678    .text.chEvtGetAndClearFlagsI:0000000000000000 $t
     /tmp/ccy0l3Hv.s:686    .text.chEvtGetAndClearFlagsI:0000000000000000 chEvtGetAndClearFlagsI
     /tmp/ccy0l3Hv.s:709    .text.chEvtDispatch:0000000000000000 $t
     /tmp/ccy0l3Hv.s:717    .text.chEvtDispatch:0000000000000000 chEvtDispatch
     /tmp/ccy0l3Hv.s:800    .text.chEvtDispatch:000000000000004c $d
     /tmp/ccy0l3Hv.s:806    .text.chEvtWaitOne:0000000000000000 $t
     /tmp/ccy0l3Hv.s:814    .text.chEvtWaitOne:0000000000000000 chEvtWaitOne
     /tmp/ccy0l3Hv.s:886    .text.chEvtWaitOne:0000000000000038 $d
     /tmp/ccy0l3Hv.s:891    .text.chEvtWaitAny:0000000000000000 $t
     /tmp/ccy0l3Hv.s:899    .text.chEvtWaitAny:0000000000000000 chEvtWaitAny
     /tmp/ccy0l3Hv.s:965    .text.chEvtWaitAny:0000000000000034 $d
     /tmp/ccy0l3Hv.s:970    .text.chEvtWaitAll:0000000000000000 $t
     /tmp/ccy0l3Hv.s:978    .text.chEvtWaitAll:0000000000000000 chEvtWaitAll
     /tmp/ccy0l3Hv.s:1038   .text.chEvtWaitAll:0000000000000030 $d
     /tmp/ccy0l3Hv.s:1043   .text.chEvtWaitOneTimeout:0000000000000000 $t
     /tmp/ccy0l3Hv.s:1051   .text.chEvtWaitOneTimeout:0000000000000000 chEvtWaitOneTimeout
     /tmp/ccy0l3Hv.s:1130   .text.chEvtWaitOneTimeout:0000000000000044 $d
     /tmp/ccy0l3Hv.s:1135   .text.chEvtWaitAnyTimeout:0000000000000000 $t
     /tmp/ccy0l3Hv.s:1143   .text.chEvtWaitAnyTimeout:0000000000000000 chEvtWaitAnyTimeout
     /tmp/ccy0l3Hv.s:1218   .text.chEvtWaitAnyTimeout:0000000000000040 $d
     /tmp/ccy0l3Hv.s:1223   .text.chEvtWaitAllTimeout:0000000000000000 $t
     /tmp/ccy0l3Hv.s:1231   .text.chEvtWaitAllTimeout:0000000000000000 chEvtWaitAllTimeout
     /tmp/ccy0l3Hv.s:1314   .text.chEvtWaitAllTimeout:0000000000000044 $d
     /tmp/ccy0l3Hv.s:1319   .rodata.chEvtBroadcastFlagsI.str1.4:0000000000000000 $d
     /tmp/ccy0l3Hv.s:1323   .rodata.chEvtDispatch.str1.4:0000000000000000 $d
     /tmp/ccy0l3Hv.s:1330   .rodata.chEvtRegisterMask.str1.4:0000000000000000 $d
     /tmp/ccy0l3Hv.s:1334   .rodata.chEvtSignal.str1.4:0000000000000000 $d
     /tmp/ccy0l3Hv.s:1338   .rodata.chEvtSignalI.str1.4:0000000000000000 $d
     /tmp/ccy0l3Hv.s:1342   .rodata.chEvtUnregister.str1.4:0000000000000000 $d

ARM GAS  /tmp/ccy0l3Hv.s 			page 97


UNDEFINED SYMBOLS
dbg_check_lock
dbg_check_unlock
chDbgPanic
rlist
chDbgCheckClassI
chSchReadyI
chSchRescheduleS
chSchGoSleepS
chSchGoSleepTimeoutS
