ARM GAS  /tmp/ccy0l3Hv.s 			page 1


   1              		.cpu cortex-m4
   2              		.eabi_attribute 27, 1
   3              		.eabi_attribute 28, 1
   4              		.eabi_attribute 20, 1
   5              		.eabi_attribute 21, 1
   6              		.eabi_attribute 23, 3
   7              		.eabi_attribute 24, 1
   8              		.eabi_attribute 25, 1
   9              		.eabi_attribute 26, 1
  10              		.eabi_attribute 30, 2
  11              		.eabi_attribute 34, 1
  12              		.eabi_attribute 18, 4
  13              		.file	"chevents.c"
  14              		.text
  15              	.Ltext0:
  16              		.cfi_sections	.debug_frame
  17              		.section	.text.chEvtRegisterMask,"ax",%progbits
  18              		.align	1
  19              		.p2align 4,,15
  20              		.global	chEvtRegisterMask
  21              		.syntax unified
  22              		.thumb
  23              		.thumb_func
  24              		.fpu fpv4-sp-d16
  25              		.type	chEvtRegisterMask, %function
  26              	chEvtRegisterMask:
  27              	.LFB7:
  28              		.file 1 "ChibiOS_2.6.6/os/kernel/src/chevents.c"
  29              		.loc 1 85 0
  30              		.cfi_startproc
  31              		@ args = 0, pretend = 0, frame = 0
  32              		@ frame_needed = 0, uses_anonymous_args = 0
  33              	.LVL0:
  34 0000 70B5     		push	{r4, r5, r6, lr}
  35              		.cfi_def_cfa_offset 16
  36              		.cfi_offset 4, -16
  37              		.cfi_offset 5, -12
  38              		.cfi_offset 6, -8
  39              		.cfi_offset 14, -4
  40              		.loc 1 85 0
  41 0002 0C46     		mov	r4, r1
  42 0004 1646     		mov	r6, r2
  43              		.loc 1 87 0
  44 0006 0546     		mov	r5, r0
  45 0008 80B1     		cbz	r0, .L2
  46              		.loc 1 87 0 is_stmt 0 discriminator 2
  47 000a 79B1     		cbz	r1, .L2
  48              	.LVL1:
  49              	.L3:
  50              		.loc 1 89 0 is_stmt 1
  51              		.syntax unified
  52              	@ 89 "ChibiOS_2.6.6/os/kernel/src/chevents.c" 1
  53 000c 72B6     		cpsid   i
  54              	@ 0 "" 2
  55              		.thumb
  56              		.syntax unified
  57 000e FFF7FEFF 		bl	dbg_check_lock
ARM GAS  /tmp/ccy0l3Hv.s 			page 2


  58              	.LVL2:
  59              		.loc 1 92 0
  60 0012 084A     		ldr	r2, .L9
  61              		.loc 1 90 0
  62 0014 2B68     		ldr	r3, [r5]
  63              		.loc 1 92 0
  64 0016 9269     		ldr	r2, [r2, #24]
  65              		.loc 1 90 0
  66 0018 2360     		str	r3, [r4]
  67              		.loc 1 94 0
  68 001a 0023     		movs	r3, #0
  69              		.loc 1 91 0
  70 001c 2C60     		str	r4, [r5]
  71              		.loc 1 93 0
  72 001e C4E90126 		strd	r2, r6, [r4, #4]
  73              		.loc 1 94 0
  74 0022 E360     		str	r3, [r4, #12]
  75              		.loc 1 95 0
  76 0024 FFF7FEFF 		bl	dbg_check_unlock
  77              	.LVL3:
  78              		.syntax unified
  79              	@ 95 "ChibiOS_2.6.6/os/kernel/src/chevents.c" 1
  80 0028 62B6     		cpsie   i
  81              	@ 0 "" 2
  82              		.loc 1 96 0
  83              		.thumb
  84              		.syntax unified
  85 002a 70BD     		pop	{r4, r5, r6, pc}
  86              	.LVL4:
  87              	.L2:
  88              		.loc 1 87 0 discriminator 3
  89 002c 0248     		ldr	r0, .L9+4
  90              	.LVL5:
  91 002e FFF7FEFF 		bl	chDbgPanic
  92              	.LVL6:
  93 0032 EBE7     		b	.L3
  94              	.L10:
  95              		.align	2
  96              	.L9:
  97 0034 00000000 		.word	rlist
  98 0038 00000000 		.word	.LC0
  99              		.cfi_endproc
 100              	.LFE7:
 101              		.size	chEvtRegisterMask, .-chEvtRegisterMask
 102              		.section	.text.chEvtUnregister,"ax",%progbits
 103              		.align	1
 104              		.p2align 4,,15
 105              		.global	chEvtUnregister
 106              		.syntax unified
 107              		.thumb
 108              		.thumb_func
 109              		.fpu fpv4-sp-d16
 110              		.type	chEvtUnregister, %function
 111              	chEvtUnregister:
 112              	.LFB8:
 113              		.loc 1 111 0
 114              		.cfi_startproc
ARM GAS  /tmp/ccy0l3Hv.s 			page 3


 115              		@ args = 0, pretend = 0, frame = 0
 116              		@ frame_needed = 0, uses_anonymous_args = 0
 117              	.LVL7:
 118 0000 38B5     		push	{r3, r4, r5, lr}
 119              		.cfi_def_cfa_offset 16
 120              		.cfi_offset 3, -16
 121              		.cfi_offset 4, -12
 122              		.cfi_offset 5, -8
 123              		.cfi_offset 14, -4
 124              		.loc 1 111 0
 125 0002 0D46     		mov	r5, r1
 126              		.loc 1 114 0
 127 0004 0446     		mov	r4, r0
 128 0006 A8B1     		cbz	r0, .L12
 129              		.loc 1 114 0 is_stmt 0 discriminator 2
 130 0008 A1B1     		cbz	r1, .L12
 131              	.LVL8:
 132              	.L13:
 133              		.loc 1 117 0 is_stmt 1
 134              		.syntax unified
 135              	@ 117 "ChibiOS_2.6.6/os/kernel/src/chevents.c" 1
 136 000a 72B6     		cpsid   i
 137              	@ 0 "" 2
 138              		.thumb
 139              		.syntax unified
 140 000c FFF7FEFF 		bl	dbg_check_lock
 141              	.LVL9:
 142              		.loc 1 118 0
 143 0010 2246     		mov	r2, r4
 144 0012 02E0     		b	.L14
 145              	.LVL10:
 146              	.L16:
 147              		.loc 1 119 0
 148 0014 AB42     		cmp	r3, r5
 149 0016 07D0     		beq	.L22
 150 0018 1A46     		mov	r2, r3
 151              	.LVL11:
 152              	.L14:
 153              		.loc 1 118 0
 154 001a 1368     		ldr	r3, [r2]
 155 001c A342     		cmp	r3, r4
 156 001e F9D1     		bne	.L16
 157              		.loc 1 125 0
 158 0020 FFF7FEFF 		bl	dbg_check_unlock
 159              	.LVL12:
 160              		.syntax unified
 161              	@ 125 "ChibiOS_2.6.6/os/kernel/src/chevents.c" 1
 162 0024 62B6     		cpsie   i
 163              	@ 0 "" 2
 164              		.loc 1 126 0
 165              		.thumb
 166              		.syntax unified
 167 0026 38BD     		pop	{r3, r4, r5, pc}
 168              	.LVL13:
 169              	.L22:
 170              		.loc 1 120 0
 171 0028 2B68     		ldr	r3, [r5]
ARM GAS  /tmp/ccy0l3Hv.s 			page 4


 172 002a 1360     		str	r3, [r2]
 173              		.loc 1 125 0
 174 002c FFF7FEFF 		bl	dbg_check_unlock
 175              	.LVL14:
 176              		.syntax unified
 177              	@ 125 "ChibiOS_2.6.6/os/kernel/src/chevents.c" 1
 178 0030 62B6     		cpsie   i
 179              	@ 0 "" 2
 180              		.loc 1 126 0
 181              		.thumb
 182              		.syntax unified
 183 0032 38BD     		pop	{r3, r4, r5, pc}
 184              	.LVL15:
 185              	.L12:
 186              		.loc 1 114 0 discriminator 3
 187 0034 0148     		ldr	r0, .L23
 188              	.LVL16:
 189 0036 FFF7FEFF 		bl	chDbgPanic
 190              	.LVL17:
 191 003a E6E7     		b	.L13
 192              	.L24:
 193              		.align	2
 194              	.L23:
 195 003c 00000000 		.word	.LC1
 196              		.cfi_endproc
 197              	.LFE8:
 198              		.size	chEvtUnregister, .-chEvtUnregister
 199              		.section	.text.chEvtGetAndClearEvents,"ax",%progbits
 200              		.align	1
 201              		.p2align 4,,15
 202              		.global	chEvtGetAndClearEvents
 203              		.syntax unified
 204              		.thumb
 205              		.thumb_func
 206              		.fpu fpv4-sp-d16
 207              		.type	chEvtGetAndClearEvents, %function
 208              	chEvtGetAndClearEvents:
 209              	.LFB9:
 210              		.loc 1 136 0
 211              		.cfi_startproc
 212              		@ args = 0, pretend = 0, frame = 0
 213              		@ frame_needed = 0, uses_anonymous_args = 0
 214              	.LVL18:
 215 0000 10B5     		push	{r4, lr}
 216              		.cfi_def_cfa_offset 8
 217              		.cfi_offset 4, -8
 218              		.cfi_offset 14, -4
 219              		.loc 1 136 0
 220 0002 0446     		mov	r4, r0
 221              		.loc 1 139 0
 222              		.syntax unified
 223              	@ 139 "ChibiOS_2.6.6/os/kernel/src/chevents.c" 1
 224 0004 72B6     		cpsid   i
 225              	@ 0 "" 2
 226              		.thumb
 227              		.syntax unified
 228 0006 FFF7FEFF 		bl	dbg_check_lock
ARM GAS  /tmp/ccy0l3Hv.s 			page 5


 229              	.LVL19:
 230              		.loc 1 141 0
 231 000a 064B     		ldr	r3, .L27
 232 000c 9A69     		ldr	r2, [r3, #24]
 233 000e D36B     		ldr	r3, [r2, #60]
 234              		.loc 1 142 0
 235 0010 23EA0401 		bic	r1, r3, r4
 236 0014 D163     		str	r1, [r2, #60]
 237              		.loc 1 141 0
 238 0016 1C40     		ands	r4, r4, r3
 239              	.LVL20:
 240              		.loc 1 144 0
 241 0018 FFF7FEFF 		bl	dbg_check_unlock
 242              	.LVL21:
 243              		.syntax unified
 244              	@ 144 "ChibiOS_2.6.6/os/kernel/src/chevents.c" 1
 245 001c 62B6     		cpsie   i
 246              	@ 0 "" 2
 247              		.loc 1 146 0
 248              		.thumb
 249              		.syntax unified
 250 001e 2046     		mov	r0, r4
 251 0020 10BD     		pop	{r4, pc}
 252              	.LVL22:
 253              	.L28:
 254 0022 00BF     		.align	2
 255              	.L27:
 256 0024 00000000 		.word	rlist
 257              		.cfi_endproc
 258              	.LFE9:
 259              		.size	chEvtGetAndClearEvents, .-chEvtGetAndClearEvents
 260              		.section	.text.chEvtAddEvents,"ax",%progbits
 261              		.align	1
 262              		.p2align 4,,15
 263              		.global	chEvtAddEvents
 264              		.syntax unified
 265              		.thumb
 266              		.thumb_func
 267              		.fpu fpv4-sp-d16
 268              		.type	chEvtAddEvents, %function
 269              	chEvtAddEvents:
 270              	.LFB10:
 271              		.loc 1 157 0
 272              		.cfi_startproc
 273              		@ args = 0, pretend = 0, frame = 0
 274              		@ frame_needed = 0, uses_anonymous_args = 0
 275              	.LVL23:
 276 0000 10B5     		push	{r4, lr}
 277              		.cfi_def_cfa_offset 8
 278              		.cfi_offset 4, -8
 279              		.cfi_offset 14, -4
 280              		.loc 1 157 0
 281 0002 0446     		mov	r4, r0
 282              		.loc 1 159 0
 283              		.syntax unified
 284              	@ 159 "ChibiOS_2.6.6/os/kernel/src/chevents.c" 1
 285 0004 72B6     		cpsid   i
ARM GAS  /tmp/ccy0l3Hv.s 			page 6


 286              	@ 0 "" 2
 287              		.thumb
 288              		.syntax unified
 289 0006 FFF7FEFF 		bl	dbg_check_lock
 290              	.LVL24:
 291              		.loc 1 161 0
 292 000a 054B     		ldr	r3, .L31
 293 000c 9B69     		ldr	r3, [r3, #24]
 294 000e D86B     		ldr	r0, [r3, #60]
 295 0010 0443     		orrs	r4, r4, r0
 296              	.LVL25:
 297 0012 DC63     		str	r4, [r3, #60]
 298              	.LVL26:
 299              		.loc 1 163 0
 300 0014 FFF7FEFF 		bl	dbg_check_unlock
 301              	.LVL27:
 302              		.syntax unified
 303              	@ 163 "ChibiOS_2.6.6/os/kernel/src/chevents.c" 1
 304 0018 62B6     		cpsie   i
 305              	@ 0 "" 2
 306              		.loc 1 165 0
 307              		.thumb
 308              		.syntax unified
 309 001a 2046     		mov	r0, r4
 310 001c 10BD     		pop	{r4, pc}
 311              	.LVL28:
 312              	.L32:
 313 001e 00BF     		.align	2
 314              	.L31:
 315 0020 00000000 		.word	rlist
 316              		.cfi_endproc
 317              	.LFE10:
 318              		.size	chEvtAddEvents, .-chEvtAddEvents
 319              		.section	.text.chEvtGetAndClearFlags,"ax",%progbits
 320              		.align	1
 321              		.p2align 4,,15
 322              		.global	chEvtGetAndClearFlags
 323              		.syntax unified
 324              		.thumb
 325              		.thumb_func
 326              		.fpu fpv4-sp-d16
 327              		.type	chEvtGetAndClearFlags, %function
 328              	chEvtGetAndClearFlags:
 329              	.LFB12:
 330              		.loc 1 209 0
 331              		.cfi_startproc
 332              		@ args = 0, pretend = 0, frame = 0
 333              		@ frame_needed = 0, uses_anonymous_args = 0
 334              	.LVL29:
 335 0000 38B5     		push	{r3, r4, r5, lr}
 336              		.cfi_def_cfa_offset 16
 337              		.cfi_offset 3, -16
 338              		.cfi_offset 4, -12
 339              		.cfi_offset 5, -8
 340              		.cfi_offset 14, -4
 341              		.loc 1 209 0
 342 0002 0446     		mov	r4, r0
ARM GAS  /tmp/ccy0l3Hv.s 			page 7


 343              		.loc 1 212 0
 344              		.syntax unified
 345              	@ 212 "ChibiOS_2.6.6/os/kernel/src/chevents.c" 1
 346 0004 72B6     		cpsid   i
 347              	@ 0 "" 2
 348              		.thumb
 349              		.syntax unified
 350 0006 FFF7FEFF 		bl	dbg_check_lock
 351              	.LVL30:
 352              		.loc 1 215 0
 353 000a 0023     		movs	r3, #0
 354              		.loc 1 214 0
 355 000c E568     		ldr	r5, [r4, #12]
 356              	.LVL31:
 357              		.loc 1 215 0
 358 000e E360     		str	r3, [r4, #12]
 359              		.loc 1 217 0
 360 0010 FFF7FEFF 		bl	dbg_check_unlock
 361              	.LVL32:
 362              		.syntax unified
 363              	@ 217 "ChibiOS_2.6.6/os/kernel/src/chevents.c" 1
 364 0014 62B6     		cpsie   i
 365              	@ 0 "" 2
 366              		.loc 1 219 0
 367              		.thumb
 368              		.syntax unified
 369 0016 2846     		mov	r0, r5
 370 0018 38BD     		pop	{r3, r4, r5, pc}
 371              		.cfi_endproc
 372              	.LFE12:
 373              		.size	chEvtGetAndClearFlags, .-chEvtGetAndClearFlags
 374 001a 00BF     		.section	.text.chEvtSignalI,"ax",%progbits
 375              		.align	1
 376              		.p2align 4,,15
 377              		.global	chEvtSignalI
 378              		.syntax unified
 379              		.thumb
 380              		.thumb_func
 381              		.fpu fpv4-sp-d16
 382              		.type	chEvtSignalI, %function
 383              	chEvtSignalI:
 384              	.LFB14:
 385              		.loc 1 251 0
 386              		.cfi_startproc
 387              		@ args = 0, pretend = 0, frame = 0
 388              		@ frame_needed = 0, uses_anonymous_args = 0
 389              	.LVL33:
 390 0000 38B5     		push	{r3, r4, r5, lr}
 391              		.cfi_def_cfa_offset 16
 392              		.cfi_offset 3, -16
 393              		.cfi_offset 4, -12
 394              		.cfi_offset 5, -8
 395              		.cfi_offset 14, -4
 396              		.loc 1 251 0
 397 0002 0446     		mov	r4, r0
 398 0004 0D46     		mov	r5, r1
 399              		.loc 1 253 0
ARM GAS  /tmp/ccy0l3Hv.s 			page 8


 400 0006 FFF7FEFF 		bl	chDbgCheckClassI
 401              	.LVL34:
 402              		.loc 1 254 0
 403 000a DCB1     		cbz	r4, .L42
 404              	.L36:
 405              		.loc 1 256 0
 406 000c E16B     		ldr	r1, [r4, #60]
 407              		.loc 1 258 0
 408 000e 94F82030 		ldrb	r3, [r4, #32]	@ zero_extendqisi2
 409              		.loc 1 256 0
 410 0012 2943     		orrs	r1, r1, r5
 411              		.loc 1 258 0
 412 0014 082B     		cmp	r3, #8
 413              		.loc 1 256 0
 414 0016 E163     		str	r1, [r4, #60]
 415              		.loc 1 258 0
 416 0018 0BD0     		beq	.L43
 417              		.loc 1 259 0
 418 001a 092B     		cmp	r3, #9
 419 001c 00D0     		beq	.L44
 420              	.L35:
 421              		.loc 1 263 0
 422 001e 38BD     		pop	{r3, r4, r5, pc}
 423              	.LVL35:
 424              	.L44:
 425              		.loc 1 261 0
 426 0020 A36A     		ldr	r3, [r4, #40]
 427              		.loc 1 260 0
 428 0022 8B43     		bics	r3, r3, r1
 429 0024 FBD1     		bne	.L35
 430              	.LVL36:
 431              	.LBB4:
 432              	.LBB5:
 433              		.loc 1 262 0
 434 0026 2046     		mov	r0, r4
 435 0028 FFF7FEFF 		bl	chSchReadyI
 436              	.LVL37:
 437 002c 0023     		movs	r3, #0
 438 002e 8362     		str	r3, [r0, #40]
 439              	.L45:
 440              	.LBE5:
 441              	.LBE4:
 442              		.loc 1 263 0
 443 0030 38BD     		pop	{r3, r4, r5, pc}
 444              	.LVL38:
 445              	.L43:
 446              		.loc 1 259 0 discriminator 1
 447 0032 A36A     		ldr	r3, [r4, #40]
 448              		.loc 1 258 0 discriminator 1
 449 0034 1942     		tst	r1, r3
 450 0036 F2D0     		beq	.L35
 451              	.LVL39:
 452              	.LBB7:
 453              	.LBB6:
 454              		.loc 1 262 0
 455 0038 2046     		mov	r0, r4
 456 003a FFF7FEFF 		bl	chSchReadyI
ARM GAS  /tmp/ccy0l3Hv.s 			page 9


 457              	.LVL40:
 458 003e 0023     		movs	r3, #0
 459 0040 8362     		str	r3, [r0, #40]
 460 0042 F5E7     		b	.L45
 461              	.LVL41:
 462              	.L42:
 463              	.LBE6:
 464              	.LBE7:
 465              		.loc 1 254 0 discriminator 1
 466 0044 0148     		ldr	r0, .L46
 467 0046 FFF7FEFF 		bl	chDbgPanic
 468              	.LVL42:
 469 004a DFE7     		b	.L36
 470              	.L47:
 471              		.align	2
 472              	.L46:
 473 004c 00000000 		.word	.LC2
 474              		.cfi_endproc
 475              	.LFE14:
 476              		.size	chEvtSignalI, .-chEvtSignalI
 477              		.section	.text.chEvtBroadcastFlagsI,"ax",%progbits
 478              		.align	1
 479              		.p2align 4,,15
 480              		.global	chEvtBroadcastFlagsI
 481              		.syntax unified
 482              		.thumb
 483              		.thumb_func
 484              		.fpu fpv4-sp-d16
 485              		.type	chEvtBroadcastFlagsI, %function
 486              	chEvtBroadcastFlagsI:
 487              	.LFB11:
 488              		.loc 1 184 0
 489              		.cfi_startproc
 490              		@ args = 0, pretend = 0, frame = 0
 491              		@ frame_needed = 0, uses_anonymous_args = 0
 492              	.LVL43:
 493 0000 70B5     		push	{r4, r5, r6, lr}
 494              		.cfi_def_cfa_offset 16
 495              		.cfi_offset 4, -16
 496              		.cfi_offset 5, -12
 497              		.cfi_offset 6, -8
 498              		.cfi_offset 14, -4
 499              		.loc 1 184 0
 500 0002 0546     		mov	r5, r0
 501 0004 0E46     		mov	r6, r1
 502              		.loc 1 187 0
 503 0006 FFF7FEFF 		bl	chDbgCheckClassI
 504              	.LVL44:
 505              		.loc 1 188 0
 506 000a 6DB1     		cbz	r5, .L54
 507              	.L49:
 508              		.loc 1 190 0
 509 000c 2C68     		ldr	r4, [r5]
 510              	.LVL45:
 511              		.loc 1 191 0
 512 000e A542     		cmp	r5, r4
 513 0010 09D0     		beq	.L48
ARM GAS  /tmp/ccy0l3Hv.s 			page 10


 514              	.L51:
 515              		.loc 1 193 0
 516 0012 D4E90213 		ldrd	r1, r3, [r4, #8]
 517              		.loc 1 192 0
 518 0016 3343     		orrs	r3, r3, r6
 519              		.loc 1 193 0
 520 0018 6068     		ldr	r0, [r4, #4]
 521              		.loc 1 192 0
 522 001a E360     		str	r3, [r4, #12]
 523              		.loc 1 193 0
 524 001c FFF7FEFF 		bl	chEvtSignalI
 525              	.LVL46:
 526              		.loc 1 194 0
 527 0020 2468     		ldr	r4, [r4]
 528              	.LVL47:
 529              		.loc 1 191 0
 530 0022 A542     		cmp	r5, r4
 531 0024 F5D1     		bne	.L51
 532              	.L48:
 533              		.loc 1 196 0
 534 0026 70BD     		pop	{r4, r5, r6, pc}
 535              	.LVL48:
 536              	.L54:
 537              		.loc 1 188 0 discriminator 1
 538 0028 0148     		ldr	r0, .L55
 539 002a FFF7FEFF 		bl	chDbgPanic
 540              	.LVL49:
 541 002e EDE7     		b	.L49
 542              	.L56:
 543              		.align	2
 544              	.L55:
 545 0030 00000000 		.word	.LC3
 546              		.cfi_endproc
 547              	.LFE11:
 548              		.size	chEvtBroadcastFlagsI, .-chEvtBroadcastFlagsI
 549              		.section	.text.chEvtSignal,"ax",%progbits
 550              		.align	1
 551              		.p2align 4,,15
 552              		.global	chEvtSignal
 553              		.syntax unified
 554              		.thumb
 555              		.thumb_func
 556              		.fpu fpv4-sp-d16
 557              		.type	chEvtSignal, %function
 558              	chEvtSignal:
 559              	.LFB13:
 560              		.loc 1 229 0
 561              		.cfi_startproc
 562              		@ args = 0, pretend = 0, frame = 0
 563              		@ frame_needed = 0, uses_anonymous_args = 0
 564              	.LVL50:
 565 0000 38B5     		push	{r3, r4, r5, lr}
 566              		.cfi_def_cfa_offset 16
 567              		.cfi_offset 3, -16
 568              		.cfi_offset 4, -12
 569              		.cfi_offset 5, -8
 570              		.cfi_offset 14, -4
ARM GAS  /tmp/ccy0l3Hv.s 			page 11


 571              		.loc 1 229 0
 572 0002 0D46     		mov	r5, r1
 573              		.loc 1 231 0
 574 0004 0446     		mov	r4, r0
 575 0006 60B1     		cbz	r0, .L60
 576              	.LVL51:
 577              	.L58:
 578              		.loc 1 233 0
 579              		.syntax unified
 580              	@ 233 "ChibiOS_2.6.6/os/kernel/src/chevents.c" 1
 581 0008 72B6     		cpsid   i
 582              	@ 0 "" 2
 583              		.thumb
 584              		.syntax unified
 585 000a FFF7FEFF 		bl	dbg_check_lock
 586              	.LVL52:
 587              		.loc 1 234 0
 588 000e 2946     		mov	r1, r5
 589 0010 2046     		mov	r0, r4
 590 0012 FFF7FEFF 		bl	chEvtSignalI
 591              	.LVL53:
 592              		.loc 1 235 0
 593 0016 FFF7FEFF 		bl	chSchRescheduleS
 594              	.LVL54:
 595              		.loc 1 236 0
 596 001a FFF7FEFF 		bl	dbg_check_unlock
 597              	.LVL55:
 598              		.syntax unified
 599              	@ 236 "ChibiOS_2.6.6/os/kernel/src/chevents.c" 1
 600 001e 62B6     		cpsie   i
 601              	@ 0 "" 2
 602              		.loc 1 237 0
 603              		.thumb
 604              		.syntax unified
 605 0020 38BD     		pop	{r3, r4, r5, pc}
 606              	.LVL56:
 607              	.L60:
 608              		.loc 1 231 0 discriminator 1
 609 0022 0248     		ldr	r0, .L61
 610              	.LVL57:
 611 0024 FFF7FEFF 		bl	chDbgPanic
 612              	.LVL58:
 613 0028 EEE7     		b	.L58
 614              	.L62:
 615 002a 00BF     		.align	2
 616              	.L61:
 617 002c 00000000 		.word	.LC4
 618              		.cfi_endproc
 619              	.LFE13:
 620              		.size	chEvtSignal, .-chEvtSignal
 621              		.section	.text.chEvtBroadcastFlags,"ax",%progbits
 622              		.align	1
 623              		.p2align 4,,15
 624              		.global	chEvtBroadcastFlags
 625              		.syntax unified
 626              		.thumb
 627              		.thumb_func
ARM GAS  /tmp/ccy0l3Hv.s 			page 12


 628              		.fpu fpv4-sp-d16
 629              		.type	chEvtBroadcastFlags, %function
 630              	chEvtBroadcastFlags:
 631              	.LFB15:
 632              		.loc 1 278 0
 633              		.cfi_startproc
 634              		@ args = 0, pretend = 0, frame = 0
 635              		@ frame_needed = 0, uses_anonymous_args = 0
 636              	.LVL59:
 637 0000 38B5     		push	{r3, r4, r5, lr}
 638              		.cfi_def_cfa_offset 16
 639              		.cfi_offset 3, -16
 640              		.cfi_offset 4, -12
 641              		.cfi_offset 5, -8
 642              		.cfi_offset 14, -4
 643              		.loc 1 278 0
 644 0002 0446     		mov	r4, r0
 645 0004 0D46     		mov	r5, r1
 646              		.loc 1 280 0
 647              		.syntax unified
 648              	@ 280 "ChibiOS_2.6.6/os/kernel/src/chevents.c" 1
 649 0006 72B6     		cpsid   i
 650              	@ 0 "" 2
 651              		.thumb
 652              		.syntax unified
 653 0008 FFF7FEFF 		bl	dbg_check_lock
 654              	.LVL60:
 655              		.loc 1 281 0
 656 000c 2946     		mov	r1, r5
 657 000e 2046     		mov	r0, r4
 658 0010 FFF7FEFF 		bl	chEvtBroadcastFlagsI
 659              	.LVL61:
 660              		.loc 1 282 0
 661 0014 FFF7FEFF 		bl	chSchRescheduleS
 662              	.LVL62:
 663              		.loc 1 283 0
 664 0018 FFF7FEFF 		bl	dbg_check_unlock
 665              	.LVL63:
 666              		.syntax unified
 667              	@ 283 "ChibiOS_2.6.6/os/kernel/src/chevents.c" 1
 668 001c 62B6     		cpsie   i
 669              	@ 0 "" 2
 670              		.loc 1 284 0
 671              		.thumb
 672              		.syntax unified
 673 001e 38BD     		pop	{r3, r4, r5, pc}
 674              		.cfi_endproc
 675              	.LFE15:
 676              		.size	chEvtBroadcastFlags, .-chEvtBroadcastFlags
 677              		.section	.text.chEvtGetAndClearFlagsI,"ax",%progbits
 678              		.align	1
 679              		.p2align 4,,15
 680              		.global	chEvtGetAndClearFlagsI
 681              		.syntax unified
 682              		.thumb
 683              		.thumb_func
 684              		.fpu fpv4-sp-d16
ARM GAS  /tmp/ccy0l3Hv.s 			page 13


 685              		.type	chEvtGetAndClearFlagsI, %function
 686              	chEvtGetAndClearFlagsI:
 687              	.LFB16:
 688              		.loc 1 297 0
 689              		.cfi_startproc
 690              		@ args = 0, pretend = 0, frame = 0
 691              		@ frame_needed = 0, uses_anonymous_args = 0
 692              		@ link register save eliminated.
 693              	.LVL64:
 694              		.loc 1 297 0
 695 0000 0346     		mov	r3, r0
 696              		.loc 1 301 0
 697 0002 0022     		movs	r2, #0
 698              		.loc 1 300 0
 699 0004 C068     		ldr	r0, [r0, #12]
 700              	.LVL65:
 701              		.loc 1 301 0
 702 0006 DA60     		str	r2, [r3, #12]
 703              		.loc 1 304 0
 704 0008 7047     		bx	lr
 705              		.cfi_endproc
 706              	.LFE16:
 707              		.size	chEvtGetAndClearFlagsI, .-chEvtGetAndClearFlagsI
 708 000a 00BF     		.section	.text.chEvtDispatch,"ax",%progbits
 709              		.align	1
 710              		.p2align 4,,15
 711              		.global	chEvtDispatch
 712              		.syntax unified
 713              		.thumb
 714              		.thumb_func
 715              		.fpu fpv4-sp-d16
 716              		.type	chEvtDispatch, %function
 717              	chEvtDispatch:
 718              	.LFB17:
 719              		.loc 1 315 0
 720              		.cfi_startproc
 721              		@ args = 0, pretend = 0, frame = 0
 722              		@ frame_needed = 0, uses_anonymous_args = 0
 723              	.LVL66:
 724 0000 2DE9F041 		push	{r4, r5, r6, r7, r8, lr}
 725              		.cfi_def_cfa_offset 24
 726              		.cfi_offset 4, -24
 727              		.cfi_offset 5, -20
 728              		.cfi_offset 6, -16
 729              		.cfi_offset 7, -12
 730              		.cfi_offset 8, -8
 731              		.cfi_offset 14, -4
 732              		.loc 1 315 0
 733 0004 0D46     		mov	r5, r1
 734              		.loc 1 318 0
 735 0006 0746     		mov	r7, r0
 736 0008 E0B1     		cbz	r0, .L75
 737              	.LVL67:
 738              	.L67:
 739              		.loc 1 321 0
 740 000a 8DB1     		cbz	r5, .L66
 741              		.loc 1 323 0
ARM GAS  /tmp/ccy0l3Hv.s 			page 14


 742 000c DFF84080 		ldr	r8, .L77+4
 743              		.loc 1 321 0
 744 0010 0024     		movs	r4, #0
 745              		.loc 1 322 0
 746 0012 0126     		movs	r6, #1
 747              	.LVL68:
 748              	.L68:
 749 0014 06FA04F3 		lsl	r3, r6, r4
 750 0018 2B42     		tst	r3, r5
 751 001a 0BD0     		beq	.L70
 752              		.loc 1 323 0
 753 001c 57F82420 		ldr	r2, [r7, r4, lsl #2]
 754              		.loc 1 326 0
 755 0020 25EA0305 		bic	r5, r5, r3
 756              	.LVL69:
 757              		.loc 1 323 0
 758 0024 42B1     		cbz	r2, .L76
 759              	.L71:
 760              	.LVL70:
 761              		.loc 1 327 0
 762 0026 2046     		mov	r0, r4
 763 0028 9047     		blx	r2
 764              	.LVL71:
 765              		.loc 1 329 0
 766 002a 0134     		adds	r4, r4, #1
 767              	.LVL72:
 768              		.loc 1 321 0
 769 002c 002D     		cmp	r5, #0
 770 002e F1D1     		bne	.L68
 771              	.LVL73:
 772              	.L66:
 773              		.loc 1 331 0
 774 0030 BDE8F081 		pop	{r4, r5, r6, r7, r8, pc}
 775              	.LVL74:
 776              	.L70:
 777              		.loc 1 329 0
 778 0034 0134     		adds	r4, r4, #1
 779              	.LVL75:
 780 0036 EDE7     		b	.L68
 781              	.LVL76:
 782              	.L76:
 783              		.loc 1 323 0 discriminator 1
 784 0038 4046     		mov	r0, r8
 785 003a FFF7FEFF 		bl	chDbgPanic
 786              	.LVL77:
 787 003e 57F82420 		ldr	r2, [r7, r4, lsl #2]
 788 0042 F0E7     		b	.L71
 789              	.LVL78:
 790              	.L75:
 791              		.loc 1 318 0 discriminator 1
 792 0044 0148     		ldr	r0, .L77
 793              	.LVL79:
 794 0046 FFF7FEFF 		bl	chDbgPanic
 795              	.LVL80:
 796 004a DEE7     		b	.L67
 797              	.L78:
 798              		.align	2
ARM GAS  /tmp/ccy0l3Hv.s 			page 15


 799              	.L77:
 800 004c 00000000 		.word	.LC5
 801 0050 14000000 		.word	.LC6
 802              		.cfi_endproc
 803              	.LFE17:
 804              		.size	chEvtDispatch, .-chEvtDispatch
 805              		.section	.text.chEvtWaitOne,"ax",%progbits
 806              		.align	1
 807              		.p2align 4,,15
 808              		.global	chEvtWaitOne
 809              		.syntax unified
 810              		.thumb
 811              		.thumb_func
 812              		.fpu fpv4-sp-d16
 813              		.type	chEvtWaitOne, %function
 814              	chEvtWaitOne:
 815              	.LFB18:
 816              		.loc 1 350 0
 817              		.cfi_startproc
 818              		@ args = 0, pretend = 0, frame = 0
 819              		@ frame_needed = 0, uses_anonymous_args = 0
 820              	.LVL81:
 821              		.loc 1 351 0
 822 0000 0D4B     		ldr	r3, .L82
 823              		.loc 1 350 0
 824 0002 70B5     		push	{r4, r5, r6, lr}
 825              		.cfi_def_cfa_offset 16
 826              		.cfi_offset 4, -16
 827              		.cfi_offset 5, -12
 828              		.cfi_offset 6, -8
 829              		.cfi_offset 14, -4
 830              		.loc 1 350 0
 831 0004 0646     		mov	r6, r0
 832              		.loc 1 351 0
 833 0006 9D69     		ldr	r5, [r3, #24]
 834              	.LVL82:
 835              		.loc 1 354 0
 836              		.syntax unified
 837              	@ 354 "ChibiOS_2.6.6/os/kernel/src/chevents.c" 1
 838 0008 72B6     		cpsid   i
 839              	@ 0 "" 2
 840              		.thumb
 841              		.syntax unified
 842 000a FFF7FEFF 		bl	dbg_check_lock
 843              	.LVL83:
 844              		.loc 1 356 0
 845 000e EB6B     		ldr	r3, [r5, #60]
 846              	.LVL84:
 847 0010 13EA0600 		ands	r0, r3, r6
 848              	.LVL85:
 849 0014 06D1     		bne	.L80
 850              		.loc 1 358 0
 851 0016 0820     		movs	r0, #8
 852              	.LVL86:
 853              		.loc 1 357 0
 854 0018 AE62     		str	r6, [r5, #40]
 855              		.loc 1 358 0
ARM GAS  /tmp/ccy0l3Hv.s 			page 16


 856 001a FFF7FEFF 		bl	chSchGoSleepS
 857              	.LVL87:
 858              		.loc 1 359 0
 859 001e EB6B     		ldr	r3, [r5, #60]
 860 0020 03EA0600 		and	r0, r3, r6
 861              	.LVL88:
 862              	.L80:
 863              		.loc 1 361 0
 864 0024 4442     		negs	r4, r0
 865 0026 0440     		ands	r4, r4, r0
 866              	.LVL89:
 867              		.loc 1 362 0
 868 0028 23EA0403 		bic	r3, r3, r4
 869 002c EB63     		str	r3, [r5, #60]
 870              		.loc 1 364 0
 871 002e FFF7FEFF 		bl	dbg_check_unlock
 872              	.LVL90:
 873              		.syntax unified
 874              	@ 364 "ChibiOS_2.6.6/os/kernel/src/chevents.c" 1
 875 0032 62B6     		cpsie   i
 876              	@ 0 "" 2
 877              		.loc 1 366 0
 878              		.thumb
 879              		.syntax unified
 880 0034 2046     		mov	r0, r4
 881 0036 70BD     		pop	{r4, r5, r6, pc}
 882              	.LVL91:
 883              	.L83:
 884              		.align	2
 885              	.L82:
 886 0038 00000000 		.word	rlist
 887              		.cfi_endproc
 888              	.LFE18:
 889              		.size	chEvtWaitOne, .-chEvtWaitOne
 890              		.section	.text.chEvtWaitAny,"ax",%progbits
 891              		.align	1
 892              		.p2align 4,,15
 893              		.global	chEvtWaitAny
 894              		.syntax unified
 895              		.thumb
 896              		.thumb_func
 897              		.fpu fpv4-sp-d16
 898              		.type	chEvtWaitAny, %function
 899              	chEvtWaitAny:
 900              	.LFB19:
 901              		.loc 1 379 0
 902              		.cfi_startproc
 903              		@ args = 0, pretend = 0, frame = 0
 904              		@ frame_needed = 0, uses_anonymous_args = 0
 905              	.LVL92:
 906              		.loc 1 380 0
 907 0000 0C4B     		ldr	r3, .L87
 908              		.loc 1 379 0
 909 0002 70B5     		push	{r4, r5, r6, lr}
 910              		.cfi_def_cfa_offset 16
 911              		.cfi_offset 4, -16
 912              		.cfi_offset 5, -12
ARM GAS  /tmp/ccy0l3Hv.s 			page 17


 913              		.cfi_offset 6, -8
 914              		.cfi_offset 14, -4
 915              		.loc 1 379 0
 916 0004 0546     		mov	r5, r0
 917              		.loc 1 380 0
 918 0006 9C69     		ldr	r4, [r3, #24]
 919              	.LVL93:
 920              		.loc 1 383 0
 921              		.syntax unified
 922              	@ 383 "ChibiOS_2.6.6/os/kernel/src/chevents.c" 1
 923 0008 72B6     		cpsid   i
 924              	@ 0 "" 2
 925              		.thumb
 926              		.syntax unified
 927 000a FFF7FEFF 		bl	dbg_check_lock
 928              	.LVL94:
 929              		.loc 1 385 0
 930 000e E36B     		ldr	r3, [r4, #60]
 931              	.LVL95:
 932 0010 13EA0506 		ands	r6, r3, r5
 933              	.LVL96:
 934 0014 06D1     		bne	.L85
 935              		.loc 1 386 0
 936 0016 A562     		str	r5, [r4, #40]
 937              		.loc 1 387 0
 938 0018 0820     		movs	r0, #8
 939 001a FFF7FEFF 		bl	chSchGoSleepS
 940              	.LVL97:
 941              		.loc 1 388 0
 942 001e E36B     		ldr	r3, [r4, #60]
 943 0020 03EA0506 		and	r6, r3, r5
 944              	.LVL98:
 945              	.L85:
 946              		.loc 1 390 0
 947 0024 23EA0603 		bic	r3, r3, r6
 948 0028 E363     		str	r3, [r4, #60]
 949              		.loc 1 392 0
 950 002a FFF7FEFF 		bl	dbg_check_unlock
 951              	.LVL99:
 952              		.syntax unified
 953              	@ 392 "ChibiOS_2.6.6/os/kernel/src/chevents.c" 1
 954 002e 62B6     		cpsie   i
 955              	@ 0 "" 2
 956              		.loc 1 394 0
 957              		.thumb
 958              		.syntax unified
 959 0030 3046     		mov	r0, r6
 960 0032 70BD     		pop	{r4, r5, r6, pc}
 961              	.LVL100:
 962              	.L88:
 963              		.align	2
 964              	.L87:
 965 0034 00000000 		.word	rlist
 966              		.cfi_endproc
 967              	.LFE19:
 968              		.size	chEvtWaitAny, .-chEvtWaitAny
 969              		.section	.text.chEvtWaitAll,"ax",%progbits
ARM GAS  /tmp/ccy0l3Hv.s 			page 18


 970              		.align	1
 971              		.p2align 4,,15
 972              		.global	chEvtWaitAll
 973              		.syntax unified
 974              		.thumb
 975              		.thumb_func
 976              		.fpu fpv4-sp-d16
 977              		.type	chEvtWaitAll, %function
 978              	chEvtWaitAll:
 979              	.LFB20:
 980              		.loc 1 407 0
 981              		.cfi_startproc
 982              		@ args = 0, pretend = 0, frame = 0
 983              		@ frame_needed = 0, uses_anonymous_args = 0
 984              	.LVL101:
 985 0000 38B5     		push	{r3, r4, r5, lr}
 986              		.cfi_def_cfa_offset 16
 987              		.cfi_offset 3, -16
 988              		.cfi_offset 4, -12
 989              		.cfi_offset 5, -8
 990              		.cfi_offset 14, -4
 991              		.loc 1 408 0
 992 0002 0B4B     		ldr	r3, .L92
 993              		.loc 1 407 0
 994 0004 0446     		mov	r4, r0
 995              		.loc 1 408 0
 996 0006 9D69     		ldr	r5, [r3, #24]
 997              	.LVL102:
 998              		.loc 1 410 0
 999              		.syntax unified
 1000              	@ 410 "ChibiOS_2.6.6/os/kernel/src/chevents.c" 1
 1001 0008 72B6     		cpsid   i
 1002              	@ 0 "" 2
 1003              		.thumb
 1004              		.syntax unified
 1005 000a FFF7FEFF 		bl	dbg_check_lock
 1006              	.LVL103:
 1007              		.loc 1 412 0
 1008 000e EB6B     		ldr	r3, [r5, #60]
 1009 0010 34EA0302 		bics	r2, r4, r3
 1010 0014 04D0     		beq	.L90
 1011              		.loc 1 413 0
 1012 0016 AC62     		str	r4, [r5, #40]
 1013              		.loc 1 414 0
 1014 0018 0920     		movs	r0, #9
 1015 001a FFF7FEFF 		bl	chSchGoSleepS
 1016              	.LVL104:
 1017 001e EB6B     		ldr	r3, [r5, #60]
 1018              	.L90:
 1019              		.loc 1 416 0
 1020 0020 23EA0403 		bic	r3, r3, r4
 1021 0024 EB63     		str	r3, [r5, #60]
 1022              		.loc 1 418 0
 1023 0026 FFF7FEFF 		bl	dbg_check_unlock
 1024              	.LVL105:
 1025              		.syntax unified
 1026              	@ 418 "ChibiOS_2.6.6/os/kernel/src/chevents.c" 1
ARM GAS  /tmp/ccy0l3Hv.s 			page 19


 1027 002a 62B6     		cpsie   i
 1028              	@ 0 "" 2
 1029              		.loc 1 420 0
 1030              		.thumb
 1031              		.syntax unified
 1032 002c 2046     		mov	r0, r4
 1033 002e 38BD     		pop	{r3, r4, r5, pc}
 1034              	.LVL106:
 1035              	.L93:
 1036              		.align	2
 1037              	.L92:
 1038 0030 00000000 		.word	rlist
 1039              		.cfi_endproc
 1040              	.LFE20:
 1041              		.size	chEvtWaitAll, .-chEvtWaitAll
 1042              		.section	.text.chEvtWaitOneTimeout,"ax",%progbits
 1043              		.align	1
 1044              		.p2align 4,,15
 1045              		.global	chEvtWaitOneTimeout
 1046              		.syntax unified
 1047              		.thumb
 1048              		.thumb_func
 1049              		.fpu fpv4-sp-d16
 1050              		.type	chEvtWaitOneTimeout, %function
 1051              	chEvtWaitOneTimeout:
 1052              	.LFB21:
 1053              		.loc 1 446 0
 1054              		.cfi_startproc
 1055              		@ args = 0, pretend = 0, frame = 0
 1056              		@ frame_needed = 0, uses_anonymous_args = 0
 1057              	.LVL107:
 1058 0000 F8B5     		push	{r3, r4, r5, r6, r7, lr}
 1059              		.cfi_def_cfa_offset 24
 1060              		.cfi_offset 3, -24
 1061              		.cfi_offset 4, -20
 1062              		.cfi_offset 5, -16
 1063              		.cfi_offset 6, -12
 1064              		.cfi_offset 7, -8
 1065              		.cfi_offset 14, -4
 1066              		.loc 1 447 0
 1067 0002 104B     		ldr	r3, .L101
 1068              		.loc 1 446 0
 1069 0004 0546     		mov	r5, r0
 1070 0006 0F46     		mov	r7, r1
 1071              		.loc 1 447 0
 1072 0008 9E69     		ldr	r6, [r3, #24]
 1073              	.LVL108:
 1074              		.loc 1 450 0
 1075              		.syntax unified
 1076              	@ 450 "ChibiOS_2.6.6/os/kernel/src/chevents.c" 1
 1077 000a 72B6     		cpsid   i
 1078              	@ 0 "" 2
 1079              		.thumb
 1080              		.syntax unified
 1081 000c FFF7FEFF 		bl	dbg_check_lock
 1082              	.LVL109:
 1083              		.loc 1 452 0
ARM GAS  /tmp/ccy0l3Hv.s 			page 20


 1084 0010 F36B     		ldr	r3, [r6, #60]
 1085              	.LVL110:
 1086 0012 13EA0504 		ands	r4, r3, r5
 1087              	.LVL111:
 1088 0016 0AD1     		bne	.L95
 1089              		.loc 1 453 0
 1090 0018 77B1     		cbz	r7, .L100
 1091              		.loc 1 457 0
 1092 001a B562     		str	r5, [r6, #40]
 1093              		.loc 1 458 0
 1094 001c 3946     		mov	r1, r7
 1095 001e 0820     		movs	r0, #8
 1096 0020 FFF7FEFF 		bl	chSchGoSleepTimeoutS
 1097              	.LVL112:
 1098 0024 0028     		cmp	r0, #0
 1099 0026 07DB     		blt	.L100
 1100              		.loc 1 462 0
 1101 0028 F36B     		ldr	r3, [r6, #60]
 1102 002a 03EA0504 		and	r4, r3, r5
 1103              	.LVL113:
 1104              	.L95:
 1105              		.loc 1 464 0
 1106 002e 6242     		negs	r2, r4
 1107 0030 1440     		ands	r4, r4, r2
 1108              	.LVL114:
 1109              		.loc 1 465 0
 1110 0032 23EA0403 		bic	r3, r3, r4
 1111 0036 F363     		str	r3, [r6, #60]
 1112              	.LVL115:
 1113              	.L100:
 1114              		.loc 1 467 0
 1115 0038 FFF7FEFF 		bl	dbg_check_unlock
 1116              	.LVL116:
 1117              		.syntax unified
 1118              	@ 467 "ChibiOS_2.6.6/os/kernel/src/chevents.c" 1
 1119 003c 62B6     		cpsie   i
 1120              	@ 0 "" 2
 1121              		.loc 1 469 0
 1122              		.thumb
 1123              		.syntax unified
 1124 003e 2046     		mov	r0, r4
 1125 0040 F8BD     		pop	{r3, r4, r5, r6, r7, pc}
 1126              	.LVL117:
 1127              	.L102:
 1128 0042 00BF     		.align	2
 1129              	.L101:
 1130 0044 00000000 		.word	rlist
 1131              		.cfi_endproc
 1132              	.LFE21:
 1133              		.size	chEvtWaitOneTimeout, .-chEvtWaitOneTimeout
 1134              		.section	.text.chEvtWaitAnyTimeout,"ax",%progbits
 1135              		.align	1
 1136              		.p2align 4,,15
 1137              		.global	chEvtWaitAnyTimeout
 1138              		.syntax unified
 1139              		.thumb
 1140              		.thumb_func
ARM GAS  /tmp/ccy0l3Hv.s 			page 21


 1141              		.fpu fpv4-sp-d16
 1142              		.type	chEvtWaitAnyTimeout, %function
 1143              	chEvtWaitAnyTimeout:
 1144              	.LFB22:
 1145              		.loc 1 489 0
 1146              		.cfi_startproc
 1147              		@ args = 0, pretend = 0, frame = 0
 1148              		@ frame_needed = 0, uses_anonymous_args = 0
 1149              	.LVL118:
 1150 0000 F8B5     		push	{r3, r4, r5, r6, r7, lr}
 1151              		.cfi_def_cfa_offset 24
 1152              		.cfi_offset 3, -24
 1153              		.cfi_offset 4, -20
 1154              		.cfi_offset 5, -16
 1155              		.cfi_offset 6, -12
 1156              		.cfi_offset 7, -8
 1157              		.cfi_offset 14, -4
 1158              		.loc 1 490 0
 1159 0002 0F4B     		ldr	r3, .L110
 1160              		.loc 1 489 0
 1161 0004 0446     		mov	r4, r0
 1162 0006 0F46     		mov	r7, r1
 1163              		.loc 1 490 0
 1164 0008 9D69     		ldr	r5, [r3, #24]
 1165              	.LVL119:
 1166              		.loc 1 493 0
 1167              		.syntax unified
 1168              	@ 493 "ChibiOS_2.6.6/os/kernel/src/chevents.c" 1
 1169 000a 72B6     		cpsid   i
 1170              	@ 0 "" 2
 1171              		.thumb
 1172              		.syntax unified
 1173 000c FFF7FEFF 		bl	dbg_check_lock
 1174              	.LVL120:
 1175              		.loc 1 495 0
 1176 0010 EB6B     		ldr	r3, [r5, #60]
 1177              	.LVL121:
 1178 0012 13EA0406 		ands	r6, r3, r4
 1179              	.LVL122:
 1180 0016 0AD1     		bne	.L104
 1181              		.loc 1 496 0
 1182 0018 67B1     		cbz	r7, .L109
 1183              		.loc 1 500 0
 1184 001a AC62     		str	r4, [r5, #40]
 1185              		.loc 1 501 0
 1186 001c 3946     		mov	r1, r7
 1187 001e 0820     		movs	r0, #8
 1188 0020 FFF7FEFF 		bl	chSchGoSleepTimeoutS
 1189              	.LVL123:
 1190 0024 0028     		cmp	r0, #0
 1191 0026 05DB     		blt	.L109
 1192              		.loc 1 505 0
 1193 0028 EB6B     		ldr	r3, [r5, #60]
 1194 002a 03EA0406 		and	r6, r3, r4
 1195              	.LVL124:
 1196              	.L104:
 1197              		.loc 1 507 0
ARM GAS  /tmp/ccy0l3Hv.s 			page 22


 1198 002e 23EA0603 		bic	r3, r3, r6
 1199 0032 EB63     		str	r3, [r5, #60]
 1200              	.LVL125:
 1201              	.L109:
 1202              		.loc 1 509 0
 1203 0034 FFF7FEFF 		bl	dbg_check_unlock
 1204              	.LVL126:
 1205              		.syntax unified
 1206              	@ 509 "ChibiOS_2.6.6/os/kernel/src/chevents.c" 1
 1207 0038 62B6     		cpsie   i
 1208              	@ 0 "" 2
 1209              		.loc 1 511 0
 1210              		.thumb
 1211              		.syntax unified
 1212 003a 3046     		mov	r0, r6
 1213 003c F8BD     		pop	{r3, r4, r5, r6, r7, pc}
 1214              	.LVL127:
 1215              	.L111:
 1216 003e 00BF     		.align	2
 1217              	.L110:
 1218 0040 00000000 		.word	rlist
 1219              		.cfi_endproc
 1220              	.LFE22:
 1221              		.size	chEvtWaitAnyTimeout, .-chEvtWaitAnyTimeout
 1222              		.section	.text.chEvtWaitAllTimeout,"ax",%progbits
 1223              		.align	1
 1224              		.p2align 4,,15
 1225              		.global	chEvtWaitAllTimeout
 1226              		.syntax unified
 1227              		.thumb
 1228              		.thumb_func
 1229              		.fpu fpv4-sp-d16
 1230              		.type	chEvtWaitAllTimeout, %function
 1231              	chEvtWaitAllTimeout:
 1232              	.LFB23:
 1233              		.loc 1 530 0
 1234              		.cfi_startproc
 1235              		@ args = 0, pretend = 0, frame = 0
 1236              		@ frame_needed = 0, uses_anonymous_args = 0
 1237              	.LVL128:
 1238              		.loc 1 531 0
 1239 0000 104B     		ldr	r3, .L118
 1240              		.loc 1 530 0
 1241 0002 70B5     		push	{r4, r5, r6, lr}
 1242              		.cfi_def_cfa_offset 16
 1243              		.cfi_offset 4, -16
 1244              		.cfi_offset 5, -12
 1245              		.cfi_offset 6, -8
 1246              		.cfi_offset 14, -4
 1247              		.loc 1 530 0
 1248 0004 0446     		mov	r4, r0
 1249 0006 0E46     		mov	r6, r1
 1250              		.loc 1 531 0
 1251 0008 9D69     		ldr	r5, [r3, #24]
 1252              	.LVL129:
 1253              		.loc 1 533 0
 1254              		.syntax unified
ARM GAS  /tmp/ccy0l3Hv.s 			page 23


 1255              	@ 533 "ChibiOS_2.6.6/os/kernel/src/chevents.c" 1
 1256 000a 72B6     		cpsid   i
 1257              	@ 0 "" 2
 1258              		.thumb
 1259              		.syntax unified
 1260 000c FFF7FEFF 		bl	dbg_check_lock
 1261              	.LVL130:
 1262              		.loc 1 535 0
 1263 0010 EB6B     		ldr	r3, [r5, #60]
 1264 0012 34EA0302 		bics	r2, r4, r3
 1265 0016 08D0     		beq	.L113
 1266              		.loc 1 536 0
 1267 0018 7EB1     		cbz	r6, .L116
 1268              		.loc 1 540 0
 1269 001a AC62     		str	r4, [r5, #40]
 1270              		.loc 1 541 0
 1271 001c 3146     		mov	r1, r6
 1272 001e 0920     		movs	r0, #9
 1273 0020 FFF7FEFF 		bl	chSchGoSleepTimeoutS
 1274              	.LVL131:
 1275 0024 0028     		cmp	r0, #0
 1276 0026 08DB     		blt	.L116
 1277 0028 EB6B     		ldr	r3, [r5, #60]
 1278              	.L113:
 1279              		.loc 1 546 0
 1280 002a 23EA0403 		bic	r3, r3, r4
 1281 002e EB63     		str	r3, [r5, #60]
 1282              		.loc 1 548 0
 1283 0030 FFF7FEFF 		bl	dbg_check_unlock
 1284              	.LVL132:
 1285              		.syntax unified
 1286              	@ 548 "ChibiOS_2.6.6/os/kernel/src/chevents.c" 1
 1287 0034 62B6     		cpsie   i
 1288              	@ 0 "" 2
 1289              		.loc 1 549 0
 1290              		.thumb
 1291              		.syntax unified
 1292 0036 2046     		mov	r0, r4
 1293              		.loc 1 550 0
 1294 0038 70BD     		pop	{r4, r5, r6, pc}
 1295              	.LVL133:
 1296              	.L116:
 1297              		.loc 1 542 0
 1298 003a FFF7FEFF 		bl	dbg_check_unlock
 1299              	.LVL134:
 1300              		.syntax unified
 1301              	@ 542 "ChibiOS_2.6.6/os/kernel/src/chevents.c" 1
 1302 003e 62B6     		cpsie   i
 1303              	@ 0 "" 2
 1304              		.loc 1 543 0
 1305              		.thumb
 1306              		.syntax unified
 1307 0040 0020     		movs	r0, #0
 1308              		.loc 1 550 0
 1309 0042 70BD     		pop	{r4, r5, r6, pc}
 1310              	.LVL135:
 1311              	.L119:
ARM GAS  /tmp/ccy0l3Hv.s 			page 24


 1312              		.align	2
 1313              	.L118:
 1314 0044 00000000 		.word	rlist
 1315              		.cfi_endproc
 1316              	.LFE23:
 1317              		.size	chEvtWaitAllTimeout, .-chEvtWaitAllTimeout
 1318              		.section	.rodata.chEvtBroadcastFlagsI.str1.4,"aMS",%progbits,1
 1319              		.align	2
 1320              	.LC3:
 1321 0000 22636845 		.ascii	"\"chEvtBroadcastMaskI\"()\000"
 1321      76744272 
 1321      6F616463 
 1321      6173744D 
 1321      61736B49 
 1322              		.section	.rodata.chEvtDispatch.str1.4,"aMS",%progbits,1
 1323              		.align	2
 1324              	.LC5:
 1325 0000 22636845 		.ascii	"\"chEvtDispatch\"()\000"
 1325      76744469 
 1325      73706174 
 1325      63682228 
 1325      2900
 1326 0012 0000     		.space	2
 1327              	.LC6:
 1328 0014 63684576 		.ascii	"chEvtDispatch(), #1\000"
 1328      74446973 
 1328      70617463 
 1328      6828292C 
 1328      20233100 
 1329              		.section	.rodata.chEvtRegisterMask.str1.4,"aMS",%progbits,1
 1330              		.align	2
 1331              	.LC0:
 1332 0000 22636845 		.ascii	"\"chEvtRegisterMask\"()\000"
 1332      76745265 
 1332      67697374 
 1332      65724D61 
 1332      736B2228 
 1333              		.section	.rodata.chEvtSignal.str1.4,"aMS",%progbits,1
 1334              		.align	2
 1335              	.LC4:
 1336 0000 22636845 		.ascii	"\"chEvtSignal\"()\000"
 1336      76745369 
 1336      676E616C 
 1336      22282900 
 1337              		.section	.rodata.chEvtSignalI.str1.4,"aMS",%progbits,1
 1338              		.align	2
 1339              	.LC2:
 1340 0000 22636845 		.ascii	"\"chEvtSignalI\"()\000"
 1340      76745369 
 1340      676E616C 
 1340      49222829 
 1340      00
 1341              		.section	.rodata.chEvtUnregister.str1.4,"aMS",%progbits,1
 1342              		.align	2
 1343              	.LC1:
 1344 0000 22636845 		.ascii	"\"chEvtUnregister\"()\000"
 1344      7674556E 
ARM GAS  /tmp/ccy0l3Hv.s 			page 25


 1344      72656769 
 1344      73746572 
 1344      22282900 
 1345              		.text
 1346              	.Letext0:
 1347              		.file 2 "/usr/arm-none-eabi/include/machine/_default_types.h"
 1348              		.file 3 "/usr/arm-none-eabi/include/sys/_stdint.h"
 1349              		.file 4 "ChibiOS_2.6.6/os/ports/GCC/ARMCMx/chtypes.h"
 1350              		.file 5 "ChibiOS_2.6.6/os/kernel/include/chlists.h"
 1351              		.file 6 "ChibiOS_2.6.6/os/kernel/include/chthreads.h"
 1352              		.file 7 "ChibiOS_2.6.6/os/ports/GCC/ARMCMx/chcore_v7m.h"
 1353              		.file 8 "ChibiOS_2.6.6/os/kernel/include/chvt.h"
 1354              		.file 9 "ChibiOS_2.6.6/os/kernel/include/chschd.h"
 1355              		.file 10 "ChibiOS_2.6.6/os/kernel/include/chmtx.h"
 1356              		.file 11 "ChibiOS_2.6.6/os/kernel/include/chevents.h"
 1357              		.file 12 "ChibiOS_2.6.6/os/kernel/include/chregistry.h"
 1358              		.file 13 "ChibiOS_2.6.6/os/kernel/include/chdebug.h"
 1359              		.file 14 "ChibiOS_2.6.6/os/kernel/include/ch.h"