ARM GAS  /tmp/ccJWSgRE.s 			page 1


   1              		.cpu cortex-m4
   2              		.eabi_attribute 27, 1
   3              		.eabi_attribute 28, 1
   4              		.eabi_attribute 20, 1
   5              		.eabi_attribute 21, 1
   6              		.eabi_attribute 23, 3
   7              		.eabi_attribute 24, 1
   8              		.eabi_attribute 25, 1
   9              		.eabi_attribute 26, 1
  10              		.eabi_attribute 30, 2
  11              		.eabi_attribute 34, 1
  12              		.eabi_attribute 18, 4
  13              		.file	"chheap.c"
  14              		.text
  15              	.Ltext0:
  16              		.cfi_sections	.debug_frame
  17              		.section	.text._heap_init,"ax",%progbits
  18              		.align	1
  19              		.p2align 4,,15
  20              		.global	_heap_init
  21              		.syntax unified
  22              		.thumb
  23              		.thumb_func
  24              		.fpu fpv4-sp-d16
  25              		.type	_heap_init, %function
  26              	_heap_init:
  27              	.LFB7:
  28              		.file 1 "ChibiOS_2.6.6/os/kernel/src/chheap.c"
  29              		.loc 1 75 0
  30              		.cfi_startproc
  31              		@ args = 0, pretend = 0, frame = 0
  32              		@ frame_needed = 0, uses_anonymous_args = 0
  33              		@ link register save eliminated.
  34              		.loc 1 76 0
  35 0000 044B     		ldr	r3, .L3
  36 0002 054A     		ldr	r2, .L3+4
  37 0004 1A60     		str	r2, [r3]
  38              		.loc 1 80 0
  39 0006 03F11000 		add	r0, r3, #16
  40              		.loc 1 77 0
  41 000a 0022     		movs	r2, #0
  42              		.loc 1 78 0
  43 000c C3E90222 		strd	r2, r2, [r3, #8]
  44              		.loc 1 80 0
  45 0010 FFF7FEBF 		b	chMtxInit
  46              	.LVL0:
  47              	.L4:
  48              		.align	2
  49              	.L3:
  50 0014 00000000 		.word	.LANCHOR0
  51 0018 00000000 		.word	chCoreAlloc
  52              		.cfi_endproc
  53              	.LFE7:
  54              		.size	_heap_init, .-_heap_init
  55              		.section	.text.chHeapInit,"ax",%progbits
  56              		.align	1
  57              		.p2align 4,,15
ARM GAS  /tmp/ccJWSgRE.s 			page 2


  58              		.global	chHeapInit
  59              		.syntax unified
  60              		.thumb
  61              		.thumb_func
  62              		.fpu fpv4-sp-d16
  63              		.type	chHeapInit, %function
  64              	chHeapInit:
  65              	.LFB8:
  66              		.loc 1 99 0
  67              		.cfi_startproc
  68              		@ args = 0, pretend = 0, frame = 0
  69              		@ frame_needed = 0, uses_anonymous_args = 0
  70              	.LVL1:
  71              		.loc 1 102 0
  72 0000 41EA0203 		orr	r3, r1, r2
  73 0004 5B07     		lsls	r3, r3, #29
  74              		.loc 1 99 0
  75 0006 70B5     		push	{r4, r5, r6, lr}
  76              		.cfi_def_cfa_offset 16
  77              		.cfi_offset 4, -16
  78              		.cfi_offset 5, -12
  79              		.cfi_offset 6, -8
  80              		.cfi_offset 14, -4
  81              		.loc 1 99 0
  82 0008 0C46     		mov	r4, r1
  83 000a 1546     		mov	r5, r2
  84 000c 0646     		mov	r6, r0
  85              		.loc 1 102 0
  86 000e 02D0     		beq	.L6
  87              		.loc 1 102 0 is_stmt 0 discriminator 3
  88 0010 0748     		ldr	r0, .L11
  89              	.LVL2:
  90 0012 FFF7FEFF 		bl	chDbgPanic
  91              	.LVL3:
  92              	.L6:
  93              		.loc 1 104 0 is_stmt 1
  94 0016 0023     		movs	r3, #0
  95              		.loc 1 108 0
  96 0018 083D     		subs	r5, r5, #8
  97              	.LVL4:
  98              		.loc 1 105 0
  99 001a B460     		str	r4, [r6, #8]
 100              		.loc 1 104 0
 101 001c 3360     		str	r3, [r6]
 102              	.LVL5:
 103              		.loc 1 106 0
 104 001e F360     		str	r3, [r6, #12]
 105              		.loc 1 110 0
 106 0020 06F11000 		add	r0, r6, #16
 107              		.loc 1 107 0
 108 0024 C4E90035 		strd	r3, r5, [r4]
 109              	.LVL6:
 110              		.loc 1 114 0
 111 0028 BDE87040 		pop	{r4, r5, r6, lr}
 112              		.cfi_restore 14
 113              		.cfi_restore 6
 114              		.cfi_restore 5
ARM GAS  /tmp/ccJWSgRE.s 			page 3


 115              		.cfi_restore 4
 116              		.cfi_def_cfa_offset 0
 117              	.LVL7:
 118              		.loc 1 110 0
 119 002c FFF7FEBF 		b	chMtxInit
 120              	.LVL8:
 121              	.L12:
 122              		.align	2
 123              	.L11:
 124 0030 00000000 		.word	.LC0
 125              		.cfi_endproc
 126              	.LFE8:
 127              		.size	chHeapInit, .-chHeapInit
 128              		.section	.text.chHeapAlloc,"ax",%progbits
 129              		.align	1
 130              		.p2align 4,,15
 131              		.global	chHeapAlloc
 132              		.syntax unified
 133              		.thumb
 134              		.thumb_func
 135              		.fpu fpv4-sp-d16
 136              		.type	chHeapAlloc, %function
 137              	chHeapAlloc:
 138              	.LFB9:
 139              		.loc 1 132 0
 140              		.cfi_startproc
 141              		@ args = 0, pretend = 0, frame = 0
 142              		@ frame_needed = 0, uses_anonymous_args = 0
 143              	.LVL9:
 144 0000 F8B5     		push	{r3, r4, r5, r6, r7, lr}
 145              		.cfi_def_cfa_offset 24
 146              		.cfi_offset 3, -24
 147              		.cfi_offset 4, -20
 148              		.cfi_offset 5, -16
 149              		.cfi_offset 6, -12
 150              		.cfi_offset 7, -8
 151              		.cfi_offset 14, -4
 152              		.loc 1 136 0
 153 0002 1D4E     		ldr	r6, .L29
 154 0004 0028     		cmp	r0, #0
 155 0006 18BF     		it	ne
 156 0008 0646     		movne	r6, r0
 157              	.LVL10:
 158              		.loc 1 138 0
 159 000a 0731     		adds	r1, r1, #7
 160              	.LVL11:
 161              		.loc 1 140 0
 162 000c 06F11000 		add	r0, r6, #16
 163              		.loc 1 138 0
 164 0010 21F00705 		bic	r5, r1, #7
 165              	.LVL12:
 166              		.loc 1 139 0
 167 0014 06F10804 		add	r4, r6, #8
 168              	.LVL13:
 169              		.loc 1 140 0
 170 0018 FFF7FEFF 		bl	chMtxLock
 171              	.LVL14:
ARM GAS  /tmp/ccJWSgRE.s 			page 4


 172              		.loc 1 142 0
 173 001c 03E0     		b	.L15
 174              	.LVL15:
 175              	.L19:
 176              		.loc 1 144 0
 177 001e 4368     		ldr	r3, [r0, #4]
 178 0020 AB42     		cmp	r3, r5
 179 0022 11D2     		bcs	.L28
 180 0024 0446     		mov	r4, r0
 181              	.LVL16:
 182              	.L15:
 183              		.loc 1 142 0
 184 0026 2068     		ldr	r0, [r4]
 185              	.LVL17:
 186 0028 0028     		cmp	r0, #0
 187 002a F8D1     		bne	.L19
 188              		.loc 1 167 0
 189 002c FFF7FEFF 		bl	chMtxUnlock
 190              	.LVL18:
 191              		.loc 1 171 0
 192 0030 3368     		ldr	r3, [r6]
 193 0032 F3B1     		cbz	r3, .L21
 194              		.loc 1 172 0
 195 0034 05F10800 		add	r0, r5, #8
 196 0038 9847     		blx	r3
 197              	.LVL19:
 198              		.loc 1 173 0
 199 003a D0B1     		cbz	r0, .L21
 200              		.loc 1 175 0
 201 003c C0E90065 		strd	r6, r5, [r0]
 202              		.loc 1 176 0
 203 0040 00F10804 		add	r4, r0, #8
 204              	.LVL20:
 205              	.L13:
 206              		.loc 1 181 0
 207 0044 2046     		mov	r0, r4
 208 0046 F8BD     		pop	{r3, r4, r5, r6, r7, pc}
 209              	.LVL21:
 210              	.L28:
 211              		.loc 1 145 0
 212 0048 05F10802 		add	r2, r5, #8
 213 004c 9342     		cmp	r3, r2
 214 004e 0168     		ldr	r1, [r0]
 215 0050 07D2     		bcs	.L16
 216              		.loc 1 149 0
 217 0052 2160     		str	r1, [r4]
 218              	.L17:
 219              		.loc 1 159 0
 220 0054 0446     		mov	r4, r0
 221              	.LVL22:
 222 0056 44F8086B 		str	r6, [r4], #8
 223              		.loc 1 161 0
 224 005a FFF7FEFF 		bl	chMtxUnlock
 225              	.LVL23:
 226              		.loc 1 181 0
 227 005e 2046     		mov	r0, r4
 228 0060 F8BD     		pop	{r3, r4, r5, r6, r7, pc}
ARM GAS  /tmp/ccJWSgRE.s 			page 5


 229              	.LVL24:
 230              	.L16:
 231              		.loc 1 153 0
 232 0062 8718     		adds	r7, r0, r2
 233              	.LVL25:
 234              		.loc 1 155 0
 235 0064 5B1B     		subs	r3, r3, r5
 236 0066 083B     		subs	r3, r3, #8
 237              		.loc 1 154 0
 238 0068 8150     		str	r1, [r0, r2]
 239              		.loc 1 155 0
 240 006a 7B60     		str	r3, [r7, #4]
 241              		.loc 1 156 0
 242 006c 2760     		str	r7, [r4]
 243              		.loc 1 157 0
 244 006e 4560     		str	r5, [r0, #4]
 245 0070 F0E7     		b	.L17
 246              	.LVL26:
 247              	.L21:
 248              		.loc 1 180 0
 249 0072 0024     		movs	r4, #0
 250              	.LVL27:
 251 0074 E6E7     		b	.L13
 252              	.L30:
 253 0076 00BF     		.align	2
 254              	.L29:
 255 0078 00000000 		.word	.LANCHOR0
 256              		.cfi_endproc
 257              	.LFE9:
 258              		.size	chHeapAlloc, .-chHeapAlloc
 259              		.section	.text.chHeapFree,"ax",%progbits
 260              		.align	1
 261              		.p2align 4,,15
 262              		.global	chHeapFree
 263              		.syntax unified
 264              		.thumb
 265              		.thumb_func
 266              		.fpu fpv4-sp-d16
 267              		.type	chHeapFree, %function
 268              	chHeapFree:
 269              	.LFB10:
 270              		.loc 1 194 0
 271              		.cfi_startproc
 272              		@ args = 0, pretend = 0, frame = 0
 273              		@ frame_needed = 0, uses_anonymous_args = 0
 274              	.LVL28:
 275 0000 2DE9F041 		push	{r4, r5, r6, r7, r8, lr}
 276              		.cfi_def_cfa_offset 24
 277              		.cfi_offset 4, -24
 278              		.cfi_offset 5, -20
 279              		.cfi_offset 6, -16
 280              		.cfi_offset 7, -12
 281              		.cfi_offset 8, -8
 282              		.cfi_offset 14, -4
 283              		.loc 1 198 0
 284 0004 8046     		mov	r8, r0
 285 0006 0028     		cmp	r0, #0
ARM GAS  /tmp/ccJWSgRE.s 			page 6


 286 0008 4DD0     		beq	.L44
 287              	.LVL29:
 288              	.L32:
 289              		.loc 1 201 0
 290 000a 58F8080C 		ldr	r0, [r8, #-8]
 291              		.loc 1 206 0
 292 000e 284F     		ldr	r7, .L48
 293              		.loc 1 202 0
 294 0010 00F10806 		add	r6, r0, #8
 295              		.loc 1 203 0
 296 0014 1030     		adds	r0, r0, #16
 297 0016 FFF7FEFF 		bl	chMtxLock
 298              	.LVL30:
 299              		.loc 1 202 0
 300 001a 3446     		mov	r4, r6
 301              		.loc 1 200 0
 302 001c A8F10805 		sub	r5, r8, #8
 303              	.LVL31:
 304              	.L33:
 305              		.loc 1 206 0
 306 0020 AC42     		cmp	r4, r5
 307 0022 04D8     		bhi	.L34
 308              		.loc 1 206 0 is_stmt 0 discriminator 1
 309 0024 6368     		ldr	r3, [r4, #4]
 310 0026 0833     		adds	r3, r3, #8
 311 0028 2344     		add	r3, r3, r4
 312 002a 9D42     		cmp	r5, r3
 313 002c 1ED3     		bcc	.L45
 314              	.L34:
 315              		.loc 1 210 0 is_stmt 1
 316 002e B442     		cmp	r4, r6
 317 0030 2368     		ldr	r3, [r4]
 318 0032 01D0     		beq	.L35
 319              		.loc 1 210 0 is_stmt 0 discriminator 2
 320 0034 AC42     		cmp	r4, r5
 321 0036 02D2     		bcs	.L36
 322              	.L35:
 323              		.loc 1 210 0 discriminator 3
 324 0038 1BB1     		cbz	r3, .L37
 325              		.loc 1 211 0 is_stmt 1
 326 003a 9D42     		cmp	r5, r3
 327 003c 01D3     		bcc	.L37
 328              	.L36:
 329              		.loc 1 194 0
 330 003e 1C46     		mov	r4, r3
 331              	.LVL32:
 332 0040 EEE7     		b	.L33
 333              	.LVL33:
 334              	.L37:
 335              		.loc 1 213 0
 336 0042 48F8083C 		str	r3, [r8, #-8]
 337              		.loc 1 216 0
 338 0046 58F8043C 		ldr	r3, [r8, #-4]
 339              		.loc 1 214 0
 340 004a 2560     		str	r5, [r4]
 341              		.loc 1 216 0
 342 004c 58F8081C 		ldr	r1, [r8, #-8]
ARM GAS  /tmp/ccJWSgRE.s 			page 7


 343 0050 08EB0302 		add	r2, r8, r3
 344 0054 8A42     		cmp	r2, r1
 345 0056 0DD0     		beq	.L46
 346              		.loc 1 221 0
 347 0058 6268     		ldr	r2, [r4, #4]
 348 005a 02F10803 		add	r3, r2, #8
 349 005e 2344     		add	r3, r3, r4
 350 0060 9D42     		cmp	r5, r3
 351 0062 16D0     		beq	.L47
 352              	.L39:
 353              		.loc 1 233 0
 354 0064 BDE8F041 		pop	{r4, r5, r6, r7, r8, lr}
 355              		.cfi_remember_state
 356              		.cfi_restore 14
 357              		.cfi_restore 8
 358              		.cfi_restore 7
 359              		.cfi_restore 6
 360              		.cfi_restore 5
 361              		.cfi_restore 4
 362              		.cfi_def_cfa_offset 0
 363              	.LVL34:
 364              		.loc 1 231 0
 365 0068 FFF7FEBF 		b	chMtxUnlock
 366              	.LVL35:
 367              	.L45:
 368              		.cfi_restore_state
 369              		.loc 1 206 0 discriminator 2
 370 006c 3846     		mov	r0, r7
 371 006e FFF7FEFF 		bl	chDbgPanic
 372              	.LVL36:
 373 0072 DCE7     		b	.L34
 374              	.L46:
 375              		.loc 1 218 0
 376 0074 5268     		ldr	r2, [r2, #4]
 377              		.loc 1 219 0
 378 0076 58F80310 		ldr	r1, [r8, r3]
 379 007a 48F8081C 		str	r1, [r8, #-8]
 380              		.loc 1 218 0
 381 007e 0833     		adds	r3, r3, #8
 382 0080 1344     		add	r3, r3, r2
 383 0082 48F8043C 		str	r3, [r8, #-4]
 384              		.loc 1 221 0
 385 0086 6268     		ldr	r2, [r4, #4]
 386 0088 02F10803 		add	r3, r2, #8
 387 008c 2344     		add	r3, r3, r4
 388 008e 9D42     		cmp	r5, r3
 389 0090 E8D1     		bne	.L39
 390              	.L47:
 391              		.loc 1 224 0
 392 0092 58E90213 		ldrd	r1, r3, [r8, #-8]
 393              		.loc 1 223 0
 394 0096 0833     		adds	r3, r3, #8
 395 0098 1A44     		add	r2, r2, r3
 396              		.loc 1 224 0
 397 009a 2160     		str	r1, [r4]
 398              		.loc 1 223 0
 399 009c 6260     		str	r2, [r4, #4]
ARM GAS  /tmp/ccJWSgRE.s 			page 8


 400              		.loc 1 233 0
 401 009e BDE8F041 		pop	{r4, r5, r6, r7, r8, lr}
 402              		.cfi_remember_state
 403              		.cfi_restore 14
 404              		.cfi_restore 8
 405              		.cfi_restore 7
 406              		.cfi_restore 6
 407              		.cfi_restore 5
 408              		.cfi_restore 4
 409              		.cfi_def_cfa_offset 0
 410              	.LVL37:
 411              		.loc 1 231 0
 412 00a2 FFF7FEBF 		b	chMtxUnlock
 413              	.LVL38:
 414              	.L44:
 415              		.cfi_restore_state
 416              		.loc 1 198 0 discriminator 1
 417 00a6 0348     		ldr	r0, .L48+4
 418              	.LVL39:
 419 00a8 FFF7FEFF 		bl	chDbgPanic
 420              	.LVL40:
 421 00ac ADE7     		b	.L32
 422              	.L49:
 423 00ae 00BF     		.align	2
 424              	.L48:
 425 00b0 10000000 		.word	.LC2
 426 00b4 00000000 		.word	.LC1
 427              		.cfi_endproc
 428              	.LFE10:
 429              		.size	chHeapFree, .-chHeapFree
 430              		.section	.text.chHeapStatus,"ax",%progbits
 431              		.align	1
 432              		.p2align 4,,15
 433              		.global	chHeapStatus
 434              		.syntax unified
 435              		.thumb
 436              		.thumb_func
 437              		.fpu fpv4-sp-d16
 438              		.type	chHeapStatus, %function
 439              	chHeapStatus:
 440              	.LFB11:
 441              		.loc 1 250 0
 442              		.cfi_startproc
 443              		@ args = 0, pretend = 0, frame = 0
 444              		@ frame_needed = 0, uses_anonymous_args = 0
 445              	.LVL41:
 446 0000 38B5     		push	{r3, r4, r5, lr}
 447              		.cfi_def_cfa_offset 16
 448              		.cfi_offset 3, -16
 449              		.cfi_offset 4, -12
 450              		.cfi_offset 5, -8
 451              		.cfi_offset 14, -4
 452              		.loc 1 255 0
 453 0002 0E4C     		ldr	r4, .L61
 454 0004 0028     		cmp	r0, #0
 455 0006 18BF     		it	ne
 456 0008 0446     		movne	r4, r0
ARM GAS  /tmp/ccJWSgRE.s 			page 9


 457              	.LVL42:
 458              		.loc 1 257 0
 459 000a 04F11000 		add	r0, r4, #16
 460              		.loc 1 250 0
 461 000e 0D46     		mov	r5, r1
 462              		.loc 1 257 0
 463 0010 FFF7FEFF 		bl	chMtxLock
 464              	.LVL43:
 465              		.loc 1 260 0
 466 0014 A368     		ldr	r3, [r4, #8]
 467 0016 6BB1     		cbz	r3, .L55
 468              		.loc 1 259 0
 469 0018 0022     		movs	r2, #0
 470              		.loc 1 260 0
 471 001a 1446     		mov	r4, r2
 472              	.LVL44:
 473              	.L53:
 474              		.loc 1 260 0 is_stmt 0 discriminator 3
 475 001c D3E90030 		ldrd	r3, r0, [r3]
 476 0020 0134     		adds	r4, r4, #1
 477              	.LVL45:
 478              		.loc 1 261 0 is_stmt 1 discriminator 3
 479 0022 0244     		add	r2, r2, r0
 480              	.LVL46:
 481              		.loc 1 260 0 discriminator 3
 482 0024 002B     		cmp	r3, #0
 483 0026 F9D1     		bne	.L53
 484              	.LVL47:
 485              	.L52:
 486              		.loc 1 262 0
 487 0028 05B1     		cbz	r5, .L54
 488              		.loc 1 263 0
 489 002a 2A60     		str	r2, [r5]
 490              	.L54:
 491              		.loc 1 265 0
 492 002c FFF7FEFF 		bl	chMtxUnlock
 493              	.LVL48:
 494              		.loc 1 267 0
 495 0030 2046     		mov	r0, r4
 496 0032 38BD     		pop	{r3, r4, r5, pc}
 497              	.LVL49:
 498              	.L55:
 499              		.loc 1 259 0
 500 0034 1A46     		mov	r2, r3
 501              		.loc 1 260 0
 502 0036 1C46     		mov	r4, r3
 503              	.LVL50:
 504 0038 F6E7     		b	.L52
 505              	.L62:
 506 003a 00BF     		.align	2
 507              	.L61:
 508 003c 00000000 		.word	.LANCHOR0
 509              		.cfi_endproc
 510              	.LFE11:
 511              		.size	chHeapStatus, .-chHeapStatus
 512              		.section	.bss.default_heap,"aw",%nobits
 513              		.align	3
ARM GAS  /tmp/ccJWSgRE.s 			page 10


 514              		.set	.LANCHOR0,. + 0
 515              		.type	default_heap, %object
 516              		.size	default_heap, 32
 517              	default_heap:
 518 0000 00000000 		.space	32
 518      00000000 
 518      00000000 
 518      00000000 
 518      00000000 
 519              		.section	.rodata.chHeapFree.str1.4,"aMS",%progbits,1
 520              		.align	2
 521              	.LC1:
 522 0000 22636848 		.ascii	"\"chHeapFree\"()\000"
 522      65617046 
 522      72656522 
 522      282900
 523 000f 00       		.space	1
 524              	.LC2:
 525 0010 63684865 		.ascii	"chHeapFree(), #1\000"
 525      61704672 
 525      65652829 
 525      2C202331 
 525      00
 526              		.section	.rodata.chHeapInit.str1.4,"aMS",%progbits,1
 527              		.align	2
 528              	.LC0:
 529 0000 22636848 		.ascii	"\"chHeapInit\"()\000"
 529      65617049 
 529      6E697422 
 529      282900
 530              		.text
 531              	.Letext0:
 532              		.file 2 "/usr/lib/gcc/arm-none-eabi/7.3.1/include/stddef.h"
 533              		.file 3 "/usr/arm-none-eabi/include/machine/_default_types.h"
 534              		.file 4 "/usr/arm-none-eabi/include/sys/_stdint.h"
 535              		.file 5 "ChibiOS_2.6.6/os/ports/GCC/ARMCMx/chtypes.h"
 536              		.file 6 "ChibiOS_2.6.6/os/kernel/include/chlists.h"
 537              		.file 7 "ChibiOS_2.6.6/os/kernel/include/chthreads.h"
 538              		.file 8 "ChibiOS_2.6.6/os/ports/GCC/ARMCMx/chcore_v7m.h"
 539              		.file 9 "ChibiOS_2.6.6/os/kernel/include/chvt.h"
 540              		.file 10 "ChibiOS_2.6.6/os/kernel/include/chschd.h"
 541              		.file 11 "ChibiOS_2.6.6/os/kernel/include/chmtx.h"
 542              		.file 12 "ChibiOS_2.6.6/os/kernel/include/chmemcore.h"
 543              		.file 13 "ChibiOS_2.6.6/os/kernel/include/chheap.h"
 544              		.file 14 "ChibiOS_2.6.6/os/kernel/include/chregistry.h"
 545              		.file 15 "ChibiOS_2.6.6/os/kernel/include/chdebug.h"
 546              		.file 16 "ChibiOS_2.6.6/os/kernel/include/ch.h"