ARM GAS  /tmp/ccHnImlr.s 			page 1


   1              		.cpu cortex-m4
   2              		.eabi_attribute 27, 1
   3              		.eabi_attribute 28, 1
   4              		.eabi_attribute 20, 1
   5              		.eabi_attribute 21, 1
   6              		.eabi_attribute 23, 3
   7              		.eabi_attribute 24, 1
   8              		.eabi_attribute 25, 1
   9              		.eabi_attribute 26, 1
  10              		.eabi_attribute 30, 2
  11              		.eabi_attribute 34, 1
  12              		.eabi_attribute 18, 4
  13              		.file	"chmboxes.c"
  14              		.text
  15              	.Ltext0:
  16              		.cfi_sections	.debug_frame
  17              		.section	.text.chMBInit,"ax",%progbits
  18              		.align	1
  19              		.p2align 4,,15
  20              		.global	chMBInit
  21              		.syntax unified
  22              		.thumb
  23              		.thumb_func
  24              		.fpu fpv4-sp-d16
  25              		.type	chMBInit, %function
  26              	chMBInit:
  27              	.LFB7:
  28              		.file 1 "ChibiOS_2.6.6/os/kernel/src/chmboxes.c"
  29              		.loc 1 72 0
  30              		.cfi_startproc
  31              		@ args = 0, pretend = 0, frame = 0
  32              		@ frame_needed = 0, uses_anonymous_args = 0
  33              	.LVL0:
  34 0000 70B5     		push	{r4, r5, r6, lr}
  35              		.cfi_def_cfa_offset 16
  36              		.cfi_offset 4, -16
  37              		.cfi_offset 5, -12
  38              		.cfi_offset 6, -8
  39              		.cfi_offset 14, -4
  40              		.loc 1 72 0
  41 0002 0D46     		mov	r5, r1
  42 0004 1646     		mov	r6, r2
  43              		.loc 1 74 0
  44 0006 0446     		mov	r4, r0
  45 0008 A0B1     		cbz	r0, .L2
  46              		.loc 1 74 0 is_stmt 0 discriminator 2
  47 000a 99B1     		cbz	r1, .L2
  48              		.loc 1 74 0 discriminator 4
  49 000c 002A     		cmp	r2, #0
  50 000e 11DD     		ble	.L2
  51              	.LVL1:
  52              	.L3:
  53              		.loc 1 77 0 is_stmt 1
  54 0010 05EB8603 		add	r3, r5, r6, lsl #2
  55              		.loc 1 78 0
  56 0014 3146     		mov	r1, r6
  57 0016 04F11C00 		add	r0, r4, #28
ARM GAS  /tmp/ccHnImlr.s 			page 2


  58              		.loc 1 76 0
  59 001a C4E90255 		strd	r5, r5, [r4, #8]
  60              		.loc 1 77 0
  61 001e C4E90053 		strd	r5, r3, [r4]
  62              		.loc 1 78 0
  63 0022 FFF7FEFF 		bl	chSemInit
  64              	.LVL2:
  65              		.loc 1 79 0
  66 0026 04F11000 		add	r0, r4, #16
  67 002a 0021     		movs	r1, #0
  68              		.loc 1 80 0
  69 002c BDE87040 		pop	{r4, r5, r6, lr}
  70              		.cfi_remember_state
  71              		.cfi_restore 14
  72              		.cfi_restore 6
  73              		.cfi_restore 5
  74              		.cfi_restore 4
  75              		.cfi_def_cfa_offset 0
  76              	.LVL3:
  77              		.loc 1 79 0
  78 0030 FFF7FEBF 		b	chSemInit
  79              	.LVL4:
  80              	.L2:
  81              		.cfi_restore_state
  82              		.loc 1 74 0 discriminator 5
  83 0034 0148     		ldr	r0, .L12
  84              	.LVL5:
  85 0036 FFF7FEFF 		bl	chDbgPanic
  86              	.LVL6:
  87 003a E9E7     		b	.L3
  88              	.L13:
  89              		.align	2
  90              	.L12:
  91 003c 00000000 		.word	.LC0
  92              		.cfi_endproc
  93              	.LFE7:
  94              		.size	chMBInit, .-chMBInit
  95              		.section	.text.chMBReset,"ax",%progbits
  96              		.align	1
  97              		.p2align 4,,15
  98              		.global	chMBReset
  99              		.syntax unified
 100              		.thumb
 101              		.thumb_func
 102              		.fpu fpv4-sp-d16
 103              		.type	chMBReset, %function
 104              	chMBReset:
 105              	.LFB8:
 106              		.loc 1 91 0
 107              		.cfi_startproc
 108              		@ args = 0, pretend = 0, frame = 0
 109              		@ frame_needed = 0, uses_anonymous_args = 0
 110              	.LVL7:
 111 0000 10B5     		push	{r4, lr}
 112              		.cfi_def_cfa_offset 8
 113              		.cfi_offset 4, -8
 114              		.cfi_offset 14, -4
ARM GAS  /tmp/ccHnImlr.s 			page 3


 115              		.loc 1 93 0
 116 0002 0446     		mov	r4, r0
 117 0004 B8B1     		cbz	r0, .L17
 118              	.LVL8:
 119              	.L15:
 120              		.loc 1 95 0
 121              		.syntax unified
 122              	@ 95 "ChibiOS_2.6.6/os/kernel/src/chmboxes.c" 1
 123 0006 72B6     		cpsid   i
 124              	@ 0 "" 2
 125              		.thumb
 126              		.syntax unified
 127 0008 FFF7FEFF 		bl	dbg_check_lock
 128              	.LVL9:
 129              		.loc 1 97 0
 130 000c D4E90031 		ldrd	r3, r1, [r4]
 131 0010 C91A     		subs	r1, r1, r3
 132              		.loc 1 96 0
 133 0012 E360     		str	r3, [r4, #12]
 134 0014 A360     		str	r3, [r4, #8]
 135              		.loc 1 97 0
 136 0016 04F11C00 		add	r0, r4, #28
 137 001a 8910     		asrs	r1, r1, #2
 138 001c FFF7FEFF 		bl	chSemResetI
 139              	.LVL10:
 140              		.loc 1 98 0
 141 0020 04F11000 		add	r0, r4, #16
 142 0024 0021     		movs	r1, #0
 143 0026 FFF7FEFF 		bl	chSemResetI
 144              	.LVL11:
 145              		.loc 1 99 0
 146 002a FFF7FEFF 		bl	chSchRescheduleS
 147              	.LVL12:
 148              		.loc 1 100 0
 149 002e FFF7FEFF 		bl	dbg_check_unlock
 150              	.LVL13:
 151              		.syntax unified
 152              	@ 100 "ChibiOS_2.6.6/os/kernel/src/chmboxes.c" 1
 153 0032 62B6     		cpsie   i
 154              	@ 0 "" 2
 155              		.loc 1 101 0
 156              		.thumb
 157              		.syntax unified
 158 0034 10BD     		pop	{r4, pc}
 159              	.LVL14:
 160              	.L17:
 161              		.loc 1 93 0 discriminator 1
 162 0036 0248     		ldr	r0, .L18
 163              	.LVL15:
 164 0038 FFF7FEFF 		bl	chDbgPanic
 165              	.LVL16:
 166 003c E3E7     		b	.L15
 167              	.L19:
 168 003e 00BF     		.align	2
 169              	.L18:
 170 0040 00000000 		.word	.LC1
 171              		.cfi_endproc
ARM GAS  /tmp/ccHnImlr.s 			page 4


 172              	.LFE8:
 173              		.size	chMBReset, .-chMBReset
 174              		.section	.text.chMBPostS,"ax",%progbits
 175              		.align	1
 176              		.p2align 4,,15
 177              		.global	chMBPostS
 178              		.syntax unified
 179              		.thumb
 180              		.thumb_func
 181              		.fpu fpv4-sp-d16
 182              		.type	chMBPostS, %function
 183              	chMBPostS:
 184              	.LFB10:
 185              		.loc 1 150 0
 186              		.cfi_startproc
 187              		@ args = 0, pretend = 0, frame = 0
 188              		@ frame_needed = 0, uses_anonymous_args = 0
 189              	.LVL17:
 190 0000 70B5     		push	{r4, r5, r6, lr}
 191              		.cfi_def_cfa_offset 16
 192              		.cfi_offset 4, -16
 193              		.cfi_offset 5, -12
 194              		.cfi_offset 6, -8
 195              		.cfi_offset 14, -4
 196              		.loc 1 150 0
 197 0002 0446     		mov	r4, r0
 198 0004 0E46     		mov	r6, r1
 199 0006 1546     		mov	r5, r2
 200              		.loc 1 153 0
 201 0008 FFF7FEFF 		bl	chDbgCheckClassS
 202              	.LVL18:
 203              		.loc 1 154 0
 204 000c C4B1     		cbz	r4, .L25
 205              	.L21:
 206              		.loc 1 156 0
 207 000e 2946     		mov	r1, r5
 208 0010 04F11C00 		add	r0, r4, #28
 209 0014 FFF7FEFF 		bl	chSemWaitTimeoutS
 210              	.LVL19:
 211              		.loc 1 157 0
 212 0018 0546     		mov	r5, r0
 213              	.LVL20:
 214 001a 78B9     		cbnz	r0, .L20
 215              	.LVL21:
 216              	.LBB4:
 217              	.LBB5:
 218              		.loc 1 159 0
 219 001c D4E90112 		ldrd	r1, r2, [r4, #4]
 220              		.loc 1 158 0
 221 0020 131D     		adds	r3, r2, #4
 222              		.loc 1 159 0
 223 0022 8B42     		cmp	r3, r1
 224              		.loc 1 158 0
 225 0024 A360     		str	r3, [r4, #8]
 226              		.loc 1 160 0
 227 0026 28BF     		it	cs
 228 0028 2368     		ldrcs	r3, [r4]
ARM GAS  /tmp/ccHnImlr.s 			page 5


 229              		.loc 1 158 0
 230 002a 1660     		str	r6, [r2]
 231              		.loc 1 161 0
 232 002c 04F11000 		add	r0, r4, #16
 233              	.LVL22:
 234              		.loc 1 160 0
 235 0030 28BF     		it	cs
 236 0032 A360     		strcs	r3, [r4, #8]
 237              		.loc 1 161 0
 238 0034 FFF7FEFF 		bl	chSemSignalI
 239              	.LVL23:
 240              		.loc 1 162 0
 241 0038 FFF7FEFF 		bl	chSchRescheduleS
 242              	.LVL24:
 243              	.L20:
 244              	.LBE5:
 245              	.LBE4:
 246              		.loc 1 165 0
 247 003c 2846     		mov	r0, r5
 248 003e 70BD     		pop	{r4, r5, r6, pc}
 249              	.LVL25:
 250              	.L25:
 251              		.loc 1 154 0 discriminator 1
 252 0040 0148     		ldr	r0, .L26
 253 0042 FFF7FEFF 		bl	chDbgPanic
 254              	.LVL26:
 255 0046 E2E7     		b	.L21
 256              	.L27:
 257              		.align	2
 258              	.L26:
 259 0048 00000000 		.word	.LC2
 260              		.cfi_endproc
 261              	.LFE10:
 262              		.size	chMBPostS, .-chMBPostS
 263              		.section	.text.chMBPost,"ax",%progbits
 264              		.align	1
 265              		.p2align 4,,15
 266              		.global	chMBPost
 267              		.syntax unified
 268              		.thumb
 269              		.thumb_func
 270              		.fpu fpv4-sp-d16
 271              		.type	chMBPost, %function
 272              	chMBPost:
 273              	.LFB9:
 274              		.loc 1 122 0
 275              		.cfi_startproc
 276              		@ args = 0, pretend = 0, frame = 0
 277              		@ frame_needed = 0, uses_anonymous_args = 0
 278              	.LVL27:
 279 0000 70B5     		push	{r4, r5, r6, lr}
 280              		.cfi_def_cfa_offset 16
 281              		.cfi_offset 4, -16
 282              		.cfi_offset 5, -12
 283              		.cfi_offset 6, -8
 284              		.cfi_offset 14, -4
 285              		.loc 1 122 0
ARM GAS  /tmp/ccHnImlr.s 			page 6


 286 0002 0446     		mov	r4, r0
 287 0004 0D46     		mov	r5, r1
 288 0006 1646     		mov	r6, r2
 289              		.loc 1 125 0
 290              		.syntax unified
 291              	@ 125 "ChibiOS_2.6.6/os/kernel/src/chmboxes.c" 1
 292 0008 72B6     		cpsid   i
 293              	@ 0 "" 2
 294              		.thumb
 295              		.syntax unified
 296 000a FFF7FEFF 		bl	dbg_check_lock
 297              	.LVL28:
 298              		.loc 1 126 0
 299 000e 3246     		mov	r2, r6
 300 0010 2946     		mov	r1, r5
 301 0012 2046     		mov	r0, r4
 302 0014 FFF7FEFF 		bl	chMBPostS
 303              	.LVL29:
 304 0018 0446     		mov	r4, r0
 305              	.LVL30:
 306              		.loc 1 127 0
 307 001a FFF7FEFF 		bl	dbg_check_unlock
 308              	.LVL31:
 309              		.syntax unified
 310              	@ 127 "ChibiOS_2.6.6/os/kernel/src/chmboxes.c" 1
 311 001e 62B6     		cpsie   i
 312              	@ 0 "" 2
 313              		.loc 1 129 0
 314              		.thumb
 315              		.syntax unified
 316 0020 2046     		mov	r0, r4
 317 0022 70BD     		pop	{r4, r5, r6, pc}
 318              		.cfi_endproc
 319              	.LFE9:
 320              		.size	chMBPost, .-chMBPost
 321              		.section	.text.chMBPostI,"ax",%progbits
 322              		.align	1
 323              		.p2align 4,,15
 324              		.global	chMBPostI
 325              		.syntax unified
 326              		.thumb
 327              		.thumb_func
 328              		.fpu fpv4-sp-d16
 329              		.type	chMBPostI, %function
 330              	chMBPostI:
 331              	.LFB11:
 332              		.loc 1 181 0
 333              		.cfi_startproc
 334              		@ args = 0, pretend = 0, frame = 0
 335              		@ frame_needed = 0, uses_anonymous_args = 0
 336              	.LVL32:
 337 0000 38B5     		push	{r3, r4, r5, lr}
 338              		.cfi_def_cfa_offset 16
 339              		.cfi_offset 3, -16
 340              		.cfi_offset 4, -12
 341              		.cfi_offset 5, -8
 342              		.cfi_offset 14, -4
ARM GAS  /tmp/ccHnImlr.s 			page 7


 343              		.loc 1 181 0
 344 0002 0446     		mov	r4, r0
 345 0004 0D46     		mov	r5, r1
 346              		.loc 1 183 0
 347 0006 FFF7FEFF 		bl	chDbgCheckClassI
 348              	.LVL33:
 349              		.loc 1 184 0
 350 000a A4B1     		cbz	r4, .L36
 351              	.L31:
 352              		.loc 1 186 0
 353 000c 636A     		ldr	r3, [r4, #36]
 354 000e 002B     		cmp	r3, #0
 355 0010 15DD     		ble	.L34
 356              		.loc 1 190 0
 357 0012 D4E90110 		ldrd	r1, r0, [r4, #4]
 358              		.loc 1 189 0
 359 0016 021D     		adds	r2, r0, #4
 360              		.loc 1 188 0
 361 0018 013B     		subs	r3, r3, #1
 362              		.loc 1 190 0
 363 001a 8A42     		cmp	r2, r1
 364              		.loc 1 188 0
 365 001c 6362     		str	r3, [r4, #36]
 366              		.loc 1 191 0
 367 001e 28BF     		it	cs
 368 0020 2368     		ldrcs	r3, [r4]
 369              		.loc 1 189 0
 370 0022 A260     		str	r2, [r4, #8]
 371 0024 0560     		str	r5, [r0]
 372              		.loc 1 192 0
 373 0026 04F11000 		add	r0, r4, #16
 374              		.loc 1 191 0
 375 002a 28BF     		it	cs
 376 002c A360     		strcs	r3, [r4, #8]
 377              		.loc 1 192 0
 378 002e FFF7FEFF 		bl	chSemSignalI
 379              	.LVL34:
 380              		.loc 1 193 0
 381 0032 0020     		movs	r0, #0
 382              		.loc 1 194 0
 383 0034 38BD     		pop	{r3, r4, r5, pc}
 384              	.LVL35:
 385              	.L36:
 386              		.loc 1 184 0 discriminator 1
 387 0036 0348     		ldr	r0, .L37
 388 0038 FFF7FEFF 		bl	chDbgPanic
 389              	.LVL36:
 390 003c E6E7     		b	.L31
 391              	.L34:
 392              		.loc 1 187 0
 393 003e 4FF0FF30 		mov	r0, #-1
 394              		.loc 1 194 0
 395 0042 38BD     		pop	{r3, r4, r5, pc}
 396              	.LVL37:
 397              	.L38:
 398              		.align	2
 399              	.L37:
ARM GAS  /tmp/ccHnImlr.s 			page 8


 400 0044 00000000 		.word	.LC3
 401              		.cfi_endproc
 402              	.LFE11:
 403              		.size	chMBPostI, .-chMBPostI
 404              		.section	.text.chMBPostAheadS,"ax",%progbits
 405              		.align	1
 406              		.p2align 4,,15
 407              		.global	chMBPostAheadS
 408              		.syntax unified
 409              		.thumb
 410              		.thumb_func
 411              		.fpu fpv4-sp-d16
 412              		.type	chMBPostAheadS, %function
 413              	chMBPostAheadS:
 414              	.LFB13:
 415              		.loc 1 243 0
 416              		.cfi_startproc
 417              		@ args = 0, pretend = 0, frame = 0
 418              		@ frame_needed = 0, uses_anonymous_args = 0
 419              	.LVL38:
 420 0000 70B5     		push	{r4, r5, r6, lr}
 421              		.cfi_def_cfa_offset 16
 422              		.cfi_offset 4, -16
 423              		.cfi_offset 5, -12
 424              		.cfi_offset 6, -8
 425              		.cfi_offset 14, -4
 426              		.loc 1 243 0
 427 0002 0446     		mov	r4, r0
 428 0004 0E46     		mov	r6, r1
 429 0006 1546     		mov	r5, r2
 430              		.loc 1 246 0
 431 0008 FFF7FEFF 		bl	chDbgCheckClassS
 432              	.LVL39:
 433              		.loc 1 247 0
 434 000c CCB1     		cbz	r4, .L44
 435              	.L40:
 436              		.loc 1 249 0
 437 000e 2946     		mov	r1, r5
 438 0010 04F11C00 		add	r0, r4, #28
 439 0014 FFF7FEFF 		bl	chSemWaitTimeoutS
 440              	.LVL40:
 441              		.loc 1 250 0
 442 0018 0546     		mov	r5, r0
 443              	.LVL41:
 444 001a 60B9     		cbnz	r0, .L39
 445              	.LVL42:
 446              	.LBB8:
 447              	.LBB9:
 448              		.loc 1 251 0
 449 001c E368     		ldr	r3, [r4, #12]
 450 001e 2268     		ldr	r2, [r4]
 451 0020 043B     		subs	r3, r3, #4
 452 0022 9342     		cmp	r3, r2
 453 0024 E360     		str	r3, [r4, #12]
 454 0026 08D3     		bcc	.L45
 455              	.L42:
 456              		.loc 1 253 0
ARM GAS  /tmp/ccHnImlr.s 			page 9


 457 0028 1E60     		str	r6, [r3]
 458              		.loc 1 254 0
 459 002a 04F11000 		add	r0, r4, #16
 460              	.LVL43:
 461 002e FFF7FEFF 		bl	chSemSignalI
 462              	.LVL44:
 463              		.loc 1 255 0
 464 0032 FFF7FEFF 		bl	chSchRescheduleS
 465              	.LVL45:
 466              	.L39:
 467              	.LBE9:
 468              	.LBE8:
 469              		.loc 1 258 0
 470 0036 2846     		mov	r0, r5
 471 0038 70BD     		pop	{r4, r5, r6, pc}
 472              	.LVL46:
 473              	.L45:
 474              	.LBB11:
 475              	.LBB10:
 476              		.loc 1 252 0
 477 003a 6368     		ldr	r3, [r4, #4]
 478 003c 043B     		subs	r3, r3, #4
 479 003e E360     		str	r3, [r4, #12]
 480 0040 F2E7     		b	.L42
 481              	.LVL47:
 482              	.L44:
 483              	.LBE10:
 484              	.LBE11:
 485              		.loc 1 247 0 discriminator 1
 486 0042 0248     		ldr	r0, .L46
 487 0044 FFF7FEFF 		bl	chDbgPanic
 488              	.LVL48:
 489 0048 E1E7     		b	.L40
 490              	.L47:
 491 004a 00BF     		.align	2
 492              	.L46:
 493 004c 00000000 		.word	.LC4
 494              		.cfi_endproc
 495              	.LFE13:
 496              		.size	chMBPostAheadS, .-chMBPostAheadS
 497              		.section	.text.chMBPostAhead,"ax",%progbits
 498              		.align	1
 499              		.p2align 4,,15
 500              		.global	chMBPostAhead
 501              		.syntax unified
 502              		.thumb
 503              		.thumb_func
 504              		.fpu fpv4-sp-d16
 505              		.type	chMBPostAhead, %function
 506              	chMBPostAhead:
 507              	.LFB12:
 508              		.loc 1 215 0
 509              		.cfi_startproc
 510              		@ args = 0, pretend = 0, frame = 0
 511              		@ frame_needed = 0, uses_anonymous_args = 0
 512              	.LVL49:
 513 0000 70B5     		push	{r4, r5, r6, lr}
ARM GAS  /tmp/ccHnImlr.s 			page 10


 514              		.cfi_def_cfa_offset 16
 515              		.cfi_offset 4, -16
 516              		.cfi_offset 5, -12
 517              		.cfi_offset 6, -8
 518              		.cfi_offset 14, -4
 519              		.loc 1 215 0
 520 0002 0446     		mov	r4, r0
 521 0004 0D46     		mov	r5, r1
 522 0006 1646     		mov	r6, r2
 523              		.loc 1 218 0
 524              		.syntax unified
 525              	@ 218 "ChibiOS_2.6.6/os/kernel/src/chmboxes.c" 1
 526 0008 72B6     		cpsid   i
 527              	@ 0 "" 2
 528              		.thumb
 529              		.syntax unified
 530 000a FFF7FEFF 		bl	dbg_check_lock
 531              	.LVL50:
 532              		.loc 1 219 0
 533 000e 3246     		mov	r2, r6
 534 0010 2946     		mov	r1, r5
 535 0012 2046     		mov	r0, r4
 536 0014 FFF7FEFF 		bl	chMBPostAheadS
 537              	.LVL51:
 538 0018 0446     		mov	r4, r0
 539              	.LVL52:
 540              		.loc 1 220 0
 541 001a FFF7FEFF 		bl	dbg_check_unlock
 542              	.LVL53:
 543              		.syntax unified
 544              	@ 220 "ChibiOS_2.6.6/os/kernel/src/chmboxes.c" 1
 545 001e 62B6     		cpsie   i
 546              	@ 0 "" 2
 547              		.loc 1 222 0
 548              		.thumb
 549              		.syntax unified
 550 0020 2046     		mov	r0, r4
 551 0022 70BD     		pop	{r4, r5, r6, pc}
 552              		.cfi_endproc
 553              	.LFE12:
 554              		.size	chMBPostAhead, .-chMBPostAhead
 555              		.section	.text.chMBPostAheadI,"ax",%progbits
 556              		.align	1
 557              		.p2align 4,,15
 558              		.global	chMBPostAheadI
 559              		.syntax unified
 560              		.thumb
 561              		.thumb_func
 562              		.fpu fpv4-sp-d16
 563              		.type	chMBPostAheadI, %function
 564              	chMBPostAheadI:
 565              	.LFB14:
 566              		.loc 1 274 0
 567              		.cfi_startproc
 568              		@ args = 0, pretend = 0, frame = 0
 569              		@ frame_needed = 0, uses_anonymous_args = 0
 570              	.LVL54:
ARM GAS  /tmp/ccHnImlr.s 			page 11


 571 0000 38B5     		push	{r3, r4, r5, lr}
 572              		.cfi_def_cfa_offset 16
 573              		.cfi_offset 3, -16
 574              		.cfi_offset 4, -12
 575              		.cfi_offset 5, -8
 576              		.cfi_offset 14, -4
 577              		.loc 1 274 0
 578 0002 0446     		mov	r4, r0
 579 0004 0D46     		mov	r5, r1
 580              		.loc 1 276 0
 581 0006 FFF7FEFF 		bl	chDbgCheckClassI
 582              	.LVL55:
 583              		.loc 1 277 0
 584 000a A4B1     		cbz	r4, .L56
 585              	.L51:
 586              		.loc 1 279 0
 587 000c 626A     		ldr	r2, [r4, #36]
 588 000e 002A     		cmp	r2, #0
 589 0010 15DD     		ble	.L54
 590              		.loc 1 282 0
 591 0012 E368     		ldr	r3, [r4, #12]
 592 0014 2168     		ldr	r1, [r4]
 593 0016 043B     		subs	r3, r3, #4
 594              		.loc 1 281 0
 595 0018 013A     		subs	r2, r2, #1
 596              		.loc 1 282 0
 597 001a 8B42     		cmp	r3, r1
 598              		.loc 1 281 0
 599 001c 6262     		str	r2, [r4, #36]
 600              		.loc 1 282 0
 601 001e E360     		str	r3, [r4, #12]
 602 0020 02D2     		bcs	.L53
 603              		.loc 1 283 0
 604 0022 6368     		ldr	r3, [r4, #4]
 605 0024 043B     		subs	r3, r3, #4
 606 0026 E360     		str	r3, [r4, #12]
 607              	.L53:
 608              		.loc 1 285 0
 609 0028 04F11000 		add	r0, r4, #16
 610              		.loc 1 284 0
 611 002c 1D60     		str	r5, [r3]
 612              		.loc 1 285 0
 613 002e FFF7FEFF 		bl	chSemSignalI
 614              	.LVL56:
 615              		.loc 1 286 0
 616 0032 0020     		movs	r0, #0
 617              		.loc 1 287 0
 618 0034 38BD     		pop	{r3, r4, r5, pc}
 619              	.LVL57:
 620              	.L56:
 621              		.loc 1 277 0 discriminator 1
 622 0036 0348     		ldr	r0, .L57
 623 0038 FFF7FEFF 		bl	chDbgPanic
 624              	.LVL58:
 625 003c E6E7     		b	.L51
 626              	.L54:
 627              		.loc 1 280 0
ARM GAS  /tmp/ccHnImlr.s 			page 12


 628 003e 4FF0FF30 		mov	r0, #-1
 629              		.loc 1 287 0
 630 0042 38BD     		pop	{r3, r4, r5, pc}
 631              	.LVL59:
 632              	.L58:
 633              		.align	2
 634              	.L57:
 635 0044 00000000 		.word	.LC5
 636              		.cfi_endproc
 637              	.LFE14:
 638              		.size	chMBPostAheadI, .-chMBPostAheadI
 639              		.section	.text.chMBFetchS,"ax",%progbits
 640              		.align	1
 641              		.p2align 4,,15
 642              		.global	chMBFetchS
 643              		.syntax unified
 644              		.thumb
 645              		.thumb_func
 646              		.fpu fpv4-sp-d16
 647              		.type	chMBFetchS, %function
 648              	chMBFetchS:
 649              	.LFB16:
 650              		.loc 1 336 0
 651              		.cfi_startproc
 652              		@ args = 0, pretend = 0, frame = 0
 653              		@ frame_needed = 0, uses_anonymous_args = 0
 654              	.LVL60:
 655 0000 70B5     		push	{r4, r5, r6, lr}
 656              		.cfi_def_cfa_offset 16
 657              		.cfi_offset 4, -16
 658              		.cfi_offset 5, -12
 659              		.cfi_offset 6, -8
 660              		.cfi_offset 14, -4
 661              		.loc 1 336 0
 662 0002 0446     		mov	r4, r0
 663 0004 0E46     		mov	r6, r1
 664 0006 1546     		mov	r5, r2
 665              		.loc 1 339 0
 666 0008 FFF7FEFF 		bl	chDbgCheckClassS
 667              	.LVL61:
 668              		.loc 1 340 0
 669 000c D4B1     		cbz	r4, .L60
 670              		.loc 1 340 0 is_stmt 0 discriminator 2
 671 000e CEB1     		cbz	r6, .L60
 672              	.L61:
 673              		.loc 1 342 0 is_stmt 1
 674 0010 2946     		mov	r1, r5
 675 0012 04F11000 		add	r0, r4, #16
 676 0016 FFF7FEFF 		bl	chSemWaitTimeoutS
 677              	.LVL62:
 678              		.loc 1 343 0
 679 001a 0546     		mov	r5, r0
 680              	.LVL63:
 681 001c 80B9     		cbnz	r0, .L59
 682              	.LVL64:
 683              	.LBB14:
 684              	.LBB15:
ARM GAS  /tmp/ccHnImlr.s 			page 13


 685              		.loc 1 344 0
 686 001e E368     		ldr	r3, [r4, #12]
 687              		.loc 1 345 0
 688 0020 6268     		ldr	r2, [r4, #4]
 689              		.loc 1 344 0
 690 0022 1968     		ldr	r1, [r3]
 691 0024 0433     		adds	r3, r3, #4
 692              		.loc 1 345 0
 693 0026 9342     		cmp	r3, r2
 694              		.loc 1 344 0
 695 0028 E360     		str	r3, [r4, #12]
 696              		.loc 1 346 0
 697 002a 28BF     		it	cs
 698 002c 2368     		ldrcs	r3, [r4]
 699              		.loc 1 344 0
 700 002e 3160     		str	r1, [r6]
 701              		.loc 1 347 0
 702 0030 04F11C00 		add	r0, r4, #28
 703              	.LVL65:
 704              		.loc 1 346 0
 705 0034 28BF     		it	cs
 706 0036 E360     		strcs	r3, [r4, #12]
 707              		.loc 1 347 0
 708 0038 FFF7FEFF 		bl	chSemSignalI
 709              	.LVL66:
 710              		.loc 1 348 0
 711 003c FFF7FEFF 		bl	chSchRescheduleS
 712              	.LVL67:
 713              	.L59:
 714              	.LBE15:
 715              	.LBE14:
 716              		.loc 1 351 0
 717 0040 2846     		mov	r0, r5
 718 0042 70BD     		pop	{r4, r5, r6, pc}
 719              	.LVL68:
 720              	.L60:
 721              		.loc 1 340 0 discriminator 3
 722 0044 0148     		ldr	r0, .L68
 723 0046 FFF7FEFF 		bl	chDbgPanic
 724              	.LVL69:
 725 004a E1E7     		b	.L61
 726              	.L69:
 727              		.align	2
 728              	.L68:
 729 004c 00000000 		.word	.LC6
 730              		.cfi_endproc
 731              	.LFE16:
 732              		.size	chMBFetchS, .-chMBFetchS
 733              		.section	.text.chMBFetch,"ax",%progbits
 734              		.align	1
 735              		.p2align 4,,15
 736              		.global	chMBFetch
 737              		.syntax unified
 738              		.thumb
 739              		.thumb_func
 740              		.fpu fpv4-sp-d16
 741              		.type	chMBFetch, %function
ARM GAS  /tmp/ccHnImlr.s 			page 14


 742              	chMBFetch:
 743              	.LFB15:
 744              		.loc 1 308 0
 745              		.cfi_startproc
 746              		@ args = 0, pretend = 0, frame = 0
 747              		@ frame_needed = 0, uses_anonymous_args = 0
 748              	.LVL70:
 749 0000 70B5     		push	{r4, r5, r6, lr}
 750              		.cfi_def_cfa_offset 16
 751              		.cfi_offset 4, -16
 752              		.cfi_offset 5, -12
 753              		.cfi_offset 6, -8
 754              		.cfi_offset 14, -4
 755              		.loc 1 308 0
 756 0002 0446     		mov	r4, r0
 757 0004 0D46     		mov	r5, r1
 758 0006 1646     		mov	r6, r2
 759              		.loc 1 311 0
 760              		.syntax unified
 761              	@ 311 "ChibiOS_2.6.6/os/kernel/src/chmboxes.c" 1
 762 0008 72B6     		cpsid   i
 763              	@ 0 "" 2
 764              		.thumb
 765              		.syntax unified
 766 000a FFF7FEFF 		bl	dbg_check_lock
 767              	.LVL71:
 768              		.loc 1 312 0
 769 000e 3246     		mov	r2, r6
 770 0010 2946     		mov	r1, r5
 771 0012 2046     		mov	r0, r4
 772 0014 FFF7FEFF 		bl	chMBFetchS
 773              	.LVL72:
 774 0018 0446     		mov	r4, r0
 775              	.LVL73:
 776              		.loc 1 313 0
 777 001a FFF7FEFF 		bl	dbg_check_unlock
 778              	.LVL74:
 779              		.syntax unified
 780              	@ 313 "ChibiOS_2.6.6/os/kernel/src/chmboxes.c" 1
 781 001e 62B6     		cpsie   i
 782              	@ 0 "" 2
 783              		.loc 1 315 0
 784              		.thumb
 785              		.syntax unified
 786 0020 2046     		mov	r0, r4
 787 0022 70BD     		pop	{r4, r5, r6, pc}
 788              		.cfi_endproc
 789              	.LFE15:
 790              		.size	chMBFetch, .-chMBFetch
 791              		.section	.text.chMBFetchI,"ax",%progbits
 792              		.align	1
 793              		.p2align 4,,15
 794              		.global	chMBFetchI
 795              		.syntax unified
 796              		.thumb
 797              		.thumb_func
 798              		.fpu fpv4-sp-d16
ARM GAS  /tmp/ccHnImlr.s 			page 15


 799              		.type	chMBFetchI, %function
 800              	chMBFetchI:
 801              	.LFB17:
 802              		.loc 1 367 0
 803              		.cfi_startproc
 804              		@ args = 0, pretend = 0, frame = 0
 805              		@ frame_needed = 0, uses_anonymous_args = 0
 806              	.LVL75:
 807 0000 38B5     		push	{r3, r4, r5, lr}
 808              		.cfi_def_cfa_offset 16
 809              		.cfi_offset 3, -16
 810              		.cfi_offset 4, -12
 811              		.cfi_offset 5, -8
 812              		.cfi_offset 14, -4
 813              		.loc 1 367 0
 814 0002 0446     		mov	r4, r0
 815 0004 0D46     		mov	r5, r1
 816              		.loc 1 369 0
 817 0006 FFF7FEFF 		bl	chDbgCheckClassI
 818              	.LVL76:
 819              		.loc 1 370 0
 820 000a B4B1     		cbz	r4, .L73
 821              		.loc 1 370 0 is_stmt 0 discriminator 2
 822 000c ADB1     		cbz	r5, .L73
 823              	.L74:
 824              		.loc 1 372 0 is_stmt 1
 825 000e A269     		ldr	r2, [r4, #24]
 826 0010 002A     		cmp	r2, #0
 827 0012 16DD     		ble	.L77
 828              		.loc 1 375 0
 829 0014 E368     		ldr	r3, [r4, #12]
 830              		.loc 1 374 0
 831 0016 013A     		subs	r2, r2, #1
 832 0018 A261     		str	r2, [r4, #24]
 833              		.loc 1 376 0
 834 001a 6268     		ldr	r2, [r4, #4]
 835              		.loc 1 375 0
 836 001c 1968     		ldr	r1, [r3]
 837 001e 0433     		adds	r3, r3, #4
 838              		.loc 1 376 0
 839 0020 9342     		cmp	r3, r2
 840              		.loc 1 375 0
 841 0022 E360     		str	r3, [r4, #12]
 842              		.loc 1 377 0
 843 0024 28BF     		it	cs
 844 0026 2368     		ldrcs	r3, [r4]
 845              		.loc 1 375 0
 846 0028 2960     		str	r1, [r5]
 847              		.loc 1 378 0
 848 002a 04F11C00 		add	r0, r4, #28
 849              		.loc 1 377 0
 850 002e 28BF     		it	cs
 851 0030 E360     		strcs	r3, [r4, #12]
 852              		.loc 1 378 0
 853 0032 FFF7FEFF 		bl	chSemSignalI
 854              	.LVL77:
 855              		.loc 1 379 0
ARM GAS  /tmp/ccHnImlr.s 			page 16


 856 0036 0020     		movs	r0, #0
 857              		.loc 1 380 0
 858 0038 38BD     		pop	{r3, r4, r5, pc}
 859              	.LVL78:
 860              	.L73:
 861              		.loc 1 370 0 discriminator 3
 862 003a 0348     		ldr	r0, .L82
 863 003c FFF7FEFF 		bl	chDbgPanic
 864              	.LVL79:
 865 0040 E5E7     		b	.L74
 866              	.L77:
 867              		.loc 1 373 0
 868 0042 4FF0FF30 		mov	r0, #-1
 869              		.loc 1 380 0
 870 0046 38BD     		pop	{r3, r4, r5, pc}
 871              	.LVL80:
 872              	.L83:
 873              		.align	2
 874              	.L82:
 875 0048 00000000 		.word	.LC7
 876              		.cfi_endproc
 877              	.LFE17:
 878              		.size	chMBFetchI, .-chMBFetchI
 879              		.section	.rodata.chMBFetchI.str1.4,"aMS",%progbits,1
 880              		.align	2
 881              	.LC7:
 882 0000 2263684D 		.ascii	"\"chMBFetchI\"()\000"
 882      42466574 
 882      63684922 
 882      282900
 883              		.section	.rodata.chMBFetchS.str1.4,"aMS",%progbits,1
 884              		.align	2
 885              	.LC6:
 886 0000 2263684D 		.ascii	"\"chMBFetchS\"()\000"
 886      42466574 
 886      63685322 
 886      282900
 887              		.section	.rodata.chMBInit.str1.4,"aMS",%progbits,1
 888              		.align	2
 889              	.LC0:
 890 0000 2263684D 		.ascii	"\"chMBInit\"()\000"
 890      42496E69 
 890      74222829 
 890      00
 891              		.section	.rodata.chMBPostAheadI.str1.4,"aMS",%progbits,1
 892              		.align	2
 893              	.LC5:
 894 0000 2263684D 		.ascii	"\"chMBPostAheadI\"()\000"
 894      42506F73 
 894      74416865 
 894      61644922 
 894      282900
 895              		.section	.rodata.chMBPostAheadS.str1.4,"aMS",%progbits,1
 896              		.align	2
 897              	.LC4:
 898 0000 2263684D 		.ascii	"\"chMBPostAheadS\"()\000"
 898      42506F73 
ARM GAS  /tmp/ccHnImlr.s 			page 17


 898      74416865 
 898      61645322 
 898      282900
 899              		.section	.rodata.chMBPostI.str1.4,"aMS",%progbits,1
 900              		.align	2
 901              	.LC3:
 902 0000 2263684D 		.ascii	"\"chMBPostI\"()\000"
 902      42506F73 
 902      74492228 
 902      2900
 903              		.section	.rodata.chMBPostS.str1.4,"aMS",%progbits,1
 904              		.align	2
 905              	.LC2:
 906 0000 2263684D 		.ascii	"\"chMBPostS\"()\000"
 906      42506F73 
 906      74532228 
 906      2900
 907              		.section	.rodata.chMBReset.str1.4,"aMS",%progbits,1
 908              		.align	2
 909              	.LC1:
 910 0000 2263684D 		.ascii	"\"chMBReset\"()\000"
 910      42526573 
 910      65742228 
 910      2900
 911              		.text
 912              	.Letext0:
 913              		.file 2 "/usr/arm-none-eabi/include/machine/_default_types.h"
 914              		.file 3 "/usr/arm-none-eabi/include/sys/_stdint.h"
 915              		.file 4 "ChibiOS_2.6.6/os/ports/GCC/ARMCMx/chtypes.h"
 916              		.file 5 "ChibiOS_2.6.6/os/kernel/include/chlists.h"
 917              		.file 6 "ChibiOS_2.6.6/os/kernel/include/chthreads.h"
 918              		.file 7 "ChibiOS_2.6.6/os/ports/GCC/ARMCMx/chcore_v7m.h"
 919              		.file 8 "ChibiOS_2.6.6/os/kernel/include/chvt.h"
 920              		.file 9 "ChibiOS_2.6.6/os/kernel/include/chschd.h"
 921              		.file 10 "ChibiOS_2.6.6/os/kernel/include/chsem.h"
 922              		.file 11 "ChibiOS_2.6.6/os/kernel/include/chmtx.h"
 923              		.file 12 "ChibiOS_2.6.6/os/kernel/include/chmboxes.h"
 924              		.file 13 "ChibiOS_2.6.6/os/kernel/include/chregistry.h"
 925              		.file 14 "ChibiOS_2.6.6/os/kernel/include/chdebug.h"
 926              		.file 15 "ChibiOS_2.6.6/os/kernel/include/ch.h"