ARM GAS  /tmp/cc543raD.s 			page 1


   1              		.cpu cortex-m4
   2              		.eabi_attribute 27, 1
   3              		.eabi_attribute 28, 1
   4              		.eabi_attribute 20, 1
   5              		.eabi_attribute 21, 1
   6              		.eabi_attribute 23, 3
   7              		.eabi_attribute 24, 1
   8              		.eabi_attribute 25, 1
   9              		.eabi_attribute 26, 1
  10              		.eabi_attribute 30, 2
  11              		.eabi_attribute 34, 1
  12              		.eabi_attribute 18, 4
  13              		.file	"chmemcore.c"
  14              		.text
  15              	.Ltext0:
  16              		.cfi_sections	.debug_frame
  17              		.section	.text._core_init,"ax",%progbits
  18              		.align	1
  19              		.p2align 4,,15
  20              		.global	_core_init
  21              		.syntax unified
  22              		.thumb
  23              		.thumb_func
  24              		.fpu fpv4-sp-d16
  25              		.type	_core_init, %function
  26              	_core_init:
  27              	.LFB7:
  28              		.file 1 "ChibiOS_2.6.6/os/kernel/src/chmemcore.c"
  29              		.loc 1 66 0
  30              		.cfi_startproc
  31              		@ args = 0, pretend = 0, frame = 0
  32              		@ frame_needed = 0, uses_anonymous_args = 0
  33              		@ link register save eliminated.
  34              		.loc 1 70 0
  35 0000 054A     		ldr	r2, .L3
  36              		.loc 1 71 0
  37 0002 064B     		ldr	r3, .L3+4
  38              		.loc 1 70 0
  39 0004 0648     		ldr	r0, .L3+8
  40              		.loc 1 71 0
  41 0006 0749     		ldr	r1, .L3+12
  42              		.loc 1 70 0
  43 0008 22F00702 		bic	r2, r2, #7
  44              		.loc 1 71 0
  45 000c 23F00703 		bic	r3, r3, #7
  46              		.loc 1 70 0
  47 0010 0260     		str	r2, [r0]
  48              		.loc 1 71 0
  49 0012 0B60     		str	r3, [r1]
  50              		.loc 1 77 0
  51 0014 7047     		bx	lr
  52              	.L4:
  53 0016 00BF     		.align	2
  54              	.L3:
  55 0018 07000000 		.word	__heap_base__+7
  56 001c 00000000 		.word	__heap_end__
  57 0020 00000000 		.word	.LANCHOR0
ARM GAS  /tmp/cc543raD.s 			page 2


  58 0024 00000000 		.word	.LANCHOR1
  59              		.cfi_endproc
  60              	.LFE7:
  61              		.size	_core_init, .-_core_init
  62              		.section	.text.chCoreAlloc,"ax",%progbits
  63              		.align	1
  64              		.p2align 4,,15
  65              		.global	chCoreAlloc
  66              		.syntax unified
  67              		.thumb
  68              		.thumb_func
  69              		.fpu fpv4-sp-d16
  70              		.type	chCoreAlloc, %function
  71              	chCoreAlloc:
  72              	.LFB8:
  73              		.loc 1 91 0
  74              		.cfi_startproc
  75              		@ args = 0, pretend = 0, frame = 0
  76              		@ frame_needed = 0, uses_anonymous_args = 0
  77              	.LVL0:
  78 0000 38B5     		push	{r3, r4, r5, lr}
  79              		.cfi_def_cfa_offset 16
  80              		.cfi_offset 3, -16
  81              		.cfi_offset 4, -12
  82              		.cfi_offset 5, -8
  83              		.cfi_offset 14, -4
  84              		.loc 1 91 0
  85 0002 0446     		mov	r4, r0
  86              		.loc 1 94 0
  87              		.syntax unified
  88              	@ 94 "ChibiOS_2.6.6/os/kernel/src/chmemcore.c" 1
  89 0004 72B6     		cpsid   i
  90              	@ 0 "" 2
  91              		.thumb
  92              		.syntax unified
  93 0006 FFF7FEFF 		bl	dbg_check_lock
  94              	.LVL1:
  95              	.LBB4:
  96              	.LBB5:
  97              		.loc 1 115 0
  98 000a FFF7FEFF 		bl	chDbgCheckClassI
  99              	.LVL2:
 100              		.loc 1 118 0
 101 000e 0949     		ldr	r1, .L9
 102 0010 094B     		ldr	r3, .L9+4
 103 0012 0D68     		ldr	r5, [r1]
 104 0014 1A68     		ldr	r2, [r3]
 105              		.loc 1 117 0
 106 0016 E31D     		adds	r3, r4, #7
 107 0018 23F00703 		bic	r3, r3, #7
 108              	.LVL3:
 109              		.loc 1 118 0
 110 001c 521B     		subs	r2, r2, r5
 111 001e 9342     		cmp	r3, r2
 112              	.LVL4:
 113              		.loc 1 121 0
 114 0020 9ABF     		itte	ls
ARM GAS  /tmp/cc543raD.s 			page 3


 115 0022 5B19     		addls	r3, r3, r5
 116              	.LVL5:
 117 0024 0B60     		strls	r3, [r1]
 118              		.loc 1 119 0
 119 0026 0025     		movhi	r5, #0
 120              	.LVL6:
 121              	.LBE5:
 122              	.LBE4:
 123              		.loc 1 96 0
 124 0028 FFF7FEFF 		bl	dbg_check_unlock
 125              	.LVL7:
 126              		.syntax unified
 127              	@ 96 "ChibiOS_2.6.6/os/kernel/src/chmemcore.c" 1
 128 002c 62B6     		cpsie   i
 129              	@ 0 "" 2
 130              		.loc 1 98 0
 131              		.thumb
 132              		.syntax unified
 133 002e 2846     		mov	r0, r5
 134 0030 38BD     		pop	{r3, r4, r5, pc}
 135              	.LVL8:
 136              	.L10:
 137 0032 00BF     		.align	2
 138              	.L9:
 139 0034 00000000 		.word	.LANCHOR0
 140 0038 00000000 		.word	.LANCHOR1
 141              		.cfi_endproc
 142              	.LFE8:
 143              		.size	chCoreAlloc, .-chCoreAlloc
 144              		.section	.text.chCoreAllocI,"ax",%progbits
 145              		.align	1
 146              		.p2align 4,,15
 147              		.global	chCoreAllocI
 148              		.syntax unified
 149              		.thumb
 150              		.thumb_func
 151              		.fpu fpv4-sp-d16
 152              		.type	chCoreAllocI, %function
 153              	chCoreAllocI:
 154              	.LFB9:
 155              		.loc 1 112 0
 156              		.cfi_startproc
 157              		@ args = 0, pretend = 0, frame = 0
 158              		@ frame_needed = 0, uses_anonymous_args = 0
 159              	.LVL9:
 160 0000 10B5     		push	{r4, lr}
 161              		.cfi_def_cfa_offset 8
 162              		.cfi_offset 4, -8
 163              		.cfi_offset 14, -4
 164              		.loc 1 112 0
 165 0002 0446     		mov	r4, r0
 166              		.loc 1 115 0
 167 0004 FFF7FEFF 		bl	chDbgCheckClassI
 168              	.LVL10:
 169              		.loc 1 118 0
 170 0008 0649     		ldr	r1, .L15
 171 000a 074B     		ldr	r3, .L15+4
ARM GAS  /tmp/cc543raD.s 			page 4


 172 000c 0868     		ldr	r0, [r1]
 173 000e 1A68     		ldr	r2, [r3]
 174              		.loc 1 117 0
 175 0010 E31D     		adds	r3, r4, #7
 176 0012 23F00703 		bic	r3, r3, #7
 177              	.LVL11:
 178              		.loc 1 118 0
 179 0016 121A     		subs	r2, r2, r0
 180 0018 9A42     		cmp	r2, r3
 181              	.LVL12:
 182              		.loc 1 121 0
 183 001a 26BF     		itte	cs
 184 001c 1B18     		addcs	r3, r3, r0
 185              	.LVL13:
 186 001e 0B60     		strcs	r3, [r1]
 187              		.loc 1 119 0
 188 0020 0020     		movcc	r0, #0
 189              	.LVL14:
 190              		.loc 1 123 0
 191 0022 10BD     		pop	{r4, pc}
 192              	.LVL15:
 193              	.L16:
 194              		.align	2
 195              	.L15:
 196 0024 00000000 		.word	.LANCHOR0
 197 0028 00000000 		.word	.LANCHOR1
 198              		.cfi_endproc
 199              	.LFE9:
 200              		.size	chCoreAllocI, .-chCoreAllocI
 201              		.section	.text.chCoreStatus,"ax",%progbits
 202              		.align	1
 203              		.p2align 4,,15
 204              		.global	chCoreStatus
 205              		.syntax unified
 206              		.thumb
 207              		.thumb_func
 208              		.fpu fpv4-sp-d16
 209              		.type	chCoreStatus, %function
 210              	chCoreStatus:
 211              	.LFB10:
 212              		.loc 1 132 0
 213              		.cfi_startproc
 214              		@ args = 0, pretend = 0, frame = 0
 215              		@ frame_needed = 0, uses_anonymous_args = 0
 216              		@ link register save eliminated.
 217              		.loc 1 134 0
 218 0000 024A     		ldr	r2, .L18
 219 0002 034B     		ldr	r3, .L18+4
 220 0004 1068     		ldr	r0, [r2]
 221 0006 1B68     		ldr	r3, [r3]
 222              		.loc 1 135 0
 223 0008 C01A     		subs	r0, r0, r3
 224 000a 7047     		bx	lr
 225              	.L19:
 226              		.align	2
 227              	.L18:
 228 000c 00000000 		.word	.LANCHOR1
ARM GAS  /tmp/cc543raD.s 			page 5


 229 0010 00000000 		.word	.LANCHOR0
 230              		.cfi_endproc
 231              	.LFE10:
 232              		.size	chCoreStatus, .-chCoreStatus
 233              		.section	.bss.endmem,"aw",%nobits
 234              		.align	2
 235              		.set	.LANCHOR1,. + 0
 236              		.type	endmem, %object
 237              		.size	endmem, 4
 238              	endmem:
 239 0000 00000000 		.space	4
 240              		.section	.bss.nextmem,"aw",%nobits
 241              		.align	2
 242              		.set	.LANCHOR0,. + 0
 243              		.type	nextmem, %object
 244              		.size	nextmem, 4
 245              	nextmem:
 246 0000 00000000 		.space	4
 247              		.text
 248              	.Letext0:
 249              		.file 2 "/usr/lib/gcc/arm-none-eabi/7.3.1/include/stddef.h"
 250              		.file 3 "/usr/arm-none-eabi/include/machine/_default_types.h"
 251              		.file 4 "/usr/arm-none-eabi/include/sys/_stdint.h"
 252              		.file 5 "ChibiOS_2.6.6/os/ports/GCC/ARMCMx/chtypes.h"
 253              		.file 6 "ChibiOS_2.6.6/os/kernel/include/chlists.h"
 254              		.file 7 "ChibiOS_2.6.6/os/kernel/include/chthreads.h"
 255              		.file 8 "ChibiOS_2.6.6/os/ports/GCC/ARMCMx/chcore_v7m.h"
 256              		.file 9 "ChibiOS_2.6.6/os/kernel/include/chvt.h"
 257              		.file 10 "ChibiOS_2.6.6/os/kernel/include/chschd.h"
 258              		.file 11 "ChibiOS_2.6.6/os/kernel/include/chmtx.h"
 259              		.file 12 "ChibiOS_2.6.6/os/kernel/include/chregistry.h"
 260              		.file 13 "ChibiOS_2.6.6/os/kernel/include/chdebug.h"
 261              		.file 14 "ChibiOS_2.6.6/os/kernel/include/ch.h"