ARM GAS  /tmp/cceXxdsG.s 			page 1


   1              		.cpu cortex-m4
   2              		.eabi_attribute 27, 1
   3              		.eabi_attribute 28, 1
   4              		.eabi_attribute 20, 1
   5              		.eabi_attribute 21, 1
   6              		.eabi_attribute 23, 3
   7              		.eabi_attribute 24, 1
   8              		.eabi_attribute 25, 1
   9              		.eabi_attribute 26, 1
  10              		.eabi_attribute 30, 2
  11              		.eabi_attribute 34, 1
  12              		.eabi_attribute 18, 4
  13              		.file	"chmempools.c"
  14              		.text
  15              	.Ltext0:
  16              		.cfi_sections	.debug_frame
  17              		.section	.text.chPoolInit,"ax",%progbits
  18              		.align	1
  19              		.p2align 4,,15
  20              		.global	chPoolInit
  21              		.syntax unified
  22              		.thumb
  23              		.thumb_func
  24              		.fpu fpv4-sp-d16
  25              		.type	chPoolInit, %function
  26              	chPoolInit:
  27              	.LFB7:
  28              		.file 1 "ChibiOS_2.6.6/os/kernel/src/chmempools.c"
  29              		.loc 1 62 0
  30              		.cfi_startproc
  31              		@ args = 0, pretend = 0, frame = 0
  32              		@ frame_needed = 0, uses_anonymous_args = 0
  33              	.LVL0:
  34 0000 70B5     		push	{r4, r5, r6, lr}
  35              		.cfi_def_cfa_offset 16
  36              		.cfi_offset 4, -16
  37              		.cfi_offset 5, -12
  38              		.cfi_offset 6, -8
  39              		.cfi_offset 14, -4
  40              		.loc 1 62 0
  41 0002 0D46     		mov	r5, r1
  42 0004 1646     		mov	r6, r2
  43              		.loc 1 64 0
  44 0006 0446     		mov	r4, r0
  45 0008 08B1     		cbz	r0, .L2
  46              		.loc 1 64 0 is_stmt 0 discriminator 2
  47 000a 0329     		cmp	r1, #3
  48 000c 02D8     		bhi	.L3
  49              	.L2:
  50              		.loc 1 64 0 discriminator 3
  51 000e 0448     		ldr	r0, .L9
  52              	.LVL1:
  53 0010 FFF7FEFF 		bl	chDbgPanic
  54              	.LVL2:
  55              	.L3:
  56              		.loc 1 66 0 is_stmt 1
  57 0014 0023     		movs	r3, #0
ARM GAS  /tmp/cceXxdsG.s 			page 2


  58              		.loc 1 68 0
  59 0016 C4E90156 		strd	r5, r6, [r4, #4]
  60              		.loc 1 66 0
  61 001a 2360     		str	r3, [r4]
  62              		.loc 1 69 0
  63 001c 70BD     		pop	{r4, r5, r6, pc}
  64              	.LVL3:
  65              	.L10:
  66 001e 00BF     		.align	2
  67              	.L9:
  68 0020 00000000 		.word	.LC0
  69              		.cfi_endproc
  70              	.LFE7:
  71              		.size	chPoolInit, .-chPoolInit
  72              		.section	.text.chPoolAllocI,"ax",%progbits
  73              		.align	1
  74              		.p2align 4,,15
  75              		.global	chPoolAllocI
  76              		.syntax unified
  77              		.thumb
  78              		.thumb_func
  79              		.fpu fpv4-sp-d16
  80              		.type	chPoolAllocI, %function
  81              	chPoolAllocI:
  82              	.LFB9:
  83              		.loc 1 105 0
  84              		.cfi_startproc
  85              		@ args = 0, pretend = 0, frame = 0
  86              		@ frame_needed = 0, uses_anonymous_args = 0
  87              	.LVL4:
  88 0000 10B5     		push	{r4, lr}
  89              		.cfi_def_cfa_offset 8
  90              		.cfi_offset 4, -8
  91              		.cfi_offset 14, -4
  92              		.loc 1 105 0
  93 0002 0446     		mov	r4, r0
  94              		.loc 1 108 0
  95 0004 FFF7FEFF 		bl	chDbgCheckClassI
  96              	.LVL5:
  97              		.loc 1 109 0
  98 0008 5CB1     		cbz	r4, .L19
  99              	.L12:
 100              		.loc 1 111 0
 101 000a 2068     		ldr	r0, [r4]
 102              	.LVL6:
 103 000c 10B1     		cbz	r0, .L13
 104              		.loc 1 112 0
 105 000e 0368     		ldr	r3, [r0]
 106 0010 2360     		str	r3, [r4]
 107              	.L11:
 108              		.loc 1 116 0
 109 0012 10BD     		pop	{r4, pc}
 110              	.LVL7:
 111              	.L13:
 112              	.LBB4:
 113              	.LBB5:
 114              		.loc 1 113 0
ARM GAS  /tmp/cceXxdsG.s 			page 3


 115 0014 A368     		ldr	r3, [r4, #8]
 116 0016 002B     		cmp	r3, #0
 117 0018 FBD0     		beq	.L11
 118              		.loc 1 114 0
 119 001a 6068     		ldr	r0, [r4, #4]
 120              	.LVL8:
 121              	.LBE5:
 122              	.LBE4:
 123              		.loc 1 116 0
 124 001c BDE81040 		pop	{r4, lr}
 125              		.cfi_remember_state
 126              		.cfi_restore 14
 127              		.cfi_restore 4
 128              		.cfi_def_cfa_offset 0
 129              	.LVL9:
 130              	.LBB7:
 131              	.LBB6:
 132              		.loc 1 114 0
 133 0020 1847     		bx	r3
 134              	.LVL10:
 135              	.L19:
 136              		.cfi_restore_state
 137              	.LBE6:
 138              	.LBE7:
 139              		.loc 1 109 0 discriminator 1
 140 0022 0248     		ldr	r0, .L20
 141 0024 FFF7FEFF 		bl	chDbgPanic
 142              	.LVL11:
 143 0028 EFE7     		b	.L12
 144              	.L21:
 145 002a 00BF     		.align	2
 146              	.L20:
 147 002c 00000000 		.word	.LC1
 148              		.cfi_endproc
 149              	.LFE9:
 150              		.size	chPoolAllocI, .-chPoolAllocI
 151              		.section	.text.chPoolAlloc,"ax",%progbits
 152              		.align	1
 153              		.p2align 4,,15
 154              		.global	chPoolAlloc
 155              		.syntax unified
 156              		.thumb
 157              		.thumb_func
 158              		.fpu fpv4-sp-d16
 159              		.type	chPoolAlloc, %function
 160              	chPoolAlloc:
 161              	.LFB10:
 162              		.loc 1 128 0
 163              		.cfi_startproc
 164              		@ args = 0, pretend = 0, frame = 0
 165              		@ frame_needed = 0, uses_anonymous_args = 0
 166              	.LVL12:
 167 0000 10B5     		push	{r4, lr}
 168              		.cfi_def_cfa_offset 8
 169              		.cfi_offset 4, -8
 170              		.cfi_offset 14, -4
 171              		.loc 1 128 0
ARM GAS  /tmp/cceXxdsG.s 			page 4


 172 0002 0446     		mov	r4, r0
 173              		.loc 1 131 0
 174              		.syntax unified
 175              	@ 131 "ChibiOS_2.6.6/os/kernel/src/chmempools.c" 1
 176 0004 72B6     		cpsid   i
 177              	@ 0 "" 2
 178              		.thumb
 179              		.syntax unified
 180 0006 FFF7FEFF 		bl	dbg_check_lock
 181              	.LVL13:
 182              		.loc 1 132 0
 183 000a 2046     		mov	r0, r4
 184 000c FFF7FEFF 		bl	chPoolAllocI
 185              	.LVL14:
 186 0010 0446     		mov	r4, r0
 187              	.LVL15:
 188              		.loc 1 133 0
 189 0012 FFF7FEFF 		bl	dbg_check_unlock
 190              	.LVL16:
 191              		.syntax unified
 192              	@ 133 "ChibiOS_2.6.6/os/kernel/src/chmempools.c" 1
 193 0016 62B6     		cpsie   i
 194              	@ 0 "" 2
 195              		.loc 1 135 0
 196              		.thumb
 197              		.syntax unified
 198 0018 2046     		mov	r0, r4
 199 001a 10BD     		pop	{r4, pc}
 200              		.cfi_endproc
 201              	.LFE10:
 202              		.size	chPoolAlloc, .-chPoolAlloc
 203              		.section	.text.chPoolFreeI,"ax",%progbits
 204              		.align	1
 205              		.p2align 4,,15
 206              		.global	chPoolFreeI
 207              		.syntax unified
 208              		.thumb
 209              		.thumb_func
 210              		.fpu fpv4-sp-d16
 211              		.type	chPoolFreeI, %function
 212              	chPoolFreeI:
 213              	.LFB11:
 214              		.loc 1 149 0
 215              		.cfi_startproc
 216              		@ args = 0, pretend = 0, frame = 0
 217              		@ frame_needed = 0, uses_anonymous_args = 0
 218              	.LVL17:
 219 0000 38B5     		push	{r3, r4, r5, lr}
 220              		.cfi_def_cfa_offset 16
 221              		.cfi_offset 3, -16
 222              		.cfi_offset 4, -12
 223              		.cfi_offset 5, -8
 224              		.cfi_offset 14, -4
 225              		.loc 1 149 0
 226 0002 0446     		mov	r4, r0
 227 0004 0D46     		mov	r5, r1
 228              	.LVL18:
ARM GAS  /tmp/cceXxdsG.s 			page 5


 229              		.loc 1 152 0
 230 0006 FFF7FEFF 		bl	chDbgCheckClassI
 231              	.LVL19:
 232              		.loc 1 153 0
 233 000a 24B1     		cbz	r4, .L25
 234              		.loc 1 153 0 is_stmt 0 discriminator 2
 235 000c 1DB1     		cbz	r5, .L25
 236              		.loc 1 155 0 is_stmt 1
 237 000e 2368     		ldr	r3, [r4]
 238 0010 2B60     		str	r3, [r5]
 239              		.loc 1 156 0
 240 0012 2560     		str	r5, [r4]
 241              		.loc 1 157 0
 242 0014 38BD     		pop	{r3, r4, r5, pc}
 243              	.LVL20:
 244              	.L25:
 245              		.loc 1 153 0 discriminator 3
 246 0016 0348     		ldr	r0, .L31
 247 0018 FFF7FEFF 		bl	chDbgPanic
 248              	.LVL21:
 249              		.loc 1 155 0 discriminator 3
 250 001c 2368     		ldr	r3, [r4]
 251 001e 2B60     		str	r3, [r5]
 252              		.loc 1 156 0 discriminator 3
 253 0020 2560     		str	r5, [r4]
 254              		.loc 1 157 0 discriminator 3
 255 0022 38BD     		pop	{r3, r4, r5, pc}
 256              	.LVL22:
 257              	.L32:
 258              		.align	2
 259              	.L31:
 260 0024 00000000 		.word	.LC2
 261              		.cfi_endproc
 262              	.LFE11:
 263              		.size	chPoolFreeI, .-chPoolFreeI
 264              		.section	.text.chPoolFree,"ax",%progbits
 265              		.align	1
 266              		.p2align 4,,15
 267              		.global	chPoolFree
 268              		.syntax unified
 269              		.thumb
 270              		.thumb_func
 271              		.fpu fpv4-sp-d16
 272              		.type	chPoolFree, %function
 273              	chPoolFree:
 274              	.LFB12:
 275              		.loc 1 171 0
 276              		.cfi_startproc
 277              		@ args = 0, pretend = 0, frame = 0
 278              		@ frame_needed = 0, uses_anonymous_args = 0
 279              	.LVL23:
 280 0000 38B5     		push	{r3, r4, r5, lr}
 281              		.cfi_def_cfa_offset 16
 282              		.cfi_offset 3, -16
 283              		.cfi_offset 4, -12
 284              		.cfi_offset 5, -8
 285              		.cfi_offset 14, -4
ARM GAS  /tmp/cceXxdsG.s 			page 6


 286              		.loc 1 171 0
 287 0002 0446     		mov	r4, r0
 288 0004 0D46     		mov	r5, r1
 289              		.loc 1 173 0
 290              		.syntax unified
 291              	@ 173 "ChibiOS_2.6.6/os/kernel/src/chmempools.c" 1
 292 0006 72B6     		cpsid   i
 293              	@ 0 "" 2
 294              		.thumb
 295              		.syntax unified
 296 0008 FFF7FEFF 		bl	dbg_check_lock
 297              	.LVL24:
 298              		.loc 1 174 0
 299 000c 2946     		mov	r1, r5
 300 000e 2046     		mov	r0, r4
 301 0010 FFF7FEFF 		bl	chPoolFreeI
 302              	.LVL25:
 303              		.loc 1 175 0
 304 0014 FFF7FEFF 		bl	dbg_check_unlock
 305              	.LVL26:
 306              		.syntax unified
 307              	@ 175 "ChibiOS_2.6.6/os/kernel/src/chmempools.c" 1
 308 0018 62B6     		cpsie   i
 309              	@ 0 "" 2
 310              		.loc 1 176 0
 311              		.thumb
 312              		.syntax unified
 313 001a 38BD     		pop	{r3, r4, r5, pc}
 314              		.cfi_endproc
 315              	.LFE12:
 316              		.size	chPoolFree, .-chPoolFree
 317              		.section	.text.chPoolLoadArray,"ax",%progbits
 318              		.align	1
 319              		.p2align 4,,15
 320              		.global	chPoolLoadArray
 321              		.syntax unified
 322              		.thumb
 323              		.thumb_func
 324              		.fpu fpv4-sp-d16
 325              		.type	chPoolLoadArray, %function
 326              	chPoolLoadArray:
 327              	.LFB8:
 328              		.loc 1 84 0
 329              		.cfi_startproc
 330              		@ args = 0, pretend = 0, frame = 0
 331              		@ frame_needed = 0, uses_anonymous_args = 0
 332              	.LVL27:
 333 0000 70B5     		push	{r4, r5, r6, lr}
 334              		.cfi_def_cfa_offset 16
 335              		.cfi_offset 4, -16
 336              		.cfi_offset 5, -12
 337              		.cfi_offset 6, -8
 338              		.cfi_offset 14, -4
 339              		.loc 1 84 0
 340 0002 0D46     		mov	r5, r1
 341 0004 1446     		mov	r4, r2
 342              		.loc 1 86 0
ARM GAS  /tmp/cceXxdsG.s 			page 7


 343 0006 0646     		mov	r6, r0
 344 0008 28B1     		cbz	r0, .L36
 345              		.loc 1 86 0 is_stmt 0 discriminator 2
 346 000a 42B9     		cbnz	r2, .L38
 347              		.loc 1 86 0
 348 000c 0848     		ldr	r0, .L43
 349              	.LVL28:
 350              		.loc 1 93 0 is_stmt 1
 351 000e BDE87040 		pop	{r4, r5, r6, lr}
 352              		.cfi_remember_state
 353              		.cfi_restore 14
 354              		.cfi_restore 6
 355              		.cfi_restore 5
 356              		.cfi_restore 4
 357              		.cfi_def_cfa_offset 0
 358              	.LVL29:
 359              		.loc 1 86 0
 360 0012 FFF7FEBF 		b	chDbgPanic
 361              	.LVL30:
 362              	.L36:
 363              		.cfi_restore_state
 364              		.loc 1 86 0 is_stmt 0 discriminator 3
 365 0016 0648     		ldr	r0, .L43
 366              	.LVL31:
 367 0018 FFF7FEFF 		bl	chDbgPanic
 368              	.LVL32:
 369              		.loc 1 88 0 is_stmt 1 discriminator 3
 370 001c 3CB1     		cbz	r4, .L35
 371              	.LVL33:
 372              	.L38:
 373              		.loc 1 89 0
 374 001e 2946     		mov	r1, r5
 375 0020 3046     		mov	r0, r6
 376 0022 FFF7FEFF 		bl	chPoolFree
 377              	.LVL34:
 378              		.loc 1 90 0
 379 0026 7368     		ldr	r3, [r6, #4]
 380              		.loc 1 88 0
 381 0028 013C     		subs	r4, r4, #1
 382              	.LVL35:
 383              		.loc 1 90 0
 384 002a 1D44     		add	r5, r5, r3
 385              	.LVL36:
 386              		.loc 1 88 0
 387 002c F7D1     		bne	.L38
 388              	.L35:
 389              		.loc 1 93 0
 390 002e 70BD     		pop	{r4, r5, r6, pc}
 391              	.LVL37:
 392              	.L44:
 393              		.align	2
 394              	.L43:
 395 0030 00000000 		.word	.LC3
 396              		.cfi_endproc
 397              	.LFE8:
 398              		.size	chPoolLoadArray, .-chPoolLoadArray
 399              		.section	.rodata.chPoolAllocI.str1.4,"aMS",%progbits,1
ARM GAS  /tmp/cceXxdsG.s 			page 8


 400              		.align	2
 401              	.LC1:
 402 0000 22636850 		.ascii	"\"chPoolAllocI\"()\000"
 402      6F6F6C41 
 402      6C6C6F63 
 402      49222829 
 402      00
 403              		.section	.rodata.chPoolFreeI.str1.4,"aMS",%progbits,1
 404              		.align	2
 405              	.LC2:
 406 0000 22636850 		.ascii	"\"chPoolFreeI\"()\000"
 406      6F6F6C46 
 406      72656549 
 406      22282900 
 407              		.section	.rodata.chPoolInit.str1.4,"aMS",%progbits,1
 408              		.align	2
 409              	.LC0:
 410 0000 22636850 		.ascii	"\"chPoolInit\"()\000"
 410      6F6F6C49 
 410      6E697422 
 410      282900
 411              		.section	.rodata.chPoolLoadArray.str1.4,"aMS",%progbits,1
 412              		.align	2
 413              	.LC3:
 414 0000 22636850 		.ascii	"\"chPoolLoadArray\"()\000"
 414      6F6F6C4C 
 414      6F616441 
 414      72726179 
 414      22282900 
 415              		.text
 416              	.Letext0:
 417              		.file 2 "/usr/lib/gcc/arm-none-eabi/7.3.1/include/stddef.h"
 418              		.file 3 "/usr/arm-none-eabi/include/machine/_default_types.h"
 419              		.file 4 "/usr/arm-none-eabi/include/sys/_stdint.h"
 420              		.file 5 "ChibiOS_2.6.6/os/ports/GCC/ARMCMx/chtypes.h"
 421              		.file 6 "ChibiOS_2.6.6/os/kernel/include/chlists.h"
 422              		.file 7 "ChibiOS_2.6.6/os/kernel/include/chthreads.h"
 423              		.file 8 "ChibiOS_2.6.6/os/ports/GCC/ARMCMx/chcore_v7m.h"
 424              		.file 9 "ChibiOS_2.6.6/os/kernel/include/chvt.h"
 425              		.file 10 "ChibiOS_2.6.6/os/kernel/include/chschd.h"
 426              		.file 11 "ChibiOS_2.6.6/os/kernel/include/chmtx.h"
 427              		.file 12 "ChibiOS_2.6.6/os/kernel/include/chmemcore.h"
 428              		.file 13 "ChibiOS_2.6.6/os/kernel/include/chmempools.h"
 429              		.file 14 "ChibiOS_2.6.6/os/kernel/include/chregistry.h"
 430              		.file 15 "ChibiOS_2.6.6/os/kernel/include/chdebug.h"
 431              		.file 16 "ChibiOS_2.6.6/os/kernel/include/ch.h"
 432              		.section	.debug_info,"",%progbits
 433              	.Ldebug_info0:
 434 0000 080B0000 		.4byte	0xb08
 435 0004 0400     		.2byte	0x4
 436 0006 00000000 		.4byte	.Ldebug_abbrev0
 437 000a 04       		.byte	0x4
 438 000b 01       		.uleb128 0x1
 439 000c 52000000 		.4byte	.LASF135
 440 0010 0C       		.byte	0xc
 441 0011 3B060000 		.4byte	.LASF136
 442 0015 6A030000 		.4byte	.LASF137
ARM GAS  /tmp/cceXxdsG.s 			page 9


 443 0019 18000000 		.4byte	.Ldebug_ranges0+0x18
 444 001d 00000000 		.4byte	0
 445 0021 00000000 		.4byte	.Ldebug_line0
 446 0025 02       		.uleb128 0x2
 447 0026 04       		.byte	0x4
 448 0027 05       		.byte	0x5
 449 0028 696E7400 		.ascii	"int\000"
 450 002c 03       		.uleb128 0x3
 451 002d 13000000 		.4byte	.LASF2
 452 0031 02       		.byte	0x2
 453 0032 D8       		.byte	0xd8
 454 0033 37000000 		.4byte	0x37
 455 0037 04       		.uleb128 0x4
 456 0038 04       		.byte	0x4
 457 0039 07       		.byte	0x7
 458 003a D7020000 		.4byte	.LASF0
 459 003e 04       		.uleb128 0x4
 460 003f 01       		.byte	0x1
 461 0040 06       		.byte	0x6
 462 0041 05020000 		.4byte	.LASF1
 463 0045 03       		.uleb128 0x3
 464 0046 2A000000 		.4byte	.LASF3
 465 004a 03       		.byte	0x3
 466 004b 2B       		.byte	0x2b
 467 004c 50000000 		.4byte	0x50
 468 0050 04       		.uleb128 0x4
 469 0051 01       		.byte	0x1
 470 0052 08       		.byte	0x8
 471 0053 E1040000 		.4byte	.LASF4
 472 0057 04       		.uleb128 0x4
 473 0058 02       		.byte	0x2
 474 0059 05       		.byte	0x5
 475 005a 07050000 		.4byte	.LASF5
 476 005e 03       		.uleb128 0x3
 477 005f A1050000 		.4byte	.LASF6
 478 0063 03       		.byte	0x3
 479 0064 39       		.byte	0x39
 480 0065 69000000 		.4byte	0x69
 481 0069 04       		.uleb128 0x4
 482 006a 02       		.byte	0x2
 483 006b 07       		.byte	0x7
 484 006c 38030000 		.4byte	.LASF7
 485 0070 03       		.uleb128 0x3
 486 0071 D4050000 		.4byte	.LASF8
 487 0075 03       		.byte	0x3
 488 0076 4D       		.byte	0x4d
 489 0077 7B000000 		.4byte	0x7b
 490 007b 04       		.uleb128 0x4
 491 007c 04       		.byte	0x4
 492 007d 05       		.byte	0x5
 493 007e 48020000 		.4byte	.LASF9
 494 0082 03       		.uleb128 0x3
 495 0083 96020000 		.4byte	.LASF10
 496 0087 03       		.byte	0x3
 497 0088 4F       		.byte	0x4f
 498 0089 8D000000 		.4byte	0x8d
 499 008d 04       		.uleb128 0x4
ARM GAS  /tmp/cceXxdsG.s 			page 10


 500 008e 04       		.byte	0x4
 501 008f 07       		.byte	0x7
 502 0090 EC020000 		.4byte	.LASF11
 503 0094 04       		.uleb128 0x4
 504 0095 08       		.byte	0x8
 505 0096 05       		.byte	0x5
 506 0097 F7010000 		.4byte	.LASF12
 507 009b 03       		.uleb128 0x3
 508 009c 83040000 		.4byte	.LASF13
 509 00a0 03       		.byte	0x3
 510 00a1 69       		.byte	0x69
 511 00a2 A6000000 		.4byte	0xa6
 512 00a6 04       		.uleb128 0x4
 513 00a7 08       		.byte	0x8
 514 00a8 07       		.byte	0x7
 515 00a9 9E010000 		.4byte	.LASF14
 516 00ad 03       		.uleb128 0x3
 517 00ae 6A060000 		.4byte	.LASF15
 518 00b2 04       		.byte	0x4
 519 00b3 18       		.byte	0x18
 520 00b4 45000000 		.4byte	0x45
 521 00b8 03       		.uleb128 0x3
 522 00b9 5A020000 		.4byte	.LASF16
 523 00bd 04       		.byte	0x4
 524 00be 24       		.byte	0x24
 525 00bf 5E000000 		.4byte	0x5e
 526 00c3 03       		.uleb128 0x3
 527 00c4 D9040000 		.4byte	.LASF17
 528 00c8 04       		.byte	0x4
 529 00c9 2C       		.byte	0x2c
 530 00ca 70000000 		.4byte	0x70
 531 00ce 03       		.uleb128 0x3
 532 00cf 7F050000 		.4byte	.LASF18
 533 00d3 04       		.byte	0x4
 534 00d4 30       		.byte	0x30
 535 00d5 82000000 		.4byte	0x82
 536 00d9 03       		.uleb128 0x3
 537 00da 21000000 		.4byte	.LASF19
 538 00de 04       		.byte	0x4
 539 00df 3C       		.byte	0x3c
 540 00e0 9B000000 		.4byte	0x9b
 541 00e4 04       		.uleb128 0x4
 542 00e5 01       		.byte	0x1
 543 00e6 02       		.byte	0x2
 544 00e7 D3040000 		.4byte	.LASF20
 545 00eb 03       		.uleb128 0x3
 546 00ec 8B030000 		.4byte	.LASF21
 547 00f0 05       		.byte	0x5
 548 00f1 2C       		.byte	0x2c
 549 00f2 AD000000 		.4byte	0xad
 550 00f6 03       		.uleb128 0x3
 551 00f7 51020000 		.4byte	.LASF22
 552 00fb 05       		.byte	0x5
 553 00fc 2D       		.byte	0x2d
 554 00fd AD000000 		.4byte	0xad
 555 0101 03       		.uleb128 0x3
 556 0102 A7040000 		.4byte	.LASF23
ARM GAS  /tmp/cceXxdsG.s 			page 11


 557 0106 05       		.byte	0x5
 558 0107 2E       		.byte	0x2e
 559 0108 AD000000 		.4byte	0xad
 560 010c 03       		.uleb128 0x3
 561 010d 3E020000 		.4byte	.LASF24
 562 0111 05       		.byte	0x5
 563 0112 2F       		.byte	0x2f
 564 0113 AD000000 		.4byte	0xad
 565 0117 03       		.uleb128 0x3
 566 0118 CB040000 		.4byte	.LASF25
 567 011c 05       		.byte	0x5
 568 011d 30       		.byte	0x30
 569 011e CE000000 		.4byte	0xce
 570 0122 03       		.uleb128 0x3
 571 0123 4B030000 		.4byte	.LASF26
 572 0127 05       		.byte	0x5
 573 0128 31       		.byte	0x31
 574 0129 C3000000 		.4byte	0xc3
 575 012d 03       		.uleb128 0x3
 576 012e AB030000 		.4byte	.LASF27
 577 0132 05       		.byte	0x5
 578 0133 33       		.byte	0x33
 579 0134 CE000000 		.4byte	0xce
 580 0138 03       		.uleb128 0x3
 581 0139 BF050000 		.4byte	.LASF28
 582 013d 05       		.byte	0x5
 583 013e 35       		.byte	0x35
 584 013f CE000000 		.4byte	0xce
 585 0143 05       		.uleb128 0x5
 586 0144 38010000 		.4byte	0x138
 587 0148 03       		.uleb128 0x3
 588 0149 C6020000 		.4byte	.LASF29
 589 014d 05       		.byte	0x5
 590 014e 36       		.byte	0x36
 591 014f C3000000 		.4byte	0xc3
 592 0153 03       		.uleb128 0x3
 593 0154 60050000 		.4byte	.LASF30
 594 0158 06       		.byte	0x6
 595 0159 2A       		.byte	0x2a
 596 015a 5E010000 		.4byte	0x15e
 597 015e 06       		.uleb128 0x6
 598 015f 60050000 		.4byte	.LASF30
 599 0163 4C       		.byte	0x4c
 600 0164 07       		.byte	0x7
 601 0165 5E       		.byte	0x5e
 602 0166 67020000 		.4byte	0x267
 603 016a 07       		.uleb128 0x7
 604 016b 3D050000 		.4byte	.LASF31
 605 016f 07       		.byte	0x7
 606 0170 5F       		.byte	0x5f
 607 0171 88020000 		.4byte	0x288
 608 0175 00       		.byte	0
 609 0176 07       		.uleb128 0x7
 610 0177 C4040000 		.4byte	.LASF32
 611 017b 07       		.byte	0x7
 612 017c 61       		.byte	0x61
 613 017d 88020000 		.4byte	0x288
ARM GAS  /tmp/cceXxdsG.s 			page 12


 614 0181 04       		.byte	0x4
 615 0182 07       		.uleb128 0x7
 616 0183 DD010000 		.4byte	.LASF33
 617 0187 07       		.byte	0x7
 618 0188 63       		.byte	0x63
 619 0189 17010000 		.4byte	0x117
 620 018d 08       		.byte	0x8
 621 018e 07       		.uleb128 0x7
 622 018f D7060000 		.4byte	.LASF34
 623 0193 07       		.byte	0x7
 624 0194 64       		.byte	0x64
 625 0195 1E040000 		.4byte	0x41e
 626 0199 0C       		.byte	0xc
 627 019a 07       		.uleb128 0x7
 628 019b 6D020000 		.4byte	.LASF35
 629 019f 07       		.byte	0x7
 630 01a0 66       		.byte	0x66
 631 01a1 88020000 		.4byte	0x288
 632 01a5 10       		.byte	0x10
 633 01a6 07       		.uleb128 0x7
 634 01a7 3F040000 		.4byte	.LASF36
 635 01ab 07       		.byte	0x7
 636 01ac 67       		.byte	0x67
 637 01ad 88020000 		.4byte	0x288
 638 01b1 14       		.byte	0x14
 639 01b2 07       		.uleb128 0x7
 640 01b3 90060000 		.4byte	.LASF37
 641 01b7 07       		.byte	0x7
 642 01b8 6E       		.byte	0x6e
 643 01b9 59060000 		.4byte	0x659
 644 01bd 18       		.byte	0x18
 645 01be 07       		.uleb128 0x7
 646 01bf CC020000 		.4byte	.LASF38
 647 01c3 07       		.byte	0x7
 648 01c4 74       		.byte	0x74
 649 01c5 6B060000 		.4byte	0x66b
 650 01c9 1C       		.byte	0x1c
 651 01ca 07       		.uleb128 0x7
 652 01cb 11050000 		.4byte	.LASF39
 653 01cf 07       		.byte	0x7
 654 01d0 79       		.byte	0x79
 655 01d1 F6000000 		.4byte	0xf6
 656 01d5 20       		.byte	0x20
 657 01d6 07       		.uleb128 0x7
 658 01d7 53050000 		.4byte	.LASF40
 659 01db 07       		.byte	0x7
 660 01dc 7D       		.byte	0x7d
 661 01dd EB000000 		.4byte	0xeb
 662 01e1 21       		.byte	0x21
 663 01e2 07       		.uleb128 0x7
 664 01e3 2A060000 		.4byte	.LASF41
 665 01e7 07       		.byte	0x7
 666 01e8 82       		.byte	0x82
 667 01e9 01010000 		.4byte	0x101
 668 01ed 22       		.byte	0x22
 669 01ee 07       		.uleb128 0x7
 670 01ef 19050000 		.4byte	.LASF42
ARM GAS  /tmp/cceXxdsG.s 			page 13


 671 01f3 07       		.byte	0x7
 672 01f4 88       		.byte	0x88
 673 01f5 0C010000 		.4byte	0x10c
 674 01f9 23       		.byte	0x23
 675 01fa 07       		.uleb128 0x7
 676 01fb F3050000 		.4byte	.LASF43
 677 01ff 07       		.byte	0x7
 678 0200 8F       		.byte	0x8f
 679 0201 43010000 		.4byte	0x143
 680 0205 24       		.byte	0x24
 681 0206 08       		.uleb128 0x8
 682 0207 705F7500 		.ascii	"p_u\000"
 683 020b 07       		.byte	0x7
 684 020c B4       		.byte	0xb4
 685 020d 24060000 		.4byte	0x624
 686 0211 28       		.byte	0x28
 687 0212 07       		.uleb128 0x7
 688 0213 DD060000 		.4byte	.LASF44
 689 0217 07       		.byte	0x7
 690 0218 B9       		.byte	0xb9
 691 0219 AE020000 		.4byte	0x2ae
 692 021d 2C       		.byte	0x2c
 693 021e 07       		.uleb128 0x7
 694 021f 01060000 		.4byte	.LASF45
 695 0223 07       		.byte	0x7
 696 0224 BF       		.byte	0xbf
 697 0225 8E020000 		.4byte	0x28e
 698 0229 30       		.byte	0x30
 699 022a 07       		.uleb128 0x7
 700 022b 0D000000 		.4byte	.LASF46
 701 022f 07       		.byte	0x7
 702 0230 C3       		.byte	0xc3
 703 0231 22010000 		.4byte	0x122
 704 0235 38       		.byte	0x38
 705 0236 07       		.uleb128 0x7
 706 0237 74050000 		.4byte	.LASF47
 707 023b 07       		.byte	0x7
 708 023c C9       		.byte	0xc9
 709 023d 2D010000 		.4byte	0x12d
 710 0241 3C       		.byte	0x3c
 711 0242 07       		.uleb128 0x7
 712 0243 FD040000 		.4byte	.LASF48
 713 0247 07       		.byte	0x7
 714 0248 D0       		.byte	0xd0
 715 0249 71060000 		.4byte	0x671
 716 024d 40       		.byte	0x40
 717 024e 07       		.uleb128 0x7
 718 024f C9050000 		.4byte	.LASF49
 719 0253 07       		.byte	0x7
 720 0254 D4       		.byte	0xd4
 721 0255 17010000 		.4byte	0x117
 722 0259 44       		.byte	0x44
 723 025a 07       		.uleb128 0x7
 724 025b 2E020000 		.4byte	.LASF50
 725 025f 07       		.byte	0x7
 726 0260 DA       		.byte	0xda
 727 0261 C4020000 		.4byte	0x2c4
ARM GAS  /tmp/cceXxdsG.s 			page 14


 728 0265 48       		.byte	0x48
 729 0266 00       		.byte	0
 730 0267 09       		.uleb128 0x9
 731 0268 08       		.byte	0x8
 732 0269 06       		.byte	0x6
 733 026a 61       		.byte	0x61
 734 026b 88020000 		.4byte	0x288
 735 026f 07       		.uleb128 0x7
 736 0270 3D050000 		.4byte	.LASF31
 737 0274 06       		.byte	0x6
 738 0275 62       		.byte	0x62
 739 0276 88020000 		.4byte	0x288
 740 027a 00       		.byte	0
 741 027b 07       		.uleb128 0x7
 742 027c C4040000 		.4byte	.LASF32
 743 0280 06       		.byte	0x6
 744 0281 64       		.byte	0x64
 745 0282 88020000 		.4byte	0x288
 746 0286 04       		.byte	0x4
 747 0287 00       		.byte	0
 748 0288 0A       		.uleb128 0xa
 749 0289 04       		.byte	0x4
 750 028a 53010000 		.4byte	0x153
 751 028e 03       		.uleb128 0x3
 752 028f 4D040000 		.4byte	.LASF51
 753 0293 06       		.byte	0x6
 754 0294 66       		.byte	0x66
 755 0295 67020000 		.4byte	0x267
 756 0299 09       		.uleb128 0x9
 757 029a 04       		.byte	0x4
 758 029b 06       		.byte	0x6
 759 029c 6B       		.byte	0x6b
 760 029d AE020000 		.4byte	0x2ae
 761 02a1 07       		.uleb128 0x7
 762 02a2 3D050000 		.4byte	.LASF31
 763 02a6 06       		.byte	0x6
 764 02a7 6D       		.byte	0x6d
 765 02a8 88020000 		.4byte	0x288
 766 02ac 00       		.byte	0
 767 02ad 00       		.byte	0
 768 02ae 03       		.uleb128 0x3
 769 02af 9F030000 		.4byte	.LASF52
 770 02b3 06       		.byte	0x6
 771 02b4 70       		.byte	0x70
 772 02b5 99020000 		.4byte	0x299
 773 02b9 03       		.uleb128 0x3
 774 02ba AD020000 		.4byte	.LASF53
 775 02be 08       		.byte	0x8
 776 02bf E5       		.byte	0xe5
 777 02c0 C4020000 		.4byte	0x2c4
 778 02c4 0B       		.uleb128 0xb
 779 02c5 04       		.byte	0x4
 780 02c6 0C       		.uleb128 0xc
 781 02c7 BD030000 		.4byte	.LASF138
 782 02cb 08       		.byte	0x8
 783 02cc EB       		.byte	0xeb
 784 02cd D9000000 		.4byte	0xd9
ARM GAS  /tmp/cceXxdsG.s 			page 15


 785 02d1 08       		.byte	0x8
 786 02d2 0D       		.uleb128 0xd
 787 02d3 FA050000 		.4byte	.LASF54
 788 02d7 64       		.byte	0x64
 789 02d8 08       		.byte	0x8
 790 02d9 0C01     		.2byte	0x10c
 791 02db 1E040000 		.4byte	0x41e
 792 02df 0E       		.uleb128 0xe
 793 02e0 73313600 		.ascii	"s16\000"
 794 02e4 08       		.byte	0x8
 795 02e5 0E01     		.2byte	0x10e
 796 02e7 B9020000 		.4byte	0x2b9
 797 02eb 00       		.byte	0
 798 02ec 0E       		.uleb128 0xe
 799 02ed 73313700 		.ascii	"s17\000"
 800 02f1 08       		.byte	0x8
 801 02f2 0F01     		.2byte	0x10f
 802 02f4 B9020000 		.4byte	0x2b9
 803 02f8 04       		.byte	0x4
 804 02f9 0E       		.uleb128 0xe
 805 02fa 73313800 		.ascii	"s18\000"
 806 02fe 08       		.byte	0x8
 807 02ff 1001     		.2byte	0x110
 808 0301 B9020000 		.4byte	0x2b9
 809 0305 08       		.byte	0x8
 810 0306 0E       		.uleb128 0xe
 811 0307 73313900 		.ascii	"s19\000"
 812 030b 08       		.byte	0x8
 813 030c 1101     		.2byte	0x111
 814 030e B9020000 		.4byte	0x2b9
 815 0312 0C       		.byte	0xc
 816 0313 0E       		.uleb128 0xe
 817 0314 73323000 		.ascii	"s20\000"
 818 0318 08       		.byte	0x8
 819 0319 1201     		.2byte	0x112
 820 031b B9020000 		.4byte	0x2b9
 821 031f 10       		.byte	0x10
 822 0320 0E       		.uleb128 0xe
 823 0321 73323100 		.ascii	"s21\000"
 824 0325 08       		.byte	0x8
 825 0326 1301     		.2byte	0x113
 826 0328 B9020000 		.4byte	0x2b9
 827 032c 14       		.byte	0x14
 828 032d 0E       		.uleb128 0xe
 829 032e 73323200 		.ascii	"s22\000"
 830 0332 08       		.byte	0x8
 831 0333 1401     		.2byte	0x114
 832 0335 B9020000 		.4byte	0x2b9
 833 0339 18       		.byte	0x18
 834 033a 0E       		.uleb128 0xe
 835 033b 73323300 		.ascii	"s23\000"
 836 033f 08       		.byte	0x8
 837 0340 1501     		.2byte	0x115
 838 0342 B9020000 		.4byte	0x2b9
 839 0346 1C       		.byte	0x1c
 840 0347 0E       		.uleb128 0xe
 841 0348 73323400 		.ascii	"s24\000"
ARM GAS  /tmp/cceXxdsG.s 			page 16


 842 034c 08       		.byte	0x8
 843 034d 1601     		.2byte	0x116
 844 034f B9020000 		.4byte	0x2b9
 845 0353 20       		.byte	0x20
 846 0354 0E       		.uleb128 0xe
 847 0355 73323500 		.ascii	"s25\000"
 848 0359 08       		.byte	0x8
 849 035a 1701     		.2byte	0x117
 850 035c B9020000 		.4byte	0x2b9
 851 0360 24       		.byte	0x24
 852 0361 0E       		.uleb128 0xe
 853 0362 73323600 		.ascii	"s26\000"
 854 0366 08       		.byte	0x8
 855 0367 1801     		.2byte	0x118
 856 0369 B9020000 		.4byte	0x2b9
 857 036d 28       		.byte	0x28
 858 036e 0E       		.uleb128 0xe
 859 036f 73323700 		.ascii	"s27\000"
 860 0373 08       		.byte	0x8
 861 0374 1901     		.2byte	0x119
 862 0376 B9020000 		.4byte	0x2b9
 863 037a 2C       		.byte	0x2c
 864 037b 0E       		.uleb128 0xe
 865 037c 73323800 		.ascii	"s28\000"
 866 0380 08       		.byte	0x8
 867 0381 1A01     		.2byte	0x11a
 868 0383 B9020000 		.4byte	0x2b9
 869 0387 30       		.byte	0x30
 870 0388 0E       		.uleb128 0xe
 871 0389 73323900 		.ascii	"s29\000"
 872 038d 08       		.byte	0x8
 873 038e 1B01     		.2byte	0x11b
 874 0390 B9020000 		.4byte	0x2b9
 875 0394 34       		.byte	0x34
 876 0395 0E       		.uleb128 0xe
 877 0396 73333000 		.ascii	"s30\000"
 878 039a 08       		.byte	0x8
 879 039b 1C01     		.2byte	0x11c
 880 039d B9020000 		.4byte	0x2b9
 881 03a1 38       		.byte	0x38
 882 03a2 0E       		.uleb128 0xe
 883 03a3 73333100 		.ascii	"s31\000"
 884 03a7 08       		.byte	0x8
 885 03a8 1D01     		.2byte	0x11d
 886 03aa B9020000 		.4byte	0x2b9
 887 03ae 3C       		.byte	0x3c
 888 03af 0E       		.uleb128 0xe
 889 03b0 723400   		.ascii	"r4\000"
 890 03b3 08       		.byte	0x8
 891 03b4 1F01     		.2byte	0x11f
 892 03b6 B9020000 		.4byte	0x2b9
 893 03ba 40       		.byte	0x40
 894 03bb 0E       		.uleb128 0xe
 895 03bc 723500   		.ascii	"r5\000"
 896 03bf 08       		.byte	0x8
 897 03c0 2001     		.2byte	0x120
 898 03c2 B9020000 		.4byte	0x2b9
ARM GAS  /tmp/cceXxdsG.s 			page 17


 899 03c6 44       		.byte	0x44
 900 03c7 0E       		.uleb128 0xe
 901 03c8 723600   		.ascii	"r6\000"
 902 03cb 08       		.byte	0x8
 903 03cc 2101     		.2byte	0x121
 904 03ce B9020000 		.4byte	0x2b9
 905 03d2 48       		.byte	0x48
 906 03d3 0E       		.uleb128 0xe
 907 03d4 723700   		.ascii	"r7\000"
 908 03d7 08       		.byte	0x8
 909 03d8 2201     		.2byte	0x122
 910 03da B9020000 		.4byte	0x2b9
 911 03de 4C       		.byte	0x4c
 912 03df 0E       		.uleb128 0xe
 913 03e0 723800   		.ascii	"r8\000"
 914 03e3 08       		.byte	0x8
 915 03e4 2301     		.2byte	0x123
 916 03e6 B9020000 		.4byte	0x2b9
 917 03ea 50       		.byte	0x50
 918 03eb 0E       		.uleb128 0xe
 919 03ec 723900   		.ascii	"r9\000"
 920 03ef 08       		.byte	0x8
 921 03f0 2401     		.2byte	0x124
 922 03f2 B9020000 		.4byte	0x2b9
 923 03f6 54       		.byte	0x54
 924 03f7 0E       		.uleb128 0xe
 925 03f8 72313000 		.ascii	"r10\000"
 926 03fc 08       		.byte	0x8
 927 03fd 2501     		.2byte	0x125
 928 03ff B9020000 		.4byte	0x2b9
 929 0403 58       		.byte	0x58
 930 0404 0E       		.uleb128 0xe
 931 0405 72313100 		.ascii	"r11\000"
 932 0409 08       		.byte	0x8
 933 040a 2601     		.2byte	0x126
 934 040c B9020000 		.4byte	0x2b9
 935 0410 5C       		.byte	0x5c
 936 0411 0E       		.uleb128 0xe
 937 0412 6C7200   		.ascii	"lr\000"
 938 0415 08       		.byte	0x8
 939 0416 2701     		.2byte	0x127
 940 0418 B9020000 		.4byte	0x2b9
 941 041c 60       		.byte	0x60
 942 041d 00       		.byte	0
 943 041e 0D       		.uleb128 0xd
 944 041f 2B030000 		.4byte	.LASF55
 945 0423 04       		.byte	0x4
 946 0424 08       		.byte	0x8
 947 0425 3101     		.2byte	0x131
 948 0427 39040000 		.4byte	0x439
 949 042b 0E       		.uleb128 0xe
 950 042c 72313300 		.ascii	"r13\000"
 951 0430 08       		.byte	0x8
 952 0431 3201     		.2byte	0x132
 953 0433 39040000 		.4byte	0x439
 954 0437 00       		.byte	0
 955 0438 00       		.byte	0
ARM GAS  /tmp/cceXxdsG.s 			page 18


 956 0439 0A       		.uleb128 0xa
 957 043a 04       		.byte	0x4
 958 043b D2020000 		.4byte	0x2d2
 959 043f 03       		.uleb128 0x3
 960 0440 07030000 		.4byte	.LASF56
 961 0444 09       		.byte	0x9
 962 0445 58       		.byte	0x58
 963 0446 4A040000 		.4byte	0x44a
 964 044a 0A       		.uleb128 0xa
 965 044b 04       		.byte	0x4
 966 044c 50040000 		.4byte	0x450
 967 0450 0F       		.uleb128 0xf
 968 0451 5B040000 		.4byte	0x45b
 969 0455 10       		.uleb128 0x10
 970 0456 C4020000 		.4byte	0x2c4
 971 045a 00       		.byte	0
 972 045b 03       		.uleb128 0x3
 973 045c 1E030000 		.4byte	.LASF57
 974 0460 09       		.byte	0x9
 975 0461 5D       		.byte	0x5d
 976 0462 66040000 		.4byte	0x466
 977 0466 06       		.uleb128 0x6
 978 0467 1E030000 		.4byte	.LASF57
 979 046b 14       		.byte	0x14
 980 046c 09       		.byte	0x9
 981 046d 64       		.byte	0x64
 982 046e AF040000 		.4byte	0x4af
 983 0472 07       		.uleb128 0x7
 984 0473 E4020000 		.4byte	.LASF58
 985 0477 09       		.byte	0x9
 986 0478 65       		.byte	0x65
 987 0479 AF040000 		.4byte	0x4af
 988 047d 00       		.byte	0
 989 047e 07       		.uleb128 0x7
 990 047f B6020000 		.4byte	.LASF59
 991 0483 09       		.byte	0x9
 992 0484 67       		.byte	0x67
 993 0485 AF040000 		.4byte	0x4af
 994 0489 04       		.byte	0x4
 995 048a 07       		.uleb128 0x7
 996 048b E5030000 		.4byte	.LASF60
 997 048f 09       		.byte	0x9
 998 0490 69       		.byte	0x69
 999 0491 38010000 		.4byte	0x138
 1000 0495 08       		.byte	0x8
 1001 0496 07       		.uleb128 0x7
 1002 0497 F4030000 		.4byte	.LASF61
 1003 049b 09       		.byte	0x9
 1004 049c 6A       		.byte	0x6a
 1005 049d 3F040000 		.4byte	0x43f
 1006 04a1 0C       		.byte	0xc
 1007 04a2 07       		.uleb128 0x7
 1008 04a3 0C060000 		.4byte	.LASF62
 1009 04a7 09       		.byte	0x9
 1010 04a8 6C       		.byte	0x6c
 1011 04a9 C4020000 		.4byte	0x2c4
 1012 04ad 10       		.byte	0x10
ARM GAS  /tmp/cceXxdsG.s 			page 19


 1013 04ae 00       		.byte	0
 1014 04af 0A       		.uleb128 0xa
 1015 04b0 04       		.byte	0x4
 1016 04b1 5B040000 		.4byte	0x45b
 1017 04b5 09       		.uleb128 0x9
 1018 04b6 10       		.byte	0x10
 1019 04b7 09       		.byte	0x9
 1020 04b8 76       		.byte	0x76
 1021 04b9 EE040000 		.4byte	0x4ee
 1022 04bd 07       		.uleb128 0x7
 1023 04be E4020000 		.4byte	.LASF58
 1024 04c2 09       		.byte	0x9
 1025 04c3 77       		.byte	0x77
 1026 04c4 AF040000 		.4byte	0x4af
 1027 04c8 00       		.byte	0
 1028 04c9 07       		.uleb128 0x7
 1029 04ca B6020000 		.4byte	.LASF59
 1030 04ce 09       		.byte	0x9
 1031 04cf 79       		.byte	0x79
 1032 04d0 AF040000 		.4byte	0x4af
 1033 04d4 04       		.byte	0x4
 1034 04d5 07       		.uleb128 0x7
 1035 04d6 E5030000 		.4byte	.LASF60
 1036 04da 09       		.byte	0x9
 1037 04db 7B       		.byte	0x7b
 1038 04dc 38010000 		.4byte	0x138
 1039 04e0 08       		.byte	0x8
 1040 04e1 07       		.uleb128 0x7
 1041 04e2 97060000 		.4byte	.LASF63
 1042 04e6 09       		.byte	0x9
 1043 04e7 7C       		.byte	0x7c
 1044 04e8 43010000 		.4byte	0x143
 1045 04ec 0C       		.byte	0xc
 1046 04ed 00       		.byte	0
 1047 04ee 03       		.uleb128 0x3
 1048 04ef BE060000 		.4byte	.LASF64
 1049 04f3 09       		.byte	0x9
 1050 04f4 7D       		.byte	0x7d
 1051 04f5 B5040000 		.4byte	0x4b5
 1052 04f9 11       		.uleb128 0x11
 1053 04fa 42000000 		.4byte	.LASF72
 1054 04fe 09       		.byte	0x9
 1055 04ff F5       		.byte	0xf5
 1056 0500 EE040000 		.4byte	0x4ee
 1057 0504 09       		.uleb128 0x9
 1058 0505 1C       		.byte	0x1c
 1059 0506 0A       		.byte	0xa
 1060 0507 5E       		.byte	0x5e
 1061 0508 55050000 		.4byte	0x555
 1062 050c 07       		.uleb128 0x7
 1063 050d 94050000 		.4byte	.LASF65
 1064 0511 0A       		.byte	0xa
 1065 0512 5F       		.byte	0x5f
 1066 0513 8E020000 		.4byte	0x28e
 1067 0517 00       		.byte	0
 1068 0518 07       		.uleb128 0x7
 1069 0519 2F050000 		.4byte	.LASF66
ARM GAS  /tmp/cceXxdsG.s 			page 20


 1070 051d 0A       		.byte	0xa
 1071 051e 60       		.byte	0x60
 1072 051f 17010000 		.4byte	0x117
 1073 0523 08       		.byte	0x8
 1074 0524 07       		.uleb128 0x7
 1075 0525 47040000 		.4byte	.LASF67
 1076 0529 0A       		.byte	0xa
 1077 052a 62       		.byte	0x62
 1078 052b 1E040000 		.4byte	0x41e
 1079 052f 0C       		.byte	0xc
 1080 0530 07       		.uleb128 0x7
 1081 0531 51030000 		.4byte	.LASF68
 1082 0535 0A       		.byte	0xa
 1083 0536 65       		.byte	0x65
 1084 0537 88020000 		.4byte	0x288
 1085 053b 10       		.byte	0x10
 1086 053c 07       		.uleb128 0x7
 1087 053d 7B040000 		.4byte	.LASF69
 1088 0541 0A       		.byte	0xa
 1089 0542 66       		.byte	0x66
 1090 0543 88020000 		.4byte	0x288
 1091 0547 14       		.byte	0x14
 1092 0548 07       		.uleb128 0x7
 1093 0549 71040000 		.4byte	.LASF70
 1094 054d 0A       		.byte	0xa
 1095 054e 69       		.byte	0x69
 1096 054f 88020000 		.4byte	0x288
 1097 0553 18       		.byte	0x18
 1098 0554 00       		.byte	0
 1099 0555 03       		.uleb128 0x3
 1100 0556 31060000 		.4byte	.LASF71
 1101 055a 0A       		.byte	0xa
 1102 055b 6B       		.byte	0x6b
 1103 055c 04050000 		.4byte	0x504
 1104 0560 11       		.uleb128 0x11
 1105 0561 64060000 		.4byte	.LASF73
 1106 0565 0A       		.byte	0xa
 1107 0566 6F       		.byte	0x6f
 1108 0567 55050000 		.4byte	0x555
 1109 056b 06       		.uleb128 0x6
 1110 056c B7030000 		.4byte	.LASF74
 1111 0570 10       		.byte	0x10
 1112 0571 0B       		.byte	0xb
 1113 0572 2C       		.byte	0x2c
 1114 0573 9C050000 		.4byte	0x59c
 1115 0577 07       		.uleb128 0x7
 1116 0578 36020000 		.4byte	.LASF75
 1117 057c 0B       		.byte	0xb
 1118 057d 2D       		.byte	0x2d
 1119 057e 8E020000 		.4byte	0x28e
 1120 0582 00       		.byte	0
 1121 0583 07       		.uleb128 0x7
 1122 0584 C5060000 		.4byte	.LASF76
 1123 0588 0B       		.byte	0xb
 1124 0589 2F       		.byte	0x2f
 1125 058a 88020000 		.4byte	0x288
 1126 058e 08       		.byte	0x8
ARM GAS  /tmp/cceXxdsG.s 			page 21


 1127 058f 07       		.uleb128 0x7
 1128 0590 B8050000 		.4byte	.LASF77
 1129 0594 0B       		.byte	0xb
 1130 0595 31       		.byte	0x31
 1131 0596 9C050000 		.4byte	0x59c
 1132 059a 0C       		.byte	0xc
 1133 059b 00       		.byte	0
 1134 059c 0A       		.uleb128 0xa
 1135 059d 04       		.byte	0x4
 1136 059e 6B050000 		.4byte	0x56b
 1137 05a2 03       		.uleb128 0x3
 1138 05a3 B7030000 		.4byte	.LASF74
 1139 05a7 0B       		.byte	0xb
 1140 05a8 33       		.byte	0x33
 1141 05a9 6B050000 		.4byte	0x56b
 1142 05ad 03       		.uleb128 0x3
 1143 05ae 81010000 		.4byte	.LASF78
 1144 05b2 0C       		.byte	0xc
 1145 05b3 2C       		.byte	0x2c
 1146 05b4 B8050000 		.4byte	0x5b8
 1147 05b8 0A       		.uleb128 0xa
 1148 05b9 04       		.byte	0x4
 1149 05ba BE050000 		.4byte	0x5be
 1150 05be 12       		.uleb128 0x12
 1151 05bf C4020000 		.4byte	0x2c4
 1152 05c3 CD050000 		.4byte	0x5cd
 1153 05c7 10       		.uleb128 0x10
 1154 05c8 2C000000 		.4byte	0x2c
 1155 05cc 00       		.byte	0
 1156 05cd 06       		.uleb128 0x6
 1157 05ce 1E060000 		.4byte	.LASF79
 1158 05d2 04       		.byte	0x4
 1159 05d3 0D       		.byte	0xd
 1160 05d4 2C       		.byte	0x2c
 1161 05d5 E6050000 		.4byte	0x5e6
 1162 05d9 07       		.uleb128 0x7
 1163 05da 8E040000 		.4byte	.LASF80
 1164 05de 0D       		.byte	0xd
 1165 05df 2D       		.byte	0x2d
 1166 05e0 E6050000 		.4byte	0x5e6
 1167 05e4 00       		.byte	0
 1168 05e5 00       		.byte	0
 1169 05e6 0A       		.uleb128 0xa
 1170 05e7 04       		.byte	0x4
 1171 05e8 CD050000 		.4byte	0x5cd
 1172 05ec 09       		.uleb128 0x9
 1173 05ed 0C       		.byte	0xc
 1174 05ee 0D       		.byte	0xd
 1175 05ef 34       		.byte	0x34
 1176 05f0 19060000 		.4byte	0x619
 1177 05f4 07       		.uleb128 0x7
 1178 05f5 EB050000 		.4byte	.LASF81
 1179 05f9 0D       		.byte	0xd
 1180 05fa 35       		.byte	0x35
 1181 05fb E6050000 		.4byte	0x5e6
 1182 05ff 00       		.byte	0
 1183 0600 07       		.uleb128 0x7
ARM GAS  /tmp/cceXxdsG.s 			page 22


 1184 0601 5A040000 		.4byte	.LASF82
 1185 0605 0D       		.byte	0xd
 1186 0606 36       		.byte	0x36
 1187 0607 2C000000 		.4byte	0x2c
 1188 060b 04       		.byte	0x4
 1189 060c 07       		.uleb128 0x7
 1190 060d A1020000 		.4byte	.LASF83
 1191 0611 0D       		.byte	0xd
 1192 0612 38       		.byte	0x38
 1193 0613 AD050000 		.4byte	0x5ad
 1194 0617 08       		.byte	0x8
 1195 0618 00       		.byte	0
 1196 0619 03       		.uleb128 0x3
 1197 061a 76010000 		.4byte	.LASF84
 1198 061e 0D       		.byte	0xd
 1199 061f 3A       		.byte	0x3a
 1200 0620 EC050000 		.4byte	0x5ec
 1201 0624 13       		.uleb128 0x13
 1202 0625 04       		.byte	0x4
 1203 0626 07       		.byte	0x7
 1204 0627 96       		.byte	0x96
 1205 0628 59060000 		.4byte	0x659
 1206 062c 14       		.uleb128 0x14
 1207 062d 1A000000 		.4byte	.LASF85
 1208 0631 07       		.byte	0x7
 1209 0632 9D       		.byte	0x9d
 1210 0633 22010000 		.4byte	0x122
 1211 0637 14       		.uleb128 0x14
 1212 0638 85020000 		.4byte	.LASF86
 1213 063c 07       		.byte	0x7
 1214 063d A4       		.byte	0xa4
 1215 063e 22010000 		.4byte	0x122
 1216 0642 14       		.uleb128 0x14
 1217 0643 89060000 		.4byte	.LASF87
 1218 0647 07       		.byte	0x7
 1219 0648 AB       		.byte	0xab
 1220 0649 C4020000 		.4byte	0x2c4
 1221 064d 14       		.uleb128 0x14
 1222 064e 36050000 		.4byte	.LASF88
 1223 0652 07       		.byte	0x7
 1224 0653 B2       		.byte	0xb2
 1225 0654 2D010000 		.4byte	0x12d
 1226 0658 00       		.byte	0
 1227 0659 0A       		.uleb128 0xa
 1228 065a 04       		.byte	0x4
 1229 065b 66060000 		.4byte	0x666
 1230 065f 04       		.uleb128 0x4
 1231 0660 01       		.byte	0x1
 1232 0661 08       		.byte	0x8
 1233 0662 9C050000 		.4byte	.LASF89
 1234 0666 15       		.uleb128 0x15
 1235 0667 5F060000 		.4byte	0x65f
 1236 066b 0A       		.uleb128 0xa
 1237 066c 04       		.byte	0x4
 1238 066d C6020000 		.4byte	0x2c6
 1239 0671 0A       		.uleb128 0xa
 1240 0672 04       		.byte	0x4
ARM GAS  /tmp/cceXxdsG.s 			page 23


 1241 0673 A2050000 		.4byte	0x5a2
 1242 0677 09       		.uleb128 0x9
 1243 0678 16       		.byte	0x16
 1244 0679 0E       		.byte	0xe
 1245 067a 2C       		.byte	0x2c
 1246 067b 58070000 		.4byte	0x758
 1247 067f 07       		.uleb128 0x7
 1248 0680 10030000 		.4byte	.LASF90
 1249 0684 0E       		.byte	0xe
 1250 0685 2D       		.byte	0x2d
 1251 0686 58070000 		.4byte	0x758
 1252 068a 00       		.byte	0
 1253 068b 07       		.uleb128 0x7
 1254 068c D1030000 		.4byte	.LASF91
 1255 0690 0E       		.byte	0xe
 1256 0691 2E       		.byte	0x2e
 1257 0692 AD000000 		.4byte	0xad
 1258 0696 04       		.byte	0x4
 1259 0697 07       		.uleb128 0x7
 1260 0698 69040000 		.4byte	.LASF92
 1261 069c 0E       		.byte	0xe
 1262 069d 2F       		.byte	0x2f
 1263 069e AD000000 		.4byte	0xad
 1264 06a2 05       		.byte	0x5
 1265 06a3 07       		.uleb128 0x7
 1266 06a4 B3060000 		.4byte	.LASF93
 1267 06a8 0E       		.byte	0xe
 1268 06a9 30       		.byte	0x30
 1269 06aa B8000000 		.4byte	0xb8
 1270 06ae 06       		.byte	0x6
 1271 06af 07       		.uleb128 0x7
 1272 06b0 B9040000 		.4byte	.LASF94
 1273 06b4 0E       		.byte	0xe
 1274 06b5 31       		.byte	0x31
 1275 06b6 AD000000 		.4byte	0xad
 1276 06ba 08       		.byte	0x8
 1277 06bb 07       		.uleb128 0x7
 1278 06bc 0B040000 		.4byte	.LASF95
 1279 06c0 0E       		.byte	0xe
 1280 06c1 32       		.byte	0x32
 1281 06c2 AD000000 		.4byte	0xad
 1282 06c6 09       		.byte	0x9
 1283 06c7 07       		.uleb128 0x7
 1284 06c8 34000000 		.4byte	.LASF96
 1285 06cc 0E       		.byte	0xe
 1286 06cd 33       		.byte	0x33
 1287 06ce AD000000 		.4byte	0xad
 1288 06d2 0A       		.byte	0xa
 1289 06d3 07       		.uleb128 0x7
 1290 06d4 88050000 		.4byte	.LASF97
 1291 06d8 0E       		.byte	0xe
 1292 06d9 34       		.byte	0x34
 1293 06da AD000000 		.4byte	0xad
 1294 06de 0B       		.byte	0xb
 1295 06df 07       		.uleb128 0x7
 1296 06e0 13060000 		.4byte	.LASF98
 1297 06e4 0E       		.byte	0xe
ARM GAS  /tmp/cceXxdsG.s 			page 24


 1298 06e5 35       		.byte	0x35
 1299 06e6 AD000000 		.4byte	0xad
 1300 06ea 0C       		.byte	0xc
 1301 06eb 07       		.uleb128 0x7
 1302 06ec 67050000 		.4byte	.LASF99
 1303 06f0 0E       		.byte	0xe
 1304 06f1 36       		.byte	0x36
 1305 06f2 AD000000 		.4byte	0xad
 1306 06f6 0D       		.byte	0xd
 1307 06f7 07       		.uleb128 0x7
 1308 06f8 00000000 		.4byte	.LASF100
 1309 06fc 0E       		.byte	0xe
 1310 06fd 37       		.byte	0x37
 1311 06fe AD000000 		.4byte	0xad
 1312 0702 0E       		.byte	0xe
 1313 0703 07       		.uleb128 0x7
 1314 0704 33040000 		.4byte	.LASF101
 1315 0708 0E       		.byte	0xe
 1316 0709 38       		.byte	0x38
 1317 070a AD000000 		.4byte	0xad
 1318 070e 0F       		.byte	0xf
 1319 070f 07       		.uleb128 0x7
 1320 0710 11020000 		.4byte	.LASF102
 1321 0714 0E       		.byte	0xe
 1322 0715 39       		.byte	0x39
 1323 0716 AD000000 		.4byte	0xad
 1324 071a 10       		.byte	0x10
 1325 071b 07       		.uleb128 0x7
 1326 071c E4010000 		.4byte	.LASF103
 1327 0720 0E       		.byte	0xe
 1328 0721 3B       		.byte	0x3b
 1329 0722 AD000000 		.4byte	0xad
 1330 0726 11       		.byte	0x11
 1331 0727 07       		.uleb128 0x7
 1332 0728 21020000 		.4byte	.LASF104
 1333 072c 0E       		.byte	0xe
 1334 072d 3C       		.byte	0x3c
 1335 072e AD000000 		.4byte	0xad
 1336 0732 12       		.byte	0x12
 1337 0733 07       		.uleb128 0x7
 1338 0734 D9030000 		.4byte	.LASF105
 1339 0738 0E       		.byte	0xe
 1340 0739 3D       		.byte	0x3d
 1341 073a AD000000 		.4byte	0xad
 1342 073e 13       		.byte	0x13
 1343 073f 07       		.uleb128 0x7
 1344 0740 44050000 		.4byte	.LASF106
 1345 0744 0E       		.byte	0xe
 1346 0745 3E       		.byte	0x3e
 1347 0746 AD000000 		.4byte	0xad
 1348 074a 14       		.byte	0x14
 1349 074b 07       		.uleb128 0x7
 1350 074c 23050000 		.4byte	.LASF107
 1351 0750 0E       		.byte	0xe
 1352 0751 40       		.byte	0x40
 1353 0752 AD000000 		.4byte	0xad
 1354 0756 15       		.byte	0x15
ARM GAS  /tmp/cceXxdsG.s 			page 25


 1355 0757 00       		.byte	0
 1356 0758 16       		.uleb128 0x16
 1357 0759 5F060000 		.4byte	0x65f
 1358 075d 68070000 		.4byte	0x768
 1359 0761 17       		.uleb128 0x17
 1360 0762 37000000 		.4byte	0x37
 1361 0766 03       		.byte	0x3
 1362 0767 00       		.byte	0
 1363 0768 03       		.uleb128 0x3
 1364 0769 63020000 		.4byte	.LASF108
 1365 076d 0E       		.byte	0xe
 1366 076e 41       		.byte	0x41
 1367 076f 77060000 		.4byte	0x677
 1368 0773 15       		.uleb128 0x15
 1369 0774 68070000 		.4byte	0x768
 1370 0778 11       		.uleb128 0x11
 1371 0779 FE020000 		.4byte	.LASF109
 1372 077d 0E       		.byte	0xe
 1373 077e 7E       		.byte	0x7e
 1374 077f 73070000 		.4byte	0x773
 1375 0783 09       		.uleb128 0x9
 1376 0784 10       		.byte	0x10
 1377 0785 0F       		.byte	0xf
 1378 0786 71       		.byte	0x71
 1379 0787 BC070000 		.4byte	0x7bc
 1380 078b 07       		.uleb128 0x7
 1381 078c BE020000 		.4byte	.LASF110
 1382 0790 0F       		.byte	0xf
 1383 0791 72       		.byte	0x72
 1384 0792 38010000 		.4byte	0x138
 1385 0796 00       		.byte	0
 1386 0797 07       		.uleb128 0x7
 1387 0798 F1010000 		.4byte	.LASF111
 1388 079c 0F       		.byte	0xf
 1389 079d 73       		.byte	0x73
 1390 079e 88020000 		.4byte	0x288
 1391 07a2 04       		.byte	0x4
 1392 07a3 07       		.uleb128 0x7
 1393 07a4 CD060000 		.4byte	.LASF112
 1394 07a8 0F       		.byte	0xf
 1395 07a9 74       		.byte	0x74
 1396 07aa C4020000 		.4byte	0x2c4
 1397 07ae 08       		.byte	0x8
 1398 07af 07       		.uleb128 0x7
 1399 07b0 C8030000 		.4byte	.LASF113
 1400 07b4 0F       		.byte	0xf
 1401 07b5 75       		.byte	0x75
 1402 07b6 AD000000 		.4byte	0xad
 1403 07ba 0C       		.byte	0xc
 1404 07bb 00       		.byte	0
 1405 07bc 03       		.uleb128 0x3
 1406 07bd 24040000 		.4byte	.LASF114
 1407 07c1 0F       		.byte	0xf
 1408 07c2 76       		.byte	0x76
 1409 07c3 83070000 		.4byte	0x783
 1410 07c7 18       		.uleb128 0x18
 1411 07c8 0804     		.2byte	0x408
ARM GAS  /tmp/cceXxdsG.s 			page 26


 1412 07ca 0F       		.byte	0xf
 1413 07cb 7B       		.byte	0x7b
 1414 07cc F5070000 		.4byte	0x7f5
 1415 07d0 07       		.uleb128 0x7
 1416 07d1 8E020000 		.4byte	.LASF115
 1417 07d5 0F       		.byte	0xf
 1418 07d6 7C       		.byte	0x7c
 1419 07d7 37000000 		.4byte	0x37
 1420 07db 00       		.byte	0
 1421 07dc 07       		.uleb128 0x7
 1422 07dd ED030000 		.4byte	.LASF116
 1423 07e1 0F       		.byte	0xf
 1424 07e2 7D       		.byte	0x7d
 1425 07e3 F5070000 		.4byte	0x7f5
 1426 07e7 04       		.byte	0x4
 1427 07e8 07       		.uleb128 0x7
 1428 07e9 AF040000 		.4byte	.LASF117
 1429 07ed 0F       		.byte	0xf
 1430 07ee 7F       		.byte	0x7f
 1431 07ef FB070000 		.4byte	0x7fb
 1432 07f3 08       		.byte	0x8
 1433 07f4 00       		.byte	0
 1434 07f5 0A       		.uleb128 0xa
 1435 07f6 04       		.byte	0x4
 1436 07f7 BC070000 		.4byte	0x7bc
 1437 07fb 16       		.uleb128 0x16
 1438 07fc BC070000 		.4byte	0x7bc
 1439 0800 0B080000 		.4byte	0x80b
 1440 0804 17       		.uleb128 0x17
 1441 0805 37000000 		.4byte	0x37
 1442 0809 3F       		.byte	0x3f
 1443 080a 00       		.byte	0
 1444 080b 03       		.uleb128 0x3
 1445 080c B5010000 		.4byte	.LASF118
 1446 0810 0F       		.byte	0xf
 1447 0811 80       		.byte	0x80
 1448 0812 C7070000 		.4byte	0x7c7
 1449 0816 11       		.uleb128 0x11
 1450 0817 96040000 		.4byte	.LASF119
 1451 081b 0F       		.byte	0xf
 1452 081c 83       		.byte	0x83
 1453 081d 0B080000 		.4byte	0x80b
 1454 0821 11       		.uleb128 0x11
 1455 0822 93030000 		.4byte	.LASF120
 1456 0826 0F       		.byte	0xf
 1457 0827 E2       		.byte	0xe2
 1458 0828 48010000 		.4byte	0x148
 1459 082c 11       		.uleb128 0x11
 1460 082d DE050000 		.4byte	.LASF121
 1461 0831 0F       		.byte	0xf
 1462 0832 E3       		.byte	0xe3
 1463 0833 48010000 		.4byte	0x148
 1464 0837 11       		.uleb128 0x11
 1465 0838 EF040000 		.4byte	.LASF122
 1466 083c 0F       		.byte	0xf
 1467 083d F5       		.byte	0xf5
 1468 083e 59060000 		.4byte	0x659
ARM GAS  /tmp/cceXxdsG.s 			page 27


 1469 0842 19       		.uleb128 0x19
 1470 0843 C6020000 		.4byte	0x2c6
 1471 0847 08       		.byte	0x8
 1472 0848 53080000 		.4byte	0x853
 1473 084c 17       		.uleb128 0x17
 1474 084d 37000000 		.4byte	0x37
 1475 0851 3A       		.byte	0x3a
 1476 0852 00       		.byte	0
 1477 0853 11       		.uleb128 0x11
 1478 0854 75020000 		.4byte	.LASF123
 1479 0858 10       		.byte	0x10
 1480 0859 89       		.byte	0x89
 1481 085a 42080000 		.4byte	0x842
 1482 085e 1A       		.uleb128 0x1a
 1483 085f 7E060000 		.4byte	.LASF125
 1484 0863 01       		.byte	0x1
 1485 0864 AB       		.byte	0xab
 1486 0865 00000000 		.4byte	.LFB12
 1487 0869 1C000000 		.4byte	.LFE12-.LFB12
 1488 086d 01       		.uleb128 0x1
 1489 086e 9C       		.byte	0x9c
 1490 086f BD080000 		.4byte	0x8bd
 1491 0873 1B       		.uleb128 0x1b
 1492 0874 6D7000   		.ascii	"mp\000"
 1493 0877 01       		.byte	0x1
 1494 0878 AB       		.byte	0xab
 1495 0879 BD080000 		.4byte	0x8bd
 1496 087d 00000000 		.4byte	.LLST11
 1497 0881 1C       		.uleb128 0x1c
 1498 0882 5B050000 		.4byte	.LASF124
 1499 0886 01       		.byte	0x1
 1500 0887 AB       		.byte	0xab
 1501 0888 C4020000 		.4byte	0x2c4
 1502 088c 1E000000 		.4byte	.LLST12
 1503 0890 1D       		.uleb128 0x1d
 1504 0891 0C000000 		.4byte	.LVL24
 1505 0895 DF0A0000 		.4byte	0xadf
 1506 0899 1E       		.uleb128 0x1e
 1507 089a 14000000 		.4byte	.LVL25
 1508 089e C3080000 		.4byte	0x8c3
 1509 08a2 B3080000 		.4byte	0x8b3
 1510 08a6 1F       		.uleb128 0x1f
 1511 08a7 01       		.uleb128 0x1
 1512 08a8 50       		.byte	0x50
 1513 08a9 02       		.uleb128 0x2
 1514 08aa 74       		.byte	0x74
 1515 08ab 00       		.sleb128 0
 1516 08ac 1F       		.uleb128 0x1f
 1517 08ad 01       		.uleb128 0x1
 1518 08ae 51       		.byte	0x51
 1519 08af 02       		.uleb128 0x2
 1520 08b0 75       		.byte	0x75
 1521 08b1 00       		.sleb128 0
 1522 08b2 00       		.byte	0
 1523 08b3 1D       		.uleb128 0x1d
 1524 08b4 18000000 		.4byte	.LVL26
 1525 08b8 EA0A0000 		.4byte	0xaea
ARM GAS  /tmp/cceXxdsG.s 			page 28


 1526 08bc 00       		.byte	0
 1527 08bd 0A       		.uleb128 0xa
 1528 08be 04       		.byte	0x4
 1529 08bf 19060000 		.4byte	0x619
 1530 08c3 1A       		.uleb128 0x1a
 1531 08c4 AC050000 		.4byte	.LASF126
 1532 08c8 01       		.byte	0x1
 1533 08c9 95       		.byte	0x95
 1534 08ca 00000000 		.4byte	.LFB11
 1535 08ce 28000000 		.4byte	.LFE11-.LFB11
 1536 08d2 01       		.uleb128 0x1
 1537 08d3 9C       		.byte	0x9c
 1538 08d4 21090000 		.4byte	0x921
 1539 08d8 1B       		.uleb128 0x1b
 1540 08d9 6D7000   		.ascii	"mp\000"
 1541 08dc 01       		.byte	0x1
 1542 08dd 95       		.byte	0x95
 1543 08de BD080000 		.4byte	0x8bd
 1544 08e2 3C000000 		.4byte	.LLST8
 1545 08e6 1C       		.uleb128 0x1c
 1546 08e7 5B050000 		.4byte	.LASF124
 1547 08eb 01       		.byte	0x1
 1548 08ec 95       		.byte	0x95
 1549 08ed C4020000 		.4byte	0x2c4
 1550 08f1 68000000 		.4byte	.LLST9
 1551 08f5 20       		.uleb128 0x20
 1552 08f6 70687000 		.ascii	"php\000"
 1553 08fa 01       		.byte	0x1
 1554 08fb 96       		.byte	0x96
 1555 08fc E6050000 		.4byte	0x5e6
 1556 0900 93000000 		.4byte	.LLST10
 1557 0904 1D       		.uleb128 0x1d
 1558 0905 0A000000 		.4byte	.LVL19
 1559 0909 F50A0000 		.4byte	0xaf5
 1560 090d 21       		.uleb128 0x21
 1561 090e 1C000000 		.4byte	.LVL21
 1562 0912 000B0000 		.4byte	0xb00
 1563 0916 1F       		.uleb128 0x1f
 1564 0917 01       		.uleb128 0x1
 1565 0918 50       		.byte	0x50
 1566 0919 05       		.uleb128 0x5
 1567 091a 03       		.byte	0x3
 1568 091b 00000000 		.4byte	.LC2
 1569 091f 00       		.byte	0
 1570 0920 00       		.byte	0
 1571 0921 22       		.uleb128 0x22
 1572 0922 72060000 		.4byte	.LASF139
 1573 0926 01       		.byte	0x1
 1574 0927 80       		.byte	0x80
 1575 0928 C4020000 		.4byte	0x2c4
 1576 092c 00000000 		.4byte	.LFB10
 1577 0930 1C000000 		.4byte	.LFE10-.LFB10
 1578 0934 01       		.uleb128 0x1
 1579 0935 9C       		.byte	0x9c
 1580 0936 7E090000 		.4byte	0x97e
 1581 093a 1B       		.uleb128 0x1b
 1582 093b 6D7000   		.ascii	"mp\000"
ARM GAS  /tmp/cceXxdsG.s 			page 29


 1583 093e 01       		.byte	0x1
 1584 093f 80       		.byte	0x80
 1585 0940 BD080000 		.4byte	0x8bd
 1586 0944 BE000000 		.4byte	.LLST6
 1587 0948 23       		.uleb128 0x23
 1588 0949 5B050000 		.4byte	.LASF124
 1589 094d 01       		.byte	0x1
 1590 094e 81       		.byte	0x81
 1591 094f C4020000 		.4byte	0x2c4
 1592 0953 EA000000 		.4byte	.LLST7
 1593 0957 1D       		.uleb128 0x1d
 1594 0958 0A000000 		.4byte	.LVL13
 1595 095c DF0A0000 		.4byte	0xadf
 1596 0960 1E       		.uleb128 0x1e
 1597 0961 10000000 		.4byte	.LVL14
 1598 0965 7E090000 		.4byte	0x97e
 1599 0969 74090000 		.4byte	0x974
 1600 096d 1F       		.uleb128 0x1f
 1601 096e 01       		.uleb128 0x1
 1602 096f 50       		.byte	0x50
 1603 0970 02       		.uleb128 0x2
 1604 0971 74       		.byte	0x74
 1605 0972 00       		.sleb128 0
 1606 0973 00       		.byte	0
 1607 0974 1D       		.uleb128 0x1d
 1608 0975 16000000 		.4byte	.LVL16
 1609 0979 EA0A0000 		.4byte	0xaea
 1610 097d 00       		.byte	0
 1611 097e 24       		.uleb128 0x24
 1612 097f 17040000 		.4byte	.LASF140
 1613 0983 01       		.byte	0x1
 1614 0984 69       		.byte	0x69
 1615 0985 C4020000 		.4byte	0x2c4
 1616 0989 01       		.byte	0x1
 1617 098a A4090000 		.4byte	0x9a4
 1618 098e 25       		.uleb128 0x25
 1619 098f 6D7000   		.ascii	"mp\000"
 1620 0992 01       		.byte	0x1
 1621 0993 69       		.byte	0x69
 1622 0994 BD080000 		.4byte	0x8bd
 1623 0998 26       		.uleb128 0x26
 1624 0999 5B050000 		.4byte	.LASF124
 1625 099d 01       		.byte	0x1
 1626 099e 6A       		.byte	0x6a
 1627 099f C4020000 		.4byte	0x2c4
 1628 09a3 00       		.byte	0
 1629 09a4 1A       		.uleb128 0x1a
 1630 09a5 8E010000 		.4byte	.LASF127
 1631 09a9 01       		.byte	0x1
 1632 09aa 54       		.byte	0x54
 1633 09ab 00000000 		.4byte	.LFB8
 1634 09af 34000000 		.4byte	.LFE8-.LFB8
 1635 09b3 01       		.uleb128 0x1
 1636 09b4 9C       		.byte	0x9c
 1637 09b5 260A0000 		.4byte	0xa26
 1638 09b9 1B       		.uleb128 0x1b
 1639 09ba 6D7000   		.ascii	"mp\000"
ARM GAS  /tmp/cceXxdsG.s 			page 30


 1640 09bd 01       		.byte	0x1
 1641 09be 54       		.byte	0x54
 1642 09bf BD080000 		.4byte	0x8bd
 1643 09c3 08010000 		.4byte	.LLST13
 1644 09c7 1B       		.uleb128 0x1b
 1645 09c8 7000     		.ascii	"p\000"
 1646 09ca 01       		.byte	0x1
 1647 09cb 54       		.byte	0x54
 1648 09cc C4020000 		.4byte	0x2c4
 1649 09d0 58010000 		.4byte	.LLST14
 1650 09d4 1B       		.uleb128 0x1b
 1651 09d5 6E00     		.ascii	"n\000"
 1652 09d7 01       		.byte	0x1
 1653 09d8 54       		.byte	0x54
 1654 09d9 2C000000 		.4byte	0x2c
 1655 09dd 8F010000 		.4byte	.LLST15
 1656 09e1 27       		.uleb128 0x27
 1657 09e2 16000000 		.4byte	.LVL30
 1658 09e6 000B0000 		.4byte	0xb00
 1659 09ea F8090000 		.4byte	0x9f8
 1660 09ee 1F       		.uleb128 0x1f
 1661 09ef 01       		.uleb128 0x1
 1662 09f0 50       		.byte	0x50
 1663 09f1 05       		.uleb128 0x5
 1664 09f2 03       		.byte	0x3
 1665 09f3 00000000 		.4byte	.LC3
 1666 09f7 00       		.byte	0
 1667 09f8 1E       		.uleb128 0x1e
 1668 09f9 1C000000 		.4byte	.LVL32
 1669 09fd 000B0000 		.4byte	0xb00
 1670 0a01 0F0A0000 		.4byte	0xa0f
 1671 0a05 1F       		.uleb128 0x1f
 1672 0a06 01       		.uleb128 0x1
 1673 0a07 50       		.byte	0x50
 1674 0a08 05       		.uleb128 0x5
 1675 0a09 03       		.byte	0x3
 1676 0a0a 00000000 		.4byte	.LC3
 1677 0a0e 00       		.byte	0
 1678 0a0f 21       		.uleb128 0x21
 1679 0a10 26000000 		.4byte	.LVL34
 1680 0a14 5E080000 		.4byte	0x85e
 1681 0a18 1F       		.uleb128 0x1f
 1682 0a19 01       		.uleb128 0x1
 1683 0a1a 50       		.byte	0x50
 1684 0a1b 02       		.uleb128 0x2
 1685 0a1c 76       		.byte	0x76
 1686 0a1d 00       		.sleb128 0
 1687 0a1e 1F       		.uleb128 0x1f
 1688 0a1f 01       		.uleb128 0x1
 1689 0a20 51       		.byte	0x51
 1690 0a21 02       		.uleb128 0x2
 1691 0a22 75       		.byte	0x75
 1692 0a23 00       		.sleb128 0
 1693 0a24 00       		.byte	0
 1694 0a25 00       		.byte	0
 1695 0a26 1A       		.uleb128 0x1a
 1696 0a27 D2010000 		.4byte	.LASF128
ARM GAS  /tmp/cceXxdsG.s 			page 31


 1697 0a2b 01       		.byte	0x1
 1698 0a2c 3E       		.byte	0x3e
 1699 0a2d 00000000 		.4byte	.LFB7
 1700 0a31 24000000 		.4byte	.LFE7-.LFB7
 1701 0a35 01       		.uleb128 0x1
 1702 0a36 9C       		.byte	0x9c
 1703 0a37 7B0A0000 		.4byte	0xa7b
 1704 0a3b 1B       		.uleb128 0x1b
 1705 0a3c 6D7000   		.ascii	"mp\000"
 1706 0a3f 01       		.byte	0x1
 1707 0a40 3E       		.byte	0x3e
 1708 0a41 BD080000 		.4byte	0x8bd
 1709 0a45 D3010000 		.4byte	.LLST0
 1710 0a49 1C       		.uleb128 0x1c
 1711 0a4a 33030000 		.4byte	.LASF129
 1712 0a4e 01       		.byte	0x1
 1713 0a4f 3E       		.byte	0x3e
 1714 0a50 2C000000 		.4byte	0x2c
 1715 0a54 FF010000 		.4byte	.LLST1
 1716 0a58 1C       		.uleb128 0x1c
 1717 0a59 49000000 		.4byte	.LASF130
 1718 0a5d 01       		.byte	0x1
 1719 0a5e 3E       		.byte	0x3e
 1720 0a5f AD050000 		.4byte	0x5ad
 1721 0a63 2C020000 		.4byte	.LLST2
 1722 0a67 21       		.uleb128 0x21
 1723 0a68 14000000 		.4byte	.LVL2
 1724 0a6c 000B0000 		.4byte	0xb00
 1725 0a70 1F       		.uleb128 0x1f
 1726 0a71 01       		.uleb128 0x1
 1727 0a72 50       		.byte	0x50
 1728 0a73 05       		.uleb128 0x5
 1729 0a74 03       		.byte	0x3
 1730 0a75 00000000 		.4byte	.LC0
 1731 0a79 00       		.byte	0
 1732 0a7a 00       		.byte	0
 1733 0a7b 28       		.uleb128 0x28
 1734 0a7c 7E090000 		.4byte	0x97e
 1735 0a80 00000000 		.4byte	.LFB9
 1736 0a84 30000000 		.4byte	.LFE9-.LFB9
 1737 0a88 01       		.uleb128 0x1
 1738 0a89 9C       		.byte	0x9c
 1739 0a8a DF0A0000 		.4byte	0xadf
 1740 0a8e 29       		.uleb128 0x29
 1741 0a8f 8E090000 		.4byte	0x98e
 1742 0a93 59020000 		.4byte	.LLST3
 1743 0a97 2A       		.uleb128 0x2a
 1744 0a98 98090000 		.4byte	0x998
 1745 0a9c 90020000 		.4byte	.LLST4
 1746 0aa0 2B       		.uleb128 0x2b
 1747 0aa1 7E090000 		.4byte	0x97e
 1748 0aa5 00000000 		.4byte	.Ldebug_ranges0+0
 1749 0aa9 C20A0000 		.4byte	0xac2
 1750 0aad 29       		.uleb128 0x29
 1751 0aae 8E090000 		.4byte	0x98e
 1752 0ab2 BC020000 		.4byte	.LLST5
 1753 0ab6 2C       		.uleb128 0x2c
ARM GAS  /tmp/cceXxdsG.s 			page 32


 1754 0ab7 00000000 		.4byte	.Ldebug_ranges0+0
 1755 0abb 2D       		.uleb128 0x2d
 1756 0abc 970A0000 		.4byte	0xa97
 1757 0ac0 00       		.byte	0
 1758 0ac1 00       		.byte	0
 1759 0ac2 1D       		.uleb128 0x1d
 1760 0ac3 08000000 		.4byte	.LVL5
 1761 0ac7 F50A0000 		.4byte	0xaf5
 1762 0acb 21       		.uleb128 0x21
 1763 0acc 28000000 		.4byte	.LVL11
 1764 0ad0 000B0000 		.4byte	0xb00
 1765 0ad4 1F       		.uleb128 0x1f
 1766 0ad5 01       		.uleb128 0x1
 1767 0ad6 50       		.byte	0x50
 1768 0ad7 05       		.uleb128 0x5
 1769 0ad8 03       		.byte	0x3
 1770 0ad9 00000000 		.4byte	.LC1
 1771 0add 00       		.byte	0
 1772 0ade 00       		.byte	0
 1773 0adf 2E       		.uleb128 0x2e
 1774 0ae0 FC030000 		.4byte	.LASF131
 1775 0ae4 FC030000 		.4byte	.LASF131
 1776 0ae8 0F       		.byte	0xf
 1777 0ae9 E7       		.byte	0xe7
 1778 0aea 2E       		.uleb128 0x2e
 1779 0aeb A2060000 		.4byte	.LASF132
 1780 0aef A2060000 		.4byte	.LASF132
 1781 0af3 0F       		.byte	0xf
 1782 0af4 E8       		.byte	0xe8
 1783 0af5 2E       		.uleb128 0x2e
 1784 0af6 59030000 		.4byte	.LASF133
 1785 0afa 59030000 		.4byte	.LASF133
 1786 0afe 0F       		.byte	0xf
 1787 0aff ED       		.byte	0xed
 1788 0b00 2E       		.uleb128 0x2e
 1789 0b01 C7010000 		.4byte	.LASF134
 1790 0b05 C7010000 		.4byte	.LASF134
 1791 0b09 0F       		.byte	0xf
 1792 0b0a F6       		.byte	0xf6
 1793 0b0b 00       		.byte	0
 1794              		.section	.debug_abbrev,"",%progbits
 1795              	.Ldebug_abbrev0:
 1796 0000 01       		.uleb128 0x1
 1797 0001 11       		.uleb128 0x11
 1798 0002 01       		.byte	0x1
 1799 0003 25       		.uleb128 0x25
 1800 0004 0E       		.uleb128 0xe
 1801 0005 13       		.uleb128 0x13
 1802 0006 0B       		.uleb128 0xb
 1803 0007 03       		.uleb128 0x3
 1804 0008 0E       		.uleb128 0xe
 1805 0009 1B       		.uleb128 0x1b
 1806 000a 0E       		.uleb128 0xe
 1807 000b 55       		.uleb128 0x55
 1808 000c 17       		.uleb128 0x17
 1809 000d 11       		.uleb128 0x11
 1810 000e 01       		.uleb128 0x1
ARM GAS  /tmp/cceXxdsG.s 			page 33


 1811 000f 10       		.uleb128 0x10
 1812 0010 17       		.uleb128 0x17
 1813 0011 00       		.byte	0
 1814 0012 00       		.byte	0
 1815 0013 02       		.uleb128 0x2
 1816 0014 24       		.uleb128 0x24
 1817 0015 00       		.byte	0
 1818 0016 0B       		.uleb128 0xb
 1819 0017 0B       		.uleb128 0xb
 1820 0018 3E       		.uleb128 0x3e
 1821 0019 0B       		.uleb128 0xb
 1822 001a 03       		.uleb128 0x3
 1823 001b 08       		.uleb128 0x8
 1824 001c 00       		.byte	0
 1825 001d 00       		.byte	0
 1826 001e 03       		.uleb128 0x3
 1827 001f 16       		.uleb128 0x16
 1828 0020 00       		.byte	0
 1829 0021 03       		.uleb128 0x3
 1830 0022 0E       		.uleb128 0xe
 1831 0023 3A       		.uleb128 0x3a
 1832 0024 0B       		.uleb128 0xb
 1833 0025 3B       		.uleb128 0x3b
 1834 0026 0B       		.uleb128 0xb
 1835 0027 49       		.uleb128 0x49
 1836 0028 13       		.uleb128 0x13
 1837 0029 00       		.byte	0
 1838 002a 00       		.byte	0
 1839 002b 04       		.uleb128 0x4
 1840 002c 24       		.uleb128 0x24
 1841 002d 00       		.byte	0
 1842 002e 0B       		.uleb128 0xb
 1843 002f 0B       		.uleb128 0xb
 1844 0030 3E       		.uleb128 0x3e
 1845 0031 0B       		.uleb128 0xb
 1846 0032 03       		.uleb128 0x3
 1847 0033 0E       		.uleb128 0xe
 1848 0034 00       		.byte	0
 1849 0035 00       		.byte	0
 1850 0036 05       		.uleb128 0x5
 1851 0037 35       		.uleb128 0x35
 1852 0038 00       		.byte	0
 1853 0039 49       		.uleb128 0x49
 1854 003a 13       		.uleb128 0x13
 1855 003b 00       		.byte	0
 1856 003c 00       		.byte	0
 1857 003d 06       		.uleb128 0x6
 1858 003e 13       		.uleb128 0x13
 1859 003f 01       		.byte	0x1
 1860 0040 03       		.uleb128 0x3
 1861 0041 0E       		.uleb128 0xe
 1862 0042 0B       		.uleb128 0xb
 1863 0043 0B       		.uleb128 0xb
 1864 0044 3A       		.uleb128 0x3a
 1865 0045 0B       		.uleb128 0xb
 1866 0046 3B       		.uleb128 0x3b
 1867 0047 0B       		.uleb128 0xb
ARM GAS  /tmp/cceXxdsG.s 			page 34


 1868 0048 01       		.uleb128 0x1
 1869 0049 13       		.uleb128 0x13
 1870 004a 00       		.byte	0
 1871 004b 00       		.byte	0
 1872 004c 07       		.uleb128 0x7
 1873 004d 0D       		.uleb128 0xd
 1874 004e 00       		.byte	0
 1875 004f 03       		.uleb128 0x3
 1876 0050 0E       		.uleb128 0xe
 1877 0051 3A       		.uleb128 0x3a
 1878 0052 0B       		.uleb128 0xb
 1879 0053 3B       		.uleb128 0x3b
 1880 0054 0B       		.uleb128 0xb
 1881 0055 49       		.uleb128 0x49
 1882 0056 13       		.uleb128 0x13
 1883 0057 38       		.uleb128 0x38
 1884 0058 0B       		.uleb128 0xb
 1885 0059 00       		.byte	0
 1886 005a 00       		.byte	0
 1887 005b 08       		.uleb128 0x8
 1888 005c 0D       		.uleb128 0xd
 1889 005d 00       		.byte	0
 1890 005e 03       		.uleb128 0x3
 1891 005f 08       		.uleb128 0x8
 1892 0060 3A       		.uleb128 0x3a
 1893 0061 0B       		.uleb128 0xb
 1894 0062 3B       		.uleb128 0x3b
 1895 0063 0B       		.uleb128 0xb
 1896 0064 49       		.uleb128 0x49
 1897 0065 13       		.uleb128 0x13
 1898 0066 38       		.uleb128 0x38
 1899 0067 0B       		.uleb128 0xb
 1900 0068 00       		.byte	0
 1901 0069 00       		.byte	0
 1902 006a 09       		.uleb128 0x9
 1903 006b 13       		.uleb128 0x13
 1904 006c 01       		.byte	0x1
 1905 006d 0B       		.uleb128 0xb
 1906 006e 0B       		.uleb128 0xb
 1907 006f 3A       		.uleb128 0x3a
 1908 0070 0B       		.uleb128 0xb
 1909 0071 3B       		.uleb128 0x3b
 1910 0072 0B       		.uleb128 0xb
 1911 0073 01       		.uleb128 0x1
 1912 0074 13       		.uleb128 0x13
 1913 0075 00       		.byte	0
 1914 0076 00       		.byte	0
 1915 0077 0A       		.uleb128 0xa
 1916 0078 0F       		.uleb128 0xf
 1917 0079 00       		.byte	0
 1918 007a 0B       		.uleb128 0xb
 1919 007b 0B       		.uleb128 0xb
 1920 007c 49       		.uleb128 0x49
 1921 007d 13       		.uleb128 0x13
 1922 007e 00       		.byte	0
 1923 007f 00       		.byte	0
 1924 0080 0B       		.uleb128 0xb
ARM GAS  /tmp/cceXxdsG.s 			page 35


 1925 0081 0F       		.uleb128 0xf
 1926 0082 00       		.byte	0
 1927 0083 0B       		.uleb128 0xb
 1928 0084 0B       		.uleb128 0xb
 1929 0085 00       		.byte	0
 1930 0086 00       		.byte	0
 1931 0087 0C       		.uleb128 0xc
 1932 0088 16       		.uleb128 0x16
 1933 0089 00       		.byte	0
 1934 008a 03       		.uleb128 0x3
 1935 008b 0E       		.uleb128 0xe
 1936 008c 3A       		.uleb128 0x3a
 1937 008d 0B       		.uleb128 0xb
 1938 008e 3B       		.uleb128 0x3b
 1939 008f 0B       		.uleb128 0xb
 1940 0090 49       		.uleb128 0x49
 1941 0091 13       		.uleb128 0x13
 1942 0092 8801     		.uleb128 0x88
 1943 0094 0B       		.uleb128 0xb
 1944 0095 00       		.byte	0
 1945 0096 00       		.byte	0
 1946 0097 0D       		.uleb128 0xd
 1947 0098 13       		.uleb128 0x13
 1948 0099 01       		.byte	0x1
 1949 009a 03       		.uleb128 0x3
 1950 009b 0E       		.uleb128 0xe
 1951 009c 0B       		.uleb128 0xb
 1952 009d 0B       		.uleb128 0xb
 1953 009e 3A       		.uleb128 0x3a
 1954 009f 0B       		.uleb128 0xb
 1955 00a0 3B       		.uleb128 0x3b
 1956 00a1 05       		.uleb128 0x5
 1957 00a2 01       		.uleb128 0x1
 1958 00a3 13       		.uleb128 0x13
 1959 00a4 00       		.byte	0
 1960 00a5 00       		.byte	0
 1961 00a6 0E       		.uleb128 0xe
 1962 00a7 0D       		.uleb128 0xd
 1963 00a8 00       		.byte	0
 1964 00a9 03       		.uleb128 0x3
 1965 00aa 08       		.uleb128 0x8
 1966 00ab 3A       		.uleb128 0x3a
 1967 00ac 0B       		.uleb128 0xb
 1968 00ad 3B       		.uleb128 0x3b
 1969 00ae 05       		.uleb128 0x5
 1970 00af 49       		.uleb128 0x49
 1971 00b0 13       		.uleb128 0x13
 1972 00b1 38       		.uleb128 0x38
 1973 00b2 0B       		.uleb128 0xb
 1974 00b3 00       		.byte	0
 1975 00b4 00       		.byte	0
 1976 00b5 0F       		.uleb128 0xf
 1977 00b6 15       		.uleb128 0x15
 1978 00b7 01       		.byte	0x1
 1979 00b8 27       		.uleb128 0x27
 1980 00b9 19       		.uleb128 0x19
 1981 00ba 01       		.uleb128 0x1
ARM GAS  /tmp/cceXxdsG.s 			page 36


 1982 00bb 13       		.uleb128 0x13
 1983 00bc 00       		.byte	0
 1984 00bd 00       		.byte	0
 1985 00be 10       		.uleb128 0x10
 1986 00bf 05       		.uleb128 0x5
 1987 00c0 00       		.byte	0
 1988 00c1 49       		.uleb128 0x49
 1989 00c2 13       		.uleb128 0x13
 1990 00c3 00       		.byte	0
 1991 00c4 00       		.byte	0
 1992 00c5 11       		.uleb128 0x11
 1993 00c6 34       		.uleb128 0x34
 1994 00c7 00       		.byte	0
 1995 00c8 03       		.uleb128 0x3
 1996 00c9 0E       		.uleb128 0xe
 1997 00ca 3A       		.uleb128 0x3a
 1998 00cb 0B       		.uleb128 0xb
 1999 00cc 3B       		.uleb128 0x3b
 2000 00cd 0B       		.uleb128 0xb
 2001 00ce 49       		.uleb128 0x49
 2002 00cf 13       		.uleb128 0x13
 2003 00d0 3F       		.uleb128 0x3f
 2004 00d1 19       		.uleb128 0x19
 2005 00d2 3C       		.uleb128 0x3c
 2006 00d3 19       		.uleb128 0x19
 2007 00d4 00       		.byte	0
 2008 00d5 00       		.byte	0
 2009 00d6 12       		.uleb128 0x12
 2010 00d7 15       		.uleb128 0x15
 2011 00d8 01       		.byte	0x1
 2012 00d9 27       		.uleb128 0x27
 2013 00da 19       		.uleb128 0x19
 2014 00db 49       		.uleb128 0x49
 2015 00dc 13       		.uleb128 0x13
 2016 00dd 01       		.uleb128 0x1
 2017 00de 13       		.uleb128 0x13
 2018 00df 00       		.byte	0
 2019 00e0 00       		.byte	0
 2020 00e1 13       		.uleb128 0x13
 2021 00e2 17       		.uleb128 0x17
 2022 00e3 01       		.byte	0x1
 2023 00e4 0B       		.uleb128 0xb
 2024 00e5 0B       		.uleb128 0xb
 2025 00e6 3A       		.uleb128 0x3a
 2026 00e7 0B       		.uleb128 0xb
 2027 00e8 3B       		.uleb128 0x3b
 2028 00e9 0B       		.uleb128 0xb
 2029 00ea 01       		.uleb128 0x1
 2030 00eb 13       		.uleb128 0x13
 2031 00ec 00       		.byte	0
 2032 00ed 00       		.byte	0
 2033 00ee 14       		.uleb128 0x14
 2034 00ef 0D       		.uleb128 0xd
 2035 00f0 00       		.byte	0
 2036 00f1 03       		.uleb128 0x3
 2037 00f2 0E       		.uleb128 0xe
 2038 00f3 3A       		.uleb128 0x3a
ARM GAS  /tmp/cceXxdsG.s 			page 37


 2039 00f4 0B       		.uleb128 0xb
 2040 00f5 3B       		.uleb128 0x3b
 2041 00f6 0B       		.uleb128 0xb
 2042 00f7 49       		.uleb128 0x49
 2043 00f8 13       		.uleb128 0x13
 2044 00f9 00       		.byte	0
 2045 00fa 00       		.byte	0
 2046 00fb 15       		.uleb128 0x15
 2047 00fc 26       		.uleb128 0x26
 2048 00fd 00       		.byte	0
 2049 00fe 49       		.uleb128 0x49
 2050 00ff 13       		.uleb128 0x13
 2051 0100 00       		.byte	0
 2052 0101 00       		.byte	0
 2053 0102 16       		.uleb128 0x16
 2054 0103 01       		.uleb128 0x1
 2055 0104 01       		.byte	0x1
 2056 0105 49       		.uleb128 0x49
 2057 0106 13       		.uleb128 0x13
 2058 0107 01       		.uleb128 0x1
 2059 0108 13       		.uleb128 0x13
 2060 0109 00       		.byte	0
 2061 010a 00       		.byte	0
 2062 010b 17       		.uleb128 0x17
 2063 010c 21       		.uleb128 0x21
 2064 010d 00       		.byte	0
 2065 010e 49       		.uleb128 0x49
 2066 010f 13       		.uleb128 0x13
 2067 0110 2F       		.uleb128 0x2f
 2068 0111 0B       		.uleb128 0xb
 2069 0112 00       		.byte	0
 2070 0113 00       		.byte	0
 2071 0114 18       		.uleb128 0x18
 2072 0115 13       		.uleb128 0x13
 2073 0116 01       		.byte	0x1
 2074 0117 0B       		.uleb128 0xb
 2075 0118 05       		.uleb128 0x5
 2076 0119 3A       		.uleb128 0x3a
 2077 011a 0B       		.uleb128 0xb
 2078 011b 3B       		.uleb128 0x3b
 2079 011c 0B       		.uleb128 0xb
 2080 011d 01       		.uleb128 0x1
 2081 011e 13       		.uleb128 0x13
 2082 011f 00       		.byte	0
 2083 0120 00       		.byte	0
 2084 0121 19       		.uleb128 0x19
 2085 0122 01       		.uleb128 0x1
 2086 0123 01       		.byte	0x1
 2087 0124 49       		.uleb128 0x49
 2088 0125 13       		.uleb128 0x13
 2089 0126 8801     		.uleb128 0x88
 2090 0128 0B       		.uleb128 0xb
 2091 0129 01       		.uleb128 0x1
 2092 012a 13       		.uleb128 0x13
 2093 012b 00       		.byte	0
 2094 012c 00       		.byte	0
 2095 012d 1A       		.uleb128 0x1a
ARM GAS  /tmp/cceXxdsG.s 			page 38


 2096 012e 2E       		.uleb128 0x2e
 2097 012f 01       		.byte	0x1
 2098 0130 3F       		.uleb128 0x3f
 2099 0131 19       		.uleb128 0x19
 2100 0132 03       		.uleb128 0x3
 2101 0133 0E       		.uleb128 0xe
 2102 0134 3A       		.uleb128 0x3a
 2103 0135 0B       		.uleb128 0xb
 2104 0136 3B       		.uleb128 0x3b
 2105 0137 0B       		.uleb128 0xb
 2106 0138 27       		.uleb128 0x27
 2107 0139 19       		.uleb128 0x19
 2108 013a 11       		.uleb128 0x11
 2109 013b 01       		.uleb128 0x1
 2110 013c 12       		.uleb128 0x12
 2111 013d 06       		.uleb128 0x6
 2112 013e 40       		.uleb128 0x40
 2113 013f 18       		.uleb128 0x18
 2114 0140 9742     		.uleb128 0x2117
 2115 0142 19       		.uleb128 0x19
 2116 0143 01       		.uleb128 0x1
 2117 0144 13       		.uleb128 0x13
 2118 0145 00       		.byte	0
 2119 0146 00       		.byte	0
 2120 0147 1B       		.uleb128 0x1b
 2121 0148 05       		.uleb128 0x5
 2122 0149 00       		.byte	0
 2123 014a 03       		.uleb128 0x3
 2124 014b 08       		.uleb128 0x8
 2125 014c 3A       		.uleb128 0x3a
 2126 014d 0B       		.uleb128 0xb
 2127 014e 3B       		.uleb128 0x3b
 2128 014f 0B       		.uleb128 0xb
 2129 0150 49       		.uleb128 0x49
 2130 0151 13       		.uleb128 0x13
 2131 0152 02       		.uleb128 0x2
 2132 0153 17       		.uleb128 0x17
 2133 0154 00       		.byte	0
 2134 0155 00       		.byte	0
 2135 0156 1C       		.uleb128 0x1c
 2136 0157 05       		.uleb128 0x5
 2137 0158 00       		.byte	0
 2138 0159 03       		.uleb128 0x3
 2139 015a 0E       		.uleb128 0xe
 2140 015b 3A       		.uleb128 0x3a
 2141 015c 0B       		.uleb128 0xb
 2142 015d 3B       		.uleb128 0x3b
 2143 015e 0B       		.uleb128 0xb
 2144 015f 49       		.uleb128 0x49
 2145 0160 13       		.uleb128 0x13
 2146 0161 02       		.uleb128 0x2
 2147 0162 17       		.uleb128 0x17
 2148 0163 00       		.byte	0
 2149 0164 00       		.byte	0
 2150 0165 1D       		.uleb128 0x1d
 2151 0166 898201   		.uleb128 0x4109
 2152 0169 00       		.byte	0
ARM GAS  /tmp/cceXxdsG.s 			page 39


 2153 016a 11       		.uleb128 0x11
 2154 016b 01       		.uleb128 0x1
 2155 016c 31       		.uleb128 0x31
 2156 016d 13       		.uleb128 0x13
 2157 016e 00       		.byte	0
 2158 016f 00       		.byte	0
 2159 0170 1E       		.uleb128 0x1e
 2160 0171 898201   		.uleb128 0x4109
 2161 0174 01       		.byte	0x1
 2162 0175 11       		.uleb128 0x11
 2163 0176 01       		.uleb128 0x1
 2164 0177 31       		.uleb128 0x31
 2165 0178 13       		.uleb128 0x13
 2166 0179 01       		.uleb128 0x1
 2167 017a 13       		.uleb128 0x13
 2168 017b 00       		.byte	0
 2169 017c 00       		.byte	0
 2170 017d 1F       		.uleb128 0x1f
 2171 017e 8A8201   		.uleb128 0x410a
 2172 0181 00       		.byte	0
 2173 0182 02       		.uleb128 0x2
 2174 0183 18       		.uleb128 0x18
 2175 0184 9142     		.uleb128 0x2111
 2176 0186 18       		.uleb128 0x18
 2177 0187 00       		.byte	0
 2178 0188 00       		.byte	0
 2179 0189 20       		.uleb128 0x20
 2180 018a 34       		.uleb128 0x34
 2181 018b 00       		.byte	0
 2182 018c 03       		.uleb128 0x3
 2183 018d 08       		.uleb128 0x8
 2184 018e 3A       		.uleb128 0x3a
 2185 018f 0B       		.uleb128 0xb
 2186 0190 3B       		.uleb128 0x3b
 2187 0191 0B       		.uleb128 0xb
 2188 0192 49       		.uleb128 0x49
 2189 0193 13       		.uleb128 0x13
 2190 0194 02       		.uleb128 0x2
 2191 0195 17       		.uleb128 0x17
 2192 0196 00       		.byte	0
 2193 0197 00       		.byte	0
 2194 0198 21       		.uleb128 0x21
 2195 0199 898201   		.uleb128 0x4109
 2196 019c 01       		.byte	0x1
 2197 019d 11       		.uleb128 0x11
 2198 019e 01       		.uleb128 0x1
 2199 019f 31       		.uleb128 0x31
 2200 01a0 13       		.uleb128 0x13
 2201 01a1 00       		.byte	0
 2202 01a2 00       		.byte	0
 2203 01a3 22       		.uleb128 0x22
 2204 01a4 2E       		.uleb128 0x2e
 2205 01a5 01       		.byte	0x1
 2206 01a6 3F       		.uleb128 0x3f
 2207 01a7 19       		.uleb128 0x19
 2208 01a8 03       		.uleb128 0x3
 2209 01a9 0E       		.uleb128 0xe
ARM GAS  /tmp/cceXxdsG.s 			page 40


 2210 01aa 3A       		.uleb128 0x3a
 2211 01ab 0B       		.uleb128 0xb
 2212 01ac 3B       		.uleb128 0x3b
 2213 01ad 0B       		.uleb128 0xb
 2214 01ae 27       		.uleb128 0x27
 2215 01af 19       		.uleb128 0x19
 2216 01b0 49       		.uleb128 0x49
 2217 01b1 13       		.uleb128 0x13
 2218 01b2 11       		.uleb128 0x11
 2219 01b3 01       		.uleb128 0x1
 2220 01b4 12       		.uleb128 0x12
 2221 01b5 06       		.uleb128 0x6
 2222 01b6 40       		.uleb128 0x40
 2223 01b7 18       		.uleb128 0x18
 2224 01b8 9742     		.uleb128 0x2117
 2225 01ba 19       		.uleb128 0x19
 2226 01bb 01       		.uleb128 0x1
 2227 01bc 13       		.uleb128 0x13
 2228 01bd 00       		.byte	0
 2229 01be 00       		.byte	0
 2230 01bf 23       		.uleb128 0x23
 2231 01c0 34       		.uleb128 0x34
 2232 01c1 00       		.byte	0
 2233 01c2 03       		.uleb128 0x3
 2234 01c3 0E       		.uleb128 0xe
 2235 01c4 3A       		.uleb128 0x3a
 2236 01c5 0B       		.uleb128 0xb
 2237 01c6 3B       		.uleb128 0x3b
 2238 01c7 0B       		.uleb128 0xb
 2239 01c8 49       		.uleb128 0x49
 2240 01c9 13       		.uleb128 0x13
 2241 01ca 02       		.uleb128 0x2
 2242 01cb 17       		.uleb128 0x17
 2243 01cc 00       		.byte	0
 2244 01cd 00       		.byte	0
 2245 01ce 24       		.uleb128 0x24
 2246 01cf 2E       		.uleb128 0x2e
 2247 01d0 01       		.byte	0x1
 2248 01d1 3F       		.uleb128 0x3f
 2249 01d2 19       		.uleb128 0x19
 2250 01d3 03       		.uleb128 0x3
 2251 01d4 0E       		.uleb128 0xe
 2252 01d5 3A       		.uleb128 0x3a
 2253 01d6 0B       		.uleb128 0xb
 2254 01d7 3B       		.uleb128 0x3b
 2255 01d8 0B       		.uleb128 0xb
 2256 01d9 27       		.uleb128 0x27
 2257 01da 19       		.uleb128 0x19
 2258 01db 49       		.uleb128 0x49
 2259 01dc 13       		.uleb128 0x13
 2260 01dd 20       		.uleb128 0x20
 2261 01de 0B       		.uleb128 0xb
 2262 01df 01       		.uleb128 0x1
 2263 01e0 13       		.uleb128 0x13
 2264 01e1 00       		.byte	0
 2265 01e2 00       		.byte	0
 2266 01e3 25       		.uleb128 0x25
ARM GAS  /tmp/cceXxdsG.s 			page 41


 2267 01e4 05       		.uleb128 0x5
 2268 01e5 00       		.byte	0
 2269 01e6 03       		.uleb128 0x3
 2270 01e7 08       		.uleb128 0x8
 2271 01e8 3A       		.uleb128 0x3a
 2272 01e9 0B       		.uleb128 0xb
 2273 01ea 3B       		.uleb128 0x3b
 2274 01eb 0B       		.uleb128 0xb
 2275 01ec 49       		.uleb128 0x49
 2276 01ed 13       		.uleb128 0x13
 2277 01ee 00       		.byte	0
 2278 01ef 00       		.byte	0
 2279 01f0 26       		.uleb128 0x26
 2280 01f1 34       		.uleb128 0x34
 2281 01f2 00       		.byte	0
 2282 01f3 03       		.uleb128 0x3
 2283 01f4 0E       		.uleb128 0xe
 2284 01f5 3A       		.uleb128 0x3a
 2285 01f6 0B       		.uleb128 0xb
 2286 01f7 3B       		.uleb128 0x3b
 2287 01f8 0B       		.uleb128 0xb
 2288 01f9 49       		.uleb128 0x49
 2289 01fa 13       		.uleb128 0x13
 2290 01fb 00       		.byte	0
 2291 01fc 00       		.byte	0
 2292 01fd 27       		.uleb128 0x27
 2293 01fe 898201   		.uleb128 0x4109
 2294 0201 01       		.byte	0x1
 2295 0202 11       		.uleb128 0x11
 2296 0203 01       		.uleb128 0x1
 2297 0204 9542     		.uleb128 0x2115
 2298 0206 19       		.uleb128 0x19
 2299 0207 31       		.uleb128 0x31
 2300 0208 13       		.uleb128 0x13
 2301 0209 01       		.uleb128 0x1
 2302 020a 13       		.uleb128 0x13
 2303 020b 00       		.byte	0
 2304 020c 00       		.byte	0
 2305 020d 28       		.uleb128 0x28
 2306 020e 2E       		.uleb128 0x2e
 2307 020f 01       		.byte	0x1
 2308 0210 31       		.uleb128 0x31
 2309 0211 13       		.uleb128 0x13
 2310 0212 11       		.uleb128 0x11
 2311 0213 01       		.uleb128 0x1
 2312 0214 12       		.uleb128 0x12
 2313 0215 06       		.uleb128 0x6
 2314 0216 40       		.uleb128 0x40
 2315 0217 18       		.uleb128 0x18
 2316 0218 01       		.uleb128 0x1
 2317 0219 13       		.uleb128 0x13
 2318 021a 00       		.byte	0
 2319 021b 00       		.byte	0
 2320 021c 29       		.uleb128 0x29
 2321 021d 05       		.uleb128 0x5
 2322 021e 00       		.byte	0
 2323 021f 31       		.uleb128 0x31
ARM GAS  /tmp/cceXxdsG.s 			page 42


 2324 0220 13       		.uleb128 0x13
 2325 0221 02       		.uleb128 0x2
 2326 0222 17       		.uleb128 0x17
 2327 0223 00       		.byte	0
 2328 0224 00       		.byte	0
 2329 0225 2A       		.uleb128 0x2a
 2330 0226 34       		.uleb128 0x34
 2331 0227 00       		.byte	0
 2332 0228 31       		.uleb128 0x31
 2333 0229 13       		.uleb128 0x13
 2334 022a 02       		.uleb128 0x2
 2335 022b 17       		.uleb128 0x17
 2336 022c 00       		.byte	0
 2337 022d 00       		.byte	0
 2338 022e 2B       		.uleb128 0x2b
 2339 022f 0B       		.uleb128 0xb
 2340 0230 01       		.byte	0x1
 2341 0231 31       		.uleb128 0x31
 2342 0232 13       		.uleb128 0x13
 2343 0233 55       		.uleb128 0x55
 2344 0234 17       		.uleb128 0x17
 2345 0235 01       		.uleb128 0x1
 2346 0236 13       		.uleb128 0x13
 2347 0237 00       		.byte	0
 2348 0238 00       		.byte	0
 2349 0239 2C       		.uleb128 0x2c
 2350 023a 0B       		.uleb128 0xb
 2351 023b 01       		.byte	0x1
 2352 023c 55       		.uleb128 0x55
 2353 023d 17       		.uleb128 0x17
 2354 023e 00       		.byte	0
 2355 023f 00       		.byte	0
 2356 0240 2D       		.uleb128 0x2d
 2357 0241 34       		.uleb128 0x34
 2358 0242 00       		.byte	0
 2359 0243 31       		.uleb128 0x31
 2360 0244 13       		.uleb128 0x13
 2361 0245 00       		.byte	0
 2362 0246 00       		.byte	0
 2363 0247 2E       		.uleb128 0x2e
 2364 0248 2E       		.uleb128 0x2e
 2365 0249 00       		.byte	0
 2366 024a 3F       		.uleb128 0x3f
 2367 024b 19       		.uleb128 0x19
 2368 024c 3C       		.uleb128 0x3c
 2369 024d 19       		.uleb128 0x19
 2370 024e 6E       		.uleb128 0x6e
 2371 024f 0E       		.uleb128 0xe
 2372 0250 03       		.uleb128 0x3
 2373 0251 0E       		.uleb128 0xe
 2374 0252 3A       		.uleb128 0x3a
 2375 0253 0B       		.uleb128 0xb
 2376 0254 3B       		.uleb128 0x3b
 2377 0255 0B       		.uleb128 0xb
 2378 0256 00       		.byte	0
 2379 0257 00       		.byte	0
 2380 0258 00       		.byte	0
ARM GAS  /tmp/cceXxdsG.s 			page 43


 2381              		.section	.debug_loc,"",%progbits
 2382              	.Ldebug_loc0:
 2383              	.LLST11:
 2384 0000 00000000 		.4byte	.LVL23
 2385 0004 0B000000 		.4byte	.LVL24-1
 2386 0008 0100     		.2byte	0x1
 2387 000a 50       		.byte	0x50
 2388 000b 0B000000 		.4byte	.LVL24-1
 2389 000f 1C000000 		.4byte	.LFE12
 2390 0013 0100     		.2byte	0x1
 2391 0015 54       		.byte	0x54
 2392 0016 00000000 		.4byte	0
 2393 001a 00000000 		.4byte	0
 2394              	.LLST12:
 2395 001e 00000000 		.4byte	.LVL23
 2396 0022 0B000000 		.4byte	.LVL24-1
 2397 0026 0100     		.2byte	0x1
 2398 0028 51       		.byte	0x51
 2399 0029 0B000000 		.4byte	.LVL24-1
 2400 002d 1C000000 		.4byte	.LFE12
 2401 0031 0100     		.2byte	0x1
 2402 0033 55       		.byte	0x55
 2403 0034 00000000 		.4byte	0
 2404 0038 00000000 		.4byte	0
 2405              	.LLST8:
 2406 003c 00000000 		.4byte	.LVL17
 2407 0040 09000000 		.4byte	.LVL19-1
 2408 0044 0100     		.2byte	0x1
 2409 0046 50       		.byte	0x50
 2410 0047 09000000 		.4byte	.LVL19-1
 2411 004b 24000000 		.4byte	.LVL22
 2412 004f 0100     		.2byte	0x1
 2413 0051 54       		.byte	0x54
 2414 0052 24000000 		.4byte	.LVL22
 2415 0056 28000000 		.4byte	.LFE11
 2416 005a 0400     		.2byte	0x4
 2417 005c F3       		.byte	0xf3
 2418 005d 01       		.uleb128 0x1
 2419 005e 50       		.byte	0x50
 2420 005f 9F       		.byte	0x9f
 2421 0060 00000000 		.4byte	0
 2422 0064 00000000 		.4byte	0
 2423              	.LLST9:
 2424 0068 00000000 		.4byte	.LVL17
 2425 006c 09000000 		.4byte	.LVL19-1
 2426 0070 0100     		.2byte	0x1
 2427 0072 51       		.byte	0x51
 2428 0073 09000000 		.4byte	.LVL19-1
 2429 0077 24000000 		.4byte	.LVL22
 2430 007b 0100     		.2byte	0x1
 2431 007d 55       		.byte	0x55
 2432 007e 24000000 		.4byte	.LVL22
 2433 0082 28000000 		.4byte	.LFE11
 2434 0086 0300     		.2byte	0x3
 2435 0088 F3       		.byte	0xf3
 2436 0089 01       		.uleb128 0x1
 2437 008a 50       		.byte	0x50
ARM GAS  /tmp/cceXxdsG.s 			page 44


 2438 008b 00000000 		.4byte	0
 2439 008f 00000000 		.4byte	0
 2440              	.LLST10:
 2441 0093 06000000 		.4byte	.LVL18
 2442 0097 09000000 		.4byte	.LVL19-1
 2443 009b 0100     		.2byte	0x1
 2444 009d 51       		.byte	0x51
 2445 009e 09000000 		.4byte	.LVL19-1
 2446 00a2 24000000 		.4byte	.LVL22
 2447 00a6 0100     		.2byte	0x1
 2448 00a8 55       		.byte	0x55
 2449 00a9 24000000 		.4byte	.LVL22
 2450 00ad 28000000 		.4byte	.LFE11
 2451 00b1 0300     		.2byte	0x3
 2452 00b3 F3       		.byte	0xf3
 2453 00b4 01       		.uleb128 0x1
 2454 00b5 50       		.byte	0x50
 2455 00b6 00000000 		.4byte	0
 2456 00ba 00000000 		.4byte	0
 2457              	.LLST6:
 2458 00be 00000000 		.4byte	.LVL12
 2459 00c2 09000000 		.4byte	.LVL13-1
 2460 00c6 0100     		.2byte	0x1
 2461 00c8 50       		.byte	0x50
 2462 00c9 09000000 		.4byte	.LVL13-1
 2463 00cd 12000000 		.4byte	.LVL15
 2464 00d1 0100     		.2byte	0x1
 2465 00d3 54       		.byte	0x54
 2466 00d4 12000000 		.4byte	.LVL15
 2467 00d8 1C000000 		.4byte	.LFE10
 2468 00dc 0400     		.2byte	0x4
 2469 00de F3       		.byte	0xf3
 2470 00df 01       		.uleb128 0x1
 2471 00e0 50       		.byte	0x50
 2472 00e1 9F       		.byte	0x9f
 2473 00e2 00000000 		.4byte	0
 2474 00e6 00000000 		.4byte	0
 2475              	.LLST7:
 2476 00ea 12000000 		.4byte	.LVL15
 2477 00ee 15000000 		.4byte	.LVL16-1
 2478 00f2 0100     		.2byte	0x1
 2479 00f4 50       		.byte	0x50
 2480 00f5 15000000 		.4byte	.LVL16-1
 2481 00f9 1C000000 		.4byte	.LFE10
 2482 00fd 0100     		.2byte	0x1
 2483 00ff 54       		.byte	0x54
 2484 0100 00000000 		.4byte	0
 2485 0104 00000000 		.4byte	0
 2486              	.LLST13:
 2487 0108 00000000 		.4byte	.LVL27
 2488 010c 0E000000 		.4byte	.LVL28
 2489 0110 0100     		.2byte	0x1
 2490 0112 50       		.byte	0x50
 2491 0113 0E000000 		.4byte	.LVL28
 2492 0117 12000000 		.4byte	.LVL29
 2493 011b 0100     		.2byte	0x1
 2494 011d 56       		.byte	0x56
ARM GAS  /tmp/cceXxdsG.s 			page 45


 2495 011e 12000000 		.4byte	.LVL29
 2496 0122 16000000 		.4byte	.LVL30
 2497 0126 0400     		.2byte	0x4
 2498 0128 F3       		.byte	0xf3
 2499 0129 01       		.uleb128 0x1
 2500 012a 50       		.byte	0x50
 2501 012b 9F       		.byte	0x9f
 2502 012c 16000000 		.4byte	.LVL30
 2503 0130 18000000 		.4byte	.LVL31
 2504 0134 0100     		.2byte	0x1
 2505 0136 50       		.byte	0x50
 2506 0137 18000000 		.4byte	.LVL31
 2507 013b 30000000 		.4byte	.LVL37
 2508 013f 0100     		.2byte	0x1
 2509 0141 56       		.byte	0x56
 2510 0142 30000000 		.4byte	.LVL37
 2511 0146 34000000 		.4byte	.LFE8
 2512 014a 0400     		.2byte	0x4
 2513 014c F3       		.byte	0xf3
 2514 014d 01       		.uleb128 0x1
 2515 014e 50       		.byte	0x50
 2516 014f 9F       		.byte	0x9f
 2517 0150 00000000 		.4byte	0
 2518 0154 00000000 		.4byte	0
 2519              	.LLST14:
 2520 0158 00000000 		.4byte	.LVL27
 2521 015c 15000000 		.4byte	.LVL30-1
 2522 0160 0100     		.2byte	0x1
 2523 0162 51       		.byte	0x51
 2524 0163 15000000 		.4byte	.LVL30-1
 2525 0167 16000000 		.4byte	.LVL30
 2526 016b 0400     		.2byte	0x4
 2527 016d F3       		.byte	0xf3
 2528 016e 01       		.uleb128 0x1
 2529 016f 51       		.byte	0x51
 2530 0170 9F       		.byte	0x9f
 2531 0171 16000000 		.4byte	.LVL30
 2532 0175 1B000000 		.4byte	.LVL32-1
 2533 0179 0100     		.2byte	0x1
 2534 017b 51       		.byte	0x51
 2535 017c 1B000000 		.4byte	.LVL32-1
 2536 0180 30000000 		.4byte	.LVL37
 2537 0184 0100     		.2byte	0x1
 2538 0186 55       		.byte	0x55
 2539 0187 00000000 		.4byte	0
 2540 018b 00000000 		.4byte	0
 2541              	.LLST15:
 2542 018f 00000000 		.4byte	.LVL27
 2543 0193 15000000 		.4byte	.LVL30-1
 2544 0197 0100     		.2byte	0x1
 2545 0199 52       		.byte	0x52
 2546 019a 15000000 		.4byte	.LVL30-1
 2547 019e 16000000 		.4byte	.LVL30
 2548 01a2 0400     		.2byte	0x4
 2549 01a4 F3       		.byte	0xf3
 2550 01a5 01       		.uleb128 0x1
 2551 01a6 52       		.byte	0x52
ARM GAS  /tmp/cceXxdsG.s 			page 46


 2552 01a7 9F       		.byte	0x9f
 2553 01a8 16000000 		.4byte	.LVL30
 2554 01ac 1B000000 		.4byte	.LVL32-1
 2555 01b0 0100     		.2byte	0x1
 2556 01b2 52       		.byte	0x52
 2557 01b3 1B000000 		.4byte	.LVL32-1
 2558 01b7 2A000000 		.4byte	.LVL35
 2559 01bb 0100     		.2byte	0x1
 2560 01bd 54       		.byte	0x54
 2561 01be 2A000000 		.4byte	.LVL35
 2562 01c2 2C000000 		.4byte	.LVL36
 2563 01c6 0300     		.2byte	0x3
 2564 01c8 74       		.byte	0x74
 2565 01c9 01       		.sleb128 1
 2566 01ca 9F       		.byte	0x9f
 2567 01cb 00000000 		.4byte	0
 2568 01cf 00000000 		.4byte	0
 2569              	.LLST0:
 2570 01d3 00000000 		.4byte	.LVL0
 2571 01d7 10000000 		.4byte	.LVL1
 2572 01db 0100     		.2byte	0x1
 2573 01dd 50       		.byte	0x50
 2574 01de 10000000 		.4byte	.LVL1
 2575 01e2 1E000000 		.4byte	.LVL3
 2576 01e6 0100     		.2byte	0x1
 2577 01e8 54       		.byte	0x54
 2578 01e9 1E000000 		.4byte	.LVL3
 2579 01ed 24000000 		.4byte	.LFE7
 2580 01f1 0400     		.2byte	0x4
 2581 01f3 F3       		.byte	0xf3
 2582 01f4 01       		.uleb128 0x1
 2583 01f5 50       		.byte	0x50
 2584 01f6 9F       		.byte	0x9f
 2585 01f7 00000000 		.4byte	0
 2586 01fb 00000000 		.4byte	0
 2587              	.LLST1:
 2588 01ff 00000000 		.4byte	.LVL0
 2589 0203 13000000 		.4byte	.LVL2-1
 2590 0207 0100     		.2byte	0x1
 2591 0209 51       		.byte	0x51
 2592 020a 13000000 		.4byte	.LVL2-1
 2593 020e 1E000000 		.4byte	.LVL3
 2594 0212 0100     		.2byte	0x1
 2595 0214 55       		.byte	0x55
 2596 0215 1E000000 		.4byte	.LVL3
 2597 0219 24000000 		.4byte	.LFE7
 2598 021d 0500     		.2byte	0x5
 2599 021f F3       		.byte	0xf3
 2600 0220 01       		.uleb128 0x1
 2601 0221 50       		.byte	0x50
 2602 0222 23       		.byte	0x23
 2603 0223 04       		.uleb128 0x4
 2604 0224 00000000 		.4byte	0
 2605 0228 00000000 		.4byte	0
 2606              	.LLST2:
 2607 022c 00000000 		.4byte	.LVL0
 2608 0230 13000000 		.4byte	.LVL2-1
ARM GAS  /tmp/cceXxdsG.s 			page 47


 2609 0234 0100     		.2byte	0x1
 2610 0236 52       		.byte	0x52
 2611 0237 13000000 		.4byte	.LVL2-1
 2612 023b 1E000000 		.4byte	.LVL3
 2613 023f 0100     		.2byte	0x1
 2614 0241 56       		.byte	0x56
 2615 0242 1E000000 		.4byte	.LVL3
 2616 0246 24000000 		.4byte	.LFE7
 2617 024a 0500     		.2byte	0x5
 2618 024c F3       		.byte	0xf3
 2619 024d 01       		.uleb128 0x1
 2620 024e 50       		.byte	0x50
 2621 024f 23       		.byte	0x23
 2622 0250 08       		.uleb128 0x8
 2623 0251 00000000 		.4byte	0
 2624 0255 00000000 		.4byte	0
 2625              	.LLST3:
 2626 0259 00000000 		.4byte	.LVL4
 2627 025d 07000000 		.4byte	.LVL5-1
 2628 0261 0100     		.2byte	0x1
 2629 0263 50       		.byte	0x50
 2630 0264 07000000 		.4byte	.LVL5-1
 2631 0268 20000000 		.4byte	.LVL9
 2632 026c 0100     		.2byte	0x1
 2633 026e 54       		.byte	0x54
 2634 026f 20000000 		.4byte	.LVL9
 2635 0273 22000000 		.4byte	.LVL10
 2636 0277 0400     		.2byte	0x4
 2637 0279 F3       		.byte	0xf3
 2638 027a 01       		.uleb128 0x1
 2639 027b 50       		.byte	0x50
 2640 027c 9F       		.byte	0x9f
 2641 027d 22000000 		.4byte	.LVL10
 2642 0281 30000000 		.4byte	.LFE9
 2643 0285 0100     		.2byte	0x1
 2644 0287 54       		.byte	0x54
 2645 0288 00000000 		.4byte	0
 2646 028c 00000000 		.4byte	0
 2647              	.LLST4:
 2648 0290 0C000000 		.4byte	.LVL6
 2649 0294 1C000000 		.4byte	.LVL8
 2650 0298 0100     		.2byte	0x1
 2651 029a 50       		.byte	0x50
 2652 029b 1C000000 		.4byte	.LVL8
 2653 029f 20000000 		.4byte	.LVL9
 2654 02a3 0200     		.2byte	0x2
 2655 02a5 74       		.byte	0x74
 2656 02a6 00       		.sleb128 0
 2657 02a7 20000000 		.4byte	.LVL9
 2658 02ab 21000000 		.4byte	.LVL10-1
 2659 02af 0300     		.2byte	0x3
 2660 02b1 F3       		.byte	0xf3
 2661 02b2 01       		.uleb128 0x1
 2662 02b3 50       		.byte	0x50
 2663 02b4 00000000 		.4byte	0
 2664 02b8 00000000 		.4byte	0
 2665              	.LLST5:
ARM GAS  /tmp/cceXxdsG.s 			page 48


 2666 02bc 14000000 		.4byte	.LVL7
 2667 02c0 20000000 		.4byte	.LVL9
 2668 02c4 0100     		.2byte	0x1
 2669 02c6 54       		.byte	0x54
 2670 02c7 20000000 		.4byte	.LVL9
 2671 02cb 22000000 		.4byte	.LVL10
 2672 02cf 0400     		.2byte	0x4
 2673 02d1 F3       		.byte	0xf3
 2674 02d2 01       		.uleb128 0x1
 2675 02d3 50       		.byte	0x50
 2676 02d4 9F       		.byte	0x9f
 2677 02d5 00000000 		.4byte	0
 2678 02d9 00000000 		.4byte	0
 2679              		.section	.debug_aranges,"",%progbits
 2680 0000 44000000 		.4byte	0x44
 2681 0004 0200     		.2byte	0x2
 2682 0006 00000000 		.4byte	.Ldebug_info0
 2683 000a 04       		.byte	0x4
 2684 000b 00       		.byte	0
 2685 000c 0000     		.2byte	0
 2686 000e 0000     		.2byte	0
 2687 0010 00000000 		.4byte	.LFB7
 2688 0014 24000000 		.4byte	.LFE7-.LFB7
 2689 0018 00000000 		.4byte	.LFB9
 2690 001c 30000000 		.4byte	.LFE9-.LFB9
 2691 0020 00000000 		.4byte	.LFB10
 2692 0024 1C000000 		.4byte	.LFE10-.LFB10
 2693 0028 00000000 		.4byte	.LFB11
 2694 002c 28000000 		.4byte	.LFE11-.LFB11
 2695 0030 00000000 		.4byte	.LFB12
 2696 0034 1C000000 		.4byte	.LFE12-.LFB12
 2697 0038 00000000 		.4byte	.LFB8
 2698 003c 34000000 		.4byte	.LFE8-.LFB8
 2699 0040 00000000 		.4byte	0
 2700 0044 00000000 		.4byte	0
 2701              		.section	.debug_ranges,"",%progbits
 2702              	.Ldebug_ranges0:
 2703 0000 14000000 		.4byte	.LBB4
 2704 0004 1C000000 		.4byte	.LBE4
 2705 0008 20000000 		.4byte	.LBB7
 2706 000c 22000000 		.4byte	.LBE7
 2707 0010 00000000 		.4byte	0
 2708 0014 00000000 		.4byte	0
 2709 0018 00000000 		.4byte	.LFB7
 2710 001c 24000000 		.4byte	.LFE7
 2711 0020 00000000 		.4byte	.LFB9
 2712 0024 30000000 		.4byte	.LFE9
 2713 0028 00000000 		.4byte	.LFB10
 2714 002c 1C000000 		.4byte	.LFE10
 2715 0030 00000000 		.4byte	.LFB11
 2716 0034 28000000 		.4byte	.LFE11
 2717 0038 00000000 		.4byte	.LFB12
 2718 003c 1C000000 		.4byte	.LFE12
 2719 0040 00000000 		.4byte	.LFB8
 2720 0044 34000000 		.4byte	.LFE8
 2721 0048 00000000 		.4byte	0
 2722 004c 00000000 		.4byte	0
ARM GAS  /tmp/cceXxdsG.s 			page 49


 2723              		.section	.debug_line,"",%progbits
 2724              	.Ldebug_line0:
 2725 0000 88020000 		.section	.debug_str,"MS",%progbits,1
 2725      0200B701 
 2725      00000201 
 2725      FB0E0D00 
 2725      01010101 
 2726              	.LASF100:
 2727 0000 63665F6F 		.ascii	"cf_off_older\000"
 2727      66665F6F 
 2727      6C646572 
 2727      00
 2728              	.LASF46:
 2729 000d 705F6D73 		.ascii	"p_msg\000"
 2729      6700
 2730              	.LASF2:
 2731 0013 73697A65 		.ascii	"size_t\000"
 2731      5F7400
 2732              	.LASF85:
 2733 001a 7264796D 		.ascii	"rdymsg\000"
 2733      736700
 2734              	.LASF19:
 2735 0021 75696E74 		.ascii	"uint64_t\000"
 2735      36345F74 
 2735      00
 2736              	.LASF3:
 2737 002a 5F5F7569 		.ascii	"__uint8_t\000"
 2737      6E74385F 
 2737      7400
 2738              	.LASF96:
 2739 0034 63685F74 		.ascii	"ch_threadsize\000"
 2739      68726561 
 2739      6473697A 
 2739      6500
 2740              	.LASF72:
 2741 0042 76746C69 		.ascii	"vtlist\000"
 2741      737400
 2742              	.LASF130:
 2743 0049 70726F76 		.ascii	"provider\000"
 2743      69646572 
 2743      00
 2744              	.LASF135:
 2745 0052 474E5520 		.ascii	"GNU C99 7.3.1 20180622 (release) [ARM/embedded-7-br"
 2745      43393920 
 2745      372E332E 
 2745      31203230 
 2745      31383036 
 2746 0085 616E6368 		.ascii	"anch revision 261907] -mcpu=cortex-m4 -mfloat-abi=h"
 2746      20726576 
 2746      6973696F 
 2746      6E203236 
 2746      31393037 
 2747 00b8 61726420 		.ascii	"ard -mfpu=fpv4-sp-d16 -mno-thumb-interwork -mthumb "
 2747      2D6D6670 
 2747      753D6670 
 2747      76342D73 
 2747      702D6431 
ARM GAS  /tmp/cceXxdsG.s 			page 50


 2748 00eb 2D676764 		.ascii	"-ggdb -O2 -std=gnu99 -fomit-frame-pointer -falign-f"
 2748      62202D4F 
 2748      32202D73 
 2748      74643D67 
 2748      6E753939 
 2749 011e 756E6374 		.ascii	"unctions=16 -ffunction-sections -fdata-sections -fn"
 2749      696F6E73 
 2749      3D313620 
 2749      2D666675 
 2749      6E637469 
 2750 0151 6F2D636F 		.ascii	"o-common -fsingle-precision-constant\000"
 2750      6D6D6F6E 
 2750      202D6673 
 2750      696E676C 
 2750      652D7072 
 2751              	.LASF84:
 2752 0176 4D656D6F 		.ascii	"MemoryPool\000"
 2752      7279506F 
 2752      6F6C00
 2753              	.LASF78:
 2754 0181 6D656D67 		.ascii	"memgetfunc_t\000"
 2754      65746675 
 2754      6E635F74 
 2754      00
 2755              	.LASF127:
 2756 018e 6368506F 		.ascii	"chPoolLoadArray\000"
 2756      6F6C4C6F 
 2756      61644172 
 2756      72617900 
 2757              	.LASF14:
 2758 019e 6C6F6E67 		.ascii	"long long unsigned int\000"
 2758      206C6F6E 
 2758      6720756E 
 2758      7369676E 
 2758      65642069 
 2759              	.LASF118:
 2760 01b5 63685F74 		.ascii	"ch_trace_buffer_t\000"
 2760      72616365 
 2760      5F627566 
 2760      6665725F 
 2760      7400
 2761              	.LASF134:
 2762 01c7 63684462 		.ascii	"chDbgPanic\000"
 2762      6750616E 
 2762      696300
 2763              	.LASF128:
 2764 01d2 6368506F 		.ascii	"chPoolInit\000"
 2764      6F6C496E 
 2764      697400
 2765              	.LASF33:
 2766 01dd 705F7072 		.ascii	"p_prio\000"
 2766      696F00
 2767              	.LASF103:
 2768 01e4 63665F6F 		.ascii	"cf_off_state\000"
 2768      66665F73 
 2768      74617465 
 2768      00
ARM GAS  /tmp/cceXxdsG.s 			page 51


 2769              	.LASF111:
 2770 01f1 73655F74 		.ascii	"se_tp\000"
 2770      7000
 2771              	.LASF12:
 2772 01f7 6C6F6E67 		.ascii	"long long int\000"
 2772      206C6F6E 
 2772      6720696E 
 2772      7400
 2773              	.LASF1:
 2774 0205 7369676E 		.ascii	"signed char\000"
 2774      65642063 
 2774      68617200 
 2775              	.LASF102:
 2776 0211 63665F6F 		.ascii	"cf_off_stklimit\000"
 2776      66665F73 
 2776      746B6C69 
 2776      6D697400 
 2777              	.LASF104:
 2778 0221 63665F6F 		.ascii	"cf_off_flags\000"
 2778      66665F66 
 2778      6C616773 
 2778      00
 2779              	.LASF50:
 2780 022e 705F6D70 		.ascii	"p_mpool\000"
 2780      6F6F6C00 
 2781              	.LASF75:
 2782 0236 6D5F7175 		.ascii	"m_queue\000"
 2782      65756500 
 2783              	.LASF24:
 2784 023e 74736C69 		.ascii	"tslices_t\000"
 2784      6365735F 
 2784      7400
 2785              	.LASF9:
 2786 0248 6C6F6E67 		.ascii	"long int\000"
 2786      20696E74 
 2786      00
 2787              	.LASF22:
 2788 0251 74737461 		.ascii	"tstate_t\000"
 2788      74655F74 
 2788      00
 2789              	.LASF16:
 2790 025a 75696E74 		.ascii	"uint16_t\000"
 2790      31365F74 
 2790      00
 2791              	.LASF108:
 2792 0263 63686465 		.ascii	"chdebug_t\000"
 2792      6275675F 
 2792      7400
 2793              	.LASF35:
 2794 026d 705F6E65 		.ascii	"p_newer\000"
 2794      77657200 
 2795              	.LASF123:
 2796 0275 5F69646C 		.ascii	"_idle_thread_wa\000"
 2796      655F7468 
 2796      72656164 
 2796      5F776100 
 2797              	.LASF86:
ARM GAS  /tmp/cceXxdsG.s 			page 52


 2798 0285 65786974 		.ascii	"exitcode\000"
 2798      636F6465 
 2798      00
 2799              	.LASF115:
 2800 028e 74625F73 		.ascii	"tb_size\000"
 2800      697A6500 
 2801              	.LASF10:
 2802 0296 5F5F7569 		.ascii	"__uint32_t\000"
 2802      6E743332 
 2802      5F7400
 2803              	.LASF83:
 2804 02a1 6D705F70 		.ascii	"mp_provider\000"
 2804      726F7669 
 2804      64657200 
 2805              	.LASF53:
 2806 02ad 72656761 		.ascii	"regarm_t\000"
 2806      726D5F74 
 2806      00
 2807              	.LASF59:
 2808 02b6 76745F70 		.ascii	"vt_prev\000"
 2808      72657600 
 2809              	.LASF110:
 2810 02be 73655F74 		.ascii	"se_time\000"
 2810      696D6500 
 2811              	.LASF29:
 2812 02c6 636E745F 		.ascii	"cnt_t\000"
 2812      7400
 2813              	.LASF38:
 2814 02cc 705F7374 		.ascii	"p_stklimit\000"
 2814      6B6C696D 
 2814      697400
 2815              	.LASF0:
 2816 02d7 756E7369 		.ascii	"unsigned int\000"
 2816      676E6564 
 2816      20696E74 
 2816      00
 2817              	.LASF58:
 2818 02e4 76745F6E 		.ascii	"vt_next\000"
 2818      65787400 
 2819              	.LASF11:
 2820 02ec 6C6F6E67 		.ascii	"long unsigned int\000"
 2820      20756E73 
 2820      69676E65 
 2820      6420696E 
 2820      7400
 2821              	.LASF109:
 2822 02fe 63685F64 		.ascii	"ch_debug\000"
 2822      65627567 
 2822      00
 2823              	.LASF56:
 2824 0307 76746675 		.ascii	"vtfunc_t\000"
 2824      6E635F74 
 2824      00
 2825              	.LASF90:
 2826 0310 63685F69 		.ascii	"ch_identifier\000"
 2826      64656E74 
 2826      69666965 
ARM GAS  /tmp/cceXxdsG.s 			page 53


 2826      7200
 2827              	.LASF57:
 2828 031e 56697274 		.ascii	"VirtualTimer\000"
 2828      75616C54 
 2828      696D6572 
 2828      00
 2829              	.LASF55:
 2830 032b 636F6E74 		.ascii	"context\000"
 2830      65787400 
 2831              	.LASF129:
 2832 0333 73697A65 		.ascii	"size\000"
 2832      00
 2833              	.LASF7:
 2834 0338 73686F72 		.ascii	"short unsigned int\000"
 2834      7420756E 
 2834      7369676E 
 2834      65642069 
 2834      6E7400
 2835              	.LASF26:
 2836 034b 6D73675F 		.ascii	"msg_t\000"
 2836      7400
 2837              	.LASF68:
 2838 0351 725F6E65 		.ascii	"r_newer\000"
 2838      77657200 
 2839              	.LASF133:
 2840 0359 63684462 		.ascii	"chDbgCheckClassI\000"
 2840      67436865 
 2840      636B436C 
 2840      61737349 
 2840      00
 2841              	.LASF137:
 2842 036a 2F686F6D 		.ascii	"/home/renan/BLDC/bldc-bootloader\000"
 2842      652F7265 
 2842      6E616E2F 
 2842      424C4443 
 2842      2F626C64 
 2843              	.LASF21:
 2844 038b 746D6F64 		.ascii	"tmode_t\000"
 2844      655F7400 
 2845              	.LASF120:
 2846 0393 6462675F 		.ascii	"dbg_isr_cnt\000"
 2846      6973725F 
 2846      636E7400 
 2847              	.LASF52:
 2848 039f 54687265 		.ascii	"ThreadsList\000"
 2848      6164734C 
 2848      69737400 
 2849              	.LASF27:
 2850 03ab 6576656E 		.ascii	"eventmask_t\000"
 2850      746D6173 
 2850      6B5F7400 
 2851              	.LASF74:
 2852 03b7 4D757465 		.ascii	"Mutex\000"
 2852      7800
 2853              	.LASF138:
 2854 03bd 73746B61 		.ascii	"stkalign_t\000"
 2854      6C69676E 
ARM GAS  /tmp/cceXxdsG.s 			page 54


 2854      5F7400
 2855              	.LASF113:
 2856 03c8 73655F73 		.ascii	"se_state\000"
 2856      74617465 
 2856      00
 2857              	.LASF91:
 2858 03d1 63685F7A 		.ascii	"ch_zero\000"
 2858      65726F00 
 2859              	.LASF105:
 2860 03d9 63665F6F 		.ascii	"cf_off_refs\000"
 2860      66665F72 
 2860      65667300 
 2861              	.LASF60:
 2862 03e5 76745F74 		.ascii	"vt_time\000"
 2862      696D6500 
 2863              	.LASF116:
 2864 03ed 74625F70 		.ascii	"tb_ptr\000"
 2864      747200
 2865              	.LASF61:
 2866 03f4 76745F66 		.ascii	"vt_func\000"
 2866      756E6300 
 2867              	.LASF131:
 2868 03fc 6462675F 		.ascii	"dbg_check_lock\000"
 2868      63686563 
 2868      6B5F6C6F 
 2868      636B00
 2869              	.LASF95:
 2870 040b 63685F74 		.ascii	"ch_timesize\000"
 2870      696D6573 
 2870      697A6500 
 2871              	.LASF140:
 2872 0417 6368506F 		.ascii	"chPoolAllocI\000"
 2872      6F6C416C 
 2872      6C6F6349 
 2872      00
 2873              	.LASF114:
 2874 0424 63685F73 		.ascii	"ch_swc_event_t\000"
 2874      77635F65 
 2874      76656E74 
 2874      5F7400
 2875              	.LASF101:
 2876 0433 63665F6F 		.ascii	"cf_off_name\000"
 2876      66665F6E 
 2876      616D6500 
 2877              	.LASF36:
 2878 043f 705F6F6C 		.ascii	"p_older\000"
 2878      64657200 
 2879              	.LASF67:
 2880 0447 725F6374 		.ascii	"r_ctx\000"
 2880      7800
 2881              	.LASF51:
 2882 044d 54687265 		.ascii	"ThreadsQueue\000"
 2882      61647351 
 2882      75657565 
 2882      00
 2883              	.LASF82:
 2884 045a 6D705F6F 		.ascii	"mp_object_size\000"
ARM GAS  /tmp/cceXxdsG.s 			page 55


 2884      626A6563 
 2884      745F7369 
 2884      7A6500
 2885              	.LASF92:
 2886 0469 63685F73 		.ascii	"ch_size\000"
 2886      697A6500 
 2887              	.LASF70:
 2888 0471 725F6375 		.ascii	"r_current\000"
 2888      7272656E 
 2888      7400
 2889              	.LASF69:
 2890 047b 725F6F6C 		.ascii	"r_older\000"
 2890      64657200 
 2891              	.LASF13:
 2892 0483 5F5F7569 		.ascii	"__uint64_t\000"
 2892      6E743634 
 2892      5F7400
 2893              	.LASF80:
 2894 048e 70685F6E 		.ascii	"ph_next\000"
 2894      65787400 
 2895              	.LASF119:
 2896 0496 6462675F 		.ascii	"dbg_trace_buffer\000"
 2896      74726163 
 2896      655F6275 
 2896      66666572 
 2896      00
 2897              	.LASF23:
 2898 04a7 74726566 		.ascii	"trefs_t\000"
 2898      735F7400 
 2899              	.LASF117:
 2900 04af 74625F62 		.ascii	"tb_buffer\000"
 2900      75666665 
 2900      7200
 2901              	.LASF94:
 2902 04b9 63685F70 		.ascii	"ch_ptrsize\000"
 2902      74727369 
 2902      7A6500
 2903              	.LASF32:
 2904 04c4 705F7072 		.ascii	"p_prev\000"
 2904      657600
 2905              	.LASF25:
 2906 04cb 74707269 		.ascii	"tprio_t\000"
 2906      6F5F7400 
 2907              	.LASF20:
 2908 04d3 5F426F6F 		.ascii	"_Bool\000"
 2908      6C00
 2909              	.LASF17:
 2910 04d9 696E7433 		.ascii	"int32_t\000"
 2910      325F7400 
 2911              	.LASF4:
 2912 04e1 756E7369 		.ascii	"unsigned char\000"
 2912      676E6564 
 2912      20636861 
 2912      7200
 2913              	.LASF122:
 2914 04ef 6462675F 		.ascii	"dbg_panic_msg\000"
 2914      70616E69 
ARM GAS  /tmp/cceXxdsG.s 			page 56


 2914      635F6D73 
 2914      6700
 2915              	.LASF48:
 2916 04fd 705F6D74 		.ascii	"p_mtxlist\000"
 2916      786C6973 
 2916      7400
 2917              	.LASF5:
 2918 0507 73686F72 		.ascii	"short int\000"
 2918      7420696E 
 2918      7400
 2919              	.LASF39:
 2920 0511 705F7374 		.ascii	"p_state\000"
 2920      61746500 
 2921              	.LASF42:
 2922 0519 705F7072 		.ascii	"p_preempt\000"
 2922      65656D70 
 2922      7400
 2923              	.LASF107:
 2924 0523 63665F6F 		.ascii	"cf_off_time\000"
 2924      66665F74 
 2924      696D6500 
 2925              	.LASF66:
 2926 052f 725F7072 		.ascii	"r_prio\000"
 2926      696F00
 2927              	.LASF88:
 2928 0536 65776D61 		.ascii	"ewmask\000"
 2928      736B00
 2929              	.LASF31:
 2930 053d 705F6E65 		.ascii	"p_next\000"
 2930      787400
 2931              	.LASF106:
 2932 0544 63665F6F 		.ascii	"cf_off_preempt\000"
 2932      66665F70 
 2932      7265656D 
 2932      707400
 2933              	.LASF40:
 2934 0553 705F666C 		.ascii	"p_flags\000"
 2934      61677300 
 2935              	.LASF124:
 2936 055b 6F626A70 		.ascii	"objp\000"
 2936      00
 2937              	.LASF30:
 2938 0560 54687265 		.ascii	"Thread\000"
 2938      616400
 2939              	.LASF99:
 2940 0567 63665F6F 		.ascii	"cf_off_newer\000"
 2940      66665F6E 
 2940      65776572 
 2940      00
 2941              	.LASF47:
 2942 0574 705F6570 		.ascii	"p_epending\000"
 2942      656E6469 
 2942      6E6700
 2943              	.LASF18:
 2944 057f 75696E74 		.ascii	"uint32_t\000"
 2944      33325F74 
 2944      00
ARM GAS  /tmp/cceXxdsG.s 			page 57


 2945              	.LASF97:
 2946 0588 63665F6F 		.ascii	"cf_off_prio\000"
 2946      66665F70 
 2946      72696F00 
 2947              	.LASF65:
 2948 0594 725F7175 		.ascii	"r_queue\000"
 2948      65756500 
 2949              	.LASF89:
 2950 059c 63686172 		.ascii	"char\000"
 2950      00
 2951              	.LASF6:
 2952 05a1 5F5F7569 		.ascii	"__uint16_t\000"
 2952      6E743136 
 2952      5F7400
 2953              	.LASF126:
 2954 05ac 6368506F 		.ascii	"chPoolFreeI\000"
 2954      6F6C4672 
 2954      65654900 
 2955              	.LASF77:
 2956 05b8 6D5F6E65 		.ascii	"m_next\000"
 2956      787400
 2957              	.LASF28:
 2958 05bf 73797374 		.ascii	"systime_t\000"
 2958      696D655F 
 2958      7400
 2959              	.LASF49:
 2960 05c9 705F7265 		.ascii	"p_realprio\000"
 2960      616C7072 
 2960      696F00
 2961              	.LASF8:
 2962 05d4 5F5F696E 		.ascii	"__int32_t\000"
 2962      7433325F 
 2962      7400
 2963              	.LASF121:
 2964 05de 6462675F 		.ascii	"dbg_lock_cnt\000"
 2964      6C6F636B 
 2964      5F636E74 
 2964      00
 2965              	.LASF81:
 2966 05eb 6D705F6E 		.ascii	"mp_next\000"
 2966      65787400 
 2967              	.LASF43:
 2968 05f3 705F7469 		.ascii	"p_time\000"
 2968      6D6500
 2969              	.LASF54:
 2970 05fa 696E7463 		.ascii	"intctx\000"
 2970      747800
 2971              	.LASF45:
 2972 0601 705F6D73 		.ascii	"p_msgqueue\000"
 2972      67717565 
 2972      756500
 2973              	.LASF62:
 2974 060c 76745F70 		.ascii	"vt_par\000"
 2974      617200
 2975              	.LASF98:
 2976 0613 63665F6F 		.ascii	"cf_off_ctx\000"
 2976      66665F63 
ARM GAS  /tmp/cceXxdsG.s 			page 58


 2976      747800
 2977              	.LASF79:
 2978 061e 706F6F6C 		.ascii	"pool_header\000"
 2978      5F686561 
 2978      64657200 
 2979              	.LASF41:
 2980 062a 705F7265 		.ascii	"p_refs\000"
 2980      667300
 2981              	.LASF71:
 2982 0631 52656164 		.ascii	"ReadyList\000"
 2982      794C6973 
 2982      7400
 2983              	.LASF136:
 2984 063b 43686962 		.ascii	"ChibiOS_2.6.6/os/kernel/src/chmempools.c\000"
 2984      694F535F 
 2984      322E362E 
 2984      362F6F73 
 2984      2F6B6572 
 2985              	.LASF73:
 2986 0664 726C6973 		.ascii	"rlist\000"
 2986      7400
 2987              	.LASF15:
 2988 066a 75696E74 		.ascii	"uint8_t\000"
 2988      385F7400 
 2989              	.LASF139:
 2990 0672 6368506F 		.ascii	"chPoolAlloc\000"
 2990      6F6C416C 
 2990      6C6F6300 
 2991              	.LASF125:
 2992 067e 6368506F 		.ascii	"chPoolFree\000"
 2992      6F6C4672 
 2992      656500
 2993              	.LASF87:
 2994 0689 77746F62 		.ascii	"wtobjp\000"
 2994      6A7000
 2995              	.LASF37:
 2996 0690 705F6E61 		.ascii	"p_name\000"
 2996      6D6500
 2997              	.LASF63:
 2998 0697 76745F73 		.ascii	"vt_systime\000"
 2998      79737469 
 2998      6D6500
 2999              	.LASF132:
 3000 06a2 6462675F 		.ascii	"dbg_check_unlock\000"
 3000      63686563 
 3000      6B5F756E 
 3000      6C6F636B 
 3000      00
 3001              	.LASF93:
 3002 06b3 63685F76 		.ascii	"ch_version\000"
 3002      65727369 
 3002      6F6E00
 3003              	.LASF64:
 3004 06be 56544C69 		.ascii	"VTList\000"
 3004      737400
 3005              	.LASF76:
 3006 06c5 6D5F6F77 		.ascii	"m_owner\000"
ARM GAS  /tmp/cceXxdsG.s 			page 59


 3006      6E657200 
 3007              	.LASF112:
 3008 06cd 73655F77 		.ascii	"se_wtobjp\000"
 3008      746F626A 
 3008      7000
 3009              	.LASF34:
 3010 06d7 705F6374 		.ascii	"p_ctx\000"
 3010      7800
 3011              	.LASF44:
 3012 06dd 705F7761 		.ascii	"p_waiting\000"
 3012      6974696E 
 3012      6700
 3013              		.ident	"GCC: (GNU Tools for Arm Embedded Processors 7-2018-q3-update) 7.3.1 20180622 (release) [AR
ARM GAS  /tmp/cceXxdsG.s 			page 60


DEFINED SYMBOLS
                            *ABS*:0000000000000000 chmempools.c
     /tmp/cceXxdsG.s:18     .text.chPoolInit:0000000000000000 $t
     /tmp/cceXxdsG.s:26     .text.chPoolInit:0000000000000000 chPoolInit
     /tmp/cceXxdsG.s:68     .text.chPoolInit:0000000000000020 $d
     /tmp/cceXxdsG.s:73     .text.chPoolAllocI:0000000000000000 $t
     /tmp/cceXxdsG.s:81     .text.chPoolAllocI:0000000000000000 chPoolAllocI
     /tmp/cceXxdsG.s:147    .text.chPoolAllocI:000000000000002c $d
     /tmp/cceXxdsG.s:152    .text.chPoolAlloc:0000000000000000 $t
     /tmp/cceXxdsG.s:160    .text.chPoolAlloc:0000000000000000 chPoolAlloc
     /tmp/cceXxdsG.s:204    .text.chPoolFreeI:0000000000000000 $t
     /tmp/cceXxdsG.s:212    .text.chPoolFreeI:0000000000000000 chPoolFreeI
     /tmp/cceXxdsG.s:260    .text.chPoolFreeI:0000000000000024 $d
     /tmp/cceXxdsG.s:265    .text.chPoolFree:0000000000000000 $t
     /tmp/cceXxdsG.s:273    .text.chPoolFree:0000000000000000 chPoolFree
     /tmp/cceXxdsG.s:318    .text.chPoolLoadArray:0000000000000000 $t
     /tmp/cceXxdsG.s:326    .text.chPoolLoadArray:0000000000000000 chPoolLoadArray
     /tmp/cceXxdsG.s:395    .text.chPoolLoadArray:0000000000000030 $d
     /tmp/cceXxdsG.s:400    .rodata.chPoolAllocI.str1.4:0000000000000000 $d
     /tmp/cceXxdsG.s:404    .rodata.chPoolFreeI.str1.4:0000000000000000 $d
     /tmp/cceXxdsG.s:408    .rodata.chPoolInit.str1.4:0000000000000000 $d
     /tmp/cceXxdsG.s:412    .rodata.chPoolLoadArray.str1.4:0000000000000000 $d

UNDEFINED SYMBOLS
chDbgPanic
chDbgCheckClassI
dbg_check_lock
dbg_check_unlock
