ARM GAS  /tmp/cceXxdsG.s 			page 1


   1              		.cpu cortex-m4
   2              		.eabi_attribute 27, 1
   3              		.eabi_attribute 28, 1
   4              		.eabi_attribute 20, 1
   5              		.eabi_attribute 21, 1
   6              		.eabi_attribute 23, 3
   7              		.eabi_attribute 24, 1
   8              		.eabi_attribute 25, 1
   9              		.eabi_attribute 26, 1
  10              		.eabi_attribute 30, 2
  11              		.eabi_attribute 34, 1
  12              		.eabi_attribute 18, 4
  13              		.file	"chmempools.c"
  14              		.text
  15              	.Ltext0:
  16              		.cfi_sections	.debug_frame
  17              		.section	.text.chPoolInit,"ax",%progbits
  18              		.align	1
  19              		.p2align 4,,15
  20              		.global	chPoolInit
  21              		.syntax unified
  22              		.thumb
  23              		.thumb_func
  24              		.fpu fpv4-sp-d16
  25              		.type	chPoolInit, %function
  26              	chPoolInit:
  27              	.LFB7:
  28              		.file 1 "ChibiOS_2.6.6/os/kernel/src/chmempools.c"
  29              		.loc 1 62 0
  30              		.cfi_startproc
  31              		@ args = 0, pretend = 0, frame = 0
  32              		@ frame_needed = 0, uses_anonymous_args = 0
  33              	.LVL0:
  34 0000 70B5     		push	{r4, r5, r6, lr}
  35              		.cfi_def_cfa_offset 16
  36              		.cfi_offset 4, -16
  37              		.cfi_offset 5, -12
  38              		.cfi_offset 6, -8
  39              		.cfi_offset 14, -4
  40              		.loc 1 62 0
  41 0002 0D46     		mov	r5, r1
  42 0004 1646     		mov	r6, r2
  43              		.loc 1 64 0
  44 0006 0446     		mov	r4, r0
  45 0008 08B1     		cbz	r0, .L2
  46              		.loc 1 64 0 is_stmt 0 discriminator 2
  47 000a 0329     		cmp	r1, #3
  48 000c 02D8     		bhi	.L3
  49              	.L2:
  50              		.loc 1 64 0 discriminator 3
  51 000e 0448     		ldr	r0, .L9
  52              	.LVL1:
  53 0010 FFF7FEFF 		bl	chDbgPanic
  54              	.LVL2:
  55              	.L3:
  56              		.loc 1 66 0 is_stmt 1
  57 0014 0023     		movs	r3, #0
ARM GAS  /tmp/cceXxdsG.s 			page 2


  58              		.loc 1 68 0
  59 0016 C4E90156 		strd	r5, r6, [r4, #4]
  60              		.loc 1 66 0
  61 001a 2360     		str	r3, [r4]
  62              		.loc 1 69 0
  63 001c 70BD     		pop	{r4, r5, r6, pc}
  64              	.LVL3:
  65              	.L10:
  66 001e 00BF     		.align	2
  67              	.L9:
  68 0020 00000000 		.word	.LC0
  69              		.cfi_endproc
  70              	.LFE7:
  71              		.size	chPoolInit, .-chPoolInit
  72              		.section	.text.chPoolAllocI,"ax",%progbits
  73              		.align	1
  74              		.p2align 4,,15
  75              		.global	chPoolAllocI
  76              		.syntax unified
  77              		.thumb
  78              		.thumb_func
  79              		.fpu fpv4-sp-d16
  80              		.type	chPoolAllocI, %function
  81              	chPoolAllocI:
  82              	.LFB9:
  83              		.loc 1 105 0
  84              		.cfi_startproc
  85              		@ args = 0, pretend = 0, frame = 0
  86              		@ frame_needed = 0, uses_anonymous_args = 0
  87              	.LVL4:
  88 0000 10B5     		push	{r4, lr}
  89              		.cfi_def_cfa_offset 8
  90              		.cfi_offset 4, -8
  91              		.cfi_offset 14, -4
  92              		.loc 1 105 0
  93 0002 0446     		mov	r4, r0
  94              		.loc 1 108 0
  95 0004 FFF7FEFF 		bl	chDbgCheckClassI
  96              	.LVL5:
  97              		.loc 1 109 0
  98 0008 5CB1     		cbz	r4, .L19
  99              	.L12:
 100              		.loc 1 111 0
 101 000a 2068     		ldr	r0, [r4]
 102              	.LVL6:
 103 000c 10B1     		cbz	r0, .L13
 104              		.loc 1 112 0
 105 000e 0368     		ldr	r3, [r0]
 106 0010 2360     		str	r3, [r4]
 107              	.L11:
 108              		.loc 1 116 0
 109 0012 10BD     		pop	{r4, pc}
 110              	.LVL7:
 111              	.L13:
 112              	.LBB4:
 113              	.LBB5:
 114              		.loc 1 113 0
ARM GAS  /tmp/cceXxdsG.s 			page 3


 115 0014 A368     		ldr	r3, [r4, #8]
 116 0016 002B     		cmp	r3, #0
 117 0018 FBD0     		beq	.L11
 118              		.loc 1 114 0
 119 001a 6068     		ldr	r0, [r4, #4]
 120              	.LVL8:
 121              	.LBE5:
 122              	.LBE4:
 123              		.loc 1 116 0
 124 001c BDE81040 		pop	{r4, lr}
 125              		.cfi_remember_state
 126              		.cfi_restore 14
 127              		.cfi_restore 4
 128              		.cfi_def_cfa_offset 0
 129              	.LVL9:
 130              	.LBB7:
 131              	.LBB6:
 132              		.loc 1 114 0
 133 0020 1847     		bx	r3
 134              	.LVL10:
 135              	.L19:
 136              		.cfi_restore_state
 137              	.LBE6:
 138              	.LBE7:
 139              		.loc 1 109 0 discriminator 1
 140 0022 0248     		ldr	r0, .L20
 141 0024 FFF7FEFF 		bl	chDbgPanic
 142              	.LVL11:
 143 0028 EFE7     		b	.L12
 144              	.L21:
 145 002a 00BF     		.align	2
 146              	.L20:
 147 002c 00000000 		.word	.LC1
 148              		.cfi_endproc
 149              	.LFE9:
 150              		.size	chPoolAllocI, .-chPoolAllocI
 151              		.section	.text.chPoolAlloc,"ax",%progbits
 152              		.align	1
 153              		.p2align 4,,15
 154              		.global	chPoolAlloc
 155              		.syntax unified
 156              		.thumb
 157              		.thumb_func
 158              		.fpu fpv4-sp-d16
 159              		.type	chPoolAlloc, %function
 160              	chPoolAlloc:
 161              	.LFB10:
 162              		.loc 1 128 0
 163              		.cfi_startproc
 164              		@ args = 0, pretend = 0, frame = 0
 165              		@ frame_needed = 0, uses_anonymous_args = 0
 166              	.LVL12:
 167 0000 10B5     		push	{r4, lr}
 168              		.cfi_def_cfa_offset 8
 169              		.cfi_offset 4, -8
 170              		.cfi_offset 14, -4
 171              		.loc 1 128 0
ARM GAS  /tmp/cceXxdsG.s 			page 4


 172 0002 0446     		mov	r4, r0
 173              		.loc 1 131 0
 174              		.syntax unified
 175              	@ 131 "ChibiOS_2.6.6/os/kernel/src/chmempools.c" 1
 176 0004 72B6     		cpsid   i
 177              	@ 0 "" 2
 178              		.thumb
 179              		.syntax unified
 180 0006 FFF7FEFF 		bl	dbg_check_lock
 181              	.LVL13:
 182              		.loc 1 132 0
 183 000a 2046     		mov	r0, r4
 184 000c FFF7FEFF 		bl	chPoolAllocI
 185              	.LVL14:
 186 0010 0446     		mov	r4, r0
 187              	.LVL15:
 188              		.loc 1 133 0
 189 0012 FFF7FEFF 		bl	dbg_check_unlock
 190              	.LVL16:
 191              		.syntax unified
 192              	@ 133 "ChibiOS_2.6.6/os/kernel/src/chmempools.c" 1
 193 0016 62B6     		cpsie   i
 194              	@ 0 "" 2
 195              		.loc 1 135 0
 196              		.thumb
 197              		.syntax unified
 198 0018 2046     		mov	r0, r4
 199 001a 10BD     		pop	{r4, pc}
 200              		.cfi_endproc
 201              	.LFE10:
 202              		.size	chPoolAlloc, .-chPoolAlloc
 203              		.section	.text.chPoolFreeI,"ax",%progbits
 204              		.align	1
 205              		.p2align 4,,15
 206              		.global	chPoolFreeI
 207              		.syntax unified
 208              		.thumb
 209              		.thumb_func
 210              		.fpu fpv4-sp-d16
 211              		.type	chPoolFreeI, %function
 212              	chPoolFreeI:
 213              	.LFB11:
 214              		.loc 1 149 0
 215              		.cfi_startproc
 216              		@ args = 0, pretend = 0, frame = 0
 217              		@ frame_needed = 0, uses_anonymous_args = 0
 218              	.LVL17:
 219 0000 38B5     		push	{r3, r4, r5, lr}
 220              		.cfi_def_cfa_offset 16
 221              		.cfi_offset 3, -16
 222              		.cfi_offset 4, -12
 223              		.cfi_offset 5, -8
 224              		.cfi_offset 14, -4
 225              		.loc 1 149 0
 226 0002 0446     		mov	r4, r0
 227 0004 0D46     		mov	r5, r1
 228              	.LVL18:
ARM GAS  /tmp/cceXxdsG.s 			page 5


 229              		.loc 1 152 0
 230 0006 FFF7FEFF 		bl	chDbgCheckClassI
 231              	.LVL19:
 232              		.loc 1 153 0
 233 000a 24B1     		cbz	r4, .L25
 234              		.loc 1 153 0 is_stmt 0 discriminator 2
 235 000c 1DB1     		cbz	r5, .L25
 236              		.loc 1 155 0 is_stmt 1
 237 000e 2368     		ldr	r3, [r4]
 238 0010 2B60     		str	r3, [r5]
 239              		.loc 1 156 0
 240 0012 2560     		str	r5, [r4]
 241              		.loc 1 157 0
 242 0014 38BD     		pop	{r3, r4, r5, pc}
 243              	.LVL20:
 244              	.L25:
 245              		.loc 1 153 0 discriminator 3
 246 0016 0348     		ldr	r0, .L31
 247 0018 FFF7FEFF 		bl	chDbgPanic
 248              	.LVL21:
 249              		.loc 1 155 0 discriminator 3
 250 001c 2368     		ldr	r3, [r4]
 251 001e 2B60     		str	r3, [r5]
 252              		.loc 1 156 0 discriminator 3
 253 0020 2560     		str	r5, [r4]
 254              		.loc 1 157 0 discriminator 3
 255 0022 38BD     		pop	{r3, r4, r5, pc}
 256              	.LVL22:
 257              	.L32:
 258              		.align	2
 259              	.L31:
 260 0024 00000000 		.word	.LC2
 261              		.cfi_endproc
 262              	.LFE11:
 263              		.size	chPoolFreeI, .-chPoolFreeI
 264              		.section	.text.chPoolFree,"ax",%progbits
 265              		.align	1
 266              		.p2align 4,,15
 267              		.global	chPoolFree
 268              		.syntax unified
 269              		.thumb
 270              		.thumb_func
 271              		.fpu fpv4-sp-d16
 272              		.type	chPoolFree, %function
 273              	chPoolFree:
 274              	.LFB12:
 275              		.loc 1 171 0
 276              		.cfi_startproc
 277              		@ args = 0, pretend = 0, frame = 0
 278              		@ frame_needed = 0, uses_anonymous_args = 0
 279              	.LVL23:
 280 0000 38B5     		push	{r3, r4, r5, lr}
 281              		.cfi_def_cfa_offset 16
 282              		.cfi_offset 3, -16
 283              		.cfi_offset 4, -12
 284              		.cfi_offset 5, -8
 285              		.cfi_offset 14, -4
ARM GAS  /tmp/cceXxdsG.s 			page 6


 286              		.loc 1 171 0
 287 0002 0446     		mov	r4, r0
 288 0004 0D46     		mov	r5, r1
 289              		.loc 1 173 0
 290              		.syntax unified
 291              	@ 173 "ChibiOS_2.6.6/os/kernel/src/chmempools.c" 1
 292 0006 72B6     		cpsid   i
 293              	@ 0 "" 2
 294              		.thumb
 295              		.syntax unified
 296 0008 FFF7FEFF 		bl	dbg_check_lock
 297              	.LVL24:
 298              		.loc 1 174 0
 299 000c 2946     		mov	r1, r5
 300 000e 2046     		mov	r0, r4
 301 0010 FFF7FEFF 		bl	chPoolFreeI
 302              	.LVL25:
 303              		.loc 1 175 0
 304 0014 FFF7FEFF 		bl	dbg_check_unlock
 305              	.LVL26:
 306              		.syntax unified
 307              	@ 175 "ChibiOS_2.6.6/os/kernel/src/chmempools.c" 1
 308 0018 62B6     		cpsie   i
 309              	@ 0 "" 2
 310              		.loc 1 176 0
 311              		.thumb
 312              		.syntax unified
 313 001a 38BD     		pop	{r3, r4, r5, pc}
 314              		.cfi_endproc
 315              	.LFE12:
 316              		.size	chPoolFree, .-chPoolFree
 317              		.section	.text.chPoolLoadArray,"ax",%progbits
 318              		.align	1
 319              		.p2align 4,,15
 320              		.global	chPoolLoadArray
 321              		.syntax unified
 322              		.thumb
 323              		.thumb_func
 324              		.fpu fpv4-sp-d16
 325              		.type	chPoolLoadArray, %function
 326              	chPoolLoadArray:
 327              	.LFB8:
 328              		.loc 1 84 0
 329              		.cfi_startproc
 330              		@ args = 0, pretend = 0, frame = 0
 331              		@ frame_needed = 0, uses_anonymous_args = 0
 332              	.LVL27:
 333 0000 70B5     		push	{r4, r5, r6, lr}
 334              		.cfi_def_cfa_offset 16
 335              		.cfi_offset 4, -16
 336              		.cfi_offset 5, -12
 337              		.cfi_offset 6, -8
 338              		.cfi_offset 14, -4
 339              		.loc 1 84 0
 340 0002 0D46     		mov	r5, r1
 341 0004 1446     		mov	r4, r2
 342              		.loc 1 86 0
ARM GAS  /tmp/cceXxdsG.s 			page 7


 343 0006 0646     		mov	r6, r0
 344 0008 28B1     		cbz	r0, .L36
 345              		.loc 1 86 0 is_stmt 0 discriminator 2
 346 000a 42B9     		cbnz	r2, .L38
 347              		.loc 1 86 0
 348 000c 0848     		ldr	r0, .L43
 349              	.LVL28:
 350              		.loc 1 93 0 is_stmt 1
 351 000e BDE87040 		pop	{r4, r5, r6, lr}
 352              		.cfi_remember_state
 353              		.cfi_restore 14
 354              		.cfi_restore 6
 355              		.cfi_restore 5
 356              		.cfi_restore 4
 357              		.cfi_def_cfa_offset 0
 358              	.LVL29:
 359              		.loc 1 86 0
 360 0012 FFF7FEBF 		b	chDbgPanic
 361              	.LVL30:
 362              	.L36:
 363              		.cfi_restore_state
 364              		.loc 1 86 0 is_stmt 0 discriminator 3
 365 0016 0648     		ldr	r0, .L43
 366              	.LVL31:
 367 0018 FFF7FEFF 		bl	chDbgPanic
 368              	.LVL32:
 369              		.loc 1 88 0 is_stmt 1 discriminator 3
 370 001c 3CB1     		cbz	r4, .L35
 371              	.LVL33:
 372              	.L38:
 373              		.loc 1 89 0
 374 001e 2946     		mov	r1, r5
 375 0020 3046     		mov	r0, r6
 376 0022 FFF7FEFF 		bl	chPoolFree
 377              	.LVL34:
 378              		.loc 1 90 0
 379 0026 7368     		ldr	r3, [r6, #4]
 380              		.loc 1 88 0
 381 0028 013C     		subs	r4, r4, #1
 382              	.LVL35:
 383              		.loc 1 90 0
 384 002a 1D44     		add	r5, r5, r3
 385              	.LVL36:
 386              		.loc 1 88 0
 387 002c F7D1     		bne	.L38
 388              	.L35:
 389              		.loc 1 93 0
 390 002e 70BD     		pop	{r4, r5, r6, pc}
 391              	.LVL37:
 392              	.L44:
 393              		.align	2
 394              	.L43:
 395 0030 00000000 		.word	.LC3
 396              		.cfi_endproc
 397              	.LFE8:
 398              		.size	chPoolLoadArray, .-chPoolLoadArray
 399              		.section	.rodata.chPoolAllocI.str1.4,"aMS",%progbits,1
ARM GAS  /tmp/cceXxdsG.s 			page 8


 400              		.align	2
 401              	.LC1:
 402 0000 22636850 		.ascii	"\"chPoolAllocI\"()\000"
 402      6F6F6C41 
 402      6C6C6F63 
 402      49222829 
 402      00
 403              		.section	.rodata.chPoolFreeI.str1.4,"aMS",%progbits,1
 404              		.align	2
 405              	.LC2:
 406 0000 22636850 		.ascii	"\"chPoolFreeI\"()\000"
 406      6F6F6C46 
 406      72656549 
 406      22282900 
 407              		.section	.rodata.chPoolInit.str1.4,"aMS",%progbits,1
 408              		.align	2
 409              	.LC0:
 410 0000 22636850 		.ascii	"\"chPoolInit\"()\000"
 410      6F6F6C49 
 410      6E697422 
 410      282900
 411              		.section	.rodata.chPoolLoadArray.str1.4,"aMS",%progbits,1
 412              		.align	2
 413              	.LC3:
 414 0000 22636850 		.ascii	"\"chPoolLoadArray\"()\000"
 414      6F6F6C4C 
 414      6F616441 
 414      72726179 
 414      22282900 
 415              		.text
 416              	.Letext0:
 417              		.file 2 "/usr/lib/gcc/arm-none-eabi/7.3.1/include/stddef.h"
 418              		.file 3 "/usr/arm-none-eabi/include/machine/_default_types.h"
 419              		.file 4 "/usr/arm-none-eabi/include/sys/_stdint.h"
 420              		.file 5 "ChibiOS_2.6.6/os/ports/GCC/ARMCMx/chtypes.h"
 421              		.file 6 "ChibiOS_2.6.6/os/kernel/include/chlists.h"
 422              		.file 7 "ChibiOS_2.6.6/os/kernel/include/chthreads.h"
 423              		.file 8 "ChibiOS_2.6.6/os/ports/GCC/ARMCMx/chcore_v7m.h"
 424              		.file 9 "ChibiOS_2.6.6/os/kernel/include/chvt.h"
 425              		.file 10 "ChibiOS_2.6.6/os/kernel/include/chschd.h"
 426              		.file 11 "ChibiOS_2.6.6/os/kernel/include/chmtx.h"
 427              		.file 12 "ChibiOS_2.6.6/os/kernel/include/chmemcore.h"
 428              		.file 13 "ChibiOS_2.6.6/os/kernel/include/chmempools.h"
 429              		.file 14 "ChibiOS_2.6.6/os/kernel/include/chregistry.h"
 430              		.file 15 "ChibiOS_2.6.6/os/kernel/include/chdebug.h"
 431              		.file 16 "ChibiOS_2.6.6/os/kernel/include/ch.h"