ARM GAS  /tmp/ccjYnjDA.s 			page 1


   1              		.cpu cortex-m4
   2              		.eabi_attribute 27, 1
   3              		.eabi_attribute 28, 1
   4              		.eabi_attribute 20, 1
   5              		.eabi_attribute 21, 1
   6              		.eabi_attribute 23, 3
   7              		.eabi_attribute 24, 1
   8              		.eabi_attribute 25, 1
   9              		.eabi_attribute 26, 1
  10              		.eabi_attribute 30, 2
  11              		.eabi_attribute 34, 1
  12              		.eabi_attribute 18, 4
  13              		.file	"chmsg.c"
  14              		.text
  15              	.Ltext0:
  16              		.cfi_sections	.debug_frame
  17              		.section	.text.chMsgSend,"ax",%progbits
  18              		.align	1
  19              		.p2align 4,,15
  20              		.global	chMsgSend
  21              		.syntax unified
  22              		.thumb
  23              		.thumb_func
  24              		.fpu fpv4-sp-d16
  25              		.type	chMsgSend, %function
  26              	chMsgSend:
  27              	.LFB7:
  28              		.file 1 "ChibiOS_2.6.6/os/kernel/src/chmsg.c"
  29              		.loc 1 75 0
  30              		.cfi_startproc
  31              		@ args = 0, pretend = 0, frame = 0
  32              		@ frame_needed = 0, uses_anonymous_args = 0
  33              	.LVL0:
  34              		.loc 1 76 0
  35 0000 134B     		ldr	r3, .L8
  36              		.loc 1 75 0
  37 0002 70B5     		push	{r4, r5, r6, lr}
  38              		.cfi_def_cfa_offset 16
  39              		.cfi_offset 4, -16
  40              		.cfi_offset 5, -12
  41              		.cfi_offset 6, -8
  42              		.cfi_offset 14, -4
  43              		.loc 1 75 0
  44 0004 0E46     		mov	r6, r1
  45              		.loc 1 76 0
  46 0006 9C69     		ldr	r4, [r3, #24]
  47              	.LVL1:
  48              		.loc 1 78 0
  49 0008 0546     		mov	r5, r0
  50 000a E0B1     		cbz	r0, .L6
  51              	.LVL2:
  52              	.L2:
  53              		.loc 1 80 0
  54              		.syntax unified
  55              	@ 80 "ChibiOS_2.6.6/os/kernel/src/chmsg.c" 1
  56 000c 72B6     		cpsid   i
  57              	@ 0 "" 2
ARM GAS  /tmp/ccjYnjDA.s 			page 2


  58              		.thumb
  59              		.syntax unified
  60 000e FFF7FEFF 		bl	dbg_check_lock
  61              	.LVL3:
  62              	.LBB6:
  63              	.LBB7:
  64              		.file 2 "ChibiOS_2.6.6/os/kernel/include/chinline.h"
  65              		.loc 2 55 0
  66 0012 6B6B     		ldr	r3, [r5, #52]
  67 0014 6360     		str	r3, [r4, #4]
  68              	.LBE7:
  69              	.LBE6:
  70              		.loc 1 82 0
  71 0016 05F13002 		add	r2, r5, #48
  72              		.loc 1 81 0
  73 001a A663     		str	r6, [r4, #56]
  74              		.loc 1 82 0
  75 001c A262     		str	r2, [r4, #40]
  76              	.LVL4:
  77              	.LBB9:
  78              	.LBB8:
  79              		.loc 2 54 0
  80 001e 2260     		str	r2, [r4]
  81              		.loc 2 56 0
  82 0020 6C63     		str	r4, [r5, #52]
  83 0022 1C60     		str	r4, [r3]
  84              	.LVL5:
  85              	.LBE8:
  86              	.LBE9:
  87              		.loc 1 84 0
  88 0024 95F82030 		ldrb	r3, [r5, #32]	@ zero_extendqisi2
  89 0028 0C2B     		cmp	r3, #12
  90 002a 08D0     		beq	.L7
  91              	.L3:
  92              		.loc 1 86 0
  93 002c 0A20     		movs	r0, #10
  94 002e FFF7FEFF 		bl	chSchGoSleepS
  95              	.LVL6:
  96              		.loc 1 87 0
  97 0032 A46A     		ldr	r4, [r4, #40]
  98              	.LVL7:
  99              		.loc 1 88 0
 100 0034 FFF7FEFF 		bl	dbg_check_unlock
 101              	.LVL8:
 102              		.syntax unified
 103              	@ 88 "ChibiOS_2.6.6/os/kernel/src/chmsg.c" 1
 104 0038 62B6     		cpsie   i
 105              	@ 0 "" 2
 106              		.loc 1 90 0
 107              		.thumb
 108              		.syntax unified
 109 003a 2046     		mov	r0, r4
 110 003c 70BD     		pop	{r4, r5, r6, pc}
 111              	.LVL9:
 112              	.L7:
 113              		.loc 1 85 0
 114 003e 2846     		mov	r0, r5
ARM GAS  /tmp/ccjYnjDA.s 			page 3


 115 0040 FFF7FEFF 		bl	chSchReadyI
 116              	.LVL10:
 117 0044 F2E7     		b	.L3
 118              	.LVL11:
 119              	.L6:
 120              		.loc 1 78 0 discriminator 1
 121 0046 0348     		ldr	r0, .L8+4
 122              	.LVL12:
 123 0048 FFF7FEFF 		bl	chDbgPanic
 124              	.LVL13:
 125 004c DEE7     		b	.L2
 126              	.L9:
 127 004e 00BF     		.align	2
 128              	.L8:
 129 0050 00000000 		.word	rlist
 130 0054 00000000 		.word	.LC0
 131              		.cfi_endproc
 132              	.LFE7:
 133              		.size	chMsgSend, .-chMsgSend
 134              		.section	.text.chMsgWait,"ax",%progbits
 135              		.align	1
 136              		.p2align 4,,15
 137              		.global	chMsgWait
 138              		.syntax unified
 139              		.thumb
 140              		.thumb_func
 141              		.fpu fpv4-sp-d16
 142              		.type	chMsgWait, %function
 143              	chMsgWait:
 144              	.LFB8:
 145              		.loc 1 106 0
 146              		.cfi_startproc
 147              		@ args = 0, pretend = 0, frame = 0
 148              		@ frame_needed = 0, uses_anonymous_args = 0
 149 0000 38B5     		push	{r3, r4, r5, lr}
 150              		.cfi_def_cfa_offset 16
 151              		.cfi_offset 3, -16
 152              		.cfi_offset 4, -12
 153              		.cfi_offset 5, -8
 154              		.cfi_offset 14, -4
 155              		.loc 1 109 0
 156              		.syntax unified
 157              	@ 109 "ChibiOS_2.6.6/os/kernel/src/chmsg.c" 1
 158 0002 72B6     		cpsid   i
 159              	@ 0 "" 2
 160              		.loc 1 110 0
 161              		.thumb
 162              		.syntax unified
 163 0004 0D4D     		ldr	r5, .L14
 164              		.loc 1 109 0
 165 0006 FFF7FEFF 		bl	dbg_check_lock
 166              	.LVL14:
 167              		.loc 1 110 0
 168 000a AA69     		ldr	r2, [r5, #24]
 169 000c 1346     		mov	r3, r2
 170 000e 53F8304F 		ldr	r4, [r3, #48]!
 171 0012 9C42     		cmp	r4, r3
ARM GAS  /tmp/ccjYnjDA.s 			page 4


 172 0014 0AD0     		beq	.L13
 173              	.L11:
 174              	.LVL15:
 175              	.LBB10:
 176              	.LBB11:
 177              		.loc 2 62 0
 178 0016 2168     		ldr	r1, [r4]
 179 0018 1163     		str	r1, [r2, #48]
 180              	.LVL16:
 181              	.LBE11:
 182              	.LBE10:
 183              		.loc 1 113 0
 184 001a 0B22     		movs	r2, #11
 185              	.LBB13:
 186              	.LBB12:
 187              		.loc 2 62 0
 188 001c 4B60     		str	r3, [r1, #4]
 189              	.LVL17:
 190              	.LBE12:
 191              	.LBE13:
 192              		.loc 1 113 0
 193 001e 84F82020 		strb	r2, [r4, #32]
 194              		.loc 1 114 0
 195 0022 FFF7FEFF 		bl	dbg_check_unlock
 196              	.LVL18:
 197              		.syntax unified
 198              	@ 114 "ChibiOS_2.6.6/os/kernel/src/chmsg.c" 1
 199 0026 62B6     		cpsie   i
 200              	@ 0 "" 2
 201              		.loc 1 116 0
 202              		.thumb
 203              		.syntax unified
 204 0028 2046     		mov	r0, r4
 205 002a 38BD     		pop	{r3, r4, r5, pc}
 206              	.L13:
 207              		.loc 1 111 0
 208 002c 0C20     		movs	r0, #12
 209 002e FFF7FEFF 		bl	chSchGoSleepS
 210              	.LVL19:
 211 0032 AA69     		ldr	r2, [r5, #24]
 212 0034 146B     		ldr	r4, [r2, #48]
 213 0036 02F13003 		add	r3, r2, #48
 214 003a ECE7     		b	.L11
 215              	.L15:
 216              		.align	2
 217              	.L14:
 218 003c 00000000 		.word	rlist
 219              		.cfi_endproc
 220              	.LFE8:
 221              		.size	chMsgWait, .-chMsgWait
 222              		.section	.text.chMsgRelease,"ax",%progbits
 223              		.align	1
 224              		.p2align 4,,15
 225              		.global	chMsgRelease
 226              		.syntax unified
 227              		.thumb
 228              		.thumb_func
ARM GAS  /tmp/ccjYnjDA.s 			page 5


 229              		.fpu fpv4-sp-d16
 230              		.type	chMsgRelease, %function
 231              	chMsgRelease:
 232              	.LFB9:
 233              		.loc 1 128 0
 234              		.cfi_startproc
 235              		@ args = 0, pretend = 0, frame = 0
 236              		@ frame_needed = 0, uses_anonymous_args = 0
 237              	.LVL20:
 238 0000 38B5     		push	{r3, r4, r5, lr}
 239              		.cfi_def_cfa_offset 16
 240              		.cfi_offset 3, -16
 241              		.cfi_offset 4, -12
 242              		.cfi_offset 5, -8
 243              		.cfi_offset 14, -4
 244              		.loc 1 128 0
 245 0002 0446     		mov	r4, r0
 246 0004 0D46     		mov	r5, r1
 247              		.loc 1 130 0
 248              		.syntax unified
 249              	@ 130 "ChibiOS_2.6.6/os/kernel/src/chmsg.c" 1
 250 0006 72B6     		cpsid   i
 251              	@ 0 "" 2
 252              		.thumb
 253              		.syntax unified
 254 0008 FFF7FEFF 		bl	dbg_check_lock
 255              	.LVL21:
 256              		.loc 1 131 0
 257 000c 94F82030 		ldrb	r3, [r4, #32]	@ zero_extendqisi2
 258 0010 0B2B     		cmp	r3, #11
 259 0012 02D0     		beq	.L17
 260              		.loc 1 131 0 is_stmt 0 discriminator 1
 261 0014 0548     		ldr	r0, .L22
 262 0016 FFF7FEFF 		bl	chDbgPanic
 263              	.LVL22:
 264              	.L17:
 265              		.loc 1 133 0 is_stmt 1
 266 001a 2946     		mov	r1, r5
 267 001c 2046     		mov	r0, r4
 268 001e FFF7FEFF 		bl	chSchWakeupS
 269              	.LVL23:
 270              		.loc 1 134 0
 271 0022 FFF7FEFF 		bl	dbg_check_unlock
 272              	.LVL24:
 273              		.syntax unified
 274              	@ 134 "ChibiOS_2.6.6/os/kernel/src/chmsg.c" 1
 275 0026 62B6     		cpsie   i
 276              	@ 0 "" 2
 277              		.loc 1 135 0
 278              		.thumb
 279              		.syntax unified
 280 0028 38BD     		pop	{r3, r4, r5, pc}
 281              	.LVL25:
 282              	.L23:
 283 002a 00BF     		.align	2
 284              	.L22:
 285 002c 00000000 		.word	.LC1
ARM GAS  /tmp/ccjYnjDA.s 			page 6


 286              		.cfi_endproc
 287              	.LFE9:
 288              		.size	chMsgRelease, .-chMsgRelease
 289              		.section	.rodata.chMsgRelease.str1.4,"aMS",%progbits,1
 290              		.align	2
 291              	.LC1:
 292 0000 63684D73 		.ascii	"chMsgRelease(), #1\000"
 292      6752656C 
 292      65617365 
 292      28292C20 
 292      233100
 293              		.section	.rodata.chMsgSend.str1.4,"aMS",%progbits,1
 294              		.align	2
 295              	.LC0:
 296 0000 2263684D 		.ascii	"\"chMsgSend\"()\000"
 296      73675365 
 296      6E642228 
 296      2900
 297              		.text
 298              	.Letext0:
 299              		.file 3 "/usr/arm-none-eabi/include/machine/_default_types.h"
 300              		.file 4 "/usr/arm-none-eabi/include/sys/_stdint.h"
 301              		.file 5 "ChibiOS_2.6.6/os/ports/GCC/ARMCMx/chtypes.h"
 302              		.file 6 "ChibiOS_2.6.6/os/kernel/include/chlists.h"
 303              		.file 7 "ChibiOS_2.6.6/os/kernel/include/chthreads.h"
 304              		.file 8 "ChibiOS_2.6.6/os/ports/GCC/ARMCMx/chcore_v7m.h"
 305              		.file 9 "ChibiOS_2.6.6/os/kernel/include/chvt.h"
 306              		.file 10 "ChibiOS_2.6.6/os/kernel/include/chschd.h"
 307              		.file 11 "ChibiOS_2.6.6/os/kernel/include/chmtx.h"
 308              		.file 12 "ChibiOS_2.6.6/os/kernel/include/chregistry.h"
 309              		.file 13 "ChibiOS_2.6.6/os/kernel/include/chdebug.h"
 310              		.file 14 "ChibiOS_2.6.6/os/kernel/include/ch.h"