ARM GAS  /tmp/ccjYnjDA.s 			page 1


   1              		.cpu cortex-m4
   2              		.eabi_attribute 27, 1
   3              		.eabi_attribute 28, 1
   4              		.eabi_attribute 20, 1
   5              		.eabi_attribute 21, 1
   6              		.eabi_attribute 23, 3
   7              		.eabi_attribute 24, 1
   8              		.eabi_attribute 25, 1
   9              		.eabi_attribute 26, 1
  10              		.eabi_attribute 30, 2
  11              		.eabi_attribute 34, 1
  12              		.eabi_attribute 18, 4
  13              		.file	"chmsg.c"
  14              		.text
  15              	.Ltext0:
  16              		.cfi_sections	.debug_frame
  17              		.section	.text.chMsgSend,"ax",%progbits
  18              		.align	1
  19              		.p2align 4,,15
  20              		.global	chMsgSend
  21              		.syntax unified
  22              		.thumb
  23              		.thumb_func
  24              		.fpu fpv4-sp-d16
  25              		.type	chMsgSend, %function
  26              	chMsgSend:
  27              	.LFB7:
  28              		.file 1 "ChibiOS_2.6.6/os/kernel/src/chmsg.c"
  29              		.loc 1 75 0
  30              		.cfi_startproc
  31              		@ args = 0, pretend = 0, frame = 0
  32              		@ frame_needed = 0, uses_anonymous_args = 0
  33              	.LVL0:
  34              		.loc 1 76 0
  35 0000 134B     		ldr	r3, .L8
  36              		.loc 1 75 0
  37 0002 70B5     		push	{r4, r5, r6, lr}
  38              		.cfi_def_cfa_offset 16
  39              		.cfi_offset 4, -16
  40              		.cfi_offset 5, -12
  41              		.cfi_offset 6, -8
  42              		.cfi_offset 14, -4
  43              		.loc 1 75 0
  44 0004 0E46     		mov	r6, r1
  45              		.loc 1 76 0
  46 0006 9C69     		ldr	r4, [r3, #24]
  47              	.LVL1:
  48              		.loc 1 78 0
  49 0008 0546     		mov	r5, r0
  50 000a E0B1     		cbz	r0, .L6
  51              	.LVL2:
  52              	.L2:
  53              		.loc 1 80 0
  54              		.syntax unified
  55              	@ 80 "ChibiOS_2.6.6/os/kernel/src/chmsg.c" 1
  56 000c 72B6     		cpsid   i
  57              	@ 0 "" 2
ARM GAS  /tmp/ccjYnjDA.s 			page 2


  58              		.thumb
  59              		.syntax unified
  60 000e FFF7FEFF 		bl	dbg_check_lock
  61              	.LVL3:
  62              	.LBB6:
  63              	.LBB7:
  64              		.file 2 "ChibiOS_2.6.6/os/kernel/include/chinline.h"
  65              		.loc 2 55 0
  66 0012 6B6B     		ldr	r3, [r5, #52]
  67 0014 6360     		str	r3, [r4, #4]
  68              	.LBE7:
  69              	.LBE6:
  70              		.loc 1 82 0
  71 0016 05F13002 		add	r2, r5, #48
  72              		.loc 1 81 0
  73 001a A663     		str	r6, [r4, #56]
  74              		.loc 1 82 0
  75 001c A262     		str	r2, [r4, #40]
  76              	.LVL4:
  77              	.LBB9:
  78              	.LBB8:
  79              		.loc 2 54 0
  80 001e 2260     		str	r2, [r4]
  81              		.loc 2 56 0
  82 0020 6C63     		str	r4, [r5, #52]
  83 0022 1C60     		str	r4, [r3]
  84              	.LVL5:
  85              	.LBE8:
  86              	.LBE9:
  87              		.loc 1 84 0
  88 0024 95F82030 		ldrb	r3, [r5, #32]	@ zero_extendqisi2
  89 0028 0C2B     		cmp	r3, #12
  90 002a 08D0     		beq	.L7
  91              	.L3:
  92              		.loc 1 86 0
  93 002c 0A20     		movs	r0, #10
  94 002e FFF7FEFF 		bl	chSchGoSleepS
  95              	.LVL6:
  96              		.loc 1 87 0
  97 0032 A46A     		ldr	r4, [r4, #40]
  98              	.LVL7:
  99              		.loc 1 88 0
 100 0034 FFF7FEFF 		bl	dbg_check_unlock
 101              	.LVL8:
 102              		.syntax unified
 103              	@ 88 "ChibiOS_2.6.6/os/kernel/src/chmsg.c" 1
 104 0038 62B6     		cpsie   i
 105              	@ 0 "" 2
 106              		.loc 1 90 0
 107              		.thumb
 108              		.syntax unified
 109 003a 2046     		mov	r0, r4
 110 003c 70BD     		pop	{r4, r5, r6, pc}
 111              	.LVL9:
 112              	.L7:
 113              		.loc 1 85 0
 114 003e 2846     		mov	r0, r5
ARM GAS  /tmp/ccjYnjDA.s 			page 3


 115 0040 FFF7FEFF 		bl	chSchReadyI
 116              	.LVL10:
 117 0044 F2E7     		b	.L3
 118              	.LVL11:
 119              	.L6:
 120              		.loc 1 78 0 discriminator 1
 121 0046 0348     		ldr	r0, .L8+4
 122              	.LVL12:
 123 0048 FFF7FEFF 		bl	chDbgPanic
 124              	.LVL13:
 125 004c DEE7     		b	.L2
 126              	.L9:
 127 004e 00BF     		.align	2
 128              	.L8:
 129 0050 00000000 		.word	rlist
 130 0054 00000000 		.word	.LC0
 131              		.cfi_endproc
 132              	.LFE7:
 133              		.size	chMsgSend, .-chMsgSend
 134              		.section	.text.chMsgWait,"ax",%progbits
 135              		.align	1
 136              		.p2align 4,,15
 137              		.global	chMsgWait
 138              		.syntax unified
 139              		.thumb
 140              		.thumb_func
 141              		.fpu fpv4-sp-d16
 142              		.type	chMsgWait, %function
 143              	chMsgWait:
 144              	.LFB8:
 145              		.loc 1 106 0
 146              		.cfi_startproc
 147              		@ args = 0, pretend = 0, frame = 0
 148              		@ frame_needed = 0, uses_anonymous_args = 0
 149 0000 38B5     		push	{r3, r4, r5, lr}
 150              		.cfi_def_cfa_offset 16
 151              		.cfi_offset 3, -16
 152              		.cfi_offset 4, -12
 153              		.cfi_offset 5, -8
 154              		.cfi_offset 14, -4
 155              		.loc 1 109 0
 156              		.syntax unified
 157              	@ 109 "ChibiOS_2.6.6/os/kernel/src/chmsg.c" 1
 158 0002 72B6     		cpsid   i
 159              	@ 0 "" 2
 160              		.loc 1 110 0
 161              		.thumb
 162              		.syntax unified
 163 0004 0D4D     		ldr	r5, .L14
 164              		.loc 1 109 0
 165 0006 FFF7FEFF 		bl	dbg_check_lock
 166              	.LVL14:
 167              		.loc 1 110 0
 168 000a AA69     		ldr	r2, [r5, #24]
 169 000c 1346     		mov	r3, r2
 170 000e 53F8304F 		ldr	r4, [r3, #48]!
 171 0012 9C42     		cmp	r4, r3
ARM GAS  /tmp/ccjYnjDA.s 			page 4


 172 0014 0AD0     		beq	.L13
 173              	.L11:
 174              	.LVL15:
 175              	.LBB10:
 176              	.LBB11:
 177              		.loc 2 62 0
 178 0016 2168     		ldr	r1, [r4]
 179 0018 1163     		str	r1, [r2, #48]
 180              	.LVL16:
 181              	.LBE11:
 182              	.LBE10:
 183              		.loc 1 113 0
 184 001a 0B22     		movs	r2, #11
 185              	.LBB13:
 186              	.LBB12:
 187              		.loc 2 62 0
 188 001c 4B60     		str	r3, [r1, #4]
 189              	.LVL17:
 190              	.LBE12:
 191              	.LBE13:
 192              		.loc 1 113 0
 193 001e 84F82020 		strb	r2, [r4, #32]
 194              		.loc 1 114 0
 195 0022 FFF7FEFF 		bl	dbg_check_unlock
 196              	.LVL18:
 197              		.syntax unified
 198              	@ 114 "ChibiOS_2.6.6/os/kernel/src/chmsg.c" 1
 199 0026 62B6     		cpsie   i
 200              	@ 0 "" 2
 201              		.loc 1 116 0
 202              		.thumb
 203              		.syntax unified
 204 0028 2046     		mov	r0, r4
 205 002a 38BD     		pop	{r3, r4, r5, pc}
 206              	.L13:
 207              		.loc 1 111 0
 208 002c 0C20     		movs	r0, #12
 209 002e FFF7FEFF 		bl	chSchGoSleepS
 210              	.LVL19:
 211 0032 AA69     		ldr	r2, [r5, #24]
 212 0034 146B     		ldr	r4, [r2, #48]
 213 0036 02F13003 		add	r3, r2, #48
 214 003a ECE7     		b	.L11
 215              	.L15:
 216              		.align	2
 217              	.L14:
 218 003c 00000000 		.word	rlist
 219              		.cfi_endproc
 220              	.LFE8:
 221              		.size	chMsgWait, .-chMsgWait
 222              		.section	.text.chMsgRelease,"ax",%progbits
 223              		.align	1
 224              		.p2align 4,,15
 225              		.global	chMsgRelease
 226              		.syntax unified
 227              		.thumb
 228              		.thumb_func
ARM GAS  /tmp/ccjYnjDA.s 			page 5


 229              		.fpu fpv4-sp-d16
 230              		.type	chMsgRelease, %function
 231              	chMsgRelease:
 232              	.LFB9:
 233              		.loc 1 128 0
 234              		.cfi_startproc
 235              		@ args = 0, pretend = 0, frame = 0
 236              		@ frame_needed = 0, uses_anonymous_args = 0
 237              	.LVL20:
 238 0000 38B5     		push	{r3, r4, r5, lr}
 239              		.cfi_def_cfa_offset 16
 240              		.cfi_offset 3, -16
 241              		.cfi_offset 4, -12
 242              		.cfi_offset 5, -8
 243              		.cfi_offset 14, -4
 244              		.loc 1 128 0
 245 0002 0446     		mov	r4, r0
 246 0004 0D46     		mov	r5, r1
 247              		.loc 1 130 0
 248              		.syntax unified
 249              	@ 130 "ChibiOS_2.6.6/os/kernel/src/chmsg.c" 1
 250 0006 72B6     		cpsid   i
 251              	@ 0 "" 2
 252              		.thumb
 253              		.syntax unified
 254 0008 FFF7FEFF 		bl	dbg_check_lock
 255              	.LVL21:
 256              		.loc 1 131 0
 257 000c 94F82030 		ldrb	r3, [r4, #32]	@ zero_extendqisi2
 258 0010 0B2B     		cmp	r3, #11
 259 0012 02D0     		beq	.L17
 260              		.loc 1 131 0 is_stmt 0 discriminator 1
 261 0014 0548     		ldr	r0, .L22
 262 0016 FFF7FEFF 		bl	chDbgPanic
 263              	.LVL22:
 264              	.L17:
 265              		.loc 1 133 0 is_stmt 1
 266 001a 2946     		mov	r1, r5
 267 001c 2046     		mov	r0, r4
 268 001e FFF7FEFF 		bl	chSchWakeupS
 269              	.LVL23:
 270              		.loc 1 134 0
 271 0022 FFF7FEFF 		bl	dbg_check_unlock
 272              	.LVL24:
 273              		.syntax unified
 274              	@ 134 "ChibiOS_2.6.6/os/kernel/src/chmsg.c" 1
 275 0026 62B6     		cpsie   i
 276              	@ 0 "" 2
 277              		.loc 1 135 0
 278              		.thumb
 279              		.syntax unified
 280 0028 38BD     		pop	{r3, r4, r5, pc}
 281              	.LVL25:
 282              	.L23:
 283 002a 00BF     		.align	2
 284              	.L22:
 285 002c 00000000 		.word	.LC1
ARM GAS  /tmp/ccjYnjDA.s 			page 6


 286              		.cfi_endproc
 287              	.LFE9:
 288              		.size	chMsgRelease, .-chMsgRelease
 289              		.section	.rodata.chMsgRelease.str1.4,"aMS",%progbits,1
 290              		.align	2
 291              	.LC1:
 292 0000 63684D73 		.ascii	"chMsgRelease(), #1\000"
 292      6752656C 
 292      65617365 
 292      28292C20 
 292      233100
 293              		.section	.rodata.chMsgSend.str1.4,"aMS",%progbits,1
 294              		.align	2
 295              	.LC0:
 296 0000 2263684D 		.ascii	"\"chMsgSend\"()\000"
 296      73675365 
 296      6E642228 
 296      2900
 297              		.text
 298              	.Letext0:
 299              		.file 3 "/usr/arm-none-eabi/include/machine/_default_types.h"
 300              		.file 4 "/usr/arm-none-eabi/include/sys/_stdint.h"
 301              		.file 5 "ChibiOS_2.6.6/os/ports/GCC/ARMCMx/chtypes.h"
 302              		.file 6 "ChibiOS_2.6.6/os/kernel/include/chlists.h"
 303              		.file 7 "ChibiOS_2.6.6/os/kernel/include/chthreads.h"
 304              		.file 8 "ChibiOS_2.6.6/os/ports/GCC/ARMCMx/chcore_v7m.h"
 305              		.file 9 "ChibiOS_2.6.6/os/kernel/include/chvt.h"
 306              		.file 10 "ChibiOS_2.6.6/os/kernel/include/chschd.h"
 307              		.file 11 "ChibiOS_2.6.6/os/kernel/include/chmtx.h"
 308              		.file 12 "ChibiOS_2.6.6/os/kernel/include/chregistry.h"
 309              		.file 13 "ChibiOS_2.6.6/os/kernel/include/chdebug.h"
 310              		.file 14 "ChibiOS_2.6.6/os/kernel/include/ch.h"
 311              		.section	.debug_info,"",%progbits
 312              	.Ldebug_info0:
 313 0000 000A0000 		.4byte	0xa00
 314 0004 0400     		.2byte	0x4
 315 0006 00000000 		.4byte	.Ldebug_abbrev0
 316 000a 04       		.byte	0x4
 317 000b 01       		.uleb128 0x1
 318 000c 5B000000 		.4byte	.LASF124
 319 0010 0C       		.byte	0xc
 320 0011 AB030000 		.4byte	.LASF125
 321 0015 2A030000 		.4byte	.LASF126
 322 0019 30000000 		.4byte	.Ldebug_ranges0+0x30
 323 001d 00000000 		.4byte	0
 324 0021 00000000 		.4byte	.Ldebug_line0
 325 0025 02       		.uleb128 0x2
 326 0026 04       		.byte	0x4
 327 0027 05       		.byte	0x5
 328 0028 696E7400 		.ascii	"int\000"
 329 002c 03       		.uleb128 0x3
 330 002d 04       		.byte	0x4
 331 002e 07       		.byte	0x7
 332 002f A0020000 		.4byte	.LASF0
 333 0033 03       		.uleb128 0x3
 334 0034 01       		.byte	0x1
 335 0035 06       		.byte	0x6
ARM GAS  /tmp/ccjYnjDA.s 			page 7


 336 0036 D0010000 		.4byte	.LASF1
 337 003a 04       		.uleb128 0x4
 338 003b 3C000000 		.4byte	.LASF4
 339 003f 03       		.byte	0x3
 340 0040 2B       		.byte	0x2b
 341 0041 45000000 		.4byte	0x45
 342 0045 03       		.uleb128 0x3
 343 0046 01       		.byte	0x1
 344 0047 08       		.byte	0x8
 345 0048 A1040000 		.4byte	.LASF2
 346 004c 03       		.uleb128 0x3
 347 004d 02       		.byte	0x2
 348 004e 05       		.byte	0x5
 349 004f C7040000 		.4byte	.LASF3
 350 0053 04       		.uleb128 0x4
 351 0054 76050000 		.4byte	.LASF5
 352 0058 03       		.byte	0x3
 353 0059 39       		.byte	0x39
 354 005a 5E000000 		.4byte	0x5e
 355 005e 03       		.uleb128 0x3
 356 005f 02       		.byte	0x2
 357 0060 07       		.byte	0x7
 358 0061 FC020000 		.4byte	.LASF6
 359 0065 04       		.uleb128 0x4
 360 0066 A9050000 		.4byte	.LASF7
 361 006a 03       		.byte	0x3
 362 006b 4D       		.byte	0x4d
 363 006c 70000000 		.4byte	0x70
 364 0070 03       		.uleb128 0x3
 365 0071 04       		.byte	0x4
 366 0072 05       		.byte	0x5
 367 0073 13020000 		.4byte	.LASF8
 368 0077 04       		.uleb128 0x4
 369 0078 6B020000 		.4byte	.LASF9
 370 007c 03       		.byte	0x3
 371 007d 4F       		.byte	0x4f
 372 007e 82000000 		.4byte	0x82
 373 0082 03       		.uleb128 0x3
 374 0083 04       		.byte	0x4
 375 0084 07       		.byte	0x7
 376 0085 B5020000 		.4byte	.LASF10
 377 0089 03       		.uleb128 0x3
 378 008a 08       		.byte	0x8
 379 008b 05       		.byte	0x5
 380 008c C2010000 		.4byte	.LASF11
 381 0090 04       		.uleb128 0x4
 382 0091 4B040000 		.4byte	.LASF12
 383 0095 03       		.byte	0x3
 384 0096 69       		.byte	0x69
 385 0097 9B000000 		.4byte	0x9b
 386 009b 03       		.uleb128 0x3
 387 009c 08       		.byte	0x8
 388 009d 07       		.byte	0x7
 389 009e 7F010000 		.4byte	.LASF13
 390 00a2 04       		.uleb128 0x4
 391 00a3 29060000 		.4byte	.LASF14
 392 00a7 04       		.byte	0x4
ARM GAS  /tmp/ccjYnjDA.s 			page 8


 393 00a8 18       		.byte	0x18
 394 00a9 3A000000 		.4byte	0x3a
 395 00ad 04       		.uleb128 0x4
 396 00ae 2F020000 		.4byte	.LASF15
 397 00b2 04       		.byte	0x4
 398 00b3 24       		.byte	0x24
 399 00b4 53000000 		.4byte	0x53
 400 00b8 04       		.uleb128 0x4
 401 00b9 99040000 		.4byte	.LASF16
 402 00bd 04       		.byte	0x4
 403 00be 2C       		.byte	0x2c
 404 00bf 65000000 		.4byte	0x65
 405 00c3 04       		.uleb128 0x4
 406 00c4 48050000 		.4byte	.LASF17
 407 00c8 04       		.byte	0x4
 408 00c9 30       		.byte	0x30
 409 00ca 77000000 		.4byte	0x77
 410 00ce 04       		.uleb128 0x4
 411 00cf 33000000 		.4byte	.LASF18
 412 00d3 04       		.byte	0x4
 413 00d4 3C       		.byte	0x3c
 414 00d5 90000000 		.4byte	0x90
 415 00d9 03       		.uleb128 0x3
 416 00da 01       		.byte	0x1
 417 00db 02       		.byte	0x2
 418 00dc 93040000 		.4byte	.LASF19
 419 00e0 04       		.uleb128 0x4
 420 00e1 4B030000 		.4byte	.LASF20
 421 00e5 05       		.byte	0x5
 422 00e6 2C       		.byte	0x2c
 423 00e7 A2000000 		.4byte	0xa2
 424 00eb 04       		.uleb128 0x4
 425 00ec 26020000 		.4byte	.LASF21
 426 00f0 05       		.byte	0x5
 427 00f1 2D       		.byte	0x2d
 428 00f2 A2000000 		.4byte	0xa2
 429 00f6 04       		.uleb128 0x4
 430 00f7 67040000 		.4byte	.LASF22
 431 00fb 05       		.byte	0x5
 432 00fc 2E       		.byte	0x2e
 433 00fd A2000000 		.4byte	0xa2
 434 0101 04       		.uleb128 0x4
 435 0102 09020000 		.4byte	.LASF23
 436 0106 05       		.byte	0x5
 437 0107 2F       		.byte	0x2f
 438 0108 A2000000 		.4byte	0xa2
 439 010c 04       		.uleb128 0x4
 440 010d 8B040000 		.4byte	.LASF24
 441 0111 05       		.byte	0x5
 442 0112 30       		.byte	0x30
 443 0113 C3000000 		.4byte	0xc3
 444 0117 04       		.uleb128 0x4
 445 0118 1C030000 		.4byte	.LASF25
 446 011c 05       		.byte	0x5
 447 011d 31       		.byte	0x31
 448 011e B8000000 		.4byte	0xb8
 449 0122 04       		.uleb128 0x4
ARM GAS  /tmp/ccjYnjDA.s 			page 9


 450 0123 6B030000 		.4byte	.LASF26
 451 0127 05       		.byte	0x5
 452 0128 33       		.byte	0x33
 453 0129 C3000000 		.4byte	0xc3
 454 012d 04       		.uleb128 0x4
 455 012e 94050000 		.4byte	.LASF27
 456 0132 05       		.byte	0x5
 457 0133 35       		.byte	0x35
 458 0134 C3000000 		.4byte	0xc3
 459 0138 05       		.uleb128 0x5
 460 0139 2D010000 		.4byte	0x12d
 461 013d 04       		.uleb128 0x4
 462 013e 8F020000 		.4byte	.LASF28
 463 0142 05       		.byte	0x5
 464 0143 36       		.byte	0x36
 465 0144 B8000000 		.4byte	0xb8
 466 0148 04       		.uleb128 0x4
 467 0149 1B050000 		.4byte	.LASF29
 468 014d 06       		.byte	0x6
 469 014e 2A       		.byte	0x2a
 470 014f 53010000 		.4byte	0x153
 471 0153 06       		.uleb128 0x6
 472 0154 1B050000 		.4byte	.LASF29
 473 0158 4C       		.byte	0x4c
 474 0159 07       		.byte	0x7
 475 015a 5E       		.byte	0x5e
 476 015b 5C020000 		.4byte	0x25c
 477 015f 07       		.uleb128 0x7
 478 0160 FD040000 		.4byte	.LASF30
 479 0164 07       		.byte	0x7
 480 0165 5F       		.byte	0x5f
 481 0166 7D020000 		.4byte	0x27d
 482 016a 00       		.byte	0
 483 016b 07       		.uleb128 0x7
 484 016c 84040000 		.4byte	.LASF31
 485 0170 07       		.byte	0x7
 486 0171 61       		.byte	0x61
 487 0172 7D020000 		.4byte	0x27d
 488 0176 04       		.byte	0x4
 489 0177 07       		.uleb128 0x7
 490 0178 A8010000 		.4byte	.LASF32
 491 017c 07       		.byte	0x7
 492 017d 63       		.byte	0x63
 493 017e 0C010000 		.4byte	0x10c
 494 0182 08       		.byte	0x8
 495 0183 07       		.uleb128 0x7
 496 0184 6E060000 		.4byte	.LASF33
 497 0188 07       		.byte	0x7
 498 0189 64       		.byte	0x64
 499 018a 13040000 		.4byte	0x413
 500 018e 0C       		.byte	0xc
 501 018f 07       		.uleb128 0x7
 502 0190 42020000 		.4byte	.LASF34
 503 0194 07       		.byte	0x7
 504 0195 66       		.byte	0x66
 505 0196 7D020000 		.4byte	0x27d
 506 019a 10       		.byte	0x10
ARM GAS  /tmp/ccjYnjDA.s 			page 10


 507 019b 07       		.uleb128 0x7
 508 019c 05040000 		.4byte	.LASF35
 509 01a0 07       		.byte	0x7
 510 01a1 67       		.byte	0x67
 511 01a2 7D020000 		.4byte	0x27d
 512 01a6 14       		.byte	0x14
 513 01a7 07       		.uleb128 0x7
 514 01a8 38060000 		.4byte	.LASF36
 515 01ac 07       		.byte	0x7
 516 01ad 6E       		.byte	0x6e
 517 01ae D7050000 		.4byte	0x5d7
 518 01b2 18       		.byte	0x18
 519 01b3 07       		.uleb128 0x7
 520 01b4 95020000 		.4byte	.LASF37
 521 01b8 07       		.byte	0x7
 522 01b9 74       		.byte	0x74
 523 01ba E9050000 		.4byte	0x5e9
 524 01be 1C       		.byte	0x1c
 525 01bf 07       		.uleb128 0x7
 526 01c0 D1040000 		.4byte	.LASF38
 527 01c4 07       		.byte	0x7
 528 01c5 79       		.byte	0x79
 529 01c6 EB000000 		.4byte	0xeb
 530 01ca 20       		.byte	0x20
 531 01cb 07       		.uleb128 0x7
 532 01cc 13050000 		.4byte	.LASF39
 533 01d0 07       		.byte	0x7
 534 01d1 7D       		.byte	0x7d
 535 01d2 E0000000 		.4byte	0xe0
 536 01d6 21       		.byte	0x21
 537 01d7 07       		.uleb128 0x7
 538 01d8 FF050000 		.4byte	.LASF40
 539 01dc 07       		.byte	0x7
 540 01dd 82       		.byte	0x82
 541 01de F6000000 		.4byte	0xf6
 542 01e2 22       		.byte	0x22
 543 01e3 07       		.uleb128 0x7
 544 01e4 D9040000 		.4byte	.LASF41
 545 01e8 07       		.byte	0x7
 546 01e9 88       		.byte	0x88
 547 01ea 01010000 		.4byte	0x101
 548 01ee 23       		.byte	0x23
 549 01ef 07       		.uleb128 0x7
 550 01f0 C0050000 		.4byte	.LASF42
 551 01f4 07       		.byte	0x7
 552 01f5 8F       		.byte	0x8f
 553 01f6 38010000 		.4byte	0x138
 554 01fa 24       		.byte	0x24
 555 01fb 08       		.uleb128 0x8
 556 01fc 705F7500 		.ascii	"p_u\000"
 557 0200 07       		.byte	0x7
 558 0201 B4       		.byte	0xb4
 559 0202 A2050000 		.4byte	0x5a2
 560 0206 28       		.byte	0x28
 561 0207 07       		.uleb128 0x7
 562 0208 74060000 		.4byte	.LASF43
 563 020c 07       		.byte	0x7
ARM GAS  /tmp/ccjYnjDA.s 			page 11


 564 020d B9       		.byte	0xb9
 565 020e A3020000 		.4byte	0x2a3
 566 0212 2C       		.byte	0x2c
 567 0213 07       		.uleb128 0x7
 568 0214 CE050000 		.4byte	.LASF44
 569 0218 07       		.byte	0x7
 570 0219 BF       		.byte	0xbf
 571 021a 83020000 		.4byte	0x283
 572 021e 30       		.byte	0x30
 573 021f 07       		.uleb128 0x7
 574 0220 0D000000 		.4byte	.LASF45
 575 0224 07       		.byte	0x7
 576 0225 C3       		.byte	0xc3
 577 0226 17010000 		.4byte	0x117
 578 022a 38       		.byte	0x38
 579 022b 07       		.uleb128 0x7
 580 022c 3D050000 		.4byte	.LASF46
 581 0230 07       		.byte	0x7
 582 0231 C9       		.byte	0xc9
 583 0232 22010000 		.4byte	0x122
 584 0236 3C       		.byte	0x3c
 585 0237 07       		.uleb128 0x7
 586 0238 BD040000 		.4byte	.LASF47
 587 023c 07       		.byte	0x7
 588 023d D0       		.byte	0xd0
 589 023e EF050000 		.4byte	0x5ef
 590 0242 40       		.byte	0x40
 591 0243 07       		.uleb128 0x7
 592 0244 9E050000 		.4byte	.LASF48
 593 0248 07       		.byte	0x7
 594 0249 D4       		.byte	0xd4
 595 024a 0C010000 		.4byte	0x10c
 596 024e 44       		.byte	0x44
 597 024f 07       		.uleb128 0x7
 598 0250 F9010000 		.4byte	.LASF49
 599 0254 07       		.byte	0x7
 600 0255 DA       		.byte	0xda
 601 0256 B9020000 		.4byte	0x2b9
 602 025a 48       		.byte	0x48
 603 025b 00       		.byte	0
 604 025c 09       		.uleb128 0x9
 605 025d 08       		.byte	0x8
 606 025e 06       		.byte	0x6
 607 025f 61       		.byte	0x61
 608 0260 7D020000 		.4byte	0x27d
 609 0264 07       		.uleb128 0x7
 610 0265 FD040000 		.4byte	.LASF30
 611 0269 06       		.byte	0x6
 612 026a 62       		.byte	0x62
 613 026b 7D020000 		.4byte	0x27d
 614 026f 00       		.byte	0
 615 0270 07       		.uleb128 0x7
 616 0271 84040000 		.4byte	.LASF31
 617 0275 06       		.byte	0x6
 618 0276 64       		.byte	0x64
 619 0277 7D020000 		.4byte	0x27d
 620 027b 04       		.byte	0x4
ARM GAS  /tmp/ccjYnjDA.s 			page 12


 621 027c 00       		.byte	0
 622 027d 0A       		.uleb128 0xa
 623 027e 04       		.byte	0x4
 624 027f 48010000 		.4byte	0x148
 625 0283 04       		.uleb128 0x4
 626 0284 13040000 		.4byte	.LASF50
 627 0288 06       		.byte	0x6
 628 0289 66       		.byte	0x66
 629 028a 5C020000 		.4byte	0x25c
 630 028e 09       		.uleb128 0x9
 631 028f 04       		.byte	0x4
 632 0290 06       		.byte	0x6
 633 0291 6B       		.byte	0x6b
 634 0292 A3020000 		.4byte	0x2a3
 635 0296 07       		.uleb128 0x7
 636 0297 FD040000 		.4byte	.LASF30
 637 029b 06       		.byte	0x6
 638 029c 6D       		.byte	0x6d
 639 029d 7D020000 		.4byte	0x27d
 640 02a1 00       		.byte	0
 641 02a2 00       		.byte	0
 642 02a3 04       		.uleb128 0x4
 643 02a4 5F030000 		.4byte	.LASF51
 644 02a8 06       		.byte	0x6
 645 02a9 70       		.byte	0x70
 646 02aa 8E020000 		.4byte	0x28e
 647 02ae 04       		.uleb128 0x4
 648 02af 76020000 		.4byte	.LASF52
 649 02b3 08       		.byte	0x8
 650 02b4 E5       		.byte	0xe5
 651 02b5 B9020000 		.4byte	0x2b9
 652 02b9 0B       		.uleb128 0xb
 653 02ba 04       		.byte	0x4
 654 02bb 0C       		.uleb128 0xc
 655 02bc 7D030000 		.4byte	.LASF127
 656 02c0 08       		.byte	0x8
 657 02c1 EB       		.byte	0xeb
 658 02c2 CE000000 		.4byte	0xce
 659 02c6 08       		.byte	0x8
 660 02c7 0D       		.uleb128 0xd
 661 02c8 C7050000 		.4byte	.LASF53
 662 02cc 64       		.byte	0x64
 663 02cd 08       		.byte	0x8
 664 02ce 0C01     		.2byte	0x10c
 665 02d0 13040000 		.4byte	0x413
 666 02d4 0E       		.uleb128 0xe
 667 02d5 73313600 		.ascii	"s16\000"
 668 02d9 08       		.byte	0x8
 669 02da 0E01     		.2byte	0x10e
 670 02dc AE020000 		.4byte	0x2ae
 671 02e0 00       		.byte	0
 672 02e1 0E       		.uleb128 0xe
 673 02e2 73313700 		.ascii	"s17\000"
 674 02e6 08       		.byte	0x8
 675 02e7 0F01     		.2byte	0x10f
 676 02e9 AE020000 		.4byte	0x2ae
 677 02ed 04       		.byte	0x4
ARM GAS  /tmp/ccjYnjDA.s 			page 13


 678 02ee 0E       		.uleb128 0xe
 679 02ef 73313800 		.ascii	"s18\000"
 680 02f3 08       		.byte	0x8
 681 02f4 1001     		.2byte	0x110
 682 02f6 AE020000 		.4byte	0x2ae
 683 02fa 08       		.byte	0x8
 684 02fb 0E       		.uleb128 0xe
 685 02fc 73313900 		.ascii	"s19\000"
 686 0300 08       		.byte	0x8
 687 0301 1101     		.2byte	0x111
 688 0303 AE020000 		.4byte	0x2ae
 689 0307 0C       		.byte	0xc
 690 0308 0E       		.uleb128 0xe
 691 0309 73323000 		.ascii	"s20\000"
 692 030d 08       		.byte	0x8
 693 030e 1201     		.2byte	0x112
 694 0310 AE020000 		.4byte	0x2ae
 695 0314 10       		.byte	0x10
 696 0315 0E       		.uleb128 0xe
 697 0316 73323100 		.ascii	"s21\000"
 698 031a 08       		.byte	0x8
 699 031b 1301     		.2byte	0x113
 700 031d AE020000 		.4byte	0x2ae
 701 0321 14       		.byte	0x14
 702 0322 0E       		.uleb128 0xe
 703 0323 73323200 		.ascii	"s22\000"
 704 0327 08       		.byte	0x8
 705 0328 1401     		.2byte	0x114
 706 032a AE020000 		.4byte	0x2ae
 707 032e 18       		.byte	0x18
 708 032f 0E       		.uleb128 0xe
 709 0330 73323300 		.ascii	"s23\000"
 710 0334 08       		.byte	0x8
 711 0335 1501     		.2byte	0x115
 712 0337 AE020000 		.4byte	0x2ae
 713 033b 1C       		.byte	0x1c
 714 033c 0E       		.uleb128 0xe
 715 033d 73323400 		.ascii	"s24\000"
 716 0341 08       		.byte	0x8
 717 0342 1601     		.2byte	0x116
 718 0344 AE020000 		.4byte	0x2ae
 719 0348 20       		.byte	0x20
 720 0349 0E       		.uleb128 0xe
 721 034a 73323500 		.ascii	"s25\000"
 722 034e 08       		.byte	0x8
 723 034f 1701     		.2byte	0x117
 724 0351 AE020000 		.4byte	0x2ae
 725 0355 24       		.byte	0x24
 726 0356 0E       		.uleb128 0xe
 727 0357 73323600 		.ascii	"s26\000"
 728 035b 08       		.byte	0x8
 729 035c 1801     		.2byte	0x118
 730 035e AE020000 		.4byte	0x2ae
 731 0362 28       		.byte	0x28
 732 0363 0E       		.uleb128 0xe
 733 0364 73323700 		.ascii	"s27\000"
 734 0368 08       		.byte	0x8
ARM GAS  /tmp/ccjYnjDA.s 			page 14


 735 0369 1901     		.2byte	0x119
 736 036b AE020000 		.4byte	0x2ae
 737 036f 2C       		.byte	0x2c
 738 0370 0E       		.uleb128 0xe
 739 0371 73323800 		.ascii	"s28\000"
 740 0375 08       		.byte	0x8
 741 0376 1A01     		.2byte	0x11a
 742 0378 AE020000 		.4byte	0x2ae
 743 037c 30       		.byte	0x30
 744 037d 0E       		.uleb128 0xe
 745 037e 73323900 		.ascii	"s29\000"
 746 0382 08       		.byte	0x8
 747 0383 1B01     		.2byte	0x11b
 748 0385 AE020000 		.4byte	0x2ae
 749 0389 34       		.byte	0x34
 750 038a 0E       		.uleb128 0xe
 751 038b 73333000 		.ascii	"s30\000"
 752 038f 08       		.byte	0x8
 753 0390 1C01     		.2byte	0x11c
 754 0392 AE020000 		.4byte	0x2ae
 755 0396 38       		.byte	0x38
 756 0397 0E       		.uleb128 0xe
 757 0398 73333100 		.ascii	"s31\000"
 758 039c 08       		.byte	0x8
 759 039d 1D01     		.2byte	0x11d
 760 039f AE020000 		.4byte	0x2ae
 761 03a3 3C       		.byte	0x3c
 762 03a4 0E       		.uleb128 0xe
 763 03a5 723400   		.ascii	"r4\000"
 764 03a8 08       		.byte	0x8
 765 03a9 1F01     		.2byte	0x11f
 766 03ab AE020000 		.4byte	0x2ae
 767 03af 40       		.byte	0x40
 768 03b0 0E       		.uleb128 0xe
 769 03b1 723500   		.ascii	"r5\000"
 770 03b4 08       		.byte	0x8
 771 03b5 2001     		.2byte	0x120
 772 03b7 AE020000 		.4byte	0x2ae
 773 03bb 44       		.byte	0x44
 774 03bc 0E       		.uleb128 0xe
 775 03bd 723600   		.ascii	"r6\000"
 776 03c0 08       		.byte	0x8
 777 03c1 2101     		.2byte	0x121
 778 03c3 AE020000 		.4byte	0x2ae
 779 03c7 48       		.byte	0x48
 780 03c8 0E       		.uleb128 0xe
 781 03c9 723700   		.ascii	"r7\000"
 782 03cc 08       		.byte	0x8
 783 03cd 2201     		.2byte	0x122
 784 03cf AE020000 		.4byte	0x2ae
 785 03d3 4C       		.byte	0x4c
 786 03d4 0E       		.uleb128 0xe
 787 03d5 723800   		.ascii	"r8\000"
 788 03d8 08       		.byte	0x8
 789 03d9 2301     		.2byte	0x123
 790 03db AE020000 		.4byte	0x2ae
 791 03df 50       		.byte	0x50
ARM GAS  /tmp/ccjYnjDA.s 			page 15


 792 03e0 0E       		.uleb128 0xe
 793 03e1 723900   		.ascii	"r9\000"
 794 03e4 08       		.byte	0x8
 795 03e5 2401     		.2byte	0x124
 796 03e7 AE020000 		.4byte	0x2ae
 797 03eb 54       		.byte	0x54
 798 03ec 0E       		.uleb128 0xe
 799 03ed 72313000 		.ascii	"r10\000"
 800 03f1 08       		.byte	0x8
 801 03f2 2501     		.2byte	0x125
 802 03f4 AE020000 		.4byte	0x2ae
 803 03f8 58       		.byte	0x58
 804 03f9 0E       		.uleb128 0xe
 805 03fa 72313100 		.ascii	"r11\000"
 806 03fe 08       		.byte	0x8
 807 03ff 2601     		.2byte	0x126
 808 0401 AE020000 		.4byte	0x2ae
 809 0405 5C       		.byte	0x5c
 810 0406 0E       		.uleb128 0xe
 811 0407 6C7200   		.ascii	"lr\000"
 812 040a 08       		.byte	0x8
 813 040b 2701     		.2byte	0x127
 814 040d AE020000 		.4byte	0x2ae
 815 0411 60       		.byte	0x60
 816 0412 00       		.byte	0
 817 0413 0D       		.uleb128 0xd
 818 0414 F4020000 		.4byte	.LASF54
 819 0418 04       		.byte	0x4
 820 0419 08       		.byte	0x8
 821 041a 3101     		.2byte	0x131
 822 041c 2E040000 		.4byte	0x42e
 823 0420 0E       		.uleb128 0xe
 824 0421 72313300 		.ascii	"r13\000"
 825 0425 08       		.byte	0x8
 826 0426 3201     		.2byte	0x132
 827 0428 2E040000 		.4byte	0x42e
 828 042c 00       		.byte	0
 829 042d 00       		.byte	0
 830 042e 0A       		.uleb128 0xa
 831 042f 04       		.byte	0x4
 832 0430 C7020000 		.4byte	0x2c7
 833 0434 04       		.uleb128 0x4
 834 0435 D0020000 		.4byte	.LASF55
 835 0439 09       		.byte	0x9
 836 043a 58       		.byte	0x58
 837 043b 3F040000 		.4byte	0x43f
 838 043f 0A       		.uleb128 0xa
 839 0440 04       		.byte	0x4
 840 0441 45040000 		.4byte	0x445
 841 0445 0F       		.uleb128 0xf
 842 0446 50040000 		.4byte	0x450
 843 044a 10       		.uleb128 0x10
 844 044b B9020000 		.4byte	0x2b9
 845 044f 00       		.byte	0
 846 0450 04       		.uleb128 0x4
 847 0451 E7020000 		.4byte	.LASF56
 848 0455 09       		.byte	0x9
ARM GAS  /tmp/ccjYnjDA.s 			page 16


 849 0456 5D       		.byte	0x5d
 850 0457 5B040000 		.4byte	0x45b
 851 045b 06       		.uleb128 0x6
 852 045c E7020000 		.4byte	.LASF56
 853 0460 14       		.byte	0x14
 854 0461 09       		.byte	0x9
 855 0462 64       		.byte	0x64
 856 0463 A4040000 		.4byte	0x4a4
 857 0467 07       		.uleb128 0x7
 858 0468 AD020000 		.4byte	.LASF57
 859 046c 09       		.byte	0x9
 860 046d 65       		.byte	0x65
 861 046e A4040000 		.4byte	0x4a4
 862 0472 00       		.byte	0
 863 0473 07       		.uleb128 0x7
 864 0474 7F020000 		.4byte	.LASF58
 865 0478 09       		.byte	0x9
 866 0479 67       		.byte	0x67
 867 047a A4040000 		.4byte	0x4a4
 868 047e 04       		.byte	0x4
 869 047f 07       		.uleb128 0x7
 870 0480 9C030000 		.4byte	.LASF59
 871 0484 09       		.byte	0x9
 872 0485 69       		.byte	0x69
 873 0486 2D010000 		.4byte	0x12d
 874 048a 08       		.byte	0x8
 875 048b 07       		.uleb128 0x7
 876 048c 2B000000 		.4byte	.LASF60
 877 0490 09       		.byte	0x9
 878 0491 6A       		.byte	0x6a
 879 0492 34040000 		.4byte	0x434
 880 0496 0C       		.byte	0xc
 881 0497 07       		.uleb128 0x7
 882 0498 D9050000 		.4byte	.LASF61
 883 049c 09       		.byte	0x9
 884 049d 6C       		.byte	0x6c
 885 049e B9020000 		.4byte	0x2b9
 886 04a2 10       		.byte	0x10
 887 04a3 00       		.byte	0
 888 04a4 0A       		.uleb128 0xa
 889 04a5 04       		.byte	0x4
 890 04a6 50040000 		.4byte	0x450
 891 04aa 09       		.uleb128 0x9
 892 04ab 10       		.byte	0x10
 893 04ac 09       		.byte	0x9
 894 04ad 76       		.byte	0x76
 895 04ae E3040000 		.4byte	0x4e3
 896 04b2 07       		.uleb128 0x7
 897 04b3 AD020000 		.4byte	.LASF57
 898 04b7 09       		.byte	0x9
 899 04b8 77       		.byte	0x77
 900 04b9 A4040000 		.4byte	0x4a4
 901 04bd 00       		.byte	0
 902 04be 07       		.uleb128 0x7
 903 04bf 7F020000 		.4byte	.LASF58
 904 04c3 09       		.byte	0x9
 905 04c4 79       		.byte	0x79
ARM GAS  /tmp/ccjYnjDA.s 			page 17


 906 04c5 A4040000 		.4byte	0x4a4
 907 04c9 04       		.byte	0x4
 908 04ca 07       		.uleb128 0x7
 909 04cb 9C030000 		.4byte	.LASF59
 910 04cf 09       		.byte	0x9
 911 04d0 7B       		.byte	0x7b
 912 04d1 2D010000 		.4byte	0x12d
 913 04d5 08       		.byte	0x8
 914 04d6 07       		.uleb128 0x7
 915 04d7 3F060000 		.4byte	.LASF62
 916 04db 09       		.byte	0x9
 917 04dc 7C       		.byte	0x7c
 918 04dd 38010000 		.4byte	0x138
 919 04e1 0C       		.byte	0xc
 920 04e2 00       		.byte	0
 921 04e3 04       		.uleb128 0x4
 922 04e4 55060000 		.4byte	.LASF63
 923 04e8 09       		.byte	0x9
 924 04e9 7D       		.byte	0x7d
 925 04ea AA040000 		.4byte	0x4aa
 926 04ee 11       		.uleb128 0x11
 927 04ef 54000000 		.4byte	.LASF71
 928 04f3 09       		.byte	0x9
 929 04f4 F5       		.byte	0xf5
 930 04f5 E3040000 		.4byte	0x4e3
 931 04f9 09       		.uleb128 0x9
 932 04fa 1C       		.byte	0x1c
 933 04fb 0A       		.byte	0xa
 934 04fc 5E       		.byte	0x5e
 935 04fd 4A050000 		.4byte	0x54a
 936 0501 07       		.uleb128 0x7
 937 0502 5D050000 		.4byte	.LASF64
 938 0506 0A       		.byte	0xa
 939 0507 5F       		.byte	0x5f
 940 0508 83020000 		.4byte	0x283
 941 050c 00       		.byte	0
 942 050d 07       		.uleb128 0x7
 943 050e EF040000 		.4byte	.LASF65
 944 0512 0A       		.byte	0xa
 945 0513 60       		.byte	0x60
 946 0514 0C010000 		.4byte	0x10c
 947 0518 08       		.byte	0x8
 948 0519 07       		.uleb128 0x7
 949 051a 0D040000 		.4byte	.LASF66
 950 051e 0A       		.byte	0xa
 951 051f 62       		.byte	0x62
 952 0520 13040000 		.4byte	0x413
 953 0524 0C       		.byte	0xc
 954 0525 07       		.uleb128 0x7
 955 0526 22030000 		.4byte	.LASF67
 956 052a 0A       		.byte	0xa
 957 052b 65       		.byte	0x65
 958 052c 7D020000 		.4byte	0x27d
 959 0530 10       		.byte	0x10
 960 0531 07       		.uleb128 0x7
 961 0532 32040000 		.4byte	.LASF68
 962 0536 0A       		.byte	0xa
ARM GAS  /tmp/ccjYnjDA.s 			page 18


 963 0537 66       		.byte	0x66
 964 0538 7D020000 		.4byte	0x27d
 965 053c 14       		.byte	0x14
 966 053d 07       		.uleb128 0x7
 967 053e 28040000 		.4byte	.LASF69
 968 0542 0A       		.byte	0xa
 969 0543 69       		.byte	0x69
 970 0544 7D020000 		.4byte	0x27d
 971 0548 18       		.byte	0x18
 972 0549 00       		.byte	0
 973 054a 04       		.uleb128 0x4
 974 054b 06060000 		.4byte	.LASF70
 975 054f 0A       		.byte	0xa
 976 0550 6B       		.byte	0x6b
 977 0551 F9040000 		.4byte	0x4f9
 978 0555 11       		.uleb128 0x11
 979 0556 23060000 		.4byte	.LASF72
 980 055a 0A       		.byte	0xa
 981 055b 6F       		.byte	0x6f
 982 055c 4A050000 		.4byte	0x54a
 983 0560 06       		.uleb128 0x6
 984 0561 77030000 		.4byte	.LASF73
 985 0565 10       		.byte	0x10
 986 0566 0B       		.byte	0xb
 987 0567 2C       		.byte	0x2c
 988 0568 91050000 		.4byte	0x591
 989 056c 07       		.uleb128 0x7
 990 056d 01020000 		.4byte	.LASF74
 991 0571 0B       		.byte	0xb
 992 0572 2D       		.byte	0x2d
 993 0573 83020000 		.4byte	0x283
 994 0577 00       		.byte	0
 995 0578 07       		.uleb128 0x7
 996 0579 5C060000 		.4byte	.LASF75
 997 057d 0B       		.byte	0xb
 998 057e 2F       		.byte	0x2f
 999 057f 7D020000 		.4byte	0x27d
 1000 0583 08       		.byte	0x8
 1001 0584 07       		.uleb128 0x7
 1002 0585 8D050000 		.4byte	.LASF76
 1003 0589 0B       		.byte	0xb
 1004 058a 31       		.byte	0x31
 1005 058b 91050000 		.4byte	0x591
 1006 058f 0C       		.byte	0xc
 1007 0590 00       		.byte	0
 1008 0591 0A       		.uleb128 0xa
 1009 0592 04       		.byte	0x4
 1010 0593 60050000 		.4byte	0x560
 1011 0597 04       		.uleb128 0x4
 1012 0598 77030000 		.4byte	.LASF73
 1013 059c 0B       		.byte	0xb
 1014 059d 33       		.byte	0x33
 1015 059e 60050000 		.4byte	0x560
 1016 05a2 12       		.uleb128 0x12
 1017 05a3 04       		.byte	0x4
 1018 05a4 07       		.byte	0x7
 1019 05a5 96       		.byte	0x96
ARM GAS  /tmp/ccjYnjDA.s 			page 19


 1020 05a6 D7050000 		.4byte	0x5d7
 1021 05aa 13       		.uleb128 0x13
 1022 05ab F8050000 		.4byte	.LASF77
 1023 05af 07       		.byte	0x7
 1024 05b0 9D       		.byte	0x9d
 1025 05b1 17010000 		.4byte	0x117
 1026 05b5 13       		.uleb128 0x13
 1027 05b6 5A020000 		.4byte	.LASF78
 1028 05ba 07       		.byte	0x7
 1029 05bb A4       		.byte	0xa4
 1030 05bc 17010000 		.4byte	0x117
 1031 05c0 13       		.uleb128 0x13
 1032 05c1 31060000 		.4byte	.LASF79
 1033 05c5 07       		.byte	0x7
 1034 05c6 AB       		.byte	0xab
 1035 05c7 B9020000 		.4byte	0x2b9
 1036 05cb 13       		.uleb128 0x13
 1037 05cc F6040000 		.4byte	.LASF80
 1038 05d0 07       		.byte	0x7
 1039 05d1 B2       		.byte	0xb2
 1040 05d2 22010000 		.4byte	0x122
 1041 05d6 00       		.byte	0
 1042 05d7 0A       		.uleb128 0xa
 1043 05d8 04       		.byte	0x4
 1044 05d9 E4050000 		.4byte	0x5e4
 1045 05dd 03       		.uleb128 0x3
 1046 05de 01       		.byte	0x1
 1047 05df 08       		.byte	0x8
 1048 05e0 65050000 		.4byte	.LASF81
 1049 05e4 14       		.uleb128 0x14
 1050 05e5 DD050000 		.4byte	0x5dd
 1051 05e9 0A       		.uleb128 0xa
 1052 05ea 04       		.byte	0x4
 1053 05eb BB020000 		.4byte	0x2bb
 1054 05ef 0A       		.uleb128 0xa
 1055 05f0 04       		.byte	0x4
 1056 05f1 97050000 		.4byte	0x597
 1057 05f5 09       		.uleb128 0x9
 1058 05f6 16       		.byte	0x16
 1059 05f7 0C       		.byte	0xc
 1060 05f8 2C       		.byte	0x2c
 1061 05f9 D6060000 		.4byte	0x6d6
 1062 05fd 07       		.uleb128 0x7
 1063 05fe D9020000 		.4byte	.LASF82
 1064 0602 0C       		.byte	0xc
 1065 0603 2D       		.byte	0x2d
 1066 0604 D6060000 		.4byte	0x6d6
 1067 0608 00       		.byte	0
 1068 0609 07       		.uleb128 0x7
 1069 060a 88030000 		.4byte	.LASF83
 1070 060e 0C       		.byte	0xc
 1071 060f 2E       		.byte	0x2e
 1072 0610 A2000000 		.4byte	0xa2
 1073 0614 04       		.byte	0x4
 1074 0615 07       		.uleb128 0x7
 1075 0616 20040000 		.4byte	.LASF84
 1076 061a 0C       		.byte	0xc
ARM GAS  /tmp/ccjYnjDA.s 			page 20


 1077 061b 2F       		.byte	0x2f
 1078 061c A2000000 		.4byte	0xa2
 1079 0620 05       		.byte	0x5
 1080 0621 07       		.uleb128 0x7
 1081 0622 4A060000 		.4byte	.LASF85
 1082 0626 0C       		.byte	0xc
 1083 0627 30       		.byte	0x30
 1084 0628 AD000000 		.4byte	0xad
 1085 062c 06       		.byte	0x6
 1086 062d 07       		.uleb128 0x7
 1087 062e 79040000 		.4byte	.LASF86
 1088 0632 0C       		.byte	0xc
 1089 0633 31       		.byte	0x31
 1090 0634 A2000000 		.4byte	0xa2
 1091 0638 08       		.byte	0x8
 1092 0639 07       		.uleb128 0x7
 1093 063a DE030000 		.4byte	.LASF87
 1094 063e 0C       		.byte	0xc
 1095 063f 32       		.byte	0x32
 1096 0640 A2000000 		.4byte	0xa2
 1097 0644 09       		.byte	0x9
 1098 0645 07       		.uleb128 0x7
 1099 0646 46000000 		.4byte	.LASF88
 1100 064a 0C       		.byte	0xc
 1101 064b 33       		.byte	0x33
 1102 064c A2000000 		.4byte	0xa2
 1103 0650 0A       		.byte	0xa
 1104 0651 07       		.uleb128 0x7
 1105 0652 51050000 		.4byte	.LASF89
 1106 0656 0C       		.byte	0xc
 1107 0657 34       		.byte	0x34
 1108 0658 A2000000 		.4byte	0xa2
 1109 065c 0B       		.byte	0xb
 1110 065d 07       		.uleb128 0x7
 1111 065e ED050000 		.4byte	.LASF90
 1112 0662 0C       		.byte	0xc
 1113 0663 35       		.byte	0x35
 1114 0664 A2000000 		.4byte	0xa2
 1115 0668 0C       		.byte	0xc
 1116 0669 07       		.uleb128 0x7
 1117 066a 22050000 		.4byte	.LASF91
 1118 066e 0C       		.byte	0xc
 1119 066f 36       		.byte	0x36
 1120 0670 A2000000 		.4byte	0xa2
 1121 0674 0D       		.byte	0xd
 1122 0675 07       		.uleb128 0x7
 1123 0676 00000000 		.4byte	.LASF92
 1124 067a 0C       		.byte	0xc
 1125 067b 37       		.byte	0x37
 1126 067c A2000000 		.4byte	0xa2
 1127 0680 0E       		.byte	0xe
 1128 0681 07       		.uleb128 0x7
 1129 0682 F9030000 		.4byte	.LASF93
 1130 0686 0C       		.byte	0xc
 1131 0687 38       		.byte	0x38
 1132 0688 A2000000 		.4byte	0xa2
 1133 068c 0F       		.byte	0xf
ARM GAS  /tmp/ccjYnjDA.s 			page 21


 1134 068d 07       		.uleb128 0x7
 1135 068e DC010000 		.4byte	.LASF94
 1136 0692 0C       		.byte	0xc
 1137 0693 39       		.byte	0x39
 1138 0694 A2000000 		.4byte	0xa2
 1139 0698 10       		.byte	0x10
 1140 0699 07       		.uleb128 0x7
 1141 069a AF010000 		.4byte	.LASF95
 1142 069e 0C       		.byte	0xc
 1143 069f 3B       		.byte	0x3b
 1144 06a0 A2000000 		.4byte	0xa2
 1145 06a4 11       		.byte	0x11
 1146 06a5 07       		.uleb128 0x7
 1147 06a6 EC010000 		.4byte	.LASF96
 1148 06aa 0C       		.byte	0xc
 1149 06ab 3C       		.byte	0x3c
 1150 06ac A2000000 		.4byte	0xa2
 1151 06b0 12       		.byte	0x12
 1152 06b1 07       		.uleb128 0x7
 1153 06b2 90030000 		.4byte	.LASF97
 1154 06b6 0C       		.byte	0xc
 1155 06b7 3D       		.byte	0x3d
 1156 06b8 A2000000 		.4byte	0xa2
 1157 06bc 13       		.byte	0x13
 1158 06bd 07       		.uleb128 0x7
 1159 06be 04050000 		.4byte	.LASF98
 1160 06c2 0C       		.byte	0xc
 1161 06c3 3E       		.byte	0x3e
 1162 06c4 A2000000 		.4byte	0xa2
 1163 06c8 14       		.byte	0x14
 1164 06c9 07       		.uleb128 0x7
 1165 06ca E3040000 		.4byte	.LASF99
 1166 06ce 0C       		.byte	0xc
 1167 06cf 40       		.byte	0x40
 1168 06d0 A2000000 		.4byte	0xa2
 1169 06d4 15       		.byte	0x15
 1170 06d5 00       		.byte	0
 1171 06d6 15       		.uleb128 0x15
 1172 06d7 DD050000 		.4byte	0x5dd
 1173 06db E6060000 		.4byte	0x6e6
 1174 06df 16       		.uleb128 0x16
 1175 06e0 2C000000 		.4byte	0x2c
 1176 06e4 03       		.byte	0x3
 1177 06e5 00       		.byte	0
 1178 06e6 04       		.uleb128 0x4
 1179 06e7 38020000 		.4byte	.LASF100
 1180 06eb 0C       		.byte	0xc
 1181 06ec 41       		.byte	0x41
 1182 06ed F5050000 		.4byte	0x5f5
 1183 06f1 14       		.uleb128 0x14
 1184 06f2 E6060000 		.4byte	0x6e6
 1185 06f6 11       		.uleb128 0x11
 1186 06f7 C7020000 		.4byte	.LASF101
 1187 06fb 0C       		.byte	0xc
 1188 06fc 7E       		.byte	0x7e
 1189 06fd F1060000 		.4byte	0x6f1
 1190 0701 09       		.uleb128 0x9
ARM GAS  /tmp/ccjYnjDA.s 			page 22


 1191 0702 10       		.byte	0x10
 1192 0703 0D       		.byte	0xd
 1193 0704 71       		.byte	0x71
 1194 0705 3A070000 		.4byte	0x73a
 1195 0709 07       		.uleb128 0x7
 1196 070a 87020000 		.4byte	.LASF102
 1197 070e 0D       		.byte	0xd
 1198 070f 72       		.byte	0x72
 1199 0710 2D010000 		.4byte	0x12d
 1200 0714 00       		.byte	0
 1201 0715 07       		.uleb128 0x7
 1202 0716 BC010000 		.4byte	.LASF103
 1203 071a 0D       		.byte	0xd
 1204 071b 73       		.byte	0x73
 1205 071c 7D020000 		.4byte	0x27d
 1206 0720 04       		.byte	0x4
 1207 0721 07       		.uleb128 0x7
 1208 0722 64060000 		.4byte	.LASF104
 1209 0726 0D       		.byte	0xd
 1210 0727 74       		.byte	0x74
 1211 0728 B9020000 		.4byte	0x2b9
 1212 072c 08       		.byte	0x8
 1213 072d 07       		.uleb128 0x7
 1214 072e 1A060000 		.4byte	.LASF105
 1215 0732 0D       		.byte	0xd
 1216 0733 75       		.byte	0x75
 1217 0734 A2000000 		.4byte	0xa2
 1218 0738 0C       		.byte	0xc
 1219 0739 00       		.byte	0
 1220 073a 04       		.uleb128 0x4
 1221 073b EA030000 		.4byte	.LASF106
 1222 073f 0D       		.byte	0xd
 1223 0740 76       		.byte	0x76
 1224 0741 01070000 		.4byte	0x701
 1225 0745 17       		.uleb128 0x17
 1226 0746 0804     		.2byte	0x408
 1227 0748 0D       		.byte	0xd
 1228 0749 7B       		.byte	0x7b
 1229 074a 73070000 		.4byte	0x773
 1230 074e 07       		.uleb128 0x7
 1231 074f 63020000 		.4byte	.LASF107
 1232 0753 0D       		.byte	0xd
 1233 0754 7C       		.byte	0x7c
 1234 0755 2C000000 		.4byte	0x2c
 1235 0759 00       		.byte	0
 1236 075a 07       		.uleb128 0x7
 1237 075b A4030000 		.4byte	.LASF108
 1238 075f 0D       		.byte	0xd
 1239 0760 7D       		.byte	0x7d
 1240 0761 73070000 		.4byte	0x773
 1241 0765 04       		.byte	0x4
 1242 0766 07       		.uleb128 0x7
 1243 0767 6F040000 		.4byte	.LASF109
 1244 076b 0D       		.byte	0xd
 1245 076c 7F       		.byte	0x7f
 1246 076d 79070000 		.4byte	0x779
 1247 0771 08       		.byte	0x8
ARM GAS  /tmp/ccjYnjDA.s 			page 23


 1248 0772 00       		.byte	0
 1249 0773 0A       		.uleb128 0xa
 1250 0774 04       		.byte	0x4
 1251 0775 3A070000 		.4byte	0x73a
 1252 0779 15       		.uleb128 0x15
 1253 077a 3A070000 		.4byte	0x73a
 1254 077e 89070000 		.4byte	0x789
 1255 0782 16       		.uleb128 0x16
 1256 0783 2C000000 		.4byte	0x2c
 1257 0787 3F       		.byte	0x3f
 1258 0788 00       		.byte	0
 1259 0789 04       		.uleb128 0x4
 1260 078a 96010000 		.4byte	.LASF110
 1261 078e 0D       		.byte	0xd
 1262 078f 80       		.byte	0x80
 1263 0790 45070000 		.4byte	0x745
 1264 0794 11       		.uleb128 0x11
 1265 0795 56040000 		.4byte	.LASF111
 1266 0799 0D       		.byte	0xd
 1267 079a 83       		.byte	0x83
 1268 079b 89070000 		.4byte	0x789
 1269 079f 11       		.uleb128 0x11
 1270 07a0 53030000 		.4byte	.LASF112
 1271 07a4 0D       		.byte	0xd
 1272 07a5 E2       		.byte	0xe2
 1273 07a6 3D010000 		.4byte	0x13d
 1274 07aa 11       		.uleb128 0x11
 1275 07ab B3050000 		.4byte	.LASF113
 1276 07af 0D       		.byte	0xd
 1277 07b0 E3       		.byte	0xe3
 1278 07b1 3D010000 		.4byte	0x13d
 1279 07b5 11       		.uleb128 0x11
 1280 07b6 AF040000 		.4byte	.LASF114
 1281 07ba 0D       		.byte	0xd
 1282 07bb F5       		.byte	0xf5
 1283 07bc D7050000 		.4byte	0x5d7
 1284 07c0 18       		.uleb128 0x18
 1285 07c1 BB020000 		.4byte	0x2bb
 1286 07c5 08       		.byte	0x8
 1287 07c6 D1070000 		.4byte	0x7d1
 1288 07ca 16       		.uleb128 0x16
 1289 07cb 2C000000 		.4byte	0x2c
 1290 07cf 3A       		.byte	0x3a
 1291 07d0 00       		.byte	0
 1292 07d1 11       		.uleb128 0x11
 1293 07d2 4A020000 		.4byte	.LASF115
 1294 07d6 0E       		.byte	0xe
 1295 07d7 89       		.byte	0x89
 1296 07d8 C0070000 		.4byte	0x7c0
 1297 07dc 19       		.uleb128 0x19
 1298 07dd E0050000 		.4byte	.LASF128
 1299 07e1 01       		.byte	0x1
 1300 07e2 80       		.byte	0x80
 1301 07e3 00000000 		.4byte	.LFB9
 1302 07e7 30000000 		.4byte	.LFE9-.LFB9
 1303 07eb 01       		.uleb128 0x1
 1304 07ec 9C       		.byte	0x9c
ARM GAS  /tmp/ccjYnjDA.s 			page 24


 1305 07ed 52080000 		.4byte	0x852
 1306 07f1 1A       		.uleb128 0x1a
 1307 07f2 747000   		.ascii	"tp\000"
 1308 07f5 01       		.byte	0x1
 1309 07f6 80       		.byte	0x80
 1310 07f7 7D020000 		.4byte	0x27d
 1311 07fb 00000000 		.4byte	.LLST5
 1312 07ff 1A       		.uleb128 0x1a
 1313 0800 6D736700 		.ascii	"msg\000"
 1314 0804 01       		.byte	0x1
 1315 0805 80       		.byte	0x80
 1316 0806 17010000 		.4byte	0x117
 1317 080a 2C000000 		.4byte	.LLST6
 1318 080e 1B       		.uleb128 0x1b
 1319 080f 0C000000 		.4byte	.LVL21
 1320 0813 C1090000 		.4byte	0x9c1
 1321 0817 1C       		.uleb128 0x1c
 1322 0818 1A000000 		.4byte	.LVL22
 1323 081c CC090000 		.4byte	0x9cc
 1324 0820 2E080000 		.4byte	0x82e
 1325 0824 1D       		.uleb128 0x1d
 1326 0825 01       		.uleb128 0x1
 1327 0826 50       		.byte	0x50
 1328 0827 05       		.uleb128 0x5
 1329 0828 03       		.byte	0x3
 1330 0829 00000000 		.4byte	.LC1
 1331 082d 00       		.byte	0
 1332 082e 1C       		.uleb128 0x1c
 1333 082f 22000000 		.4byte	.LVL23
 1334 0833 D7090000 		.4byte	0x9d7
 1335 0837 48080000 		.4byte	0x848
 1336 083b 1D       		.uleb128 0x1d
 1337 083c 01       		.uleb128 0x1
 1338 083d 50       		.byte	0x50
 1339 083e 02       		.uleb128 0x2
 1340 083f 74       		.byte	0x74
 1341 0840 00       		.sleb128 0
 1342 0841 1D       		.uleb128 0x1d
 1343 0842 01       		.uleb128 0x1
 1344 0843 51       		.byte	0x51
 1345 0844 02       		.uleb128 0x2
 1346 0845 75       		.byte	0x75
 1347 0846 00       		.sleb128 0
 1348 0847 00       		.byte	0
 1349 0848 1B       		.uleb128 0x1b
 1350 0849 26000000 		.4byte	.LVL24
 1351 084d E2090000 		.4byte	0x9e2
 1352 0851 00       		.byte	0
 1353 0852 1E       		.uleb128 0x1e
 1354 0853 10060000 		.4byte	.LASF116
 1355 0857 01       		.byte	0x1
 1356 0858 6A       		.byte	0x6a
 1357 0859 7D020000 		.4byte	0x27d
 1358 085d 00000000 		.4byte	.LFB8
 1359 0861 40000000 		.4byte	.LFE8-.LFB8
 1360 0865 01       		.uleb128 0x1
 1361 0866 9C       		.byte	0x9c
ARM GAS  /tmp/ccjYnjDA.s 			page 25


 1362 0867 BB080000 		.4byte	0x8bb
 1363 086b 1F       		.uleb128 0x1f
 1364 086c 747000   		.ascii	"tp\000"
 1365 086f 01       		.byte	0x1
 1366 0870 6B       		.byte	0x6b
 1367 0871 7D020000 		.4byte	0x27d
 1368 0875 20       		.uleb128 0x20
 1369 0876 73090000 		.4byte	0x973
 1370 087a 16000000 		.4byte	.LBB10
 1371 087e 18000000 		.4byte	.Ldebug_ranges0+0x18
 1372 0882 01       		.byte	0x1
 1373 0883 70       		.byte	0x70
 1374 0884 99080000 		.4byte	0x899
 1375 0888 21       		.uleb128 0x21
 1376 0889 83090000 		.4byte	0x983
 1377 088d 22       		.uleb128 0x22
 1378 088e 18000000 		.4byte	.Ldebug_ranges0+0x18
 1379 0892 23       		.uleb128 0x23
 1380 0893 8E090000 		.4byte	0x98e
 1381 0897 00       		.byte	0
 1382 0898 00       		.byte	0
 1383 0899 1B       		.uleb128 0x1b
 1384 089a 0A000000 		.4byte	.LVL14
 1385 089e C1090000 		.4byte	0x9c1
 1386 08a2 1B       		.uleb128 0x1b
 1387 08a3 26000000 		.4byte	.LVL18
 1388 08a7 E2090000 		.4byte	0x9e2
 1389 08ab 24       		.uleb128 0x24
 1390 08ac 32000000 		.4byte	.LVL19
 1391 08b0 ED090000 		.4byte	0x9ed
 1392 08b4 1D       		.uleb128 0x1d
 1393 08b5 01       		.uleb128 0x1
 1394 08b6 50       		.byte	0x50
 1395 08b7 01       		.uleb128 0x1
 1396 08b8 3C       		.byte	0x3c
 1397 08b9 00       		.byte	0
 1398 08ba 00       		.byte	0
 1399 08bb 1E       		.uleb128 0x1e
 1400 08bc 1C020000 		.4byte	.LASF117
 1401 08c0 01       		.byte	0x1
 1402 08c1 4B       		.byte	0x4b
 1403 08c2 17010000 		.4byte	0x117
 1404 08c6 00000000 		.4byte	.LFB7
 1405 08ca 58000000 		.4byte	.LFE7-.LFB7
 1406 08ce 01       		.uleb128 0x1
 1407 08cf 9C       		.byte	0x9c
 1408 08d0 73090000 		.4byte	0x973
 1409 08d4 1A       		.uleb128 0x1a
 1410 08d5 747000   		.ascii	"tp\000"
 1411 08d8 01       		.byte	0x1
 1412 08d9 4B       		.byte	0x4b
 1413 08da 7D020000 		.4byte	0x27d
 1414 08de 58000000 		.4byte	.LLST0
 1415 08e2 1A       		.uleb128 0x1a
 1416 08e3 6D736700 		.ascii	"msg\000"
 1417 08e7 01       		.byte	0x1
 1418 08e8 4B       		.byte	0x4b
ARM GAS  /tmp/ccjYnjDA.s 			page 26


 1419 08e9 17010000 		.4byte	0x117
 1420 08ed 8C000000 		.4byte	.LLST1
 1421 08f1 25       		.uleb128 0x25
 1422 08f2 63747000 		.ascii	"ctp\000"
 1423 08f6 01       		.byte	0x1
 1424 08f7 4C       		.byte	0x4c
 1425 08f8 7D020000 		.4byte	0x27d
 1426 08fc D6000000 		.4byte	.LLST2
 1427 0900 20       		.uleb128 0x20
 1428 0901 9F090000 		.4byte	0x99f
 1429 0905 12000000 		.4byte	.LBB6
 1430 0909 00000000 		.4byte	.Ldebug_ranges0+0
 1431 090d 01       		.byte	0x1
 1432 090e 53       		.byte	0x53
 1433 090f 26090000 		.4byte	0x926
 1434 0913 26       		.uleb128 0x26
 1435 0914 B5090000 		.4byte	0x9b5
 1436 0918 F4000000 		.4byte	.LLST3
 1437 091c 26       		.uleb128 0x26
 1438 091d AB090000 		.4byte	0x9ab
 1439 0921 07010000 		.4byte	.LLST4
 1440 0925 00       		.byte	0
 1441 0926 1B       		.uleb128 0x1b
 1442 0927 12000000 		.4byte	.LVL3
 1443 092b C1090000 		.4byte	0x9c1
 1444 092f 1C       		.uleb128 0x1c
 1445 0930 32000000 		.4byte	.LVL6
 1446 0934 ED090000 		.4byte	0x9ed
 1447 0938 42090000 		.4byte	0x942
 1448 093c 1D       		.uleb128 0x1d
 1449 093d 01       		.uleb128 0x1
 1450 093e 50       		.byte	0x50
 1451 093f 01       		.uleb128 0x1
 1452 0940 3A       		.byte	0x3a
 1453 0941 00       		.byte	0
 1454 0942 1B       		.uleb128 0x1b
 1455 0943 38000000 		.4byte	.LVL8
 1456 0947 E2090000 		.4byte	0x9e2
 1457 094b 1C       		.uleb128 0x1c
 1458 094c 44000000 		.4byte	.LVL10
 1459 0950 F8090000 		.4byte	0x9f8
 1460 0954 5F090000 		.4byte	0x95f
 1461 0958 1D       		.uleb128 0x1d
 1462 0959 01       		.uleb128 0x1
 1463 095a 50       		.byte	0x50
 1464 095b 02       		.uleb128 0x2
 1465 095c 75       		.byte	0x75
 1466 095d 00       		.sleb128 0
 1467 095e 00       		.byte	0
 1468 095f 24       		.uleb128 0x24
 1469 0960 4C000000 		.4byte	.LVL13
 1470 0964 CC090000 		.4byte	0x9cc
 1471 0968 1D       		.uleb128 0x1d
 1472 0969 01       		.uleb128 0x1
 1473 096a 50       		.byte	0x50
 1474 096b 05       		.uleb128 0x5
 1475 096c 03       		.byte	0x3
ARM GAS  /tmp/ccjYnjDA.s 			page 27


 1476 096d 00000000 		.4byte	.LC0
 1477 0971 00       		.byte	0
 1478 0972 00       		.byte	0
 1479 0973 27       		.uleb128 0x27
 1480 0974 6A050000 		.4byte	.LASF129
 1481 0978 02       		.byte	0x2
 1482 0979 3B       		.byte	0x3b
 1483 097a 7D020000 		.4byte	0x27d
 1484 097e 03       		.byte	0x3
 1485 097f 99090000 		.4byte	0x999
 1486 0983 28       		.uleb128 0x28
 1487 0984 74717000 		.ascii	"tqp\000"
 1488 0988 02       		.byte	0x2
 1489 0989 3B       		.byte	0x3b
 1490 098a 99090000 		.4byte	0x999
 1491 098e 1F       		.uleb128 0x1f
 1492 098f 747000   		.ascii	"tp\000"
 1493 0992 02       		.byte	0x2
 1494 0993 3C       		.byte	0x3c
 1495 0994 7D020000 		.4byte	0x27d
 1496 0998 00       		.byte	0
 1497 0999 0A       		.uleb128 0xa
 1498 099a 04       		.byte	0x4
 1499 099b 83020000 		.4byte	0x283
 1500 099f 29       		.uleb128 0x29
 1501 09a0 13000000 		.4byte	.LASF130
 1502 09a4 02       		.byte	0x2
 1503 09a5 34       		.byte	0x34
 1504 09a6 03       		.byte	0x3
 1505 09a7 C1090000 		.4byte	0x9c1
 1506 09ab 28       		.uleb128 0x28
 1507 09ac 747000   		.ascii	"tp\000"
 1508 09af 02       		.byte	0x2
 1509 09b0 34       		.byte	0x34
 1510 09b1 7D020000 		.4byte	0x27d
 1511 09b5 28       		.uleb128 0x28
 1512 09b6 74717000 		.ascii	"tqp\000"
 1513 09ba 02       		.byte	0x2
 1514 09bb 34       		.byte	0x34
 1515 09bc 99090000 		.4byte	0x999
 1516 09c0 00       		.byte	0
 1517 09c1 2A       		.uleb128 0x2a
 1518 09c2 CF030000 		.4byte	.LASF118
 1519 09c6 CF030000 		.4byte	.LASF118
 1520 09ca 0D       		.byte	0xd
 1521 09cb E7       		.byte	0xe7
 1522 09cc 2A       		.uleb128 0x2a
 1523 09cd 20000000 		.4byte	.LASF119
 1524 09d1 20000000 		.4byte	.LASF119
 1525 09d5 0D       		.byte	0xd
 1526 09d6 F6       		.byte	0xf6
 1527 09d7 2A       		.uleb128 0x2a
 1528 09d8 0F030000 		.4byte	.LASF120
 1529 09dc 0F030000 		.4byte	.LASF120
 1530 09e0 0A       		.byte	0xa
 1531 09e1 99       		.byte	0x99
 1532 09e2 2A       		.uleb128 0x2a
ARM GAS  /tmp/ccjYnjDA.s 			page 28


 1533 09e3 3A040000 		.4byte	.LASF121
 1534 09e7 3A040000 		.4byte	.LASF121
 1535 09eb 0D       		.byte	0xd
 1536 09ec E8       		.byte	0xe8
 1537 09ed 2A       		.uleb128 0x2a
 1538 09ee 2F050000 		.4byte	.LASF122
 1539 09f2 2F050000 		.4byte	.LASF122
 1540 09f6 0A       		.byte	0xa
 1541 09f7 93       		.byte	0x93
 1542 09f8 2A       		.uleb128 0x2a
 1543 09f9 81050000 		.4byte	.LASF123
 1544 09fd 81050000 		.4byte	.LASF123
 1545 0a01 0A       		.byte	0xa
 1546 0a02 90       		.byte	0x90
 1547 0a03 00       		.byte	0
 1548              		.section	.debug_abbrev,"",%progbits
 1549              	.Ldebug_abbrev0:
 1550 0000 01       		.uleb128 0x1
 1551 0001 11       		.uleb128 0x11
 1552 0002 01       		.byte	0x1
 1553 0003 25       		.uleb128 0x25
 1554 0004 0E       		.uleb128 0xe
 1555 0005 13       		.uleb128 0x13
 1556 0006 0B       		.uleb128 0xb
 1557 0007 03       		.uleb128 0x3
 1558 0008 0E       		.uleb128 0xe
 1559 0009 1B       		.uleb128 0x1b
 1560 000a 0E       		.uleb128 0xe
 1561 000b 55       		.uleb128 0x55
 1562 000c 17       		.uleb128 0x17
 1563 000d 11       		.uleb128 0x11
 1564 000e 01       		.uleb128 0x1
 1565 000f 10       		.uleb128 0x10
 1566 0010 17       		.uleb128 0x17
 1567 0011 00       		.byte	0
 1568 0012 00       		.byte	0
 1569 0013 02       		.uleb128 0x2
 1570 0014 24       		.uleb128 0x24
 1571 0015 00       		.byte	0
 1572 0016 0B       		.uleb128 0xb
 1573 0017 0B       		.uleb128 0xb
 1574 0018 3E       		.uleb128 0x3e
 1575 0019 0B       		.uleb128 0xb
 1576 001a 03       		.uleb128 0x3
 1577 001b 08       		.uleb128 0x8
 1578 001c 00       		.byte	0
 1579 001d 00       		.byte	0
 1580 001e 03       		.uleb128 0x3
 1581 001f 24       		.uleb128 0x24
 1582 0020 00       		.byte	0
 1583 0021 0B       		.uleb128 0xb
 1584 0022 0B       		.uleb128 0xb
 1585 0023 3E       		.uleb128 0x3e
 1586 0024 0B       		.uleb128 0xb
 1587 0025 03       		.uleb128 0x3
 1588 0026 0E       		.uleb128 0xe
 1589 0027 00       		.byte	0
ARM GAS  /tmp/ccjYnjDA.s 			page 29


 1590 0028 00       		.byte	0
 1591 0029 04       		.uleb128 0x4
 1592 002a 16       		.uleb128 0x16
 1593 002b 00       		.byte	0
 1594 002c 03       		.uleb128 0x3
 1595 002d 0E       		.uleb128 0xe
 1596 002e 3A       		.uleb128 0x3a
 1597 002f 0B       		.uleb128 0xb
 1598 0030 3B       		.uleb128 0x3b
 1599 0031 0B       		.uleb128 0xb
 1600 0032 49       		.uleb128 0x49
 1601 0033 13       		.uleb128 0x13
 1602 0034 00       		.byte	0
 1603 0035 00       		.byte	0
 1604 0036 05       		.uleb128 0x5
 1605 0037 35       		.uleb128 0x35
 1606 0038 00       		.byte	0
 1607 0039 49       		.uleb128 0x49
 1608 003a 13       		.uleb128 0x13
 1609 003b 00       		.byte	0
 1610 003c 00       		.byte	0
 1611 003d 06       		.uleb128 0x6
 1612 003e 13       		.uleb128 0x13
 1613 003f 01       		.byte	0x1
 1614 0040 03       		.uleb128 0x3
 1615 0041 0E       		.uleb128 0xe
 1616 0042 0B       		.uleb128 0xb
 1617 0043 0B       		.uleb128 0xb
 1618 0044 3A       		.uleb128 0x3a
 1619 0045 0B       		.uleb128 0xb
 1620 0046 3B       		.uleb128 0x3b
 1621 0047 0B       		.uleb128 0xb
 1622 0048 01       		.uleb128 0x1
 1623 0049 13       		.uleb128 0x13
 1624 004a 00       		.byte	0
 1625 004b 00       		.byte	0
 1626 004c 07       		.uleb128 0x7
 1627 004d 0D       		.uleb128 0xd
 1628 004e 00       		.byte	0
 1629 004f 03       		.uleb128 0x3
 1630 0050 0E       		.uleb128 0xe
 1631 0051 3A       		.uleb128 0x3a
 1632 0052 0B       		.uleb128 0xb
 1633 0053 3B       		.uleb128 0x3b
 1634 0054 0B       		.uleb128 0xb
 1635 0055 49       		.uleb128 0x49
 1636 0056 13       		.uleb128 0x13
 1637 0057 38       		.uleb128 0x38
 1638 0058 0B       		.uleb128 0xb
 1639 0059 00       		.byte	0
 1640 005a 00       		.byte	0
 1641 005b 08       		.uleb128 0x8
 1642 005c 0D       		.uleb128 0xd
 1643 005d 00       		.byte	0
 1644 005e 03       		.uleb128 0x3
 1645 005f 08       		.uleb128 0x8
 1646 0060 3A       		.uleb128 0x3a
ARM GAS  /tmp/ccjYnjDA.s 			page 30


 1647 0061 0B       		.uleb128 0xb
 1648 0062 3B       		.uleb128 0x3b
 1649 0063 0B       		.uleb128 0xb
 1650 0064 49       		.uleb128 0x49
 1651 0065 13       		.uleb128 0x13
 1652 0066 38       		.uleb128 0x38
 1653 0067 0B       		.uleb128 0xb
 1654 0068 00       		.byte	0
 1655 0069 00       		.byte	0
 1656 006a 09       		.uleb128 0x9
 1657 006b 13       		.uleb128 0x13
 1658 006c 01       		.byte	0x1
 1659 006d 0B       		.uleb128 0xb
 1660 006e 0B       		.uleb128 0xb
 1661 006f 3A       		.uleb128 0x3a
 1662 0070 0B       		.uleb128 0xb
 1663 0071 3B       		.uleb128 0x3b
 1664 0072 0B       		.uleb128 0xb
 1665 0073 01       		.uleb128 0x1
 1666 0074 13       		.uleb128 0x13
 1667 0075 00       		.byte	0
 1668 0076 00       		.byte	0
 1669 0077 0A       		.uleb128 0xa
 1670 0078 0F       		.uleb128 0xf
 1671 0079 00       		.byte	0
 1672 007a 0B       		.uleb128 0xb
 1673 007b 0B       		.uleb128 0xb
 1674 007c 49       		.uleb128 0x49
 1675 007d 13       		.uleb128 0x13
 1676 007e 00       		.byte	0
 1677 007f 00       		.byte	0
 1678 0080 0B       		.uleb128 0xb
 1679 0081 0F       		.uleb128 0xf
 1680 0082 00       		.byte	0
 1681 0083 0B       		.uleb128 0xb
 1682 0084 0B       		.uleb128 0xb
 1683 0085 00       		.byte	0
 1684 0086 00       		.byte	0
 1685 0087 0C       		.uleb128 0xc
 1686 0088 16       		.uleb128 0x16
 1687 0089 00       		.byte	0
 1688 008a 03       		.uleb128 0x3
 1689 008b 0E       		.uleb128 0xe
 1690 008c 3A       		.uleb128 0x3a
 1691 008d 0B       		.uleb128 0xb
 1692 008e 3B       		.uleb128 0x3b
 1693 008f 0B       		.uleb128 0xb
 1694 0090 49       		.uleb128 0x49
 1695 0091 13       		.uleb128 0x13
 1696 0092 8801     		.uleb128 0x88
 1697 0094 0B       		.uleb128 0xb
 1698 0095 00       		.byte	0
 1699 0096 00       		.byte	0
 1700 0097 0D       		.uleb128 0xd
 1701 0098 13       		.uleb128 0x13
 1702 0099 01       		.byte	0x1
 1703 009a 03       		.uleb128 0x3
ARM GAS  /tmp/ccjYnjDA.s 			page 31


 1704 009b 0E       		.uleb128 0xe
 1705 009c 0B       		.uleb128 0xb
 1706 009d 0B       		.uleb128 0xb
 1707 009e 3A       		.uleb128 0x3a
 1708 009f 0B       		.uleb128 0xb
 1709 00a0 3B       		.uleb128 0x3b
 1710 00a1 05       		.uleb128 0x5
 1711 00a2 01       		.uleb128 0x1
 1712 00a3 13       		.uleb128 0x13
 1713 00a4 00       		.byte	0
 1714 00a5 00       		.byte	0
 1715 00a6 0E       		.uleb128 0xe
 1716 00a7 0D       		.uleb128 0xd
 1717 00a8 00       		.byte	0
 1718 00a9 03       		.uleb128 0x3
 1719 00aa 08       		.uleb128 0x8
 1720 00ab 3A       		.uleb128 0x3a
 1721 00ac 0B       		.uleb128 0xb
 1722 00ad 3B       		.uleb128 0x3b
 1723 00ae 05       		.uleb128 0x5
 1724 00af 49       		.uleb128 0x49
 1725 00b0 13       		.uleb128 0x13
 1726 00b1 38       		.uleb128 0x38
 1727 00b2 0B       		.uleb128 0xb
 1728 00b3 00       		.byte	0
 1729 00b4 00       		.byte	0
 1730 00b5 0F       		.uleb128 0xf
 1731 00b6 15       		.uleb128 0x15
 1732 00b7 01       		.byte	0x1
 1733 00b8 27       		.uleb128 0x27
 1734 00b9 19       		.uleb128 0x19
 1735 00ba 01       		.uleb128 0x1
 1736 00bb 13       		.uleb128 0x13
 1737 00bc 00       		.byte	0
 1738 00bd 00       		.byte	0
 1739 00be 10       		.uleb128 0x10
 1740 00bf 05       		.uleb128 0x5
 1741 00c0 00       		.byte	0
 1742 00c1 49       		.uleb128 0x49
 1743 00c2 13       		.uleb128 0x13
 1744 00c3 00       		.byte	0
 1745 00c4 00       		.byte	0
 1746 00c5 11       		.uleb128 0x11
 1747 00c6 34       		.uleb128 0x34
 1748 00c7 00       		.byte	0
 1749 00c8 03       		.uleb128 0x3
 1750 00c9 0E       		.uleb128 0xe
 1751 00ca 3A       		.uleb128 0x3a
 1752 00cb 0B       		.uleb128 0xb
 1753 00cc 3B       		.uleb128 0x3b
 1754 00cd 0B       		.uleb128 0xb
 1755 00ce 49       		.uleb128 0x49
 1756 00cf 13       		.uleb128 0x13
 1757 00d0 3F       		.uleb128 0x3f
 1758 00d1 19       		.uleb128 0x19
 1759 00d2 3C       		.uleb128 0x3c
 1760 00d3 19       		.uleb128 0x19
ARM GAS  /tmp/ccjYnjDA.s 			page 32


 1761 00d4 00       		.byte	0
 1762 00d5 00       		.byte	0
 1763 00d6 12       		.uleb128 0x12
 1764 00d7 17       		.uleb128 0x17
 1765 00d8 01       		.byte	0x1
 1766 00d9 0B       		.uleb128 0xb
 1767 00da 0B       		.uleb128 0xb
 1768 00db 3A       		.uleb128 0x3a
 1769 00dc 0B       		.uleb128 0xb
 1770 00dd 3B       		.uleb128 0x3b
 1771 00de 0B       		.uleb128 0xb
 1772 00df 01       		.uleb128 0x1
 1773 00e0 13       		.uleb128 0x13
 1774 00e1 00       		.byte	0
 1775 00e2 00       		.byte	0
 1776 00e3 13       		.uleb128 0x13
 1777 00e4 0D       		.uleb128 0xd
 1778 00e5 00       		.byte	0
 1779 00e6 03       		.uleb128 0x3
 1780 00e7 0E       		.uleb128 0xe
 1781 00e8 3A       		.uleb128 0x3a
 1782 00e9 0B       		.uleb128 0xb
 1783 00ea 3B       		.uleb128 0x3b
 1784 00eb 0B       		.uleb128 0xb
 1785 00ec 49       		.uleb128 0x49
 1786 00ed 13       		.uleb128 0x13
 1787 00ee 00       		.byte	0
 1788 00ef 00       		.byte	0
 1789 00f0 14       		.uleb128 0x14
 1790 00f1 26       		.uleb128 0x26
 1791 00f2 00       		.byte	0
 1792 00f3 49       		.uleb128 0x49
 1793 00f4 13       		.uleb128 0x13
 1794 00f5 00       		.byte	0
 1795 00f6 00       		.byte	0
 1796 00f7 15       		.uleb128 0x15
 1797 00f8 01       		.uleb128 0x1
 1798 00f9 01       		.byte	0x1
 1799 00fa 49       		.uleb128 0x49
 1800 00fb 13       		.uleb128 0x13
 1801 00fc 01       		.uleb128 0x1
 1802 00fd 13       		.uleb128 0x13
 1803 00fe 00       		.byte	0
 1804 00ff 00       		.byte	0
 1805 0100 16       		.uleb128 0x16
 1806 0101 21       		.uleb128 0x21
 1807 0102 00       		.byte	0
 1808 0103 49       		.uleb128 0x49
 1809 0104 13       		.uleb128 0x13
 1810 0105 2F       		.uleb128 0x2f
 1811 0106 0B       		.uleb128 0xb
 1812 0107 00       		.byte	0
 1813 0108 00       		.byte	0
 1814 0109 17       		.uleb128 0x17
 1815 010a 13       		.uleb128 0x13
 1816 010b 01       		.byte	0x1
 1817 010c 0B       		.uleb128 0xb
ARM GAS  /tmp/ccjYnjDA.s 			page 33


 1818 010d 05       		.uleb128 0x5
 1819 010e 3A       		.uleb128 0x3a
 1820 010f 0B       		.uleb128 0xb
 1821 0110 3B       		.uleb128 0x3b
 1822 0111 0B       		.uleb128 0xb
 1823 0112 01       		.uleb128 0x1
 1824 0113 13       		.uleb128 0x13
 1825 0114 00       		.byte	0
 1826 0115 00       		.byte	0
 1827 0116 18       		.uleb128 0x18
 1828 0117 01       		.uleb128 0x1
 1829 0118 01       		.byte	0x1
 1830 0119 49       		.uleb128 0x49
 1831 011a 13       		.uleb128 0x13
 1832 011b 8801     		.uleb128 0x88
 1833 011d 0B       		.uleb128 0xb
 1834 011e 01       		.uleb128 0x1
 1835 011f 13       		.uleb128 0x13
 1836 0120 00       		.byte	0
 1837 0121 00       		.byte	0
 1838 0122 19       		.uleb128 0x19
 1839 0123 2E       		.uleb128 0x2e
 1840 0124 01       		.byte	0x1
 1841 0125 3F       		.uleb128 0x3f
 1842 0126 19       		.uleb128 0x19
 1843 0127 03       		.uleb128 0x3
 1844 0128 0E       		.uleb128 0xe
 1845 0129 3A       		.uleb128 0x3a
 1846 012a 0B       		.uleb128 0xb
 1847 012b 3B       		.uleb128 0x3b
 1848 012c 0B       		.uleb128 0xb
 1849 012d 27       		.uleb128 0x27
 1850 012e 19       		.uleb128 0x19
 1851 012f 11       		.uleb128 0x11
 1852 0130 01       		.uleb128 0x1
 1853 0131 12       		.uleb128 0x12
 1854 0132 06       		.uleb128 0x6
 1855 0133 40       		.uleb128 0x40
 1856 0134 18       		.uleb128 0x18
 1857 0135 9742     		.uleb128 0x2117
 1858 0137 19       		.uleb128 0x19
 1859 0138 01       		.uleb128 0x1
 1860 0139 13       		.uleb128 0x13
 1861 013a 00       		.byte	0
 1862 013b 00       		.byte	0
 1863 013c 1A       		.uleb128 0x1a
 1864 013d 05       		.uleb128 0x5
 1865 013e 00       		.byte	0
 1866 013f 03       		.uleb128 0x3
 1867 0140 08       		.uleb128 0x8
 1868 0141 3A       		.uleb128 0x3a
 1869 0142 0B       		.uleb128 0xb
 1870 0143 3B       		.uleb128 0x3b
 1871 0144 0B       		.uleb128 0xb
 1872 0145 49       		.uleb128 0x49
 1873 0146 13       		.uleb128 0x13
 1874 0147 02       		.uleb128 0x2
ARM GAS  /tmp/ccjYnjDA.s 			page 34


 1875 0148 17       		.uleb128 0x17
 1876 0149 00       		.byte	0
 1877 014a 00       		.byte	0
 1878 014b 1B       		.uleb128 0x1b
 1879 014c 898201   		.uleb128 0x4109
 1880 014f 00       		.byte	0
 1881 0150 11       		.uleb128 0x11
 1882 0151 01       		.uleb128 0x1
 1883 0152 31       		.uleb128 0x31
 1884 0153 13       		.uleb128 0x13
 1885 0154 00       		.byte	0
 1886 0155 00       		.byte	0
 1887 0156 1C       		.uleb128 0x1c
 1888 0157 898201   		.uleb128 0x4109
 1889 015a 01       		.byte	0x1
 1890 015b 11       		.uleb128 0x11
 1891 015c 01       		.uleb128 0x1
 1892 015d 31       		.uleb128 0x31
 1893 015e 13       		.uleb128 0x13
 1894 015f 01       		.uleb128 0x1
 1895 0160 13       		.uleb128 0x13
 1896 0161 00       		.byte	0
 1897 0162 00       		.byte	0
 1898 0163 1D       		.uleb128 0x1d
 1899 0164 8A8201   		.uleb128 0x410a
 1900 0167 00       		.byte	0
 1901 0168 02       		.uleb128 0x2
 1902 0169 18       		.uleb128 0x18
 1903 016a 9142     		.uleb128 0x2111
 1904 016c 18       		.uleb128 0x18
 1905 016d 00       		.byte	0
 1906 016e 00       		.byte	0
 1907 016f 1E       		.uleb128 0x1e
 1908 0170 2E       		.uleb128 0x2e
 1909 0171 01       		.byte	0x1
 1910 0172 3F       		.uleb128 0x3f
 1911 0173 19       		.uleb128 0x19
 1912 0174 03       		.uleb128 0x3
 1913 0175 0E       		.uleb128 0xe
 1914 0176 3A       		.uleb128 0x3a
 1915 0177 0B       		.uleb128 0xb
 1916 0178 3B       		.uleb128 0x3b
 1917 0179 0B       		.uleb128 0xb
 1918 017a 27       		.uleb128 0x27
 1919 017b 19       		.uleb128 0x19
 1920 017c 49       		.uleb128 0x49
 1921 017d 13       		.uleb128 0x13
 1922 017e 11       		.uleb128 0x11
 1923 017f 01       		.uleb128 0x1
 1924 0180 12       		.uleb128 0x12
 1925 0181 06       		.uleb128 0x6
 1926 0182 40       		.uleb128 0x40
 1927 0183 18       		.uleb128 0x18
 1928 0184 9742     		.uleb128 0x2117
 1929 0186 19       		.uleb128 0x19
 1930 0187 01       		.uleb128 0x1
 1931 0188 13       		.uleb128 0x13
ARM GAS  /tmp/ccjYnjDA.s 			page 35


 1932 0189 00       		.byte	0
 1933 018a 00       		.byte	0
 1934 018b 1F       		.uleb128 0x1f
 1935 018c 34       		.uleb128 0x34
 1936 018d 00       		.byte	0
 1937 018e 03       		.uleb128 0x3
 1938 018f 08       		.uleb128 0x8
 1939 0190 3A       		.uleb128 0x3a
 1940 0191 0B       		.uleb128 0xb
 1941 0192 3B       		.uleb128 0x3b
 1942 0193 0B       		.uleb128 0xb
 1943 0194 49       		.uleb128 0x49
 1944 0195 13       		.uleb128 0x13
 1945 0196 00       		.byte	0
 1946 0197 00       		.byte	0
 1947 0198 20       		.uleb128 0x20
 1948 0199 1D       		.uleb128 0x1d
 1949 019a 01       		.byte	0x1
 1950 019b 31       		.uleb128 0x31
 1951 019c 13       		.uleb128 0x13
 1952 019d 52       		.uleb128 0x52
 1953 019e 01       		.uleb128 0x1
 1954 019f 55       		.uleb128 0x55
 1955 01a0 17       		.uleb128 0x17
 1956 01a1 58       		.uleb128 0x58
 1957 01a2 0B       		.uleb128 0xb
 1958 01a3 59       		.uleb128 0x59
 1959 01a4 0B       		.uleb128 0xb
 1960 01a5 01       		.uleb128 0x1
 1961 01a6 13       		.uleb128 0x13
 1962 01a7 00       		.byte	0
 1963 01a8 00       		.byte	0
 1964 01a9 21       		.uleb128 0x21
 1965 01aa 05       		.uleb128 0x5
 1966 01ab 00       		.byte	0
 1967 01ac 31       		.uleb128 0x31
 1968 01ad 13       		.uleb128 0x13
 1969 01ae 00       		.byte	0
 1970 01af 00       		.byte	0
 1971 01b0 22       		.uleb128 0x22
 1972 01b1 0B       		.uleb128 0xb
 1973 01b2 01       		.byte	0x1
 1974 01b3 55       		.uleb128 0x55
 1975 01b4 17       		.uleb128 0x17
 1976 01b5 00       		.byte	0
 1977 01b6 00       		.byte	0
 1978 01b7 23       		.uleb128 0x23
 1979 01b8 34       		.uleb128 0x34
 1980 01b9 00       		.byte	0
 1981 01ba 31       		.uleb128 0x31
 1982 01bb 13       		.uleb128 0x13
 1983 01bc 00       		.byte	0
 1984 01bd 00       		.byte	0
 1985 01be 24       		.uleb128 0x24
 1986 01bf 898201   		.uleb128 0x4109
 1987 01c2 01       		.byte	0x1
 1988 01c3 11       		.uleb128 0x11
ARM GAS  /tmp/ccjYnjDA.s 			page 36


 1989 01c4 01       		.uleb128 0x1
 1990 01c5 31       		.uleb128 0x31
 1991 01c6 13       		.uleb128 0x13
 1992 01c7 00       		.byte	0
 1993 01c8 00       		.byte	0
 1994 01c9 25       		.uleb128 0x25
 1995 01ca 34       		.uleb128 0x34
 1996 01cb 00       		.byte	0
 1997 01cc 03       		.uleb128 0x3
 1998 01cd 08       		.uleb128 0x8
 1999 01ce 3A       		.uleb128 0x3a
 2000 01cf 0B       		.uleb128 0xb
 2001 01d0 3B       		.uleb128 0x3b
 2002 01d1 0B       		.uleb128 0xb
 2003 01d2 49       		.uleb128 0x49
 2004 01d3 13       		.uleb128 0x13
 2005 01d4 02       		.uleb128 0x2
 2006 01d5 17       		.uleb128 0x17
 2007 01d6 00       		.byte	0
 2008 01d7 00       		.byte	0
 2009 01d8 26       		.uleb128 0x26
 2010 01d9 05       		.uleb128 0x5
 2011 01da 00       		.byte	0
 2012 01db 31       		.uleb128 0x31
 2013 01dc 13       		.uleb128 0x13
 2014 01dd 02       		.uleb128 0x2
 2015 01de 17       		.uleb128 0x17
 2016 01df 00       		.byte	0
 2017 01e0 00       		.byte	0
 2018 01e1 27       		.uleb128 0x27
 2019 01e2 2E       		.uleb128 0x2e
 2020 01e3 01       		.byte	0x1
 2021 01e4 03       		.uleb128 0x3
 2022 01e5 0E       		.uleb128 0xe
 2023 01e6 3A       		.uleb128 0x3a
 2024 01e7 0B       		.uleb128 0xb
 2025 01e8 3B       		.uleb128 0x3b
 2026 01e9 0B       		.uleb128 0xb
 2027 01ea 27       		.uleb128 0x27
 2028 01eb 19       		.uleb128 0x19
 2029 01ec 49       		.uleb128 0x49
 2030 01ed 13       		.uleb128 0x13
 2031 01ee 20       		.uleb128 0x20
 2032 01ef 0B       		.uleb128 0xb
 2033 01f0 01       		.uleb128 0x1
 2034 01f1 13       		.uleb128 0x13
 2035 01f2 00       		.byte	0
 2036 01f3 00       		.byte	0
 2037 01f4 28       		.uleb128 0x28
 2038 01f5 05       		.uleb128 0x5
 2039 01f6 00       		.byte	0
 2040 01f7 03       		.uleb128 0x3
 2041 01f8 08       		.uleb128 0x8
 2042 01f9 3A       		.uleb128 0x3a
 2043 01fa 0B       		.uleb128 0xb
 2044 01fb 3B       		.uleb128 0x3b
 2045 01fc 0B       		.uleb128 0xb
ARM GAS  /tmp/ccjYnjDA.s 			page 37


 2046 01fd 49       		.uleb128 0x49
 2047 01fe 13       		.uleb128 0x13
 2048 01ff 00       		.byte	0
 2049 0200 00       		.byte	0
 2050 0201 29       		.uleb128 0x29
 2051 0202 2E       		.uleb128 0x2e
 2052 0203 01       		.byte	0x1
 2053 0204 03       		.uleb128 0x3
 2054 0205 0E       		.uleb128 0xe
 2055 0206 3A       		.uleb128 0x3a
 2056 0207 0B       		.uleb128 0xb
 2057 0208 3B       		.uleb128 0x3b
 2058 0209 0B       		.uleb128 0xb
 2059 020a 27       		.uleb128 0x27
 2060 020b 19       		.uleb128 0x19
 2061 020c 20       		.uleb128 0x20
 2062 020d 0B       		.uleb128 0xb
 2063 020e 01       		.uleb128 0x1
 2064 020f 13       		.uleb128 0x13
 2065 0210 00       		.byte	0
 2066 0211 00       		.byte	0
 2067 0212 2A       		.uleb128 0x2a
 2068 0213 2E       		.uleb128 0x2e
 2069 0214 00       		.byte	0
 2070 0215 3F       		.uleb128 0x3f
 2071 0216 19       		.uleb128 0x19
 2072 0217 3C       		.uleb128 0x3c
 2073 0218 19       		.uleb128 0x19
 2074 0219 6E       		.uleb128 0x6e
 2075 021a 0E       		.uleb128 0xe
 2076 021b 03       		.uleb128 0x3
 2077 021c 0E       		.uleb128 0xe
 2078 021d 3A       		.uleb128 0x3a
 2079 021e 0B       		.uleb128 0xb
 2080 021f 3B       		.uleb128 0x3b
 2081 0220 0B       		.uleb128 0xb
 2082 0221 00       		.byte	0
 2083 0222 00       		.byte	0
 2084 0223 00       		.byte	0
 2085              		.section	.debug_loc,"",%progbits
 2086              	.Ldebug_loc0:
 2087              	.LLST5:
 2088 0000 00000000 		.4byte	.LVL20
 2089 0004 0B000000 		.4byte	.LVL21-1
 2090 0008 0100     		.2byte	0x1
 2091 000a 50       		.byte	0x50
 2092 000b 0B000000 		.4byte	.LVL21-1
 2093 000f 2A000000 		.4byte	.LVL25
 2094 0013 0100     		.2byte	0x1
 2095 0015 54       		.byte	0x54
 2096 0016 2A000000 		.4byte	.LVL25
 2097 001a 30000000 		.4byte	.LFE9
 2098 001e 0400     		.2byte	0x4
 2099 0020 F3       		.byte	0xf3
 2100 0021 01       		.uleb128 0x1
 2101 0022 50       		.byte	0x50
 2102 0023 9F       		.byte	0x9f
ARM GAS  /tmp/ccjYnjDA.s 			page 38


 2103 0024 00000000 		.4byte	0
 2104 0028 00000000 		.4byte	0
 2105              	.LLST6:
 2106 002c 00000000 		.4byte	.LVL20
 2107 0030 0B000000 		.4byte	.LVL21-1
 2108 0034 0100     		.2byte	0x1
 2109 0036 51       		.byte	0x51
 2110 0037 0B000000 		.4byte	.LVL21-1
 2111 003b 2A000000 		.4byte	.LVL25
 2112 003f 0100     		.2byte	0x1
 2113 0041 55       		.byte	0x55
 2114 0042 2A000000 		.4byte	.LVL25
 2115 0046 30000000 		.4byte	.LFE9
 2116 004a 0400     		.2byte	0x4
 2117 004c F3       		.byte	0xf3
 2118 004d 01       		.uleb128 0x1
 2119 004e 51       		.byte	0x51
 2120 004f 9F       		.byte	0x9f
 2121 0050 00000000 		.4byte	0
 2122 0054 00000000 		.4byte	0
 2123              	.LLST0:
 2124 0058 00000000 		.4byte	.LVL0
 2125 005c 0C000000 		.4byte	.LVL2
 2126 0060 0100     		.2byte	0x1
 2127 0062 50       		.byte	0x50
 2128 0063 0C000000 		.4byte	.LVL2
 2129 0067 46000000 		.4byte	.LVL11
 2130 006b 0100     		.2byte	0x1
 2131 006d 55       		.byte	0x55
 2132 006e 46000000 		.4byte	.LVL11
 2133 0072 48000000 		.4byte	.LVL12
 2134 0076 0100     		.2byte	0x1
 2135 0078 50       		.byte	0x50
 2136 0079 48000000 		.4byte	.LVL12
 2137 007d 58000000 		.4byte	.LFE7
 2138 0081 0100     		.2byte	0x1
 2139 0083 55       		.byte	0x55
 2140 0084 00000000 		.4byte	0
 2141 0088 00000000 		.4byte	0
 2142              	.LLST1:
 2143 008c 00000000 		.4byte	.LVL0
 2144 0090 0C000000 		.4byte	.LVL2
 2145 0094 0100     		.2byte	0x1
 2146 0096 51       		.byte	0x51
 2147 0097 0C000000 		.4byte	.LVL2
 2148 009b 34000000 		.4byte	.LVL7
 2149 009f 0100     		.2byte	0x1
 2150 00a1 56       		.byte	0x56
 2151 00a2 34000000 		.4byte	.LVL7
 2152 00a6 3E000000 		.4byte	.LVL9
 2153 00aa 0100     		.2byte	0x1
 2154 00ac 54       		.byte	0x54
 2155 00ad 3E000000 		.4byte	.LVL9
 2156 00b1 46000000 		.4byte	.LVL11
 2157 00b5 0100     		.2byte	0x1
 2158 00b7 56       		.byte	0x56
 2159 00b8 46000000 		.4byte	.LVL11
ARM GAS  /tmp/ccjYnjDA.s 			page 39


 2160 00bc 4B000000 		.4byte	.LVL13-1
 2161 00c0 0100     		.2byte	0x1
 2162 00c2 51       		.byte	0x51
 2163 00c3 4B000000 		.4byte	.LVL13-1
 2164 00c7 58000000 		.4byte	.LFE7
 2165 00cb 0100     		.2byte	0x1
 2166 00cd 56       		.byte	0x56
 2167 00ce 00000000 		.4byte	0
 2168 00d2 00000000 		.4byte	0
 2169              	.LLST2:
 2170 00d6 08000000 		.4byte	.LVL1
 2171 00da 34000000 		.4byte	.LVL7
 2172 00de 0100     		.2byte	0x1
 2173 00e0 54       		.byte	0x54
 2174 00e1 3E000000 		.4byte	.LVL9
 2175 00e5 58000000 		.4byte	.LFE7
 2176 00e9 0100     		.2byte	0x1
 2177 00eb 54       		.byte	0x54
 2178 00ec 00000000 		.4byte	0
 2179 00f0 00000000 		.4byte	0
 2180              	.LLST3:
 2181 00f4 1E000000 		.4byte	.LVL4
 2182 00f8 24000000 		.4byte	.LVL5
 2183 00fc 0100     		.2byte	0x1
 2184 00fe 52       		.byte	0x52
 2185 00ff 00000000 		.4byte	0
 2186 0103 00000000 		.4byte	0
 2187              	.LLST4:
 2188 0107 1E000000 		.4byte	.LVL4
 2189 010b 24000000 		.4byte	.LVL5
 2190 010f 0100     		.2byte	0x1
 2191 0111 54       		.byte	0x54
 2192 0112 00000000 		.4byte	0
 2193 0116 00000000 		.4byte	0
 2194              		.section	.debug_aranges,"",%progbits
 2195 0000 2C000000 		.4byte	0x2c
 2196 0004 0200     		.2byte	0x2
 2197 0006 00000000 		.4byte	.Ldebug_info0
 2198 000a 04       		.byte	0x4
 2199 000b 00       		.byte	0
 2200 000c 0000     		.2byte	0
 2201 000e 0000     		.2byte	0
 2202 0010 00000000 		.4byte	.LFB7
 2203 0014 58000000 		.4byte	.LFE7-.LFB7
 2204 0018 00000000 		.4byte	.LFB8
 2205 001c 40000000 		.4byte	.LFE8-.LFB8
 2206 0020 00000000 		.4byte	.LFB9
 2207 0024 30000000 		.4byte	.LFE9-.LFB9
 2208 0028 00000000 		.4byte	0
 2209 002c 00000000 		.4byte	0
 2210              		.section	.debug_ranges,"",%progbits
 2211              	.Ldebug_ranges0:
 2212 0000 12000000 		.4byte	.LBB6
 2213 0004 16000000 		.4byte	.LBE6
 2214 0008 1E000000 		.4byte	.LBB9
 2215 000c 24000000 		.4byte	.LBE9
 2216 0010 00000000 		.4byte	0
ARM GAS  /tmp/ccjYnjDA.s 			page 40


 2217 0014 00000000 		.4byte	0
 2218 0018 16000000 		.4byte	.LBB10
 2219 001c 1A000000 		.4byte	.LBE10
 2220 0020 1C000000 		.4byte	.LBB13
 2221 0024 1E000000 		.4byte	.LBE13
 2222 0028 00000000 		.4byte	0
 2223 002c 00000000 		.4byte	0
 2224 0030 00000000 		.4byte	.LFB7
 2225 0034 58000000 		.4byte	.LFE7
 2226 0038 00000000 		.4byte	.LFB8
 2227 003c 40000000 		.4byte	.LFE8
 2228 0040 00000000 		.4byte	.LFB9
 2229 0044 30000000 		.4byte	.LFE9
 2230 0048 00000000 		.4byte	0
 2231 004c 00000000 		.4byte	0
 2232              		.section	.debug_line,"",%progbits
 2233              	.Ldebug_line0:
 2234 0000 F3010000 		.section	.debug_str,"MS",%progbits,1
 2234      02006C01 
 2234      00000201 
 2234      FB0E0D00 
 2234      01010101 
 2235              	.LASF92:
 2236 0000 63665F6F 		.ascii	"cf_off_older\000"
 2236      66665F6F 
 2236      6C646572 
 2236      00
 2237              	.LASF45:
 2238 000d 705F6D73 		.ascii	"p_msg\000"
 2238      6700
 2239              	.LASF130:
 2240 0013 71756575 		.ascii	"queue_insert\000"
 2240      655F696E 
 2240      73657274 
 2240      00
 2241              	.LASF119:
 2242 0020 63684462 		.ascii	"chDbgPanic\000"
 2242      6750616E 
 2242      696300
 2243              	.LASF60:
 2244 002b 76745F66 		.ascii	"vt_func\000"
 2244      756E6300 
 2245              	.LASF18:
 2246 0033 75696E74 		.ascii	"uint64_t\000"
 2246      36345F74 
 2246      00
 2247              	.LASF4:
 2248 003c 5F5F7569 		.ascii	"__uint8_t\000"
 2248      6E74385F 
 2248      7400
 2249              	.LASF88:
 2250 0046 63685F74 		.ascii	"ch_threadsize\000"
 2250      68726561 
 2250      6473697A 
 2250      6500
 2251              	.LASF71:
 2252 0054 76746C69 		.ascii	"vtlist\000"
ARM GAS  /tmp/ccjYnjDA.s 			page 41


 2252      737400
 2253              	.LASF124:
 2254 005b 474E5520 		.ascii	"GNU C99 7.3.1 20180622 (release) [ARM/embedded-7-br"
 2254      43393920 
 2254      372E332E 
 2254      31203230 
 2254      31383036 
 2255 008e 616E6368 		.ascii	"anch revision 261907] -mcpu=cortex-m4 -mfloat-abi=h"
 2255      20726576 
 2255      6973696F 
 2255      6E203236 
 2255      31393037 
 2256 00c1 61726420 		.ascii	"ard -mfpu=fpv4-sp-d16 -mno-thumb-interwork -mthumb "
 2256      2D6D6670 
 2256      753D6670 
 2256      76342D73 
 2256      702D6431 
 2257 00f4 2D676764 		.ascii	"-ggdb -O2 -std=gnu99 -fomit-frame-pointer -falign-f"
 2257      62202D4F 
 2257      32202D73 
 2257      74643D67 
 2257      6E753939 
 2258 0127 756E6374 		.ascii	"unctions=16 -ffunction-sections -fdata-sections -fn"
 2258      696F6E73 
 2258      3D313620 
 2258      2D666675 
 2258      6E637469 
 2259 015a 6F2D636F 		.ascii	"o-common -fsingle-precision-constant\000"
 2259      6D6D6F6E 
 2259      202D6673 
 2259      696E676C 
 2259      652D7072 
 2260              	.LASF13:
 2261 017f 6C6F6E67 		.ascii	"long long unsigned int\000"
 2261      206C6F6E 
 2261      6720756E 
 2261      7369676E 
 2261      65642069 
 2262              	.LASF110:
 2263 0196 63685F74 		.ascii	"ch_trace_buffer_t\000"
 2263      72616365 
 2263      5F627566 
 2263      6665725F 
 2263      7400
 2264              	.LASF32:
 2265 01a8 705F7072 		.ascii	"p_prio\000"
 2265      696F00
 2266              	.LASF95:
 2267 01af 63665F6F 		.ascii	"cf_off_state\000"
 2267      66665F73 
 2267      74617465 
 2267      00
 2268              	.LASF103:
 2269 01bc 73655F74 		.ascii	"se_tp\000"
 2269      7000
 2270              	.LASF11:
 2271 01c2 6C6F6E67 		.ascii	"long long int\000"
ARM GAS  /tmp/ccjYnjDA.s 			page 42


 2271      206C6F6E 
 2271      6720696E 
 2271      7400
 2272              	.LASF1:
 2273 01d0 7369676E 		.ascii	"signed char\000"
 2273      65642063 
 2273      68617200 
 2274              	.LASF94:
 2275 01dc 63665F6F 		.ascii	"cf_off_stklimit\000"
 2275      66665F73 
 2275      746B6C69 
 2275      6D697400 
 2276              	.LASF96:
 2277 01ec 63665F6F 		.ascii	"cf_off_flags\000"
 2277      66665F66 
 2277      6C616773 
 2277      00
 2278              	.LASF49:
 2279 01f9 705F6D70 		.ascii	"p_mpool\000"
 2279      6F6F6C00 
 2280              	.LASF74:
 2281 0201 6D5F7175 		.ascii	"m_queue\000"
 2281      65756500 
 2282              	.LASF23:
 2283 0209 74736C69 		.ascii	"tslices_t\000"
 2283      6365735F 
 2283      7400
 2284              	.LASF8:
 2285 0213 6C6F6E67 		.ascii	"long int\000"
 2285      20696E74 
 2285      00
 2286              	.LASF117:
 2287 021c 63684D73 		.ascii	"chMsgSend\000"
 2287      6753656E 
 2287      6400
 2288              	.LASF21:
 2289 0226 74737461 		.ascii	"tstate_t\000"
 2289      74655F74 
 2289      00
 2290              	.LASF15:
 2291 022f 75696E74 		.ascii	"uint16_t\000"
 2291      31365F74 
 2291      00
 2292              	.LASF100:
 2293 0238 63686465 		.ascii	"chdebug_t\000"
 2293      6275675F 
 2293      7400
 2294              	.LASF34:
 2295 0242 705F6E65 		.ascii	"p_newer\000"
 2295      77657200 
 2296              	.LASF115:
 2297 024a 5F69646C 		.ascii	"_idle_thread_wa\000"
 2297      655F7468 
 2297      72656164 
 2297      5F776100 
 2298              	.LASF78:
 2299 025a 65786974 		.ascii	"exitcode\000"
ARM GAS  /tmp/ccjYnjDA.s 			page 43


 2299      636F6465 
 2299      00
 2300              	.LASF107:
 2301 0263 74625F73 		.ascii	"tb_size\000"
 2301      697A6500 
 2302              	.LASF9:
 2303 026b 5F5F7569 		.ascii	"__uint32_t\000"
 2303      6E743332 
 2303      5F7400
 2304              	.LASF52:
 2305 0276 72656761 		.ascii	"regarm_t\000"
 2305      726D5F74 
 2305      00
 2306              	.LASF58:
 2307 027f 76745F70 		.ascii	"vt_prev\000"
 2307      72657600 
 2308              	.LASF102:
 2309 0287 73655F74 		.ascii	"se_time\000"
 2309      696D6500 
 2310              	.LASF28:
 2311 028f 636E745F 		.ascii	"cnt_t\000"
 2311      7400
 2312              	.LASF37:
 2313 0295 705F7374 		.ascii	"p_stklimit\000"
 2313      6B6C696D 
 2313      697400
 2314              	.LASF0:
 2315 02a0 756E7369 		.ascii	"unsigned int\000"
 2315      676E6564 
 2315      20696E74 
 2315      00
 2316              	.LASF57:
 2317 02ad 76745F6E 		.ascii	"vt_next\000"
 2317      65787400 
 2318              	.LASF10:
 2319 02b5 6C6F6E67 		.ascii	"long unsigned int\000"
 2319      20756E73 
 2319      69676E65 
 2319      6420696E 
 2319      7400
 2320              	.LASF101:
 2321 02c7 63685F64 		.ascii	"ch_debug\000"
 2321      65627567 
 2321      00
 2322              	.LASF55:
 2323 02d0 76746675 		.ascii	"vtfunc_t\000"
 2323      6E635F74 
 2323      00
 2324              	.LASF82:
 2325 02d9 63685F69 		.ascii	"ch_identifier\000"
 2325      64656E74 
 2325      69666965 
 2325      7200
 2326              	.LASF56:
 2327 02e7 56697274 		.ascii	"VirtualTimer\000"
 2327      75616C54 
 2327      696D6572 
ARM GAS  /tmp/ccjYnjDA.s 			page 44


 2327      00
 2328              	.LASF54:
 2329 02f4 636F6E74 		.ascii	"context\000"
 2329      65787400 
 2330              	.LASF6:
 2331 02fc 73686F72 		.ascii	"short unsigned int\000"
 2331      7420756E 
 2331      7369676E 
 2331      65642069 
 2331      6E7400
 2332              	.LASF120:
 2333 030f 63685363 		.ascii	"chSchWakeupS\000"
 2333      6857616B 
 2333      65757053 
 2333      00
 2334              	.LASF25:
 2335 031c 6D73675F 		.ascii	"msg_t\000"
 2335      7400
 2336              	.LASF67:
 2337 0322 725F6E65 		.ascii	"r_newer\000"
 2337      77657200 
 2338              	.LASF126:
 2339 032a 2F686F6D 		.ascii	"/home/renan/BLDC/bldc-bootloader\000"
 2339      652F7265 
 2339      6E616E2F 
 2339      424C4443 
 2339      2F626C64 
 2340              	.LASF20:
 2341 034b 746D6F64 		.ascii	"tmode_t\000"
 2341      655F7400 
 2342              	.LASF112:
 2343 0353 6462675F 		.ascii	"dbg_isr_cnt\000"
 2343      6973725F 
 2343      636E7400 
 2344              	.LASF51:
 2345 035f 54687265 		.ascii	"ThreadsList\000"
 2345      6164734C 
 2345      69737400 
 2346              	.LASF26:
 2347 036b 6576656E 		.ascii	"eventmask_t\000"
 2347      746D6173 
 2347      6B5F7400 
 2348              	.LASF73:
 2349 0377 4D757465 		.ascii	"Mutex\000"
 2349      7800
 2350              	.LASF127:
 2351 037d 73746B61 		.ascii	"stkalign_t\000"
 2351      6C69676E 
 2351      5F7400
 2352              	.LASF83:
 2353 0388 63685F7A 		.ascii	"ch_zero\000"
 2353      65726F00 
 2354              	.LASF97:
 2355 0390 63665F6F 		.ascii	"cf_off_refs\000"
 2355      66665F72 
 2355      65667300 
 2356              	.LASF59:
ARM GAS  /tmp/ccjYnjDA.s 			page 45


 2357 039c 76745F74 		.ascii	"vt_time\000"
 2357      696D6500 
 2358              	.LASF108:
 2359 03a4 74625F70 		.ascii	"tb_ptr\000"
 2359      747200
 2360              	.LASF125:
 2361 03ab 43686962 		.ascii	"ChibiOS_2.6.6/os/kernel/src/chmsg.c\000"
 2361      694F535F 
 2361      322E362E 
 2361      362F6F73 
 2361      2F6B6572 
 2362              	.LASF118:
 2363 03cf 6462675F 		.ascii	"dbg_check_lock\000"
 2363      63686563 
 2363      6B5F6C6F 
 2363      636B00
 2364              	.LASF87:
 2365 03de 63685F74 		.ascii	"ch_timesize\000"
 2365      696D6573 
 2365      697A6500 
 2366              	.LASF106:
 2367 03ea 63685F73 		.ascii	"ch_swc_event_t\000"
 2367      77635F65 
 2367      76656E74 
 2367      5F7400
 2368              	.LASF93:
 2369 03f9 63665F6F 		.ascii	"cf_off_name\000"
 2369      66665F6E 
 2369      616D6500 
 2370              	.LASF35:
 2371 0405 705F6F6C 		.ascii	"p_older\000"
 2371      64657200 
 2372              	.LASF66:
 2373 040d 725F6374 		.ascii	"r_ctx\000"
 2373      7800
 2374              	.LASF50:
 2375 0413 54687265 		.ascii	"ThreadsQueue\000"
 2375      61647351 
 2375      75657565 
 2375      00
 2376              	.LASF84:
 2377 0420 63685F73 		.ascii	"ch_size\000"
 2377      697A6500 
 2378              	.LASF69:
 2379 0428 725F6375 		.ascii	"r_current\000"
 2379      7272656E 
 2379      7400
 2380              	.LASF68:
 2381 0432 725F6F6C 		.ascii	"r_older\000"
 2381      64657200 
 2382              	.LASF121:
 2383 043a 6462675F 		.ascii	"dbg_check_unlock\000"
 2383      63686563 
 2383      6B5F756E 
 2383      6C6F636B 
 2383      00
 2384              	.LASF12:
ARM GAS  /tmp/ccjYnjDA.s 			page 46


 2385 044b 5F5F7569 		.ascii	"__uint64_t\000"
 2385      6E743634 
 2385      5F7400
 2386              	.LASF111:
 2387 0456 6462675F 		.ascii	"dbg_trace_buffer\000"
 2387      74726163 
 2387      655F6275 
 2387      66666572 
 2387      00
 2388              	.LASF22:
 2389 0467 74726566 		.ascii	"trefs_t\000"
 2389      735F7400 
 2390              	.LASF109:
 2391 046f 74625F62 		.ascii	"tb_buffer\000"
 2391      75666665 
 2391      7200
 2392              	.LASF86:
 2393 0479 63685F70 		.ascii	"ch_ptrsize\000"
 2393      74727369 
 2393      7A6500
 2394              	.LASF31:
 2395 0484 705F7072 		.ascii	"p_prev\000"
 2395      657600
 2396              	.LASF24:
 2397 048b 74707269 		.ascii	"tprio_t\000"
 2397      6F5F7400 
 2398              	.LASF19:
 2399 0493 5F426F6F 		.ascii	"_Bool\000"
 2399      6C00
 2400              	.LASF16:
 2401 0499 696E7433 		.ascii	"int32_t\000"
 2401      325F7400 
 2402              	.LASF2:
 2403 04a1 756E7369 		.ascii	"unsigned char\000"
 2403      676E6564 
 2403      20636861 
 2403      7200
 2404              	.LASF114:
 2405 04af 6462675F 		.ascii	"dbg_panic_msg\000"
 2405      70616E69 
 2405      635F6D73 
 2405      6700
 2406              	.LASF47:
 2407 04bd 705F6D74 		.ascii	"p_mtxlist\000"
 2407      786C6973 
 2407      7400
 2408              	.LASF3:
 2409 04c7 73686F72 		.ascii	"short int\000"
 2409      7420696E 
 2409      7400
 2410              	.LASF38:
 2411 04d1 705F7374 		.ascii	"p_state\000"
 2411      61746500 
 2412              	.LASF41:
 2413 04d9 705F7072 		.ascii	"p_preempt\000"
 2413      65656D70 
 2413      7400
ARM GAS  /tmp/ccjYnjDA.s 			page 47


 2414              	.LASF99:
 2415 04e3 63665F6F 		.ascii	"cf_off_time\000"
 2415      66665F74 
 2415      696D6500 
 2416              	.LASF65:
 2417 04ef 725F7072 		.ascii	"r_prio\000"
 2417      696F00
 2418              	.LASF80:
 2419 04f6 65776D61 		.ascii	"ewmask\000"
 2419      736B00
 2420              	.LASF30:
 2421 04fd 705F6E65 		.ascii	"p_next\000"
 2421      787400
 2422              	.LASF98:
 2423 0504 63665F6F 		.ascii	"cf_off_preempt\000"
 2423      66665F70 
 2423      7265656D 
 2423      707400
 2424              	.LASF39:
 2425 0513 705F666C 		.ascii	"p_flags\000"
 2425      61677300 
 2426              	.LASF29:
 2427 051b 54687265 		.ascii	"Thread\000"
 2427      616400
 2428              	.LASF91:
 2429 0522 63665F6F 		.ascii	"cf_off_newer\000"
 2429      66665F6E 
 2429      65776572 
 2429      00
 2430              	.LASF122:
 2431 052f 63685363 		.ascii	"chSchGoSleepS\000"
 2431      68476F53 
 2431      6C656570 
 2431      5300
 2432              	.LASF46:
 2433 053d 705F6570 		.ascii	"p_epending\000"
 2433      656E6469 
 2433      6E6700
 2434              	.LASF17:
 2435 0548 75696E74 		.ascii	"uint32_t\000"
 2435      33325F74 
 2435      00
 2436              	.LASF89:
 2437 0551 63665F6F 		.ascii	"cf_off_prio\000"
 2437      66665F70 
 2437      72696F00 
 2438              	.LASF64:
 2439 055d 725F7175 		.ascii	"r_queue\000"
 2439      65756500 
 2440              	.LASF81:
 2441 0565 63686172 		.ascii	"char\000"
 2441      00
 2442              	.LASF129:
 2443 056a 6669666F 		.ascii	"fifo_remove\000"
 2443      5F72656D 
 2443      6F766500 
 2444              	.LASF5:
ARM GAS  /tmp/ccjYnjDA.s 			page 48


 2445 0576 5F5F7569 		.ascii	"__uint16_t\000"
 2445      6E743136 
 2445      5F7400
 2446              	.LASF123:
 2447 0581 63685363 		.ascii	"chSchReadyI\000"
 2447      68526561 
 2447      64794900 
 2448              	.LASF76:
 2449 058d 6D5F6E65 		.ascii	"m_next\000"
 2449      787400
 2450              	.LASF27:
 2451 0594 73797374 		.ascii	"systime_t\000"
 2451      696D655F 
 2451      7400
 2452              	.LASF48:
 2453 059e 705F7265 		.ascii	"p_realprio\000"
 2453      616C7072 
 2453      696F00
 2454              	.LASF7:
 2455 05a9 5F5F696E 		.ascii	"__int32_t\000"
 2455      7433325F 
 2455      7400
 2456              	.LASF113:
 2457 05b3 6462675F 		.ascii	"dbg_lock_cnt\000"
 2457      6C6F636B 
 2457      5F636E74 
 2457      00
 2458              	.LASF42:
 2459 05c0 705F7469 		.ascii	"p_time\000"
 2459      6D6500
 2460              	.LASF53:
 2461 05c7 696E7463 		.ascii	"intctx\000"
 2461      747800
 2462              	.LASF44:
 2463 05ce 705F6D73 		.ascii	"p_msgqueue\000"
 2463      67717565 
 2463      756500
 2464              	.LASF61:
 2465 05d9 76745F70 		.ascii	"vt_par\000"
 2465      617200
 2466              	.LASF128:
 2467 05e0 63684D73 		.ascii	"chMsgRelease\000"
 2467      6752656C 
 2467      65617365 
 2467      00
 2468              	.LASF90:
 2469 05ed 63665F6F 		.ascii	"cf_off_ctx\000"
 2469      66665F63 
 2469      747800
 2470              	.LASF77:
 2471 05f8 7264796D 		.ascii	"rdymsg\000"
 2471      736700
 2472              	.LASF40:
 2473 05ff 705F7265 		.ascii	"p_refs\000"
 2473      667300
 2474              	.LASF70:
 2475 0606 52656164 		.ascii	"ReadyList\000"
ARM GAS  /tmp/ccjYnjDA.s 			page 49


 2475      794C6973 
 2475      7400
 2476              	.LASF116:
 2477 0610 63684D73 		.ascii	"chMsgWait\000"
 2477      67576169 
 2477      7400
 2478              	.LASF105:
 2479 061a 73655F73 		.ascii	"se_state\000"
 2479      74617465 
 2479      00
 2480              	.LASF72:
 2481 0623 726C6973 		.ascii	"rlist\000"
 2481      7400
 2482              	.LASF14:
 2483 0629 75696E74 		.ascii	"uint8_t\000"
 2483      385F7400 
 2484              	.LASF79:
 2485 0631 77746F62 		.ascii	"wtobjp\000"
 2485      6A7000
 2486              	.LASF36:
 2487 0638 705F6E61 		.ascii	"p_name\000"
 2487      6D6500
 2488              	.LASF62:
 2489 063f 76745F73 		.ascii	"vt_systime\000"
 2489      79737469 
 2489      6D6500
 2490              	.LASF85:
 2491 064a 63685F76 		.ascii	"ch_version\000"
 2491      65727369 
 2491      6F6E00
 2492              	.LASF63:
 2493 0655 56544C69 		.ascii	"VTList\000"
 2493      737400
 2494              	.LASF75:
 2495 065c 6D5F6F77 		.ascii	"m_owner\000"
 2495      6E657200 
 2496              	.LASF104:
 2497 0664 73655F77 		.ascii	"se_wtobjp\000"
 2497      746F626A 
 2497      7000
 2498              	.LASF33:
 2499 066e 705F6374 		.ascii	"p_ctx\000"
 2499      7800
 2500              	.LASF43:
 2501 0674 705F7761 		.ascii	"p_waiting\000"
 2501      6974696E 
 2501      6700
 2502              		.ident	"GCC: (GNU Tools for Arm Embedded Processors 7-2018-q3-update) 7.3.1 20180622 (release) [AR
ARM GAS  /tmp/ccjYnjDA.s 			page 50


DEFINED SYMBOLS
                            *ABS*:0000000000000000 chmsg.c
     /tmp/ccjYnjDA.s:18     .text.chMsgSend:0000000000000000 $t
     /tmp/ccjYnjDA.s:26     .text.chMsgSend:0000000000000000 chMsgSend
     /tmp/ccjYnjDA.s:129    .text.chMsgSend:0000000000000050 $d
     /tmp/ccjYnjDA.s:135    .text.chMsgWait:0000000000000000 $t
     /tmp/ccjYnjDA.s:143    .text.chMsgWait:0000000000000000 chMsgWait
     /tmp/ccjYnjDA.s:218    .text.chMsgWait:000000000000003c $d
     /tmp/ccjYnjDA.s:223    .text.chMsgRelease:0000000000000000 $t
     /tmp/ccjYnjDA.s:231    .text.chMsgRelease:0000000000000000 chMsgRelease
     /tmp/ccjYnjDA.s:285    .text.chMsgRelease:000000000000002c $d
     /tmp/ccjYnjDA.s:290    .rodata.chMsgRelease.str1.4:0000000000000000 $d
     /tmp/ccjYnjDA.s:294    .rodata.chMsgSend.str1.4:0000000000000000 $d

UNDEFINED SYMBOLS
dbg_check_lock
chSchGoSleepS
dbg_check_unlock
chSchReadyI
chDbgPanic
rlist
chSchWakeupS
