ARM GAS  /tmp/ccATqbby.s 			page 1


   1              		.cpu cortex-m4
   2              		.eabi_attribute 27, 1
   3              		.eabi_attribute 28, 1
   4              		.eabi_attribute 20, 1
   5              		.eabi_attribute 21, 1
   6              		.eabi_attribute 23, 3
   7              		.eabi_attribute 24, 1
   8              		.eabi_attribute 25, 1
   9              		.eabi_attribute 26, 1
  10              		.eabi_attribute 30, 2
  11              		.eabi_attribute 34, 1
  12              		.eabi_attribute 18, 4
  13              		.file	"chqueues.c"
  14              		.text
  15              	.Ltext0:
  16              		.cfi_sections	.debug_frame
  17              		.section	.text.qwait,"ax",%progbits
  18              		.align	1
  19              		.p2align 4,,15
  20              		.syntax unified
  21              		.thumb
  22              		.thumb_func
  23              		.fpu fpv4-sp-d16
  24              		.type	qwait, %function
  25              	qwait:
  26              	.LFB7:
  27              		.file 1 "ChibiOS_2.6.6/os/kernel/src/chqueues.c"
  28              		.loc 1 70 0
  29              		.cfi_startproc
  30              		@ args = 0, pretend = 0, frame = 0
  31              		@ frame_needed = 0, uses_anonymous_args = 0
  32              		@ link register save eliminated.
  33              	.LVL0:
  34              		.loc 1 72 0
  35 0000 71B1     		cbz	r1, .L2
  36              		.loc 1 74 0
  37 0002 094B     		ldr	r3, .L7
  38              		.loc 1 70 0
  39 0004 10B4     		push	{r4}
  40              		.cfi_def_cfa_offset 4
  41              		.cfi_offset 4, -4
  42 0006 0246     		mov	r2, r0
  43              	.LBB12:
  44              	.LBB13:
  45              		.file 2 "ChibiOS_2.6.6/os/kernel/include/chinline.h"
  46              		.loc 2 55 0
  47 0008 4468     		ldr	r4, [r0, #4]
  48              	.LBE13:
  49              	.LBE12:
  50              		.loc 1 74 0
  51 000a 9B69     		ldr	r3, [r3, #24]
  52              		.loc 1 76 0
  53 000c 0D20     		movs	r0, #13
  54              	.LVL1:
  55              	.LBB16:
  56              	.LBB14:
  57              		.loc 2 55 0
ARM GAS  /tmp/ccATqbby.s 			page 2


  58 000e C3E90024 		strd	r2, r4, [r3]
  59              	.LBE14:
  60              	.LBE16:
  61              		.loc 1 74 0
  62 0012 9A62     		str	r2, [r3, #40]
  63              	.LVL2:
  64              	.LBB17:
  65              	.LBB15:
  66              		.loc 2 56 0
  67 0014 5360     		str	r3, [r2, #4]
  68 0016 2360     		str	r3, [r4]
  69              	.LVL3:
  70              	.LBE15:
  71              	.LBE17:
  72              		.loc 1 77 0
  73 0018 5DF8044B 		ldr	r4, [sp], #4
  74              		.cfi_restore 4
  75              		.cfi_def_cfa_offset 0
  76              		.loc 1 76 0
  77 001c FFF7FEBF 		b	chSchGoSleepTimeoutS
  78              	.LVL4:
  79              	.L2:
  80              		.loc 1 77 0
  81 0020 4FF0FF30 		mov	r0, #-1
  82              	.LVL5:
  83 0024 7047     		bx	lr
  84              	.L8:
  85 0026 00BF     		.align	2
  86              	.L7:
  87 0028 00000000 		.word	rlist
  88              		.cfi_endproc
  89              	.LFE7:
  90              		.size	qwait, .-qwait
  91              		.section	.text.chIQInit,"ax",%progbits
  92              		.align	1
  93              		.p2align 4,,15
  94              		.global	chIQInit
  95              		.syntax unified
  96              		.thumb
  97              		.thumb_func
  98              		.fpu fpv4-sp-d16
  99              		.type	chIQInit, %function
 100              	chIQInit:
 101              	.LFB8:
 102              		.loc 1 96 0
 103              		.cfi_startproc
 104              		@ args = 4, pretend = 0, frame = 0
 105              		@ frame_needed = 0, uses_anonymous_args = 0
 106              		@ link register save eliminated.
 107              	.LVL6:
 108 0000 30B4     		push	{r4, r5}
 109              		.cfi_def_cfa_offset 8
 110              		.cfi_offset 4, -8
 111              		.cfi_offset 5, -4
 112              		.loc 1 96 0
 113 0002 029C     		ldr	r4, [sp, #8]
 114              		.loc 1 103 0
ARM GAS  /tmp/ccATqbby.s 			page 3


 115 0004 0462     		str	r4, [r0, #32]
 116              		.loc 1 99 0
 117 0006 0025     		movs	r5, #0
 118              		.loc 1 101 0
 119 0008 0A44     		add	r2, r2, r1
 120              	.LVL7:
 121              		.loc 1 99 0
 122 000a 8560     		str	r5, [r0, #8]
 123              		.loc 1 101 0
 124 000c 0261     		str	r2, [r0, #16]
 125              		.loc 1 98 0
 126 000e C0E90000 		strd	r0, r0, [r0]
 127              		.loc 1 100 0
 128 0012 C0E90511 		strd	r1, r1, [r0, #20]
 129 0016 C160     		str	r1, [r0, #12]
 130              		.loc 1 102 0
 131 0018 C361     		str	r3, [r0, #28]
 132              		.loc 1 104 0
 133 001a 30BC     		pop	{r4, r5}
 134              		.cfi_restore 5
 135              		.cfi_restore 4
 136              		.cfi_def_cfa_offset 0
 137              	.LVL8:
 138 001c 7047     		bx	lr
 139              		.cfi_endproc
 140              	.LFE8:
 141              		.size	chIQInit, .-chIQInit
 142 001e 00BF     		.section	.text.chIQResetI,"ax",%progbits
 143              		.align	1
 144              		.p2align 4,,15
 145              		.global	chIQResetI
 146              		.syntax unified
 147              		.thumb
 148              		.thumb_func
 149              		.fpu fpv4-sp-d16
 150              		.type	chIQResetI, %function
 151              	chIQResetI:
 152              	.LFB9:
 153              		.loc 1 117 0
 154              		.cfi_startproc
 155              		@ args = 0, pretend = 0, frame = 0
 156              		@ frame_needed = 0, uses_anonymous_args = 0
 157              	.LVL9:
 158 0000 38B5     		push	{r3, r4, r5, lr}
 159              		.cfi_def_cfa_offset 16
 160              		.cfi_offset 3, -16
 161              		.cfi_offset 4, -12
 162              		.cfi_offset 5, -8
 163              		.cfi_offset 14, -4
 164              		.loc 1 117 0
 165 0002 0446     		mov	r4, r0
 166              		.loc 1 119 0
 167 0004 FFF7FEFF 		bl	chDbgCheckClassI
 168              	.LVL10:
 169              		.loc 1 123 0
 170 0008 2368     		ldr	r3, [r4]
 171              		.loc 1 121 0
ARM GAS  /tmp/ccATqbby.s 			page 4


 172 000a E268     		ldr	r2, [r4, #12]
 173 000c 6261     		str	r2, [r4, #20]
 174              		.loc 1 122 0
 175 000e 0021     		movs	r1, #0
 176              		.loc 1 123 0
 177 0010 9C42     		cmp	r4, r3
 178              		.loc 1 122 0
 179 0012 A160     		str	r1, [r4, #8]
 180              		.loc 1 121 0
 181 0014 A261     		str	r2, [r4, #24]
 182              		.loc 1 123 0
 183 0016 0BD0     		beq	.L11
 184              		.loc 1 124 0
 185 0018 6FF00105 		mvn	r5, #1
 186              	.L13:
 187              	.LVL11:
 188              	.LBB18:
 189              	.LBB19:
 190              		.loc 2 62 0
 191 001c 1A68     		ldr	r2, [r3]
 192 001e 2260     		str	r2, [r4]
 193              	.LBE19:
 194              	.LBE18:
 195              		.loc 1 124 0
 196 0020 1846     		mov	r0, r3
 197              	.LBB21:
 198              	.LBB20:
 199              		.loc 2 62 0
 200 0022 5460     		str	r4, [r2, #4]
 201              	.LVL12:
 202              	.LBE20:
 203              	.LBE21:
 204              		.loc 1 124 0
 205 0024 FFF7FEFF 		bl	chSchReadyI
 206              	.LVL13:
 207              		.loc 1 123 0
 208 0028 2368     		ldr	r3, [r4]
 209              		.loc 1 124 0
 210 002a 8562     		str	r5, [r0, #40]
 211              		.loc 1 123 0
 212 002c A342     		cmp	r3, r4
 213 002e F5D1     		bne	.L13
 214              	.L11:
 215              		.loc 1 125 0
 216 0030 38BD     		pop	{r3, r4, r5, pc}
 217              		.cfi_endproc
 218              	.LFE9:
 219              		.size	chIQResetI, .-chIQResetI
 220 0032 00BF     		.section	.text.chIQPutI,"ax",%progbits
 221              		.align	1
 222              		.p2align 4,,15
 223              		.global	chIQPutI
 224              		.syntax unified
 225              		.thumb
 226              		.thumb_func
 227              		.fpu fpv4-sp-d16
 228              		.type	chIQPutI, %function
ARM GAS  /tmp/ccATqbby.s 			page 5


 229              	chIQPutI:
 230              	.LFB10:
 231              		.loc 1 140 0
 232              		.cfi_startproc
 233              		@ args = 0, pretend = 0, frame = 0
 234              		@ frame_needed = 0, uses_anonymous_args = 0
 235              	.LVL14:
 236 0000 38B5     		push	{r3, r4, r5, lr}
 237              		.cfi_def_cfa_offset 16
 238              		.cfi_offset 3, -16
 239              		.cfi_offset 4, -12
 240              		.cfi_offset 5, -8
 241              		.cfi_offset 14, -4
 242              		.loc 1 140 0
 243 0002 0446     		mov	r4, r0
 244 0004 0D46     		mov	r5, r1
 245              		.loc 1 142 0
 246 0006 FFF7FEFF 		bl	chDbgCheckClassI
 247              	.LVL15:
 248              		.loc 1 144 0
 249 000a D4E90523 		ldrd	r2, r3, [r4, #20]
 250 000e 9A42     		cmp	r2, r3
 251 0010 A368     		ldr	r3, [r4, #8]
 252 0012 1BD0     		beq	.L25
 253              	.L19:
 254              		.loc 1 147 0
 255 0014 0133     		adds	r3, r3, #1
 256              		.loc 1 148 0
 257 0016 511C     		adds	r1, r2, #1
 258              		.loc 1 147 0
 259 0018 A360     		str	r3, [r4, #8]
 260              		.loc 1 148 0
 261 001a 6161     		str	r1, [r4, #20]
 262 001c 1570     		strb	r5, [r2]
 263              		.loc 1 149 0
 264 001e D4E90432 		ldrd	r3, r2, [r4, #16]
 265 0022 9A42     		cmp	r2, r3
 266 0024 0BD2     		bcs	.L20
 267              		.loc 1 152 0
 268 0026 2068     		ldr	r0, [r4]
 269 0028 A042     		cmp	r0, r4
 270 002a 0DD0     		beq	.L23
 271              	.L26:
 272              	.LVL16:
 273              	.LBB22:
 274              	.LBB23:
 275              		.loc 2 62 0
 276 002c 0368     		ldr	r3, [r0]
 277 002e 2360     		str	r3, [r4]
 278 0030 5C60     		str	r4, [r3, #4]
 279              	.LVL17:
 280              	.LBE23:
 281              	.LBE22:
 282              		.loc 1 153 0
 283 0032 FFF7FEFF 		bl	chSchReadyI
 284              	.LVL18:
 285 0036 0023     		movs	r3, #0
ARM GAS  /tmp/ccATqbby.s 			page 6


 286 0038 8362     		str	r3, [r0, #40]
 287              		.loc 1 155 0
 288 003a 1846     		mov	r0, r3
 289              		.loc 1 156 0
 290 003c 38BD     		pop	{r3, r4, r5, pc}
 291              	.LVL19:
 292              	.L20:
 293              		.loc 1 152 0
 294 003e 2068     		ldr	r0, [r4]
 295              		.loc 1 150 0
 296 0040 E368     		ldr	r3, [r4, #12]
 297 0042 6361     		str	r3, [r4, #20]
 298              		.loc 1 152 0
 299 0044 A042     		cmp	r0, r4
 300 0046 F1D1     		bne	.L26
 301              	.L23:
 302              		.loc 1 155 0
 303 0048 0020     		movs	r0, #0
 304              		.loc 1 156 0
 305 004a 38BD     		pop	{r3, r4, r5, pc}
 306              	.LVL20:
 307              	.L25:
 308              		.loc 1 144 0 discriminator 1
 309 004c 002B     		cmp	r3, #0
 310 004e E1D0     		beq	.L19
 311              		.loc 1 145 0
 312 0050 6FF00300 		mvn	r0, #3
 313              		.loc 1 156 0
 314 0054 38BD     		pop	{r3, r4, r5, pc}
 315              		.cfi_endproc
 316              	.LFE10:
 317              		.size	chIQPutI, .-chIQPutI
 318 0056 00BF     		.section	.text.chIQGetTimeout,"ax",%progbits
 319              		.align	1
 320              		.p2align 4,,15
 321              		.global	chIQGetTimeout
 322              		.syntax unified
 323              		.thumb
 324              		.thumb_func
 325              		.fpu fpv4-sp-d16
 326              		.type	chIQGetTimeout, %function
 327              	chIQGetTimeout:
 328              	.LFB11:
 329              		.loc 1 178 0
 330              		.cfi_startproc
 331              		@ args = 0, pretend = 0, frame = 0
 332              		@ frame_needed = 0, uses_anonymous_args = 0
 333              	.LVL21:
 334 0000 70B5     		push	{r4, r5, r6, lr}
 335              		.cfi_def_cfa_offset 16
 336              		.cfi_offset 4, -16
 337              		.cfi_offset 5, -12
 338              		.cfi_offset 6, -8
 339              		.cfi_offset 14, -4
 340              		.loc 1 178 0
 341 0002 0446     		mov	r4, r0
 342 0004 0E46     		mov	r6, r1
ARM GAS  /tmp/ccATqbby.s 			page 7


 343              		.loc 1 181 0
 344              		.syntax unified
 345              	@ 181 "ChibiOS_2.6.6/os/kernel/src/chqueues.c" 1
 346 0006 72B6     		cpsid   i
 347              	@ 0 "" 2
 348              		.thumb
 349              		.syntax unified
 350 0008 FFF7FEFF 		bl	dbg_check_lock
 351              	.LVL22:
 352              		.loc 1 182 0
 353 000c E369     		ldr	r3, [r4, #28]
 354 000e 33B1     		cbz	r3, .L29
 355              		.loc 1 183 0
 356 0010 2046     		mov	r0, r4
 357 0012 9847     		blx	r3
 358              	.LVL23:
 359 0014 03E0     		b	.L29
 360              	.LVL24:
 361              	.L31:
 362              	.LBB24:
 363              		.loc 1 187 0
 364 0016 FFF7FEFF 		bl	qwait
 365              	.LVL25:
 366 001a 051E     		subs	r5, r0, #0
 367 001c 10DB     		blt	.L32
 368              	.LVL26:
 369              	.L29:
 370              	.LBE24:
 371              		.loc 1 185 0
 372 001e A368     		ldr	r3, [r4, #8]
 373              	.LBB25:
 374              		.loc 1 187 0
 375 0020 3146     		mov	r1, r6
 376 0022 2046     		mov	r0, r4
 377              	.LBE25:
 378              		.loc 1 185 0
 379 0024 002B     		cmp	r3, #0
 380 0026 F6D0     		beq	.L31
 381              	.LVL27:
 382              		.loc 1 194 0
 383 0028 A169     		ldr	r1, [r4, #24]
 384              	.LVL28:
 385              		.loc 1 195 0
 386 002a 2069     		ldr	r0, [r4, #16]
 387              	.LVL29:
 388              		.loc 1 194 0
 389 002c 4A1C     		adds	r2, r1, #1
 390              		.loc 1 193 0
 391 002e 013B     		subs	r3, r3, #1
 392              		.loc 1 195 0
 393 0030 8242     		cmp	r2, r0
 394              		.loc 1 193 0
 395 0032 A360     		str	r3, [r4, #8]
 396              		.loc 1 194 0
 397 0034 A261     		str	r2, [r4, #24]
 398              		.loc 1 196 0
 399 0036 28BF     		it	cs
ARM GAS  /tmp/ccATqbby.s 			page 8


 400 0038 E368     		ldrcs	r3, [r4, #12]
 401              		.loc 1 194 0
 402 003a 0D78     		ldrb	r5, [r1]	@ zero_extendqisi2
 403              	.LVL30:
 404              		.loc 1 196 0
 405 003c 28BF     		it	cs
 406 003e A361     		strcs	r3, [r4, #24]
 407              	.LVL31:
 408              	.L32:
 409              		.loc 1 198 0
 410 0040 FFF7FEFF 		bl	dbg_check_unlock
 411              	.LVL32:
 412              		.syntax unified
 413              	@ 198 "ChibiOS_2.6.6/os/kernel/src/chqueues.c" 1
 414 0044 62B6     		cpsie   i
 415              	@ 0 "" 2
 416              		.loc 1 200 0
 417              		.thumb
 418              		.syntax unified
 419 0046 2846     		mov	r0, r5
 420 0048 70BD     		pop	{r4, r5, r6, pc}
 421              		.cfi_endproc
 422              	.LFE11:
 423              		.size	chIQGetTimeout, .-chIQGetTimeout
 424 004a 00BF     		.section	.text.chIQReadTimeout,"ax",%progbits
 425              		.align	1
 426              		.p2align 4,,15
 427              		.global	chIQReadTimeout
 428              		.syntax unified
 429              		.thumb
 430              		.thumb_func
 431              		.fpu fpv4-sp-d16
 432              		.type	chIQReadTimeout, %function
 433              	chIQReadTimeout:
 434              	.LFB12:
 435              		.loc 1 227 0
 436              		.cfi_startproc
 437              		@ args = 0, pretend = 0, frame = 0
 438              		@ frame_needed = 0, uses_anonymous_args = 0
 439              	.LVL33:
 440 0000 2DE9F843 		push	{r3, r4, r5, r6, r7, r8, r9, lr}
 441              		.cfi_def_cfa_offset 32
 442              		.cfi_offset 3, -32
 443              		.cfi_offset 4, -28
 444              		.cfi_offset 5, -24
 445              		.cfi_offset 6, -20
 446              		.cfi_offset 7, -16
 447              		.cfi_offset 8, -12
 448              		.cfi_offset 9, -8
 449              		.cfi_offset 14, -4
 450              		.loc 1 227 0
 451 0004 0446     		mov	r4, r0
 452 0006 8846     		mov	r8, r1
 453 0008 1D46     		mov	r5, r3
 454              		.loc 1 228 0
 455 000a C769     		ldr	r7, [r0, #28]
 456              	.LVL34:
ARM GAS  /tmp/ccATqbby.s 			page 9


 457              		.loc 1 231 0
 458 000c 9146     		mov	r9, r2
 459 000e 6AB3     		cbz	r2, .L52
 460              	.LVL35:
 461              	.L39:
 462              		.loc 1 233 0
 463              		.syntax unified
 464              	@ 233 "ChibiOS_2.6.6/os/kernel/src/chqueues.c" 1
 465 0010 72B6     		cpsid   i
 466              	@ 0 "" 2
 467              		.thumb
 468              		.syntax unified
 469 0012 FFF7FEFF 		bl	dbg_check_lock
 470              	.LVL36:
 471              		.loc 1 229 0
 472 0016 0026     		movs	r6, #0
 473              	.LVL37:
 474              	.L45:
 475              		.loc 1 235 0
 476 0018 2FB1     		cbz	r7, .L41
 477              		.loc 1 236 0
 478 001a 2046     		mov	r0, r4
 479 001c B847     		blx	r7
 480              	.LVL38:
 481 001e 02E0     		b	.L41
 482              	.LVL39:
 483              	.L43:
 484              		.loc 1 239 0
 485 0020 FFF7FEFF 		bl	qwait
 486              	.LVL40:
 487 0024 E0B9     		cbnz	r0, .L53
 488              	.L41:
 489              		.loc 1 238 0
 490 0026 A368     		ldr	r3, [r4, #8]
 491              		.loc 1 239 0
 492 0028 2946     		mov	r1, r5
 493 002a 2046     		mov	r0, r4
 494              		.loc 1 238 0
 495 002c 002B     		cmp	r3, #0
 496 002e F7D0     		beq	.L43
 497              	.LVL41:
 498              		.loc 1 246 0
 499 0030 A269     		ldr	r2, [r4, #24]
 500              		.loc 1 245 0
 501 0032 013B     		subs	r3, r3, #1
 502              		.loc 1 246 0
 503 0034 511C     		adds	r1, r2, #1
 504              	.LVL42:
 505 0036 A161     		str	r1, [r4, #24]
 506              		.loc 1 245 0
 507 0038 A360     		str	r3, [r4, #8]
 508              		.loc 1 246 0
 509 003a 1378     		ldrb	r3, [r2]	@ zero_extendqisi2
 510 003c 08F8013B 		strb	r3, [r8], #1
 511              	.LVL43:
 512              		.loc 1 247 0
 513 0040 2369     		ldr	r3, [r4, #16]
ARM GAS  /tmp/ccATqbby.s 			page 10


 514 0042 A269     		ldr	r2, [r4, #24]
 515 0044 9A42     		cmp	r2, r3
 516              		.loc 1 248 0
 517 0046 24BF     		itt	cs
 518 0048 E368     		ldrcs	r3, [r4, #12]
 519 004a A361     		strcs	r3, [r4, #24]
 520              		.loc 1 250 0
 521 004c FFF7FEFF 		bl	dbg_check_unlock
 522              	.LVL44:
 523              		.syntax unified
 524              	@ 250 "ChibiOS_2.6.6/os/kernel/src/chqueues.c" 1
 525 0050 62B6     		cpsie   i
 526              	@ 0 "" 2
 527              		.loc 1 251 0
 528              		.thumb
 529              		.syntax unified
 530 0052 0136     		adds	r6, r6, #1
 531              	.LVL45:
 532              		.loc 1 252 0
 533 0054 B145     		cmp	r9, r6
 534 0056 06D0     		beq	.L38
 535              		.loc 1 255 0
 536              		.syntax unified
 537              	@ 255 "ChibiOS_2.6.6/os/kernel/src/chqueues.c" 1
 538 0058 72B6     		cpsid   i
 539              	@ 0 "" 2
 540              		.thumb
 541              		.syntax unified
 542 005a FFF7FEFF 		bl	dbg_check_lock
 543              	.LVL46:
 544              		.loc 1 235 0
 545 005e DBE7     		b	.L45
 546              	.LVL47:
 547              	.L53:
 548              		.loc 1 240 0
 549 0060 FFF7FEFF 		bl	dbg_check_unlock
 550              	.LVL48:
 551              		.syntax unified
 552              	@ 240 "ChibiOS_2.6.6/os/kernel/src/chqueues.c" 1
 553 0064 62B6     		cpsie   i
 554              	@ 0 "" 2
 555              	.LVL49:
 556              		.thumb
 557              		.syntax unified
 558              	.L38:
 559              		.loc 1 257 0
 560 0066 3046     		mov	r0, r6
 561 0068 BDE8F883 		pop	{r3, r4, r5, r6, r7, r8, r9, pc}
 562              	.LVL50:
 563              	.L52:
 564              		.loc 1 231 0 discriminator 1
 565 006c 0148     		ldr	r0, .L54
 566              	.LVL51:
 567 006e FFF7FEFF 		bl	chDbgPanic
 568              	.LVL52:
 569 0072 CDE7     		b	.L39
 570              	.L55:
ARM GAS  /tmp/ccATqbby.s 			page 11


 571              		.align	2
 572              	.L54:
 573 0074 00000000 		.word	.LC0
 574              		.cfi_endproc
 575              	.LFE12:
 576              		.size	chIQReadTimeout, .-chIQReadTimeout
 577              		.section	.text.chOQInit,"ax",%progbits
 578              		.align	1
 579              		.p2align 4,,15
 580              		.global	chOQInit
 581              		.syntax unified
 582              		.thumb
 583              		.thumb_func
 584              		.fpu fpv4-sp-d16
 585              		.type	chOQInit, %function
 586              	chOQInit:
 587              	.LFB13:
 588              		.loc 1 276 0
 589              		.cfi_startproc
 590              		@ args = 4, pretend = 0, frame = 0
 591              		@ frame_needed = 0, uses_anonymous_args = 0
 592              		@ link register save eliminated.
 593              	.LVL53:
 594 0000 30B4     		push	{r4, r5}
 595              		.cfi_def_cfa_offset 8
 596              		.cfi_offset 4, -8
 597              		.cfi_offset 5, -4
 598              		.loc 1 276 0
 599 0002 029C     		ldr	r4, [sp, #8]
 600              		.loc 1 279 0
 601 0004 8260     		str	r2, [r0, #8]
 602              		.loc 1 281 0
 603 0006 8D18     		adds	r5, r1, r2
 604              		.loc 1 280 0
 605 0008 C0E90451 		strd	r5, r1, [r0, #16]
 606              		.loc 1 283 0
 607 000c C0E90734 		strd	r3, r4, [r0, #28]
 608              		.loc 1 278 0
 609 0010 C0E90000 		strd	r0, r0, [r0]
 610              		.loc 1 280 0
 611 0014 8161     		str	r1, [r0, #24]
 612 0016 C160     		str	r1, [r0, #12]
 613              		.loc 1 284 0
 614 0018 30BC     		pop	{r4, r5}
 615              		.cfi_restore 5
 616              		.cfi_restore 4
 617              		.cfi_def_cfa_offset 0
 618              	.LVL54:
 619 001a 7047     		bx	lr
 620              		.cfi_endproc
 621              	.LFE13:
 622              		.size	chOQInit, .-chOQInit
 623              		.section	.text.chOQResetI,"ax",%progbits
 624              		.align	1
 625              		.p2align 4,,15
 626              		.global	chOQResetI
 627              		.syntax unified
ARM GAS  /tmp/ccATqbby.s 			page 12


 628              		.thumb
 629              		.thumb_func
 630              		.fpu fpv4-sp-d16
 631              		.type	chOQResetI, %function
 632              	chOQResetI:
 633              	.LFB14:
 634              		.loc 1 297 0
 635              		.cfi_startproc
 636              		@ args = 0, pretend = 0, frame = 0
 637              		@ frame_needed = 0, uses_anonymous_args = 0
 638              	.LVL55:
 639 0000 38B5     		push	{r3, r4, r5, lr}
 640              		.cfi_def_cfa_offset 16
 641              		.cfi_offset 3, -16
 642              		.cfi_offset 4, -12
 643              		.cfi_offset 5, -8
 644              		.cfi_offset 14, -4
 645              		.loc 1 297 0
 646 0002 0446     		mov	r4, r0
 647              		.loc 1 299 0
 648 0004 FFF7FEFF 		bl	chDbgCheckClassI
 649              	.LVL56:
 650              		.loc 1 302 0
 651 0008 D4E90312 		ldrd	r1, r2, [r4, #12]
 652              		.loc 1 303 0
 653 000c 2368     		ldr	r3, [r4]
 654              		.loc 1 301 0
 655 000e 6161     		str	r1, [r4, #20]
 656              		.loc 1 302 0
 657 0010 521A     		subs	r2, r2, r1
 658              		.loc 1 303 0
 659 0012 9C42     		cmp	r4, r3
 660              		.loc 1 301 0
 661 0014 A161     		str	r1, [r4, #24]
 662              		.loc 1 302 0
 663 0016 A260     		str	r2, [r4, #8]
 664              		.loc 1 303 0
 665 0018 0BD0     		beq	.L58
 666              		.loc 1 304 0
 667 001a 6FF00105 		mvn	r5, #1
 668              	.L60:
 669              	.LVL57:
 670              	.LBB26:
 671              	.LBB27:
 672              		.loc 2 62 0
 673 001e 1A68     		ldr	r2, [r3]
 674 0020 2260     		str	r2, [r4]
 675              	.LBE27:
 676              	.LBE26:
 677              		.loc 1 304 0
 678 0022 1846     		mov	r0, r3
 679              	.LBB29:
 680              	.LBB28:
 681              		.loc 2 62 0
 682 0024 5460     		str	r4, [r2, #4]
 683              	.LVL58:
 684              	.LBE28:
ARM GAS  /tmp/ccATqbby.s 			page 13


 685              	.LBE29:
 686              		.loc 1 304 0
 687 0026 FFF7FEFF 		bl	chSchReadyI
 688              	.LVL59:
 689              		.loc 1 303 0
 690 002a 2368     		ldr	r3, [r4]
 691              		.loc 1 304 0
 692 002c 8562     		str	r5, [r0, #40]
 693              		.loc 1 303 0
 694 002e A342     		cmp	r3, r4
 695 0030 F5D1     		bne	.L60
 696              	.L58:
 697              		.loc 1 305 0
 698 0032 38BD     		pop	{r3, r4, r5, pc}
 699              		.cfi_endproc
 700              	.LFE14:
 701              		.size	chOQResetI, .-chOQResetI
 702              		.section	.text.chOQPutTimeout,"ax",%progbits
 703              		.align	1
 704              		.p2align 4,,15
 705              		.global	chOQPutTimeout
 706              		.syntax unified
 707              		.thumb
 708              		.thumb_func
 709              		.fpu fpv4-sp-d16
 710              		.type	chOQPutTimeout, %function
 711              	chOQPutTimeout:
 712              	.LFB15:
 713              		.loc 1 329 0
 714              		.cfi_startproc
 715              		@ args = 0, pretend = 0, frame = 0
 716              		@ frame_needed = 0, uses_anonymous_args = 0
 717              	.LVL60:
 718 0000 F8B5     		push	{r3, r4, r5, r6, r7, lr}
 719              		.cfi_def_cfa_offset 24
 720              		.cfi_offset 3, -24
 721              		.cfi_offset 4, -20
 722              		.cfi_offset 5, -16
 723              		.cfi_offset 6, -12
 724              		.cfi_offset 7, -8
 725              		.cfi_offset 14, -4
 726              		.loc 1 329 0
 727 0002 0446     		mov	r4, r0
 728 0004 0F46     		mov	r7, r1
 729 0006 1646     		mov	r6, r2
 730              		.loc 1 331 0
 731              		.syntax unified
 732              	@ 331 "ChibiOS_2.6.6/os/kernel/src/chqueues.c" 1
 733 0008 72B6     		cpsid   i
 734              	@ 0 "" 2
 735              		.thumb
 736              		.syntax unified
 737 000a FFF7FEFF 		bl	dbg_check_lock
 738              	.LVL61:
 739              		.loc 1 332 0
 740 000e 03E0     		b	.L64
 741              	.LVL62:
ARM GAS  /tmp/ccATqbby.s 			page 14


 742              	.L66:
 743              	.LBB30:
 744              		.loc 1 335 0
 745 0010 FFF7FEFF 		bl	qwait
 746              	.LVL63:
 747 0014 051E     		subs	r5, r0, #0
 748 0016 19DB     		blt	.L74
 749              	.LVL64:
 750              	.L64:
 751              	.LBE30:
 752              		.loc 1 332 0
 753 0018 A368     		ldr	r3, [r4, #8]
 754              	.LBB31:
 755              		.loc 1 335 0
 756 001a 3146     		mov	r1, r6
 757 001c 2046     		mov	r0, r4
 758              	.LBE31:
 759              		.loc 1 332 0
 760 001e 002B     		cmp	r3, #0
 761 0020 F6D0     		beq	.L66
 762              	.LVL65:
 763              		.loc 1 342 0
 764 0022 6269     		ldr	r2, [r4, #20]
 765              		.loc 1 341 0
 766 0024 013B     		subs	r3, r3, #1
 767              		.loc 1 342 0
 768 0026 511C     		adds	r1, r2, #1
 769              	.LVL66:
 770 0028 6161     		str	r1, [r4, #20]
 771              		.loc 1 341 0
 772 002a A360     		str	r3, [r4, #8]
 773              		.loc 1 342 0
 774 002c 1770     		strb	r7, [r2]
 775              		.loc 1 343 0
 776 002e D4E90432 		ldrd	r3, r2, [r4, #16]
 777 0032 9A42     		cmp	r2, r3
 778              		.loc 1 344 0
 779 0034 24BF     		itt	cs
 780 0036 E368     		ldrcs	r3, [r4, #12]
 781 0038 6361     		strcs	r3, [r4, #20]
 782              		.loc 1 346 0
 783 003a E369     		ldr	r3, [r4, #28]
 784 003c 03B1     		cbz	r3, .L68
 785              		.loc 1 347 0
 786 003e 9847     		blx	r3
 787              	.LVL67:
 788              	.L68:
 789              		.loc 1 349 0
 790 0040 FFF7FEFF 		bl	dbg_check_unlock
 791              	.LVL68:
 792              		.syntax unified
 793              	@ 349 "ChibiOS_2.6.6/os/kernel/src/chqueues.c" 1
 794 0044 62B6     		cpsie   i
 795              	@ 0 "" 2
 796              		.loc 1 350 0
 797              		.thumb
 798              		.syntax unified
ARM GAS  /tmp/ccATqbby.s 			page 15


 799 0046 0025     		movs	r5, #0
 800              		.loc 1 351 0
 801 0048 2846     		mov	r0, r5
 802 004a F8BD     		pop	{r3, r4, r5, r6, r7, pc}
 803              	.LVL69:
 804              	.L74:
 805              	.LBB32:
 806              		.loc 1 336 0
 807 004c FFF7FEFF 		bl	dbg_check_unlock
 808              	.LVL70:
 809              		.syntax unified
 810              	@ 336 "ChibiOS_2.6.6/os/kernel/src/chqueues.c" 1
 811 0050 62B6     		cpsie   i
 812              	@ 0 "" 2
 813              		.thumb
 814              		.syntax unified
 815              	.LBE32:
 816              		.loc 1 351 0
 817 0052 2846     		mov	r0, r5
 818 0054 F8BD     		pop	{r3, r4, r5, r6, r7, pc}
 819              		.cfi_endproc
 820              	.LFE15:
 821              		.size	chOQPutTimeout, .-chOQPutTimeout
 822 0056 00BF     		.section	.text.chOQGetI,"ax",%progbits
 823              		.align	1
 824              		.p2align 4,,15
 825              		.global	chOQGetI
 826              		.syntax unified
 827              		.thumb
 828              		.thumb_func
 829              		.fpu fpv4-sp-d16
 830              		.type	chOQGetI, %function
 831              	chOQGetI:
 832              	.LFB16:
 833              		.loc 1 363 0
 834              		.cfi_startproc
 835              		@ args = 0, pretend = 0, frame = 0
 836              		@ frame_needed = 0, uses_anonymous_args = 0
 837              	.LVL71:
 838 0000 38B5     		push	{r3, r4, r5, lr}
 839              		.cfi_def_cfa_offset 16
 840              		.cfi_offset 3, -16
 841              		.cfi_offset 4, -12
 842              		.cfi_offset 5, -8
 843              		.cfi_offset 14, -4
 844              		.loc 1 363 0
 845 0002 0446     		mov	r4, r0
 846              		.loc 1 366 0
 847 0004 FFF7FEFF 		bl	chDbgCheckClassI
 848              	.LVL72:
 849              		.loc 1 368 0
 850 0008 D4E90532 		ldrd	r3, r2, [r4, #20]
 851 000c 9342     		cmp	r3, r2
 852 000e A368     		ldr	r3, [r4, #8]
 853 0010 16D0     		beq	.L84
 854              	.L78:
 855              		.loc 1 373 0
ARM GAS  /tmp/ccATqbby.s 			page 16


 856 0012 2069     		ldr	r0, [r4, #16]
 857              		.loc 1 372 0
 858 0014 511C     		adds	r1, r2, #1
 859              		.loc 1 371 0
 860 0016 0133     		adds	r3, r3, #1
 861 0018 A360     		str	r3, [r4, #8]
 862              		.loc 1 372 0
 863 001a A161     		str	r1, [r4, #24]
 864              		.loc 1 373 0
 865 001c 8142     		cmp	r1, r0
 866              		.loc 1 372 0
 867 001e 1578     		ldrb	r5, [r2]	@ zero_extendqisi2
 868              	.LVL73:
 869              		.loc 1 373 0
 870 0020 0BD2     		bcs	.L80
 871              	.L81:
 872              		.loc 1 376 0
 873 0022 2068     		ldr	r0, [r4]
 874 0024 A042     		cmp	r0, r4
 875 0026 06D0     		beq	.L79
 876              	.LVL74:
 877              	.LBB33:
 878              	.LBB34:
 879              		.loc 2 62 0
 880 0028 0368     		ldr	r3, [r0]
 881 002a 2360     		str	r3, [r4]
 882 002c 5C60     		str	r4, [r3, #4]
 883              	.LVL75:
 884              	.LBE34:
 885              	.LBE33:
 886              		.loc 1 377 0
 887 002e FFF7FEFF 		bl	chSchReadyI
 888              	.LVL76:
 889 0032 0023     		movs	r3, #0
 890 0034 8362     		str	r3, [r0, #40]
 891              	.L79:
 892              		.loc 1 379 0
 893 0036 2846     		mov	r0, r5
 894              		.loc 1 380 0
 895 0038 38BD     		pop	{r3, r4, r5, pc}
 896              	.LVL77:
 897              	.L80:
 898              		.loc 1 374 0
 899 003a E368     		ldr	r3, [r4, #12]
 900 003c A361     		str	r3, [r4, #24]
 901 003e F0E7     		b	.L81
 902              	.LVL78:
 903              	.L84:
 904              		.loc 1 368 0 discriminator 1
 905 0040 002B     		cmp	r3, #0
 906 0042 E6D0     		beq	.L78
 907              		.loc 1 369 0
 908 0044 6FF00200 		mvn	r0, #2
 909              		.loc 1 380 0
 910 0048 38BD     		pop	{r3, r4, r5, pc}
 911              		.cfi_endproc
 912              	.LFE16:
ARM GAS  /tmp/ccATqbby.s 			page 17


 913              		.size	chOQGetI, .-chOQGetI
 914 004a 00BF     		.section	.text.chOQWriteTimeout,"ax",%progbits
 915              		.align	1
 916              		.p2align 4,,15
 917              		.global	chOQWriteTimeout
 918              		.syntax unified
 919              		.thumb
 920              		.thumb_func
 921              		.fpu fpv4-sp-d16
 922              		.type	chOQWriteTimeout, %function
 923              	chOQWriteTimeout:
 924              	.LFB17:
 925              		.loc 1 407 0
 926              		.cfi_startproc
 927              		@ args = 0, pretend = 0, frame = 0
 928              		@ frame_needed = 0, uses_anonymous_args = 0
 929              	.LVL79:
 930 0000 2DE9F047 		push	{r4, r5, r6, r7, r8, r9, r10, lr}
 931              		.cfi_def_cfa_offset 32
 932              		.cfi_offset 4, -32
 933              		.cfi_offset 5, -28
 934              		.cfi_offset 6, -24
 935              		.cfi_offset 7, -20
 936              		.cfi_offset 8, -16
 937              		.cfi_offset 9, -12
 938              		.cfi_offset 10, -8
 939              		.cfi_offset 14, -4
 940              		.loc 1 407 0
 941 0004 0446     		mov	r4, r0
 942 0006 0D46     		mov	r5, r1
 943 0008 9A46     		mov	r10, r3
 944              		.loc 1 408 0
 945 000a D0F81C90 		ldr	r9, [r0, #28]
 946              	.LVL80:
 947              		.loc 1 411 0
 948 000e 1646     		mov	r6, r2
 949 0010 002A     		cmp	r2, #0
 950 0012 36D0     		beq	.L103
 951              	.LVL81:
 952              	.L86:
 953              		.loc 1 413 0
 954              		.syntax unified
 955              	@ 413 "ChibiOS_2.6.6/os/kernel/src/chqueues.c" 1
 956 0014 72B6     		cpsid   i
 957              	@ 0 "" 2
 958              		.thumb
 959              		.syntax unified
 960 0016 FFF7FEFF 		bl	dbg_check_lock
 961              	.LVL82:
 962              		.loc 1 409 0
 963 001a 4FF00008 		mov	r8, #0
 964              	.LVL83:
 965              	.L87:
 966              		.loc 1 415 0
 967 001e A368     		ldr	r3, [r4, #8]
 968              		.loc 1 422 0
 969 0020 6F1C     		adds	r7, r5, #1
ARM GAS  /tmp/ccATqbby.s 			page 18


 970              	.LVL84:
 971              		.loc 1 421 0
 972 0022 5A1E     		subs	r2, r3, #1
 973              		.loc 1 427 0
 974 0024 2046     		mov	r0, r4
 975              		.loc 1 415 0
 976 0026 03B3     		cbz	r3, .L90
 977              	.LVL85:
 978              	.L104:
 979              		.loc 1 422 0
 980 0028 6369     		ldr	r3, [r4, #20]
 981              		.loc 1 421 0
 982 002a A260     		str	r2, [r4, #8]
 983              		.loc 1 422 0
 984 002c 5A1C     		adds	r2, r3, #1
 985 002e 6261     		str	r2, [r4, #20]
 986 0030 2A78     		ldrb	r2, [r5]	@ zero_extendqisi2
 987 0032 1A70     		strb	r2, [r3]
 988              		.loc 1 423 0
 989 0034 D4E90432 		ldrd	r3, r2, [r4, #16]
 990 0038 9A42     		cmp	r2, r3
 991              		.loc 1 424 0
 992 003a 24BF     		itt	cs
 993 003c E368     		ldrcs	r3, [r4, #12]
 994 003e 6361     		strcs	r3, [r4, #20]
 995              		.loc 1 426 0
 996 0040 B9F1000F 		cmp	r9, #0
 997 0044 00D0     		beq	.L92
 998              		.loc 1 427 0
 999 0046 C847     		blx	r9
 1000              	.LVL86:
 1001              	.L92:
 1002              		.loc 1 429 0
 1003 0048 FFF7FEFF 		bl	dbg_check_unlock
 1004              	.LVL87:
 1005              		.syntax unified
 1006              	@ 429 "ChibiOS_2.6.6/os/kernel/src/chqueues.c" 1
 1007 004c 62B6     		cpsie   i
 1008              	@ 0 "" 2
 1009              		.loc 1 431 0
 1010              		.thumb
 1011              		.syntax unified
 1012 004e 013E     		subs	r6, r6, #1
 1013              	.LVL88:
 1014              		.loc 1 430 0
 1015 0050 08F10108 		add	r8, r8, #1
 1016              	.LVL89:
 1017              		.loc 1 431 0
 1018 0054 12D0     		beq	.L85
 1019              		.loc 1 433 0
 1020              		.syntax unified
 1021              	@ 433 "ChibiOS_2.6.6/os/kernel/src/chqueues.c" 1
 1022 0056 72B6     		cpsid   i
 1023              	@ 0 "" 2
 1024              		.thumb
 1025              		.syntax unified
 1026 0058 FFF7FEFF 		bl	dbg_check_lock
ARM GAS  /tmp/ccATqbby.s 			page 19


 1027              	.LVL90:
 1028              		.loc 1 415 0
 1029 005c A368     		ldr	r3, [r4, #8]
 1030              		.loc 1 422 0
 1031 005e 3D46     		mov	r5, r7
 1032              	.LVL91:
 1033              		.loc 1 421 0
 1034 0060 5A1E     		subs	r2, r3, #1
 1035              		.loc 1 422 0
 1036 0062 6F1C     		adds	r7, r5, #1
 1037              	.LVL92:
 1038              		.loc 1 427 0
 1039 0064 2046     		mov	r0, r4
 1040              		.loc 1 415 0
 1041 0066 002B     		cmp	r3, #0
 1042 0068 DED1     		bne	.L104
 1043              	.LVL93:
 1044              	.L90:
 1045              		.loc 1 416 0
 1046 006a 5146     		mov	r1, r10
 1047 006c 2046     		mov	r0, r4
 1048              	.LVL94:
 1049 006e FFF7FEFF 		bl	qwait
 1050              	.LVL95:
 1051 0072 0028     		cmp	r0, #0
 1052 0074 D3D0     		beq	.L87
 1053              		.loc 1 417 0
 1054 0076 FFF7FEFF 		bl	dbg_check_unlock
 1055              	.LVL96:
 1056              		.syntax unified
 1057              	@ 417 "ChibiOS_2.6.6/os/kernel/src/chqueues.c" 1
 1058 007a 62B6     		cpsie   i
 1059              	@ 0 "" 2
 1060              	.LVL97:
 1061              		.thumb
 1062              		.syntax unified
 1063              	.L85:
 1064              		.loc 1 435 0
 1065 007c 4046     		mov	r0, r8
 1066 007e BDE8F087 		pop	{r4, r5, r6, r7, r8, r9, r10, pc}
 1067              	.LVL98:
 1068              	.L103:
 1069              		.loc 1 411 0 discriminator 1
 1070 0082 0248     		ldr	r0, .L105
 1071              	.LVL99:
 1072 0084 FFF7FEFF 		bl	chDbgPanic
 1073              	.LVL100:
 1074 0088 C4E7     		b	.L86
 1075              	.L106:
 1076 008a 00BF     		.align	2
 1077              	.L105:
 1078 008c 00000000 		.word	.LC1
 1079              		.cfi_endproc
 1080              	.LFE17:
 1081              		.size	chOQWriteTimeout, .-chOQWriteTimeout
 1082              		.section	.rodata.chIQReadTimeout.str1.4,"aMS",%progbits,1
 1083              		.align	2
ARM GAS  /tmp/ccATqbby.s 			page 20


 1084              	.LC0:
 1085 0000 22636849 		.ascii	"\"chIQReadTimeout\"()\000"
 1085      51526561 
 1085      6454696D 
 1085      656F7574 
 1085      22282900 
 1086              		.section	.rodata.chOQWriteTimeout.str1.4,"aMS",%progbits,1
 1087              		.align	2
 1088              	.LC1:
 1089 0000 2263684F 		.ascii	"\"chOQWriteTimeout\"()\000"
 1089      51577269 
 1089      74655469 
 1089      6D656F75 
 1089      74222829 
 1090              		.text
 1091              	.Letext0:
 1092              		.file 3 "/usr/lib/gcc/arm-none-eabi/7.3.1/include/stddef.h"
 1093              		.file 4 "/usr/arm-none-eabi/include/machine/_default_types.h"
 1094              		.file 5 "/usr/arm-none-eabi/include/sys/_stdint.h"
 1095              		.file 6 "ChibiOS_2.6.6/os/ports/GCC/ARMCMx/chtypes.h"
 1096              		.file 7 "ChibiOS_2.6.6/os/kernel/include/chlists.h"
 1097              		.file 8 "ChibiOS_2.6.6/os/kernel/include/chthreads.h"
 1098              		.file 9 "ChibiOS_2.6.6/os/ports/GCC/ARMCMx/chcore_v7m.h"
 1099              		.file 10 "ChibiOS_2.6.6/os/kernel/include/chvt.h"
 1100              		.file 11 "ChibiOS_2.6.6/os/kernel/include/chschd.h"
 1101              		.file 12 "ChibiOS_2.6.6/os/kernel/include/chmtx.h"
 1102              		.file 13 "ChibiOS_2.6.6/os/kernel/include/chregistry.h"
 1103              		.file 14 "ChibiOS_2.6.6/os/kernel/include/chqueues.h"
 1104              		.file 15 "ChibiOS_2.6.6/os/kernel/include/chdebug.h"
 1105              		.file 16 "ChibiOS_2.6.6/os/kernel/include/ch.h"