ARM GAS  /tmp/ccaa4sSg.s 			page 1


   1              		.cpu cortex-m4
   2              		.eabi_attribute 27, 1
   3              		.eabi_attribute 28, 1
   4              		.eabi_attribute 20, 1
   5              		.eabi_attribute 21, 1
   6              		.eabi_attribute 23, 3
   7              		.eabi_attribute 24, 1
   8              		.eabi_attribute 25, 1
   9              		.eabi_attribute 26, 1
  10              		.eabi_attribute 30, 2
  11              		.eabi_attribute 34, 1
  12              		.eabi_attribute 18, 4
  13              		.file	"chregistry.c"
  14              		.text
  15              	.Ltext0:
  16              		.cfi_sections	.debug_frame
  17              		.section	.text.chRegFirstThread,"ax",%progbits
  18              		.align	1
  19              		.p2align 4,,15
  20              		.global	chRegFirstThread
  21              		.syntax unified
  22              		.thumb
  23              		.thumb_func
  24              		.fpu fpv4-sp-d16
  25              		.type	chRegFirstThread, %function
  26              	chRegFirstThread:
  27              	.LFB7:
  28              		.file 1 "ChibiOS_2.6.6/os/kernel/src/chregistry.c"
  29              		.loc 1 117 0
  30              		.cfi_startproc
  31              		@ args = 0, pretend = 0, frame = 0
  32              		@ frame_needed = 0, uses_anonymous_args = 0
  33 0000 10B5     		push	{r4, lr}
  34              		.cfi_def_cfa_offset 8
  35              		.cfi_offset 4, -8
  36              		.cfi_offset 14, -4
  37              		.loc 1 120 0
  38              		.syntax unified
  39              	@ 120 "ChibiOS_2.6.6/os/kernel/src/chregistry.c" 1
  40 0002 72B6     		cpsid   i
  41              	@ 0 "" 2
  42              		.thumb
  43              		.syntax unified
  44 0004 FFF7FEFF 		bl	dbg_check_lock
  45              	.LVL0:
  46              		.loc 1 121 0
  47 0008 054B     		ldr	r3, .L4
  48 000a 1C69     		ldr	r4, [r3, #16]
  49              	.LVL1:
  50              		.loc 1 123 0
  51 000c 94F82230 		ldrb	r3, [r4, #34]	@ zero_extendqisi2
  52 0010 0133     		adds	r3, r3, #1
  53 0012 84F82230 		strb	r3, [r4, #34]
  54              		.loc 1 125 0
  55 0016 FFF7FEFF 		bl	dbg_check_unlock
  56              	.LVL2:
  57              		.syntax unified
ARM GAS  /tmp/ccaa4sSg.s 			page 2


  58              	@ 125 "ChibiOS_2.6.6/os/kernel/src/chregistry.c" 1
  59 001a 62B6     		cpsie   i
  60              	@ 0 "" 2
  61              		.loc 1 127 0
  62              		.thumb
  63              		.syntax unified
  64 001c 2046     		mov	r0, r4
  65 001e 10BD     		pop	{r4, pc}
  66              	.LVL3:
  67              	.L5:
  68              		.align	2
  69              	.L4:
  70 0020 00000000 		.word	rlist
  71              		.cfi_endproc
  72              	.LFE7:
  73              		.size	chRegFirstThread, .-chRegFirstThread
  74              		.section	.text.chRegNextThread,"ax",%progbits
  75              		.align	1
  76              		.p2align 4,,15
  77              		.global	chRegNextThread
  78              		.syntax unified
  79              		.thumb
  80              		.thumb_func
  81              		.fpu fpv4-sp-d16
  82              		.type	chRegNextThread, %function
  83              	chRegNextThread:
  84              	.LFB8:
  85              		.loc 1 140 0
  86              		.cfi_startproc
  87              		@ args = 0, pretend = 0, frame = 0
  88              		@ frame_needed = 0, uses_anonymous_args = 0
  89              	.LVL4:
  90 0000 38B5     		push	{r3, r4, r5, lr}
  91              		.cfi_def_cfa_offset 16
  92              		.cfi_offset 3, -16
  93              		.cfi_offset 4, -12
  94              		.cfi_offset 5, -8
  95              		.cfi_offset 14, -4
  96              		.loc 1 140 0
  97 0002 0546     		mov	r5, r0
  98              		.loc 1 143 0
  99              		.syntax unified
 100              	@ 143 "ChibiOS_2.6.6/os/kernel/src/chregistry.c" 1
 101 0004 72B6     		cpsid   i
 102              	@ 0 "" 2
 103              		.thumb
 104              		.syntax unified
 105 0006 FFF7FEFF 		bl	dbg_check_lock
 106              	.LVL5:
 107              		.loc 1 144 0
 108 000a 2C69     		ldr	r4, [r5, #16]
 109              	.LVL6:
 110              		.loc 1 145 0
 111 000c 0C4B     		ldr	r3, .L12
 112 000e 9C42     		cmp	r4, r3
 113 0010 14D0     		beq	.L9
 114              		.loc 1 149 0
ARM GAS  /tmp/ccaa4sSg.s 			page 3


 115 0012 94F82230 		ldrb	r3, [r4, #34]	@ zero_extendqisi2
 116 0016 FF2B     		cmp	r3, #255
 117 0018 0AD0     		beq	.L11
 118              	.L8:
 119              		.loc 1 151 0
 120 001a 0133     		adds	r3, r3, #1
 121 001c 84F82230 		strb	r3, [r4, #34]
 122              	.LVL7:
 123              	.L7:
 124              		.loc 1 154 0
 125 0020 FFF7FEFF 		bl	dbg_check_unlock
 126              	.LVL8:
 127              		.syntax unified
 128              	@ 154 "ChibiOS_2.6.6/os/kernel/src/chregistry.c" 1
 129 0024 62B6     		cpsie   i
 130              	@ 0 "" 2
 131              		.loc 1 156 0
 132              		.thumb
 133              		.syntax unified
 134 0026 2846     		mov	r0, r5
 135 0028 FFF7FEFF 		bl	chThdRelease
 136              	.LVL9:
 137              		.loc 1 159 0
 138 002c 2046     		mov	r0, r4
 139 002e 38BD     		pop	{r3, r4, r5, pc}
 140              	.LVL10:
 141              	.L11:
 142              		.loc 1 149 0 discriminator 1
 143 0030 0448     		ldr	r0, .L12+4
 144 0032 FFF7FEFF 		bl	chDbgPanic
 145              	.LVL11:
 146 0036 94F82230 		ldrb	r3, [r4, #34]	@ zero_extendqisi2
 147 003a EEE7     		b	.L8
 148              	.L9:
 149              		.loc 1 146 0
 150 003c 0024     		movs	r4, #0
 151              	.LVL12:
 152 003e EFE7     		b	.L7
 153              	.L13:
 154              		.align	2
 155              	.L12:
 156 0040 00000000 		.word	rlist
 157 0044 00000000 		.word	.LC0
 158              		.cfi_endproc
 159              	.LFE8:
 160              		.size	chRegNextThread, .-chRegNextThread
 161              		.global	ch_debug
 162              		.section	.rodata.chRegNextThread.str1.4,"aMS",%progbits,1
 163              		.align	2
 164              	.LC0:
 165 0000 63685265 		.ascii	"chRegNextThread(), #1\000"
 165      674E6578 
 165      74546872 
 165      65616428 
 165      292C2023 
 166              		.section	.rodata.ch_debug,"a",%progbits
 167              		.align	2
ARM GAS  /tmp/ccaa4sSg.s 			page 4


 168              		.type	ch_debug, %object
 169              		.size	ch_debug, 22
 170              	ch_debug:
 171 0000 6D61696E 		.ascii	"main"
 172 0004 00       		.byte	0
 173 0005 16       		.byte	22
 174 0006 8611     		.short	4486
 175 0008 04       		.byte	4
 176 0009 04       		.byte	4
 177 000a 4C       		.byte	76
 178 000b 08       		.byte	8
 179 000c 0C       		.byte	12
 180 000d 10       		.byte	16
 181 000e 14       		.byte	20
 182 000f 18       		.byte	24
 183 0010 1C       		.byte	28
 184 0011 20       		.byte	32
 185 0012 21       		.byte	33
 186 0013 22       		.byte	34
 187 0014 23       		.byte	35
 188 0015 24       		.byte	36
 189              		.text
 190              	.Letext0:
 191              		.file 2 "/usr/lib/gcc/arm-none-eabi/7.3.1/include/stddef.h"
 192              		.file 3 "/usr/arm-none-eabi/include/machine/_default_types.h"
 193              		.file 4 "/usr/arm-none-eabi/include/sys/_stdint.h"
 194              		.file 5 "ChibiOS_2.6.6/os/ports/GCC/ARMCMx/chtypes.h"
 195              		.file 6 "ChibiOS_2.6.6/os/kernel/include/chlists.h"
 196              		.file 7 "ChibiOS_2.6.6/os/kernel/include/chthreads.h"
 197              		.file 8 "ChibiOS_2.6.6/os/ports/GCC/ARMCMx/chcore_v7m.h"
 198              		.file 9 "ChibiOS_2.6.6/os/kernel/include/chvt.h"
 199              		.file 10 "ChibiOS_2.6.6/os/kernel/include/chschd.h"
 200              		.file 11 "ChibiOS_2.6.6/os/kernel/include/chmtx.h"
 201              		.file 12 "ChibiOS_2.6.6/os/kernel/include/chregistry.h"
 202              		.file 13 "ChibiOS_2.6.6/os/kernel/include/chdebug.h"
 203              		.file 14 "ChibiOS_2.6.6/os/kernel/include/ch.h"
 204              		.file 15 "ChibiOS_2.6.6/os/kernel/include/chdynamic.h"