ARM GAS  /tmp/ccaUg1g3.s 			page 1


   1              		.cpu cortex-m4
   2              		.eabi_attribute 27, 1
   3              		.eabi_attribute 28, 1
   4              		.eabi_attribute 20, 1
   5              		.eabi_attribute 21, 1
   6              		.eabi_attribute 23, 3
   7              		.eabi_attribute 24, 1
   8              		.eabi_attribute 25, 1
   9              		.eabi_attribute 26, 1
  10              		.eabi_attribute 30, 2
  11              		.eabi_attribute 34, 1
  12              		.eabi_attribute 18, 4
  13              		.file	"chschd.c"
  14              		.text
  15              	.Ltext0:
  16              		.cfi_sections	.debug_frame
  17              		.section	.text._scheduler_init,"ax",%progbits
  18              		.align	1
  19              		.p2align 4,,15
  20              		.global	_scheduler_init
  21              		.syntax unified
  22              		.thumb
  23              		.thumb_func
  24              		.fpu fpv4-sp-d16
  25              		.type	_scheduler_init, %function
  26              	_scheduler_init:
  27              	.LFB7:
  28              		.file 1 "ChibiOS_2.6.6/os/kernel/src/chschd.c"
  29              		.loc 1 55 0
  30              		.cfi_startproc
  31              		@ args = 0, pretend = 0, frame = 0
  32              		@ frame_needed = 0, uses_anonymous_args = 0
  33              		@ link register save eliminated.
  34              		.loc 1 57 0
  35 0000 034B     		ldr	r3, .L3
  36              		.loc 1 58 0
  37 0002 0022     		movs	r2, #0
  38              		.loc 1 57 0
  39 0004 C3E90033 		strd	r3, r3, [r3]
  40              		.loc 1 60 0
  41 0008 C3E90433 		strd	r3, r3, [r3, #16]
  42              		.loc 1 58 0
  43 000c 9A60     		str	r2, [r3, #8]
  44              		.loc 1 62 0
  45 000e 7047     		bx	lr
  46              	.L4:
  47              		.align	2
  48              	.L3:
  49 0010 00000000 		.word	.LANCHOR0
  50              		.cfi_endproc
  51              	.LFE7:
  52              		.size	_scheduler_init, .-_scheduler_init
  53              		.section	.text.chSchReadyI,"ax",%progbits
  54              		.align	1
  55              		.p2align 4,,15
  56              		.global	chSchReadyI
  57              		.syntax unified
ARM GAS  /tmp/ccaUg1g3.s 			page 2


  58              		.thumb
  59              		.thumb_func
  60              		.fpu fpv4-sp-d16
  61              		.type	chSchReadyI, %function
  62              	chSchReadyI:
  63              	.LFB8:
  64              		.loc 1 81 0
  65              		.cfi_startproc
  66              		@ args = 0, pretend = 0, frame = 0
  67              		@ frame_needed = 0, uses_anonymous_args = 0
  68              	.LVL0:
  69 0000 10B5     		push	{r4, lr}
  70              		.cfi_def_cfa_offset 8
  71              		.cfi_offset 4, -8
  72              		.cfi_offset 14, -4
  73              		.loc 1 81 0
  74 0002 0446     		mov	r4, r0
  75              		.loc 1 84 0
  76 0004 FFF7FEFF 		bl	chDbgCheckClassI
  77              	.LVL1:
  78              		.loc 1 87 0
  79 0008 94F82030 		ldrb	r3, [r4, #32]	@ zero_extendqisi2
  80 000c 93B1     		cbz	r3, .L6
  81              		.loc 1 87 0 is_stmt 0 discriminator 2
  82 000e 0E2B     		cmp	r3, #14
  83 0010 10D0     		beq	.L6
  84              	.L7:
  85              		.loc 1 92 0 is_stmt 1
  86 0012 0022     		movs	r2, #0
  87              		.loc 1 96 0
  88 0014 A168     		ldr	r1, [r4, #8]
  89              		.loc 1 93 0
  90 0016 094B     		ldr	r3, .L14
  91              		.loc 1 92 0
  92 0018 84F82020 		strb	r2, [r4, #32]
  93              	.LVL2:
  94              	.L8:
  95              		.loc 1 95 0 discriminator 1
  96 001c 1B68     		ldr	r3, [r3]
  97              	.LVL3:
  98              		.loc 1 96 0 discriminator 1
  99 001e 9A68     		ldr	r2, [r3, #8]
 100 0020 8A42     		cmp	r2, r1
 101 0022 FBD2     		bcs	.L8
 102              		.loc 1 99 0
 103 0024 5A68     		ldr	r2, [r3, #4]
 104 0026 C4E90032 		strd	r3, r2, [r4]
 105              		.loc 1 100 0
 106 002a 5C60     		str	r4, [r3, #4]
 107 002c 6368     		ldr	r3, [r4, #4]
 108              	.LVL4:
 109              		.loc 1 102 0
 110 002e 2046     		mov	r0, r4
 111              		.loc 1 100 0
 112 0030 1C60     		str	r4, [r3]
 113              	.LVL5:
 114              		.loc 1 102 0
ARM GAS  /tmp/ccaUg1g3.s 			page 3


 115 0032 10BD     		pop	{r4, pc}
 116              	.LVL6:
 117              	.L6:
 118              		.loc 1 87 0 discriminator 3
 119 0034 0248     		ldr	r0, .L14+4
 120 0036 FFF7FEFF 		bl	chDbgPanic
 121              	.LVL7:
 122 003a EAE7     		b	.L7
 123              	.L15:
 124              		.align	2
 125              	.L14:
 126 003c 00000000 		.word	.LANCHOR0
 127 0040 00000000 		.word	.LC0
 128              		.cfi_endproc
 129              	.LFE8:
 130              		.size	chSchReadyI, .-chSchReadyI
 131              		.section	.text.wakeup,"ax",%progbits
 132              		.align	1
 133              		.p2align 4,,15
 134              		.syntax unified
 135              		.thumb
 136              		.thumb_func
 137              		.fpu fpv4-sp-d16
 138              		.type	wakeup, %function
 139              	wakeup:
 140              	.LFB10:
 141              		.loc 1 136 0
 142              		.cfi_startproc
 143              		@ args = 0, pretend = 0, frame = 0
 144              		@ frame_needed = 0, uses_anonymous_args = 0
 145              	.LVL8:
 146 0000 10B5     		push	{r4, lr}
 147              		.cfi_def_cfa_offset 8
 148              		.cfi_offset 4, -8
 149              		.cfi_offset 14, -4
 150              		.loc 1 136 0
 151 0002 0446     		mov	r4, r0
 152              	.LVL9:
 153              		.loc 1 139 0
 154              		.syntax unified
 155              	@ 139 "ChibiOS_2.6.6/os/kernel/src/chschd.c" 1
 156 0004 72B6     		cpsid   i
 157              	@ 0 "" 2
 158              		.thumb
 159              		.syntax unified
 160 0006 FFF7FEFF 		bl	dbg_check_lock_from_isr
 161              	.LVL10:
 162              		.loc 1 140 0
 163 000a 94F82030 		ldrb	r3, [r4, #32]	@ zero_extendqisi2
 164 000e 0D2B     		cmp	r3, #13
 165 0010 11D8     		bhi	.L17
 166 0012 DFE803F0 		tbb	[pc, r3]
 167              	.L19:
 168 0016 16       		.byte	(.L24-.L19)/2
 169 0017 10       		.byte	(.L17-.L19)/2
 170 0018 10       		.byte	(.L17-.L19)/2
 171 0019 07       		.byte	(.L20-.L19)/2
ARM GAS  /tmp/ccaUg1g3.s 			page 4


 172 001a 10       		.byte	(.L17-.L19)/2
 173 001b 0B       		.byte	(.L21-.L19)/2
 174 001c 10       		.byte	(.L17-.L19)/2
 175 001d 10       		.byte	(.L17-.L19)/2
 176 001e 10       		.byte	(.L17-.L19)/2
 177 001f 10       		.byte	(.L17-.L19)/2
 178 0020 10       		.byte	(.L17-.L19)/2
 179 0021 10       		.byte	(.L17-.L19)/2
 180 0022 10       		.byte	(.L17-.L19)/2
 181 0023 0B       		.byte	(.L21-.L19)/2
 182              		.p2align 1
 183              	.L20:
 184              		.loc 1 150 0
 185 0024 A26A     		ldr	r2, [r4, #40]
 186 0026 9368     		ldr	r3, [r2, #8]
 187 0028 0133     		adds	r3, r3, #1
 188 002a 9360     		str	r3, [r2, #8]
 189              	.L21:
 190              	.LVL11:
 191              	.LBB13:
 192              	.LBB14:
 193              		.file 2 "ChibiOS_2.6.6/os/kernel/include/chinline.h"
 194              		.loc 2 75 0
 195 002c D4E90023 		ldrd	r2, r3, [r4]
 196 0030 1A60     		str	r2, [r3]
 197              		.loc 2 76 0
 198 0032 2268     		ldr	r2, [r4]
 199 0034 5360     		str	r3, [r2, #4]
 200              	.LVL12:
 201              	.L17:
 202              	.LBE14:
 203              	.LBE13:
 204              		.loc 1 163 0
 205 0036 4FF0FF33 		mov	r3, #-1
 206 003a A362     		str	r3, [r4, #40]
 207              		.loc 1 164 0
 208 003c 2046     		mov	r0, r4
 209 003e FFF7FEFF 		bl	chSchReadyI
 210              	.LVL13:
 211              	.L24:
 212              		.loc 1 165 0
 213 0042 FFF7FEFF 		bl	dbg_check_unlock_from_isr
 214              	.LVL14:
 215              		.syntax unified
 216              	@ 165 "ChibiOS_2.6.6/os/kernel/src/chschd.c" 1
 217 0046 62B6     		cpsie   i
 218              	@ 0 "" 2
 219              		.loc 1 166 0
 220              		.thumb
 221              		.syntax unified
 222 0048 10BD     		pop	{r4, pc}
 223              		.cfi_endproc
 224              	.LFE10:
 225              		.size	wakeup, .-wakeup
 226 004a 00BF     		.section	.text.chSchGoSleepS,"ax",%progbits
 227              		.align	1
 228              		.p2align 4,,15
ARM GAS  /tmp/ccaUg1g3.s 			page 5


 229              		.global	chSchGoSleepS
 230              		.syntax unified
 231              		.thumb
 232              		.thumb_func
 233              		.fpu fpv4-sp-d16
 234              		.type	chSchGoSleepS, %function
 235              	chSchGoSleepS:
 236              	.LFB9:
 237              		.loc 1 115 0
 238              		.cfi_startproc
 239              		@ args = 0, pretend = 0, frame = 0
 240              		@ frame_needed = 0, uses_anonymous_args = 0
 241              	.LVL15:
 242 0000 70B5     		push	{r4, r5, r6, lr}
 243              		.cfi_def_cfa_offset 16
 244              		.cfi_offset 4, -16
 245              		.cfi_offset 5, -12
 246              		.cfi_offset 6, -8
 247              		.cfi_offset 14, -4
 248              		.loc 1 120 0
 249 0002 114C     		ldr	r4, .L28
 250              		.loc 1 115 0
 251 0004 0646     		mov	r6, r0
 252              		.loc 1 118 0
 253 0006 FFF7FEFF 		bl	chDbgCheckClassS
 254              	.LVL16:
 255              		.loc 1 120 0
 256 000a A569     		ldr	r5, [r4, #24]
 257              	.LVL17:
 258              	.LBB15:
 259              	.LBB16:
 260              		.loc 2 60 0
 261 000c 2368     		ldr	r3, [r4]
 262              	.LBE16:
 263              	.LBE15:
 264              		.loc 1 120 0
 265 000e 85F82060 		strb	r6, [r5, #32]
 266              		.loc 1 124 0
 267 0012 0422     		movs	r2, #4
 268 0014 85F82320 		strb	r2, [r5, #35]
 269              	.LVL18:
 270              	.LBB19:
 271              	.LBB17:
 272              		.loc 2 62 0
 273 0018 1A68     		ldr	r2, [r3]
 274 001a 2260     		str	r2, [r4]
 275              	.LBE17:
 276              	.LBE19:
 277              		.loc 1 127 0
 278 001c 0121     		movs	r1, #1
 279              	.LBB20:
 280              	.LBB18:
 281              		.loc 2 62 0
 282 001e 5460     		str	r4, [r2, #4]
 283              	.LVL19:
 284              	.LBE18:
 285              	.LBE20:
ARM GAS  /tmp/ccaUg1g3.s 			page 6


 286              		.loc 1 128 0
 287 0020 2846     		mov	r0, r5
 288              		.loc 1 127 0
 289 0022 83F82010 		strb	r1, [r3, #32]
 290              		.loc 1 126 0
 291 0026 A361     		str	r3, [r4, #24]
 292              		.loc 1 128 0
 293 0028 FFF7FEFF 		bl	dbg_trace
 294              	.LVL20:
 295              	.LBB21:
 296 002c EA69     		ldr	r2, [r5, #28]
 297 002e ADF16403 		sub	r3, sp, #100
 298 0032 9A42     		cmp	r2, r3
 299 0034 02D9     		bls	.L26
 300              		.loc 1 128 0 is_stmt 0 discriminator 1
 301 0036 0548     		ldr	r0, .L28+4
 302 0038 FFF7FEFF 		bl	chDbgPanic
 303              	.LVL21:
 304              	.L26:
 305              		.loc 1 128 0 discriminator 3
 306 003c 2946     		mov	r1, r5
 307 003e A069     		ldr	r0, [r4, #24]
 308              	.LBE21:
 309              		.loc 1 129 0 is_stmt 1 discriminator 3
 310 0040 BDE87040 		pop	{r4, r5, r6, lr}
 311              		.cfi_restore 14
 312              		.cfi_restore 6
 313              		.cfi_restore 5
 314              		.cfi_restore 4
 315              		.cfi_def_cfa_offset 0
 316              	.LVL22:
 317              	.LBB22:
 318              		.loc 1 128 0 discriminator 3
 319 0044 FFF7FEBF 		b	_port_switch
 320              	.LVL23:
 321              	.L29:
 322              		.align	2
 323              	.L28:
 324 0048 00000000 		.word	.LANCHOR0
 325 004c 00000000 		.word	.LC1
 326              	.LBE22:
 327              		.cfi_endproc
 328              	.LFE9:
 329              		.size	chSchGoSleepS, .-chSchGoSleepS
 330              		.section	.text.chSchGoSleepTimeoutS,"ax",%progbits
 331              		.align	1
 332              		.p2align 4,,15
 333              		.global	chSchGoSleepTimeoutS
 334              		.syntax unified
 335              		.thumb
 336              		.thumb_func
 337              		.fpu fpv4-sp-d16
 338              		.type	chSchGoSleepTimeoutS, %function
 339              	chSchGoSleepTimeoutS:
 340              	.LFB11:
 341              		.loc 1 189 0
 342              		.cfi_startproc
ARM GAS  /tmp/ccaUg1g3.s 			page 7


 343              		@ args = 0, pretend = 0, frame = 24
 344              		@ frame_needed = 0, uses_anonymous_args = 0
 345              	.LVL24:
 346 0000 70B5     		push	{r4, r5, r6, lr}
 347              		.cfi_def_cfa_offset 16
 348              		.cfi_offset 4, -16
 349              		.cfi_offset 5, -12
 350              		.cfi_offset 6, -8
 351              		.cfi_offset 14, -4
 352 0002 0D46     		mov	r5, r1
 353 0004 86B0     		sub	sp, sp, #24
 354              		.cfi_def_cfa_offset 40
 355              		.loc 1 189 0
 356 0006 0646     		mov	r6, r0
 357              		.loc 1 191 0
 358 0008 FFF7FEFF 		bl	chDbgCheckClassS
 359              	.LVL25:
 360              		.loc 1 193 0
 361 000c 6B1C     		adds	r3, r5, #1
 362 000e 12D0     		beq	.L31
 363              	.LBB23:
 364              		.loc 1 196 0
 365 0010 0D4C     		ldr	r4, .L38
 366 0012 0E4A     		ldr	r2, .L38+4
 367 0014 A369     		ldr	r3, [r4, #24]
 368 0016 2946     		mov	r1, r5
 369 0018 01A8     		add	r0, sp, #4
 370 001a FFF7FEFF 		bl	chVTSetI
 371              	.LVL26:
 372              		.loc 1 197 0
 373 001e 3046     		mov	r0, r6
 374 0020 FFF7FEFF 		bl	chSchGoSleepS
 375              	.LVL27:
 376              		.loc 1 198 0
 377 0024 049B     		ldr	r3, [sp, #16]
 378 0026 13B1     		cbz	r3, .L33
 379              		.loc 1 199 0
 380 0028 01A8     		add	r0, sp, #4
 381 002a FFF7FEFF 		bl	chVTResetI
 382              	.LVL28:
 383              	.L33:
 384              	.LBE23:
 385              		.loc 1 203 0
 386 002e A369     		ldr	r3, [r4, #24]
 387              		.loc 1 204 0
 388 0030 986A     		ldr	r0, [r3, #40]
 389 0032 06B0     		add	sp, sp, #24
 390              		.cfi_remember_state
 391              		.cfi_def_cfa_offset 16
 392              		@ sp needed
 393 0034 70BD     		pop	{r4, r5, r6, pc}
 394              	.LVL29:
 395              	.L31:
 396              		.cfi_restore_state
 397 0036 044C     		ldr	r4, .L38
 398              		.loc 1 202 0
 399 0038 3046     		mov	r0, r6
ARM GAS  /tmp/ccaUg1g3.s 			page 8


 400 003a FFF7FEFF 		bl	chSchGoSleepS
 401              	.LVL30:
 402              		.loc 1 203 0
 403 003e A369     		ldr	r3, [r4, #24]
 404              		.loc 1 204 0
 405 0040 986A     		ldr	r0, [r3, #40]
 406 0042 06B0     		add	sp, sp, #24
 407              		.cfi_def_cfa_offset 16
 408              		@ sp needed
 409 0044 70BD     		pop	{r4, r5, r6, pc}
 410              	.LVL31:
 411              	.L39:
 412 0046 00BF     		.align	2
 413              	.L38:
 414 0048 00000000 		.word	.LANCHOR0
 415 004c 00000000 		.word	wakeup
 416              		.cfi_endproc
 417              	.LFE11:
 418              		.size	chSchGoSleepTimeoutS, .-chSchGoSleepTimeoutS
 419              		.section	.text.chSchWakeupS,"ax",%progbits
 420              		.align	1
 421              		.p2align 4,,15
 422              		.global	chSchWakeupS
 423              		.syntax unified
 424              		.thumb
 425              		.thumb_func
 426              		.fpu fpv4-sp-d16
 427              		.type	chSchWakeupS, %function
 428              	chSchWakeupS:
 429              	.LFB12:
 430              		.loc 1 225 0
 431              		.cfi_startproc
 432              		@ args = 0, pretend = 0, frame = 0
 433              		@ frame_needed = 0, uses_anonymous_args = 0
 434              	.LVL32:
 435 0000 70B5     		push	{r4, r5, r6, lr}
 436              		.cfi_def_cfa_offset 16
 437              		.cfi_offset 4, -16
 438              		.cfi_offset 5, -12
 439              		.cfi_offset 6, -8
 440              		.cfi_offset 14, -4
 441              		.loc 1 234 0
 442 0002 164D     		ldr	r5, .L46
 443              		.loc 1 225 0
 444 0004 0446     		mov	r4, r0
 445 0006 0E46     		mov	r6, r1
 446              		.loc 1 227 0
 447 0008 FFF7FEFF 		bl	chDbgCheckClassS
 448              	.LVL33:
 449              		.loc 1 234 0
 450 000c A869     		ldr	r0, [r5, #24]
 451 000e A268     		ldr	r2, [r4, #8]
 452 0010 8368     		ldr	r3, [r0, #8]
 453              		.loc 1 229 0
 454 0012 A662     		str	r6, [r4, #40]
 455              		.loc 1 234 0
 456 0014 9A42     		cmp	r2, r3
ARM GAS  /tmp/ccaUg1g3.s 			page 9


 457 0016 13D9     		bls	.L44
 458              	.LBB24:
 459              		.loc 1 237 0
 460 0018 FFF7FEFF 		bl	chSchReadyI
 461              	.LVL34:
 462              		.loc 1 239 0
 463 001c 0123     		movs	r3, #1
 464              		.loc 1 237 0
 465 001e 0646     		mov	r6, r0
 466              	.LVL35:
 467              		.loc 1 239 0
 468 0020 84F82030 		strb	r3, [r4, #32]
 469              		.loc 1 238 0
 470 0024 AC61     		str	r4, [r5, #24]
 471              		.loc 1 240 0
 472 0026 FFF7FEFF 		bl	dbg_trace
 473              	.LVL36:
 474              	.LBB25:
 475 002a F269     		ldr	r2, [r6, #28]
 476 002c ADF16403 		sub	r3, sp, #100
 477 0030 9A42     		cmp	r2, r3
 478 0032 0AD8     		bhi	.L45
 479              		.loc 1 240 0 is_stmt 0 discriminator 3
 480 0034 3146     		mov	r1, r6
 481 0036 2046     		mov	r0, r4
 482              	.LBE25:
 483              	.LBE24:
 484              		.loc 1 242 0 is_stmt 1 discriminator 3
 485 0038 BDE87040 		pop	{r4, r5, r6, lr}
 486              		.cfi_remember_state
 487              		.cfi_restore 14
 488              		.cfi_restore 6
 489              		.cfi_restore 5
 490              		.cfi_restore 4
 491              		.cfi_def_cfa_offset 0
 492              	.LVL37:
 493              	.LBB29:
 494              	.LBB26:
 495              		.loc 1 240 0 discriminator 3
 496 003c FFF7FEBF 		b	_port_switch
 497              	.LVL38:
 498              	.L44:
 499              		.cfi_restore_state
 500              	.LBE26:
 501              	.LBE29:
 502              		.loc 1 235 0
 503 0040 2046     		mov	r0, r4
 504              		.loc 1 242 0
 505 0042 BDE87040 		pop	{r4, r5, r6, lr}
 506              		.cfi_remember_state
 507              		.cfi_restore 14
 508              		.cfi_restore 6
 509              		.cfi_restore 5
 510              		.cfi_restore 4
 511              		.cfi_def_cfa_offset 0
 512              	.LVL39:
 513              		.loc 1 235 0
ARM GAS  /tmp/ccaUg1g3.s 			page 10


 514 0046 FFF7FEBF 		b	chSchReadyI
 515              	.LVL40:
 516              	.L45:
 517              		.cfi_restore_state
 518              	.LBB30:
 519              	.LBB27:
 520              		.loc 1 240 0 discriminator 1
 521 004a 0548     		ldr	r0, .L46+4
 522 004c FFF7FEFF 		bl	chDbgPanic
 523              	.LVL41:
 524 0050 3146     		mov	r1, r6
 525 0052 2046     		mov	r0, r4
 526              	.LBE27:
 527              	.LBE30:
 528              		.loc 1 242 0 discriminator 1
 529 0054 BDE87040 		pop	{r4, r5, r6, lr}
 530              		.cfi_restore 14
 531              		.cfi_restore 6
 532              		.cfi_restore 5
 533              		.cfi_restore 4
 534              		.cfi_def_cfa_offset 0
 535              	.LVL42:
 536              	.LBB31:
 537              	.LBB28:
 538              		.loc 1 240 0 discriminator 1
 539 0058 FFF7FEBF 		b	_port_switch
 540              	.LVL43:
 541              	.L47:
 542              		.align	2
 543              	.L46:
 544 005c 00000000 		.word	.LANCHOR0
 545 0060 00000000 		.word	.LC1
 546              	.LBE28:
 547              	.LBE31:
 548              		.cfi_endproc
 549              	.LFE12:
 550              		.size	chSchWakeupS, .-chSchWakeupS
 551              		.section	.text.chSchDoRescheduleBehind,"ax",%progbits
 552              		.align	1
 553              		.p2align 4,,15
 554              		.global	chSchDoRescheduleBehind
 555              		.syntax unified
 556              		.thumb
 557              		.thumb_func
 558              		.fpu fpv4-sp-d16
 559              		.type	chSchDoRescheduleBehind, %function
 560              	chSchDoRescheduleBehind:
 561              	.LFB14:
 562              		.loc 1 304 0
 563              		.cfi_startproc
 564              		@ args = 0, pretend = 0, frame = 0
 565              		@ frame_needed = 0, uses_anonymous_args = 0
 566 0000 38B5     		push	{r3, r4, r5, lr}
 567              		.cfi_def_cfa_offset 16
 568              		.cfi_offset 3, -16
 569              		.cfi_offset 4, -12
 570              		.cfi_offset 5, -8
ARM GAS  /tmp/ccaUg1g3.s 			page 11


 571              		.cfi_offset 14, -4
 572              		.loc 1 307 0
 573 0002 104C     		ldr	r4, .L51
 574              	.LBB32:
 575              	.LBB33:
 576              		.loc 2 60 0
 577 0004 2368     		ldr	r3, [r4]
 578              	.LBE33:
 579              	.LBE32:
 580              		.loc 1 307 0
 581 0006 A569     		ldr	r5, [r4, #24]
 582              	.LVL44:
 583              	.LBB36:
 584              	.LBB34:
 585              		.loc 2 62 0
 586 0008 1A68     		ldr	r2, [r3]
 587 000a 2260     		str	r2, [r4]
 588              	.LBE34:
 589              	.LBE36:
 590              		.loc 1 312 0
 591 000c 0421     		movs	r1, #4
 592              		.loc 1 310 0
 593 000e 0120     		movs	r0, #1
 594              	.LBB37:
 595              	.LBB35:
 596              		.loc 2 62 0
 597 0010 5460     		str	r4, [r2, #4]
 598              	.LVL45:
 599              	.LBE35:
 600              	.LBE37:
 601              		.loc 1 310 0
 602 0012 83F82000 		strb	r0, [r3, #32]
 603              		.loc 1 312 0
 604 0016 85F82310 		strb	r1, [r5, #35]
 605              		.loc 1 314 0
 606 001a 2846     		mov	r0, r5
 607              		.loc 1 309 0
 608 001c A361     		str	r3, [r4, #24]
 609              		.loc 1 314 0
 610 001e FFF7FEFF 		bl	chSchReadyI
 611              	.LVL46:
 612              		.loc 1 315 0
 613 0022 2846     		mov	r0, r5
 614 0024 FFF7FEFF 		bl	dbg_trace
 615              	.LVL47:
 616              	.LBB38:
 617 0028 EA69     		ldr	r2, [r5, #28]
 618 002a ADF16403 		sub	r3, sp, #100
 619 002e 9A42     		cmp	r2, r3
 620 0030 02D9     		bls	.L49
 621              		.loc 1 315 0 is_stmt 0 discriminator 1
 622 0032 0548     		ldr	r0, .L51+4
 623 0034 FFF7FEFF 		bl	chDbgPanic
 624              	.LVL48:
 625              	.L49:
 626              		.loc 1 315 0 discriminator 3
 627 0038 2946     		mov	r1, r5
ARM GAS  /tmp/ccaUg1g3.s 			page 12


 628 003a A069     		ldr	r0, [r4, #24]
 629              	.LBE38:
 630              		.loc 1 316 0 is_stmt 1 discriminator 3
 631 003c BDE83840 		pop	{r3, r4, r5, lr}
 632              		.cfi_restore 14
 633              		.cfi_restore 5
 634              		.cfi_restore 4
 635              		.cfi_restore 3
 636              		.cfi_def_cfa_offset 0
 637              	.LVL49:
 638              	.LBB39:
 639              		.loc 1 315 0 discriminator 3
 640 0040 FFF7FEBF 		b	_port_switch
 641              	.LVL50:
 642              	.L52:
 643              		.align	2
 644              	.L51:
 645 0044 00000000 		.word	.LANCHOR0
 646 0048 00000000 		.word	.LC1
 647              	.LBE39:
 648              		.cfi_endproc
 649              	.LFE14:
 650              		.size	chSchDoRescheduleBehind, .-chSchDoRescheduleBehind
 651              		.section	.text.chSchDoRescheduleAhead,"ax",%progbits
 652              		.align	1
 653              		.p2align 4,,15
 654              		.global	chSchDoRescheduleAhead
 655              		.syntax unified
 656              		.thumb
 657              		.thumb_func
 658              		.fpu fpv4-sp-d16
 659              		.type	chSchDoRescheduleAhead, %function
 660              	chSchDoRescheduleAhead:
 661              	.LFB15:
 662              		.loc 1 329 0
 663              		.cfi_startproc
 664              		@ args = 0, pretend = 0, frame = 0
 665              		@ frame_needed = 0, uses_anonymous_args = 0
 666 0000 38B5     		push	{r3, r4, r5, lr}
 667              		.cfi_def_cfa_offset 16
 668              		.cfi_offset 3, -16
 669              		.cfi_offset 4, -12
 670              		.cfi_offset 5, -8
 671              		.cfi_offset 14, -4
 672              		.loc 1 332 0
 673 0002 154D     		ldr	r5, .L59
 674              	.LBB40:
 675              	.LBB41:
 676              		.loc 2 60 0
 677 0004 2B68     		ldr	r3, [r5]
 678              	.LBE41:
 679              	.LBE40:
 680              		.loc 1 332 0
 681 0006 AC69     		ldr	r4, [r5, #24]
 682              	.LVL51:
 683              	.LBB44:
 684              	.LBB42:
ARM GAS  /tmp/ccaUg1g3.s 			page 13


 685              		.loc 2 62 0
 686 0008 1A68     		ldr	r2, [r3]
 687 000a 2A60     		str	r2, [r5]
 688              	.LBE42:
 689              	.LBE44:
 690              		.loc 1 335 0
 691 000c 0121     		movs	r1, #1
 692              	.LBB45:
 693              	.LBB43:
 694              		.loc 2 62 0
 695 000e 5560     		str	r5, [r2, #4]
 696              	.LVL52:
 697              	.LBE43:
 698              	.LBE45:
 699              		.loc 1 335 0
 700 0010 83F82010 		strb	r1, [r3, #32]
 701              		.loc 1 337 0
 702 0014 0022     		movs	r2, #0
 703              		.loc 1 341 0
 704 0016 A168     		ldr	r1, [r4, #8]
 705              		.loc 1 337 0
 706 0018 84F82020 		strb	r2, [r4, #32]
 707              	.LVL53:
 708              		.loc 1 334 0
 709 001c AB61     		str	r3, [r5, #24]
 710 001e 00E0     		b	.L55
 711              	.LVL54:
 712              	.L58:
 713 0020 1B68     		ldr	r3, [r3]
 714              	.L55:
 715              		.loc 1 341 0 discriminator 1
 716 0022 9A68     		ldr	r2, [r3, #8]
 717 0024 8A42     		cmp	r2, r1
 718 0026 FBD8     		bhi	.L58
 719              		.loc 1 344 0
 720 0028 5A68     		ldr	r2, [r3, #4]
 721 002a C4E90032 		strd	r3, r2, [r4]
 722              		.loc 1 345 0
 723 002e 5C60     		str	r4, [r3, #4]
 724 0030 6368     		ldr	r3, [r4, #4]
 725              		.loc 1 347 0
 726 0032 2046     		mov	r0, r4
 727              		.loc 1 345 0
 728 0034 1C60     		str	r4, [r3]
 729              		.loc 1 347 0
 730 0036 FFF7FEFF 		bl	dbg_trace
 731              	.LVL55:
 732              	.LBB46:
 733 003a E269     		ldr	r2, [r4, #28]
 734 003c ADF16403 		sub	r3, sp, #100
 735 0040 9A42     		cmp	r2, r3
 736 0042 02D9     		bls	.L56
 737              		.loc 1 347 0 is_stmt 0 discriminator 1
 738 0044 0548     		ldr	r0, .L59+4
 739 0046 FFF7FEFF 		bl	chDbgPanic
 740              	.LVL56:
 741              	.L56:
ARM GAS  /tmp/ccaUg1g3.s 			page 14


 742              		.loc 1 347 0 discriminator 3
 743 004a 2146     		mov	r1, r4
 744 004c A869     		ldr	r0, [r5, #24]
 745              	.LBE46:
 746              		.loc 1 348 0 is_stmt 1 discriminator 3
 747 004e BDE83840 		pop	{r3, r4, r5, lr}
 748              		.cfi_restore 14
 749              		.cfi_restore 5
 750              		.cfi_restore 4
 751              		.cfi_restore 3
 752              		.cfi_def_cfa_offset 0
 753              	.LVL57:
 754              	.LBB47:
 755              		.loc 1 347 0 discriminator 3
 756 0052 FFF7FEBF 		b	_port_switch
 757              	.LVL58:
 758              	.L60:
 759 0056 00BF     		.align	2
 760              	.L59:
 761 0058 00000000 		.word	.LANCHOR0
 762 005c 00000000 		.word	.LC1
 763              	.LBE47:
 764              		.cfi_endproc
 765              	.LFE15:
 766              		.size	chSchDoRescheduleAhead, .-chSchDoRescheduleAhead
 767              		.section	.text.chSchRescheduleS,"ax",%progbits
 768              		.align	1
 769              		.p2align 4,,15
 770              		.global	chSchRescheduleS
 771              		.syntax unified
 772              		.thumb
 773              		.thumb_func
 774              		.fpu fpv4-sp-d16
 775              		.type	chSchRescheduleS, %function
 776              	chSchRescheduleS:
 777              	.LFB13:
 778              		.loc 1 253 0
 779              		.cfi_startproc
 780              		@ args = 0, pretend = 0, frame = 0
 781              		@ frame_needed = 0, uses_anonymous_args = 0
 782 0000 08B5     		push	{r3, lr}
 783              		.cfi_def_cfa_offset 8
 784              		.cfi_offset 3, -8
 785              		.cfi_offset 14, -4
 786              		.loc 1 255 0
 787 0002 FFF7FEFF 		bl	chDbgCheckClassS
 788              	.LVL59:
 789              		.loc 1 257 0
 790 0006 064B     		ldr	r3, .L65
 791 0008 1A68     		ldr	r2, [r3]
 792 000a 9B69     		ldr	r3, [r3, #24]
 793 000c 9268     		ldr	r2, [r2, #8]
 794 000e 9B68     		ldr	r3, [r3, #8]
 795 0010 9A42     		cmp	r2, r3
 796 0012 00D8     		bhi	.L64
 797              		.loc 1 259 0
 798 0014 08BD     		pop	{r3, pc}
ARM GAS  /tmp/ccaUg1g3.s 			page 15


 799              	.L64:
 800 0016 BDE80840 		pop	{r3, lr}
 801              		.cfi_restore 14
 802              		.cfi_restore 3
 803              		.cfi_def_cfa_offset 0
 804              		.loc 1 258 0
 805 001a FFF7FEBF 		b	chSchDoRescheduleAhead
 806              	.LVL60:
 807              	.L66:
 808 001e 00BF     		.align	2
 809              	.L65:
 810 0020 00000000 		.word	.LANCHOR0
 811              		.cfi_endproc
 812              	.LFE13:
 813              		.size	chSchRescheduleS, .-chSchRescheduleS
 814              		.section	.text.chSchDoReschedule,"ax",%progbits
 815              		.align	1
 816              		.p2align 4,,15
 817              		.global	chSchDoReschedule
 818              		.syntax unified
 819              		.thumb
 820              		.thumb_func
 821              		.fpu fpv4-sp-d16
 822              		.type	chSchDoReschedule, %function
 823              	chSchDoReschedule:
 824              	.LFB16:
 825              		.loc 1 362 0
 826              		.cfi_startproc
 827              		@ args = 0, pretend = 0, frame = 0
 828              		@ frame_needed = 0, uses_anonymous_args = 0
 829              		@ link register save eliminated.
 830              		.loc 1 367 0
 831 0000 044B     		ldr	r3, .L70
 832 0002 9B69     		ldr	r3, [r3, #24]
 833 0004 93F82330 		ldrb	r3, [r3, #35]	@ zero_extendqisi2
 834 0008 0BB1     		cbz	r3, .L69
 835              		.loc 1 375 0
 836 000a FFF7FEBF 		b	chSchDoRescheduleAhead
 837              	.LVL61:
 838              	.L69:
 839              		.loc 1 370 0
 840 000e FFF7FEBF 		b	chSchDoRescheduleBehind
 841              	.LVL62:
 842              	.L71:
 843 0012 00BF     		.align	2
 844              	.L70:
 845 0014 00000000 		.word	.LANCHOR0
 846              		.cfi_endproc
 847              	.LFE16:
 848              		.size	chSchDoReschedule, .-chSchDoReschedule
 849              		.global	rlist
 850              		.section	.bss.rlist,"aw",%nobits
 851              		.align	2
 852              		.set	.LANCHOR0,. + 0
 853              		.type	rlist, %object
 854              		.size	rlist, 28
 855              	rlist:
ARM GAS  /tmp/ccaUg1g3.s 			page 16


 856 0000 00000000 		.space	28
 856      00000000 
 856      00000000 
 856      00000000 
 856      00000000 
 857              		.section	.rodata.chSchGoSleepS.str1.4,"aMS",%progbits,1
 858              		.align	2
 859              	.LC1:
 860 0000 73746163 		.ascii	"stack overflow\000"
 860      6B206F76 
 860      6572666C 
 860      6F7700
 861              		.section	.rodata.chSchReadyI.str1.4,"aMS",%progbits,1
 862              		.align	2
 863              	.LC0:
 864 0000 63685363 		.ascii	"chSchReadyI(), #1\000"
 864      68526561 
 864      64794928 
 864      292C2023 
 864      3100
 865              		.text
 866              	.Letext0:
 867              		.file 3 "/usr/arm-none-eabi/include/machine/_default_types.h"
 868              		.file 4 "/usr/arm-none-eabi/include/sys/_stdint.h"
 869              		.file 5 "ChibiOS_2.6.6/os/ports/GCC/ARMCMx/chtypes.h"
 870              		.file 6 "ChibiOS_2.6.6/os/kernel/include/chlists.h"
 871              		.file 7 "ChibiOS_2.6.6/os/kernel/include/chthreads.h"
 872              		.file 8 "ChibiOS_2.6.6/os/ports/GCC/ARMCMx/chcore_v7m.h"
 873              		.file 9 "ChibiOS_2.6.6/os/kernel/include/chvt.h"
 874              		.file 10 "ChibiOS_2.6.6/os/kernel/include/chschd.h"
 875              		.file 11 "ChibiOS_2.6.6/os/kernel/include/chsem.h"
 876              		.file 12 "ChibiOS_2.6.6/os/kernel/include/chmtx.h"
 877              		.file 13 "ChibiOS_2.6.6/os/kernel/include/chregistry.h"
 878              		.file 14 "ChibiOS_2.6.6/os/kernel/include/chdebug.h"
 879              		.file 15 "ChibiOS_2.6.6/os/kernel/include/ch.h"