ARM GAS  /tmp/ccLwS4hg.s 			page 1


   1              		.cpu cortex-m4
   2              		.eabi_attribute 27, 1
   3              		.eabi_attribute 28, 1
   4              		.eabi_attribute 20, 1
   5              		.eabi_attribute 21, 1
   6              		.eabi_attribute 23, 3
   7              		.eabi_attribute 24, 1
   8              		.eabi_attribute 25, 1
   9              		.eabi_attribute 26, 1
  10              		.eabi_attribute 30, 2
  11              		.eabi_attribute 34, 1
  12              		.eabi_attribute 18, 4
  13              		.file	"chsem.c"
  14              		.text
  15              	.Ltext0:
  16              		.cfi_sections	.debug_frame
  17              		.section	.text.chSemInit,"ax",%progbits
  18              		.align	1
  19              		.p2align 4,,15
  20              		.global	chSemInit
  21              		.syntax unified
  22              		.thumb
  23              		.thumb_func
  24              		.fpu fpv4-sp-d16
  25              		.type	chSemInit, %function
  26              	chSemInit:
  27              	.LFB7:
  28              		.file 1 "ChibiOS_2.6.6/os/kernel/src/chsem.c"
  29              		.loc 1 86 0
  30              		.cfi_startproc
  31              		@ args = 0, pretend = 0, frame = 0
  32              		@ frame_needed = 0, uses_anonymous_args = 0
  33              	.LVL0:
  34 0000 38B5     		push	{r3, r4, r5, lr}
  35              		.cfi_def_cfa_offset 16
  36              		.cfi_offset 3, -16
  37              		.cfi_offset 4, -12
  38              		.cfi_offset 5, -8
  39              		.cfi_offset 14, -4
  40              		.loc 1 86 0
  41 0002 0D46     		mov	r5, r1
  42              		.loc 1 88 0
  43 0004 0446     		mov	r4, r0
  44 0006 28B1     		cbz	r0, .L2
  45              		.loc 1 88 0 is_stmt 0 discriminator 2
  46 0008 0029     		cmp	r1, #0
  47 000a 03DB     		blt	.L2
  48              		.loc 1 90 0 is_stmt 1
  49 000c C4E90044 		strd	r4, r4, [r4]
  50              		.loc 1 91 0
  51 0010 A560     		str	r5, [r4, #8]
  52              		.loc 1 92 0
  53 0012 38BD     		pop	{r3, r4, r5, pc}
  54              	.L2:
  55              		.loc 1 88 0 discriminator 3
  56 0014 0348     		ldr	r0, .L9
  57              	.LVL1:
ARM GAS  /tmp/ccLwS4hg.s 			page 2


  58 0016 FFF7FEFF 		bl	chDbgPanic
  59              	.LVL2:
  60              		.loc 1 90 0 discriminator 3
  61 001a C4E90044 		strd	r4, r4, [r4]
  62              		.loc 1 91 0 discriminator 3
  63 001e A560     		str	r5, [r4, #8]
  64              		.loc 1 92 0 discriminator 3
  65 0020 38BD     		pop	{r3, r4, r5, pc}
  66              	.LVL3:
  67              	.L10:
  68 0022 00BF     		.align	2
  69              	.L9:
  70 0024 00000000 		.word	.LC0
  71              		.cfi_endproc
  72              	.LFE7:
  73              		.size	chSemInit, .-chSemInit
  74              		.section	.text.chSemResetI,"ax",%progbits
  75              		.align	1
  76              		.p2align 4,,15
  77              		.global	chSemResetI
  78              		.syntax unified
  79              		.thumb
  80              		.thumb_func
  81              		.fpu fpv4-sp-d16
  82              		.type	chSemResetI, %function
  83              	chSemResetI:
  84              	.LFB9:
  85              		.loc 1 136 0
  86              		.cfi_startproc
  87              		@ args = 0, pretend = 0, frame = 0
  88              		@ frame_needed = 0, uses_anonymous_args = 0
  89              	.LVL4:
  90 0000 70B5     		push	{r4, r5, r6, lr}
  91              		.cfi_def_cfa_offset 16
  92              		.cfi_offset 4, -16
  93              		.cfi_offset 5, -12
  94              		.cfi_offset 6, -8
  95              		.cfi_offset 14, -4
  96              		.loc 1 136 0
  97 0002 0446     		mov	r4, r0
  98 0004 0E46     		mov	r6, r1
  99              		.loc 1 139 0
 100 0006 FFF7FEFF 		bl	chDbgCheckClassI
 101              	.LVL5:
 102              		.loc 1 140 0
 103 000a E4B1     		cbz	r4, .L12
 104              		.loc 1 140 0 is_stmt 0 discriminator 2
 105 000c 002E     		cmp	r6, #0
 106 000e 1ADB     		blt	.L12
 107              		.loc 1 141 0 is_stmt 1
 108 0010 A568     		ldr	r5, [r4, #8]
 109 0012 2368     		ldr	r3, [r4]
 110 0014 002D     		cmp	r5, #0
 111 0016 1DDB     		blt	.L14
 112              	.L24:
 113              		.loc 1 141 0 is_stmt 0 discriminator 2
 114 0018 9C42     		cmp	r4, r3
ARM GAS  /tmp/ccLwS4hg.s 			page 3


 115 001a 03D0     		beq	.L16
 116              	.L15:
 117              		.loc 1 141 0 discriminator 6
 118 001c 0F48     		ldr	r0, .L25
 119 001e FFF7FEFF 		bl	chDbgPanic
 120              	.LVL6:
 121 0022 A568     		ldr	r5, [r4, #8]
 122              	.L16:
 123              	.LVL7:
 124              		.loc 1 147 0 is_stmt 1
 125 0024 A660     		str	r6, [r4, #8]
 126              	.LVL8:
 127              		.loc 1 148 0
 128 0026 0135     		adds	r5, r5, #1
 129              	.LVL9:
 130 0028 002D     		cmp	r5, #0
 131 002a 0BDC     		bgt	.L11
 132              		.loc 1 149 0
 133 002c 6FF00106 		mvn	r6, #1
 134              	.LVL10:
 135              	.L18:
 136              	.LBB24:
 137              	.LBB25:
 138              		.file 2 "ChibiOS_2.6.6/os/kernel/include/chinline.h"
 139              		.loc 2 67 0
 140 0030 6068     		ldr	r0, [r4, #4]
 141              	.LVL11:
 142              		.loc 2 69 0
 143 0032 4368     		ldr	r3, [r0, #4]
 144 0034 6360     		str	r3, [r4, #4]
 145 0036 1C60     		str	r4, [r3]
 146              	.LVL12:
 147              	.LBE25:
 148              	.LBE24:
 149              		.loc 1 149 0
 150 0038 FFF7FEFF 		bl	chSchReadyI
 151              	.LVL13:
 152              		.loc 1 148 0
 153 003c 0135     		adds	r5, r5, #1
 154              	.LVL14:
 155 003e 012D     		cmp	r5, #1
 156              		.loc 1 149 0
 157 0040 8662     		str	r6, [r0, #40]
 158              	.LVL15:
 159              		.loc 1 148 0
 160 0042 F5D1     		bne	.L18
 161              	.L11:
 162              		.loc 1 150 0
 163 0044 70BD     		pop	{r4, r5, r6, pc}
 164              	.LVL16:
 165              	.L12:
 166              		.loc 1 140 0 discriminator 3
 167 0046 0648     		ldr	r0, .L25+4
 168 0048 FFF7FEFF 		bl	chDbgPanic
 169              	.LVL17:
 170              		.loc 1 141 0 discriminator 3
 171 004c A568     		ldr	r5, [r4, #8]
ARM GAS  /tmp/ccLwS4hg.s 			page 4


 172 004e 2368     		ldr	r3, [r4]
 173 0050 002D     		cmp	r5, #0
 174 0052 E1DA     		bge	.L24
 175              	.L14:
 176              		.loc 1 141 0 is_stmt 0 discriminator 5
 177 0054 9C42     		cmp	r4, r3
 178 0056 E5D1     		bne	.L16
 179 0058 E0E7     		b	.L15
 180              	.L26:
 181 005a 00BF     		.align	2
 182              	.L25:
 183 005c 10000000 		.word	.LC2
 184 0060 00000000 		.word	.LC1
 185              		.cfi_endproc
 186              	.LFE9:
 187              		.size	chSemResetI, .-chSemResetI
 188              		.section	.text.chSemReset,"ax",%progbits
 189              		.align	1
 190              		.p2align 4,,15
 191              		.global	chSemReset
 192              		.syntax unified
 193              		.thumb
 194              		.thumb_func
 195              		.fpu fpv4-sp-d16
 196              		.type	chSemReset, %function
 197              	chSemReset:
 198              	.LFB8:
 199              		.loc 1 109 0 is_stmt 1
 200              		.cfi_startproc
 201              		@ args = 0, pretend = 0, frame = 0
 202              		@ frame_needed = 0, uses_anonymous_args = 0
 203              	.LVL18:
 204 0000 38B5     		push	{r3, r4, r5, lr}
 205              		.cfi_def_cfa_offset 16
 206              		.cfi_offset 3, -16
 207              		.cfi_offset 4, -12
 208              		.cfi_offset 5, -8
 209              		.cfi_offset 14, -4
 210              		.loc 1 109 0
 211 0002 0446     		mov	r4, r0
 212 0004 0D46     		mov	r5, r1
 213              		.loc 1 111 0
 214              		.syntax unified
 215              	@ 111 "ChibiOS_2.6.6/os/kernel/src/chsem.c" 1
 216 0006 72B6     		cpsid   i
 217              	@ 0 "" 2
 218              		.thumb
 219              		.syntax unified
 220 0008 FFF7FEFF 		bl	dbg_check_lock
 221              	.LVL19:
 222              		.loc 1 112 0
 223 000c 2946     		mov	r1, r5
 224 000e 2046     		mov	r0, r4
 225 0010 FFF7FEFF 		bl	chSemResetI
 226              	.LVL20:
 227              		.loc 1 113 0
 228 0014 FFF7FEFF 		bl	chSchRescheduleS
ARM GAS  /tmp/ccLwS4hg.s 			page 5


 229              	.LVL21:
 230              		.loc 1 114 0
 231 0018 FFF7FEFF 		bl	dbg_check_unlock
 232              	.LVL22:
 233              		.syntax unified
 234              	@ 114 "ChibiOS_2.6.6/os/kernel/src/chsem.c" 1
 235 001c 62B6     		cpsie   i
 236              	@ 0 "" 2
 237              		.loc 1 115 0
 238              		.thumb
 239              		.syntax unified
 240 001e 38BD     		pop	{r3, r4, r5, pc}
 241              		.cfi_endproc
 242              	.LFE8:
 243              		.size	chSemReset, .-chSemReset
 244              		.section	.text.chSemWaitS,"ax",%progbits
 245              		.align	1
 246              		.p2align 4,,15
 247              		.global	chSemWaitS
 248              		.syntax unified
 249              		.thumb
 250              		.thumb_func
 251              		.fpu fpv4-sp-d16
 252              		.type	chSemWaitS, %function
 253              	chSemWaitS:
 254              	.LFB11:
 255              		.loc 1 185 0
 256              		.cfi_startproc
 257              		@ args = 0, pretend = 0, frame = 0
 258              		@ frame_needed = 0, uses_anonymous_args = 0
 259              	.LVL23:
 260 0000 38B5     		push	{r3, r4, r5, lr}
 261              		.cfi_def_cfa_offset 16
 262              		.cfi_offset 3, -16
 263              		.cfi_offset 4, -12
 264              		.cfi_offset 5, -8
 265              		.cfi_offset 14, -4
 266              		.loc 1 185 0
 267 0002 0446     		mov	r4, r0
 268              		.loc 1 187 0
 269 0004 FFF7FEFF 		bl	chDbgCheckClassS
 270              	.LVL24:
 271              		.loc 1 188 0
 272 0008 1CB3     		cbz	r4, .L38
 273              	.L30:
 274              		.loc 1 189 0
 275 000a A368     		ldr	r3, [r4, #8]
 276 000c 2268     		ldr	r2, [r4]
 277 000e 002B     		cmp	r3, #0
 278 0010 0BDB     		blt	.L31
 279              		.loc 1 189 0 is_stmt 0 discriminator 2
 280 0012 9442     		cmp	r4, r2
 281 0014 03D0     		beq	.L33
 282              	.L32:
 283              		.loc 1 189 0 discriminator 6
 284 0016 1148     		ldr	r0, .L40
 285 0018 FFF7FEFF 		bl	chDbgPanic
ARM GAS  /tmp/ccLwS4hg.s 			page 6


 286              	.LVL25:
 287 001c A368     		ldr	r3, [r4, #8]
 288              	.L33:
 289              		.loc 1 194 0 is_stmt 1
 290 001e 013B     		subs	r3, r3, #1
 291 0020 002B     		cmp	r3, #0
 292 0022 A360     		str	r3, [r4, #8]
 293 0024 07DB     		blt	.L39
 294              	.L35:
 295              		.loc 1 200 0
 296 0026 0020     		movs	r0, #0
 297              		.loc 1 201 0
 298 0028 38BD     		pop	{r3, r4, r5, pc}
 299              	.LVL26:
 300              	.L31:
 301              		.loc 1 189 0 discriminator 5
 302 002a 9442     		cmp	r4, r2
 303 002c F3D0     		beq	.L32
 304              		.loc 1 194 0
 305 002e 013B     		subs	r3, r3, #1
 306 0030 002B     		cmp	r3, #0
 307 0032 A360     		str	r3, [r4, #8]
 308 0034 F7DA     		bge	.L35
 309              	.L39:
 310              	.LVL27:
 311              	.LBB30:
 312              	.LBB31:
 313              		.loc 1 195 0
 314 0036 0A4D     		ldr	r5, .L40+4
 315              	.LBB32:
 316              	.LBB33:
 317              		.loc 2 55 0
 318 0038 6268     		ldr	r2, [r4, #4]
 319              	.LBE33:
 320              	.LBE32:
 321              		.loc 1 195 0
 322 003a AB69     		ldr	r3, [r5, #24]
 323              		.loc 1 197 0
 324 003c 0320     		movs	r0, #3
 325              		.loc 1 195 0
 326 003e 9C62     		str	r4, [r3, #40]
 327              	.LVL28:
 328              	.LBB35:
 329              	.LBB34:
 330              		.loc 2 55 0
 331 0040 C3E90042 		strd	r4, r2, [r3]
 332              		.loc 2 56 0
 333 0044 6360     		str	r3, [r4, #4]
 334 0046 1360     		str	r3, [r2]
 335              	.LVL29:
 336              	.LBE34:
 337              	.LBE35:
 338              		.loc 1 197 0
 339 0048 FFF7FEFF 		bl	chSchGoSleepS
 340              	.LVL30:
 341              		.loc 1 198 0
 342 004c AB69     		ldr	r3, [r5, #24]
ARM GAS  /tmp/ccLwS4hg.s 			page 7


 343 004e 986A     		ldr	r0, [r3, #40]
 344              	.LVL31:
 345              	.LBE31:
 346              	.LBE30:
 347              		.loc 1 201 0
 348 0050 38BD     		pop	{r3, r4, r5, pc}
 349              	.LVL32:
 350              	.L38:
 351              		.loc 1 188 0 discriminator 1
 352 0052 0448     		ldr	r0, .L40+8
 353 0054 FFF7FEFF 		bl	chDbgPanic
 354              	.LVL33:
 355 0058 D7E7     		b	.L30
 356              	.L41:
 357 005a 00BF     		.align	2
 358              	.L40:
 359 005c 10000000 		.word	.LC4
 360 0060 00000000 		.word	rlist
 361 0064 00000000 		.word	.LC3
 362              		.cfi_endproc
 363              	.LFE11:
 364              		.size	chSemWaitS, .-chSemWaitS
 365              		.section	.text.chSemWait,"ax",%progbits
 366              		.align	1
 367              		.p2align 4,,15
 368              		.global	chSemWait
 369              		.syntax unified
 370              		.thumb
 371              		.thumb_func
 372              		.fpu fpv4-sp-d16
 373              		.type	chSemWait, %function
 374              	chSemWait:
 375              	.LFB10:
 376              		.loc 1 164 0
 377              		.cfi_startproc
 378              		@ args = 0, pretend = 0, frame = 0
 379              		@ frame_needed = 0, uses_anonymous_args = 0
 380              	.LVL34:
 381 0000 10B5     		push	{r4, lr}
 382              		.cfi_def_cfa_offset 8
 383              		.cfi_offset 4, -8
 384              		.cfi_offset 14, -4
 385              		.loc 1 164 0
 386 0002 0446     		mov	r4, r0
 387              		.loc 1 167 0
 388              		.syntax unified
 389              	@ 167 "ChibiOS_2.6.6/os/kernel/src/chsem.c" 1
 390 0004 72B6     		cpsid   i
 391              	@ 0 "" 2
 392              		.thumb
 393              		.syntax unified
 394 0006 FFF7FEFF 		bl	dbg_check_lock
 395              	.LVL35:
 396              		.loc 1 168 0
 397 000a 2046     		mov	r0, r4
 398 000c FFF7FEFF 		bl	chSemWaitS
 399              	.LVL36:
ARM GAS  /tmp/ccLwS4hg.s 			page 8


 400 0010 0446     		mov	r4, r0
 401              	.LVL37:
 402              		.loc 1 169 0
 403 0012 FFF7FEFF 		bl	dbg_check_unlock
 404              	.LVL38:
 405              		.syntax unified
 406              	@ 169 "ChibiOS_2.6.6/os/kernel/src/chsem.c" 1
 407 0016 62B6     		cpsie   i
 408              	@ 0 "" 2
 409              		.loc 1 171 0
 410              		.thumb
 411              		.syntax unified
 412 0018 2046     		mov	r0, r4
 413 001a 10BD     		pop	{r4, pc}
 414              		.cfi_endproc
 415              	.LFE10:
 416              		.size	chSemWait, .-chSemWait
 417              		.section	.text.chSemWaitTimeoutS,"ax",%progbits
 418              		.align	1
 419              		.p2align 4,,15
 420              		.global	chSemWaitTimeoutS
 421              		.syntax unified
 422              		.thumb
 423              		.thumb_func
 424              		.fpu fpv4-sp-d16
 425              		.type	chSemWaitTimeoutS, %function
 426              	chSemWaitTimeoutS:
 427              	.LFB13:
 428              		.loc 1 250 0
 429              		.cfi_startproc
 430              		@ args = 0, pretend = 0, frame = 0
 431              		@ frame_needed = 0, uses_anonymous_args = 0
 432              	.LVL39:
 433 0000 38B5     		push	{r3, r4, r5, lr}
 434              		.cfi_def_cfa_offset 16
 435              		.cfi_offset 3, -16
 436              		.cfi_offset 4, -12
 437              		.cfi_offset 5, -8
 438              		.cfi_offset 14, -4
 439              		.loc 1 250 0
 440 0002 0446     		mov	r4, r0
 441 0004 0D46     		mov	r5, r1
 442              		.loc 1 252 0
 443 0006 FFF7FEFF 		bl	chDbgCheckClassS
 444              	.LVL40:
 445              		.loc 1 253 0
 446 000a 24B3     		cbz	r4, .L54
 447              	.L45:
 448              		.loc 1 254 0
 449 000c A368     		ldr	r3, [r4, #8]
 450 000e 2268     		ldr	r2, [r4]
 451 0010 002B     		cmp	r3, #0
 452 0012 0BDB     		blt	.L46
 453              		.loc 1 254 0 is_stmt 0 discriminator 2
 454 0014 9442     		cmp	r4, r2
 455 0016 03D0     		beq	.L48
 456              	.L47:
ARM GAS  /tmp/ccLwS4hg.s 			page 9


 457              		.loc 1 254 0 discriminator 6
 458 0018 1348     		ldr	r0, .L57
 459 001a FFF7FEFF 		bl	chDbgPanic
 460              	.LVL41:
 461 001e A368     		ldr	r3, [r4, #8]
 462              	.L48:
 463              		.loc 1 259 0 is_stmt 1
 464 0020 5A1E     		subs	r2, r3, #1
 465 0022 002A     		cmp	r2, #0
 466 0024 A260     		str	r2, [r4, #8]
 467 0026 07DB     		blt	.L55
 468              	.L51:
 469              		.loc 1 268 0
 470 0028 0020     		movs	r0, #0
 471              		.loc 1 269 0
 472 002a 38BD     		pop	{r3, r4, r5, pc}
 473              	.LVL42:
 474              	.L46:
 475              		.loc 1 254 0 discriminator 5
 476 002c 9442     		cmp	r4, r2
 477 002e F3D0     		beq	.L47
 478              		.loc 1 259 0
 479 0030 5A1E     		subs	r2, r3, #1
 480 0032 002A     		cmp	r2, #0
 481 0034 A260     		str	r2, [r4, #8]
 482 0036 F7DA     		bge	.L51
 483              	.L55:
 484              		.loc 1 260 0
 485 0038 8DB1     		cbz	r5, .L56
 486              	.LVL43:
 487              	.LBB40:
 488              	.LBB41:
 489              		.loc 1 264 0
 490 003a 0C4B     		ldr	r3, .L57+4
 491              	.LBB42:
 492              	.LBB43:
 493              		.loc 2 55 0
 494 003c 6268     		ldr	r2, [r4, #4]
 495              	.LBE43:
 496              	.LBE42:
 497              		.loc 1 264 0
 498 003e 9B69     		ldr	r3, [r3, #24]
 499              		.loc 1 266 0
 500 0040 2946     		mov	r1, r5
 501              		.loc 1 264 0
 502 0042 9C62     		str	r4, [r3, #40]
 503              	.LVL44:
 504              	.LBB46:
 505              	.LBB44:
 506              		.loc 2 55 0
 507 0044 C3E90042 		strd	r4, r2, [r3]
 508              	.LBE44:
 509              	.LBE46:
 510              		.loc 1 266 0
 511 0048 0320     		movs	r0, #3
 512              	.LBB47:
 513              	.LBB45:
ARM GAS  /tmp/ccLwS4hg.s 			page 10


 514              		.loc 2 56 0
 515 004a 6360     		str	r3, [r4, #4]
 516 004c 1360     		str	r3, [r2]
 517              	.LVL45:
 518              	.LBE45:
 519              	.LBE47:
 520              	.LBE41:
 521              	.LBE40:
 522              		.loc 1 269 0
 523 004e BDE83840 		pop	{r3, r4, r5, lr}
 524              		.cfi_remember_state
 525              		.cfi_restore 14
 526              		.cfi_restore 5
 527              		.cfi_restore 4
 528              		.cfi_restore 3
 529              		.cfi_def_cfa_offset 0
 530              	.LVL46:
 531              	.LBB49:
 532              	.LBB48:
 533              		.loc 1 266 0
 534 0052 FFF7FEBF 		b	chSchGoSleepTimeoutS
 535              	.LVL47:
 536              	.L54:
 537              		.cfi_restore_state
 538              	.LBE48:
 539              	.LBE49:
 540              		.loc 1 253 0 discriminator 1
 541 0056 0648     		ldr	r0, .L57+8
 542 0058 FFF7FEFF 		bl	chDbgPanic
 543              	.LVL48:
 544 005c D6E7     		b	.L45
 545              	.L56:
 546              		.loc 1 261 0
 547 005e A360     		str	r3, [r4, #8]
 548              		.loc 1 262 0
 549 0060 4FF0FF30 		mov	r0, #-1
 550              		.loc 1 269 0
 551 0064 38BD     		pop	{r3, r4, r5, pc}
 552              	.LVL49:
 553              	.L58:
 554 0066 00BF     		.align	2
 555              	.L57:
 556 0068 18000000 		.word	.LC6
 557 006c 00000000 		.word	rlist
 558 0070 00000000 		.word	.LC5
 559              		.cfi_endproc
 560              	.LFE13:
 561              		.size	chSemWaitTimeoutS, .-chSemWaitTimeoutS
 562              		.section	.text.chSemWaitTimeout,"ax",%progbits
 563              		.align	1
 564              		.p2align 4,,15
 565              		.global	chSemWaitTimeout
 566              		.syntax unified
 567              		.thumb
 568              		.thumb_func
 569              		.fpu fpv4-sp-d16
 570              		.type	chSemWaitTimeout, %function
ARM GAS  /tmp/ccLwS4hg.s 			page 11


 571              	chSemWaitTimeout:
 572              	.LFB12:
 573              		.loc 1 222 0
 574              		.cfi_startproc
 575              		@ args = 0, pretend = 0, frame = 0
 576              		@ frame_needed = 0, uses_anonymous_args = 0
 577              	.LVL50:
 578 0000 38B5     		push	{r3, r4, r5, lr}
 579              		.cfi_def_cfa_offset 16
 580              		.cfi_offset 3, -16
 581              		.cfi_offset 4, -12
 582              		.cfi_offset 5, -8
 583              		.cfi_offset 14, -4
 584              		.loc 1 222 0
 585 0002 0446     		mov	r4, r0
 586 0004 0D46     		mov	r5, r1
 587              		.loc 1 225 0
 588              		.syntax unified
 589              	@ 225 "ChibiOS_2.6.6/os/kernel/src/chsem.c" 1
 590 0006 72B6     		cpsid   i
 591              	@ 0 "" 2
 592              		.thumb
 593              		.syntax unified
 594 0008 FFF7FEFF 		bl	dbg_check_lock
 595              	.LVL51:
 596              		.loc 1 226 0
 597 000c 2946     		mov	r1, r5
 598 000e 2046     		mov	r0, r4
 599 0010 FFF7FEFF 		bl	chSemWaitTimeoutS
 600              	.LVL52:
 601 0014 0446     		mov	r4, r0
 602              	.LVL53:
 603              		.loc 1 227 0
 604 0016 FFF7FEFF 		bl	dbg_check_unlock
 605              	.LVL54:
 606              		.syntax unified
 607              	@ 227 "ChibiOS_2.6.6/os/kernel/src/chsem.c" 1
 608 001a 62B6     		cpsie   i
 609              	@ 0 "" 2
 610              		.loc 1 229 0
 611              		.thumb
 612              		.syntax unified
 613 001c 2046     		mov	r0, r4
 614 001e 38BD     		pop	{r3, r4, r5, pc}
 615              		.cfi_endproc
 616              	.LFE12:
 617              		.size	chSemWaitTimeout, .-chSemWaitTimeout
 618              		.section	.text.chSemSignal,"ax",%progbits
 619              		.align	1
 620              		.p2align 4,,15
 621              		.global	chSemSignal
 622              		.syntax unified
 623              		.thumb
 624              		.thumb_func
 625              		.fpu fpv4-sp-d16
 626              		.type	chSemSignal, %function
 627              	chSemSignal:
ARM GAS  /tmp/ccLwS4hg.s 			page 12


 628              	.LFB14:
 629              		.loc 1 278 0
 630              		.cfi_startproc
 631              		@ args = 0, pretend = 0, frame = 0
 632              		@ frame_needed = 0, uses_anonymous_args = 0
 633              	.LVL55:
 634 0000 10B5     		push	{r4, lr}
 635              		.cfi_def_cfa_offset 8
 636              		.cfi_offset 4, -8
 637              		.cfi_offset 14, -4
 638              		.loc 1 280 0
 639 0002 0446     		mov	r4, r0
 640 0004 10B3     		cbz	r0, .L68
 641              	.LVL56:
 642              	.L62:
 643              		.loc 1 281 0
 644 0006 A268     		ldr	r2, [r4, #8]
 645 0008 2368     		ldr	r3, [r4]
 646 000a 002A     		cmp	r2, #0
 647 000c 10DB     		blt	.L63
 648              		.loc 1 281 0 is_stmt 0 discriminator 2
 649 000e 9C42     		cmp	r4, r3
 650 0010 02D0     		beq	.L65
 651              	.L64:
 652              		.loc 1 281 0 discriminator 6
 653 0012 1048     		ldr	r0, .L70
 654 0014 FFF7FEFF 		bl	chDbgPanic
 655              	.LVL57:
 656              	.L65:
 657              		.loc 1 286 0 is_stmt 1
 658              		.syntax unified
 659              	@ 286 "ChibiOS_2.6.6/os/kernel/src/chsem.c" 1
 660 0018 72B6     		cpsid   i
 661              	@ 0 "" 2
 662              		.thumb
 663              		.syntax unified
 664 001a FFF7FEFF 		bl	dbg_check_lock
 665              	.LVL58:
 666              		.loc 1 287 0
 667 001e A368     		ldr	r3, [r4, #8]
 668 0020 0133     		adds	r3, r3, #1
 669 0022 002B     		cmp	r3, #0
 670 0024 A360     		str	r3, [r4, #8]
 671 0026 06DD     		ble	.L69
 672              		.loc 1 289 0
 673 0028 FFF7FEFF 		bl	dbg_check_unlock
 674              	.LVL59:
 675              		.syntax unified
 676              	@ 289 "ChibiOS_2.6.6/os/kernel/src/chsem.c" 1
 677 002c 62B6     		cpsie   i
 678              	@ 0 "" 2
 679              		.loc 1 290 0
 680              		.thumb
 681              		.syntax unified
 682 002e 10BD     		pop	{r4, pc}
 683              	.LVL60:
 684              	.L63:
ARM GAS  /tmp/ccLwS4hg.s 			page 13


 685              		.loc 1 281 0 discriminator 5
 686 0030 9C42     		cmp	r4, r3
 687 0032 F1D1     		bne	.L65
 688 0034 EDE7     		b	.L64
 689              	.L69:
 690              	.LVL61:
 691              	.LBB50:
 692              	.LBB51:
 693              		.loc 2 60 0
 694 0036 2068     		ldr	r0, [r4]
 695              	.LVL62:
 696              		.loc 2 62 0
 697 0038 0368     		ldr	r3, [r0]
 698 003a 2360     		str	r3, [r4]
 699              	.LBE51:
 700              	.LBE50:
 701              		.loc 1 288 0
 702 003c 0021     		movs	r1, #0
 703              	.LBB53:
 704              	.LBB52:
 705              		.loc 2 62 0
 706 003e 5C60     		str	r4, [r3, #4]
 707              	.LVL63:
 708              	.LBE52:
 709              	.LBE53:
 710              		.loc 1 288 0
 711 0040 FFF7FEFF 		bl	chSchWakeupS
 712              	.LVL64:
 713              		.loc 1 289 0
 714 0044 FFF7FEFF 		bl	dbg_check_unlock
 715              	.LVL65:
 716              		.syntax unified
 717              	@ 289 "ChibiOS_2.6.6/os/kernel/src/chsem.c" 1
 718 0048 62B6     		cpsie   i
 719              	@ 0 "" 2
 720              		.loc 1 290 0
 721              		.thumb
 722              		.syntax unified
 723 004a 10BD     		pop	{r4, pc}
 724              	.LVL66:
 725              	.L68:
 726              		.loc 1 280 0 discriminator 1
 727 004c 0248     		ldr	r0, .L70+4
 728              	.LVL67:
 729 004e FFF7FEFF 		bl	chDbgPanic
 730              	.LVL68:
 731 0052 D8E7     		b	.L62
 732              	.L71:
 733              		.align	2
 734              	.L70:
 735 0054 10000000 		.word	.LC8
 736 0058 00000000 		.word	.LC7
 737              		.cfi_endproc
 738              	.LFE14:
 739              		.size	chSemSignal, .-chSemSignal
 740              		.section	.text.chSemSignalI,"ax",%progbits
 741              		.align	1
ARM GAS  /tmp/ccLwS4hg.s 			page 14


 742              		.p2align 4,,15
 743              		.global	chSemSignalI
 744              		.syntax unified
 745              		.thumb
 746              		.thumb_func
 747              		.fpu fpv4-sp-d16
 748              		.type	chSemSignalI, %function
 749              	chSemSignalI:
 750              	.LFB15:
 751              		.loc 1 303 0
 752              		.cfi_startproc
 753              		@ args = 0, pretend = 0, frame = 0
 754              		@ frame_needed = 0, uses_anonymous_args = 0
 755              	.LVL69:
 756 0000 10B5     		push	{r4, lr}
 757              		.cfi_def_cfa_offset 8
 758              		.cfi_offset 4, -8
 759              		.cfi_offset 14, -4
 760              		.loc 1 303 0
 761 0002 0446     		mov	r4, r0
 762              		.loc 1 305 0
 763 0004 FFF7FEFF 		bl	chDbgCheckClassI
 764              	.LVL70:
 765              		.loc 1 306 0
 766 0008 FCB1     		cbz	r4, .L80
 767              	.L73:
 768              		.loc 1 307 0
 769 000a A368     		ldr	r3, [r4, #8]
 770 000c 2268     		ldr	r2, [r4]
 771 000e 002B     		cmp	r3, #0
 772 0010 0ADB     		blt	.L74
 773              		.loc 1 307 0 is_stmt 0 discriminator 2
 774 0012 9442     		cmp	r4, r2
 775 0014 03D0     		beq	.L76
 776              	.L75:
 777              		.loc 1 307 0 discriminator 6
 778 0016 0F48     		ldr	r0, .L82
 779 0018 FFF7FEFF 		bl	chDbgPanic
 780              	.LVL71:
 781 001c A368     		ldr	r3, [r4, #8]
 782              	.L76:
 783              		.loc 1 312 0 is_stmt 1
 784 001e 0133     		adds	r3, r3, #1
 785 0020 002B     		cmp	r3, #0
 786 0022 A360     		str	r3, [r4, #8]
 787 0024 06DD     		ble	.L81
 788              	.L72:
 789              		.loc 1 319 0
 790 0026 10BD     		pop	{r4, pc}
 791              	.LVL72:
 792              	.L74:
 793              		.loc 1 307 0 discriminator 5
 794 0028 9442     		cmp	r4, r2
 795 002a F4D0     		beq	.L75
 796              		.loc 1 312 0
 797 002c 0133     		adds	r3, r3, #1
 798 002e 002B     		cmp	r3, #0
ARM GAS  /tmp/ccLwS4hg.s 			page 15


 799 0030 A360     		str	r3, [r4, #8]
 800 0032 F8DC     		bgt	.L72
 801              	.L81:
 802              	.LVL73:
 803              	.LBB54:
 804              	.LBB55:
 805              	.LBB56:
 806              		.loc 2 60 0
 807 0034 2368     		ldr	r3, [r4]
 808              	.LVL74:
 809              		.loc 2 62 0
 810 0036 1A68     		ldr	r2, [r3]
 811 0038 2260     		str	r2, [r4]
 812              	.LBE56:
 813              	.LBE55:
 814              		.loc 1 316 0
 815 003a 0021     		movs	r1, #0
 816              	.LBB58:
 817              	.LBB57:
 818              		.loc 2 62 0
 819 003c 5460     		str	r4, [r2, #4]
 820              	.LVL75:
 821              	.LBE57:
 822              	.LBE58:
 823              		.loc 1 317 0
 824 003e 1846     		mov	r0, r3
 825              		.loc 1 316 0
 826 0040 9962     		str	r1, [r3, #40]
 827              	.LBE54:
 828              		.loc 1 319 0
 829 0042 BDE81040 		pop	{r4, lr}
 830              		.cfi_remember_state
 831              		.cfi_restore 14
 832              		.cfi_restore 4
 833              		.cfi_def_cfa_offset 0
 834              	.LVL76:
 835              	.LBB59:
 836              		.loc 1 317 0
 837 0046 FFF7FEBF 		b	chSchReadyI
 838              	.LVL77:
 839              	.L80:
 840              		.cfi_restore_state
 841              	.LBE59:
 842              		.loc 1 306 0 discriminator 1
 843 004a 0348     		ldr	r0, .L82+4
 844 004c FFF7FEFF 		bl	chDbgPanic
 845              	.LVL78:
 846 0050 DBE7     		b	.L73
 847              	.L83:
 848 0052 00BF     		.align	2
 849              	.L82:
 850 0054 14000000 		.word	.LC10
 851 0058 00000000 		.word	.LC9
 852              		.cfi_endproc
 853              	.LFE15:
 854              		.size	chSemSignalI, .-chSemSignalI
 855              		.section	.text.chSemAddCounterI,"ax",%progbits
ARM GAS  /tmp/ccLwS4hg.s 			page 16


 856              		.align	1
 857              		.p2align 4,,15
 858              		.global	chSemAddCounterI
 859              		.syntax unified
 860              		.thumb
 861              		.thumb_func
 862              		.fpu fpv4-sp-d16
 863              		.type	chSemAddCounterI, %function
 864              	chSemAddCounterI:
 865              	.LFB16:
 866              		.loc 1 334 0
 867              		.cfi_startproc
 868              		@ args = 0, pretend = 0, frame = 0
 869              		@ frame_needed = 0, uses_anonymous_args = 0
 870              	.LVL79:
 871 0000 70B5     		push	{r4, r5, r6, lr}
 872              		.cfi_def_cfa_offset 16
 873              		.cfi_offset 4, -16
 874              		.cfi_offset 5, -12
 875              		.cfi_offset 6, -8
 876              		.cfi_offset 14, -4
 877              		.loc 1 334 0
 878 0002 0446     		mov	r4, r0
 879 0004 0D46     		mov	r5, r1
 880              		.loc 1 336 0
 881 0006 FFF7FEFF 		bl	chDbgCheckClassI
 882              	.LVL80:
 883              		.loc 1 337 0
 884 000a FCB1     		cbz	r4, .L85
 885              		.loc 1 337 0 is_stmt 0 discriminator 2
 886 000c 002D     		cmp	r5, #0
 887 000e 1DDD     		ble	.L85
 888              		.loc 1 338 0 is_stmt 1
 889 0010 A268     		ldr	r2, [r4, #8]
 890 0012 2368     		ldr	r3, [r4]
 891 0014 002A     		cmp	r2, #0
 892 0016 20DB     		blt	.L87
 893              	.L98:
 894              		.loc 1 338 0 is_stmt 0 discriminator 2
 895 0018 9C42     		cmp	r4, r3
 896 001a 02D0     		beq	.L89
 897              	.L88:
 898              		.loc 1 338 0 discriminator 6
 899 001c 1048     		ldr	r0, .L99
 900 001e FFF7FEFF 		bl	chDbgPanic
 901              	.LVL81:
 902              	.L89:
 903              		.loc 1 343 0 is_stmt 1
 904 0022 002D     		cmp	r5, #0
 905 0024 11DD     		ble	.L84
 906              		.loc 1 345 0
 907 0026 0026     		movs	r6, #0
 908 0028 01E0     		b	.L92
 909              	.L91:
 910              	.LVL82:
 911              		.loc 1 343 0
 912 002a 013D     		subs	r5, r5, #1
ARM GAS  /tmp/ccLwS4hg.s 			page 17


 913              	.LVL83:
 914 002c 0DD0     		beq	.L84
 915              	.LVL84:
 916              	.L92:
 917              		.loc 1 344 0
 918 002e A368     		ldr	r3, [r4, #8]
 919 0030 0133     		adds	r3, r3, #1
 920 0032 002B     		cmp	r3, #0
 921 0034 A360     		str	r3, [r4, #8]
 922 0036 F8DC     		bgt	.L91
 923              	.LVL85:
 924              	.LBB60:
 925              	.LBB61:
 926              		.loc 2 60 0
 927 0038 2068     		ldr	r0, [r4]
 928              	.LVL86:
 929              		.loc 2 62 0
 930 003a 0368     		ldr	r3, [r0]
 931 003c 2360     		str	r3, [r4]
 932 003e 5C60     		str	r4, [r3, #4]
 933              	.LVL87:
 934              	.LBE61:
 935              	.LBE60:
 936              		.loc 1 345 0
 937 0040 FFF7FEFF 		bl	chSchReadyI
 938              	.LVL88:
 939              		.loc 1 343 0
 940 0044 013D     		subs	r5, r5, #1
 941              	.LVL89:
 942              		.loc 1 345 0
 943 0046 8662     		str	r6, [r0, #40]
 944              	.LVL90:
 945              		.loc 1 343 0
 946 0048 F1D1     		bne	.L92
 947              	.L84:
 948              		.loc 1 348 0
 949 004a 70BD     		pop	{r4, r5, r6, pc}
 950              	.LVL91:
 951              	.L85:
 952              		.loc 1 337 0 discriminator 3
 953 004c 0548     		ldr	r0, .L99+4
 954 004e FFF7FEFF 		bl	chDbgPanic
 955              	.LVL92:
 956              		.loc 1 338 0 discriminator 3
 957 0052 A268     		ldr	r2, [r4, #8]
 958 0054 2368     		ldr	r3, [r4]
 959 0056 002A     		cmp	r2, #0
 960 0058 DEDA     		bge	.L98
 961              	.L87:
 962              		.loc 1 338 0 is_stmt 0 discriminator 5
 963 005a 9C42     		cmp	r4, r3
 964 005c E1D1     		bne	.L89
 965 005e DDE7     		b	.L88
 966              	.L100:
 967              		.align	2
 968              	.L99:
 969 0060 18000000 		.word	.LC12
ARM GAS  /tmp/ccLwS4hg.s 			page 18


 970 0064 00000000 		.word	.LC11
 971              		.cfi_endproc
 972              	.LFE16:
 973              		.size	chSemAddCounterI, .-chSemAddCounterI
 974              		.section	.text.chSemSignalWait,"ax",%progbits
 975              		.align	1
 976              		.p2align 4,,15
 977              		.global	chSemSignalWait
 978              		.syntax unified
 979              		.thumb
 980              		.thumb_func
 981              		.fpu fpv4-sp-d16
 982              		.type	chSemSignalWait, %function
 983              	chSemSignalWait:
 984              	.LFB17:
 985              		.loc 1 366 0 is_stmt 1
 986              		.cfi_startproc
 987              		@ args = 0, pretend = 0, frame = 0
 988              		@ frame_needed = 0, uses_anonymous_args = 0
 989              	.LVL93:
 990 0000 38B5     		push	{r3, r4, r5, lr}
 991              		.cfi_def_cfa_offset 16
 992              		.cfi_offset 3, -16
 993              		.cfi_offset 4, -12
 994              		.cfi_offset 5, -8
 995              		.cfi_offset 14, -4
 996              		.loc 1 366 0
 997 0002 0C46     		mov	r4, r1
 998              		.loc 1 369 0
 999 0004 0546     		mov	r5, r0
 1000 0006 80B3     		cbz	r0, .L102
 1001              		.loc 1 369 0 is_stmt 0 discriminator 2
 1002 0008 79B3     		cbz	r1, .L102
 1003              	.LVL94:
 1004              	.L103:
 1005              		.loc 1 370 0 is_stmt 1
 1006 000a AA68     		ldr	r2, [r5, #8]
 1007 000c 2B68     		ldr	r3, [r5]
 1008 000e 002A     		cmp	r2, #0
 1009 0010 22DB     		blt	.L104
 1010              		.loc 1 370 0 is_stmt 0 discriminator 2
 1011 0012 9D42     		cmp	r5, r3
 1012 0014 02D0     		beq	.L106
 1013              	.L105:
 1014              		.loc 1 370 0 discriminator 6
 1015 0016 2448     		ldr	r0, .L121
 1016 0018 FFF7FEFF 		bl	chDbgPanic
 1017              	.LVL95:
 1018              	.L106:
 1019              		.loc 1 374 0 is_stmt 1
 1020 001c A268     		ldr	r2, [r4, #8]
 1021 001e 2368     		ldr	r3, [r4]
 1022 0020 002A     		cmp	r2, #0
 1023 0022 1FDB     		blt	.L107
 1024              	.L120:
 1025              		.loc 1 374 0 is_stmt 0 discriminator 2
 1026 0024 A342     		cmp	r3, r4
ARM GAS  /tmp/ccLwS4hg.s 			page 19


 1027 0026 02D0     		beq	.L109
 1028              	.L108:
 1029              		.loc 1 374 0 discriminator 6
 1030 0028 2048     		ldr	r0, .L121+4
 1031 002a FFF7FEFF 		bl	chDbgPanic
 1032              	.LVL96:
 1033              	.L109:
 1034              		.loc 1 379 0 is_stmt 1
 1035              		.syntax unified
 1036              	@ 379 "ChibiOS_2.6.6/os/kernel/src/chsem.c" 1
 1037 002e 72B6     		cpsid   i
 1038              	@ 0 "" 2
 1039              		.thumb
 1040              		.syntax unified
 1041 0030 FFF7FEFF 		bl	dbg_check_lock
 1042              	.LVL97:
 1043              		.loc 1 380 0
 1044 0034 AB68     		ldr	r3, [r5, #8]
 1045 0036 0133     		adds	r3, r3, #1
 1046 0038 002B     		cmp	r3, #0
 1047 003a AB60     		str	r3, [r5, #8]
 1048 003c 2ADD     		ble	.L118
 1049              	.L110:
 1050              		.loc 1 382 0
 1051 003e A368     		ldr	r3, [r4, #8]
 1052 0040 013B     		subs	r3, r3, #1
 1053 0042 002B     		cmp	r3, #0
 1054 0044 A360     		str	r3, [r4, #8]
 1055 0046 14DB     		blt	.L119
 1056              		.loc 1 390 0
 1057 0048 FFF7FEFF 		bl	chSchRescheduleS
 1058              	.LVL98:
 1059              		.loc 1 391 0
 1060 004c 0024     		movs	r4, #0
 1061              	.LVL99:
 1062              		.loc 1 393 0
 1063 004e FFF7FEFF 		bl	dbg_check_unlock
 1064              	.LVL100:
 1065              		.syntax unified
 1066              	@ 393 "ChibiOS_2.6.6/os/kernel/src/chsem.c" 1
 1067 0052 62B6     		cpsie   i
 1068              	@ 0 "" 2
 1069              		.loc 1 395 0
 1070              		.thumb
 1071              		.syntax unified
 1072 0054 2046     		mov	r0, r4
 1073 0056 38BD     		pop	{r3, r4, r5, pc}
 1074              	.LVL101:
 1075              	.L104:
 1076              		.loc 1 370 0 discriminator 5
 1077 0058 9D42     		cmp	r5, r3
 1078 005a DCD0     		beq	.L105
 1079              		.loc 1 374 0
 1080 005c A268     		ldr	r2, [r4, #8]
 1081 005e 2368     		ldr	r3, [r4]
 1082 0060 002A     		cmp	r2, #0
 1083 0062 DFDA     		bge	.L120
ARM GAS  /tmp/ccLwS4hg.s 			page 20


 1084              	.L107:
 1085              		.loc 1 374 0 is_stmt 0 discriminator 5
 1086 0064 A342     		cmp	r3, r4
 1087 0066 E2D1     		bne	.L109
 1088 0068 DEE7     		b	.L108
 1089              	.LVL102:
 1090              	.L102:
 1091              		.loc 1 369 0 is_stmt 1 discriminator 3
 1092 006a 1148     		ldr	r0, .L121+8
 1093              	.LVL103:
 1094 006c FFF7FEFF 		bl	chDbgPanic
 1095              	.LVL104:
 1096 0070 CBE7     		b	.L103
 1097              	.L119:
 1098              	.LBB62:
 1099              		.loc 1 383 0
 1100 0072 104A     		ldr	r2, .L121+12
 1101              	.LBB63:
 1102              	.LBB64:
 1103              		.loc 2 55 0
 1104 0074 6368     		ldr	r3, [r4, #4]
 1105              	.LBE64:
 1106              	.LBE63:
 1107              		.loc 1 383 0
 1108 0076 9569     		ldr	r5, [r2, #24]
 1109              	.LVL105:
 1110              		.loc 1 386 0
 1111 0078 0320     		movs	r0, #3
 1112              	.LBB66:
 1113              	.LBB65:
 1114              		.loc 2 55 0
 1115 007a C5E90043 		strd	r4, r3, [r5]
 1116              		.loc 2 56 0
 1117 007e 6560     		str	r5, [r4, #4]
 1118 0080 1D60     		str	r5, [r3]
 1119              	.LVL106:
 1120              	.LBE65:
 1121              	.LBE66:
 1122              		.loc 1 385 0
 1123 0082 AC62     		str	r4, [r5, #40]
 1124              		.loc 1 386 0
 1125 0084 FFF7FEFF 		bl	chSchGoSleepS
 1126              	.LVL107:
 1127              		.loc 1 387 0
 1128 0088 AC6A     		ldr	r4, [r5, #40]
 1129              	.LVL108:
 1130              	.LBE62:
 1131              		.loc 1 393 0
 1132 008a FFF7FEFF 		bl	dbg_check_unlock
 1133              	.LVL109:
 1134              		.syntax unified
 1135              	@ 393 "ChibiOS_2.6.6/os/kernel/src/chsem.c" 1
 1136 008e 62B6     		cpsie   i
 1137              	@ 0 "" 2
 1138              		.loc 1 395 0
 1139              		.thumb
 1140              		.syntax unified
ARM GAS  /tmp/ccLwS4hg.s 			page 21


 1141 0090 2046     		mov	r0, r4
 1142 0092 38BD     		pop	{r3, r4, r5, pc}
 1143              	.LVL110:
 1144              	.L118:
 1145              	.LBB67:
 1146              	.LBB68:
 1147              		.loc 2 60 0
 1148 0094 2868     		ldr	r0, [r5]
 1149              	.LVL111:
 1150              		.loc 2 62 0
 1151 0096 0368     		ldr	r3, [r0]
 1152 0098 2B60     		str	r3, [r5]
 1153 009a 5D60     		str	r5, [r3, #4]
 1154              	.LVL112:
 1155              	.LBE68:
 1156              	.LBE67:
 1157              		.loc 1 381 0
 1158 009c FFF7FEFF 		bl	chSchReadyI
 1159              	.LVL113:
 1160 00a0 0023     		movs	r3, #0
 1161 00a2 8362     		str	r3, [r0, #40]
 1162 00a4 CBE7     		b	.L110
 1163              	.L122:
 1164 00a6 00BF     		.align	2
 1165              	.L121:
 1166 00a8 14000000 		.word	.LC14
 1167 00ac 2C000000 		.word	.LC15
 1168 00b0 00000000 		.word	.LC13
 1169 00b4 00000000 		.word	rlist
 1170              		.cfi_endproc
 1171              	.LFE17:
 1172              		.size	chSemSignalWait, .-chSemSignalWait
 1173              		.section	.rodata.chSemAddCounterI.str1.4,"aMS",%progbits,1
 1174              		.align	2
 1175              	.LC11:
 1176 0000 22636853 		.ascii	"\"chSemAddCounterI\"()\000"
 1176      656D4164 
 1176      64436F75 
 1176      6E746572 
 1176      49222829 
 1177 0015 000000   		.space	3
 1178              	.LC12:
 1179 0018 63685365 		.ascii	"chSemAddCounterI(), #1\000"
 1179      6D416464 
 1179      436F756E 
 1179      74657249 
 1179      28292C20 
 1180              		.section	.rodata.chSemInit.str1.4,"aMS",%progbits,1
 1181              		.align	2
 1182              	.LC0:
 1183 0000 22636853 		.ascii	"\"chSemInit\"()\000"
 1183      656D496E 
 1183      69742228 
 1183      2900
 1184              		.section	.rodata.chSemResetI.str1.4,"aMS",%progbits,1
 1185              		.align	2
 1186              	.LC1:
ARM GAS  /tmp/ccLwS4hg.s 			page 22


 1187 0000 22636853 		.ascii	"\"chSemResetI\"()\000"
 1187      656D5265 
 1187      73657449 
 1187      22282900 
 1188              	.LC2:
 1189 0010 63685365 		.ascii	"chSemResetI(), #1\000"
 1189      6D526573 
 1189      65744928 
 1189      292C2023 
 1189      3100
 1190              		.section	.rodata.chSemSignal.str1.4,"aMS",%progbits,1
 1191              		.align	2
 1192              	.LC7:
 1193 0000 22636853 		.ascii	"\"chSemSignal\"()\000"
 1193      656D5369 
 1193      676E616C 
 1193      22282900 
 1194              	.LC8:
 1195 0010 63685365 		.ascii	"chSemSignal(), #1\000"
 1195      6D536967 
 1195      6E616C28 
 1195      292C2023 
 1195      3100
 1196              		.section	.rodata.chSemSignalI.str1.4,"aMS",%progbits,1
 1197              		.align	2
 1198              	.LC9:
 1199 0000 22636853 		.ascii	"\"chSemSignalI\"()\000"
 1199      656D5369 
 1199      676E616C 
 1199      49222829 
 1199      00
 1200 0011 000000   		.space	3
 1201              	.LC10:
 1202 0014 63685365 		.ascii	"chSemSignalI(), #1\000"
 1202      6D536967 
 1202      6E616C49 
 1202      28292C20 
 1202      233100
 1203              		.section	.rodata.chSemSignalWait.str1.4,"aMS",%progbits,1
 1204              		.align	2
 1205              	.LC13:
 1206 0000 22636853 		.ascii	"\"chSemSignalWait\"()\000"
 1206      656D5369 
 1206      676E616C 
 1206      57616974 
 1206      22282900 
 1207              	.LC14:
 1208 0014 63685365 		.ascii	"chSemSignalWait(), #1\000"
 1208      6D536967 
 1208      6E616C57 
 1208      61697428 
 1208      292C2023 
 1209 002a 0000     		.space	2
 1210              	.LC15:
 1211 002c 63685365 		.ascii	"chSemSignalWait(), #2\000"
 1211      6D536967 
 1211      6E616C57 
ARM GAS  /tmp/ccLwS4hg.s 			page 23


 1211      61697428 
 1211      292C2023 
 1212              		.section	.rodata.chSemWaitS.str1.4,"aMS",%progbits,1
 1213              		.align	2
 1214              	.LC3:
 1215 0000 22636853 		.ascii	"\"chSemWaitS\"()\000"
 1215      656D5761 
 1215      69745322 
 1215      282900
 1216 000f 00       		.space	1
 1217              	.LC4:
 1218 0010 63685365 		.ascii	"chSemWaitS(), #1\000"
 1218      6D576169 
 1218      74532829 
 1218      2C202331 
 1218      00
 1219              		.section	.rodata.chSemWaitTimeoutS.str1.4,"aMS",%progbits,1
 1220              		.align	2
 1221              	.LC5:
 1222 0000 22636853 		.ascii	"\"chSemWaitTimeoutS\"()\000"
 1222      656D5761 
 1222      69745469 
 1222      6D656F75 
 1222      74532228 
 1223 0016 0000     		.space	2
 1224              	.LC6:
 1225 0018 63685365 		.ascii	"chSemWaitTimeoutS(), #1\000"
 1225      6D576169 
 1225      7454696D 
 1225      656F7574 
 1225      5328292C 
 1226              		.text
 1227              	.Letext0:
 1228              		.file 3 "/usr/arm-none-eabi/include/machine/_default_types.h"
 1229              		.file 4 "/usr/arm-none-eabi/include/sys/_stdint.h"
 1230              		.file 5 "ChibiOS_2.6.6/os/ports/GCC/ARMCMx/chtypes.h"
 1231              		.file 6 "ChibiOS_2.6.6/os/kernel/include/chlists.h"
 1232              		.file 7 "ChibiOS_2.6.6/os/kernel/include/chthreads.h"
 1233              		.file 8 "ChibiOS_2.6.6/os/ports/GCC/ARMCMx/chcore_v7m.h"
 1234              		.file 9 "ChibiOS_2.6.6/os/kernel/include/chvt.h"
 1235              		.file 10 "ChibiOS_2.6.6/os/kernel/include/chschd.h"
 1236              		.file 11 "ChibiOS_2.6.6/os/kernel/include/chsem.h"
 1237              		.file 12 "ChibiOS_2.6.6/os/kernel/include/chmtx.h"
 1238              		.file 13 "ChibiOS_2.6.6/os/kernel/include/chregistry.h"
 1239              		.file 14 "ChibiOS_2.6.6/os/kernel/include/chdebug.h"
 1240              		.file 15 "ChibiOS_2.6.6/os/kernel/include/ch.h"