ARM GAS  /tmp/ccq9BWiT.s 			page 1


   1              		.cpu cortex-m4
   2              		.eabi_attribute 27, 1
   3              		.eabi_attribute 28, 1
   4              		.eabi_attribute 20, 1
   5              		.eabi_attribute 21, 1
   6              		.eabi_attribute 23, 3
   7              		.eabi_attribute 24, 1
   8              		.eabi_attribute 25, 1
   9              		.eabi_attribute 26, 1
  10              		.eabi_attribute 30, 2
  11              		.eabi_attribute 34, 1
  12              		.eabi_attribute 18, 4
  13              		.file	"chsys.c"
  14              		.text
  15              	.Ltext0:
  16              		.cfi_sections	.debug_frame
  17              		.section	.text._idle_thread,"ax",%progbits
  18              		.align	1
  19              		.p2align 4,,15
  20              		.global	_idle_thread
  21              		.syntax unified
  22              		.thumb
  23              		.thumb_func
  24              		.fpu fpv4-sp-d16
  25              		.type	_idle_thread, %function
  26              	_idle_thread:
  27              	.LFB7:
  28              		.file 1 "ChibiOS_2.6.6/os/kernel/src/chsys.c"
  29              		.loc 1 61 0
  30              		.cfi_startproc
  31              		@ Volatile: function does not return.
  32              		@ args = 0, pretend = 0, frame = 0
  33              		@ frame_needed = 0, uses_anonymous_args = 0
  34              		@ link register save eliminated.
  35              	.LVL0:
  36              		.loc 1 64 0
  37 0000 024B     		ldr	r3, .L4
  38 0002 034A     		ldr	r2, .L4+4
  39 0004 9B69     		ldr	r3, [r3, #24]
  40 0006 9A61     		str	r2, [r3, #24]
  41              	.L2:
  42 0008 FEE7     		b	.L2
  43              	.L5:
  44 000a 00BF     		.align	2
  45              	.L4:
  46 000c 00000000 		.word	rlist
  47 0010 00000000 		.word	.LC0
  48              		.cfi_endproc
  49              	.LFE7:
  50              		.size	_idle_thread, .-_idle_thread
  51              		.section	.text.chSysInit,"ax",%progbits
  52              		.align	1
  53              		.p2align 4,,15
  54              		.global	chSysInit
  55              		.syntax unified
  56              		.thumb
  57              		.thumb_func
ARM GAS  /tmp/ccq9BWiT.s 			page 2


  58              		.fpu fpv4-sp-d16
  59              		.type	chSysInit, %function
  60              	chSysInit:
  61              	.LFB8:
  62              		.loc 1 84 0
  63              		.cfi_startproc
  64              		@ args = 0, pretend = 0, frame = 0
  65              		@ frame_needed = 0, uses_anonymous_args = 0
  66 0000 30B5     		push	{r4, r5, lr}
  67              		.cfi_def_cfa_offset 12
  68              		.cfi_offset 4, -12
  69              		.cfi_offset 5, -8
  70              		.cfi_offset 14, -4
  71 0002 83B0     		sub	sp, sp, #12
  72              		.cfi_def_cfa_offset 24
  73              		.loc 1 90 0
  74 0004 FFF7FEFF 		bl	_port_init
  75              	.LVL1:
  76              		.loc 1 91 0
  77 0008 FFF7FEFF 		bl	_scheduler_init
  78              	.LVL2:
  79              		.loc 1 92 0
  80 000c FFF7FEFF 		bl	_vt_init
  81              	.LVL3:
  82              		.loc 1 94 0
  83 0010 FFF7FEFF 		bl	_core_init
  84              	.LVL4:
  85              		.loc 1 97 0
  86 0014 FFF7FEFF 		bl	_heap_init
  87              	.LVL5:
  88              		.loc 1 100 0
  89 0018 FFF7FEFF 		bl	_trace_init
  90              	.LVL6:
  91              		.loc 1 104 0
  92 001c 4021     		movs	r1, #64
  93 001e 0D48     		ldr	r0, .L8
  94 0020 0D4D     		ldr	r5, .L8+4
  95 0022 FFF7FEFF 		bl	_thread_init
  96              	.LVL7:
  97              		.loc 1 105 0
  98 0026 0124     		movs	r4, #1
  99              		.loc 1 109 0
 100 0028 0C4B     		ldr	r3, .L8+8
 101 002a C361     		str	r3, [r0, #28]
 102              		.loc 1 105 0
 103 002c 80F82040 		strb	r4, [r0, #32]
 104              		.loc 1 104 0
 105 0030 A861     		str	r0, [r5, #24]
 106              		.loc 1 111 0
 107 0032 FFF7FEFF 		bl	dbg_check_enable
 108              	.LVL8:
 109              		.syntax unified
 110              	@ 111 "ChibiOS_2.6.6/os/kernel/src/chsys.c" 1
 111 0036 62B6     		cpsie   i
 112              	@ 0 "" 2
 113              		.loc 1 115 0
 114              		.thumb
ARM GAS  /tmp/ccq9BWiT.s 			page 3


 115              		.syntax unified
 116 0038 AB69     		ldr	r3, [r5, #24]
 117 003a 094A     		ldr	r2, .L8+12
 118 003c 9A61     		str	r2, [r3, #24]
 119              		.loc 1 121 0
 120 003e 0023     		movs	r3, #0
 121 0040 0093     		str	r3, [sp]
 122 0042 2246     		mov	r2, r4
 123 0044 074B     		ldr	r3, .L8+16
 124 0046 0848     		ldr	r0, .L8+20
 125 0048 4FF4EC71 		mov	r1, #472
 126 004c FFF7FEFF 		bl	chThdCreateStatic
 127              	.LVL9:
 128              		.loc 1 124 0
 129 0050 03B0     		add	sp, sp, #12
 130              		.cfi_def_cfa_offset 12
 131              		@ sp needed
 132 0052 30BD     		pop	{r4, r5, pc}
 133              	.L9:
 134              		.align	2
 135              	.L8:
 136 0054 00000000 		.word	.LANCHOR0
 137 0058 00000000 		.word	rlist
 138 005c 00000000 		.word	__main_thread_stack_base__
 139 0060 00000000 		.word	ch_debug
 140 0064 00000000 		.word	_idle_thread
 141 0068 00000000 		.word	.LANCHOR1
 142              		.cfi_endproc
 143              	.LFE8:
 144              		.size	chSysInit, .-chSysInit
 145              		.section	.text.chSysTimerHandlerI,"ax",%progbits
 146              		.align	1
 147              		.p2align 4,,15
 148              		.global	chSysTimerHandlerI
 149              		.syntax unified
 150              		.thumb
 151              		.thumb_func
 152              		.fpu fpv4-sp-d16
 153              		.type	chSysTimerHandlerI, %function
 154              	chSysTimerHandlerI:
 155              	.LFB9:
 156              		.loc 1 137 0
 157              		.cfi_startproc
 158              		@ args = 0, pretend = 0, frame = 0
 159              		@ frame_needed = 0, uses_anonymous_args = 0
 160 0000 F8B5     		push	{r3, r4, r5, r6, r7, lr}
 161              		.cfi_def_cfa_offset 24
 162              		.cfi_offset 3, -24
 163              		.cfi_offset 4, -20
 164              		.cfi_offset 5, -16
 165              		.cfi_offset 6, -12
 166              		.cfi_offset 7, -8
 167              		.cfi_offset 14, -4
 168              		.loc 1 139 0
 169 0002 FFF7FEFF 		bl	chDbgCheckClassI
 170              	.LVL10:
 171              		.loc 1 143 0
ARM GAS  /tmp/ccq9BWiT.s 			page 4


 172 0006 144B     		ldr	r3, .L20
 173 0008 9B69     		ldr	r3, [r3, #24]
 174 000a 93F82320 		ldrb	r2, [r3, #35]	@ zero_extendqisi2
 175 000e 12B1     		cbz	r2, .L11
 176              		.loc 1 145 0
 177 0010 013A     		subs	r2, r2, #1
 178 0012 83F82320 		strb	r2, [r3, #35]
 179              	.L11:
 180              		.loc 1 148 0
 181 0016 5A6A     		ldr	r2, [r3, #36]
 182              		.loc 1 150 0
 183 0018 104D     		ldr	r5, .L20+4
 184              		.loc 1 148 0
 185 001a 0132     		adds	r2, r2, #1
 186 001c 5A62     		str	r2, [r3, #36]
 187              		.loc 1 150 0
 188 001e EB68     		ldr	r3, [r5, #12]
 189 0020 2C68     		ldr	r4, [r5]
 190 0022 0133     		adds	r3, r3, #1
 191 0024 AC42     		cmp	r4, r5
 192 0026 EB60     		str	r3, [r5, #12]
 193 0028 14D0     		beq	.L10
 194              	.LBB2:
 195              		.loc 1 150 0 is_stmt 0 discriminator 1
 196 002a A668     		ldr	r6, [r4, #8]
 197 002c 013E     		subs	r6, r6, #1
 198 002e A660     		str	r6, [r4, #8]
 199              	.LVL11:
 200 0030 86B9     		cbnz	r6, .L10
 201              	.L13:
 202              	.LBB3:
 203              		.loc 1 150 0 discriminator 4
 204 0032 2368     		ldr	r3, [r4]
 205 0034 E768     		ldr	r7, [r4, #12]
 206              	.LVL12:
 207 0036 E660     		str	r6, [r4, #12]
 208 0038 5D60     		str	r5, [r3, #4]
 209 003a 2B60     		str	r3, [r5]
 210 003c FFF7FEFF 		bl	dbg_check_unlock_from_isr
 211              	.LVL13:
 212              		.syntax unified
 213              	@ 150 "ChibiOS_2.6.6/os/kernel/src/chsys.c" 1
 214 0040 62B6     		cpsie   i
 215              	@ 0 "" 2
 216              		.thumb
 217              		.syntax unified
 218 0042 2069     		ldr	r0, [r4, #16]
 219 0044 B847     		blx	r7
 220              	.LVL14:
 221              		.syntax unified
 222              	@ 150 "ChibiOS_2.6.6/os/kernel/src/chsys.c" 1
 223 0046 72B6     		cpsid   i
 224              	@ 0 "" 2
 225              		.thumb
 226              		.syntax unified
 227 0048 FFF7FEFF 		bl	dbg_check_lock_from_isr
 228              	.LVL15:
ARM GAS  /tmp/ccq9BWiT.s 			page 5


 229              	.LBE3:
 230 004c 2C68     		ldr	r4, [r5]
 231              	.LVL16:
 232 004e A368     		ldr	r3, [r4, #8]
 233 0050 002B     		cmp	r3, #0
 234 0052 EED0     		beq	.L13
 235              	.LVL17:
 236              	.L10:
 237              	.LBE2:
 238              		.loc 1 154 0 is_stmt 1
 239 0054 F8BD     		pop	{r3, r4, r5, r6, r7, pc}
 240              	.L21:
 241 0056 00BF     		.align	2
 242              	.L20:
 243 0058 00000000 		.word	rlist
 244 005c 00000000 		.word	vtlist
 245              		.cfi_endproc
 246              	.LFE9:
 247              		.size	chSysTimerHandlerI, .-chSysTimerHandlerI
 248              		.global	_idle_thread_wa
 249              		.section	.bss._idle_thread_wa,"aw",%nobits
 250              		.align	3
 251              		.set	.LANCHOR1,. + 0
 252              		.type	_idle_thread_wa, %object
 253              		.size	_idle_thread_wa, 472
 254              	_idle_thread_wa:
 255 0000 00000000 		.space	472
 255      00000000 
 255      00000000 
 255      00000000 
 255      00000000 
 256              		.section	.bss.mainthread.6194,"aw",%nobits
 257              		.align	2
 258              		.set	.LANCHOR0,. + 0
 259              		.type	mainthread.6194, %object
 260              		.size	mainthread.6194, 76
 261              	mainthread.6194:
 262 0000 00000000 		.space	76
 262      00000000 
 262      00000000 
 262      00000000 
 262      00000000 
 263              		.section	.rodata._idle_thread.str1.4,"aMS",%progbits,1
 264              		.align	2
 265              	.LC0:
 266 0000 69646C65 		.ascii	"idle\000"
 266      00
 267              		.text
 268              	.Letext0:
 269              		.file 2 "/usr/arm-none-eabi/include/machine/_default_types.h"
 270              		.file 3 "/usr/arm-none-eabi/include/sys/_stdint.h"
 271              		.file 4 "ChibiOS_2.6.6/os/ports/GCC/ARMCMx/chtypes.h"
 272              		.file 5 "ChibiOS_2.6.6/os/kernel/include/chlists.h"
 273              		.file 6 "ChibiOS_2.6.6/os/kernel/include/chthreads.h"
 274              		.file 7 "ChibiOS_2.6.6/os/ports/GCC/ARMCMx/chcore_v7m.h"
 275              		.file 8 "ChibiOS_2.6.6/os/kernel/include/chvt.h"
 276              		.file 9 "ChibiOS_2.6.6/os/kernel/include/chschd.h"
ARM GAS  /tmp/ccq9BWiT.s 			page 6


 277              		.file 10 "ChibiOS_2.6.6/os/kernel/include/chmtx.h"
 278              		.file 11 "ChibiOS_2.6.6/os/kernel/include/chregistry.h"
 279              		.file 12 "ChibiOS_2.6.6/os/kernel/include/chdebug.h"
 280              		.file 13 "ChibiOS_2.6.6/os/kernel/include/ch.h"
 281              		.file 14 "ChibiOS_2.6.6/os/kernel/include/chmemcore.h"
 282              		.file 15 "ChibiOS_2.6.6/os/kernel/include/chheap.h"