ARM GAS  /tmp/cc1vhOd9.s 			page 1


   1              		.cpu cortex-m4
   2              		.eabi_attribute 27, 1
   3              		.eabi_attribute 28, 1
   4              		.eabi_attribute 20, 1
   5              		.eabi_attribute 21, 1
   6              		.eabi_attribute 23, 3
   7              		.eabi_attribute 24, 1
   8              		.eabi_attribute 25, 1
   9              		.eabi_attribute 26, 1
  10              		.eabi_attribute 30, 2
  11              		.eabi_attribute 34, 1
  12              		.eabi_attribute 18, 4
  13              		.file	"chthreads.c"
  14              		.text
  15              	.Ltext0:
  16              		.cfi_sections	.debug_frame
  17              		.section	.text._thread_init,"ax",%progbits
  18              		.align	1
  19              		.p2align 4,,15
  20              		.global	_thread_init
  21              		.syntax unified
  22              		.thumb
  23              		.thumb_func
  24              		.fpu fpv4-sp-d16
  25              		.type	_thread_init, %function
  26              	_thread_init:
  27              	.LFB7:
  28              		.file 1 "ChibiOS_2.6.6/os/kernel/src/chthreads.c"
  29              		.loc 1 76 0
  30              		.cfi_startproc
  31              		@ args = 0, pretend = 0, frame = 0
  32              		@ frame_needed = 0, uses_anonymous_args = 0
  33              		@ link register save eliminated.
  34              	.LVL0:
  35 0000 70B4     		push	{r4, r5, r6}
  36              		.cfi_def_cfa_offset 12
  37              		.cfi_offset 4, -12
  38              		.cfi_offset 5, -8
  39              		.cfi_offset 6, -4
  40              		.loc 1 99 0
  41 0002 104A     		ldr	r2, .L4
  42              		.loc 1 85 0
  43 0004 4164     		str	r1, [r0, #68]
  44              		.loc 1 99 0
  45 0006 5469     		ldr	r4, [r2, #20]
  46 0008 4461     		str	r4, [r0, #20]
  47              		.loc 1 78 0
  48 000a 8160     		str	r1, [r0, #8]
  49              		.loc 1 99 0
  50 000c 0261     		str	r2, [r0, #16]
  51              		.loc 1 82 0
  52 000e 0425     		movs	r5, #4
  53              		.loc 1 99 0
  54 0010 5061     		str	r0, [r2, #20]
  55              		.loc 1 95 0
  56 0012 0121     		movs	r1, #1
  57              	.LVL1:
ARM GAS  /tmp/cc1vhOd9.s 			page 2


  58              		.loc 1 86 0
  59 0014 0022     		movs	r2, #0
  60              		.loc 1 79 0
  61 0016 0226     		movs	r6, #2
  62              		.loc 1 82 0
  63 0018 80F82350 		strb	r5, [r0, #35]
  64              		.loc 1 95 0
  65 001c 80F82210 		strb	r1, [r0, #34]
  66              		.loc 1 102 0
  67 0020 00F12C05 		add	r5, r0, #44
  68              		.loc 1 89 0
  69 0024 C0E90F22 		strd	r2, r2, [r0, #60]
  70              		.loc 1 92 0
  71 0028 4262     		str	r2, [r0, #36]
  72              		.loc 1 98 0
  73 002a 8261     		str	r2, [r0, #24]
  74              		.loc 1 108 0
  75 002c 00F14C01 		add	r1, r0, #76
  76              		.loc 1 105 0
  77 0030 00F13002 		add	r2, r0, #48
  78              		.loc 1 79 0
  79 0034 0684     		strh	r6, [r0, #32]	@ movhi
  80              		.loc 1 99 0
  81 0036 2061     		str	r0, [r4, #16]
  82              		.loc 1 102 0
  83 0038 C562     		str	r5, [r0, #44]
  84              		.loc 1 108 0
  85 003a C161     		str	r1, [r0, #28]
  86              		.loc 1 105 0
  87 003c C0E90C22 		strd	r2, r2, [r0, #48]
  88              		.loc 1 114 0
  89 0040 70BC     		pop	{r4, r5, r6}
  90              		.cfi_restore 6
  91              		.cfi_restore 5
  92              		.cfi_restore 4
  93              		.cfi_def_cfa_offset 0
  94 0042 7047     		bx	lr
  95              	.L5:
  96              		.align	2
  97              	.L4:
  98 0044 00000000 		.word	rlist
  99              		.cfi_endproc
 100              	.LFE7:
 101              		.size	_thread_init, .-_thread_init
 102              		.section	.text._thread_memfill,"ax",%progbits
 103              		.align	1
 104              		.p2align 4,,15
 105              		.global	_thread_memfill
 106              		.syntax unified
 107              		.thumb
 108              		.thumb_func
 109              		.fpu fpv4-sp-d16
 110              		.type	_thread_memfill, %function
 111              	_thread_memfill:
 112              	.LFB8:
 113              		.loc 1 126 0
 114              		.cfi_startproc
ARM GAS  /tmp/cc1vhOd9.s 			page 3


 115              		@ args = 0, pretend = 0, frame = 0
 116              		@ frame_needed = 0, uses_anonymous_args = 0
 117              		@ link register save eliminated.
 118              	.LVL2:
 119              		.loc 1 128 0
 120 0000 8842     		cmp	r0, r1
 121 0002 03D2     		bcs	.L6
 122              	.L8:
 123              		.loc 1 129 0
 124 0004 00F8012B 		strb	r2, [r0], #1
 125              	.LVL3:
 126              		.loc 1 128 0
 127 0008 8142     		cmp	r1, r0
 128 000a FBD1     		bne	.L8
 129              	.L6:
 130              		.loc 1 130 0
 131 000c 7047     		bx	lr
 132              		.cfi_endproc
 133              	.LFE8:
 134              		.size	_thread_memfill, .-_thread_memfill
 135 000e 00BF     		.section	.text.chThdCreateI,"ax",%progbits
 136              		.align	1
 137              		.p2align 4,,15
 138              		.global	chThdCreateI
 139              		.syntax unified
 140              		.thumb
 141              		.thumb_func
 142              		.fpu fpv4-sp-d16
 143              		.type	chThdCreateI, %function
 144              	chThdCreateI:
 145              	.LFB9:
 146              		.loc 1 158 0
 147              		.cfi_startproc
 148              		@ args = 4, pretend = 0, frame = 0
 149              		@ frame_needed = 0, uses_anonymous_args = 0
 150              	.LVL4:
 151 0000 F8B5     		push	{r3, r4, r5, r6, r7, lr}
 152              		.cfi_def_cfa_offset 24
 153              		.cfi_offset 3, -24
 154              		.cfi_offset 4, -20
 155              		.cfi_offset 5, -16
 156              		.cfi_offset 6, -12
 157              		.cfi_offset 7, -8
 158              		.cfi_offset 14, -4
 159              		.loc 1 158 0
 160 0002 0446     		mov	r4, r0
 161              	.LVL5:
 162 0004 0D46     		mov	r5, r1
 163 0006 1746     		mov	r7, r2
 164 0008 1E46     		mov	r6, r3
 165              		.loc 1 162 0
 166 000a FFF7FEFF 		bl	chDbgCheckClassI
 167              	.LVL6:
 168              		.loc 1 164 0
 169 000e 14B1     		cbz	r4, .L11
 170              		.loc 1 164 0 is_stmt 0 discriminator 2
 171 0010 B5F5CC7F 		cmp	r5, #408
ARM GAS  /tmp/cc1vhOd9.s 			page 4


 172 0014 2CD2     		bcs	.L17
 173              	.L11:
 174              		.loc 1 164 0 discriminator 7
 175 0016 1948     		ldr	r0, .L18
 176 0018 FFF7FEFF 		bl	chDbgPanic
 177              	.LVL7:
 178              	.L12:
 179              		.loc 1 167 0 is_stmt 1
 180 001c A5F16401 		sub	r1, r5, #100
 181 0020 2144     		add	r1, r1, r4
 182              	.LBB12:
 183              	.LBB13:
 184              		.loc 1 99 0
 185 0022 1748     		ldr	r0, .L18+4
 186              	.LBE13:
 187              	.LBE12:
 188              		.loc 1 167 0
 189 0024 069B     		ldr	r3, [sp, #24]
 190              	.LBB17:
 191              	.LBB14:
 192              		.loc 1 99 0
 193 0026 4569     		ldr	r5, [r0, #20]
 194              	.LVL8:
 195              	.LBE14:
 196              	.LBE17:
 197              		.loc 1 167 0
 198 0028 E160     		str	r1, [r4, #12]
 199 002a 4B64     		str	r3, [r1, #68]
 200 002c 154B     		ldr	r3, .L18+8
 201 002e 0E64     		str	r6, [r1, #64]
 202 0030 0B66     		str	r3, [r1, #96]
 203              	.LVL9:
 204              	.LBB18:
 205              	.LBB15:
 206              		.loc 1 82 0
 207 0032 0422     		movs	r2, #4
 208              		.loc 1 86 0
 209 0034 0023     		movs	r3, #0
 210              		.loc 1 79 0
 211 0036 0221     		movs	r1, #2
 212              		.loc 1 95 0
 213 0038 0126     		movs	r6, #1
 214              	.LVL10:
 215              		.loc 1 79 0
 216 003a 2184     		strh	r1, [r4, #32]	@ movhi
 217              	.LVL11:
 218              		.loc 1 82 0
 219 003c 84F82320 		strb	r2, [r4, #35]
 220              		.loc 1 89 0
 221 0040 C4E90F33 		strd	r3, r3, [r4, #60]
 222              		.loc 1 92 0
 223 0044 6362     		str	r3, [r4, #36]
 224              		.loc 1 98 0
 225 0046 A361     		str	r3, [r4, #24]
 226              		.loc 1 102 0
 227 0048 04F12C01 		add	r1, r4, #44
 228              		.loc 1 105 0
ARM GAS  /tmp/cc1vhOd9.s 			page 5


 229 004c 04F13002 		add	r2, r4, #48
 230              		.loc 1 108 0
 231 0050 04F14C03 		add	r3, r4, #76
 232              		.loc 1 95 0
 233 0054 84F82260 		strb	r6, [r4, #34]
 234              		.loc 1 99 0
 235 0058 C4E90405 		strd	r0, r5, [r4, #16]
 236              		.loc 1 78 0
 237 005c A760     		str	r7, [r4, #8]
 238              		.loc 1 85 0
 239 005e 6764     		str	r7, [r4, #68]
 240              		.loc 1 99 0
 241 0060 4461     		str	r4, [r0, #20]
 242 0062 2C61     		str	r4, [r5, #16]
 243              	.LBE15:
 244              	.LBE18:
 245              		.loc 1 169 0
 246 0064 2046     		mov	r0, r4
 247              	.LBB19:
 248              	.LBB16:
 249              		.loc 1 102 0
 250 0066 E162     		str	r1, [r4, #44]
 251              		.loc 1 105 0
 252 0068 C4E90C22 		strd	r2, r2, [r4, #48]
 253              		.loc 1 108 0
 254 006c E361     		str	r3, [r4, #28]
 255              	.LVL12:
 256              	.LBE16:
 257              	.LBE19:
 258              		.loc 1 169 0
 259 006e F8BD     		pop	{r3, r4, r5, r6, r7, pc}
 260              	.LVL13:
 261              	.L17:
 262              		.loc 1 164 0 discriminator 4
 263 0070 7F2F     		cmp	r7, #127
 264 0072 D0D8     		bhi	.L11
 265              		.loc 1 164 0 is_stmt 0 discriminator 6
 266 0074 002E     		cmp	r6, #0
 267 0076 D1D1     		bne	.L12
 268 0078 CDE7     		b	.L11
 269              	.L19:
 270 007a 00BF     		.align	2
 271              	.L18:
 272 007c 00000000 		.word	.LC0
 273 0080 00000000 		.word	rlist
 274 0084 00000000 		.word	_port_thread_start
 275              		.cfi_endproc
 276              	.LFE9:
 277              		.size	chThdCreateI, .-chThdCreateI
 278              		.section	.text.chThdCreateStatic,"ax",%progbits
 279              		.align	1
 280              		.p2align 4,,15
 281              		.global	chThdCreateStatic
 282              		.syntax unified
 283              		.thumb
 284              		.thumb_func
 285              		.fpu fpv4-sp-d16
ARM GAS  /tmp/cc1vhOd9.s 			page 6


 286              		.type	chThdCreateStatic, %function
 287              	chThdCreateStatic:
 288              	.LFB10:
 289              		.loc 1 188 0 is_stmt 1
 290              		.cfi_startproc
 291              		@ args = 4, pretend = 0, frame = 0
 292              		@ frame_needed = 0, uses_anonymous_args = 0
 293              	.LVL14:
 294 0000 2DE9F04F 		push	{r4, r5, r6, r7, r8, r9, r10, fp, lr}
 295              		.cfi_def_cfa_offset 36
 296              		.cfi_offset 4, -36
 297              		.cfi_offset 5, -32
 298              		.cfi_offset 6, -28
 299              		.cfi_offset 7, -24
 300              		.cfi_offset 8, -20
 301              		.cfi_offset 9, -16
 302              		.cfi_offset 10, -12
 303              		.cfi_offset 11, -8
 304              		.cfi_offset 14, -4
 305 0004 83B0     		sub	sp, sp, #12
 306              		.cfi_def_cfa_offset 48
 307              		.loc 1 188 0
 308 0006 8046     		mov	r8, r0
 309 0008 0C9F     		ldr	r7, [sp, #48]
 310 000a 8946     		mov	r9, r1
 311 000c 9246     		mov	r10, r2
 312 000e 9B46     		mov	fp, r3
 313              		.loc 1 192 0
 314 0010 00F14C06 		add	r6, r0, #76
 315              	.LVL15:
 316 0014 0446     		mov	r4, r0
 317              	.LBB20:
 318              	.LBB21:
 319              		.loc 1 129 0
 320 0016 FF25     		movs	r5, #255
 321              	.LVL16:
 322              	.L21:
 323 0018 04F8015B 		strb	r5, [r4], #1
 324              	.LVL17:
 325              		.loc 1 128 0
 326 001c A642     		cmp	r6, r4
 327 001e FBD1     		bne	.L21
 328              	.LVL18:
 329              	.LBE21:
 330              	.LBE20:
 331              		.loc 1 195 0
 332 0020 08EB0905 		add	r5, r8, r9
 333              	.LVL19:
 334              	.LBB22:
 335              	.LBB23:
 336              		.loc 1 128 0
 337 0024 A542     		cmp	r5, r4
 338 0026 04D9     		bls	.L22
 339              		.loc 1 129 0
 340 0028 5526     		movs	r6, #85
 341              	.L23:
 342 002a 04F8016B 		strb	r6, [r4], #1
ARM GAS  /tmp/cc1vhOd9.s 			page 7


 343              	.LVL20:
 344              		.loc 1 128 0
 345 002e A542     		cmp	r5, r4
 346 0030 FBD1     		bne	.L23
 347              	.L22:
 348              	.LVL21:
 349              	.LBE23:
 350              	.LBE22:
 351              		.loc 1 199 0
 352              		.syntax unified
 353              	@ 199 "ChibiOS_2.6.6/os/kernel/src/chthreads.c" 1
 354 0032 72B6     		cpsid   i
 355              	@ 0 "" 2
 356              		.thumb
 357              		.syntax unified
 358 0034 FFF7FEFF 		bl	dbg_check_lock
 359              	.LVL22:
 360              		.loc 1 200 0
 361 0038 5B46     		mov	r3, fp
 362 003a 5246     		mov	r2, r10
 363 003c 4946     		mov	r1, r9
 364 003e 0097     		str	r7, [sp]
 365 0040 4046     		mov	r0, r8
 366 0042 FFF7FEFF 		bl	chThdCreateI
 367              	.LVL23:
 368 0046 0021     		movs	r1, #0
 369 0048 0446     		mov	r4, r0
 370              	.LVL24:
 371 004a FFF7FEFF 		bl	chSchWakeupS
 372              	.LVL25:
 373              		.loc 1 201 0
 374 004e FFF7FEFF 		bl	dbg_check_unlock
 375              	.LVL26:
 376              		.syntax unified
 377              	@ 201 "ChibiOS_2.6.6/os/kernel/src/chthreads.c" 1
 378 0052 62B6     		cpsie   i
 379              	@ 0 "" 2
 380              		.loc 1 203 0
 381              		.thumb
 382              		.syntax unified
 383 0054 2046     		mov	r0, r4
 384 0056 03B0     		add	sp, sp, #12
 385              		.cfi_def_cfa_offset 36
 386              		@ sp needed
 387 0058 BDE8F08F 		pop	{r4, r5, r6, r7, r8, r9, r10, fp, pc}
 388              		.cfi_endproc
 389              	.LFE10:
 390              		.size	chThdCreateStatic, .-chThdCreateStatic
 391              		.section	.text.chThdSetPriority,"ax",%progbits
 392              		.align	1
 393              		.p2align 4,,15
 394              		.global	chThdSetPriority
 395              		.syntax unified
 396              		.thumb
 397              		.thumb_func
 398              		.fpu fpv4-sp-d16
 399              		.type	chThdSetPriority, %function
ARM GAS  /tmp/cc1vhOd9.s 			page 8


 400              	chThdSetPriority:
 401              	.LFB11:
 402              		.loc 1 217 0
 403              		.cfi_startproc
 404              		@ args = 0, pretend = 0, frame = 0
 405              		@ frame_needed = 0, uses_anonymous_args = 0
 406              	.LVL27:
 407              		.loc 1 220 0
 408 0000 7F28     		cmp	r0, #127
 409              		.loc 1 217 0
 410 0002 38B5     		push	{r3, r4, r5, lr}
 411              		.cfi_def_cfa_offset 16
 412              		.cfi_offset 3, -16
 413              		.cfi_offset 4, -12
 414              		.cfi_offset 5, -8
 415              		.cfi_offset 14, -4
 416              		.loc 1 217 0
 417 0004 0446     		mov	r4, r0
 418              		.loc 1 220 0
 419 0006 13D8     		bhi	.L32
 420              	.LVL28:
 421              	.L28:
 422              		.loc 1 222 0
 423              		.syntax unified
 424              	@ 222 "ChibiOS_2.6.6/os/kernel/src/chthreads.c" 1
 425 0008 72B6     		cpsid   i
 426              	@ 0 "" 2
 427              		.thumb
 428              		.syntax unified
 429 000a FFF7FEFF 		bl	dbg_check_lock
 430              	.LVL29:
 431              		.loc 1 224 0
 432 000e 0A4B     		ldr	r3, .L33
 433 0010 9B69     		ldr	r3, [r3, #24]
 434 0012 5D6C     		ldr	r5, [r3, #68]
 435              	.LVL30:
 436              		.loc 1 225 0
 437 0014 9A68     		ldr	r2, [r3, #8]
 438 0016 AA42     		cmp	r2, r5
 439 0018 01D0     		beq	.L29
 440              		.loc 1 225 0 is_stmt 0 discriminator 1
 441 001a A242     		cmp	r2, r4
 442 001c 00D2     		bcs	.L30
 443              	.L29:
 444              		.loc 1 226 0 is_stmt 1
 445 001e 9C60     		str	r4, [r3, #8]
 446              	.L30:
 447              		.loc 1 227 0
 448 0020 5C64     		str	r4, [r3, #68]
 449              		.loc 1 232 0
 450 0022 FFF7FEFF 		bl	chSchRescheduleS
 451              	.LVL31:
 452              		.loc 1 233 0
 453 0026 FFF7FEFF 		bl	dbg_check_unlock
 454              	.LVL32:
 455              		.syntax unified
 456              	@ 233 "ChibiOS_2.6.6/os/kernel/src/chthreads.c" 1
ARM GAS  /tmp/cc1vhOd9.s 			page 9


 457 002a 62B6     		cpsie   i
 458              	@ 0 "" 2
 459              		.loc 1 235 0
 460              		.thumb
 461              		.syntax unified
 462 002c 2846     		mov	r0, r5
 463 002e 38BD     		pop	{r3, r4, r5, pc}
 464              	.LVL33:
 465              	.L32:
 466              		.loc 1 220 0 discriminator 1
 467 0030 0248     		ldr	r0, .L33+4
 468              	.LVL34:
 469 0032 FFF7FEFF 		bl	chDbgPanic
 470              	.LVL35:
 471 0036 E7E7     		b	.L28
 472              	.L34:
 473              		.align	2
 474              	.L33:
 475 0038 00000000 		.word	rlist
 476 003c 00000000 		.word	.LC1
 477              		.cfi_endproc
 478              	.LFE11:
 479              		.size	chThdSetPriority, .-chThdSetPriority
 480              		.section	.text.chThdResume,"ax",%progbits
 481              		.align	1
 482              		.p2align 4,,15
 483              		.global	chThdResume
 484              		.syntax unified
 485              		.thumb
 486              		.thumb_func
 487              		.fpu fpv4-sp-d16
 488              		.type	chThdResume, %function
 489              	chThdResume:
 490              	.LFB12:
 491              		.loc 1 250 0
 492              		.cfi_startproc
 493              		@ args = 0, pretend = 0, frame = 0
 494              		@ frame_needed = 0, uses_anonymous_args = 0
 495              	.LVL36:
 496 0000 10B5     		push	{r4, lr}
 497              		.cfi_def_cfa_offset 8
 498              		.cfi_offset 4, -8
 499              		.cfi_offset 14, -4
 500              		.loc 1 250 0
 501 0002 0446     		mov	r4, r0
 502              		.loc 1 252 0
 503              		.syntax unified
 504              	@ 252 "ChibiOS_2.6.6/os/kernel/src/chthreads.c" 1
 505 0004 72B6     		cpsid   i
 506              	@ 0 "" 2
 507              		.thumb
 508              		.syntax unified
 509 0006 FFF7FEFF 		bl	dbg_check_lock
 510              	.LVL37:
 511              		.loc 1 253 0
 512 000a 94F82030 		ldrb	r3, [r4, #32]	@ zero_extendqisi2
 513 000e 022B     		cmp	r3, #2
ARM GAS  /tmp/cc1vhOd9.s 			page 10


 514 0010 02D0     		beq	.L36
 515              		.loc 1 253 0 is_stmt 0 discriminator 1
 516 0012 0648     		ldr	r0, .L41
 517 0014 FFF7FEFF 		bl	chDbgPanic
 518              	.LVL38:
 519              	.L36:
 520              		.loc 1 256 0 is_stmt 1
 521 0018 0021     		movs	r1, #0
 522 001a 2046     		mov	r0, r4
 523 001c FFF7FEFF 		bl	chSchWakeupS
 524              	.LVL39:
 525              		.loc 1 257 0
 526 0020 FFF7FEFF 		bl	dbg_check_unlock
 527              	.LVL40:
 528              		.syntax unified
 529              	@ 257 "ChibiOS_2.6.6/os/kernel/src/chthreads.c" 1
 530 0024 62B6     		cpsie   i
 531              	@ 0 "" 2
 532              		.loc 1 259 0
 533              		.thumb
 534              		.syntax unified
 535 0026 2046     		mov	r0, r4
 536 0028 10BD     		pop	{r4, pc}
 537              	.LVL41:
 538              	.L42:
 539 002a 00BF     		.align	2
 540              	.L41:
 541 002c 00000000 		.word	.LC2
 542              		.cfi_endproc
 543              	.LFE12:
 544              		.size	chThdResume, .-chThdResume
 545              		.section	.text.chThdTerminate,"ax",%progbits
 546              		.align	1
 547              		.p2align 4,,15
 548              		.global	chThdTerminate
 549              		.syntax unified
 550              		.thumb
 551              		.thumb_func
 552              		.fpu fpv4-sp-d16
 553              		.type	chThdTerminate, %function
 554              	chThdTerminate:
 555              	.LFB13:
 556              		.loc 1 273 0
 557              		.cfi_startproc
 558              		@ args = 0, pretend = 0, frame = 0
 559              		@ frame_needed = 0, uses_anonymous_args = 0
 560              	.LVL42:
 561 0000 10B5     		push	{r4, lr}
 562              		.cfi_def_cfa_offset 8
 563              		.cfi_offset 4, -8
 564              		.cfi_offset 14, -4
 565              		.loc 1 273 0
 566 0002 0446     		mov	r4, r0
 567              		.loc 1 275 0
 568              		.syntax unified
 569              	@ 275 "ChibiOS_2.6.6/os/kernel/src/chthreads.c" 1
 570 0004 72B6     		cpsid   i
ARM GAS  /tmp/cc1vhOd9.s 			page 11


 571              	@ 0 "" 2
 572              		.thumb
 573              		.syntax unified
 574 0006 FFF7FEFF 		bl	dbg_check_lock
 575              	.LVL43:
 576              		.loc 1 276 0
 577 000a 94F82130 		ldrb	r3, [r4, #33]	@ zero_extendqisi2
 578 000e 43F00403 		orr	r3, r3, #4
 579 0012 84F82130 		strb	r3, [r4, #33]
 580              		.loc 1 277 0
 581 0016 FFF7FEFF 		bl	dbg_check_unlock
 582              	.LVL44:
 583              		.syntax unified
 584              	@ 277 "ChibiOS_2.6.6/os/kernel/src/chthreads.c" 1
 585 001a 62B6     		cpsie   i
 586              	@ 0 "" 2
 587              		.loc 1 278 0
 588              		.thumb
 589              		.syntax unified
 590 001c 10BD     		pop	{r4, pc}
 591              		.cfi_endproc
 592              	.LFE13:
 593              		.size	chThdTerminate, .-chThdTerminate
 594 001e 00BF     		.section	.text.chThdSleep,"ax",%progbits
 595              		.align	1
 596              		.p2align 4,,15
 597              		.global	chThdSleep
 598              		.syntax unified
 599              		.thumb
 600              		.thumb_func
 601              		.fpu fpv4-sp-d16
 602              		.type	chThdSleep, %function
 603              	chThdSleep:
 604              	.LFB14:
 605              		.loc 1 292 0
 606              		.cfi_startproc
 607              		@ args = 0, pretend = 0, frame = 0
 608              		@ frame_needed = 0, uses_anonymous_args = 0
 609              	.LVL45:
 610 0000 10B5     		push	{r4, lr}
 611              		.cfi_def_cfa_offset 8
 612              		.cfi_offset 4, -8
 613              		.cfi_offset 14, -4
 614              		.loc 1 294 0
 615 0002 0446     		mov	r4, r0
 616 0004 10B9     		cbnz	r0, .L46
 617              		.loc 1 294 0 is_stmt 0 discriminator 1
 618 0006 0748     		ldr	r0, .L48
 619              	.LVL46:
 620 0008 FFF7FEFF 		bl	chDbgPanic
 621              	.LVL47:
 622              	.L46:
 623              		.loc 1 296 0 is_stmt 1
 624              		.syntax unified
 625              	@ 296 "ChibiOS_2.6.6/os/kernel/src/chthreads.c" 1
 626 000c 72B6     		cpsid   i
 627              	@ 0 "" 2
ARM GAS  /tmp/cc1vhOd9.s 			page 12


 628              		.thumb
 629              		.syntax unified
 630 000e FFF7FEFF 		bl	dbg_check_lock
 631              	.LVL48:
 632              		.loc 1 297 0
 633 0012 2146     		mov	r1, r4
 634 0014 0620     		movs	r0, #6
 635 0016 FFF7FEFF 		bl	chSchGoSleepTimeoutS
 636              	.LVL49:
 637              		.loc 1 298 0
 638 001a FFF7FEFF 		bl	dbg_check_unlock
 639              	.LVL50:
 640              		.syntax unified
 641              	@ 298 "ChibiOS_2.6.6/os/kernel/src/chthreads.c" 1
 642 001e 62B6     		cpsie   i
 643              	@ 0 "" 2
 644              		.loc 1 299 0
 645              		.thumb
 646              		.syntax unified
 647 0020 10BD     		pop	{r4, pc}
 648              	.LVL51:
 649              	.L49:
 650 0022 00BF     		.align	2
 651              	.L48:
 652 0024 00000000 		.word	.LC3
 653              		.cfi_endproc
 654              	.LFE14:
 655              		.size	chThdSleep, .-chThdSleep
 656              		.section	.text.chThdSleepUntil,"ax",%progbits
 657              		.align	1
 658              		.p2align 4,,15
 659              		.global	chThdSleepUntil
 660              		.syntax unified
 661              		.thumb
 662              		.thumb_func
 663              		.fpu fpv4-sp-d16
 664              		.type	chThdSleepUntil, %function
 665              	chThdSleepUntil:
 666              	.LFB15:
 667              		.loc 1 309 0
 668              		.cfi_startproc
 669              		@ args = 0, pretend = 0, frame = 0
 670              		@ frame_needed = 0, uses_anonymous_args = 0
 671              	.LVL52:
 672 0000 10B5     		push	{r4, lr}
 673              		.cfi_def_cfa_offset 8
 674              		.cfi_offset 4, -8
 675              		.cfi_offset 14, -4
 676              		.loc 1 309 0
 677 0002 0446     		mov	r4, r0
 678              		.loc 1 311 0
 679              		.syntax unified
 680              	@ 311 "ChibiOS_2.6.6/os/kernel/src/chthreads.c" 1
 681 0004 72B6     		cpsid   i
 682              	@ 0 "" 2
 683              		.thumb
 684              		.syntax unified
ARM GAS  /tmp/cc1vhOd9.s 			page 13


 685 0006 FFF7FEFF 		bl	dbg_check_lock
 686              	.LVL53:
 687              		.loc 1 312 0
 688 000a 054B     		ldr	r3, .L56
 689 000c D968     		ldr	r1, [r3, #12]
 690              	.LVL54:
 691 000e 611A     		subs	r1, r4, r1
 692              	.LVL55:
 693 0010 02D0     		beq	.L51
 694              		.loc 1 313 0
 695 0012 0620     		movs	r0, #6
 696 0014 FFF7FEFF 		bl	chSchGoSleepTimeoutS
 697              	.LVL56:
 698              	.L51:
 699              		.loc 1 314 0
 700 0018 FFF7FEFF 		bl	dbg_check_unlock
 701              	.LVL57:
 702              		.syntax unified
 703              	@ 314 "ChibiOS_2.6.6/os/kernel/src/chthreads.c" 1
 704 001c 62B6     		cpsie   i
 705              	@ 0 "" 2
 706              		.loc 1 315 0
 707              		.thumb
 708              		.syntax unified
 709 001e 10BD     		pop	{r4, pc}
 710              	.L57:
 711              		.align	2
 712              	.L56:
 713 0020 00000000 		.word	vtlist
 714              		.cfi_endproc
 715              	.LFE15:
 716              		.size	chThdSleepUntil, .-chThdSleepUntil
 717              		.section	.text.chThdYield,"ax",%progbits
 718              		.align	1
 719              		.p2align 4,,15
 720              		.global	chThdYield
 721              		.syntax unified
 722              		.thumb
 723              		.thumb_func
 724              		.fpu fpv4-sp-d16
 725              		.type	chThdYield, %function
 726              	chThdYield:
 727              	.LFB16:
 728              		.loc 1 324 0
 729              		.cfi_startproc
 730              		@ args = 0, pretend = 0, frame = 0
 731              		@ frame_needed = 0, uses_anonymous_args = 0
 732 0000 08B5     		push	{r3, lr}
 733              		.cfi_def_cfa_offset 8
 734              		.cfi_offset 3, -8
 735              		.cfi_offset 14, -4
 736              		.loc 1 326 0
 737              		.syntax unified
 738              	@ 326 "ChibiOS_2.6.6/os/kernel/src/chthreads.c" 1
 739 0002 72B6     		cpsid   i
 740              	@ 0 "" 2
 741              		.thumb
ARM GAS  /tmp/cc1vhOd9.s 			page 14


 742              		.syntax unified
 743 0004 FFF7FEFF 		bl	dbg_check_lock
 744              	.LVL58:
 745              		.loc 1 327 0
 746 0008 064B     		ldr	r3, .L61
 747 000a 1A68     		ldr	r2, [r3]
 748 000c 9B69     		ldr	r3, [r3, #24]
 749 000e 9268     		ldr	r2, [r2, #8]
 750 0010 9B68     		ldr	r3, [r3, #8]
 751 0012 9A42     		cmp	r2, r3
 752 0014 01D3     		bcc	.L59
 753              		.loc 1 327 0 is_stmt 0 discriminator 1
 754 0016 FFF7FEFF 		bl	chSchDoRescheduleBehind
 755              	.LVL59:
 756              	.L59:
 757              		.loc 1 328 0 is_stmt 1
 758 001a FFF7FEFF 		bl	dbg_check_unlock
 759              	.LVL60:
 760              		.syntax unified
 761              	@ 328 "ChibiOS_2.6.6/os/kernel/src/chthreads.c" 1
 762 001e 62B6     		cpsie   i
 763              	@ 0 "" 2
 764              		.loc 1 329 0
 765              		.thumb
 766              		.syntax unified
 767 0020 08BD     		pop	{r3, pc}
 768              	.L62:
 769 0022 00BF     		.align	2
 770              	.L61:
 771 0024 00000000 		.word	rlist
 772              		.cfi_endproc
 773              	.LFE16:
 774              		.size	chThdYield, .-chThdYield
 775              		.section	.text.chThdExitS,"ax",%progbits
 776              		.align	1
 777              		.p2align 4,,15
 778              		.global	chThdExitS
 779              		.syntax unified
 780              		.thumb
 781              		.thumb_func
 782              		.fpu fpv4-sp-d16
 783              		.type	chThdExitS, %function
 784              	chThdExitS:
 785              	.LFB18:
 786              		.loc 1 366 0
 787              		.cfi_startproc
 788              		@ args = 0, pretend = 0, frame = 0
 789              		@ frame_needed = 0, uses_anonymous_args = 0
 790              	.LVL61:
 791 0000 38B5     		push	{r3, r4, r5, lr}
 792              		.cfi_def_cfa_offset 16
 793              		.cfi_offset 3, -16
 794              		.cfi_offset 4, -12
 795              		.cfi_offset 5, -8
 796              		.cfi_offset 14, -4
 797              		.loc 1 367 0
 798 0002 104B     		ldr	r3, .L69
ARM GAS  /tmp/cc1vhOd9.s 			page 15


 799 0004 9C69     		ldr	r4, [r3, #24]
 800              	.LVL62:
 801              		.loc 1 374 0
 802 0006 2546     		mov	r5, r4
 803              		.loc 1 369 0
 804 0008 A062     		str	r0, [r4, #40]
 805              		.loc 1 374 0
 806 000a 55F82C0F 		ldr	r0, [r5, #44]!
 807              	.LVL63:
 808 000e 8542     		cmp	r5, r0
 809 0010 06D0     		beq	.L64
 810              	.LVL64:
 811              	.L65:
 812              	.LBB24:
 813              	.LBB25:
 814              		.file 2 "ChibiOS_2.6.6/os/kernel/include/chinline.h"
 815              		.loc 2 89 0
 816 0012 0368     		ldr	r3, [r0]
 817 0014 E362     		str	r3, [r4, #44]
 818              	.LVL65:
 819              	.LBE25:
 820              	.LBE24:
 821              		.loc 1 375 0
 822 0016 FFF7FEFF 		bl	chSchReadyI
 823              	.LVL66:
 824              		.loc 1 374 0
 825 001a E06A     		ldr	r0, [r4, #44]
 826 001c A842     		cmp	r0, r5
 827 001e F8D1     		bne	.L65
 828              	.L64:
 829              		.loc 1 380 0
 830 0020 94F82130 		ldrb	r3, [r4, #33]	@ zero_extendqisi2
 831 0024 9B07     		lsls	r3, r3, #30
 832 0026 04D1     		bne	.L66
 833              		.loc 1 381 0
 834 0028 D4E90423 		ldrd	r2, r3, [r4, #16]
 835 002c 1A61     		str	r2, [r3, #16]
 836 002e 2269     		ldr	r2, [r4, #16]
 837 0030 5361     		str	r3, [r2, #20]
 838              	.L66:
 839              		.loc 1 383 0
 840 0032 0E20     		movs	r0, #14
 841 0034 FFF7FEFF 		bl	chSchGoSleepS
 842              	.LVL67:
 843              		.loc 1 385 0
 844 0038 0348     		ldr	r0, .L69+4
 845              		.loc 1 386 0
 846 003a BDE83840 		pop	{r3, r4, r5, lr}
 847              		.cfi_restore 14
 848              		.cfi_restore 5
 849              		.cfi_restore 4
 850              		.cfi_restore 3
 851              		.cfi_def_cfa_offset 0
 852              	.LVL68:
 853              		.loc 1 385 0
 854 003e FFF7FEBF 		b	chDbgPanic
 855              	.LVL69:
ARM GAS  /tmp/cc1vhOd9.s 			page 16


 856              	.L70:
 857 0042 00BF     		.align	2
 858              	.L69:
 859 0044 00000000 		.word	rlist
 860 0048 00000000 		.word	.LC4
 861              		.cfi_endproc
 862              	.LFE18:
 863              		.size	chThdExitS, .-chThdExitS
 864              		.section	.text.chThdExit,"ax",%progbits
 865              		.align	1
 866              		.p2align 4,,15
 867              		.global	chThdExit
 868              		.syntax unified
 869              		.thumb
 870              		.thumb_func
 871              		.fpu fpv4-sp-d16
 872              		.type	chThdExit, %function
 873              	chThdExit:
 874              	.LFB17:
 875              		.loc 1 345 0
 876              		.cfi_startproc
 877              		@ args = 0, pretend = 0, frame = 0
 878              		@ frame_needed = 0, uses_anonymous_args = 0
 879              	.LVL70:
 880 0000 10B5     		push	{r4, lr}
 881              		.cfi_def_cfa_offset 8
 882              		.cfi_offset 4, -8
 883              		.cfi_offset 14, -4
 884              		.loc 1 345 0
 885 0002 0446     		mov	r4, r0
 886              		.loc 1 347 0
 887              		.syntax unified
 888              	@ 347 "ChibiOS_2.6.6/os/kernel/src/chthreads.c" 1
 889 0004 72B6     		cpsid   i
 890              	@ 0 "" 2
 891              		.thumb
 892              		.syntax unified
 893 0006 FFF7FEFF 		bl	dbg_check_lock
 894              	.LVL71:
 895              		.loc 1 348 0
 896 000a 2046     		mov	r0, r4
 897              		.loc 1 350 0
 898 000c BDE81040 		pop	{r4, lr}
 899              		.cfi_restore 14
 900              		.cfi_restore 4
 901              		.cfi_def_cfa_offset 0
 902              	.LVL72:
 903              		.loc 1 348 0
 904 0010 FFF7FEBF 		b	chThdExitS
 905              	.LVL73:
 906              		.cfi_endproc
 907              	.LFE17:
 908              		.size	chThdExit, .-chThdExit
 909              		.section	.text.chThdWait,"ax",%progbits
 910              		.align	1
 911              		.p2align 4,,15
 912              		.global	chThdWait
ARM GAS  /tmp/cc1vhOd9.s 			page 17


 913              		.syntax unified
 914              		.thumb
 915              		.thumb_func
 916              		.fpu fpv4-sp-d16
 917              		.type	chThdWait, %function
 918              	chThdWait:
 919              	.LFB19:
 920              		.loc 1 420 0
 921              		.cfi_startproc
 922              		@ args = 0, pretend = 0, frame = 0
 923              		@ frame_needed = 0, uses_anonymous_args = 0
 924              	.LVL74:
 925 0000 38B5     		push	{r3, r4, r5, lr}
 926              		.cfi_def_cfa_offset 16
 927              		.cfi_offset 3, -16
 928              		.cfi_offset 4, -12
 929              		.cfi_offset 5, -8
 930              		.cfi_offset 14, -4
 931              		.loc 1 423 0
 932 0002 0446     		mov	r4, r0
 933 0004 28B3     		cbz	r0, .L82
 934              	.LVL75:
 935              	.L74:
 936              		.loc 1 425 0
 937              		.syntax unified
 938              	@ 425 "ChibiOS_2.6.6/os/kernel/src/chthreads.c" 1
 939 0006 72B6     		cpsid   i
 940              	@ 0 "" 2
 941              		.loc 1 426 0
 942              		.thumb
 943              		.syntax unified
 944 0008 144D     		ldr	r5, .L85
 945              		.loc 1 425 0
 946 000a FFF7FEFF 		bl	dbg_check_lock
 947              	.LVL76:
 948              		.loc 1 426 0
 949 000e AB69     		ldr	r3, [r5, #24]
 950 0010 A342     		cmp	r3, r4
 951 0012 1AD0     		beq	.L83
 952              	.L75:
 953              		.loc 1 428 0
 954 0014 94F82230 		ldrb	r3, [r4, #34]	@ zero_extendqisi2
 955 0018 9BB1     		cbz	r3, .L84
 956              	.L76:
 957              		.loc 1 430 0
 958 001a 94F82030 		ldrb	r3, [r4, #32]	@ zero_extendqisi2
 959 001e 0E2B     		cmp	r3, #14
 960 0020 06D0     		beq	.L77
 961              		.loc 1 431 0
 962 0022 AB69     		ldr	r3, [r5, #24]
 963              	.LVL77:
 964              	.LBB26:
 965              	.LBB27:
 966              		.loc 2 82 0
 967 0024 E26A     		ldr	r2, [r4, #44]
 968 0026 1A60     		str	r2, [r3]
 969              	.LBE27:
ARM GAS  /tmp/cc1vhOd9.s 			page 18


 970              	.LBE26:
 971              		.loc 1 432 0
 972 0028 0720     		movs	r0, #7
 973              	.LBB29:
 974              	.LBB28:
 975              		.loc 2 83 0
 976 002a E362     		str	r3, [r4, #44]
 977              	.LVL78:
 978              	.LBE28:
 979              	.LBE29:
 980              		.loc 1 432 0
 981 002c FFF7FEFF 		bl	chSchGoSleepS
 982              	.LVL79:
 983              	.L77:
 984              		.loc 1 434 0
 985 0030 A56A     		ldr	r5, [r4, #40]
 986              	.LVL80:
 987              		.loc 1 435 0
 988 0032 FFF7FEFF 		bl	dbg_check_unlock
 989              	.LVL81:
 990              		.syntax unified
 991              	@ 435 "ChibiOS_2.6.6/os/kernel/src/chthreads.c" 1
 992 0036 62B6     		cpsie   i
 993              	@ 0 "" 2
 994              		.loc 1 437 0
 995              		.thumb
 996              		.syntax unified
 997 0038 2046     		mov	r0, r4
 998 003a FFF7FEFF 		bl	chThdRelease
 999              	.LVL82:
 1000              		.loc 1 440 0
 1001 003e 2846     		mov	r0, r5
 1002 0040 38BD     		pop	{r3, r4, r5, pc}
 1003              	.LVL83:
 1004              	.L84:
 1005              		.loc 1 428 0 discriminator 1
 1006 0042 0748     		ldr	r0, .L85+4
 1007 0044 FFF7FEFF 		bl	chDbgPanic
 1008              	.LVL84:
 1009 0048 E7E7     		b	.L76
 1010              	.L83:
 1011              		.loc 1 426 0 discriminator 1
 1012 004a 0648     		ldr	r0, .L85+8
 1013 004c FFF7FEFF 		bl	chDbgPanic
 1014              	.LVL85:
 1015 0050 E0E7     		b	.L75
 1016              	.LVL86:
 1017              	.L82:
 1018              		.loc 1 423 0 discriminator 1
 1019 0052 0548     		ldr	r0, .L85+12
 1020              	.LVL87:
 1021 0054 FFF7FEFF 		bl	chDbgPanic
 1022              	.LVL88:
 1023 0058 D5E7     		b	.L74
 1024              	.L86:
 1025 005a 00BF     		.align	2
 1026              	.L85:
ARM GAS  /tmp/cc1vhOd9.s 			page 19


 1027 005c 00000000 		.word	rlist
 1028 0060 20000000 		.word	.LC7
 1029 0064 10000000 		.word	.LC6
 1030 0068 00000000 		.word	.LC5
 1031              		.cfi_endproc
 1032              	.LFE19:
 1033              		.size	chThdWait, .-chThdWait
 1034              		.section	.rodata.chThdCreateI.str1.4,"aMS",%progbits,1
 1035              		.align	2
 1036              	.LC0:
 1037 0000 22636854 		.ascii	"\"chThdCreateI\"()\000"
 1037      68644372 
 1037      65617465 
 1037      49222829 
 1037      00
 1038              		.section	.rodata.chThdExitS.str1.4,"aMS",%progbits,1
 1039              		.align	2
 1040              	.LC4:
 1041 0000 63685468 		.ascii	"chThdExitS(), #1\000"
 1041      64457869 
 1041      74532829 
 1041      2C202331 
 1041      00
 1042              		.section	.rodata.chThdResume.str1.4,"aMS",%progbits,1
 1043              		.align	2
 1044              	.LC2:
 1045 0000 63685468 		.ascii	"chThdResume(), #1\000"
 1045      64526573 
 1045      756D6528 
 1045      292C2023 
 1045      3100
 1046              		.section	.rodata.chThdSetPriority.str1.4,"aMS",%progbits,1
 1047              		.align	2
 1048              	.LC1:
 1049 0000 22636854 		.ascii	"\"chThdSetPriority\"()\000"
 1049      68645365 
 1049      74507269 
 1049      6F726974 
 1049      79222829 
 1050              		.section	.rodata.chThdSleep.str1.4,"aMS",%progbits,1
 1051              		.align	2
 1052              	.LC3:
 1053 0000 22636854 		.ascii	"\"chThdSleep\"()\000"
 1053      6864536C 
 1053      65657022 
 1053      282900
 1054              		.section	.rodata.chThdWait.str1.4,"aMS",%progbits,1
 1055              		.align	2
 1056              	.LC5:
 1057 0000 22636854 		.ascii	"\"chThdWait\"()\000"
 1057      68645761 
 1057      69742228 
 1057      2900
 1058 000e 0000     		.space	2
 1059              	.LC6:
 1060 0010 63685468 		.ascii	"chThdWait(), #1\000"
 1060      64576169 
ARM GAS  /tmp/cc1vhOd9.s 			page 20


 1060      7428292C 
 1060      20233100 
 1061              	.LC7:
 1062 0020 63685468 		.ascii	"chThdWait(), #2\000"
 1062      64576169 
 1062      7428292C 
 1062      20233200 
 1063              		.text
 1064              	.Letext0:
 1065              		.file 3 "/usr/lib/gcc/arm-none-eabi/7.3.1/include/stddef.h"
 1066              		.file 4 "/usr/arm-none-eabi/include/machine/_default_types.h"
 1067              		.file 5 "/usr/arm-none-eabi/include/sys/_stdint.h"
 1068              		.file 6 "ChibiOS_2.6.6/os/ports/GCC/ARMCMx/chtypes.h"
 1069              		.file 7 "ChibiOS_2.6.6/os/kernel/include/chlists.h"
 1070              		.file 8 "ChibiOS_2.6.6/os/kernel/include/chthreads.h"
 1071              		.file 9 "ChibiOS_2.6.6/os/ports/GCC/ARMCMx/chcore_v7m.h"
 1072              		.file 10 "ChibiOS_2.6.6/os/kernel/include/chvt.h"
 1073              		.file 11 "ChibiOS_2.6.6/os/kernel/include/chschd.h"
 1074              		.file 12 "ChibiOS_2.6.6/os/kernel/include/chmtx.h"
 1075              		.file 13 "ChibiOS_2.6.6/os/kernel/include/chregistry.h"
 1076              		.file 14 "ChibiOS_2.6.6/os/kernel/include/chdebug.h"
 1077              		.file 15 "ChibiOS_2.6.6/os/kernel/include/ch.h"
 1078              		.file 16 "ChibiOS_2.6.6/os/kernel/include/chdynamic.h"