ARM GAS  /tmp/ccPqzWE0.s 			page 1


   1              		.cpu cortex-m4
   2              		.eabi_attribute 27, 1
   3              		.eabi_attribute 28, 1
   4              		.eabi_attribute 20, 1
   5              		.eabi_attribute 21, 1
   6              		.eabi_attribute 23, 3
   7              		.eabi_attribute 24, 1
   8              		.eabi_attribute 25, 1
   9              		.eabi_attribute 26, 1
  10              		.eabi_attribute 30, 2
  11              		.eabi_attribute 34, 1
  12              		.eabi_attribute 18, 4
  13              		.file	"chvt.c"
  14              		.text
  15              	.Ltext0:
  16              		.cfi_sections	.debug_frame
  17              		.section	.text._vt_init,"ax",%progbits
  18              		.align	1
  19              		.p2align 4,,15
  20              		.global	_vt_init
  21              		.syntax unified
  22              		.thumb
  23              		.thumb_func
  24              		.fpu fpv4-sp-d16
  25              		.type	_vt_init, %function
  26              	_vt_init:
  27              	.LFB7:
  28              		.file 1 "ChibiOS_2.6.6/os/kernel/src/chvt.c"
  29              		.loc 1 50 0
  30              		.cfi_startproc
  31              		@ args = 0, pretend = 0, frame = 0
  32              		@ frame_needed = 0, uses_anonymous_args = 0
  33              		@ link register save eliminated.
  34              		.loc 1 52 0
  35 0000 044B     		ldr	r3, .L3
  36              		.loc 1 53 0
  37 0002 4FF0FF31 		mov	r1, #-1
  38              		.loc 1 54 0
  39 0006 0022     		movs	r2, #0
  40              		.loc 1 52 0
  41 0008 C3E90033 		strd	r3, r3, [r3]
  42              		.loc 1 53 0
  43 000c 9960     		str	r1, [r3, #8]
  44              		.loc 1 54 0
  45 000e DA60     		str	r2, [r3, #12]
  46              		.loc 1 55 0
  47 0010 7047     		bx	lr
  48              	.L4:
  49 0012 00BF     		.align	2
  50              	.L3:
  51 0014 00000000 		.word	.LANCHOR0
  52              		.cfi_endproc
  53              	.LFE7:
  54              		.size	_vt_init, .-_vt_init
  55              		.section	.text.chVTSetI,"ax",%progbits
  56              		.align	1
  57              		.p2align 4,,15
ARM GAS  /tmp/ccPqzWE0.s 			page 2


  58              		.global	chVTSetI
  59              		.syntax unified
  60              		.thumb
  61              		.thumb_func
  62              		.fpu fpv4-sp-d16
  63              		.type	chVTSetI, %function
  64              	chVTSetI:
  65              	.LFB8:
  66              		.loc 1 76 0
  67              		.cfi_startproc
  68              		@ args = 0, pretend = 0, frame = 0
  69              		@ frame_needed = 0, uses_anonymous_args = 0
  70              	.LVL0:
  71 0000 F8B5     		push	{r3, r4, r5, r6, r7, lr}
  72              		.cfi_def_cfa_offset 24
  73              		.cfi_offset 3, -24
  74              		.cfi_offset 4, -20
  75              		.cfi_offset 5, -16
  76              		.cfi_offset 6, -12
  77              		.cfi_offset 7, -8
  78              		.cfi_offset 14, -4
  79              		.loc 1 76 0
  80 0002 0546     		mov	r5, r0
  81 0004 0C46     		mov	r4, r1
  82 0006 1646     		mov	r6, r2
  83 0008 1F46     		mov	r7, r3
  84              		.loc 1 79 0
  85 000a FFF7FEFF 		bl	chDbgCheckClassI
  86              	.LVL1:
  87              		.loc 1 80 0
  88 000e D5B1     		cbz	r5, .L6
  89              		.loc 1 80 0 is_stmt 0 discriminator 2
  90 0010 CEB1     		cbz	r6, .L6
  91              		.loc 1 80 0 discriminator 4
  92 0012 C4B1     		cbz	r4, .L6
  93              	.L7:
  94              		.loc 1 85 0 is_stmt 1
  95 0014 0E49     		ldr	r1, .L19
  96              		.loc 1 83 0
  97 0016 2F61     		str	r7, [r5, #16]
  98              		.loc 1 85 0
  99 0018 0B68     		ldr	r3, [r1]
 100              	.LVL2:
 101              		.loc 1 84 0
 102 001a EE60     		str	r6, [r5, #12]
 103              		.loc 1 86 0
 104 001c 9A68     		ldr	r2, [r3, #8]
 105 001e 9442     		cmp	r4, r2
 106 0020 04D9     		bls	.L8
 107              	.L9:
 108              		.loc 1 88 0
 109 0022 1B68     		ldr	r3, [r3]
 110              	.LVL3:
 111              		.loc 1 87 0
 112 0024 A41A     		subs	r4, r4, r2
 113              	.LVL4:
 114              		.loc 1 86 0
ARM GAS  /tmp/ccPqzWE0.s 			page 3


 115 0026 9A68     		ldr	r2, [r3, #8]
 116 0028 A242     		cmp	r2, r4
 117 002a FAD3     		bcc	.L9
 118              	.L8:
 119              		.loc 1 91 0
 120 002c 5A68     		ldr	r2, [r3, #4]
 121 002e C5E90032 		strd	r3, r2, [r5]
 122              		.loc 1 92 0
 123 0032 5D60     		str	r5, [r3, #4]
 124 0034 6A68     		ldr	r2, [r5, #4]
 125              		.loc 1 94 0
 126 0036 8B42     		cmp	r3, r1
 127              		.loc 1 92 0
 128 0038 1560     		str	r5, [r2]
 129              		.loc 1 93 0
 130 003a AC60     		str	r4, [r5, #8]
 131              		.loc 1 94 0
 132 003c 02D0     		beq	.L5
 133              		.loc 1 95 0
 134 003e 9968     		ldr	r1, [r3, #8]
 135 0040 091B     		subs	r1, r1, r4
 136 0042 9960     		str	r1, [r3, #8]
 137              	.L5:
 138              		.loc 1 96 0
 139 0044 F8BD     		pop	{r3, r4, r5, r6, r7, pc}
 140              	.LVL5:
 141              	.L6:
 142              		.loc 1 80 0 discriminator 5
 143 0046 0348     		ldr	r0, .L19+4
 144 0048 FFF7FEFF 		bl	chDbgPanic
 145              	.LVL6:
 146 004c E2E7     		b	.L7
 147              	.L20:
 148 004e 00BF     		.align	2
 149              	.L19:
 150 0050 00000000 		.word	.LANCHOR0
 151 0054 00000000 		.word	.LC0
 152              		.cfi_endproc
 153              	.LFE8:
 154              		.size	chVTSetI, .-chVTSetI
 155              		.section	.text.chVTResetI,"ax",%progbits
 156              		.align	1
 157              		.p2align 4,,15
 158              		.global	chVTResetI
 159              		.syntax unified
 160              		.thumb
 161              		.thumb_func
 162              		.fpu fpv4-sp-d16
 163              		.type	chVTResetI, %function
 164              	chVTResetI:
 165              	.LFB9:
 166              		.loc 1 106 0
 167              		.cfi_startproc
 168              		@ args = 0, pretend = 0, frame = 0
 169              		@ frame_needed = 0, uses_anonymous_args = 0
 170              	.LVL7:
 171 0000 10B5     		push	{r4, lr}
ARM GAS  /tmp/ccPqzWE0.s 			page 4


 172              		.cfi_def_cfa_offset 8
 173              		.cfi_offset 4, -8
 174              		.cfi_offset 14, -4
 175              		.loc 1 106 0
 176 0002 0446     		mov	r4, r0
 177              		.loc 1 108 0
 178 0004 FFF7FEFF 		bl	chDbgCheckClassI
 179              	.LVL8:
 180              		.loc 1 109 0
 181 0008 84B1     		cbz	r4, .L26
 182              		.loc 1 110 0
 183 000a E368     		ldr	r3, [r4, #12]
 184 000c A3B1     		cbz	r3, .L27
 185              	.L23:
 186              		.loc 1 114 0
 187 000e 2368     		ldr	r3, [r4]
 188 0010 0B4A     		ldr	r2, .L28
 189 0012 9342     		cmp	r3, r2
 190 0014 03D0     		beq	.L24
 191              		.loc 1 115 0
 192 0016 9A68     		ldr	r2, [r3, #8]
 193 0018 A168     		ldr	r1, [r4, #8]
 194 001a 0A44     		add	r2, r2, r1
 195 001c 9A60     		str	r2, [r3, #8]
 196              	.L24:
 197              		.loc 1 116 0
 198 001e 6268     		ldr	r2, [r4, #4]
 199 0020 1360     		str	r3, [r2]
 200              		.loc 1 117 0
 201 0022 2168     		ldr	r1, [r4]
 202              		.loc 1 118 0
 203 0024 0023     		movs	r3, #0
 204              		.loc 1 117 0
 205 0026 4A60     		str	r2, [r1, #4]
 206              		.loc 1 118 0
 207 0028 E360     		str	r3, [r4, #12]
 208              		.loc 1 119 0
 209 002a 10BD     		pop	{r4, pc}
 210              	.LVL9:
 211              	.L26:
 212              		.loc 1 109 0 discriminator 1
 213 002c 0548     		ldr	r0, .L28+4
 214 002e FFF7FEFF 		bl	chDbgPanic
 215              	.LVL10:
 216              		.loc 1 110 0 discriminator 1
 217 0032 E368     		ldr	r3, [r4, #12]
 218 0034 002B     		cmp	r3, #0
 219 0036 EAD1     		bne	.L23
 220              	.L27:
 221 0038 0348     		ldr	r0, .L28+8
 222 003a FFF7FEFF 		bl	chDbgPanic
 223              	.LVL11:
 224 003e E6E7     		b	.L23
 225              	.L29:
 226              		.align	2
 227              	.L28:
 228 0040 00000000 		.word	.LANCHOR0
ARM GAS  /tmp/ccPqzWE0.s 			page 5


 229 0044 00000000 		.word	.LC1
 230 0048 10000000 		.word	.LC2
 231              		.cfi_endproc
 232              	.LFE9:
 233              		.size	chVTResetI, .-chVTResetI
 234              		.global	vtlist
 235              		.section	.bss.vtlist,"aw",%nobits
 236              		.align	2
 237              		.set	.LANCHOR0,. + 0
 238              		.type	vtlist, %object
 239              		.size	vtlist, 16
 240              	vtlist:
 241 0000 00000000 		.space	16
 241      00000000 
 241      00000000 
 241      00000000 
 242              		.section	.rodata.chVTResetI.str1.4,"aMS",%progbits,1
 243              		.align	2
 244              	.LC1:
 245 0000 22636856 		.ascii	"\"chVTResetI\"()\000"
 245      54526573 
 245      65744922 
 245      282900
 246 000f 00       		.space	1
 247              	.LC2:
 248 0010 63685654 		.ascii	"chVTResetI(), #1\000"
 248      52657365 
 248      74492829 
 248      2C202331 
 248      00
 249              		.section	.rodata.chVTSetI.str1.4,"aMS",%progbits,1
 250              		.align	2
 251              	.LC0:
 252 0000 22636856 		.ascii	"\"chVTSetI\"()\000"
 252      54536574 
 252      49222829 
 252      00
 253              		.text
 254              	.Letext0:
 255              		.file 2 "/usr/arm-none-eabi/include/machine/_default_types.h"
 256              		.file 3 "/usr/arm-none-eabi/include/sys/_stdint.h"
 257              		.file 4 "ChibiOS_2.6.6/os/ports/GCC/ARMCMx/chtypes.h"
 258              		.file 5 "ChibiOS_2.6.6/os/kernel/include/chlists.h"
 259              		.file 6 "ChibiOS_2.6.6/os/kernel/include/chthreads.h"
 260              		.file 7 "ChibiOS_2.6.6/os/ports/GCC/ARMCMx/chcore_v7m.h"
 261              		.file 8 "ChibiOS_2.6.6/os/kernel/include/chvt.h"
 262              		.file 9 "ChibiOS_2.6.6/os/kernel/include/chschd.h"
 263              		.file 10 "ChibiOS_2.6.6/os/kernel/include/chmtx.h"
 264              		.file 11 "ChibiOS_2.6.6/os/kernel/include/chregistry.h"
 265              		.file 12 "ChibiOS_2.6.6/os/kernel/include/chdebug.h"
 266              		.file 13 "ChibiOS_2.6.6/os/kernel/include/ch.h"