ARM GAS  /tmp/ccPqzWE0.s 			page 1


   1              		.cpu cortex-m4
   2              		.eabi_attribute 27, 1
   3              		.eabi_attribute 28, 1
   4              		.eabi_attribute 20, 1
   5              		.eabi_attribute 21, 1
   6              		.eabi_attribute 23, 3
   7              		.eabi_attribute 24, 1
   8              		.eabi_attribute 25, 1
   9              		.eabi_attribute 26, 1
  10              		.eabi_attribute 30, 2
  11              		.eabi_attribute 34, 1
  12              		.eabi_attribute 18, 4
  13              		.file	"chvt.c"
  14              		.text
  15              	.Ltext0:
  16              		.cfi_sections	.debug_frame
  17              		.section	.text._vt_init,"ax",%progbits
  18              		.align	1
  19              		.p2align 4,,15
  20              		.global	_vt_init
  21              		.syntax unified
  22              		.thumb
  23              		.thumb_func
  24              		.fpu fpv4-sp-d16
  25              		.type	_vt_init, %function
  26              	_vt_init:
  27              	.LFB7:
  28              		.file 1 "ChibiOS_2.6.6/os/kernel/src/chvt.c"
  29              		.loc 1 50 0
  30              		.cfi_startproc
  31              		@ args = 0, pretend = 0, frame = 0
  32              		@ frame_needed = 0, uses_anonymous_args = 0
  33              		@ link register save eliminated.
  34              		.loc 1 52 0
  35 0000 044B     		ldr	r3, .L3
  36              		.loc 1 53 0
  37 0002 4FF0FF31 		mov	r1, #-1
  38              		.loc 1 54 0
  39 0006 0022     		movs	r2, #0
  40              		.loc 1 52 0
  41 0008 C3E90033 		strd	r3, r3, [r3]
  42              		.loc 1 53 0
  43 000c 9960     		str	r1, [r3, #8]
  44              		.loc 1 54 0
  45 000e DA60     		str	r2, [r3, #12]
  46              		.loc 1 55 0
  47 0010 7047     		bx	lr
  48              	.L4:
  49 0012 00BF     		.align	2
  50              	.L3:
  51 0014 00000000 		.word	.LANCHOR0
  52              		.cfi_endproc
  53              	.LFE7:
  54              		.size	_vt_init, .-_vt_init
  55              		.section	.text.chVTSetI,"ax",%progbits
  56              		.align	1
  57              		.p2align 4,,15
ARM GAS  /tmp/ccPqzWE0.s 			page 2


  58              		.global	chVTSetI
  59              		.syntax unified
  60              		.thumb
  61              		.thumb_func
  62              		.fpu fpv4-sp-d16
  63              		.type	chVTSetI, %function
  64              	chVTSetI:
  65              	.LFB8:
  66              		.loc 1 76 0
  67              		.cfi_startproc
  68              		@ args = 0, pretend = 0, frame = 0
  69              		@ frame_needed = 0, uses_anonymous_args = 0
  70              	.LVL0:
  71 0000 F8B5     		push	{r3, r4, r5, r6, r7, lr}
  72              		.cfi_def_cfa_offset 24
  73              		.cfi_offset 3, -24
  74              		.cfi_offset 4, -20
  75              		.cfi_offset 5, -16
  76              		.cfi_offset 6, -12
  77              		.cfi_offset 7, -8
  78              		.cfi_offset 14, -4
  79              		.loc 1 76 0
  80 0002 0546     		mov	r5, r0
  81 0004 0C46     		mov	r4, r1
  82 0006 1646     		mov	r6, r2
  83 0008 1F46     		mov	r7, r3
  84              		.loc 1 79 0
  85 000a FFF7FEFF 		bl	chDbgCheckClassI
  86              	.LVL1:
  87              		.loc 1 80 0
  88 000e D5B1     		cbz	r5, .L6
  89              		.loc 1 80 0 is_stmt 0 discriminator 2
  90 0010 CEB1     		cbz	r6, .L6
  91              		.loc 1 80 0 discriminator 4
  92 0012 C4B1     		cbz	r4, .L6
  93              	.L7:
  94              		.loc 1 85 0 is_stmt 1
  95 0014 0E49     		ldr	r1, .L19
  96              		.loc 1 83 0
  97 0016 2F61     		str	r7, [r5, #16]
  98              		.loc 1 85 0
  99 0018 0B68     		ldr	r3, [r1]
 100              	.LVL2:
 101              		.loc 1 84 0
 102 001a EE60     		str	r6, [r5, #12]
 103              		.loc 1 86 0
 104 001c 9A68     		ldr	r2, [r3, #8]
 105 001e 9442     		cmp	r4, r2
 106 0020 04D9     		bls	.L8
 107              	.L9:
 108              		.loc 1 88 0
 109 0022 1B68     		ldr	r3, [r3]
 110              	.LVL3:
 111              		.loc 1 87 0
 112 0024 A41A     		subs	r4, r4, r2
 113              	.LVL4:
 114              		.loc 1 86 0
ARM GAS  /tmp/ccPqzWE0.s 			page 3


 115 0026 9A68     		ldr	r2, [r3, #8]
 116 0028 A242     		cmp	r2, r4
 117 002a FAD3     		bcc	.L9
 118              	.L8:
 119              		.loc 1 91 0
 120 002c 5A68     		ldr	r2, [r3, #4]
 121 002e C5E90032 		strd	r3, r2, [r5]
 122              		.loc 1 92 0
 123 0032 5D60     		str	r5, [r3, #4]
 124 0034 6A68     		ldr	r2, [r5, #4]
 125              		.loc 1 94 0
 126 0036 8B42     		cmp	r3, r1
 127              		.loc 1 92 0
 128 0038 1560     		str	r5, [r2]
 129              		.loc 1 93 0
 130 003a AC60     		str	r4, [r5, #8]
 131              		.loc 1 94 0
 132 003c 02D0     		beq	.L5
 133              		.loc 1 95 0
 134 003e 9968     		ldr	r1, [r3, #8]
 135 0040 091B     		subs	r1, r1, r4
 136 0042 9960     		str	r1, [r3, #8]
 137              	.L5:
 138              		.loc 1 96 0
 139 0044 F8BD     		pop	{r3, r4, r5, r6, r7, pc}
 140              	.LVL5:
 141              	.L6:
 142              		.loc 1 80 0 discriminator 5
 143 0046 0348     		ldr	r0, .L19+4
 144 0048 FFF7FEFF 		bl	chDbgPanic
 145              	.LVL6:
 146 004c E2E7     		b	.L7
 147              	.L20:
 148 004e 00BF     		.align	2
 149              	.L19:
 150 0050 00000000 		.word	.LANCHOR0
 151 0054 00000000 		.word	.LC0
 152              		.cfi_endproc
 153              	.LFE8:
 154              		.size	chVTSetI, .-chVTSetI
 155              		.section	.text.chVTResetI,"ax",%progbits
 156              		.align	1
 157              		.p2align 4,,15
 158              		.global	chVTResetI
 159              		.syntax unified
 160              		.thumb
 161              		.thumb_func
 162              		.fpu fpv4-sp-d16
 163              		.type	chVTResetI, %function
 164              	chVTResetI:
 165              	.LFB9:
 166              		.loc 1 106 0
 167              		.cfi_startproc
 168              		@ args = 0, pretend = 0, frame = 0
 169              		@ frame_needed = 0, uses_anonymous_args = 0
 170              	.LVL7:
 171 0000 10B5     		push	{r4, lr}
ARM GAS  /tmp/ccPqzWE0.s 			page 4


 172              		.cfi_def_cfa_offset 8
 173              		.cfi_offset 4, -8
 174              		.cfi_offset 14, -4
 175              		.loc 1 106 0
 176 0002 0446     		mov	r4, r0
 177              		.loc 1 108 0
 178 0004 FFF7FEFF 		bl	chDbgCheckClassI
 179              	.LVL8:
 180              		.loc 1 109 0
 181 0008 84B1     		cbz	r4, .L26
 182              		.loc 1 110 0
 183 000a E368     		ldr	r3, [r4, #12]
 184 000c A3B1     		cbz	r3, .L27
 185              	.L23:
 186              		.loc 1 114 0
 187 000e 2368     		ldr	r3, [r4]
 188 0010 0B4A     		ldr	r2, .L28
 189 0012 9342     		cmp	r3, r2
 190 0014 03D0     		beq	.L24
 191              		.loc 1 115 0
 192 0016 9A68     		ldr	r2, [r3, #8]
 193 0018 A168     		ldr	r1, [r4, #8]
 194 001a 0A44     		add	r2, r2, r1
 195 001c 9A60     		str	r2, [r3, #8]
 196              	.L24:
 197              		.loc 1 116 0
 198 001e 6268     		ldr	r2, [r4, #4]
 199 0020 1360     		str	r3, [r2]
 200              		.loc 1 117 0
 201 0022 2168     		ldr	r1, [r4]
 202              		.loc 1 118 0
 203 0024 0023     		movs	r3, #0
 204              		.loc 1 117 0
 205 0026 4A60     		str	r2, [r1, #4]
 206              		.loc 1 118 0
 207 0028 E360     		str	r3, [r4, #12]
 208              		.loc 1 119 0
 209 002a 10BD     		pop	{r4, pc}
 210              	.LVL9:
 211              	.L26:
 212              		.loc 1 109 0 discriminator 1
 213 002c 0548     		ldr	r0, .L28+4
 214 002e FFF7FEFF 		bl	chDbgPanic
 215              	.LVL10:
 216              		.loc 1 110 0 discriminator 1
 217 0032 E368     		ldr	r3, [r4, #12]
 218 0034 002B     		cmp	r3, #0
 219 0036 EAD1     		bne	.L23
 220              	.L27:
 221 0038 0348     		ldr	r0, .L28+8
 222 003a FFF7FEFF 		bl	chDbgPanic
 223              	.LVL11:
 224 003e E6E7     		b	.L23
 225              	.L29:
 226              		.align	2
 227              	.L28:
 228 0040 00000000 		.word	.LANCHOR0
ARM GAS  /tmp/ccPqzWE0.s 			page 5


 229 0044 00000000 		.word	.LC1
 230 0048 10000000 		.word	.LC2
 231              		.cfi_endproc
 232              	.LFE9:
 233              		.size	chVTResetI, .-chVTResetI
 234              		.global	vtlist
 235              		.section	.bss.vtlist,"aw",%nobits
 236              		.align	2
 237              		.set	.LANCHOR0,. + 0
 238              		.type	vtlist, %object
 239              		.size	vtlist, 16
 240              	vtlist:
 241 0000 00000000 		.space	16
 241      00000000 
 241      00000000 
 241      00000000 
 242              		.section	.rodata.chVTResetI.str1.4,"aMS",%progbits,1
 243              		.align	2
 244              	.LC1:
 245 0000 22636856 		.ascii	"\"chVTResetI\"()\000"
 245      54526573 
 245      65744922 
 245      282900
 246 000f 00       		.space	1
 247              	.LC2:
 248 0010 63685654 		.ascii	"chVTResetI(), #1\000"
 248      52657365 
 248      74492829 
 248      2C202331 
 248      00
 249              		.section	.rodata.chVTSetI.str1.4,"aMS",%progbits,1
 250              		.align	2
 251              	.LC0:
 252 0000 22636856 		.ascii	"\"chVTSetI\"()\000"
 252      54536574 
 252      49222829 
 252      00
 253              		.text
 254              	.Letext0:
 255              		.file 2 "/usr/arm-none-eabi/include/machine/_default_types.h"
 256              		.file 3 "/usr/arm-none-eabi/include/sys/_stdint.h"
 257              		.file 4 "ChibiOS_2.6.6/os/ports/GCC/ARMCMx/chtypes.h"
 258              		.file 5 "ChibiOS_2.6.6/os/kernel/include/chlists.h"
 259              		.file 6 "ChibiOS_2.6.6/os/kernel/include/chthreads.h"
 260              		.file 7 "ChibiOS_2.6.6/os/ports/GCC/ARMCMx/chcore_v7m.h"
 261              		.file 8 "ChibiOS_2.6.6/os/kernel/include/chvt.h"
 262              		.file 9 "ChibiOS_2.6.6/os/kernel/include/chschd.h"
 263              		.file 10 "ChibiOS_2.6.6/os/kernel/include/chmtx.h"
 264              		.file 11 "ChibiOS_2.6.6/os/kernel/include/chregistry.h"
 265              		.file 12 "ChibiOS_2.6.6/os/kernel/include/chdebug.h"
 266              		.file 13 "ChibiOS_2.6.6/os/kernel/include/ch.h"
 267              		.section	.debug_info,"",%progbits
 268              	.Ldebug_info0:
 269 0000 E0080000 		.4byte	0x8e0
 270 0004 0400     		.2byte	0x4
 271 0006 00000000 		.4byte	.Ldebug_abbrev0
 272 000a 04       		.byte	0x4
ARM GAS  /tmp/ccPqzWE0.s 			page 6


 273 000b 01       		.uleb128 0x1
 274 000c 4D000000 		.4byte	.LASF122
 275 0010 0C       		.byte	0xc
 276 0011 F1050000 		.4byte	.LASF123
 277 0015 1F030000 		.4byte	.LASF124
 278 0019 00000000 		.4byte	.Ldebug_ranges0+0
 279 001d 00000000 		.4byte	0
 280 0021 00000000 		.4byte	.Ldebug_line0
 281 0025 02       		.uleb128 0x2
 282 0026 04       		.byte	0x4
 283 0027 05       		.byte	0x5
 284 0028 696E7400 		.ascii	"int\000"
 285 002c 03       		.uleb128 0x3
 286 002d 04       		.byte	0x4
 287 002e 07       		.byte	0x7
 288 002f 91020000 		.4byte	.LASF0
 289 0033 03       		.uleb128 0x3
 290 0034 01       		.byte	0x1
 291 0035 06       		.byte	0x6
 292 0036 CB010000 		.4byte	.LASF1
 293 003a 04       		.uleb128 0x4
 294 003b 2E000000 		.4byte	.LASF4
 295 003f 02       		.byte	0x2
 296 0040 2B       		.byte	0x2b
 297 0041 45000000 		.4byte	0x45
 298 0045 03       		.uleb128 0x3
 299 0046 01       		.byte	0x1
 300 0047 08       		.byte	0x8
 301 0048 68040000 		.4byte	.LASF2
 302 004c 03       		.uleb128 0x3
 303 004d 02       		.byte	0x2
 304 004e 05       		.byte	0x5
 305 004f 8E040000 		.4byte	.LASF3
 306 0053 04       		.uleb128 0x4
 307 0054 23050000 		.4byte	.LASF5
 308 0058 02       		.byte	0x2
 309 0059 39       		.byte	0x39
 310 005a 5E000000 		.4byte	0x5e
 311 005e 03       		.uleb128 0x3
 312 005f 02       		.byte	0x2
 313 0060 07       		.byte	0x7
 314 0061 ED020000 		.4byte	.LASF6
 315 0065 04       		.uleb128 0x4
 316 0066 4A050000 		.4byte	.LASF7
 317 006a 02       		.byte	0x2
 318 006b 4D       		.byte	0x4d
 319 006c 70000000 		.4byte	0x70
 320 0070 03       		.uleb128 0x3
 321 0071 04       		.byte	0x4
 322 0072 05       		.byte	0x5
 323 0073 0E020000 		.4byte	.LASF8
 324 0077 04       		.uleb128 0x4
 325 0078 5C020000 		.4byte	.LASF9
 326 007c 02       		.byte	0x2
 327 007d 4F       		.byte	0x4f
 328 007e 82000000 		.4byte	0x82
 329 0082 03       		.uleb128 0x3
ARM GAS  /tmp/ccPqzWE0.s 			page 7


 330 0083 04       		.byte	0x4
 331 0084 07       		.byte	0x7
 332 0085 A6020000 		.4byte	.LASF10
 333 0089 03       		.uleb128 0x3
 334 008a 08       		.byte	0x8
 335 008b 05       		.byte	0x5
 336 008c BD010000 		.4byte	.LASF11
 337 0090 04       		.uleb128 0x4
 338 0091 12040000 		.4byte	.LASF12
 339 0095 02       		.byte	0x2
 340 0096 69       		.byte	0x69
 341 0097 9B000000 		.4byte	0x9b
 342 009b 03       		.uleb128 0x3
 343 009c 08       		.byte	0x8
 344 009d 07       		.byte	0x7
 345 009e 71010000 		.4byte	.LASF13
 346 00a2 04       		.uleb128 0x4
 347 00a3 BE050000 		.4byte	.LASF14
 348 00a7 03       		.byte	0x3
 349 00a8 18       		.byte	0x18
 350 00a9 3A000000 		.4byte	0x3a
 351 00ad 04       		.uleb128 0x4
 352 00ae 20020000 		.4byte	.LASF15
 353 00b2 03       		.byte	0x3
 354 00b3 24       		.byte	0x24
 355 00b4 53000000 		.4byte	0x53
 356 00b8 04       		.uleb128 0x4
 357 00b9 60040000 		.4byte	.LASF16
 358 00bd 03       		.byte	0x3
 359 00be 2C       		.byte	0x2c
 360 00bf 65000000 		.4byte	0x65
 361 00c3 04       		.uleb128 0x4
 362 00c4 01050000 		.4byte	.LASF17
 363 00c8 03       		.byte	0x3
 364 00c9 30       		.byte	0x30
 365 00ca 77000000 		.4byte	0x77
 366 00ce 04       		.uleb128 0x4
 367 00cf 25000000 		.4byte	.LASF18
 368 00d3 03       		.byte	0x3
 369 00d4 3C       		.byte	0x3c
 370 00d5 90000000 		.4byte	0x90
 371 00d9 03       		.uleb128 0x3
 372 00da 01       		.byte	0x1
 373 00db 02       		.byte	0x2
 374 00dc 5A040000 		.4byte	.LASF19
 375 00e0 04       		.uleb128 0x4
 376 00e1 40030000 		.4byte	.LASF20
 377 00e5 04       		.byte	0x4
 378 00e6 2C       		.byte	0x2c
 379 00e7 A2000000 		.4byte	0xa2
 380 00eb 04       		.uleb128 0x4
 381 00ec 17020000 		.4byte	.LASF21
 382 00f0 04       		.byte	0x4
 383 00f1 2D       		.byte	0x2d
 384 00f2 A2000000 		.4byte	0xa2
 385 00f6 04       		.uleb128 0x4
 386 00f7 2E040000 		.4byte	.LASF22
ARM GAS  /tmp/ccPqzWE0.s 			page 8


 387 00fb 04       		.byte	0x4
 388 00fc 2E       		.byte	0x2e
 389 00fd A2000000 		.4byte	0xa2
 390 0101 04       		.uleb128 0x4
 391 0102 04020000 		.4byte	.LASF23
 392 0106 04       		.byte	0x4
 393 0107 2F       		.byte	0x2f
 394 0108 A2000000 		.4byte	0xa2
 395 010c 04       		.uleb128 0x4
 396 010d 52040000 		.4byte	.LASF24
 397 0111 04       		.byte	0x4
 398 0112 30       		.byte	0x30
 399 0113 C3000000 		.4byte	0xc3
 400 0117 04       		.uleb128 0x4
 401 0118 00030000 		.4byte	.LASF25
 402 011c 04       		.byte	0x4
 403 011d 31       		.byte	0x31
 404 011e B8000000 		.4byte	0xb8
 405 0122 04       		.uleb128 0x4
 406 0123 60030000 		.4byte	.LASF26
 407 0127 04       		.byte	0x4
 408 0128 33       		.byte	0x33
 409 0129 C3000000 		.4byte	0xc3
 410 012d 04       		.uleb128 0x4
 411 012e 35050000 		.4byte	.LASF27
 412 0132 04       		.byte	0x4
 413 0133 35       		.byte	0x35
 414 0134 C3000000 		.4byte	0xc3
 415 0138 05       		.uleb128 0x5
 416 0139 2D010000 		.4byte	0x12d
 417 013d 04       		.uleb128 0x4
 418 013e 80020000 		.4byte	.LASF28
 419 0142 04       		.byte	0x4
 420 0143 36       		.byte	0x36
 421 0144 B8000000 		.4byte	0xb8
 422 0148 04       		.uleb128 0x4
 423 0149 E2040000 		.4byte	.LASF29
 424 014d 05       		.byte	0x5
 425 014e 2A       		.byte	0x2a
 426 014f 53010000 		.4byte	0x153
 427 0153 06       		.uleb128 0x6
 428 0154 E2040000 		.4byte	.LASF29
 429 0158 4C       		.byte	0x4c
 430 0159 06       		.byte	0x6
 431 015a 5E       		.byte	0x5e
 432 015b 5C020000 		.4byte	0x25c
 433 015f 07       		.uleb128 0x7
 434 0160 C4040000 		.4byte	.LASF30
 435 0164 06       		.byte	0x6
 436 0165 5F       		.byte	0x5f
 437 0166 7D020000 		.4byte	0x27d
 438 016a 00       		.byte	0
 439 016b 07       		.uleb128 0x7
 440 016c 4B040000 		.4byte	.LASF31
 441 0170 06       		.byte	0x6
 442 0171 61       		.byte	0x61
 443 0172 7D020000 		.4byte	0x27d
ARM GAS  /tmp/ccPqzWE0.s 			page 9


 444 0176 04       		.byte	0x4
 445 0177 07       		.uleb128 0x7
 446 0178 9A010000 		.4byte	.LASF32
 447 017c 06       		.byte	0x6
 448 017d 63       		.byte	0x63
 449 017e 0C010000 		.4byte	0x10c
 450 0182 08       		.byte	0x8
 451 0183 07       		.uleb128 0x7
 452 0184 26060000 		.4byte	.LASF33
 453 0188 06       		.byte	0x6
 454 0189 64       		.byte	0x64
 455 018a 13040000 		.4byte	0x413
 456 018e 0C       		.byte	0xc
 457 018f 07       		.uleb128 0x7
 458 0190 33020000 		.4byte	.LASF34
 459 0194 06       		.byte	0x6
 460 0195 66       		.byte	0x66
 461 0196 7D020000 		.4byte	0x27d
 462 019a 10       		.byte	0x10
 463 019b 07       		.uleb128 0x7
 464 019c D8030000 		.4byte	.LASF35
 465 01a0 06       		.byte	0x6
 466 01a1 67       		.byte	0x67
 467 01a2 7D020000 		.4byte	0x27d
 468 01a6 14       		.byte	0x14
 469 01a7 07       		.uleb128 0x7
 470 01a8 CD050000 		.4byte	.LASF36
 471 01ac 06       		.byte	0x6
 472 01ad 6E       		.byte	0x6e
 473 01ae D7050000 		.4byte	0x5d7
 474 01b2 18       		.byte	0x18
 475 01b3 07       		.uleb128 0x7
 476 01b4 86020000 		.4byte	.LASF37
 477 01b8 06       		.byte	0x6
 478 01b9 74       		.byte	0x74
 479 01ba E9050000 		.4byte	0x5e9
 480 01be 1C       		.byte	0x1c
 481 01bf 07       		.uleb128 0x7
 482 01c0 98040000 		.4byte	.LASF38
 483 01c4 06       		.byte	0x6
 484 01c5 79       		.byte	0x79
 485 01c6 EB000000 		.4byte	0xeb
 486 01ca 20       		.byte	0x20
 487 01cb 07       		.uleb128 0x7
 488 01cc DA040000 		.4byte	.LASF39
 489 01d0 06       		.byte	0x6
 490 01d1 7D       		.byte	0x7d
 491 01d2 E0000000 		.4byte	0xe0
 492 01d6 21       		.byte	0x21
 493 01d7 07       		.uleb128 0x7
 494 01d8 93050000 		.4byte	.LASF40
 495 01dc 06       		.byte	0x6
 496 01dd 82       		.byte	0x82
 497 01de F6000000 		.4byte	0xf6
 498 01e2 22       		.byte	0x22
 499 01e3 07       		.uleb128 0x7
 500 01e4 A0040000 		.4byte	.LASF41
ARM GAS  /tmp/ccPqzWE0.s 			page 10


 501 01e8 06       		.byte	0x6
 502 01e9 88       		.byte	0x88
 503 01ea 01010000 		.4byte	0x101
 504 01ee 23       		.byte	0x23
 505 01ef 07       		.uleb128 0x7
 506 01f0 61050000 		.4byte	.LASF42
 507 01f4 06       		.byte	0x6
 508 01f5 8F       		.byte	0x8f
 509 01f6 38010000 		.4byte	0x138
 510 01fa 24       		.byte	0x24
 511 01fb 08       		.uleb128 0x8
 512 01fc 705F7500 		.ascii	"p_u\000"
 513 0200 06       		.byte	0x6
 514 0201 B4       		.byte	0xb4
 515 0202 A2050000 		.4byte	0x5a2
 516 0206 28       		.byte	0x28
 517 0207 07       		.uleb128 0x7
 518 0208 2C060000 		.4byte	.LASF43
 519 020c 06       		.byte	0x6
 520 020d B9       		.byte	0xb9
 521 020e A3020000 		.4byte	0x2a3
 522 0212 2C       		.byte	0x2c
 523 0213 07       		.uleb128 0x7
 524 0214 6F050000 		.4byte	.LASF44
 525 0218 06       		.byte	0x6
 526 0219 BF       		.byte	0xbf
 527 021a 83020000 		.4byte	0x283
 528 021e 30       		.byte	0x30
 529 021f 07       		.uleb128 0x7
 530 0220 0D000000 		.4byte	.LASF45
 531 0224 06       		.byte	0x6
 532 0225 C3       		.byte	0xc3
 533 0226 17010000 		.4byte	0x117
 534 022a 38       		.byte	0x38
 535 022b 07       		.uleb128 0x7
 536 022c F6040000 		.4byte	.LASF46
 537 0230 06       		.byte	0x6
 538 0231 C9       		.byte	0xc9
 539 0232 22010000 		.4byte	0x122
 540 0236 3C       		.byte	0x3c
 541 0237 07       		.uleb128 0x7
 542 0238 84040000 		.4byte	.LASF47
 543 023c 06       		.byte	0x6
 544 023d D0       		.byte	0xd0
 545 023e EF050000 		.4byte	0x5ef
 546 0242 40       		.byte	0x40
 547 0243 07       		.uleb128 0x7
 548 0244 3F050000 		.4byte	.LASF48
 549 0248 06       		.byte	0x6
 550 0249 D4       		.byte	0xd4
 551 024a 0C010000 		.4byte	0x10c
 552 024e 44       		.byte	0x44
 553 024f 07       		.uleb128 0x7
 554 0250 F4010000 		.4byte	.LASF49
 555 0254 06       		.byte	0x6
 556 0255 DA       		.byte	0xda
 557 0256 B9020000 		.4byte	0x2b9
ARM GAS  /tmp/ccPqzWE0.s 			page 11


 558 025a 48       		.byte	0x48
 559 025b 00       		.byte	0
 560 025c 09       		.uleb128 0x9
 561 025d 08       		.byte	0x8
 562 025e 05       		.byte	0x5
 563 025f 61       		.byte	0x61
 564 0260 7D020000 		.4byte	0x27d
 565 0264 07       		.uleb128 0x7
 566 0265 C4040000 		.4byte	.LASF30
 567 0269 05       		.byte	0x5
 568 026a 62       		.byte	0x62
 569 026b 7D020000 		.4byte	0x27d
 570 026f 00       		.byte	0
 571 0270 07       		.uleb128 0x7
 572 0271 4B040000 		.4byte	.LASF31
 573 0275 05       		.byte	0x5
 574 0276 64       		.byte	0x64
 575 0277 7D020000 		.4byte	0x27d
 576 027b 04       		.byte	0x4
 577 027c 00       		.byte	0
 578 027d 0A       		.uleb128 0xa
 579 027e 04       		.byte	0x4
 580 027f 48010000 		.4byte	0x148
 581 0283 04       		.uleb128 0x4
 582 0284 E6030000 		.4byte	.LASF50
 583 0288 05       		.byte	0x5
 584 0289 66       		.byte	0x66
 585 028a 5C020000 		.4byte	0x25c
 586 028e 09       		.uleb128 0x9
 587 028f 04       		.byte	0x4
 588 0290 05       		.byte	0x5
 589 0291 6B       		.byte	0x6b
 590 0292 A3020000 		.4byte	0x2a3
 591 0296 07       		.uleb128 0x7
 592 0297 C4040000 		.4byte	.LASF30
 593 029b 05       		.byte	0x5
 594 029c 6D       		.byte	0x6d
 595 029d 7D020000 		.4byte	0x27d
 596 02a1 00       		.byte	0
 597 02a2 00       		.byte	0
 598 02a3 04       		.uleb128 0x4
 599 02a4 54030000 		.4byte	.LASF51
 600 02a8 05       		.byte	0x5
 601 02a9 70       		.byte	0x70
 602 02aa 8E020000 		.4byte	0x28e
 603 02ae 04       		.uleb128 0x4
 604 02af 67020000 		.4byte	.LASF52
 605 02b3 07       		.byte	0x7
 606 02b4 E5       		.byte	0xe5
 607 02b5 B9020000 		.4byte	0x2b9
 608 02b9 0B       		.uleb128 0xb
 609 02ba 04       		.byte	0x4
 610 02bb 0C       		.uleb128 0xc
 611 02bc 72030000 		.4byte	.LASF125
 612 02c0 07       		.byte	0x7
 613 02c1 EB       		.byte	0xeb
 614 02c2 CE000000 		.4byte	0xce
ARM GAS  /tmp/ccPqzWE0.s 			page 12


 615 02c6 08       		.byte	0x8
 616 02c7 0D       		.uleb128 0xd
 617 02c8 68050000 		.4byte	.LASF53
 618 02cc 64       		.byte	0x64
 619 02cd 07       		.byte	0x7
 620 02ce 0C01     		.2byte	0x10c
 621 02d0 13040000 		.4byte	0x413
 622 02d4 0E       		.uleb128 0xe
 623 02d5 73313600 		.ascii	"s16\000"
 624 02d9 07       		.byte	0x7
 625 02da 0E01     		.2byte	0x10e
 626 02dc AE020000 		.4byte	0x2ae
 627 02e0 00       		.byte	0
 628 02e1 0E       		.uleb128 0xe
 629 02e2 73313700 		.ascii	"s17\000"
 630 02e6 07       		.byte	0x7
 631 02e7 0F01     		.2byte	0x10f
 632 02e9 AE020000 		.4byte	0x2ae
 633 02ed 04       		.byte	0x4
 634 02ee 0E       		.uleb128 0xe
 635 02ef 73313800 		.ascii	"s18\000"
 636 02f3 07       		.byte	0x7
 637 02f4 1001     		.2byte	0x110
 638 02f6 AE020000 		.4byte	0x2ae
 639 02fa 08       		.byte	0x8
 640 02fb 0E       		.uleb128 0xe
 641 02fc 73313900 		.ascii	"s19\000"
 642 0300 07       		.byte	0x7
 643 0301 1101     		.2byte	0x111
 644 0303 AE020000 		.4byte	0x2ae
 645 0307 0C       		.byte	0xc
 646 0308 0E       		.uleb128 0xe
 647 0309 73323000 		.ascii	"s20\000"
 648 030d 07       		.byte	0x7
 649 030e 1201     		.2byte	0x112
 650 0310 AE020000 		.4byte	0x2ae
 651 0314 10       		.byte	0x10
 652 0315 0E       		.uleb128 0xe
 653 0316 73323100 		.ascii	"s21\000"
 654 031a 07       		.byte	0x7
 655 031b 1301     		.2byte	0x113
 656 031d AE020000 		.4byte	0x2ae
 657 0321 14       		.byte	0x14
 658 0322 0E       		.uleb128 0xe
 659 0323 73323200 		.ascii	"s22\000"
 660 0327 07       		.byte	0x7
 661 0328 1401     		.2byte	0x114
 662 032a AE020000 		.4byte	0x2ae
 663 032e 18       		.byte	0x18
 664 032f 0E       		.uleb128 0xe
 665 0330 73323300 		.ascii	"s23\000"
 666 0334 07       		.byte	0x7
 667 0335 1501     		.2byte	0x115
 668 0337 AE020000 		.4byte	0x2ae
 669 033b 1C       		.byte	0x1c
 670 033c 0E       		.uleb128 0xe
 671 033d 73323400 		.ascii	"s24\000"
ARM GAS  /tmp/ccPqzWE0.s 			page 13


 672 0341 07       		.byte	0x7
 673 0342 1601     		.2byte	0x116
 674 0344 AE020000 		.4byte	0x2ae
 675 0348 20       		.byte	0x20
 676 0349 0E       		.uleb128 0xe
 677 034a 73323500 		.ascii	"s25\000"
 678 034e 07       		.byte	0x7
 679 034f 1701     		.2byte	0x117
 680 0351 AE020000 		.4byte	0x2ae
 681 0355 24       		.byte	0x24
 682 0356 0E       		.uleb128 0xe
 683 0357 73323600 		.ascii	"s26\000"
 684 035b 07       		.byte	0x7
 685 035c 1801     		.2byte	0x118
 686 035e AE020000 		.4byte	0x2ae
 687 0362 28       		.byte	0x28
 688 0363 0E       		.uleb128 0xe
 689 0364 73323700 		.ascii	"s27\000"
 690 0368 07       		.byte	0x7
 691 0369 1901     		.2byte	0x119
 692 036b AE020000 		.4byte	0x2ae
 693 036f 2C       		.byte	0x2c
 694 0370 0E       		.uleb128 0xe
 695 0371 73323800 		.ascii	"s28\000"
 696 0375 07       		.byte	0x7
 697 0376 1A01     		.2byte	0x11a
 698 0378 AE020000 		.4byte	0x2ae
 699 037c 30       		.byte	0x30
 700 037d 0E       		.uleb128 0xe
 701 037e 73323900 		.ascii	"s29\000"
 702 0382 07       		.byte	0x7
 703 0383 1B01     		.2byte	0x11b
 704 0385 AE020000 		.4byte	0x2ae
 705 0389 34       		.byte	0x34
 706 038a 0E       		.uleb128 0xe
 707 038b 73333000 		.ascii	"s30\000"
 708 038f 07       		.byte	0x7
 709 0390 1C01     		.2byte	0x11c
 710 0392 AE020000 		.4byte	0x2ae
 711 0396 38       		.byte	0x38
 712 0397 0E       		.uleb128 0xe
 713 0398 73333100 		.ascii	"s31\000"
 714 039c 07       		.byte	0x7
 715 039d 1D01     		.2byte	0x11d
 716 039f AE020000 		.4byte	0x2ae
 717 03a3 3C       		.byte	0x3c
 718 03a4 0E       		.uleb128 0xe
 719 03a5 723400   		.ascii	"r4\000"
 720 03a8 07       		.byte	0x7
 721 03a9 1F01     		.2byte	0x11f
 722 03ab AE020000 		.4byte	0x2ae
 723 03af 40       		.byte	0x40
 724 03b0 0E       		.uleb128 0xe
 725 03b1 723500   		.ascii	"r5\000"
 726 03b4 07       		.byte	0x7
 727 03b5 2001     		.2byte	0x120
 728 03b7 AE020000 		.4byte	0x2ae
ARM GAS  /tmp/ccPqzWE0.s 			page 14


 729 03bb 44       		.byte	0x44
 730 03bc 0E       		.uleb128 0xe
 731 03bd 723600   		.ascii	"r6\000"
 732 03c0 07       		.byte	0x7
 733 03c1 2101     		.2byte	0x121
 734 03c3 AE020000 		.4byte	0x2ae
 735 03c7 48       		.byte	0x48
 736 03c8 0E       		.uleb128 0xe
 737 03c9 723700   		.ascii	"r7\000"
 738 03cc 07       		.byte	0x7
 739 03cd 2201     		.2byte	0x122
 740 03cf AE020000 		.4byte	0x2ae
 741 03d3 4C       		.byte	0x4c
 742 03d4 0E       		.uleb128 0xe
 743 03d5 723800   		.ascii	"r8\000"
 744 03d8 07       		.byte	0x7
 745 03d9 2301     		.2byte	0x123
 746 03db AE020000 		.4byte	0x2ae
 747 03df 50       		.byte	0x50
 748 03e0 0E       		.uleb128 0xe
 749 03e1 723900   		.ascii	"r9\000"
 750 03e4 07       		.byte	0x7
 751 03e5 2401     		.2byte	0x124
 752 03e7 AE020000 		.4byte	0x2ae
 753 03eb 54       		.byte	0x54
 754 03ec 0E       		.uleb128 0xe
 755 03ed 72313000 		.ascii	"r10\000"
 756 03f1 07       		.byte	0x7
 757 03f2 2501     		.2byte	0x125
 758 03f4 AE020000 		.4byte	0x2ae
 759 03f8 58       		.byte	0x58
 760 03f9 0E       		.uleb128 0xe
 761 03fa 72313100 		.ascii	"r11\000"
 762 03fe 07       		.byte	0x7
 763 03ff 2601     		.2byte	0x126
 764 0401 AE020000 		.4byte	0x2ae
 765 0405 5C       		.byte	0x5c
 766 0406 0E       		.uleb128 0xe
 767 0407 6C7200   		.ascii	"lr\000"
 768 040a 07       		.byte	0x7
 769 040b 2701     		.2byte	0x127
 770 040d AE020000 		.4byte	0x2ae
 771 0411 60       		.byte	0x60
 772 0412 00       		.byte	0
 773 0413 0D       		.uleb128 0xd
 774 0414 E5020000 		.4byte	.LASF54
 775 0418 04       		.byte	0x4
 776 0419 07       		.byte	0x7
 777 041a 3101     		.2byte	0x131
 778 041c 2E040000 		.4byte	0x42e
 779 0420 0E       		.uleb128 0xe
 780 0421 72313300 		.ascii	"r13\000"
 781 0425 07       		.byte	0x7
 782 0426 3201     		.2byte	0x132
 783 0428 2E040000 		.4byte	0x42e
 784 042c 00       		.byte	0
 785 042d 00       		.byte	0
ARM GAS  /tmp/ccPqzWE0.s 			page 15


 786 042e 0A       		.uleb128 0xa
 787 042f 04       		.byte	0x4
 788 0430 C7020000 		.4byte	0x2c7
 789 0434 04       		.uleb128 0x4
 790 0435 C1020000 		.4byte	.LASF55
 791 0439 08       		.byte	0x8
 792 043a 58       		.byte	0x58
 793 043b 3F040000 		.4byte	0x43f
 794 043f 0A       		.uleb128 0xa
 795 0440 04       		.byte	0x4
 796 0441 45040000 		.4byte	0x445
 797 0445 0F       		.uleb128 0xf
 798 0446 50040000 		.4byte	0x450
 799 044a 10       		.uleb128 0x10
 800 044b B9020000 		.4byte	0x2b9
 801 044f 00       		.byte	0
 802 0450 04       		.uleb128 0x4
 803 0451 D8020000 		.4byte	.LASF56
 804 0455 08       		.byte	0x8
 805 0456 5D       		.byte	0x5d
 806 0457 5B040000 		.4byte	0x45b
 807 045b 06       		.uleb128 0x6
 808 045c D8020000 		.4byte	.LASF56
 809 0460 14       		.byte	0x14
 810 0461 08       		.byte	0x8
 811 0462 64       		.byte	0x64
 812 0463 A4040000 		.4byte	0x4a4
 813 0467 07       		.uleb128 0x7
 814 0468 9E020000 		.4byte	.LASF57
 815 046c 08       		.byte	0x8
 816 046d 65       		.byte	0x65
 817 046e A4040000 		.4byte	0x4a4
 818 0472 00       		.byte	0
 819 0473 07       		.uleb128 0x7
 820 0474 70020000 		.4byte	.LASF58
 821 0478 08       		.byte	0x8
 822 0479 67       		.byte	0x67
 823 047a A4040000 		.4byte	0x4a4
 824 047e 04       		.byte	0x4
 825 047f 07       		.uleb128 0x7
 826 0480 91030000 		.4byte	.LASF59
 827 0484 08       		.byte	0x8
 828 0485 69       		.byte	0x69
 829 0486 2D010000 		.4byte	0x12d
 830 048a 08       		.byte	0x8
 831 048b 07       		.uleb128 0x7
 832 048c A0030000 		.4byte	.LASF60
 833 0490 08       		.byte	0x8
 834 0491 6A       		.byte	0x6a
 835 0492 34040000 		.4byte	0x434
 836 0496 0C       		.byte	0xc
 837 0497 07       		.uleb128 0x7
 838 0498 7A050000 		.4byte	.LASF61
 839 049c 08       		.byte	0x8
 840 049d 6C       		.byte	0x6c
 841 049e B9020000 		.4byte	0x2b9
 842 04a2 10       		.byte	0x10
ARM GAS  /tmp/ccPqzWE0.s 			page 16


 843 04a3 00       		.byte	0
 844 04a4 0A       		.uleb128 0xa
 845 04a5 04       		.byte	0x4
 846 04a6 50040000 		.4byte	0x450
 847 04aa 09       		.uleb128 0x9
 848 04ab 10       		.byte	0x10
 849 04ac 08       		.byte	0x8
 850 04ad 76       		.byte	0x76
 851 04ae E3040000 		.4byte	0x4e3
 852 04b2 07       		.uleb128 0x7
 853 04b3 9E020000 		.4byte	.LASF57
 854 04b7 08       		.byte	0x8
 855 04b8 77       		.byte	0x77
 856 04b9 A4040000 		.4byte	0x4a4
 857 04bd 00       		.byte	0
 858 04be 07       		.uleb128 0x7
 859 04bf 70020000 		.4byte	.LASF58
 860 04c3 08       		.byte	0x8
 861 04c4 79       		.byte	0x79
 862 04c5 A4040000 		.4byte	0x4a4
 863 04c9 04       		.byte	0x4
 864 04ca 07       		.uleb128 0x7
 865 04cb 91030000 		.4byte	.LASF59
 866 04cf 08       		.byte	0x8
 867 04d0 7B       		.byte	0x7b
 868 04d1 2D010000 		.4byte	0x12d
 869 04d5 08       		.byte	0x8
 870 04d6 07       		.uleb128 0x7
 871 04d7 D4050000 		.4byte	.LASF62
 872 04db 08       		.byte	0x8
 873 04dc 7C       		.byte	0x7c
 874 04dd 38010000 		.4byte	0x138
 875 04e1 0C       		.byte	0xc
 876 04e2 00       		.byte	0
 877 04e3 04       		.uleb128 0x4
 878 04e4 EA050000 		.4byte	.LASF63
 879 04e8 08       		.byte	0x8
 880 04e9 7D       		.byte	0x7d
 881 04ea AA040000 		.4byte	0x4aa
 882 04ee 11       		.uleb128 0x11
 883 04ef 46000000 		.4byte	.LASF71
 884 04f3 08       		.byte	0x8
 885 04f4 F5       		.byte	0xf5
 886 04f5 E3040000 		.4byte	0x4e3
 887 04f9 09       		.uleb128 0x9
 888 04fa 1C       		.byte	0x1c
 889 04fb 09       		.byte	0x9
 890 04fc 5E       		.byte	0x5e
 891 04fd 4A050000 		.4byte	0x54a
 892 0501 07       		.uleb128 0x7
 893 0502 16050000 		.4byte	.LASF64
 894 0506 09       		.byte	0x9
 895 0507 5F       		.byte	0x5f
 896 0508 83020000 		.4byte	0x283
 897 050c 00       		.byte	0
 898 050d 07       		.uleb128 0x7
 899 050e B6040000 		.4byte	.LASF65
ARM GAS  /tmp/ccPqzWE0.s 			page 17


 900 0512 09       		.byte	0x9
 901 0513 60       		.byte	0x60
 902 0514 0C010000 		.4byte	0x10c
 903 0518 08       		.byte	0x8
 904 0519 07       		.uleb128 0x7
 905 051a E0030000 		.4byte	.LASF66
 906 051e 09       		.byte	0x9
 907 051f 62       		.byte	0x62
 908 0520 13040000 		.4byte	0x413
 909 0524 0C       		.byte	0xc
 910 0525 07       		.uleb128 0x7
 911 0526 06030000 		.4byte	.LASF67
 912 052a 09       		.byte	0x9
 913 052b 65       		.byte	0x65
 914 052c 7D020000 		.4byte	0x27d
 915 0530 10       		.byte	0x10
 916 0531 07       		.uleb128 0x7
 917 0532 0A040000 		.4byte	.LASF68
 918 0536 09       		.byte	0x9
 919 0537 66       		.byte	0x66
 920 0538 7D020000 		.4byte	0x27d
 921 053c 14       		.byte	0x14
 922 053d 07       		.uleb128 0x7
 923 053e 00040000 		.4byte	.LASF69
 924 0542 09       		.byte	0x9
 925 0543 69       		.byte	0x69
 926 0544 7D020000 		.4byte	0x27d
 927 0548 18       		.byte	0x18
 928 0549 00       		.byte	0
 929 054a 04       		.uleb128 0x4
 930 054b A5050000 		.4byte	.LASF70
 931 054f 09       		.byte	0x9
 932 0550 6B       		.byte	0x6b
 933 0551 F9040000 		.4byte	0x4f9
 934 0555 11       		.uleb128 0x11
 935 0556 B8050000 		.4byte	.LASF72
 936 055a 09       		.byte	0x9
 937 055b 6F       		.byte	0x6f
 938 055c 4A050000 		.4byte	0x54a
 939 0560 06       		.uleb128 0x6
 940 0561 6C030000 		.4byte	.LASF73
 941 0565 10       		.byte	0x10
 942 0566 0A       		.byte	0xa
 943 0567 2C       		.byte	0x2c
 944 0568 91050000 		.4byte	0x591
 945 056c 07       		.uleb128 0x7
 946 056d FC010000 		.4byte	.LASF74
 947 0571 0A       		.byte	0xa
 948 0572 2D       		.byte	0x2d
 949 0573 83020000 		.4byte	0x283
 950 0577 00       		.byte	0
 951 0578 07       		.uleb128 0x7
 952 0579 14060000 		.4byte	.LASF75
 953 057d 0A       		.byte	0xa
 954 057e 2F       		.byte	0x2f
 955 057f 7D020000 		.4byte	0x27d
 956 0583 08       		.byte	0x8
ARM GAS  /tmp/ccPqzWE0.s 			page 18


 957 0584 07       		.uleb128 0x7
 958 0585 2E050000 		.4byte	.LASF76
 959 0589 0A       		.byte	0xa
 960 058a 31       		.byte	0x31
 961 058b 91050000 		.4byte	0x591
 962 058f 0C       		.byte	0xc
 963 0590 00       		.byte	0
 964 0591 0A       		.uleb128 0xa
 965 0592 04       		.byte	0x4
 966 0593 60050000 		.4byte	0x560
 967 0597 04       		.uleb128 0x4
 968 0598 6C030000 		.4byte	.LASF73
 969 059c 0A       		.byte	0xa
 970 059d 33       		.byte	0x33
 971 059e 60050000 		.4byte	0x560
 972 05a2 12       		.uleb128 0x12
 973 05a3 04       		.byte	0x4
 974 05a4 06       		.byte	0x6
 975 05a5 96       		.byte	0x96
 976 05a6 D7050000 		.4byte	0x5d7
 977 05aa 13       		.uleb128 0x13
 978 05ab 1E000000 		.4byte	.LASF77
 979 05af 06       		.byte	0x6
 980 05b0 9D       		.byte	0x9d
 981 05b1 17010000 		.4byte	0x117
 982 05b5 13       		.uleb128 0x13
 983 05b6 4B020000 		.4byte	.LASF78
 984 05ba 06       		.byte	0x6
 985 05bb A4       		.byte	0xa4
 986 05bc 17010000 		.4byte	0x117
 987 05c0 13       		.uleb128 0x13
 988 05c1 C6050000 		.4byte	.LASF79
 989 05c5 06       		.byte	0x6
 990 05c6 AB       		.byte	0xab
 991 05c7 B9020000 		.4byte	0x2b9
 992 05cb 13       		.uleb128 0x13
 993 05cc BD040000 		.4byte	.LASF80
 994 05d0 06       		.byte	0x6
 995 05d1 B2       		.byte	0xb2
 996 05d2 22010000 		.4byte	0x122
 997 05d6 00       		.byte	0
 998 05d7 0A       		.uleb128 0xa
 999 05d8 04       		.byte	0x4
 1000 05d9 E4050000 		.4byte	0x5e4
 1001 05dd 03       		.uleb128 0x3
 1002 05de 01       		.byte	0x1
 1003 05df 08       		.byte	0x8
 1004 05e0 1E050000 		.4byte	.LASF81
 1005 05e4 14       		.uleb128 0x14
 1006 05e5 DD050000 		.4byte	0x5dd
 1007 05e9 0A       		.uleb128 0xa
 1008 05ea 04       		.byte	0x4
 1009 05eb BB020000 		.4byte	0x2bb
 1010 05ef 0A       		.uleb128 0xa
 1011 05f0 04       		.byte	0x4
 1012 05f1 97050000 		.4byte	0x597
 1013 05f5 09       		.uleb128 0x9
ARM GAS  /tmp/ccPqzWE0.s 			page 19


 1014 05f6 16       		.byte	0x16
 1015 05f7 0B       		.byte	0xb
 1016 05f8 2C       		.byte	0x2c
 1017 05f9 D6060000 		.4byte	0x6d6
 1018 05fd 07       		.uleb128 0x7
 1019 05fe CA020000 		.4byte	.LASF82
 1020 0602 0B       		.byte	0xb
 1021 0603 2D       		.byte	0x2d
 1022 0604 D6060000 		.4byte	0x6d6
 1023 0608 00       		.byte	0
 1024 0609 07       		.uleb128 0x7
 1025 060a 7D030000 		.4byte	.LASF83
 1026 060e 0B       		.byte	0xb
 1027 060f 2E       		.byte	0x2e
 1028 0610 A2000000 		.4byte	0xa2
 1029 0614 04       		.byte	0x4
 1030 0615 07       		.uleb128 0x7
 1031 0616 F3030000 		.4byte	.LASF84
 1032 061a 0B       		.byte	0xb
 1033 061b 2F       		.byte	0x2f
 1034 061c A2000000 		.4byte	0xa2
 1035 0620 05       		.byte	0x5
 1036 0621 07       		.uleb128 0x7
 1037 0622 DF050000 		.4byte	.LASF85
 1038 0626 0B       		.byte	0xb
 1039 0627 30       		.byte	0x30
 1040 0628 AD000000 		.4byte	0xad
 1041 062c 06       		.byte	0x6
 1042 062d 07       		.uleb128 0x7
 1043 062e 40040000 		.4byte	.LASF86
 1044 0632 0B       		.byte	0xb
 1045 0633 31       		.byte	0x31
 1046 0634 A2000000 		.4byte	0xa2
 1047 0638 08       		.byte	0x8
 1048 0639 07       		.uleb128 0x7
 1049 063a A8030000 		.4byte	.LASF87
 1050 063e 0B       		.byte	0xb
 1051 063f 32       		.byte	0x32
 1052 0640 A2000000 		.4byte	0xa2
 1053 0644 09       		.byte	0x9
 1054 0645 07       		.uleb128 0x7
 1055 0646 38000000 		.4byte	.LASF88
 1056 064a 0B       		.byte	0xb
 1057 064b 33       		.byte	0x33
 1058 064c A2000000 		.4byte	0xa2
 1059 0650 0A       		.byte	0xa
 1060 0651 07       		.uleb128 0x7
 1061 0652 0A050000 		.4byte	.LASF89
 1062 0656 0B       		.byte	0xb
 1063 0657 34       		.byte	0x34
 1064 0658 A2000000 		.4byte	0xa2
 1065 065c 0B       		.byte	0xb
 1066 065d 07       		.uleb128 0x7
 1067 065e 88050000 		.4byte	.LASF90
 1068 0662 0B       		.byte	0xb
 1069 0663 35       		.byte	0x35
 1070 0664 A2000000 		.4byte	0xa2
ARM GAS  /tmp/ccPqzWE0.s 			page 20


 1071 0668 0C       		.byte	0xc
 1072 0669 07       		.uleb128 0x7
 1073 066a E9040000 		.4byte	.LASF91
 1074 066e 0B       		.byte	0xb
 1075 066f 36       		.byte	0x36
 1076 0670 A2000000 		.4byte	0xa2
 1077 0674 0D       		.byte	0xd
 1078 0675 07       		.uleb128 0x7
 1079 0676 00000000 		.4byte	.LASF92
 1080 067a 0B       		.byte	0xb
 1081 067b 37       		.byte	0x37
 1082 067c A2000000 		.4byte	0xa2
 1083 0680 0E       		.byte	0xe
 1084 0681 07       		.uleb128 0x7
 1085 0682 C3030000 		.4byte	.LASF93
 1086 0686 0B       		.byte	0xb
 1087 0687 38       		.byte	0x38
 1088 0688 A2000000 		.4byte	0xa2
 1089 068c 0F       		.byte	0xf
 1090 068d 07       		.uleb128 0x7
 1091 068e D7010000 		.4byte	.LASF94
 1092 0692 0B       		.byte	0xb
 1093 0693 39       		.byte	0x39
 1094 0694 A2000000 		.4byte	0xa2
 1095 0698 10       		.byte	0x10
 1096 0699 07       		.uleb128 0x7
 1097 069a A1010000 		.4byte	.LASF95
 1098 069e 0B       		.byte	0xb
 1099 069f 3B       		.byte	0x3b
 1100 06a0 A2000000 		.4byte	0xa2
 1101 06a4 11       		.byte	0x11
 1102 06a5 07       		.uleb128 0x7
 1103 06a6 E7010000 		.4byte	.LASF96
 1104 06aa 0B       		.byte	0xb
 1105 06ab 3C       		.byte	0x3c
 1106 06ac A2000000 		.4byte	0xa2
 1107 06b0 12       		.byte	0x12
 1108 06b1 07       		.uleb128 0x7
 1109 06b2 85030000 		.4byte	.LASF97
 1110 06b6 0B       		.byte	0xb
 1111 06b7 3D       		.byte	0x3d
 1112 06b8 A2000000 		.4byte	0xa2
 1113 06bc 13       		.byte	0x13
 1114 06bd 07       		.uleb128 0x7
 1115 06be CB040000 		.4byte	.LASF98
 1116 06c2 0B       		.byte	0xb
 1117 06c3 3E       		.byte	0x3e
 1118 06c4 A2000000 		.4byte	0xa2
 1119 06c8 14       		.byte	0x14
 1120 06c9 07       		.uleb128 0x7
 1121 06ca AA040000 		.4byte	.LASF99
 1122 06ce 0B       		.byte	0xb
 1123 06cf 40       		.byte	0x40
 1124 06d0 A2000000 		.4byte	0xa2
 1125 06d4 15       		.byte	0x15
 1126 06d5 00       		.byte	0
 1127 06d6 15       		.uleb128 0x15
ARM GAS  /tmp/ccPqzWE0.s 			page 21


 1128 06d7 DD050000 		.4byte	0x5dd
 1129 06db E6060000 		.4byte	0x6e6
 1130 06df 16       		.uleb128 0x16
 1131 06e0 2C000000 		.4byte	0x2c
 1132 06e4 03       		.byte	0x3
 1133 06e5 00       		.byte	0
 1134 06e6 04       		.uleb128 0x4
 1135 06e7 29020000 		.4byte	.LASF100
 1136 06eb 0B       		.byte	0xb
 1137 06ec 41       		.byte	0x41
 1138 06ed F5050000 		.4byte	0x5f5
 1139 06f1 14       		.uleb128 0x14
 1140 06f2 E6060000 		.4byte	0x6e6
 1141 06f6 11       		.uleb128 0x11
 1142 06f7 B8020000 		.4byte	.LASF101
 1143 06fb 0B       		.byte	0xb
 1144 06fc 7E       		.byte	0x7e
 1145 06fd F1060000 		.4byte	0x6f1
 1146 0701 09       		.uleb128 0x9
 1147 0702 10       		.byte	0x10
 1148 0703 0C       		.byte	0xc
 1149 0704 71       		.byte	0x71
 1150 0705 3A070000 		.4byte	0x73a
 1151 0709 07       		.uleb128 0x7
 1152 070a 78020000 		.4byte	.LASF102
 1153 070e 0C       		.byte	0xc
 1154 070f 72       		.byte	0x72
 1155 0710 2D010000 		.4byte	0x12d
 1156 0714 00       		.byte	0
 1157 0715 07       		.uleb128 0x7
 1158 0716 AE010000 		.4byte	.LASF103
 1159 071a 0C       		.byte	0xc
 1160 071b 73       		.byte	0x73
 1161 071c 7D020000 		.4byte	0x27d
 1162 0720 04       		.byte	0x4
 1163 0721 07       		.uleb128 0x7
 1164 0722 1C060000 		.4byte	.LASF104
 1165 0726 0C       		.byte	0xc
 1166 0727 74       		.byte	0x74
 1167 0728 B9020000 		.4byte	0x2b9
 1168 072c 08       		.byte	0x8
 1169 072d 07       		.uleb128 0x7
 1170 072e AF050000 		.4byte	.LASF105
 1171 0732 0C       		.byte	0xc
 1172 0733 75       		.byte	0x75
 1173 0734 A2000000 		.4byte	0xa2
 1174 0738 0C       		.byte	0xc
 1175 0739 00       		.byte	0
 1176 073a 04       		.uleb128 0x4
 1177 073b B4030000 		.4byte	.LASF106
 1178 073f 0C       		.byte	0xc
 1179 0740 76       		.byte	0x76
 1180 0741 01070000 		.4byte	0x701
 1181 0745 17       		.uleb128 0x17
 1182 0746 0804     		.2byte	0x408
 1183 0748 0C       		.byte	0xc
 1184 0749 7B       		.byte	0x7b
ARM GAS  /tmp/ccPqzWE0.s 			page 22


 1185 074a 73070000 		.4byte	0x773
 1186 074e 07       		.uleb128 0x7
 1187 074f 54020000 		.4byte	.LASF107
 1188 0753 0C       		.byte	0xc
 1189 0754 7C       		.byte	0x7c
 1190 0755 2C000000 		.4byte	0x2c
 1191 0759 00       		.byte	0
 1192 075a 07       		.uleb128 0x7
 1193 075b 99030000 		.4byte	.LASF108
 1194 075f 0C       		.byte	0xc
 1195 0760 7D       		.byte	0x7d
 1196 0761 73070000 		.4byte	0x773
 1197 0765 04       		.byte	0x4
 1198 0766 07       		.uleb128 0x7
 1199 0767 36040000 		.4byte	.LASF109
 1200 076b 0C       		.byte	0xc
 1201 076c 7F       		.byte	0x7f
 1202 076d 79070000 		.4byte	0x779
 1203 0771 08       		.byte	0x8
 1204 0772 00       		.byte	0
 1205 0773 0A       		.uleb128 0xa
 1206 0774 04       		.byte	0x4
 1207 0775 3A070000 		.4byte	0x73a
 1208 0779 15       		.uleb128 0x15
 1209 077a 3A070000 		.4byte	0x73a
 1210 077e 89070000 		.4byte	0x789
 1211 0782 16       		.uleb128 0x16
 1212 0783 2C000000 		.4byte	0x2c
 1213 0787 3F       		.byte	0x3f
 1214 0788 00       		.byte	0
 1215 0789 04       		.uleb128 0x4
 1216 078a 88010000 		.4byte	.LASF110
 1217 078e 0C       		.byte	0xc
 1218 078f 80       		.byte	0x80
 1219 0790 45070000 		.4byte	0x745
 1220 0794 11       		.uleb128 0x11
 1221 0795 1D040000 		.4byte	.LASF111
 1222 0799 0C       		.byte	0xc
 1223 079a 83       		.byte	0x83
 1224 079b 89070000 		.4byte	0x789
 1225 079f 11       		.uleb128 0x11
 1226 07a0 48030000 		.4byte	.LASF112
 1227 07a4 0C       		.byte	0xc
 1228 07a5 E2       		.byte	0xe2
 1229 07a6 3D010000 		.4byte	0x13d
 1230 07aa 11       		.uleb128 0x11
 1231 07ab 54050000 		.4byte	.LASF113
 1232 07af 0C       		.byte	0xc
 1233 07b0 E3       		.byte	0xe3
 1234 07b1 3D010000 		.4byte	0x13d
 1235 07b5 11       		.uleb128 0x11
 1236 07b6 76040000 		.4byte	.LASF114
 1237 07ba 0C       		.byte	0xc
 1238 07bb F5       		.byte	0xf5
 1239 07bc D7050000 		.4byte	0x5d7
 1240 07c0 18       		.uleb128 0x18
 1241 07c1 BB020000 		.4byte	0x2bb
ARM GAS  /tmp/ccPqzWE0.s 			page 23


 1242 07c5 08       		.byte	0x8
 1243 07c6 D1070000 		.4byte	0x7d1
 1244 07ca 16       		.uleb128 0x16
 1245 07cb 2C000000 		.4byte	0x2c
 1246 07cf 3A       		.byte	0x3a
 1247 07d0 00       		.byte	0
 1248 07d1 11       		.uleb128 0x11
 1249 07d2 3B020000 		.4byte	.LASF115
 1250 07d6 0D       		.byte	0xd
 1251 07d7 89       		.byte	0x89
 1252 07d8 C0070000 		.4byte	0x7c0
 1253 07dc 19       		.uleb128 0x19
 1254 07dd EE040000 		.4byte	0x4ee
 1255 07e1 01       		.byte	0x1
 1256 07e2 2A       		.byte	0x2a
 1257 07e3 05       		.uleb128 0x5
 1258 07e4 03       		.byte	0x3
 1259 07e5 00000000 		.4byte	vtlist
 1260 07e9 1A       		.uleb128 0x1a
 1261 07ea 9A050000 		.4byte	.LASF116
 1262 07ee 01       		.byte	0x1
 1263 07ef 6A       		.byte	0x6a
 1264 07f0 00000000 		.4byte	.LFB9
 1265 07f4 4C000000 		.4byte	.LFE9-.LFB9
 1266 07f8 01       		.uleb128 0x1
 1267 07f9 9C       		.byte	0x9c
 1268 07fa 41080000 		.4byte	0x841
 1269 07fe 1B       		.uleb128 0x1b
 1270 07ff 76747000 		.ascii	"vtp\000"
 1271 0803 01       		.byte	0x1
 1272 0804 6A       		.byte	0x6a
 1273 0805 A4040000 		.4byte	0x4a4
 1274 0809 00000000 		.4byte	.LLST5
 1275 080d 1C       		.uleb128 0x1c
 1276 080e 08000000 		.4byte	.LVL8
 1277 0812 CD080000 		.4byte	0x8cd
 1278 0816 1D       		.uleb128 0x1d
 1279 0817 32000000 		.4byte	.LVL10
 1280 081b D8080000 		.4byte	0x8d8
 1281 081f 2D080000 		.4byte	0x82d
 1282 0823 1E       		.uleb128 0x1e
 1283 0824 01       		.uleb128 0x1
 1284 0825 50       		.byte	0x50
 1285 0826 05       		.uleb128 0x5
 1286 0827 03       		.byte	0x3
 1287 0828 00000000 		.4byte	.LC1
 1288 082c 00       		.byte	0
 1289 082d 1F       		.uleb128 0x1f
 1290 082e 3E000000 		.4byte	.LVL11
 1291 0832 D8080000 		.4byte	0x8d8
 1292 0836 1E       		.uleb128 0x1e
 1293 0837 01       		.uleb128 0x1
 1294 0838 50       		.byte	0x50
 1295 0839 05       		.uleb128 0x5
 1296 083a 03       		.byte	0x3
 1297 083b 10000000 		.4byte	.LC2
 1298 083f 00       		.byte	0
ARM GAS  /tmp/ccPqzWE0.s 			page 24


 1299 0840 00       		.byte	0
 1300 0841 1A       		.uleb128 0x1a
 1301 0842 CF030000 		.4byte	.LASF117
 1302 0846 01       		.byte	0x1
 1303 0847 4C       		.byte	0x4c
 1304 0848 00000000 		.4byte	.LFB8
 1305 084c 58000000 		.4byte	.LFE8-.LFB8
 1306 0850 01       		.uleb128 0x1
 1307 0851 9C       		.byte	0x9c
 1308 0852 BC080000 		.4byte	0x8bc
 1309 0856 1B       		.uleb128 0x1b
 1310 0857 76747000 		.ascii	"vtp\000"
 1311 085b 01       		.byte	0x1
 1312 085c 4C       		.byte	0x4c
 1313 085d A4040000 		.4byte	0x4a4
 1314 0861 1E000000 		.4byte	.LLST0
 1315 0865 20       		.uleb128 0x20
 1316 0866 FB030000 		.4byte	.LASF118
 1317 086a 01       		.byte	0x1
 1318 086b 4C       		.byte	0x4c
 1319 086c 2D010000 		.4byte	0x12d
 1320 0870 3C000000 		.4byte	.LLST1
 1321 0874 20       		.uleb128 0x20
 1322 0875 81050000 		.4byte	.LASF119
 1323 0879 01       		.byte	0x1
 1324 087a 4C       		.byte	0x4c
 1325 087b 34040000 		.4byte	0x434
 1326 087f 5A000000 		.4byte	.LLST2
 1327 0883 1B       		.uleb128 0x1b
 1328 0884 70617200 		.ascii	"par\000"
 1329 0888 01       		.byte	0x1
 1330 0889 4C       		.byte	0x4c
 1331 088a B9020000 		.4byte	0x2b9
 1332 088e 78000000 		.4byte	.LLST3
 1333 0892 21       		.uleb128 0x21
 1334 0893 7000     		.ascii	"p\000"
 1335 0895 01       		.byte	0x1
 1336 0896 4D       		.byte	0x4d
 1337 0897 A4040000 		.4byte	0x4a4
 1338 089b 96000000 		.4byte	.LLST4
 1339 089f 1C       		.uleb128 0x1c
 1340 08a0 0E000000 		.4byte	.LVL1
 1341 08a4 CD080000 		.4byte	0x8cd
 1342 08a8 1F       		.uleb128 0x1f
 1343 08a9 4C000000 		.4byte	.LVL6
 1344 08ad D8080000 		.4byte	0x8d8
 1345 08b1 1E       		.uleb128 0x1e
 1346 08b2 01       		.uleb128 0x1
 1347 08b3 50       		.byte	0x50
 1348 08b4 05       		.uleb128 0x5
 1349 08b5 03       		.byte	0x3
 1350 08b6 00000000 		.4byte	.LC0
 1351 08ba 00       		.byte	0
 1352 08bb 00       		.byte	0
 1353 08bc 22       		.uleb128 0x22
 1354 08bd B4010000 		.4byte	.LASF126
 1355 08c1 01       		.byte	0x1
ARM GAS  /tmp/ccPqzWE0.s 			page 25


 1356 08c2 32       		.byte	0x32
 1357 08c3 00000000 		.4byte	.LFB7
 1358 08c7 18000000 		.4byte	.LFE7-.LFB7
 1359 08cb 01       		.uleb128 0x1
 1360 08cc 9C       		.byte	0x9c
 1361 08cd 23       		.uleb128 0x23
 1362 08ce 0E030000 		.4byte	.LASF120
 1363 08d2 0E030000 		.4byte	.LASF120
 1364 08d6 0C       		.byte	0xc
 1365 08d7 ED       		.byte	0xed
 1366 08d8 23       		.uleb128 0x23
 1367 08d9 13000000 		.4byte	.LASF121
 1368 08dd 13000000 		.4byte	.LASF121
 1369 08e1 0C       		.byte	0xc
 1370 08e2 F6       		.byte	0xf6
 1371 08e3 00       		.byte	0
 1372              		.section	.debug_abbrev,"",%progbits
 1373              	.Ldebug_abbrev0:
 1374 0000 01       		.uleb128 0x1
 1375 0001 11       		.uleb128 0x11
 1376 0002 01       		.byte	0x1
 1377 0003 25       		.uleb128 0x25
 1378 0004 0E       		.uleb128 0xe
 1379 0005 13       		.uleb128 0x13
 1380 0006 0B       		.uleb128 0xb
 1381 0007 03       		.uleb128 0x3
 1382 0008 0E       		.uleb128 0xe
 1383 0009 1B       		.uleb128 0x1b
 1384 000a 0E       		.uleb128 0xe
 1385 000b 55       		.uleb128 0x55
 1386 000c 17       		.uleb128 0x17
 1387 000d 11       		.uleb128 0x11
 1388 000e 01       		.uleb128 0x1
 1389 000f 10       		.uleb128 0x10
 1390 0010 17       		.uleb128 0x17
 1391 0011 00       		.byte	0
 1392 0012 00       		.byte	0
 1393 0013 02       		.uleb128 0x2
 1394 0014 24       		.uleb128 0x24
 1395 0015 00       		.byte	0
 1396 0016 0B       		.uleb128 0xb
 1397 0017 0B       		.uleb128 0xb
 1398 0018 3E       		.uleb128 0x3e
 1399 0019 0B       		.uleb128 0xb
 1400 001a 03       		.uleb128 0x3
 1401 001b 08       		.uleb128 0x8
 1402 001c 00       		.byte	0
 1403 001d 00       		.byte	0
 1404 001e 03       		.uleb128 0x3
 1405 001f 24       		.uleb128 0x24
 1406 0020 00       		.byte	0
 1407 0021 0B       		.uleb128 0xb
 1408 0022 0B       		.uleb128 0xb
 1409 0023 3E       		.uleb128 0x3e
 1410 0024 0B       		.uleb128 0xb
 1411 0025 03       		.uleb128 0x3
 1412 0026 0E       		.uleb128 0xe
ARM GAS  /tmp/ccPqzWE0.s 			page 26


 1413 0027 00       		.byte	0
 1414 0028 00       		.byte	0
 1415 0029 04       		.uleb128 0x4
 1416 002a 16       		.uleb128 0x16
 1417 002b 00       		.byte	0
 1418 002c 03       		.uleb128 0x3
 1419 002d 0E       		.uleb128 0xe
 1420 002e 3A       		.uleb128 0x3a
 1421 002f 0B       		.uleb128 0xb
 1422 0030 3B       		.uleb128 0x3b
 1423 0031 0B       		.uleb128 0xb
 1424 0032 49       		.uleb128 0x49
 1425 0033 13       		.uleb128 0x13
 1426 0034 00       		.byte	0
 1427 0035 00       		.byte	0
 1428 0036 05       		.uleb128 0x5
 1429 0037 35       		.uleb128 0x35
 1430 0038 00       		.byte	0
 1431 0039 49       		.uleb128 0x49
 1432 003a 13       		.uleb128 0x13
 1433 003b 00       		.byte	0
 1434 003c 00       		.byte	0
 1435 003d 06       		.uleb128 0x6
 1436 003e 13       		.uleb128 0x13
 1437 003f 01       		.byte	0x1
 1438 0040 03       		.uleb128 0x3
 1439 0041 0E       		.uleb128 0xe
 1440 0042 0B       		.uleb128 0xb
 1441 0043 0B       		.uleb128 0xb
 1442 0044 3A       		.uleb128 0x3a
 1443 0045 0B       		.uleb128 0xb
 1444 0046 3B       		.uleb128 0x3b
 1445 0047 0B       		.uleb128 0xb
 1446 0048 01       		.uleb128 0x1
 1447 0049 13       		.uleb128 0x13
 1448 004a 00       		.byte	0
 1449 004b 00       		.byte	0
 1450 004c 07       		.uleb128 0x7
 1451 004d 0D       		.uleb128 0xd
 1452 004e 00       		.byte	0
 1453 004f 03       		.uleb128 0x3
 1454 0050 0E       		.uleb128 0xe
 1455 0051 3A       		.uleb128 0x3a
 1456 0052 0B       		.uleb128 0xb
 1457 0053 3B       		.uleb128 0x3b
 1458 0054 0B       		.uleb128 0xb
 1459 0055 49       		.uleb128 0x49
 1460 0056 13       		.uleb128 0x13
 1461 0057 38       		.uleb128 0x38
 1462 0058 0B       		.uleb128 0xb
 1463 0059 00       		.byte	0
 1464 005a 00       		.byte	0
 1465 005b 08       		.uleb128 0x8
 1466 005c 0D       		.uleb128 0xd
 1467 005d 00       		.byte	0
 1468 005e 03       		.uleb128 0x3
 1469 005f 08       		.uleb128 0x8
ARM GAS  /tmp/ccPqzWE0.s 			page 27


 1470 0060 3A       		.uleb128 0x3a
 1471 0061 0B       		.uleb128 0xb
 1472 0062 3B       		.uleb128 0x3b
 1473 0063 0B       		.uleb128 0xb
 1474 0064 49       		.uleb128 0x49
 1475 0065 13       		.uleb128 0x13
 1476 0066 38       		.uleb128 0x38
 1477 0067 0B       		.uleb128 0xb
 1478 0068 00       		.byte	0
 1479 0069 00       		.byte	0
 1480 006a 09       		.uleb128 0x9
 1481 006b 13       		.uleb128 0x13
 1482 006c 01       		.byte	0x1
 1483 006d 0B       		.uleb128 0xb
 1484 006e 0B       		.uleb128 0xb
 1485 006f 3A       		.uleb128 0x3a
 1486 0070 0B       		.uleb128 0xb
 1487 0071 3B       		.uleb128 0x3b
 1488 0072 0B       		.uleb128 0xb
 1489 0073 01       		.uleb128 0x1
 1490 0074 13       		.uleb128 0x13
 1491 0075 00       		.byte	0
 1492 0076 00       		.byte	0
 1493 0077 0A       		.uleb128 0xa
 1494 0078 0F       		.uleb128 0xf
 1495 0079 00       		.byte	0
 1496 007a 0B       		.uleb128 0xb
 1497 007b 0B       		.uleb128 0xb
 1498 007c 49       		.uleb128 0x49
 1499 007d 13       		.uleb128 0x13
 1500 007e 00       		.byte	0
 1501 007f 00       		.byte	0
 1502 0080 0B       		.uleb128 0xb
 1503 0081 0F       		.uleb128 0xf
 1504 0082 00       		.byte	0
 1505 0083 0B       		.uleb128 0xb
 1506 0084 0B       		.uleb128 0xb
 1507 0085 00       		.byte	0
 1508 0086 00       		.byte	0
 1509 0087 0C       		.uleb128 0xc
 1510 0088 16       		.uleb128 0x16
 1511 0089 00       		.byte	0
 1512 008a 03       		.uleb128 0x3
 1513 008b 0E       		.uleb128 0xe
 1514 008c 3A       		.uleb128 0x3a
 1515 008d 0B       		.uleb128 0xb
 1516 008e 3B       		.uleb128 0x3b
 1517 008f 0B       		.uleb128 0xb
 1518 0090 49       		.uleb128 0x49
 1519 0091 13       		.uleb128 0x13
 1520 0092 8801     		.uleb128 0x88
 1521 0094 0B       		.uleb128 0xb
 1522 0095 00       		.byte	0
 1523 0096 00       		.byte	0
 1524 0097 0D       		.uleb128 0xd
 1525 0098 13       		.uleb128 0x13
 1526 0099 01       		.byte	0x1
ARM GAS  /tmp/ccPqzWE0.s 			page 28


 1527 009a 03       		.uleb128 0x3
 1528 009b 0E       		.uleb128 0xe
 1529 009c 0B       		.uleb128 0xb
 1530 009d 0B       		.uleb128 0xb
 1531 009e 3A       		.uleb128 0x3a
 1532 009f 0B       		.uleb128 0xb
 1533 00a0 3B       		.uleb128 0x3b
 1534 00a1 05       		.uleb128 0x5
 1535 00a2 01       		.uleb128 0x1
 1536 00a3 13       		.uleb128 0x13
 1537 00a4 00       		.byte	0
 1538 00a5 00       		.byte	0
 1539 00a6 0E       		.uleb128 0xe
 1540 00a7 0D       		.uleb128 0xd
 1541 00a8 00       		.byte	0
 1542 00a9 03       		.uleb128 0x3
 1543 00aa 08       		.uleb128 0x8
 1544 00ab 3A       		.uleb128 0x3a
 1545 00ac 0B       		.uleb128 0xb
 1546 00ad 3B       		.uleb128 0x3b
 1547 00ae 05       		.uleb128 0x5
 1548 00af 49       		.uleb128 0x49
 1549 00b0 13       		.uleb128 0x13
 1550 00b1 38       		.uleb128 0x38
 1551 00b2 0B       		.uleb128 0xb
 1552 00b3 00       		.byte	0
 1553 00b4 00       		.byte	0
 1554 00b5 0F       		.uleb128 0xf
 1555 00b6 15       		.uleb128 0x15
 1556 00b7 01       		.byte	0x1
 1557 00b8 27       		.uleb128 0x27
 1558 00b9 19       		.uleb128 0x19
 1559 00ba 01       		.uleb128 0x1
 1560 00bb 13       		.uleb128 0x13
 1561 00bc 00       		.byte	0
 1562 00bd 00       		.byte	0
 1563 00be 10       		.uleb128 0x10
 1564 00bf 05       		.uleb128 0x5
 1565 00c0 00       		.byte	0
 1566 00c1 49       		.uleb128 0x49
 1567 00c2 13       		.uleb128 0x13
 1568 00c3 00       		.byte	0
 1569 00c4 00       		.byte	0
 1570 00c5 11       		.uleb128 0x11
 1571 00c6 34       		.uleb128 0x34
 1572 00c7 00       		.byte	0
 1573 00c8 03       		.uleb128 0x3
 1574 00c9 0E       		.uleb128 0xe
 1575 00ca 3A       		.uleb128 0x3a
 1576 00cb 0B       		.uleb128 0xb
 1577 00cc 3B       		.uleb128 0x3b
 1578 00cd 0B       		.uleb128 0xb
 1579 00ce 49       		.uleb128 0x49
 1580 00cf 13       		.uleb128 0x13
 1581 00d0 3F       		.uleb128 0x3f
 1582 00d1 19       		.uleb128 0x19
 1583 00d2 3C       		.uleb128 0x3c
ARM GAS  /tmp/ccPqzWE0.s 			page 29


 1584 00d3 19       		.uleb128 0x19
 1585 00d4 00       		.byte	0
 1586 00d5 00       		.byte	0
 1587 00d6 12       		.uleb128 0x12
 1588 00d7 17       		.uleb128 0x17
 1589 00d8 01       		.byte	0x1
 1590 00d9 0B       		.uleb128 0xb
 1591 00da 0B       		.uleb128 0xb
 1592 00db 3A       		.uleb128 0x3a
 1593 00dc 0B       		.uleb128 0xb
 1594 00dd 3B       		.uleb128 0x3b
 1595 00de 0B       		.uleb128 0xb
 1596 00df 01       		.uleb128 0x1
 1597 00e0 13       		.uleb128 0x13
 1598 00e1 00       		.byte	0
 1599 00e2 00       		.byte	0
 1600 00e3 13       		.uleb128 0x13
 1601 00e4 0D       		.uleb128 0xd
 1602 00e5 00       		.byte	0
 1603 00e6 03       		.uleb128 0x3
 1604 00e7 0E       		.uleb128 0xe
 1605 00e8 3A       		.uleb128 0x3a
 1606 00e9 0B       		.uleb128 0xb
 1607 00ea 3B       		.uleb128 0x3b
 1608 00eb 0B       		.uleb128 0xb
 1609 00ec 49       		.uleb128 0x49
 1610 00ed 13       		.uleb128 0x13
 1611 00ee 00       		.byte	0
 1612 00ef 00       		.byte	0
 1613 00f0 14       		.uleb128 0x14
 1614 00f1 26       		.uleb128 0x26
 1615 00f2 00       		.byte	0
 1616 00f3 49       		.uleb128 0x49
 1617 00f4 13       		.uleb128 0x13
 1618 00f5 00       		.byte	0
 1619 00f6 00       		.byte	0
 1620 00f7 15       		.uleb128 0x15
 1621 00f8 01       		.uleb128 0x1
 1622 00f9 01       		.byte	0x1
 1623 00fa 49       		.uleb128 0x49
 1624 00fb 13       		.uleb128 0x13
 1625 00fc 01       		.uleb128 0x1
 1626 00fd 13       		.uleb128 0x13
 1627 00fe 00       		.byte	0
 1628 00ff 00       		.byte	0
 1629 0100 16       		.uleb128 0x16
 1630 0101 21       		.uleb128 0x21
 1631 0102 00       		.byte	0
 1632 0103 49       		.uleb128 0x49
 1633 0104 13       		.uleb128 0x13
 1634 0105 2F       		.uleb128 0x2f
 1635 0106 0B       		.uleb128 0xb
 1636 0107 00       		.byte	0
 1637 0108 00       		.byte	0
 1638 0109 17       		.uleb128 0x17
 1639 010a 13       		.uleb128 0x13
 1640 010b 01       		.byte	0x1
ARM GAS  /tmp/ccPqzWE0.s 			page 30


 1641 010c 0B       		.uleb128 0xb
 1642 010d 05       		.uleb128 0x5
 1643 010e 3A       		.uleb128 0x3a
 1644 010f 0B       		.uleb128 0xb
 1645 0110 3B       		.uleb128 0x3b
 1646 0111 0B       		.uleb128 0xb
 1647 0112 01       		.uleb128 0x1
 1648 0113 13       		.uleb128 0x13
 1649 0114 00       		.byte	0
 1650 0115 00       		.byte	0
 1651 0116 18       		.uleb128 0x18
 1652 0117 01       		.uleb128 0x1
 1653 0118 01       		.byte	0x1
 1654 0119 49       		.uleb128 0x49
 1655 011a 13       		.uleb128 0x13
 1656 011b 8801     		.uleb128 0x88
 1657 011d 0B       		.uleb128 0xb
 1658 011e 01       		.uleb128 0x1
 1659 011f 13       		.uleb128 0x13
 1660 0120 00       		.byte	0
 1661 0121 00       		.byte	0
 1662 0122 19       		.uleb128 0x19
 1663 0123 34       		.uleb128 0x34
 1664 0124 00       		.byte	0
 1665 0125 47       		.uleb128 0x47
 1666 0126 13       		.uleb128 0x13
 1667 0127 3A       		.uleb128 0x3a
 1668 0128 0B       		.uleb128 0xb
 1669 0129 3B       		.uleb128 0x3b
 1670 012a 0B       		.uleb128 0xb
 1671 012b 02       		.uleb128 0x2
 1672 012c 18       		.uleb128 0x18
 1673 012d 00       		.byte	0
 1674 012e 00       		.byte	0
 1675 012f 1A       		.uleb128 0x1a
 1676 0130 2E       		.uleb128 0x2e
 1677 0131 01       		.byte	0x1
 1678 0132 3F       		.uleb128 0x3f
 1679 0133 19       		.uleb128 0x19
 1680 0134 03       		.uleb128 0x3
 1681 0135 0E       		.uleb128 0xe
 1682 0136 3A       		.uleb128 0x3a
 1683 0137 0B       		.uleb128 0xb
 1684 0138 3B       		.uleb128 0x3b
 1685 0139 0B       		.uleb128 0xb
 1686 013a 27       		.uleb128 0x27
 1687 013b 19       		.uleb128 0x19
 1688 013c 11       		.uleb128 0x11
 1689 013d 01       		.uleb128 0x1
 1690 013e 12       		.uleb128 0x12
 1691 013f 06       		.uleb128 0x6
 1692 0140 40       		.uleb128 0x40
 1693 0141 18       		.uleb128 0x18
 1694 0142 9742     		.uleb128 0x2117
 1695 0144 19       		.uleb128 0x19
 1696 0145 01       		.uleb128 0x1
 1697 0146 13       		.uleb128 0x13
ARM GAS  /tmp/ccPqzWE0.s 			page 31


 1698 0147 00       		.byte	0
 1699 0148 00       		.byte	0
 1700 0149 1B       		.uleb128 0x1b
 1701 014a 05       		.uleb128 0x5
 1702 014b 00       		.byte	0
 1703 014c 03       		.uleb128 0x3
 1704 014d 08       		.uleb128 0x8
 1705 014e 3A       		.uleb128 0x3a
 1706 014f 0B       		.uleb128 0xb
 1707 0150 3B       		.uleb128 0x3b
 1708 0151 0B       		.uleb128 0xb
 1709 0152 49       		.uleb128 0x49
 1710 0153 13       		.uleb128 0x13
 1711 0154 02       		.uleb128 0x2
 1712 0155 17       		.uleb128 0x17
 1713 0156 00       		.byte	0
 1714 0157 00       		.byte	0
 1715 0158 1C       		.uleb128 0x1c
 1716 0159 898201   		.uleb128 0x4109
 1717 015c 00       		.byte	0
 1718 015d 11       		.uleb128 0x11
 1719 015e 01       		.uleb128 0x1
 1720 015f 31       		.uleb128 0x31
 1721 0160 13       		.uleb128 0x13
 1722 0161 00       		.byte	0
 1723 0162 00       		.byte	0
 1724 0163 1D       		.uleb128 0x1d
 1725 0164 898201   		.uleb128 0x4109
 1726 0167 01       		.byte	0x1
 1727 0168 11       		.uleb128 0x11
 1728 0169 01       		.uleb128 0x1
 1729 016a 31       		.uleb128 0x31
 1730 016b 13       		.uleb128 0x13
 1731 016c 01       		.uleb128 0x1
 1732 016d 13       		.uleb128 0x13
 1733 016e 00       		.byte	0
 1734 016f 00       		.byte	0
 1735 0170 1E       		.uleb128 0x1e
 1736 0171 8A8201   		.uleb128 0x410a
 1737 0174 00       		.byte	0
 1738 0175 02       		.uleb128 0x2
 1739 0176 18       		.uleb128 0x18
 1740 0177 9142     		.uleb128 0x2111
 1741 0179 18       		.uleb128 0x18
 1742 017a 00       		.byte	0
 1743 017b 00       		.byte	0
 1744 017c 1F       		.uleb128 0x1f
 1745 017d 898201   		.uleb128 0x4109
 1746 0180 01       		.byte	0x1
 1747 0181 11       		.uleb128 0x11
 1748 0182 01       		.uleb128 0x1
 1749 0183 31       		.uleb128 0x31
 1750 0184 13       		.uleb128 0x13
 1751 0185 00       		.byte	0
 1752 0186 00       		.byte	0
 1753 0187 20       		.uleb128 0x20
 1754 0188 05       		.uleb128 0x5
ARM GAS  /tmp/ccPqzWE0.s 			page 32


 1755 0189 00       		.byte	0
 1756 018a 03       		.uleb128 0x3
 1757 018b 0E       		.uleb128 0xe
 1758 018c 3A       		.uleb128 0x3a
 1759 018d 0B       		.uleb128 0xb
 1760 018e 3B       		.uleb128 0x3b
 1761 018f 0B       		.uleb128 0xb
 1762 0190 49       		.uleb128 0x49
 1763 0191 13       		.uleb128 0x13
 1764 0192 02       		.uleb128 0x2
 1765 0193 17       		.uleb128 0x17
 1766 0194 00       		.byte	0
 1767 0195 00       		.byte	0
 1768 0196 21       		.uleb128 0x21
 1769 0197 34       		.uleb128 0x34
 1770 0198 00       		.byte	0
 1771 0199 03       		.uleb128 0x3
 1772 019a 08       		.uleb128 0x8
 1773 019b 3A       		.uleb128 0x3a
 1774 019c 0B       		.uleb128 0xb
 1775 019d 3B       		.uleb128 0x3b
 1776 019e 0B       		.uleb128 0xb
 1777 019f 49       		.uleb128 0x49
 1778 01a0 13       		.uleb128 0x13
 1779 01a1 02       		.uleb128 0x2
 1780 01a2 17       		.uleb128 0x17
 1781 01a3 00       		.byte	0
 1782 01a4 00       		.byte	0
 1783 01a5 22       		.uleb128 0x22
 1784 01a6 2E       		.uleb128 0x2e
 1785 01a7 00       		.byte	0
 1786 01a8 3F       		.uleb128 0x3f
 1787 01a9 19       		.uleb128 0x19
 1788 01aa 03       		.uleb128 0x3
 1789 01ab 0E       		.uleb128 0xe
 1790 01ac 3A       		.uleb128 0x3a
 1791 01ad 0B       		.uleb128 0xb
 1792 01ae 3B       		.uleb128 0x3b
 1793 01af 0B       		.uleb128 0xb
 1794 01b0 27       		.uleb128 0x27
 1795 01b1 19       		.uleb128 0x19
 1796 01b2 11       		.uleb128 0x11
 1797 01b3 01       		.uleb128 0x1
 1798 01b4 12       		.uleb128 0x12
 1799 01b5 06       		.uleb128 0x6
 1800 01b6 40       		.uleb128 0x40
 1801 01b7 18       		.uleb128 0x18
 1802 01b8 9742     		.uleb128 0x2117
 1803 01ba 19       		.uleb128 0x19
 1804 01bb 00       		.byte	0
 1805 01bc 00       		.byte	0
 1806 01bd 23       		.uleb128 0x23
 1807 01be 2E       		.uleb128 0x2e
 1808 01bf 00       		.byte	0
 1809 01c0 3F       		.uleb128 0x3f
 1810 01c1 19       		.uleb128 0x19
 1811 01c2 3C       		.uleb128 0x3c
ARM GAS  /tmp/ccPqzWE0.s 			page 33


 1812 01c3 19       		.uleb128 0x19
 1813 01c4 6E       		.uleb128 0x6e
 1814 01c5 0E       		.uleb128 0xe
 1815 01c6 03       		.uleb128 0x3
 1816 01c7 0E       		.uleb128 0xe
 1817 01c8 3A       		.uleb128 0x3a
 1818 01c9 0B       		.uleb128 0xb
 1819 01ca 3B       		.uleb128 0x3b
 1820 01cb 0B       		.uleb128 0xb
 1821 01cc 00       		.byte	0
 1822 01cd 00       		.byte	0
 1823 01ce 00       		.byte	0
 1824              		.section	.debug_loc,"",%progbits
 1825              	.Ldebug_loc0:
 1826              	.LLST5:
 1827 0000 00000000 		.4byte	.LVL7
 1828 0004 07000000 		.4byte	.LVL8-1
 1829 0008 0100     		.2byte	0x1
 1830 000a 50       		.byte	0x50
 1831 000b 07000000 		.4byte	.LVL8-1
 1832 000f 4C000000 		.4byte	.LFE9
 1833 0013 0100     		.2byte	0x1
 1834 0015 54       		.byte	0x54
 1835 0016 00000000 		.4byte	0
 1836 001a 00000000 		.4byte	0
 1837              	.LLST0:
 1838 001e 00000000 		.4byte	.LVL0
 1839 0022 0D000000 		.4byte	.LVL1-1
 1840 0026 0100     		.2byte	0x1
 1841 0028 50       		.byte	0x50
 1842 0029 0D000000 		.4byte	.LVL1-1
 1843 002d 58000000 		.4byte	.LFE8
 1844 0031 0100     		.2byte	0x1
 1845 0033 55       		.byte	0x55
 1846 0034 00000000 		.4byte	0
 1847 0038 00000000 		.4byte	0
 1848              	.LLST1:
 1849 003c 00000000 		.4byte	.LVL0
 1850 0040 0D000000 		.4byte	.LVL1-1
 1851 0044 0100     		.2byte	0x1
 1852 0046 51       		.byte	0x51
 1853 0047 0D000000 		.4byte	.LVL1-1
 1854 004b 58000000 		.4byte	.LFE8
 1855 004f 0100     		.2byte	0x1
 1856 0051 54       		.byte	0x54
 1857 0052 00000000 		.4byte	0
 1858 0056 00000000 		.4byte	0
 1859              	.LLST2:
 1860 005a 00000000 		.4byte	.LVL0
 1861 005e 0D000000 		.4byte	.LVL1-1
 1862 0062 0100     		.2byte	0x1
 1863 0064 52       		.byte	0x52
 1864 0065 0D000000 		.4byte	.LVL1-1
 1865 0069 58000000 		.4byte	.LFE8
 1866 006d 0100     		.2byte	0x1
 1867 006f 56       		.byte	0x56
 1868 0070 00000000 		.4byte	0
ARM GAS  /tmp/ccPqzWE0.s 			page 34


 1869 0074 00000000 		.4byte	0
 1870              	.LLST3:
 1871 0078 00000000 		.4byte	.LVL0
 1872 007c 0D000000 		.4byte	.LVL1-1
 1873 0080 0100     		.2byte	0x1
 1874 0082 53       		.byte	0x53
 1875 0083 0D000000 		.4byte	.LVL1-1
 1876 0087 58000000 		.4byte	.LFE8
 1877 008b 0100     		.2byte	0x1
 1878 008d 57       		.byte	0x57
 1879 008e 00000000 		.4byte	0
 1880 0092 00000000 		.4byte	0
 1881              	.LLST4:
 1882 0096 1A000000 		.4byte	.LVL2
 1883 009a 24000000 		.4byte	.LVL3
 1884 009e 0100     		.2byte	0x1
 1885 00a0 53       		.byte	0x53
 1886 00a1 26000000 		.4byte	.LVL4
 1887 00a5 46000000 		.4byte	.LVL5
 1888 00a9 0100     		.2byte	0x1
 1889 00ab 53       		.byte	0x53
 1890 00ac 00000000 		.4byte	0
 1891 00b0 00000000 		.4byte	0
 1892              		.section	.debug_aranges,"",%progbits
 1893 0000 2C000000 		.4byte	0x2c
 1894 0004 0200     		.2byte	0x2
 1895 0006 00000000 		.4byte	.Ldebug_info0
 1896 000a 04       		.byte	0x4
 1897 000b 00       		.byte	0
 1898 000c 0000     		.2byte	0
 1899 000e 0000     		.2byte	0
 1900 0010 00000000 		.4byte	.LFB7
 1901 0014 18000000 		.4byte	.LFE7-.LFB7
 1902 0018 00000000 		.4byte	.LFB8
 1903 001c 58000000 		.4byte	.LFE8-.LFB8
 1904 0020 00000000 		.4byte	.LFB9
 1905 0024 4C000000 		.4byte	.LFE9-.LFB9
 1906 0028 00000000 		.4byte	0
 1907 002c 00000000 		.4byte	0
 1908              		.section	.debug_ranges,"",%progbits
 1909              	.Ldebug_ranges0:
 1910 0000 00000000 		.4byte	.LFB7
 1911 0004 18000000 		.4byte	.LFE7
 1912 0008 00000000 		.4byte	.LFB8
 1913 000c 58000000 		.4byte	.LFE8
 1914 0010 00000000 		.4byte	.LFB9
 1915 0014 4C000000 		.4byte	.LFE9
 1916 0018 00000000 		.4byte	0
 1917 001c 00000000 		.4byte	0
 1918              		.section	.debug_line,"",%progbits
 1919              	.Ldebug_line0:
 1920 0000 D7010000 		.section	.debug_str,"MS",%progbits,1
 1920      02005D01 
 1920      00000201 
 1920      FB0E0D00 
 1920      01010101 
 1921              	.LASF92:
ARM GAS  /tmp/ccPqzWE0.s 			page 35


 1922 0000 63665F6F 		.ascii	"cf_off_older\000"
 1922      66665F6F 
 1922      6C646572 
 1922      00
 1923              	.LASF45:
 1924 000d 705F6D73 		.ascii	"p_msg\000"
 1924      6700
 1925              	.LASF121:
 1926 0013 63684462 		.ascii	"chDbgPanic\000"
 1926      6750616E 
 1926      696300
 1927              	.LASF77:
 1928 001e 7264796D 		.ascii	"rdymsg\000"
 1928      736700
 1929              	.LASF18:
 1930 0025 75696E74 		.ascii	"uint64_t\000"
 1930      36345F74 
 1930      00
 1931              	.LASF4:
 1932 002e 5F5F7569 		.ascii	"__uint8_t\000"
 1932      6E74385F 
 1932      7400
 1933              	.LASF88:
 1934 0038 63685F74 		.ascii	"ch_threadsize\000"
 1934      68726561 
 1934      6473697A 
 1934      6500
 1935              	.LASF71:
 1936 0046 76746C69 		.ascii	"vtlist\000"
 1936      737400
 1937              	.LASF122:
 1938 004d 474E5520 		.ascii	"GNU C99 7.3.1 20180622 (release) [ARM/embedded-7-br"
 1938      43393920 
 1938      372E332E 
 1938      31203230 
 1938      31383036 
 1939 0080 616E6368 		.ascii	"anch revision 261907] -mcpu=cortex-m4 -mfloat-abi=h"
 1939      20726576 
 1939      6973696F 
 1939      6E203236 
 1939      31393037 
 1940 00b3 61726420 		.ascii	"ard -mfpu=fpv4-sp-d16 -mno-thumb-interwork -mthumb "
 1940      2D6D6670 
 1940      753D6670 
 1940      76342D73 
 1940      702D6431 
 1941 00e6 2D676764 		.ascii	"-ggdb -O2 -std=gnu99 -fomit-frame-pointer -falign-f"
 1941      62202D4F 
 1941      32202D73 
 1941      74643D67 
 1941      6E753939 
 1942 0119 756E6374 		.ascii	"unctions=16 -ffunction-sections -fdata-sections -fn"
 1942      696F6E73 
 1942      3D313620 
 1942      2D666675 
 1942      6E637469 
 1943 014c 6F2D636F 		.ascii	"o-common -fsingle-precision-constant\000"
ARM GAS  /tmp/ccPqzWE0.s 			page 36


 1943      6D6D6F6E 
 1943      202D6673 
 1943      696E676C 
 1943      652D7072 
 1944              	.LASF13:
 1945 0171 6C6F6E67 		.ascii	"long long unsigned int\000"
 1945      206C6F6E 
 1945      6720756E 
 1945      7369676E 
 1945      65642069 
 1946              	.LASF110:
 1947 0188 63685F74 		.ascii	"ch_trace_buffer_t\000"
 1947      72616365 
 1947      5F627566 
 1947      6665725F 
 1947      7400
 1948              	.LASF32:
 1949 019a 705F7072 		.ascii	"p_prio\000"
 1949      696F00
 1950              	.LASF95:
 1951 01a1 63665F6F 		.ascii	"cf_off_state\000"
 1951      66665F73 
 1951      74617465 
 1951      00
 1952              	.LASF103:
 1953 01ae 73655F74 		.ascii	"se_tp\000"
 1953      7000
 1954              	.LASF126:
 1955 01b4 5F76745F 		.ascii	"_vt_init\000"
 1955      696E6974 
 1955      00
 1956              	.LASF11:
 1957 01bd 6C6F6E67 		.ascii	"long long int\000"
 1957      206C6F6E 
 1957      6720696E 
 1957      7400
 1958              	.LASF1:
 1959 01cb 7369676E 		.ascii	"signed char\000"
 1959      65642063 
 1959      68617200 
 1960              	.LASF94:
 1961 01d7 63665F6F 		.ascii	"cf_off_stklimit\000"
 1961      66665F73 
 1961      746B6C69 
 1961      6D697400 
 1962              	.LASF96:
 1963 01e7 63665F6F 		.ascii	"cf_off_flags\000"
 1963      66665F66 
 1963      6C616773 
 1963      00
 1964              	.LASF49:
 1965 01f4 705F6D70 		.ascii	"p_mpool\000"
 1965      6F6F6C00 
 1966              	.LASF74:
 1967 01fc 6D5F7175 		.ascii	"m_queue\000"
 1967      65756500 
 1968              	.LASF23:
ARM GAS  /tmp/ccPqzWE0.s 			page 37


 1969 0204 74736C69 		.ascii	"tslices_t\000"
 1969      6365735F 
 1969      7400
 1970              	.LASF8:
 1971 020e 6C6F6E67 		.ascii	"long int\000"
 1971      20696E74 
 1971      00
 1972              	.LASF21:
 1973 0217 74737461 		.ascii	"tstate_t\000"
 1973      74655F74 
 1973      00
 1974              	.LASF15:
 1975 0220 75696E74 		.ascii	"uint16_t\000"
 1975      31365F74 
 1975      00
 1976              	.LASF100:
 1977 0229 63686465 		.ascii	"chdebug_t\000"
 1977      6275675F 
 1977      7400
 1978              	.LASF34:
 1979 0233 705F6E65 		.ascii	"p_newer\000"
 1979      77657200 
 1980              	.LASF115:
 1981 023b 5F69646C 		.ascii	"_idle_thread_wa\000"
 1981      655F7468 
 1981      72656164 
 1981      5F776100 
 1982              	.LASF78:
 1983 024b 65786974 		.ascii	"exitcode\000"
 1983      636F6465 
 1983      00
 1984              	.LASF107:
 1985 0254 74625F73 		.ascii	"tb_size\000"
 1985      697A6500 
 1986              	.LASF9:
 1987 025c 5F5F7569 		.ascii	"__uint32_t\000"
 1987      6E743332 
 1987      5F7400
 1988              	.LASF52:
 1989 0267 72656761 		.ascii	"regarm_t\000"
 1989      726D5F74 
 1989      00
 1990              	.LASF58:
 1991 0270 76745F70 		.ascii	"vt_prev\000"
 1991      72657600 
 1992              	.LASF102:
 1993 0278 73655F74 		.ascii	"se_time\000"
 1993      696D6500 
 1994              	.LASF28:
 1995 0280 636E745F 		.ascii	"cnt_t\000"
 1995      7400
 1996              	.LASF37:
 1997 0286 705F7374 		.ascii	"p_stklimit\000"
 1997      6B6C696D 
 1997      697400
 1998              	.LASF0:
 1999 0291 756E7369 		.ascii	"unsigned int\000"
ARM GAS  /tmp/ccPqzWE0.s 			page 38


 1999      676E6564 
 1999      20696E74 
 1999      00
 2000              	.LASF57:
 2001 029e 76745F6E 		.ascii	"vt_next\000"
 2001      65787400 
 2002              	.LASF10:
 2003 02a6 6C6F6E67 		.ascii	"long unsigned int\000"
 2003      20756E73 
 2003      69676E65 
 2003      6420696E 
 2003      7400
 2004              	.LASF101:
 2005 02b8 63685F64 		.ascii	"ch_debug\000"
 2005      65627567 
 2005      00
 2006              	.LASF55:
 2007 02c1 76746675 		.ascii	"vtfunc_t\000"
 2007      6E635F74 
 2007      00
 2008              	.LASF82:
 2009 02ca 63685F69 		.ascii	"ch_identifier\000"
 2009      64656E74 
 2009      69666965 
 2009      7200
 2010              	.LASF56:
 2011 02d8 56697274 		.ascii	"VirtualTimer\000"
 2011      75616C54 
 2011      696D6572 
 2011      00
 2012              	.LASF54:
 2013 02e5 636F6E74 		.ascii	"context\000"
 2013      65787400 
 2014              	.LASF6:
 2015 02ed 73686F72 		.ascii	"short unsigned int\000"
 2015      7420756E 
 2015      7369676E 
 2015      65642069 
 2015      6E7400
 2016              	.LASF25:
 2017 0300 6D73675F 		.ascii	"msg_t\000"
 2017      7400
 2018              	.LASF67:
 2019 0306 725F6E65 		.ascii	"r_newer\000"
 2019      77657200 
 2020              	.LASF120:
 2021 030e 63684462 		.ascii	"chDbgCheckClassI\000"
 2021      67436865 
 2021      636B436C 
 2021      61737349 
 2021      00
 2022              	.LASF124:
 2023 031f 2F686F6D 		.ascii	"/home/renan/BLDC/bldc-bootloader\000"
 2023      652F7265 
 2023      6E616E2F 
 2023      424C4443 
 2023      2F626C64 
ARM GAS  /tmp/ccPqzWE0.s 			page 39


 2024              	.LASF20:
 2025 0340 746D6F64 		.ascii	"tmode_t\000"
 2025      655F7400 
 2026              	.LASF112:
 2027 0348 6462675F 		.ascii	"dbg_isr_cnt\000"
 2027      6973725F 
 2027      636E7400 
 2028              	.LASF51:
 2029 0354 54687265 		.ascii	"ThreadsList\000"
 2029      6164734C 
 2029      69737400 
 2030              	.LASF26:
 2031 0360 6576656E 		.ascii	"eventmask_t\000"
 2031      746D6173 
 2031      6B5F7400 
 2032              	.LASF73:
 2033 036c 4D757465 		.ascii	"Mutex\000"
 2033      7800
 2034              	.LASF125:
 2035 0372 73746B61 		.ascii	"stkalign_t\000"
 2035      6C69676E 
 2035      5F7400
 2036              	.LASF83:
 2037 037d 63685F7A 		.ascii	"ch_zero\000"
 2037      65726F00 
 2038              	.LASF97:
 2039 0385 63665F6F 		.ascii	"cf_off_refs\000"
 2039      66665F72 
 2039      65667300 
 2040              	.LASF59:
 2041 0391 76745F74 		.ascii	"vt_time\000"
 2041      696D6500 
 2042              	.LASF108:
 2043 0399 74625F70 		.ascii	"tb_ptr\000"
 2043      747200
 2044              	.LASF60:
 2045 03a0 76745F66 		.ascii	"vt_func\000"
 2045      756E6300 
 2046              	.LASF87:
 2047 03a8 63685F74 		.ascii	"ch_timesize\000"
 2047      696D6573 
 2047      697A6500 
 2048              	.LASF106:
 2049 03b4 63685F73 		.ascii	"ch_swc_event_t\000"
 2049      77635F65 
 2049      76656E74 
 2049      5F7400
 2050              	.LASF93:
 2051 03c3 63665F6F 		.ascii	"cf_off_name\000"
 2051      66665F6E 
 2051      616D6500 
 2052              	.LASF117:
 2053 03cf 63685654 		.ascii	"chVTSetI\000"
 2053      53657449 
 2053      00
 2054              	.LASF35:
 2055 03d8 705F6F6C 		.ascii	"p_older\000"
ARM GAS  /tmp/ccPqzWE0.s 			page 40


 2055      64657200 
 2056              	.LASF66:
 2057 03e0 725F6374 		.ascii	"r_ctx\000"
 2057      7800
 2058              	.LASF50:
 2059 03e6 54687265 		.ascii	"ThreadsQueue\000"
 2059      61647351 
 2059      75657565 
 2059      00
 2060              	.LASF84:
 2061 03f3 63685F73 		.ascii	"ch_size\000"
 2061      697A6500 
 2062              	.LASF118:
 2063 03fb 74696D65 		.ascii	"time\000"
 2063      00
 2064              	.LASF69:
 2065 0400 725F6375 		.ascii	"r_current\000"
 2065      7272656E 
 2065      7400
 2066              	.LASF68:
 2067 040a 725F6F6C 		.ascii	"r_older\000"
 2067      64657200 
 2068              	.LASF12:
 2069 0412 5F5F7569 		.ascii	"__uint64_t\000"
 2069      6E743634 
 2069      5F7400
 2070              	.LASF111:
 2071 041d 6462675F 		.ascii	"dbg_trace_buffer\000"
 2071      74726163 
 2071      655F6275 
 2071      66666572 
 2071      00
 2072              	.LASF22:
 2073 042e 74726566 		.ascii	"trefs_t\000"
 2073      735F7400 
 2074              	.LASF109:
 2075 0436 74625F62 		.ascii	"tb_buffer\000"
 2075      75666665 
 2075      7200
 2076              	.LASF86:
 2077 0440 63685F70 		.ascii	"ch_ptrsize\000"
 2077      74727369 
 2077      7A6500
 2078              	.LASF31:
 2079 044b 705F7072 		.ascii	"p_prev\000"
 2079      657600
 2080              	.LASF24:
 2081 0452 74707269 		.ascii	"tprio_t\000"
 2081      6F5F7400 
 2082              	.LASF19:
 2083 045a 5F426F6F 		.ascii	"_Bool\000"
 2083      6C00
 2084              	.LASF16:
 2085 0460 696E7433 		.ascii	"int32_t\000"
 2085      325F7400 
 2086              	.LASF2:
 2087 0468 756E7369 		.ascii	"unsigned char\000"
ARM GAS  /tmp/ccPqzWE0.s 			page 41


 2087      676E6564 
 2087      20636861 
 2087      7200
 2088              	.LASF114:
 2089 0476 6462675F 		.ascii	"dbg_panic_msg\000"
 2089      70616E69 
 2089      635F6D73 
 2089      6700
 2090              	.LASF47:
 2091 0484 705F6D74 		.ascii	"p_mtxlist\000"
 2091      786C6973 
 2091      7400
 2092              	.LASF3:
 2093 048e 73686F72 		.ascii	"short int\000"
 2093      7420696E 
 2093      7400
 2094              	.LASF38:
 2095 0498 705F7374 		.ascii	"p_state\000"
 2095      61746500 
 2096              	.LASF41:
 2097 04a0 705F7072 		.ascii	"p_preempt\000"
 2097      65656D70 
 2097      7400
 2098              	.LASF99:
 2099 04aa 63665F6F 		.ascii	"cf_off_time\000"
 2099      66665F74 
 2099      696D6500 
 2100              	.LASF65:
 2101 04b6 725F7072 		.ascii	"r_prio\000"
 2101      696F00
 2102              	.LASF80:
 2103 04bd 65776D61 		.ascii	"ewmask\000"
 2103      736B00
 2104              	.LASF30:
 2105 04c4 705F6E65 		.ascii	"p_next\000"
 2105      787400
 2106              	.LASF98:
 2107 04cb 63665F6F 		.ascii	"cf_off_preempt\000"
 2107      66665F70 
 2107      7265656D 
 2107      707400
 2108              	.LASF39:
 2109 04da 705F666C 		.ascii	"p_flags\000"
 2109      61677300 
 2110              	.LASF29:
 2111 04e2 54687265 		.ascii	"Thread\000"
 2111      616400
 2112              	.LASF91:
 2113 04e9 63665F6F 		.ascii	"cf_off_newer\000"
 2113      66665F6E 
 2113      65776572 
 2113      00
 2114              	.LASF46:
 2115 04f6 705F6570 		.ascii	"p_epending\000"
 2115      656E6469 
 2115      6E6700
 2116              	.LASF17:
ARM GAS  /tmp/ccPqzWE0.s 			page 42


 2117 0501 75696E74 		.ascii	"uint32_t\000"
 2117      33325F74 
 2117      00
 2118              	.LASF89:
 2119 050a 63665F6F 		.ascii	"cf_off_prio\000"
 2119      66665F70 
 2119      72696F00 
 2120              	.LASF64:
 2121 0516 725F7175 		.ascii	"r_queue\000"
 2121      65756500 
 2122              	.LASF81:
 2123 051e 63686172 		.ascii	"char\000"
 2123      00
 2124              	.LASF5:
 2125 0523 5F5F7569 		.ascii	"__uint16_t\000"
 2125      6E743136 
 2125      5F7400
 2126              	.LASF76:
 2127 052e 6D5F6E65 		.ascii	"m_next\000"
 2127      787400
 2128              	.LASF27:
 2129 0535 73797374 		.ascii	"systime_t\000"
 2129      696D655F 
 2129      7400
 2130              	.LASF48:
 2131 053f 705F7265 		.ascii	"p_realprio\000"
 2131      616C7072 
 2131      696F00
 2132              	.LASF7:
 2133 054a 5F5F696E 		.ascii	"__int32_t\000"
 2133      7433325F 
 2133      7400
 2134              	.LASF113:
 2135 0554 6462675F 		.ascii	"dbg_lock_cnt\000"
 2135      6C6F636B 
 2135      5F636E74 
 2135      00
 2136              	.LASF42:
 2137 0561 705F7469 		.ascii	"p_time\000"
 2137      6D6500
 2138              	.LASF53:
 2139 0568 696E7463 		.ascii	"intctx\000"
 2139      747800
 2140              	.LASF44:
 2141 056f 705F6D73 		.ascii	"p_msgqueue\000"
 2141      67717565 
 2141      756500
 2142              	.LASF61:
 2143 057a 76745F70 		.ascii	"vt_par\000"
 2143      617200
 2144              	.LASF119:
 2145 0581 76746675 		.ascii	"vtfunc\000"
 2145      6E6300
 2146              	.LASF90:
 2147 0588 63665F6F 		.ascii	"cf_off_ctx\000"
 2147      66665F63 
 2147      747800
ARM GAS  /tmp/ccPqzWE0.s 			page 43


 2148              	.LASF40:
 2149 0593 705F7265 		.ascii	"p_refs\000"
 2149      667300
 2150              	.LASF116:
 2151 059a 63685654 		.ascii	"chVTResetI\000"
 2151      52657365 
 2151      744900
 2152              	.LASF70:
 2153 05a5 52656164 		.ascii	"ReadyList\000"
 2153      794C6973 
 2153      7400
 2154              	.LASF105:
 2155 05af 73655F73 		.ascii	"se_state\000"
 2155      74617465 
 2155      00
 2156              	.LASF72:
 2157 05b8 726C6973 		.ascii	"rlist\000"
 2157      7400
 2158              	.LASF14:
 2159 05be 75696E74 		.ascii	"uint8_t\000"
 2159      385F7400 
 2160              	.LASF79:
 2161 05c6 77746F62 		.ascii	"wtobjp\000"
 2161      6A7000
 2162              	.LASF36:
 2163 05cd 705F6E61 		.ascii	"p_name\000"
 2163      6D6500
 2164              	.LASF62:
 2165 05d4 76745F73 		.ascii	"vt_systime\000"
 2165      79737469 
 2165      6D6500
 2166              	.LASF85:
 2167 05df 63685F76 		.ascii	"ch_version\000"
 2167      65727369 
 2167      6F6E00
 2168              	.LASF63:
 2169 05ea 56544C69 		.ascii	"VTList\000"
 2169      737400
 2170              	.LASF123:
 2171 05f1 43686962 		.ascii	"ChibiOS_2.6.6/os/kernel/src/chvt.c\000"
 2171      694F535F 
 2171      322E362E 
 2171      362F6F73 
 2171      2F6B6572 
 2172              	.LASF75:
 2173 0614 6D5F6F77 		.ascii	"m_owner\000"
 2173      6E657200 
 2174              	.LASF104:
 2175 061c 73655F77 		.ascii	"se_wtobjp\000"
 2175      746F626A 
 2175      7000
 2176              	.LASF33:
 2177 0626 705F6374 		.ascii	"p_ctx\000"
 2177      7800
 2178              	.LASF43:
 2179 062c 705F7761 		.ascii	"p_waiting\000"
 2179      6974696E 
ARM GAS  /tmp/ccPqzWE0.s 			page 44


 2179      6700
 2180              		.ident	"GCC: (GNU Tools for Arm Embedded Processors 7-2018-q3-update) 7.3.1 20180622 (release) [AR
ARM GAS  /tmp/ccPqzWE0.s 			page 45


DEFINED SYMBOLS
                            *ABS*:0000000000000000 chvt.c
     /tmp/ccPqzWE0.s:18     .text._vt_init:0000000000000000 $t
     /tmp/ccPqzWE0.s:26     .text._vt_init:0000000000000000 _vt_init
     /tmp/ccPqzWE0.s:51     .text._vt_init:0000000000000014 $d
     /tmp/ccPqzWE0.s:56     .text.chVTSetI:0000000000000000 $t
     /tmp/ccPqzWE0.s:64     .text.chVTSetI:0000000000000000 chVTSetI
     /tmp/ccPqzWE0.s:150    .text.chVTSetI:0000000000000050 $d
     /tmp/ccPqzWE0.s:156    .text.chVTResetI:0000000000000000 $t
     /tmp/ccPqzWE0.s:164    .text.chVTResetI:0000000000000000 chVTResetI
     /tmp/ccPqzWE0.s:228    .text.chVTResetI:0000000000000040 $d
     /tmp/ccPqzWE0.s:240    .bss.vtlist:0000000000000000 vtlist
     /tmp/ccPqzWE0.s:236    .bss.vtlist:0000000000000000 $d
     /tmp/ccPqzWE0.s:243    .rodata.chVTResetI.str1.4:0000000000000000 $d
     /tmp/ccPqzWE0.s:250    .rodata.chVTSetI.str1.4:0000000000000000 $d

UNDEFINED SYMBOLS
chDbgCheckClassI
chDbgPanic
