ARM GAS  /tmp/ccLifbdL.s 			page 1


   1              		.cpu cortex-m4
   2              		.eabi_attribute 27, 1
   3              		.eabi_attribute 28, 1
   4              		.eabi_attribute 20, 1
   5              		.eabi_attribute 21, 1
   6              		.eabi_attribute 23, 3
   7              		.eabi_attribute 24, 1
   8              		.eabi_attribute 25, 1
   9              		.eabi_attribute 26, 1
  10              		.eabi_attribute 30, 2
  11              		.eabi_attribute 34, 1
  12              		.eabi_attribute 18, 4
  13              		.file	"crt0.c"
  14              		.text
  15              	.Ltext0:
  16              		.cfi_sections	.debug_frame
  17              		.section	.text.__early_init,"ax",%progbits
  18              		.align	1
  19              		.p2align 4,,15
  20              		.weak	__early_init
  21              		.syntax unified
  22              		.thumb
  23              		.thumb_func
  24              		.fpu fpv4-sp-d16
  25              		.type	__early_init, %function
  26              	__early_init:
  27              	.LFB0:
  28              		.file 1 "ChibiOS_2.6.6/os/ports/GCC/ARMCMx/crt0.c"
  29              		.loc 1 234 0
  30              		.cfi_startproc
  31              		@ args = 0, pretend = 0, frame = 0
  32              		@ frame_needed = 0, uses_anonymous_args = 0
  33              		@ link register save eliminated.
  34              		.loc 1 234 0
  35 0000 7047     		bx	lr
  36              		.cfi_endproc
  37              	.LFE0:
  38              		.size	__early_init, .-__early_init
  39 0002 00BF     		.section	.text.__late_init,"ax",%progbits
  40              		.align	1
  41              		.p2align 4,,15
  42              		.weak	__late_init
  43              		.syntax unified
  44              		.thumb
  45              		.thumb_func
  46              		.fpu fpv4-sp-d16
  47              		.type	__late_init, %function
  48              	__late_init:
  49              	.LFB5:
  50              		.cfi_startproc
  51              		@ args = 0, pretend = 0, frame = 0
  52              		@ frame_needed = 0, uses_anonymous_args = 0
  53              		@ link register save eliminated.
  54 0000 7047     		bx	lr
  55              		.cfi_endproc
  56              	.LFE5:
  57              		.size	__late_init, .-__late_init
ARM GAS  /tmp/ccLifbdL.s 			page 2


  58 0002 00BF     		.section	.text._default_exit,"ax",%progbits
  59              		.align	1
  60              		.p2align 4,,15
  61              		.weak	_default_exit
  62              		.syntax unified
  63              		.thumb
  64              		.thumb_func
  65              		.fpu fpv4-sp-d16
  66              		.type	_default_exit, %function
  67              	_default_exit:
  68              	.LFB2:
  69              		.loc 1 257 0
  70              		.cfi_startproc
  71              		@ Naked Function: prologue and epilogue provided by programmer.
  72              		@ args = 0, pretend = 0, frame = 0
  73              		@ frame_needed = 0, uses_anonymous_args = 0
  74              	.L5:
  75 0000 FEE7     		b	.L5
  76              		.cfi_endproc
  77              	.LFE2:
  78              		.size	_default_exit, .-_default_exit
  79 0002 00BF     		.section	.text.ResetHandler,"ax",%progbits
  80              		.align	1
  81              		.p2align 4,,15
  82              		.global	ResetHandler
  83              		.syntax unified
  84              		.thumb
  85              		.thumb_func
  86              		.fpu fpv4-sp-d16
  87              		.type	ResetHandler, %function
  88              	ResetHandler:
  89              	.LFB3:
  90              		.loc 1 268 0
  91              		.cfi_startproc
  92              		@ Naked Function: prologue and epilogue provided by programmer.
  93              		@ args = 0, pretend = 0, frame = 0
  94              		@ frame_needed = 0, uses_anonymous_args = 0
  95              		.loc 1 274 0
  96              		.syntax unified
  97              	@ 274 "ChibiOS_2.6.6/os/ports/GCC/ARMCMx/crt0.c" 1
  98 0000 72B6     		cpsid   i
  99              	@ 0 "" 2
 100              		.loc 1 275 0
 101              		.thumb
 102              		.syntax unified
 103 0002 3D48     		ldr	r0, .L25
 104              	.LVL0:
 105              		.loc 1 276 0
 106              		.syntax unified
 107              	@ 276 "ChibiOS_2.6.6/os/ports/GCC/ARMCMx/crt0.c" 1
 108 0004 80F30988 		msr     PSP, r0
 109              	@ 0 "" 2
 110              		.loc 1 283 0
 111              		.thumb
 112              		.syntax unified
 113 0008 3C4A     		ldr	r2, .L25+4
 114              		.loc 1 280 0
ARM GAS  /tmp/ccLifbdL.s 			page 3


 115 000a 3D49     		ldr	r1, .L25+8
 116              		.loc 1 283 0
 117 000c 1368     		ldr	r3, [r2]
 118              		.loc 1 280 0
 119 000e 4FF04044 		mov	r4, #-1073741824
 120              		.loc 1 283 0
 121 0012 43F47003 		orr	r3, r3, #15728640
 122 0016 1360     		str	r3, [r2]
 123              	.LVL1:
 124              		.loc 1 280 0
 125 0018 0C60     		str	r4, [r1]
 126              		.loc 1 287 0
 127 001a 0023     		movs	r3, #0
 128              		.syntax unified
 129              	@ 287 "ChibiOS_2.6.6/os/ports/GCC/ARMCMx/crt0.c" 1
 130 001c E1EE103A 		vmsr    FPSCR, r3
 131              	@ 0 "" 2
 132              		.loc 1 296 0
 133              		.thumb
 134              		.syntax unified
 135 0020 0622     		movs	r2, #6
 136              		.loc 1 288 0
 137 0022 8B60     		str	r3, [r1, #8]
 138              	.LVL2:
 139              		.loc 1 296 0
 140              		.syntax unified
 141              	@ 296 "ChibiOS_2.6.6/os/ports/GCC/ARMCMx/crt0.c" 1
 142 0024 82F31488 		msr     CONTROL, r2
 143              	@ 0 "" 2
 144              		.loc 1 297 0
 145              	@ 297 "ChibiOS_2.6.6/os/ports/GCC/ARMCMx/crt0.c" 1
 146 0028 BFF36F8F 		isb
 147              	@ 0 "" 2
 148              	.LVL3:
 149              		.thumb
 150              		.syntax unified
 151              	.LBB2:
 152              		.loc 1 301 0
 153 002c 354B     		ldr	r3, .L25+12
 154 002e 364A     		ldr	r2, .L25+16
 155 0030 9342     		cmp	r3, r2
 156 0032 0BD2     		bcs	.L7
 157 0034 191D     		adds	r1, r3, #4
 158 0036 0332     		adds	r2, r2, #3
 159 0038 521A     		subs	r2, r2, r1
 160 003a 22F00302 		bic	r2, r2, #3
 161 003e 0A44     		add	r2, r2, r1
 162 0040 4FF05531 		mov	r1, #1431655765
 163              	.LVL4:
 164              	.L8:
 165              		.loc 1 301 0 is_stmt 0 discriminator 3
 166 0044 43F8041B 		str	r1, [r3], #4
 167              	.LVL5:
 168 0048 9342     		cmp	r3, r2
 169 004a FBD1     		bne	.L8
 170              	.LVL6:
 171              	.L7:
ARM GAS  /tmp/ccLifbdL.s 			page 4


 172              	.LBE2:
 173              	.LBB3:
 174              		.loc 1 304 0 is_stmt 1
 175 004c 2F4B     		ldr	r3, .L25+20
 176 004e 8342     		cmp	r3, r0
 177 0050 0BD2     		bcs	.L9
 178 0052 2F4A     		ldr	r2, .L25+24
 179 0054 191D     		adds	r1, r3, #4
 180 0056 521A     		subs	r2, r2, r1
 181 0058 22F00302 		bic	r2, r2, #3
 182 005c 0A44     		add	r2, r2, r1
 183 005e 4FF05531 		mov	r1, #1431655765
 184              	.LVL7:
 185              	.L10:
 186              		.loc 1 304 0 is_stmt 0 discriminator 3
 187 0062 43F8041B 		str	r1, [r3], #4
 188              	.LVL8:
 189 0066 9342     		cmp	r3, r2
 190 0068 FBD1     		bne	.L10
 191              	.LVL9:
 192              	.L9:
 193              	.LBE3:
 194              		.loc 1 310 0 is_stmt 1
 195 006a FFF7FEFF 		bl	__early_init
 196              	.LVL10:
 197              	.LBB4:
 198              		.loc 1 319 0
 199 006e 294B     		ldr	r3, .L25+28
 200 0070 294A     		ldr	r2, .L25+32
 201 0072 9342     		cmp	r3, r2
 202 0074 0CD2     		bcs	.L11
 203 0076 181D     		adds	r0, r3, #4
 204 0078 0332     		adds	r2, r2, #3
 205 007a 121A     		subs	r2, r2, r0
 206 007c 22F00302 		bic	r2, r2, #3
 207              		.loc 1 317 0
 208 0080 2649     		ldr	r1, .L25+36
 209 0082 0244     		add	r2, r2, r0
 210              	.LVL11:
 211              	.L12:
 212              		.loc 1 320 0
 213 0084 51F8040B 		ldr	r0, [r1], #4
 214              	.LVL12:
 215 0088 43F8040B 		str	r0, [r3], #4
 216              	.LVL13:
 217              		.loc 1 319 0
 218 008c 9342     		cmp	r3, r2
 219 008e F9D1     		bne	.L12
 220              	.LVL14:
 221              	.L11:
 222              	.LBE4:
 223              	.LBB5:
 224              		.loc 1 326 0
 225 0090 234B     		ldr	r3, .L25+40
 226 0092 244A     		ldr	r2, .L25+44
 227 0094 9342     		cmp	r3, r2
 228 0096 0AD2     		bcs	.L13
ARM GAS  /tmp/ccLifbdL.s 			page 5


 229 0098 191D     		adds	r1, r3, #4
 230 009a 0332     		adds	r2, r2, #3
 231 009c 521A     		subs	r2, r2, r1
 232 009e 22F00302 		bic	r2, r2, #3
 233 00a2 0A44     		add	r2, r2, r1
 234 00a4 0021     		movs	r1, #0
 235              	.LVL15:
 236              	.L14:
 237              		.loc 1 326 0 is_stmt 0 discriminator 3
 238 00a6 43F8041B 		str	r1, [r3], #4
 239              	.LVL16:
 240 00aa 9342     		cmp	r3, r2
 241 00ac FBD1     		bne	.L14
 242              	.LVL17:
 243              	.L13:
 244              	.LBE5:
 245              		.loc 1 330 0 is_stmt 1
 246 00ae FFF7FEFF 		bl	__late_init
 247              	.LVL18:
 248              	.LBB6:
 249              		.loc 1 336 0
 250 00b2 1D4C     		ldr	r4, .L25+48
 251 00b4 1D4B     		ldr	r3, .L25+52
 252 00b6 9C42     		cmp	r4, r3
 253 00b8 0AD2     		bcs	.L15
 254 00ba E543     		mvns	r5, r4
 255 00bc 1D44     		add	r5, r5, r3
 256 00be 25F00305 		bic	r5, r5, #3
 257 00c2 0435     		adds	r5, r5, #4
 258 00c4 2544     		add	r5, r5, r4
 259              	.LVL19:
 260              	.L16:
 261              		.loc 1 337 0
 262 00c6 54F8043B 		ldr	r3, [r4], #4
 263              	.LVL20:
 264 00ca 9847     		blx	r3
 265              	.LVL21:
 266              		.loc 1 336 0
 267 00cc AC42     		cmp	r4, r5
 268 00ce FAD1     		bne	.L16
 269              	.LVL22:
 270              	.L15:
 271              	.LBE6:
 272              		.loc 1 344 0
 273 00d0 FFF7FEFF 		bl	main
 274              	.LVL23:
 275              	.LBB7:
 276              		.loc 1 350 0
 277 00d4 164C     		ldr	r4, .L25+56
 278 00d6 174B     		ldr	r3, .L25+60
 279 00d8 9C42     		cmp	r4, r3
 280 00da 0AD2     		bcs	.L17
 281 00dc E543     		mvns	r5, r4
 282 00de 1D44     		add	r5, r5, r3
 283 00e0 25F00305 		bic	r5, r5, #3
 284 00e4 0435     		adds	r5, r5, #4
 285 00e6 2544     		add	r5, r5, r4
ARM GAS  /tmp/ccLifbdL.s 			page 6


 286              	.LVL24:
 287              	.L18:
 288              		.loc 1 351 0
 289 00e8 54F8043B 		ldr	r3, [r4], #4
 290              	.LVL25:
 291 00ec 9847     		blx	r3
 292              	.LVL26:
 293              		.loc 1 350 0
 294 00ee A542     		cmp	r5, r4
 295 00f0 FAD1     		bne	.L18
 296              	.LVL27:
 297              	.L17:
 298              	.LBE7:
 299              		.loc 1 358 0
 300 00f2 FFF7FEFF 		bl	_default_exit
 301              	.LVL28:
 302              		.loc 1 359 0
 303              	.L26:
 304 00f6 00BF     		.align	2
 305              	.L25:
 306 00f8 00000000 		.word	__process_stack_end__
 307 00fc 88ED00E0 		.word	-536810104
 308 0100 34EF00E0 		.word	-536809676
 309 0104 00000000 		.word	__main_stack_base__
 310 0108 00000000 		.word	__main_stack_end__
 311 010c 00000000 		.word	__process_stack_base__
 312 0110 03000000 		.word	__process_stack_end__+3
 313 0114 00000000 		.word	_data
 314 0118 00000000 		.word	_edata
 315 011c 00000000 		.word	_textdata
 316 0120 00000000 		.word	_bss_start
 317 0124 00000000 		.word	_bss_end
 318 0128 00000000 		.word	__init_array_start
 319 012c 00000000 		.word	__init_array_end
 320 0130 00000000 		.word	__fini_array_start
 321 0134 00000000 		.word	__fini_array_end
 322              		.cfi_endproc
 323              	.LFE3:
 324              		.size	ResetHandler, .-ResetHandler
 325              		.text
 326              	.Letext0:
 327              		.file 2 "/usr/arm-none-eabi/include/machine/_default_types.h"
 328              		.file 3 "/usr/arm-none-eabi/include/sys/_stdint.h"