ARM GAS  /tmp/ccLifbdL.s 			page 1


   1              		.cpu cortex-m4
   2              		.eabi_attribute 27, 1
   3              		.eabi_attribute 28, 1
   4              		.eabi_attribute 20, 1
   5              		.eabi_attribute 21, 1
   6              		.eabi_attribute 23, 3
   7              		.eabi_attribute 24, 1
   8              		.eabi_attribute 25, 1
   9              		.eabi_attribute 26, 1
  10              		.eabi_attribute 30, 2
  11              		.eabi_attribute 34, 1
  12              		.eabi_attribute 18, 4
  13              		.file	"crt0.c"
  14              		.text
  15              	.Ltext0:
  16              		.cfi_sections	.debug_frame
  17              		.section	.text.__early_init,"ax",%progbits
  18              		.align	1
  19              		.p2align 4,,15
  20              		.weak	__early_init
  21              		.syntax unified
  22              		.thumb
  23              		.thumb_func
  24              		.fpu fpv4-sp-d16
  25              		.type	__early_init, %function
  26              	__early_init:
  27              	.LFB0:
  28              		.file 1 "ChibiOS_2.6.6/os/ports/GCC/ARMCMx/crt0.c"
  29              		.loc 1 234 0
  30              		.cfi_startproc
  31              		@ args = 0, pretend = 0, frame = 0
  32              		@ frame_needed = 0, uses_anonymous_args = 0
  33              		@ link register save eliminated.
  34              		.loc 1 234 0
  35 0000 7047     		bx	lr
  36              		.cfi_endproc
  37              	.LFE0:
  38              		.size	__early_init, .-__early_init
  39 0002 00BF     		.section	.text.__late_init,"ax",%progbits
  40              		.align	1
  41              		.p2align 4,,15
  42              		.weak	__late_init
  43              		.syntax unified
  44              		.thumb
  45              		.thumb_func
  46              		.fpu fpv4-sp-d16
  47              		.type	__late_init, %function
  48              	__late_init:
  49              	.LFB5:
  50              		.cfi_startproc
  51              		@ args = 0, pretend = 0, frame = 0
  52              		@ frame_needed = 0, uses_anonymous_args = 0
  53              		@ link register save eliminated.
  54 0000 7047     		bx	lr
  55              		.cfi_endproc
  56              	.LFE5:
  57              		.size	__late_init, .-__late_init
ARM GAS  /tmp/ccLifbdL.s 			page 2


  58 0002 00BF     		.section	.text._default_exit,"ax",%progbits
  59              		.align	1
  60              		.p2align 4,,15
  61              		.weak	_default_exit
  62              		.syntax unified
  63              		.thumb
  64              		.thumb_func
  65              		.fpu fpv4-sp-d16
  66              		.type	_default_exit, %function
  67              	_default_exit:
  68              	.LFB2:
  69              		.loc 1 257 0
  70              		.cfi_startproc
  71              		@ Naked Function: prologue and epilogue provided by programmer.
  72              		@ args = 0, pretend = 0, frame = 0
  73              		@ frame_needed = 0, uses_anonymous_args = 0
  74              	.L5:
  75 0000 FEE7     		b	.L5
  76              		.cfi_endproc
  77              	.LFE2:
  78              		.size	_default_exit, .-_default_exit
  79 0002 00BF     		.section	.text.ResetHandler,"ax",%progbits
  80              		.align	1
  81              		.p2align 4,,15
  82              		.global	ResetHandler
  83              		.syntax unified
  84              		.thumb
  85              		.thumb_func
  86              		.fpu fpv4-sp-d16
  87              		.type	ResetHandler, %function
  88              	ResetHandler:
  89              	.LFB3:
  90              		.loc 1 268 0
  91              		.cfi_startproc
  92              		@ Naked Function: prologue and epilogue provided by programmer.
  93              		@ args = 0, pretend = 0, frame = 0
  94              		@ frame_needed = 0, uses_anonymous_args = 0
  95              		.loc 1 274 0
  96              		.syntax unified
  97              	@ 274 "ChibiOS_2.6.6/os/ports/GCC/ARMCMx/crt0.c" 1
  98 0000 72B6     		cpsid   i
  99              	@ 0 "" 2
 100              		.loc 1 275 0
 101              		.thumb
 102              		.syntax unified
 103 0002 3D48     		ldr	r0, .L25
 104              	.LVL0:
 105              		.loc 1 276 0
 106              		.syntax unified
 107              	@ 276 "ChibiOS_2.6.6/os/ports/GCC/ARMCMx/crt0.c" 1
 108 0004 80F30988 		msr     PSP, r0
 109              	@ 0 "" 2
 110              		.loc 1 283 0
 111              		.thumb
 112              		.syntax unified
 113 0008 3C4A     		ldr	r2, .L25+4
 114              		.loc 1 280 0
ARM GAS  /tmp/ccLifbdL.s 			page 3


 115 000a 3D49     		ldr	r1, .L25+8
 116              		.loc 1 283 0
 117 000c 1368     		ldr	r3, [r2]
 118              		.loc 1 280 0
 119 000e 4FF04044 		mov	r4, #-1073741824
 120              		.loc 1 283 0
 121 0012 43F47003 		orr	r3, r3, #15728640
 122 0016 1360     		str	r3, [r2]
 123              	.LVL1:
 124              		.loc 1 280 0
 125 0018 0C60     		str	r4, [r1]
 126              		.loc 1 287 0
 127 001a 0023     		movs	r3, #0
 128              		.syntax unified
 129              	@ 287 "ChibiOS_2.6.6/os/ports/GCC/ARMCMx/crt0.c" 1
 130 001c E1EE103A 		vmsr    FPSCR, r3
 131              	@ 0 "" 2
 132              		.loc 1 296 0
 133              		.thumb
 134              		.syntax unified
 135 0020 0622     		movs	r2, #6
 136              		.loc 1 288 0
 137 0022 8B60     		str	r3, [r1, #8]
 138              	.LVL2:
 139              		.loc 1 296 0
 140              		.syntax unified
 141              	@ 296 "ChibiOS_2.6.6/os/ports/GCC/ARMCMx/crt0.c" 1
 142 0024 82F31488 		msr     CONTROL, r2
 143              	@ 0 "" 2
 144              		.loc 1 297 0
 145              	@ 297 "ChibiOS_2.6.6/os/ports/GCC/ARMCMx/crt0.c" 1
 146 0028 BFF36F8F 		isb
 147              	@ 0 "" 2
 148              	.LVL3:
 149              		.thumb
 150              		.syntax unified
 151              	.LBB2:
 152              		.loc 1 301 0
 153 002c 354B     		ldr	r3, .L25+12
 154 002e 364A     		ldr	r2, .L25+16
 155 0030 9342     		cmp	r3, r2
 156 0032 0BD2     		bcs	.L7
 157 0034 191D     		adds	r1, r3, #4
 158 0036 0332     		adds	r2, r2, #3
 159 0038 521A     		subs	r2, r2, r1
 160 003a 22F00302 		bic	r2, r2, #3
 161 003e 0A44     		add	r2, r2, r1
 162 0040 4FF05531 		mov	r1, #1431655765
 163              	.LVL4:
 164              	.L8:
 165              		.loc 1 301 0 is_stmt 0 discriminator 3
 166 0044 43F8041B 		str	r1, [r3], #4
 167              	.LVL5:
 168 0048 9342     		cmp	r3, r2
 169 004a FBD1     		bne	.L8
 170              	.LVL6:
 171              	.L7:
ARM GAS  /tmp/ccLifbdL.s 			page 4


 172              	.LBE2:
 173              	.LBB3:
 174              		.loc 1 304 0 is_stmt 1
 175 004c 2F4B     		ldr	r3, .L25+20
 176 004e 8342     		cmp	r3, r0
 177 0050 0BD2     		bcs	.L9
 178 0052 2F4A     		ldr	r2, .L25+24
 179 0054 191D     		adds	r1, r3, #4
 180 0056 521A     		subs	r2, r2, r1
 181 0058 22F00302 		bic	r2, r2, #3
 182 005c 0A44     		add	r2, r2, r1
 183 005e 4FF05531 		mov	r1, #1431655765
 184              	.LVL7:
 185              	.L10:
 186              		.loc 1 304 0 is_stmt 0 discriminator 3
 187 0062 43F8041B 		str	r1, [r3], #4
 188              	.LVL8:
 189 0066 9342     		cmp	r3, r2
 190 0068 FBD1     		bne	.L10
 191              	.LVL9:
 192              	.L9:
 193              	.LBE3:
 194              		.loc 1 310 0 is_stmt 1
 195 006a FFF7FEFF 		bl	__early_init
 196              	.LVL10:
 197              	.LBB4:
 198              		.loc 1 319 0
 199 006e 294B     		ldr	r3, .L25+28
 200 0070 294A     		ldr	r2, .L25+32
 201 0072 9342     		cmp	r3, r2
 202 0074 0CD2     		bcs	.L11
 203 0076 181D     		adds	r0, r3, #4
 204 0078 0332     		adds	r2, r2, #3
 205 007a 121A     		subs	r2, r2, r0
 206 007c 22F00302 		bic	r2, r2, #3
 207              		.loc 1 317 0
 208 0080 2649     		ldr	r1, .L25+36
 209 0082 0244     		add	r2, r2, r0
 210              	.LVL11:
 211              	.L12:
 212              		.loc 1 320 0
 213 0084 51F8040B 		ldr	r0, [r1], #4
 214              	.LVL12:
 215 0088 43F8040B 		str	r0, [r3], #4
 216              	.LVL13:
 217              		.loc 1 319 0
 218 008c 9342     		cmp	r3, r2
 219 008e F9D1     		bne	.L12
 220              	.LVL14:
 221              	.L11:
 222              	.LBE4:
 223              	.LBB5:
 224              		.loc 1 326 0
 225 0090 234B     		ldr	r3, .L25+40
 226 0092 244A     		ldr	r2, .L25+44
 227 0094 9342     		cmp	r3, r2
 228 0096 0AD2     		bcs	.L13
ARM GAS  /tmp/ccLifbdL.s 			page 5


 229 0098 191D     		adds	r1, r3, #4
 230 009a 0332     		adds	r2, r2, #3
 231 009c 521A     		subs	r2, r2, r1
 232 009e 22F00302 		bic	r2, r2, #3
 233 00a2 0A44     		add	r2, r2, r1
 234 00a4 0021     		movs	r1, #0
 235              	.LVL15:
 236              	.L14:
 237              		.loc 1 326 0 is_stmt 0 discriminator 3
 238 00a6 43F8041B 		str	r1, [r3], #4
 239              	.LVL16:
 240 00aa 9342     		cmp	r3, r2
 241 00ac FBD1     		bne	.L14
 242              	.LVL17:
 243              	.L13:
 244              	.LBE5:
 245              		.loc 1 330 0 is_stmt 1
 246 00ae FFF7FEFF 		bl	__late_init
 247              	.LVL18:
 248              	.LBB6:
 249              		.loc 1 336 0
 250 00b2 1D4C     		ldr	r4, .L25+48
 251 00b4 1D4B     		ldr	r3, .L25+52
 252 00b6 9C42     		cmp	r4, r3
 253 00b8 0AD2     		bcs	.L15
 254 00ba E543     		mvns	r5, r4
 255 00bc 1D44     		add	r5, r5, r3
 256 00be 25F00305 		bic	r5, r5, #3
 257 00c2 0435     		adds	r5, r5, #4
 258 00c4 2544     		add	r5, r5, r4
 259              	.LVL19:
 260              	.L16:
 261              		.loc 1 337 0
 262 00c6 54F8043B 		ldr	r3, [r4], #4
 263              	.LVL20:
 264 00ca 9847     		blx	r3
 265              	.LVL21:
 266              		.loc 1 336 0
 267 00cc AC42     		cmp	r4, r5
 268 00ce FAD1     		bne	.L16
 269              	.LVL22:
 270              	.L15:
 271              	.LBE6:
 272              		.loc 1 344 0
 273 00d0 FFF7FEFF 		bl	main
 274              	.LVL23:
 275              	.LBB7:
 276              		.loc 1 350 0
 277 00d4 164C     		ldr	r4, .L25+56
 278 00d6 174B     		ldr	r3, .L25+60
 279 00d8 9C42     		cmp	r4, r3
 280 00da 0AD2     		bcs	.L17
 281 00dc E543     		mvns	r5, r4
 282 00de 1D44     		add	r5, r5, r3
 283 00e0 25F00305 		bic	r5, r5, #3
 284 00e4 0435     		adds	r5, r5, #4
 285 00e6 2544     		add	r5, r5, r4
ARM GAS  /tmp/ccLifbdL.s 			page 6


 286              	.LVL24:
 287              	.L18:
 288              		.loc 1 351 0
 289 00e8 54F8043B 		ldr	r3, [r4], #4
 290              	.LVL25:
 291 00ec 9847     		blx	r3
 292              	.LVL26:
 293              		.loc 1 350 0
 294 00ee A542     		cmp	r5, r4
 295 00f0 FAD1     		bne	.L18
 296              	.LVL27:
 297              	.L17:
 298              	.LBE7:
 299              		.loc 1 358 0
 300 00f2 FFF7FEFF 		bl	_default_exit
 301              	.LVL28:
 302              		.loc 1 359 0
 303              	.L26:
 304 00f6 00BF     		.align	2
 305              	.L25:
 306 00f8 00000000 		.word	__process_stack_end__
 307 00fc 88ED00E0 		.word	-536810104
 308 0100 34EF00E0 		.word	-536809676
 309 0104 00000000 		.word	__main_stack_base__
 310 0108 00000000 		.word	__main_stack_end__
 311 010c 00000000 		.word	__process_stack_base__
 312 0110 03000000 		.word	__process_stack_end__+3
 313 0114 00000000 		.word	_data
 314 0118 00000000 		.word	_edata
 315 011c 00000000 		.word	_textdata
 316 0120 00000000 		.word	_bss_start
 317 0124 00000000 		.word	_bss_end
 318 0128 00000000 		.word	__init_array_start
 319 012c 00000000 		.word	__init_array_end
 320 0130 00000000 		.word	__fini_array_start
 321 0134 00000000 		.word	__fini_array_end
 322              		.cfi_endproc
 323              	.LFE3:
 324              		.size	ResetHandler, .-ResetHandler
 325              		.text
 326              	.Letext0:
 327              		.file 2 "/usr/arm-none-eabi/include/machine/_default_types.h"
 328              		.file 3 "/usr/arm-none-eabi/include/sys/_stdint.h"
 329              		.section	.debug_info,"",%progbits
 330              	.Ldebug_info0:
 331 0000 BA020000 		.4byte	0x2ba
 332 0004 0400     		.2byte	0x4
 333 0006 00000000 		.4byte	.Ldebug_abbrev0
 334 000a 04       		.byte	0x4
 335 000b 01       		.uleb128 0x1
 336 000c 15010000 		.4byte	.LASF28
 337 0010 0C       		.byte	0xc
 338 0011 C2000000 		.4byte	.LASF29
 339 0015 A8020000 		.4byte	.LASF30
 340 0019 00000000 		.4byte	.Ldebug_ranges0+0
 341 001d 00000000 		.4byte	0
 342 0021 00000000 		.4byte	.Ldebug_line0
ARM GAS  /tmp/ccLifbdL.s 			page 7


 343 0025 02       		.uleb128 0x2
 344 0026 01       		.byte	0x1
 345 0027 06       		.byte	0x6
 346 0028 E1020000 		.4byte	.LASF0
 347 002c 03       		.uleb128 0x3
 348 002d 0B000000 		.4byte	.LASF5
 349 0031 02       		.byte	0x2
 350 0032 2B       		.byte	0x2b
 351 0033 37000000 		.4byte	0x37
 352 0037 02       		.uleb128 0x2
 353 0038 01       		.byte	0x1
 354 0039 08       		.byte	0x8
 355 003a 68000000 		.4byte	.LASF1
 356 003e 02       		.uleb128 0x2
 357 003f 02       		.byte	0x2
 358 0040 05       		.byte	0x5
 359 0041 8A020000 		.4byte	.LASF2
 360 0045 02       		.uleb128 0x2
 361 0046 02       		.byte	0x2
 362 0047 07       		.byte	0x7
 363 0048 9C000000 		.4byte	.LASF3
 364 004c 02       		.uleb128 0x2
 365 004d 04       		.byte	0x4
 366 004e 05       		.byte	0x5
 367 004f D2020000 		.4byte	.LASF4
 368 0053 03       		.uleb128 0x3
 369 0054 05010000 		.4byte	.LASF6
 370 0058 02       		.byte	0x2
 371 0059 4F       		.byte	0x4f
 372 005a 5E000000 		.4byte	0x5e
 373 005e 02       		.uleb128 0x2
 374 005f 04       		.byte	0x4
 375 0060 07       		.byte	0x7
 376 0061 7D000000 		.4byte	.LASF7
 377 0065 02       		.uleb128 0x2
 378 0066 08       		.byte	0x8
 379 0067 05       		.byte	0x5
 380 0068 7C020000 		.4byte	.LASF8
 381 006c 02       		.uleb128 0x2
 382 006d 08       		.byte	0x8
 383 006e 07       		.byte	0x7
 384 006f 46020000 		.4byte	.LASF9
 385 0073 04       		.uleb128 0x4
 386 0074 04       		.byte	0x4
 387 0075 05       		.byte	0x5
 388 0076 696E7400 		.ascii	"int\000"
 389 007a 02       		.uleb128 0x2
 390 007b 04       		.byte	0x4
 391 007c 07       		.byte	0x7
 392 007d 39020000 		.4byte	.LASF10
 393 0081 03       		.uleb128 0x3
 394 0082 5D020000 		.4byte	.LASF11
 395 0086 03       		.byte	0x3
 396 0087 18       		.byte	0x18
 397 0088 2C000000 		.4byte	0x2c
 398 008c 03       		.uleb128 0x3
 399 008d C9020000 		.4byte	.LASF12
ARM GAS  /tmp/ccLifbdL.s 			page 8


 400 0091 03       		.byte	0x3
 401 0092 30       		.byte	0x30
 402 0093 53000000 		.4byte	0x53
 403 0097 03       		.uleb128 0x3
 404 0098 A0020000 		.4byte	.LASF13
 405 009c 01       		.byte	0x1
 406 009d 34       		.byte	0x34
 407 009e A2000000 		.4byte	0xa2
 408 00a2 05       		.uleb128 0x5
 409 00a3 04       		.byte	0x4
 410 00a4 A8000000 		.4byte	0xa8
 411 00a8 06       		.uleb128 0x6
 412 00a9 03       		.uleb128 0x3
 413 00aa 51000000 		.4byte	.LASF14
 414 00ae 01       		.byte	0x1
 415 00af 35       		.byte	0x35
 416 00b0 B4000000 		.4byte	0xb4
 417 00b4 05       		.uleb128 0x5
 418 00b5 04       		.byte	0x4
 419 00b6 97000000 		.4byte	0x97
 420 00ba 07       		.uleb128 0x7
 421 00bb 26000000 		.4byte	.LASF15
 422 00bf 01       		.byte	0x1
 423 00c0 8B       		.byte	0x8b
 424 00c1 8C000000 		.4byte	0x8c
 425 00c5 07       		.uleb128 0x7
 426 00c6 16030000 		.4byte	.LASF16
 427 00ca 01       		.byte	0x1
 428 00cb 93       		.byte	0x93
 429 00cc 8C000000 		.4byte	0x8c
 430 00d0 07       		.uleb128 0x7
 431 00d1 3A000000 		.4byte	.LASF17
 432 00d5 01       		.byte	0x1
 433 00d6 9A       		.byte	0x9a
 434 00d7 8C000000 		.4byte	0x8c
 435 00db 07       		.uleb128 0x7
 436 00dc ED020000 		.4byte	.LASF18
 437 00e0 01       		.byte	0x1
 438 00e1 A1       		.byte	0xa1
 439 00e2 8C000000 		.4byte	0x8c
 440 00e6 07       		.uleb128 0x7
 441 00e7 65020000 		.4byte	.LASF19
 442 00eb 01       		.byte	0x1
 443 00ec A7       		.byte	0xa7
 444 00ed 8C000000 		.4byte	0x8c
 445 00f1 07       		.uleb128 0x7
 446 00f2 DB020000 		.4byte	.LASF20
 447 00f6 01       		.byte	0x1
 448 00f7 AD       		.byte	0xad
 449 00f8 8C000000 		.4byte	0x8c
 450 00fc 07       		.uleb128 0x7
 451 00fd 76000000 		.4byte	.LASF21
 452 0101 01       		.byte	0x1
 453 0102 B3       		.byte	0xb3
 454 0103 8C000000 		.4byte	0x8c
 455 0107 07       		.uleb128 0x7
 456 0108 00000000 		.4byte	.LASF22
ARM GAS  /tmp/ccLifbdL.s 			page 9


 457 010c 01       		.byte	0x1
 458 010d B9       		.byte	0xb9
 459 010e 8C000000 		.4byte	0x8c
 460 0112 07       		.uleb128 0x7
 461 0113 EB000000 		.4byte	.LASF23
 462 0117 01       		.byte	0x1
 463 0118 BF       		.byte	0xbf
 464 0119 8C000000 		.4byte	0x8c
 465 011d 07       		.uleb128 0x7
 466 011e 03030000 		.4byte	.LASF24
 467 0122 01       		.byte	0x1
 468 0123 C5       		.byte	0xc5
 469 0124 97000000 		.4byte	0x97
 470 0128 07       		.uleb128 0x7
 471 0129 F4000000 		.4byte	.LASF25
 472 012d 01       		.byte	0x1
 473 012e CB       		.byte	0xcb
 474 012f 97000000 		.4byte	0x97
 475 0133 07       		.uleb128 0x7
 476 0134 AF000000 		.4byte	.LASF26
 477 0138 01       		.byte	0x1
 478 0139 D1       		.byte	0xd1
 479 013a 97000000 		.4byte	0x97
 480 013e 07       		.uleb128 0x7
 481 013f 15000000 		.4byte	.LASF27
 482 0143 01       		.byte	0x1
 483 0144 D7       		.byte	0xd7
 484 0145 97000000 		.4byte	0x97
 485 0149 08       		.uleb128 0x8
 486 014a 8F000000 		.4byte	.LASF31
 487 014e 01       		.byte	0x1
 488 014f 0C01     		.2byte	0x10c
 489 0151 00000000 		.4byte	.LFB3
 490 0155 38010000 		.4byte	.LFE3-.LFB3
 491 0159 01       		.uleb128 0x1
 492 015a 9C       		.byte	0x9c
 493 015b 7C020000 		.4byte	0x27c
 494 015f 09       		.uleb128 0x9
 495 0160 70737000 		.ascii	"psp\000"
 496 0164 01       		.byte	0x1
 497 0165 0D01     		.2byte	0x10d
 498 0167 8C000000 		.4byte	0x8c
 499 016b 0A       		.uleb128 0xa
 500 016c 72656700 		.ascii	"reg\000"
 501 0170 01       		.byte	0x1
 502 0171 0D01     		.2byte	0x10d
 503 0173 8C000000 		.4byte	0x8c
 504 0177 00000000 		.4byte	.LLST0
 505 017b 0B       		.uleb128 0xb
 506 017c 2C000000 		.4byte	.LBB2
 507 0180 20000000 		.4byte	.LBE2-.LBB2
 508 0184 A3010000 		.4byte	0x1a3
 509 0188 0A       		.uleb128 0xa
 510 0189 703100   		.ascii	"p1\000"
 511 018c 01       		.byte	0x1
 512 018d 2D01     		.2byte	0x12d
 513 018f 7C020000 		.4byte	0x27c
ARM GAS  /tmp/ccLifbdL.s 			page 10


 514 0193 20000000 		.4byte	.LLST1
 515 0197 09       		.uleb128 0x9
 516 0198 703200   		.ascii	"p2\000"
 517 019b 01       		.byte	0x1
 518 019c 2D01     		.2byte	0x12d
 519 019e 7C020000 		.4byte	0x27c
 520 01a2 00       		.byte	0
 521 01a3 0B       		.uleb128 0xb
 522 01a4 4C000000 		.4byte	.LBB3
 523 01a8 1E000000 		.4byte	.LBE3-.LBB3
 524 01ac CB010000 		.4byte	0x1cb
 525 01b0 0A       		.uleb128 0xa
 526 01b1 703100   		.ascii	"p1\000"
 527 01b4 01       		.byte	0x1
 528 01b5 3001     		.2byte	0x130
 529 01b7 7C020000 		.4byte	0x27c
 530 01bb 40000000 		.4byte	.LLST2
 531 01bf 09       		.uleb128 0x9
 532 01c0 703200   		.ascii	"p2\000"
 533 01c3 01       		.byte	0x1
 534 01c4 3001     		.2byte	0x130
 535 01c6 7C020000 		.4byte	0x27c
 536 01ca 00       		.byte	0
 537 01cb 0B       		.uleb128 0xb
 538 01cc 6E000000 		.4byte	.LBB4
 539 01d0 22000000 		.4byte	.LBE4-.LBB4
 540 01d4 F3010000 		.4byte	0x1f3
 541 01d8 0A       		.uleb128 0xa
 542 01d9 747000   		.ascii	"tp\000"
 543 01dc 01       		.byte	0x1
 544 01dd 3B01     		.2byte	0x13b
 545 01df 7C020000 		.4byte	0x27c
 546 01e3 60000000 		.4byte	.LLST3
 547 01e7 09       		.uleb128 0x9
 548 01e8 647000   		.ascii	"dp\000"
 549 01eb 01       		.byte	0x1
 550 01ec 3B01     		.2byte	0x13b
 551 01ee 7C020000 		.4byte	0x27c
 552 01f2 00       		.byte	0
 553 01f3 0B       		.uleb128 0xb
 554 01f4 90000000 		.4byte	.LBB5
 555 01f8 1E000000 		.4byte	.LBE5-.LBB5
 556 01fc 1B020000 		.4byte	0x21b
 557 0200 0A       		.uleb128 0xa
 558 0201 703100   		.ascii	"p1\000"
 559 0204 01       		.byte	0x1
 560 0205 4601     		.2byte	0x146
 561 0207 7C020000 		.4byte	0x27c
 562 020b 8B000000 		.4byte	.LLST4
 563 020f 09       		.uleb128 0x9
 564 0210 703200   		.ascii	"p2\000"
 565 0213 01       		.byte	0x1
 566 0214 4601     		.2byte	0x146
 567 0216 7C020000 		.4byte	0x27c
 568 021a 00       		.byte	0
 569 021b 0B       		.uleb128 0xb
 570 021c B2000000 		.4byte	.LBB6
ARM GAS  /tmp/ccLifbdL.s 			page 11


 571 0220 1E000000 		.4byte	.LBE6-.LBB6
 572 0224 39020000 		.4byte	0x239
 573 0228 0A       		.uleb128 0xa
 574 0229 66707000 		.ascii	"fpp\000"
 575 022d 01       		.byte	0x1
 576 022e 4F01     		.2byte	0x14f
 577 0230 A9000000 		.4byte	0xa9
 578 0234 AB000000 		.4byte	.LLST5
 579 0238 00       		.byte	0
 580 0239 0B       		.uleb128 0xb
 581 023a D4000000 		.4byte	.LBB7
 582 023e 1E000000 		.4byte	.LBE7-.LBB7
 583 0242 57020000 		.4byte	0x257
 584 0246 0A       		.uleb128 0xa
 585 0247 66707000 		.ascii	"fpp\000"
 586 024b 01       		.byte	0x1
 587 024c 5D01     		.2byte	0x15d
 588 024e A9000000 		.4byte	0xa9
 589 0252 D6000000 		.4byte	.LLST6
 590 0256 00       		.byte	0
 591 0257 0C       		.uleb128 0xc
 592 0258 6E000000 		.4byte	.LVL10
 593 025c 9B020000 		.4byte	0x29b
 594 0260 0C       		.uleb128 0xc
 595 0261 B2000000 		.4byte	.LVL18
 596 0265 94020000 		.4byte	0x294
 597 0269 0C       		.uleb128 0xc
 598 026a D4000000 		.4byte	.LVL23
 599 026e B2020000 		.4byte	0x2b2
 600 0272 0C       		.uleb128 0xc
 601 0273 F6000000 		.4byte	.LVL28
 602 0277 82020000 		.4byte	0x282
 603 027b 00       		.byte	0
 604 027c 05       		.uleb128 0x5
 605 027d 04       		.byte	0x4
 606 027e 8C000000 		.4byte	0x8c
 607 0282 0D       		.uleb128 0xd
 608 0283 5A000000 		.4byte	.LASF32
 609 0287 01       		.byte	0x1
 610 0288 0101     		.2byte	0x101
 611 028a 00000000 		.4byte	.LFB2
 612 028e 02000000 		.4byte	.LFE2-.LFB2
 613 0292 01       		.uleb128 0x1
 614 0293 9C       		.byte	0x9c
 615 0294 0E       		.uleb128 0xe
 616 0295 94020000 		.4byte	.LASF33
 617 0299 01       		.byte	0x1
 618 029a F6       		.byte	0xf6
 619 029b 0F       		.uleb128 0xf
 620 029c 6F020000 		.4byte	.LASF34
 621 02a0 01       		.byte	0x1
 622 02a1 EA       		.byte	0xea
 623 02a2 01       		.byte	0x1
 624 02a3 10       		.uleb128 0x10
 625 02a4 9B020000 		.4byte	0x29b
 626 02a8 00000000 		.4byte	.LFB0
 627 02ac 02000000 		.4byte	.LFE0-.LFB0
ARM GAS  /tmp/ccLifbdL.s 			page 12


 628 02b0 01       		.uleb128 0x1
 629 02b1 9C       		.byte	0x9c
 630 02b2 11       		.uleb128 0x11
 631 02b3 10010000 		.4byte	.LASF35
 632 02b7 10010000 		.4byte	.LASF35
 633 02bb 01       		.byte	0x1
 634 02bc DE       		.byte	0xde
 635 02bd 00       		.byte	0
 636              		.section	.debug_abbrev,"",%progbits
 637              	.Ldebug_abbrev0:
 638 0000 01       		.uleb128 0x1
 639 0001 11       		.uleb128 0x11
 640 0002 01       		.byte	0x1
 641 0003 25       		.uleb128 0x25
 642 0004 0E       		.uleb128 0xe
 643 0005 13       		.uleb128 0x13
 644 0006 0B       		.uleb128 0xb
 645 0007 03       		.uleb128 0x3
 646 0008 0E       		.uleb128 0xe
 647 0009 1B       		.uleb128 0x1b
 648 000a 0E       		.uleb128 0xe
 649 000b 55       		.uleb128 0x55
 650 000c 17       		.uleb128 0x17
 651 000d 11       		.uleb128 0x11
 652 000e 01       		.uleb128 0x1
 653 000f 10       		.uleb128 0x10
 654 0010 17       		.uleb128 0x17
 655 0011 00       		.byte	0
 656 0012 00       		.byte	0
 657 0013 02       		.uleb128 0x2
 658 0014 24       		.uleb128 0x24
 659 0015 00       		.byte	0
 660 0016 0B       		.uleb128 0xb
 661 0017 0B       		.uleb128 0xb
 662 0018 3E       		.uleb128 0x3e
 663 0019 0B       		.uleb128 0xb
 664 001a 03       		.uleb128 0x3
 665 001b 0E       		.uleb128 0xe
 666 001c 00       		.byte	0
 667 001d 00       		.byte	0
 668 001e 03       		.uleb128 0x3
 669 001f 16       		.uleb128 0x16
 670 0020 00       		.byte	0
 671 0021 03       		.uleb128 0x3
 672 0022 0E       		.uleb128 0xe
 673 0023 3A       		.uleb128 0x3a
 674 0024 0B       		.uleb128 0xb
 675 0025 3B       		.uleb128 0x3b
 676 0026 0B       		.uleb128 0xb
 677 0027 49       		.uleb128 0x49
 678 0028 13       		.uleb128 0x13
 679 0029 00       		.byte	0
 680 002a 00       		.byte	0
 681 002b 04       		.uleb128 0x4
 682 002c 24       		.uleb128 0x24
 683 002d 00       		.byte	0
 684 002e 0B       		.uleb128 0xb
ARM GAS  /tmp/ccLifbdL.s 			page 13


 685 002f 0B       		.uleb128 0xb
 686 0030 3E       		.uleb128 0x3e
 687 0031 0B       		.uleb128 0xb
 688 0032 03       		.uleb128 0x3
 689 0033 08       		.uleb128 0x8
 690 0034 00       		.byte	0
 691 0035 00       		.byte	0
 692 0036 05       		.uleb128 0x5
 693 0037 0F       		.uleb128 0xf
 694 0038 00       		.byte	0
 695 0039 0B       		.uleb128 0xb
 696 003a 0B       		.uleb128 0xb
 697 003b 49       		.uleb128 0x49
 698 003c 13       		.uleb128 0x13
 699 003d 00       		.byte	0
 700 003e 00       		.byte	0
 701 003f 06       		.uleb128 0x6
 702 0040 15       		.uleb128 0x15
 703 0041 00       		.byte	0
 704 0042 27       		.uleb128 0x27
 705 0043 19       		.uleb128 0x19
 706 0044 00       		.byte	0
 707 0045 00       		.byte	0
 708 0046 07       		.uleb128 0x7
 709 0047 34       		.uleb128 0x34
 710 0048 00       		.byte	0
 711 0049 03       		.uleb128 0x3
 712 004a 0E       		.uleb128 0xe
 713 004b 3A       		.uleb128 0x3a
 714 004c 0B       		.uleb128 0xb
 715 004d 3B       		.uleb128 0x3b
 716 004e 0B       		.uleb128 0xb
 717 004f 49       		.uleb128 0x49
 718 0050 13       		.uleb128 0x13
 719 0051 3F       		.uleb128 0x3f
 720 0052 19       		.uleb128 0x19
 721 0053 3C       		.uleb128 0x3c
 722 0054 19       		.uleb128 0x19
 723 0055 00       		.byte	0
 724 0056 00       		.byte	0
 725 0057 08       		.uleb128 0x8
 726 0058 2E       		.uleb128 0x2e
 727 0059 01       		.byte	0x1
 728 005a 3F       		.uleb128 0x3f
 729 005b 19       		.uleb128 0x19
 730 005c 03       		.uleb128 0x3
 731 005d 0E       		.uleb128 0xe
 732 005e 3A       		.uleb128 0x3a
 733 005f 0B       		.uleb128 0xb
 734 0060 3B       		.uleb128 0x3b
 735 0061 05       		.uleb128 0x5
 736 0062 27       		.uleb128 0x27
 737 0063 19       		.uleb128 0x19
 738 0064 11       		.uleb128 0x11
 739 0065 01       		.uleb128 0x1
 740 0066 12       		.uleb128 0x12
 741 0067 06       		.uleb128 0x6
ARM GAS  /tmp/ccLifbdL.s 			page 14


 742 0068 40       		.uleb128 0x40
 743 0069 18       		.uleb128 0x18
 744 006a 9642     		.uleb128 0x2116
 745 006c 19       		.uleb128 0x19
 746 006d 01       		.uleb128 0x1
 747 006e 13       		.uleb128 0x13
 748 006f 00       		.byte	0
 749 0070 00       		.byte	0
 750 0071 09       		.uleb128 0x9
 751 0072 34       		.uleb128 0x34
 752 0073 00       		.byte	0
 753 0074 03       		.uleb128 0x3
 754 0075 08       		.uleb128 0x8
 755 0076 3A       		.uleb128 0x3a
 756 0077 0B       		.uleb128 0xb
 757 0078 3B       		.uleb128 0x3b
 758 0079 05       		.uleb128 0x5
 759 007a 49       		.uleb128 0x49
 760 007b 13       		.uleb128 0x13
 761 007c 00       		.byte	0
 762 007d 00       		.byte	0
 763 007e 0A       		.uleb128 0xa
 764 007f 34       		.uleb128 0x34
 765 0080 00       		.byte	0
 766 0081 03       		.uleb128 0x3
 767 0082 08       		.uleb128 0x8
 768 0083 3A       		.uleb128 0x3a
 769 0084 0B       		.uleb128 0xb
 770 0085 3B       		.uleb128 0x3b
 771 0086 05       		.uleb128 0x5
 772 0087 49       		.uleb128 0x49
 773 0088 13       		.uleb128 0x13
 774 0089 02       		.uleb128 0x2
 775 008a 17       		.uleb128 0x17
 776 008b 00       		.byte	0
 777 008c 00       		.byte	0
 778 008d 0B       		.uleb128 0xb
 779 008e 0B       		.uleb128 0xb
 780 008f 01       		.byte	0x1
 781 0090 11       		.uleb128 0x11
 782 0091 01       		.uleb128 0x1
 783 0092 12       		.uleb128 0x12
 784 0093 06       		.uleb128 0x6
 785 0094 01       		.uleb128 0x1
 786 0095 13       		.uleb128 0x13
 787 0096 00       		.byte	0
 788 0097 00       		.byte	0
 789 0098 0C       		.uleb128 0xc
 790 0099 898201   		.uleb128 0x4109
 791 009c 00       		.byte	0
 792 009d 11       		.uleb128 0x11
 793 009e 01       		.uleb128 0x1
 794 009f 31       		.uleb128 0x31
 795 00a0 13       		.uleb128 0x13
 796 00a1 00       		.byte	0
 797 00a2 00       		.byte	0
 798 00a3 0D       		.uleb128 0xd
ARM GAS  /tmp/ccLifbdL.s 			page 15


 799 00a4 2E       		.uleb128 0x2e
 800 00a5 00       		.byte	0
 801 00a6 3F       		.uleb128 0x3f
 802 00a7 19       		.uleb128 0x19
 803 00a8 03       		.uleb128 0x3
 804 00a9 0E       		.uleb128 0xe
 805 00aa 3A       		.uleb128 0x3a
 806 00ab 0B       		.uleb128 0xb
 807 00ac 3B       		.uleb128 0x3b
 808 00ad 05       		.uleb128 0x5
 809 00ae 27       		.uleb128 0x27
 810 00af 19       		.uleb128 0x19
 811 00b0 11       		.uleb128 0x11
 812 00b1 01       		.uleb128 0x1
 813 00b2 12       		.uleb128 0x12
 814 00b3 06       		.uleb128 0x6
 815 00b4 40       		.uleb128 0x40
 816 00b5 18       		.uleb128 0x18
 817 00b6 9742     		.uleb128 0x2117
 818 00b8 19       		.uleb128 0x19
 819 00b9 00       		.byte	0
 820 00ba 00       		.byte	0
 821 00bb 0E       		.uleb128 0xe
 822 00bc 2E       		.uleb128 0x2e
 823 00bd 00       		.byte	0
 824 00be 3F       		.uleb128 0x3f
 825 00bf 19       		.uleb128 0x19
 826 00c0 03       		.uleb128 0x3
 827 00c1 0E       		.uleb128 0xe
 828 00c2 3A       		.uleb128 0x3a
 829 00c3 0B       		.uleb128 0xb
 830 00c4 3B       		.uleb128 0x3b
 831 00c5 0B       		.uleb128 0xb
 832 00c6 27       		.uleb128 0x27
 833 00c7 19       		.uleb128 0x19
 834 00c8 00       		.byte	0
 835 00c9 00       		.byte	0
 836 00ca 0F       		.uleb128 0xf
 837 00cb 2E       		.uleb128 0x2e
 838 00cc 00       		.byte	0
 839 00cd 3F       		.uleb128 0x3f
 840 00ce 19       		.uleb128 0x19
 841 00cf 03       		.uleb128 0x3
 842 00d0 0E       		.uleb128 0xe
 843 00d1 3A       		.uleb128 0x3a
 844 00d2 0B       		.uleb128 0xb
 845 00d3 3B       		.uleb128 0x3b
 846 00d4 0B       		.uleb128 0xb
 847 00d5 27       		.uleb128 0x27
 848 00d6 19       		.uleb128 0x19
 849 00d7 20       		.uleb128 0x20
 850 00d8 0B       		.uleb128 0xb
 851 00d9 00       		.byte	0
 852 00da 00       		.byte	0
 853 00db 10       		.uleb128 0x10
 854 00dc 2E       		.uleb128 0x2e
 855 00dd 00       		.byte	0
ARM GAS  /tmp/ccLifbdL.s 			page 16


 856 00de 31       		.uleb128 0x31
 857 00df 13       		.uleb128 0x13
 858 00e0 11       		.uleb128 0x11
 859 00e1 01       		.uleb128 0x1
 860 00e2 12       		.uleb128 0x12
 861 00e3 06       		.uleb128 0x6
 862 00e4 40       		.uleb128 0x40
 863 00e5 18       		.uleb128 0x18
 864 00e6 9742     		.uleb128 0x2117
 865 00e8 19       		.uleb128 0x19
 866 00e9 00       		.byte	0
 867 00ea 00       		.byte	0
 868 00eb 11       		.uleb128 0x11
 869 00ec 2E       		.uleb128 0x2e
 870 00ed 00       		.byte	0
 871 00ee 3F       		.uleb128 0x3f
 872 00ef 19       		.uleb128 0x19
 873 00f0 3C       		.uleb128 0x3c
 874 00f1 19       		.uleb128 0x19
 875 00f2 6E       		.uleb128 0x6e
 876 00f3 0E       		.uleb128 0xe
 877 00f4 03       		.uleb128 0x3
 878 00f5 0E       		.uleb128 0xe
 879 00f6 3A       		.uleb128 0x3a
 880 00f7 0B       		.uleb128 0xb
 881 00f8 3B       		.uleb128 0x3b
 882 00f9 0B       		.uleb128 0xb
 883 00fa 00       		.byte	0
 884 00fb 00       		.byte	0
 885 00fc 00       		.byte	0
 886              		.section	.debug_loc,"",%progbits
 887              	.Ldebug_loc0:
 888              	.LLST0:
 889 0000 18000000 		.4byte	.LVL1
 890 0004 24000000 		.4byte	.LVL2
 891 0008 0200     		.2byte	0x2
 892 000a 30       		.byte	0x30
 893 000b 9F       		.byte	0x9f
 894 000c 24000000 		.4byte	.LVL2
 895 0010 38010000 		.4byte	.LFE3
 896 0014 0200     		.2byte	0x2
 897 0016 36       		.byte	0x36
 898 0017 9F       		.byte	0x9f
 899 0018 00000000 		.4byte	0
 900 001c 00000000 		.4byte	0
 901              	.LLST1:
 902 0020 44000000 		.4byte	.LVL4
 903 0024 48000000 		.4byte	.LVL5
 904 0028 0300     		.2byte	0x3
 905 002a 73       		.byte	0x73
 906 002b 04       		.sleb128 4
 907 002c 9F       		.byte	0x9f
 908 002d 48000000 		.4byte	.LVL5
 909 0031 4C000000 		.4byte	.LVL6
 910 0035 0100     		.2byte	0x1
 911 0037 53       		.byte	0x53
 912 0038 00000000 		.4byte	0
ARM GAS  /tmp/ccLifbdL.s 			page 17


 913 003c 00000000 		.4byte	0
 914              	.LLST2:
 915 0040 62000000 		.4byte	.LVL7
 916 0044 66000000 		.4byte	.LVL8
 917 0048 0300     		.2byte	0x3
 918 004a 73       		.byte	0x73
 919 004b 04       		.sleb128 4
 920 004c 9F       		.byte	0x9f
 921 004d 66000000 		.4byte	.LVL8
 922 0051 6A000000 		.4byte	.LVL9
 923 0055 0100     		.2byte	0x1
 924 0057 53       		.byte	0x53
 925 0058 00000000 		.4byte	0
 926 005c 00000000 		.4byte	0
 927              	.LLST3:
 928 0060 84000000 		.4byte	.LVL11
 929 0064 88000000 		.4byte	.LVL12
 930 0068 0100     		.2byte	0x1
 931 006a 51       		.byte	0x51
 932 006b 88000000 		.4byte	.LVL12
 933 006f 8C000000 		.4byte	.LVL13
 934 0073 0300     		.2byte	0x3
 935 0075 71       		.byte	0x71
 936 0076 7C       		.sleb128 -4
 937 0077 9F       		.byte	0x9f
 938 0078 8C000000 		.4byte	.LVL13
 939 007c 90000000 		.4byte	.LVL14
 940 0080 0100     		.2byte	0x1
 941 0082 51       		.byte	0x51
 942 0083 00000000 		.4byte	0
 943 0087 00000000 		.4byte	0
 944              	.LLST4:
 945 008b A6000000 		.4byte	.LVL15
 946 008f AA000000 		.4byte	.LVL16
 947 0093 0300     		.2byte	0x3
 948 0095 73       		.byte	0x73
 949 0096 04       		.sleb128 4
 950 0097 9F       		.byte	0x9f
 951 0098 AA000000 		.4byte	.LVL16
 952 009c AE000000 		.4byte	.LVL17
 953 00a0 0100     		.2byte	0x1
 954 00a2 53       		.byte	0x53
 955 00a3 00000000 		.4byte	0
 956 00a7 00000000 		.4byte	0
 957              	.LLST5:
 958 00ab C6000000 		.4byte	.LVL19
 959 00af CA000000 		.4byte	.LVL20
 960 00b3 0100     		.2byte	0x1
 961 00b5 54       		.byte	0x54
 962 00b6 CA000000 		.4byte	.LVL20
 963 00ba CC000000 		.4byte	.LVL21
 964 00be 0300     		.2byte	0x3
 965 00c0 74       		.byte	0x74
 966 00c1 7C       		.sleb128 -4
 967 00c2 9F       		.byte	0x9f
 968 00c3 CC000000 		.4byte	.LVL21
 969 00c7 D0000000 		.4byte	.LVL22
ARM GAS  /tmp/ccLifbdL.s 			page 18


 970 00cb 0100     		.2byte	0x1
 971 00cd 54       		.byte	0x54
 972 00ce 00000000 		.4byte	0
 973 00d2 00000000 		.4byte	0
 974              	.LLST6:
 975 00d6 E8000000 		.4byte	.LVL24
 976 00da EC000000 		.4byte	.LVL25
 977 00de 0100     		.2byte	0x1
 978 00e0 54       		.byte	0x54
 979 00e1 EC000000 		.4byte	.LVL25
 980 00e5 EE000000 		.4byte	.LVL26
 981 00e9 0300     		.2byte	0x3
 982 00eb 74       		.byte	0x74
 983 00ec 7C       		.sleb128 -4
 984 00ed 9F       		.byte	0x9f
 985 00ee EE000000 		.4byte	.LVL26
 986 00f2 F2000000 		.4byte	.LVL27
 987 00f6 0100     		.2byte	0x1
 988 00f8 54       		.byte	0x54
 989 00f9 00000000 		.4byte	0
 990 00fd 00000000 		.4byte	0
 991              		.section	.debug_aranges,"",%progbits
 992 0000 2C000000 		.4byte	0x2c
 993 0004 0200     		.2byte	0x2
 994 0006 00000000 		.4byte	.Ldebug_info0
 995 000a 04       		.byte	0x4
 996 000b 00       		.byte	0
 997 000c 0000     		.2byte	0
 998 000e 0000     		.2byte	0
 999 0010 00000000 		.4byte	.LFB0
 1000 0014 02000000 		.4byte	.LFE0-.LFB0
 1001 0018 00000000 		.4byte	.LFB2
 1002 001c 02000000 		.4byte	.LFE2-.LFB2
 1003 0020 00000000 		.4byte	.LFB3
 1004 0024 38010000 		.4byte	.LFE3-.LFB3
 1005 0028 00000000 		.4byte	0
 1006 002c 00000000 		.4byte	0
 1007              		.section	.debug_ranges,"",%progbits
 1008              	.Ldebug_ranges0:
 1009 0000 00000000 		.4byte	.LFB0
 1010 0004 02000000 		.4byte	.LFE0
 1011 0008 00000000 		.4byte	.LFB2
 1012 000c 02000000 		.4byte	.LFE2
 1013 0010 00000000 		.4byte	.LFB3
 1014 0014 38010000 		.4byte	.LFE3
 1015 0018 00000000 		.4byte	0
 1016 001c 00000000 		.4byte	0
 1017              		.section	.debug_line,"",%progbits
 1018              	.Ldebug_line0:
 1019 0000 13010000 		.section	.debug_str,"MS",%progbits,1
 1019      0200A200 
 1019      00000201 
 1019      FB0E0D00 
 1019      01010101 
 1020              	.LASF22:
 1021 0000 5F627373 		.ascii	"_bss_start\000"
 1021      5F737461 
ARM GAS  /tmp/ccLifbdL.s 			page 19


 1021      727400
 1022              	.LASF5:
 1023 000b 5F5F7569 		.ascii	"__uint8_t\000"
 1023      6E74385F 
 1023      7400
 1024              	.LASF27:
 1025 0015 5F5F6669 		.ascii	"__fini_array_end\000"
 1025      6E695F61 
 1025      72726179 
 1025      5F656E64 
 1025      00
 1026              	.LASF15:
 1027 0026 5F5F6D61 		.ascii	"__main_stack_base__\000"
 1027      696E5F73 
 1027      7461636B 
 1027      5F626173 
 1027      655F5F00 
 1028              	.LASF17:
 1029 003a 5F5F7072 		.ascii	"__process_stack_base__\000"
 1029      6F636573 
 1029      735F7374 
 1029      61636B5F 
 1029      62617365 
 1030              	.LASF14:
 1031 0051 66756E63 		.ascii	"funcpp_t\000"
 1031      70705F74 
 1031      00
 1032              	.LASF32:
 1033 005a 5F646566 		.ascii	"_default_exit\000"
 1033      61756C74 
 1033      5F657869 
 1033      7400
 1034              	.LASF1:
 1035 0068 756E7369 		.ascii	"unsigned char\000"
 1035      676E6564 
 1035      20636861 
 1035      7200
 1036              	.LASF21:
 1037 0076 5F656461 		.ascii	"_edata\000"
 1037      746100
 1038              	.LASF7:
 1039 007d 6C6F6E67 		.ascii	"long unsigned int\000"
 1039      20756E73 
 1039      69676E65 
 1039      6420696E 
 1039      7400
 1040              	.LASF31:
 1041 008f 52657365 		.ascii	"ResetHandler\000"
 1041      7448616E 
 1041      646C6572 
 1041      00
 1042              	.LASF3:
 1043 009c 73686F72 		.ascii	"short unsigned int\000"
 1043      7420756E 
 1043      7369676E 
 1043      65642069 
 1043      6E7400
ARM GAS  /tmp/ccLifbdL.s 			page 20


 1044              	.LASF26:
 1045 00af 5F5F6669 		.ascii	"__fini_array_start\000"
 1045      6E695F61 
 1045      72726179 
 1045      5F737461 
 1045      727400
 1046              	.LASF29:
 1047 00c2 43686962 		.ascii	"ChibiOS_2.6.6/os/ports/GCC/ARMCMx/crt0.c\000"
 1047      694F535F 
 1047      322E362E 
 1047      362F6F73 
 1047      2F706F72 
 1048              	.LASF23:
 1049 00eb 5F627373 		.ascii	"_bss_end\000"
 1049      5F656E64 
 1049      00
 1050              	.LASF25:
 1051 00f4 5F5F696E 		.ascii	"__init_array_end\000"
 1051      69745F61 
 1051      72726179 
 1051      5F656E64 
 1051      00
 1052              	.LASF6:
 1053 0105 5F5F7569 		.ascii	"__uint32_t\000"
 1053      6E743332 
 1053      5F7400
 1054              	.LASF35:
 1055 0110 6D61696E 		.ascii	"main\000"
 1055      00
 1056              	.LASF28:
 1057 0115 474E5520 		.ascii	"GNU C99 7.3.1 20180622 (release) [ARM/embedded-7-br"
 1057      43393920 
 1057      372E332E 
 1057      31203230 
 1057      31383036 
 1058 0148 616E6368 		.ascii	"anch revision 261907] -mcpu=cortex-m4 -mfloat-abi=h"
 1058      20726576 
 1058      6973696F 
 1058      6E203236 
 1058      31393037 
 1059 017b 61726420 		.ascii	"ard -mfpu=fpv4-sp-d16 -mno-thumb-interwork -mthumb "
 1059      2D6D6670 
 1059      753D6670 
 1059      76342D73 
 1059      702D6431 
 1060 01ae 2D676764 		.ascii	"-ggdb -O2 -std=gnu99 -fomit-frame-pointer -falign-f"
 1060      62202D4F 
 1060      32202D73 
 1060      74643D67 
 1060      6E753939 
 1061 01e1 756E6374 		.ascii	"unctions=16 -ffunction-sections -fdata-sections -fn"
 1061      696F6E73 
 1061      3D313620 
 1061      2D666675 
 1061      6E637469 
 1062 0214 6F2D636F 		.ascii	"o-common -fsingle-precision-constant\000"
 1062      6D6D6F6E 
ARM GAS  /tmp/ccLifbdL.s 			page 21


 1062      202D6673 
 1062      696E676C 
 1062      652D7072 
 1063              	.LASF10:
 1064 0239 756E7369 		.ascii	"unsigned int\000"
 1064      676E6564 
 1064      20696E74 
 1064      00
 1065              	.LASF9:
 1066 0246 6C6F6E67 		.ascii	"long long unsigned int\000"
 1066      206C6F6E 
 1066      6720756E 
 1066      7369676E 
 1066      65642069 
 1067              	.LASF11:
 1068 025d 75696E74 		.ascii	"uint8_t\000"
 1068      385F7400 
 1069              	.LASF19:
 1070 0265 5F746578 		.ascii	"_textdata\000"
 1070      74646174 
 1070      6100
 1071              	.LASF34:
 1072 026f 5F5F6561 		.ascii	"__early_init\000"
 1072      726C795F 
 1072      696E6974 
 1072      00
 1073              	.LASF8:
 1074 027c 6C6F6E67 		.ascii	"long long int\000"
 1074      206C6F6E 
 1074      6720696E 
 1074      7400
 1075              	.LASF2:
 1076 028a 73686F72 		.ascii	"short int\000"
 1076      7420696E 
 1076      7400
 1077              	.LASF33:
 1078 0294 5F5F6C61 		.ascii	"__late_init\000"
 1078      74655F69 
 1078      6E697400 
 1079              	.LASF13:
 1080 02a0 66756E63 		.ascii	"funcp_t\000"
 1080      705F7400 
 1081              	.LASF30:
 1082 02a8 2F686F6D 		.ascii	"/home/renan/BLDC/bldc-bootloader\000"
 1082      652F7265 
 1082      6E616E2F 
 1082      424C4443 
 1082      2F626C64 
 1083              	.LASF12:
 1084 02c9 75696E74 		.ascii	"uint32_t\000"
 1084      33325F74 
 1084      00
 1085              	.LASF4:
 1086 02d2 6C6F6E67 		.ascii	"long int\000"
 1086      20696E74 
 1086      00
 1087              	.LASF20:
ARM GAS  /tmp/ccLifbdL.s 			page 22


 1088 02db 5F646174 		.ascii	"_data\000"
 1088      6100
 1089              	.LASF0:
 1090 02e1 7369676E 		.ascii	"signed char\000"
 1090      65642063 
 1090      68617200 
 1091              	.LASF18:
 1092 02ed 5F5F7072 		.ascii	"__process_stack_end__\000"
 1092      6F636573 
 1092      735F7374 
 1092      61636B5F 
 1092      656E645F 
 1093              	.LASF24:
 1094 0303 5F5F696E 		.ascii	"__init_array_start\000"
 1094      69745F61 
 1094      72726179 
 1094      5F737461 
 1094      727400
 1095              	.LASF16:
 1096 0316 5F5F6D61 		.ascii	"__main_stack_end__\000"
 1096      696E5F73 
 1096      7461636B 
 1096      5F656E64 
 1096      5F5F00
 1097              		.ident	"GCC: (GNU Tools for Arm Embedded Processors 7-2018-q3-update) 7.3.1 20180622 (release) [AR
ARM GAS  /tmp/ccLifbdL.s 			page 23


DEFINED SYMBOLS
                            *ABS*:0000000000000000 crt0.c
     /tmp/ccLifbdL.s:18     .text.__early_init:0000000000000000 $t
     /tmp/ccLifbdL.s:26     .text.__early_init:0000000000000000 __early_init
     /tmp/ccLifbdL.s:40     .text.__late_init:0000000000000000 $t
     /tmp/ccLifbdL.s:48     .text.__late_init:0000000000000000 __late_init
     /tmp/ccLifbdL.s:59     .text._default_exit:0000000000000000 $t
     /tmp/ccLifbdL.s:67     .text._default_exit:0000000000000000 _default_exit
     /tmp/ccLifbdL.s:80     .text.ResetHandler:0000000000000000 $t
     /tmp/ccLifbdL.s:88     .text.ResetHandler:0000000000000000 ResetHandler
     /tmp/ccLifbdL.s:306    .text.ResetHandler:00000000000000f8 $d

UNDEFINED SYMBOLS
main
__process_stack_end__
__main_stack_base__
__main_stack_end__
__process_stack_base__
_data
_edata
_textdata
_bss_start
_bss_end
__init_array_start
__init_array_end
__fini_array_start
__fini_array_end
