ARM GAS  /tmp/ccp7yLGI.s 			page 1


   1              		.cpu cortex-m4
   2              		.eabi_attribute 27, 1
   3              		.eabi_attribute 28, 1
   4              		.eabi_attribute 20, 1
   5              		.eabi_attribute 21, 1
   6              		.eabi_attribute 23, 3
   7              		.eabi_attribute 24, 1
   8              		.eabi_attribute 25, 1
   9              		.eabi_attribute 26, 1
  10              		.eabi_attribute 30, 2
  11              		.eabi_attribute 34, 1
  12              		.eabi_attribute 18, 4
  13              		.file	"hal.c"
  14              		.text
  15              	.Ltext0:
  16              		.cfi_sections	.debug_frame
  17              		.section	.text.halInit,"ax",%progbits
  18              		.align	1
  19              		.p2align 4,,15
  20              		.global	halInit
  21              		.syntax unified
  22              		.thumb
  23              		.thumb_func
  24              		.fpu fpv4-sp-d16
  25              		.type	halInit, %function
  26              	halInit:
  27              	.LFB118:
  28              		.file 1 "ChibiOS_2.6.6/os/hal/src/hal.c"
  29              		.loc 1 68 0
  30              		.cfi_startproc
  31              		@ args = 0, pretend = 0, frame = 0
  32              		@ frame_needed = 0, uses_anonymous_args = 0
  33 0000 08B5     		push	{r3, lr}
  34              		.cfi_def_cfa_offset 8
  35              		.cfi_offset 3, -8
  36              		.cfi_offset 14, -4
  37              		.loc 1 70 0
  38 0002 FFF7FEFF 		bl	hal_lld_init
  39              	.LVL0:
  40              		.loc 1 73 0
  41 0006 FFF7FEFF 		bl	tmInit
  42              	.LVL1:
  43              		.loc 1 76 0
  44 000a 0348     		ldr	r0, .L4
  45 000c FFF7FEFF 		bl	_pal_lld_init
  46              	.LVL2:
  47              		.loc 1 128 0
  48 0010 BDE80840 		pop	{r3, lr}
  49              		.cfi_restore 14
  50              		.cfi_restore 3
  51              		.cfi_def_cfa_offset 0
  52              		.loc 1 127 0
  53 0014 FFF7FEBF 		b	boardInit
  54              	.LVL3:
  55              	.L5:
  56              		.align	2
  57              	.L4:
ARM GAS  /tmp/ccp7yLGI.s 			page 2


  58 0018 00000000 		.word	pal_default_config
  59              		.cfi_endproc
  60              	.LFE118:
  61              		.size	halInit, .-halInit
  62              		.section	.text.halIsCounterWithin,"ax",%progbits
  63              		.align	1
  64              		.p2align 4,,15
  65              		.global	halIsCounterWithin
  66              		.syntax unified
  67              		.thumb
  68              		.thumb_func
  69              		.fpu fpv4-sp-d16
  70              		.type	halIsCounterWithin, %function
  71              	halIsCounterWithin:
  72              	.LFB119:
  73              		.loc 1 174 0
  74              		.cfi_startproc
  75              		@ args = 0, pretend = 0, frame = 0
  76              		@ frame_needed = 0, uses_anonymous_args = 0
  77              		@ link register save eliminated.
  78              	.LVL4:
  79              		.loc 1 175 0
  80 0000 084B     		ldr	r3, .L14
  81              		.loc 1 177 0
  82 0002 8142     		cmp	r1, r0
  83              		.loc 1 175 0
  84 0004 5B68     		ldr	r3, [r3, #4]
  85              	.LVL5:
  86              		.loc 1 177 0
  87 0006 06D9     		bls	.L7
  88              		.loc 1 177 0 is_stmt 0 discriminator 1
  89 0008 8342     		cmp	r3, r0
  90 000a 08D3     		bcc	.L11
  91              	.L13:
  92              		.loc 1 178 0 is_stmt 1 discriminator 2
  93 000c 8B42     		cmp	r3, r1
  94 000e 2CBF     		ite	cs
  95 0010 0020     		movcs	r0, #0
  96              	.LVL6:
  97 0012 0120     		movcc	r0, #1
  98 0014 7047     		bx	lr
  99              	.LVL7:
 100              	.L7:
 101              		.loc 1 178 0 is_stmt 0
 102 0016 8342     		cmp	r3, r0
 103 0018 F8D3     		bcc	.L13
 104 001a 0120     		movs	r0, #1
 105              	.LVL8:
 106              		.loc 1 179 0 is_stmt 1
 107 001c 7047     		bx	lr
 108              	.LVL9:
 109              	.L11:
 110 001e 0020     		movs	r0, #0
 111              	.LVL10:
 112 0020 7047     		bx	lr
 113              	.L15:
 114 0022 00BF     		.align	2
ARM GAS  /tmp/ccp7yLGI.s 			page 3


 115              	.L14:
 116 0024 001000E0 		.word	-536866816
 117              		.cfi_endproc
 118              	.LFE119:
 119              		.size	halIsCounterWithin, .-halIsCounterWithin
 120              		.section	.text.halPolledDelay,"ax",%progbits
 121              		.align	1
 122              		.p2align 4,,15
 123              		.global	halPolledDelay
 124              		.syntax unified
 125              		.thumb
 126              		.thumb_func
 127              		.fpu fpv4-sp-d16
 128              		.type	halPolledDelay, %function
 129              	halPolledDelay:
 130              	.LFB120:
 131              		.loc 1 193 0
 132              		.cfi_startproc
 133              		@ args = 0, pretend = 0, frame = 0
 134              		@ frame_needed = 0, uses_anonymous_args = 0
 135              		@ link register save eliminated.
 136              	.LVL11:
 137              		.loc 1 194 0
 138 0000 0849     		ldr	r1, .L22
 139 0002 4A68     		ldr	r2, [r1, #4]
 140              	.LVL12:
 141              		.loc 1 195 0
 142 0004 1044     		add	r0, r0, r2
 143              	.LVL13:
 144              	.L20:
 145              	.LBB4:
 146              	.LBB5:
 147              		.loc 1 177 0 discriminator 1
 148 0006 8242     		cmp	r2, r0
 149              		.loc 1 175 0 discriminator 1
 150 0008 4B68     		ldr	r3, [r1, #4]
 151              	.LVL14:
 152              		.loc 1 177 0 discriminator 1
 153 000a 02D2     		bcs	.L17
 154              		.loc 1 177 0 is_stmt 0
 155 000c 9A42     		cmp	r2, r3
 156 000e 05D9     		bls	.L21
 157              	.LVL15:
 158              	.L16:
 159              	.LBE5:
 160              	.LBE4:
 161              		.loc 1 198 0 is_stmt 1
 162 0010 7047     		bx	lr
 163              	.LVL16:
 164              	.L17:
 165              	.LBB8:
 166              	.LBB6:
 167              		.loc 1 178 0
 168 0012 9A42     		cmp	r2, r3
 169 0014 F7D9     		bls	.L20
 170              	.LBE6:
 171              	.LBE8:
ARM GAS  /tmp/ccp7yLGI.s 			page 4


 172              		.loc 1 196 0
 173 0016 9842     		cmp	r0, r3
 174 0018 F5D8     		bhi	.L20
 175 001a F9E7     		b	.L16
 176              	.LVL17:
 177              	.L21:
 178              	.LBB9:
 179              	.LBB7:
 180              		.loc 1 177 0
 181 001c 9842     		cmp	r0, r3
 182 001e F2D8     		bhi	.L20
 183 0020 7047     		bx	lr
 184              	.L23:
 185 0022 00BF     		.align	2
 186              	.L22:
 187 0024 001000E0 		.word	-536866816
 188              	.LBE7:
 189              	.LBE9:
 190              		.cfi_endproc
 191              	.LFE120:
 192              		.size	halPolledDelay, .-halPolledDelay
 193              		.text
 194              	.Letext0:
 195              		.file 2 "/usr/arm-none-eabi/include/machine/_default_types.h"
 196              		.file 3 "/usr/arm-none-eabi/include/sys/_stdint.h"
 197              		.file 4 "ChibiOS_2.6.6/os/ports/GCC/ARMCMx/chtypes.h"
 198              		.file 5 "ChibiOS_2.6.6/os/kernel/include/chlists.h"
 199              		.file 6 "ChibiOS_2.6.6/os/kernel/include/chthreads.h"
 200              		.file 7 "ChibiOS_2.6.6/os/ports/GCC/ARMCMx/chcore_v7m.h"
 201              		.file 8 "ChibiOS_2.6.6/os/ports/common/ARMCMx/nvic.h"
 202              		.file 9 "ChibiOS_2.6.6/os/kernel/include/chvt.h"
 203              		.file 10 "ChibiOS_2.6.6/os/kernel/include/chschd.h"
 204              		.file 11 "ChibiOS_2.6.6/os/kernel/include/chmtx.h"
 205              		.file 12 "ChibiOS_2.6.6/os/kernel/include/chregistry.h"
 206              		.file 13 "ChibiOS_2.6.6/os/kernel/include/chdebug.h"
 207              		.file 14 "ChibiOS_2.6.6/os/kernel/include/ch.h"
 208              		.file 15 "ChibiOS_2.6.6/os/ports/common/ARMCMx/CMSIS/include/core_cm4.h"
 209              		.file 16 "ChibiOS_2.6.6/os/hal/platforms/STM32F4xx/stm32f4xx.h"
 210              		.file 17 "ChibiOS_2.6.6/os/hal/platforms/STM32F4xx/hal_lld.h"
 211              		.file 18 "ChibiOS_2.6.6/os/hal/platforms/STM32F4xx/stm32_dma.h"
 212              		.file 19 "ChibiOS_2.6.6/os/hal/platforms/STM32/GPIOv2/pal_lld.h"
 213              		.file 20 "ChibiOS_2.6.6/os/hal/include/tm.h"
 214              		.file 21 "ChibiOS_2.6.6/boards/ST_STM32F4_DISCOVERY/board.h"