ARM GAS  /tmp/ccT5mgKJ.s 			page 1


   1              		.cpu cortex-m4
   2              		.eabi_attribute 27, 1
   3              		.eabi_attribute 28, 1
   4              		.eabi_attribute 20, 1
   5              		.eabi_attribute 21, 1
   6              		.eabi_attribute 23, 3
   7              		.eabi_attribute 24, 1
   8              		.eabi_attribute 25, 1
   9              		.eabi_attribute 26, 1
  10              		.eabi_attribute 30, 2
  11              		.eabi_attribute 34, 1
  12              		.eabi_attribute 18, 4
  13              		.file	"hal_lld.c"
  14              		.text
  15              	.Ltext0:
  16              		.cfi_sections	.debug_frame
  17              		.section	.text.hal_lld_init,"ax",%progbits
  18              		.align	1
  19              		.p2align 4,,15
  20              		.global	hal_lld_init
  21              		.syntax unified
  22              		.thumb
  23              		.thumb_func
  24              		.fpu fpv4-sp-d16
  25              		.type	hal_lld_init, %function
  26              	hal_lld_init:
  27              	.LFB119:
  28              		.file 1 "ChibiOS_2.6.6/os/hal/platforms/STM32F4xx/hal_lld.c"
  29              		.loc 1 111 0
  30              		.cfi_startproc
  31              		@ args = 0, pretend = 0, frame = 0
  32              		@ frame_needed = 0, uses_anonymous_args = 0
  33              		@ link register save eliminated.
  34              		.loc 1 115 0
  35 0000 1E4B     		ldr	r3, .L8
  36              		.loc 1 121 0
  37 0002 1F49     		ldr	r1, .L8+4
  38              		.loc 1 115 0
  39 0004 1A69     		ldr	r2, [r3, #16]
  40 0006 4FF0FF30 		mov	r0, #-1
  41 000a 0022     		movs	r2, #0
  42              		.loc 1 111 0
  43 000c 70B4     		push	{r4, r5, r6}
  44              		.cfi_def_cfa_offset 12
  45              		.cfi_offset 4, -12
  46              		.cfi_offset 5, -8
  47              		.cfi_offset 6, -4
  48              		.loc 1 115 0
  49 000e 1861     		str	r0, [r3, #16]
  50 0010 1A61     		str	r2, [r3, #16]
  51              		.loc 1 116 0
  52 0012 5C69     		ldr	r4, [r3, #20]
  53 0014 5861     		str	r0, [r3, #20]
  54 0016 5A61     		str	r2, [r3, #20]
  55              		.loc 1 117 0
  56 0018 1C6A     		ldr	r4, [r3, #32]
  57              		.loc 1 128 0
ARM GAS  /tmp/ccT5mgKJ.s 			page 2


  58 001a 1A4D     		ldr	r5, .L8+8
  59              		.loc 1 117 0
  60 001c 64F08054 		orn	r4, r4, #268435456
  61 0020 1C62     		str	r4, [r3, #32]
  62 0022 1A62     		str	r2, [r3, #32]
  63              		.loc 1 118 0
  64 0024 5E6A     		ldr	r6, [r3, #36]
  65 0026 5862     		str	r0, [r3, #36]
  66              		.loc 1 121 0
  67 0028 44F29F14 		movw	r4, #16799
  68              		.loc 1 123 0
  69 002c 0720     		movs	r0, #7
  70              		.loc 1 118 0
  71 002e 5A62     		str	r2, [r3, #36]
  72              		.loc 1 121 0
  73 0030 4C60     		str	r4, [r1, #4]
  74              		.loc 1 122 0
  75 0032 8A60     		str	r2, [r1, #8]
  76              		.loc 1 123 0
  77 0034 0860     		str	r0, [r1]
  78              		.loc 1 128 0
  79 0036 E968     		ldr	r1, [r5, #12]
  80              		.loc 1 129 0
  81 0038 134C     		ldr	r4, .L8+12
  82              	.LBB4:
  83              	.LBB5:
  84              		.loc 1 54 0
  85 003a 1448     		ldr	r0, .L8+16
  86              	.LBE5:
  87              	.LBE4:
  88              		.loc 1 128 0
  89 003c 41F08071 		orr	r1, r1, #16777216
  90 0040 E960     		str	r1, [r5, #12]
  91              		.loc 1 129 0
  92 0042 2168     		ldr	r1, [r4]
  93 0044 41F00101 		orr	r1, r1, #1
  94 0048 2160     		str	r1, [r4]
  95              		.loc 1 132 0
  96 004a 196C     		ldr	r1, [r3, #64]
  97 004c 41F08051 		orr	r1, r1, #268435456
  98 0050 1964     		str	r1, [r3, #64]
  99              	.LBB7:
 100              	.LBB6:
 101              		.loc 1 54 0
 102 0052 0168     		ldr	r1, [r0]
 103 0054 41F48071 		orr	r1, r1, #256
 104 0058 0160     		str	r1, [r0]
 105              		.loc 1 57 0
 106 005a 196F     		ldr	r1, [r3, #112]
 107 005c 01F44071 		and	r1, r1, #768
 108 0060 B1F5007F 		cmp	r1, #512
 109 0064 03D0     		beq	.L2
 110              		.loc 1 59 0
 111 0066 4FF48031 		mov	r1, #65536
 112 006a 1967     		str	r1, [r3, #112]
 113              		.loc 1 60 0
 114 006c 1A67     		str	r2, [r3, #112]
ARM GAS  /tmp/ccT5mgKJ.s 			page 3


 115              	.L2:
 116              		.loc 1 94 0
 117 006e 074A     		ldr	r2, .L8+16
 118 0070 5368     		ldr	r3, [r2, #4]
 119 0072 23F40073 		bic	r3, r3, #512
 120 0076 5360     		str	r3, [r2, #4]
 121              	.LBE6:
 122              	.LBE7:
 123              		.loc 1 145 0
 124 0078 70BC     		pop	{r4, r5, r6}
 125              		.cfi_restore 6
 126              		.cfi_restore 5
 127              		.cfi_restore 4
 128              		.cfi_def_cfa_offset 0
 129 007a 7047     		bx	lr
 130              	.L9:
 131              		.align	2
 132              	.L8:
 133 007c 00380240 		.word	1073887232
 134 0080 10E000E0 		.word	-536813552
 135 0084 F0ED00E0 		.word	-536810000
 136 0088 001000E0 		.word	-536866816
 137 008c 00700040 		.word	1073770496
 138              		.cfi_endproc
 139              	.LFE119:
 140              		.size	hal_lld_init, .-hal_lld_init
 141              		.section	.text.stm32_clock_init,"ax",%progbits
 142              		.align	1
 143              		.p2align 4,,15
 144              		.global	stm32_clock_init
 145              		.syntax unified
 146              		.thumb
 147              		.thumb_func
 148              		.fpu fpv4-sp-d16
 149              		.type	stm32_clock_init, %function
 150              	stm32_clock_init:
 151              	.LFB120:
 152              		.loc 1 154 0
 153              		.cfi_startproc
 154              		@ args = 0, pretend = 0, frame = 0
 155              		@ frame_needed = 0, uses_anonymous_args = 0
 156              		@ link register save eliminated.
 157              		.loc 1 158 0
 158 0000 284B     		ldr	r3, .L30
 159              		.loc 1 162 0
 160 0002 294A     		ldr	r2, .L30+4
 161              		.loc 1 158 0
 162 0004 4FF08050 		mov	r0, #268435456
 163              		.loc 1 162 0
 164 0008 4FF44041 		mov	r1, #49152
 165              		.loc 1 158 0
 166 000c 1864     		str	r0, [r3, #64]
 167              		.loc 1 162 0
 168 000e 1160     		str	r1, [r2]
 169              		.loc 1 169 0
 170 0010 1A68     		ldr	r2, [r3]
 171 0012 42F00102 		orr	r2, r2, #1
ARM GAS  /tmp/ccT5mgKJ.s 			page 4


 172 0016 1A60     		str	r2, [r3]
 173              	.L11:
 174              		.loc 1 170 0 discriminator 1
 175 0018 1A68     		ldr	r2, [r3]
 176 001a 9207     		lsls	r2, r2, #30
 177 001c FCD5     		bpl	.L11
 178              		.loc 1 172 0
 179 001e 1968     		ldr	r1, [r3]
 180              		.loc 1 174 0
 181 0020 204A     		ldr	r2, .L30
 182              		.loc 1 172 0
 183 0022 01F0F901 		and	r1, r1, #249
 184              		.loc 1 173 0
 185 0026 0020     		movs	r0, #0
 186              		.loc 1 172 0
 187 0028 1960     		str	r1, [r3]
 188              		.loc 1 173 0
 189 002a 9860     		str	r0, [r3, #8]
 190              	.L12:
 191              		.loc 1 174 0 discriminator 1
 192 002c 9368     		ldr	r3, [r2, #8]
 193 002e 13F00C0F 		tst	r3, #12
 194 0032 FBD1     		bne	.L12
 195              		.loc 1 184 0
 196 0034 1368     		ldr	r3, [r2]
 197              		.loc 1 186 0
 198 0036 1B49     		ldr	r1, .L30
 199              		.loc 1 184 0
 200 0038 43F48033 		orr	r3, r3, #65536
 201 003c 1360     		str	r3, [r2]
 202              	.L13:
 203              		.loc 1 186 0 discriminator 1
 204 003e 0B68     		ldr	r3, [r1]
 205 0040 9803     		lsls	r0, r3, #14
 206 0042 FCD5     		bpl	.L13
 207              		.loc 1 192 0
 208 0044 4B6F     		ldr	r3, [r1, #116]
 209              		.loc 1 193 0
 210 0046 174A     		ldr	r2, .L30
 211              		.loc 1 192 0
 212 0048 43F00103 		orr	r3, r3, #1
 213 004c 4B67     		str	r3, [r1, #116]
 214              	.L14:
 215              		.loc 1 193 0 discriminator 1
 216 004e 536F     		ldr	r3, [r2, #116]
 217 0050 9907     		lsls	r1, r3, #30
 218 0052 FCD5     		bpl	.L14
 219              		.loc 1 199 0
 220 0054 154B     		ldr	r3, .L30+8
 221 0056 5360     		str	r3, [r2, #4]
 222              		.loc 1 201 0
 223 0058 1368     		ldr	r3, [r2]
 224              		.loc 1 205 0
 225 005a 1349     		ldr	r1, .L30+4
 226              		.loc 1 201 0
 227 005c 43F08073 		orr	r3, r3, #16777216
 228 0060 1360     		str	r3, [r2]
ARM GAS  /tmp/ccT5mgKJ.s 			page 5


 229              	.L15:
 230              		.loc 1 205 0 discriminator 1
 231 0062 4B68     		ldr	r3, [r1, #4]
 232 0064 5A04     		lsls	r2, r3, #17
 233 0066 FCD5     		bpl	.L15
 234              		.loc 1 221 0
 235 0068 0E49     		ldr	r1, .L30
 236              	.L16:
 237              		.loc 1 221 0 is_stmt 0 discriminator 1
 238 006a 0B68     		ldr	r3, [r1]
 239 006c 9B01     		lsls	r3, r3, #6
 240 006e FCD5     		bpl	.L16
 241              		.loc 1 249 0 is_stmt 1
 242 0070 0F4B     		ldr	r3, .L30+12
 243              		.loc 1 236 0
 244 0072 104A     		ldr	r2, .L30+16
 245 0074 8A60     		str	r2, [r1, #8]
 246              		.loc 1 249 0
 247 0076 40F20572 		movw	r2, #1797
 248 007a 1A60     		str	r2, [r3]
 249              		.loc 1 255 0
 250 007c 8B68     		ldr	r3, [r1, #8]
 251              		.loc 1 256 0
 252 007e 094A     		ldr	r2, .L30
 253              		.loc 1 255 0
 254 0080 43F00203 		orr	r3, r3, #2
 255 0084 8B60     		str	r3, [r1, #8]
 256              	.L17:
 257              		.loc 1 256 0 discriminator 1
 258 0086 9368     		ldr	r3, [r2, #8]
 259 0088 03F00C03 		and	r3, r3, #12
 260 008c 082B     		cmp	r3, #8
 261 008e FAD1     		bne	.L17
 262              		.loc 1 263 0
 263 0090 536C     		ldr	r3, [r2, #68]
 264 0092 43F48043 		orr	r3, r3, #16384
 265 0096 5364     		str	r3, [r2, #68]
 266 0098 536E     		ldr	r3, [r2, #100]
 267 009a 43F48043 		orr	r3, r3, #16384
 268 009e 5366     		str	r3, [r2, #100]
 269              		.loc 1 264 0
 270 00a0 7047     		bx	lr
 271              	.L31:
 272 00a2 00BF     		.align	2
 273              	.L30:
 274 00a4 00380240 		.word	1073887232
 275 00a8 00700040 		.word	1073770496
 276 00ac 08544007 		.word	121656328
 277 00b0 003C0240 		.word	1073888256
 278 00b4 00940838 		.word	940086272
 279              		.cfi_endproc
 280              	.LFE120:
 281              		.size	stm32_clock_init, .-stm32_clock_init
 282              		.text
 283              	.Letext0:
 284              		.file 2 "/usr/arm-none-eabi/include/machine/_default_types.h"
 285              		.file 3 "/usr/arm-none-eabi/include/sys/_stdint.h"
ARM GAS  /tmp/ccT5mgKJ.s 			page 6


 286              		.file 4 "ChibiOS_2.6.6/os/ports/GCC/ARMCMx/chtypes.h"
 287              		.file 5 "ChibiOS_2.6.6/os/kernel/include/chlists.h"
 288              		.file 6 "ChibiOS_2.6.6/os/kernel/include/chthreads.h"
 289              		.file 7 "ChibiOS_2.6.6/os/ports/GCC/ARMCMx/chcore_v7m.h"
 290              		.file 8 "ChibiOS_2.6.6/os/ports/common/ARMCMx/nvic.h"
 291              		.file 9 "ChibiOS_2.6.6/os/kernel/include/chvt.h"
 292              		.file 10 "ChibiOS_2.6.6/os/kernel/include/chschd.h"
 293              		.file 11 "ChibiOS_2.6.6/os/kernel/include/chmtx.h"
 294              		.file 12 "ChibiOS_2.6.6/os/kernel/include/chregistry.h"
 295              		.file 13 "ChibiOS_2.6.6/os/kernel/include/chdebug.h"
 296              		.file 14 "ChibiOS_2.6.6/os/kernel/include/ch.h"
 297              		.file 15 "ChibiOS_2.6.6/os/ports/common/ARMCMx/CMSIS/include/core_cm4.h"
 298              		.file 16 "ChibiOS_2.6.6/os/hal/platforms/STM32F4xx/stm32f4xx.h"
 299              		.file 17 "ChibiOS_2.6.6/os/hal/platforms/STM32F4xx/stm32_dma.h"
 300              		.file 18 "ChibiOS_2.6.6/os/hal/platforms/STM32/GPIOv2/pal_lld.h"