ARM GAS  /tmp/ccT5mgKJ.s 			page 1


   1              		.cpu cortex-m4
   2              		.eabi_attribute 27, 1
   3              		.eabi_attribute 28, 1
   4              		.eabi_attribute 20, 1
   5              		.eabi_attribute 21, 1
   6              		.eabi_attribute 23, 3
   7              		.eabi_attribute 24, 1
   8              		.eabi_attribute 25, 1
   9              		.eabi_attribute 26, 1
  10              		.eabi_attribute 30, 2
  11              		.eabi_attribute 34, 1
  12              		.eabi_attribute 18, 4
  13              		.file	"hal_lld.c"
  14              		.text
  15              	.Ltext0:
  16              		.cfi_sections	.debug_frame
  17              		.section	.text.hal_lld_init,"ax",%progbits
  18              		.align	1
  19              		.p2align 4,,15
  20              		.global	hal_lld_init
  21              		.syntax unified
  22              		.thumb
  23              		.thumb_func
  24              		.fpu fpv4-sp-d16
  25              		.type	hal_lld_init, %function
  26              	hal_lld_init:
  27              	.LFB119:
  28              		.file 1 "ChibiOS_2.6.6/os/hal/platforms/STM32F4xx/hal_lld.c"
  29              		.loc 1 111 0
  30              		.cfi_startproc
  31              		@ args = 0, pretend = 0, frame = 0
  32              		@ frame_needed = 0, uses_anonymous_args = 0
  33              		@ link register save eliminated.
  34              		.loc 1 115 0
  35 0000 1E4B     		ldr	r3, .L8
  36              		.loc 1 121 0
  37 0002 1F49     		ldr	r1, .L8+4
  38              		.loc 1 115 0
  39 0004 1A69     		ldr	r2, [r3, #16]
  40 0006 4FF0FF30 		mov	r0, #-1
  41 000a 0022     		movs	r2, #0
  42              		.loc 1 111 0
  43 000c 70B4     		push	{r4, r5, r6}
  44              		.cfi_def_cfa_offset 12
  45              		.cfi_offset 4, -12
  46              		.cfi_offset 5, -8
  47              		.cfi_offset 6, -4
  48              		.loc 1 115 0
  49 000e 1861     		str	r0, [r3, #16]
  50 0010 1A61     		str	r2, [r3, #16]
  51              		.loc 1 116 0
  52 0012 5C69     		ldr	r4, [r3, #20]
  53 0014 5861     		str	r0, [r3, #20]
  54 0016 5A61     		str	r2, [r3, #20]
  55              		.loc 1 117 0
  56 0018 1C6A     		ldr	r4, [r3, #32]
  57              		.loc 1 128 0
ARM GAS  /tmp/ccT5mgKJ.s 			page 2


  58 001a 1A4D     		ldr	r5, .L8+8
  59              		.loc 1 117 0
  60 001c 64F08054 		orn	r4, r4, #268435456
  61 0020 1C62     		str	r4, [r3, #32]
  62 0022 1A62     		str	r2, [r3, #32]
  63              		.loc 1 118 0
  64 0024 5E6A     		ldr	r6, [r3, #36]
  65 0026 5862     		str	r0, [r3, #36]
  66              		.loc 1 121 0
  67 0028 44F29F14 		movw	r4, #16799
  68              		.loc 1 123 0
  69 002c 0720     		movs	r0, #7
  70              		.loc 1 118 0
  71 002e 5A62     		str	r2, [r3, #36]
  72              		.loc 1 121 0
  73 0030 4C60     		str	r4, [r1, #4]
  74              		.loc 1 122 0
  75 0032 8A60     		str	r2, [r1, #8]
  76              		.loc 1 123 0
  77 0034 0860     		str	r0, [r1]
  78              		.loc 1 128 0
  79 0036 E968     		ldr	r1, [r5, #12]
  80              		.loc 1 129 0
  81 0038 134C     		ldr	r4, .L8+12
  82              	.LBB4:
  83              	.LBB5:
  84              		.loc 1 54 0
  85 003a 1448     		ldr	r0, .L8+16
  86              	.LBE5:
  87              	.LBE4:
  88              		.loc 1 128 0
  89 003c 41F08071 		orr	r1, r1, #16777216
  90 0040 E960     		str	r1, [r5, #12]
  91              		.loc 1 129 0
  92 0042 2168     		ldr	r1, [r4]
  93 0044 41F00101 		orr	r1, r1, #1
  94 0048 2160     		str	r1, [r4]
  95              		.loc 1 132 0
  96 004a 196C     		ldr	r1, [r3, #64]
  97 004c 41F08051 		orr	r1, r1, #268435456
  98 0050 1964     		str	r1, [r3, #64]
  99              	.LBB7:
 100              	.LBB6:
 101              		.loc 1 54 0
 102 0052 0168     		ldr	r1, [r0]
 103 0054 41F48071 		orr	r1, r1, #256
 104 0058 0160     		str	r1, [r0]
 105              		.loc 1 57 0
 106 005a 196F     		ldr	r1, [r3, #112]
 107 005c 01F44071 		and	r1, r1, #768
 108 0060 B1F5007F 		cmp	r1, #512
 109 0064 03D0     		beq	.L2
 110              		.loc 1 59 0
 111 0066 4FF48031 		mov	r1, #65536
 112 006a 1967     		str	r1, [r3, #112]
 113              		.loc 1 60 0
 114 006c 1A67     		str	r2, [r3, #112]
ARM GAS  /tmp/ccT5mgKJ.s 			page 3


 115              	.L2:
 116              		.loc 1 94 0
 117 006e 074A     		ldr	r2, .L8+16
 118 0070 5368     		ldr	r3, [r2, #4]
 119 0072 23F40073 		bic	r3, r3, #512
 120 0076 5360     		str	r3, [r2, #4]
 121              	.LBE6:
 122              	.LBE7:
 123              		.loc 1 145 0
 124 0078 70BC     		pop	{r4, r5, r6}
 125              		.cfi_restore 6
 126              		.cfi_restore 5
 127              		.cfi_restore 4
 128              		.cfi_def_cfa_offset 0
 129 007a 7047     		bx	lr
 130              	.L9:
 131              		.align	2
 132              	.L8:
 133 007c 00380240 		.word	1073887232
 134 0080 10E000E0 		.word	-536813552
 135 0084 F0ED00E0 		.word	-536810000
 136 0088 001000E0 		.word	-536866816
 137 008c 00700040 		.word	1073770496
 138              		.cfi_endproc
 139              	.LFE119:
 140              		.size	hal_lld_init, .-hal_lld_init
 141              		.section	.text.stm32_clock_init,"ax",%progbits
 142              		.align	1
 143              		.p2align 4,,15
 144              		.global	stm32_clock_init
 145              		.syntax unified
 146              		.thumb
 147              		.thumb_func
 148              		.fpu fpv4-sp-d16
 149              		.type	stm32_clock_init, %function
 150              	stm32_clock_init:
 151              	.LFB120:
 152              		.loc 1 154 0
 153              		.cfi_startproc
 154              		@ args = 0, pretend = 0, frame = 0
 155              		@ frame_needed = 0, uses_anonymous_args = 0
 156              		@ link register save eliminated.
 157              		.loc 1 158 0
 158 0000 284B     		ldr	r3, .L30
 159              		.loc 1 162 0
 160 0002 294A     		ldr	r2, .L30+4
 161              		.loc 1 158 0
 162 0004 4FF08050 		mov	r0, #268435456
 163              		.loc 1 162 0
 164 0008 4FF44041 		mov	r1, #49152
 165              		.loc 1 158 0
 166 000c 1864     		str	r0, [r3, #64]
 167              		.loc 1 162 0
 168 000e 1160     		str	r1, [r2]
 169              		.loc 1 169 0
 170 0010 1A68     		ldr	r2, [r3]
 171 0012 42F00102 		orr	r2, r2, #1
ARM GAS  /tmp/ccT5mgKJ.s 			page 4


 172 0016 1A60     		str	r2, [r3]
 173              	.L11:
 174              		.loc 1 170 0 discriminator 1
 175 0018 1A68     		ldr	r2, [r3]
 176 001a 9207     		lsls	r2, r2, #30
 177 001c FCD5     		bpl	.L11
 178              		.loc 1 172 0
 179 001e 1968     		ldr	r1, [r3]
 180              		.loc 1 174 0
 181 0020 204A     		ldr	r2, .L30
 182              		.loc 1 172 0
 183 0022 01F0F901 		and	r1, r1, #249
 184              		.loc 1 173 0
 185 0026 0020     		movs	r0, #0
 186              		.loc 1 172 0
 187 0028 1960     		str	r1, [r3]
 188              		.loc 1 173 0
 189 002a 9860     		str	r0, [r3, #8]
 190              	.L12:
 191              		.loc 1 174 0 discriminator 1
 192 002c 9368     		ldr	r3, [r2, #8]
 193 002e 13F00C0F 		tst	r3, #12
 194 0032 FBD1     		bne	.L12
 195              		.loc 1 184 0
 196 0034 1368     		ldr	r3, [r2]
 197              		.loc 1 186 0
 198 0036 1B49     		ldr	r1, .L30
 199              		.loc 1 184 0
 200 0038 43F48033 		orr	r3, r3, #65536
 201 003c 1360     		str	r3, [r2]
 202              	.L13:
 203              		.loc 1 186 0 discriminator 1
 204 003e 0B68     		ldr	r3, [r1]
 205 0040 9803     		lsls	r0, r3, #14
 206 0042 FCD5     		bpl	.L13
 207              		.loc 1 192 0
 208 0044 4B6F     		ldr	r3, [r1, #116]
 209              		.loc 1 193 0
 210 0046 174A     		ldr	r2, .L30
 211              		.loc 1 192 0
 212 0048 43F00103 		orr	r3, r3, #1
 213 004c 4B67     		str	r3, [r1, #116]
 214              	.L14:
 215              		.loc 1 193 0 discriminator 1
 216 004e 536F     		ldr	r3, [r2, #116]
 217 0050 9907     		lsls	r1, r3, #30
 218 0052 FCD5     		bpl	.L14
 219              		.loc 1 199 0
 220 0054 154B     		ldr	r3, .L30+8
 221 0056 5360     		str	r3, [r2, #4]
 222              		.loc 1 201 0
 223 0058 1368     		ldr	r3, [r2]
 224              		.loc 1 205 0
 225 005a 1349     		ldr	r1, .L30+4
 226              		.loc 1 201 0
 227 005c 43F08073 		orr	r3, r3, #16777216
 228 0060 1360     		str	r3, [r2]
ARM GAS  /tmp/ccT5mgKJ.s 			page 5


 229              	.L15:
 230              		.loc 1 205 0 discriminator 1
 231 0062 4B68     		ldr	r3, [r1, #4]
 232 0064 5A04     		lsls	r2, r3, #17
 233 0066 FCD5     		bpl	.L15
 234              		.loc 1 221 0
 235 0068 0E49     		ldr	r1, .L30
 236              	.L16:
 237              		.loc 1 221 0 is_stmt 0 discriminator 1
 238 006a 0B68     		ldr	r3, [r1]
 239 006c 9B01     		lsls	r3, r3, #6
 240 006e FCD5     		bpl	.L16
 241              		.loc 1 249 0 is_stmt 1
 242 0070 0F4B     		ldr	r3, .L30+12
 243              		.loc 1 236 0
 244 0072 104A     		ldr	r2, .L30+16
 245 0074 8A60     		str	r2, [r1, #8]
 246              		.loc 1 249 0
 247 0076 40F20572 		movw	r2, #1797
 248 007a 1A60     		str	r2, [r3]
 249              		.loc 1 255 0
 250 007c 8B68     		ldr	r3, [r1, #8]
 251              		.loc 1 256 0
 252 007e 094A     		ldr	r2, .L30
 253              		.loc 1 255 0
 254 0080 43F00203 		orr	r3, r3, #2
 255 0084 8B60     		str	r3, [r1, #8]
 256              	.L17:
 257              		.loc 1 256 0 discriminator 1
 258 0086 9368     		ldr	r3, [r2, #8]
 259 0088 03F00C03 		and	r3, r3, #12
 260 008c 082B     		cmp	r3, #8
 261 008e FAD1     		bne	.L17
 262              		.loc 1 263 0
 263 0090 536C     		ldr	r3, [r2, #68]
 264 0092 43F48043 		orr	r3, r3, #16384
 265 0096 5364     		str	r3, [r2, #68]
 266 0098 536E     		ldr	r3, [r2, #100]
 267 009a 43F48043 		orr	r3, r3, #16384
 268 009e 5366     		str	r3, [r2, #100]
 269              		.loc 1 264 0
 270 00a0 7047     		bx	lr
 271              	.L31:
 272 00a2 00BF     		.align	2
 273              	.L30:
 274 00a4 00380240 		.word	1073887232
 275 00a8 00700040 		.word	1073770496
 276 00ac 08544007 		.word	121656328
 277 00b0 003C0240 		.word	1073888256
 278 00b4 00940838 		.word	940086272
 279              		.cfi_endproc
 280              	.LFE120:
 281              		.size	stm32_clock_init, .-stm32_clock_init
 282              		.text
 283              	.Letext0:
 284              		.file 2 "/usr/arm-none-eabi/include/machine/_default_types.h"
 285              		.file 3 "/usr/arm-none-eabi/include/sys/_stdint.h"
ARM GAS  /tmp/ccT5mgKJ.s 			page 6


 286              		.file 4 "ChibiOS_2.6.6/os/ports/GCC/ARMCMx/chtypes.h"
 287              		.file 5 "ChibiOS_2.6.6/os/kernel/include/chlists.h"
 288              		.file 6 "ChibiOS_2.6.6/os/kernel/include/chthreads.h"
 289              		.file 7 "ChibiOS_2.6.6/os/ports/GCC/ARMCMx/chcore_v7m.h"
 290              		.file 8 "ChibiOS_2.6.6/os/ports/common/ARMCMx/nvic.h"
 291              		.file 9 "ChibiOS_2.6.6/os/kernel/include/chvt.h"
 292              		.file 10 "ChibiOS_2.6.6/os/kernel/include/chschd.h"
 293              		.file 11 "ChibiOS_2.6.6/os/kernel/include/chmtx.h"
 294              		.file 12 "ChibiOS_2.6.6/os/kernel/include/chregistry.h"
 295              		.file 13 "ChibiOS_2.6.6/os/kernel/include/chdebug.h"
 296              		.file 14 "ChibiOS_2.6.6/os/kernel/include/ch.h"
 297              		.file 15 "ChibiOS_2.6.6/os/ports/common/ARMCMx/CMSIS/include/core_cm4.h"
 298              		.file 16 "ChibiOS_2.6.6/os/hal/platforms/STM32F4xx/stm32f4xx.h"
 299              		.file 17 "ChibiOS_2.6.6/os/hal/platforms/STM32F4xx/stm32_dma.h"
 300              		.file 18 "ChibiOS_2.6.6/os/hal/platforms/STM32/GPIOv2/pal_lld.h"
 301              		.section	.debug_info,"",%progbits
 302              	.Ldebug_info0:
 303 0000 8A0D0000 		.4byte	0xd8a
 304 0004 0400     		.2byte	0x4
 305 0006 00000000 		.4byte	.Ldebug_abbrev0
 306 000a 04       		.byte	0x4
 307 000b 01       		.uleb128 0x1
 308 000c 67000000 		.4byte	.LASF200
 309 0010 0C       		.byte	0xc
 310 0011 00050000 		.4byte	.LASF201
 311 0015 17040000 		.4byte	.LASF202
 312 0019 18000000 		.4byte	.Ldebug_ranges0+0x18
 313 001d 00000000 		.4byte	0
 314 0021 00000000 		.4byte	.Ldebug_line0
 315 0025 02       		.uleb128 0x2
 316 0026 04       		.byte	0x4
 317 0027 05       		.byte	0x5
 318 0028 696E7400 		.ascii	"int\000"
 319 002c 03       		.uleb128 0x3
 320 002d 04       		.byte	0x4
 321 002e 07       		.byte	0x7
 322 002f A8030000 		.4byte	.LASF0
 323 0033 03       		.uleb128 0x3
 324 0034 01       		.byte	0x1
 325 0035 06       		.byte	0x6
 326 0036 34020000 		.4byte	.LASF1
 327 003a 04       		.uleb128 0x4
 328 003b 50000000 		.4byte	.LASF4
 329 003f 02       		.byte	0x2
 330 0040 2B       		.byte	0x2b
 331 0041 45000000 		.4byte	0x45
 332 0045 03       		.uleb128 0x3
 333 0046 01       		.byte	0x1
 334 0047 08       		.byte	0x8
 335 0048 7C060000 		.4byte	.LASF2
 336 004c 03       		.uleb128 0x3
 337 004d 02       		.byte	0x2
 338 004e 05       		.byte	0x5
 339 004f A7060000 		.4byte	.LASF3
 340 0053 04       		.uleb128 0x4
 341 0054 97070000 		.4byte	.LASF5
 342 0058 02       		.byte	0x2
ARM GAS  /tmp/ccT5mgKJ.s 			page 7


 343 0059 39       		.byte	0x39
 344 005a 5E000000 		.4byte	0x5e
 345 005e 03       		.uleb128 0x3
 346 005f 02       		.byte	0x2
 347 0060 07       		.byte	0x7
 348 0061 0C030000 		.4byte	.LASF6
 349 0065 04       		.uleb128 0x4
 350 0066 B7040000 		.4byte	.LASF7
 351 006a 02       		.byte	0x2
 352 006b 4D       		.byte	0x4d
 353 006c 70000000 		.4byte	0x70
 354 0070 03       		.uleb128 0x3
 355 0071 04       		.byte	0x4
 356 0072 05       		.byte	0x5
 357 0073 A7020000 		.4byte	.LASF8
 358 0077 04       		.uleb128 0x4
 359 0078 D0070000 		.4byte	.LASF9
 360 007c 02       		.byte	0x2
 361 007d 4F       		.byte	0x4f
 362 007e 82000000 		.4byte	0x82
 363 0082 03       		.uleb128 0x3
 364 0083 04       		.byte	0x4
 365 0084 07       		.byte	0x7
 366 0085 78070000 		.4byte	.LASF10
 367 0089 03       		.uleb128 0x3
 368 008a 08       		.byte	0x8
 369 008b 05       		.byte	0x5
 370 008c 26020000 		.4byte	.LASF11
 371 0090 04       		.uleb128 0x4
 372 0091 D0050000 		.4byte	.LASF12
 373 0095 02       		.byte	0x2
 374 0096 69       		.byte	0x69
 375 0097 9B000000 		.4byte	0x9b
 376 009b 03       		.uleb128 0x3
 377 009c 08       		.byte	0x8
 378 009d 07       		.byte	0x7
 379 009e 71030000 		.4byte	.LASF13
 380 00a2 04       		.uleb128 0x4
 381 00a3 8D080000 		.4byte	.LASF14
 382 00a7 03       		.byte	0x3
 383 00a8 18       		.byte	0x18
 384 00a9 3A000000 		.4byte	0x3a
 385 00ad 04       		.uleb128 0x4
 386 00ae BD030000 		.4byte	.LASF15
 387 00b2 03       		.byte	0x3
 388 00b3 24       		.byte	0x24
 389 00b4 53000000 		.4byte	0x53
 390 00b8 04       		.uleb128 0x4
 391 00b9 74060000 		.4byte	.LASF16
 392 00bd 03       		.byte	0x3
 393 00be 2C       		.byte	0x2c
 394 00bf 65000000 		.4byte	0x65
 395 00c3 05       		.uleb128 0x5
 396 00c4 B8000000 		.4byte	0xb8
 397 00c8 04       		.uleb128 0x4
 398 00c9 5B070000 		.4byte	.LASF17
 399 00cd 03       		.byte	0x3
ARM GAS  /tmp/ccT5mgKJ.s 			page 8


 400 00ce 30       		.byte	0x30
 401 00cf 77000000 		.4byte	0x77
 402 00d3 05       		.uleb128 0x5
 403 00d4 C8000000 		.4byte	0xc8
 404 00d8 06       		.uleb128 0x6
 405 00d9 D3000000 		.4byte	0xd3
 406 00dd 04       		.uleb128 0x4
 407 00de 40000000 		.4byte	.LASF18
 408 00e2 03       		.byte	0x3
 409 00e3 3C       		.byte	0x3c
 410 00e4 90000000 		.4byte	0x90
 411 00e8 03       		.uleb128 0x3
 412 00e9 01       		.byte	0x1
 413 00ea 02       		.byte	0x2
 414 00eb 6E060000 		.4byte	.LASF19
 415 00ef 04       		.uleb128 0x4
 416 00f0 B7080000 		.4byte	.LASF20
 417 00f4 04       		.byte	0x4
 418 00f5 2C       		.byte	0x2c
 419 00f6 A2000000 		.4byte	0xa2
 420 00fa 04       		.uleb128 0x4
 421 00fb CA020000 		.4byte	.LASF21
 422 00ff 04       		.byte	0x4
 423 0100 2D       		.byte	0x2d
 424 0101 A2000000 		.4byte	0xa2
 425 0105 04       		.uleb128 0x4
 426 0106 F7050000 		.4byte	.LASF22
 427 010a 04       		.byte	0x4
 428 010b 2E       		.byte	0x2e
 429 010c A2000000 		.4byte	0xa2
 430 0110 04       		.uleb128 0x4
 431 0111 9D020000 		.4byte	.LASF23
 432 0115 04       		.byte	0x4
 433 0116 2F       		.byte	0x2f
 434 0117 A2000000 		.4byte	0xa2
 435 011b 04       		.uleb128 0x4
 436 011c 56060000 		.4byte	.LASF24
 437 0120 04       		.byte	0x4
 438 0121 30       		.byte	0x30
 439 0122 C8000000 		.4byte	0xc8
 440 0126 04       		.uleb128 0x4
 441 0127 43040000 		.4byte	.LASF25
 442 012b 04       		.byte	0x4
 443 012c 31       		.byte	0x31
 444 012d B8000000 		.4byte	0xb8
 445 0131 04       		.uleb128 0x4
 446 0132 AB040000 		.4byte	.LASF26
 447 0136 04       		.byte	0x4
 448 0137 33       		.byte	0x33
 449 0138 C8000000 		.4byte	0xc8
 450 013c 04       		.uleb128 0x4
 451 013d B2070000 		.4byte	.LASF27
 452 0141 04       		.byte	0x4
 453 0142 35       		.byte	0x35
 454 0143 C8000000 		.4byte	0xc8
 455 0147 05       		.uleb128 0x5
 456 0148 3C010000 		.4byte	0x13c
ARM GAS  /tmp/ccT5mgKJ.s 			page 9


 457 014c 04       		.uleb128 0x4
 458 014d 97030000 		.4byte	.LASF28
 459 0151 04       		.byte	0x4
 460 0152 36       		.byte	0x36
 461 0153 B8000000 		.4byte	0xb8
 462 0157 04       		.uleb128 0x4
 463 0158 59030000 		.4byte	.LASF29
 464 015c 05       		.byte	0x5
 465 015d 2A       		.byte	0x2a
 466 015e 62010000 		.4byte	0x162
 467 0162 07       		.uleb128 0x7
 468 0163 59030000 		.4byte	.LASF29
 469 0167 4C       		.byte	0x4c
 470 0168 06       		.byte	0x6
 471 0169 5E       		.byte	0x5e
 472 016a 6B020000 		.4byte	0x26b
 473 016e 08       		.uleb128 0x8
 474 016f 57050000 		.4byte	.LASF30
 475 0173 06       		.byte	0x6
 476 0174 5F       		.byte	0x5f
 477 0175 8C020000 		.4byte	0x28c
 478 0179 00       		.byte	0
 479 017a 08       		.uleb128 0x8
 480 017b 32060000 		.4byte	.LASF31
 481 017f 06       		.byte	0x6
 482 0180 61       		.byte	0x61
 483 0181 8C020000 		.4byte	0x28c
 484 0185 04       		.byte	0x4
 485 0186 08       		.uleb128 0x8
 486 0187 0A020000 		.4byte	.LASF32
 487 018b 06       		.byte	0x6
 488 018c 63       		.byte	0x63
 489 018d 1B010000 		.4byte	0x11b
 490 0191 08       		.byte	0x8
 491 0192 08       		.uleb128 0x8
 492 0193 9C050000 		.4byte	.LASF33
 493 0197 06       		.byte	0x6
 494 0198 64       		.byte	0x64
 495 0199 22040000 		.4byte	0x422
 496 019d 0C       		.byte	0xc
 497 019e 08       		.uleb128 0x8
 498 019f EC020000 		.4byte	.LASF34
 499 01a3 06       		.byte	0x6
 500 01a4 66       		.byte	0x66
 501 01a5 8C020000 		.4byte	0x28c
 502 01a9 10       		.byte	0x10
 503 01aa 08       		.uleb128 0x8
 504 01ab 81050000 		.4byte	.LASF35
 505 01af 06       		.byte	0x6
 506 01b0 67       		.byte	0x67
 507 01b1 8C020000 		.4byte	0x28c
 508 01b5 14       		.byte	0x14
 509 01b6 08       		.uleb128 0x8
 510 01b7 9C080000 		.4byte	.LASF36
 511 01bb 06       		.byte	0x6
 512 01bc 6E       		.byte	0x6e
 513 01bd B3060000 		.4byte	0x6b3
ARM GAS  /tmp/ccT5mgKJ.s 			page 10


 514 01c1 18       		.byte	0x18
 515 01c2 08       		.uleb128 0x8
 516 01c3 9D030000 		.4byte	.LASF37
 517 01c7 06       		.byte	0x6
 518 01c8 74       		.byte	0x74
 519 01c9 C5060000 		.4byte	0x6c5
 520 01cd 1C       		.byte	0x1c
 521 01ce 08       		.uleb128 0x8
 522 01cf B1060000 		.4byte	.LASF38
 523 01d3 06       		.byte	0x6
 524 01d4 79       		.byte	0x79
 525 01d5 FA000000 		.4byte	0xfa
 526 01d9 20       		.byte	0x20
 527 01da 08       		.uleb128 0x8
 528 01db FD060000 		.4byte	.LASF39
 529 01df 06       		.byte	0x6
 530 01e0 7D       		.byte	0x7d
 531 01e1 EF000000 		.4byte	0xef
 532 01e5 21       		.byte	0x21
 533 01e6 08       		.uleb128 0x8
 534 01e7 60080000 		.4byte	.LASF40
 535 01eb 06       		.byte	0x6
 536 01ec 82       		.byte	0x82
 537 01ed 05010000 		.4byte	0x105
 538 01f1 22       		.byte	0x22
 539 01f2 08       		.uleb128 0x8
 540 01f3 B9060000 		.4byte	.LASF41
 541 01f7 06       		.byte	0x6
 542 01f8 88       		.byte	0x88
 543 01f9 10010000 		.4byte	0x110
 544 01fd 23       		.byte	0x23
 545 01fe 08       		.uleb128 0x8
 546 01ff 32000000 		.4byte	.LASF42
 547 0203 06       		.byte	0x6
 548 0204 8F       		.byte	0x8f
 549 0205 47010000 		.4byte	0x147
 550 0209 24       		.byte	0x24
 551 020a 09       		.uleb128 0x9
 552 020b 705F7500 		.ascii	"p_u\000"
 553 020f 06       		.byte	0x6
 554 0210 B4       		.byte	0xb4
 555 0211 7E060000 		.4byte	0x67e
 556 0215 28       		.byte	0x28
 557 0216 08       		.uleb128 0x8
 558 0217 F6040000 		.4byte	.LASF43
 559 021b 06       		.byte	0x6
 560 021c B9       		.byte	0xb9
 561 021d B2020000 		.4byte	0x2b2
 562 0221 2C       		.byte	0x2c
 563 0222 08       		.uleb128 0x8
 564 0223 D1030000 		.4byte	.LASF44
 565 0227 06       		.byte	0x6
 566 0228 BF       		.byte	0xbf
 567 0229 92020000 		.4byte	0x292
 568 022d 30       		.byte	0x30
 569 022e 08       		.uleb128 0x8
 570 022f 22080000 		.4byte	.LASF45
ARM GAS  /tmp/ccT5mgKJ.s 			page 11


 571 0233 06       		.byte	0x6
 572 0234 C3       		.byte	0xc3
 573 0235 26010000 		.4byte	0x126
 574 0239 38       		.byte	0x38
 575 023a 08       		.uleb128 0x8
 576 023b 3A070000 		.4byte	.LASF46
 577 023f 06       		.byte	0x6
 578 0240 C9       		.byte	0xc9
 579 0241 31010000 		.4byte	0x131
 580 0245 3C       		.byte	0x3c
 581 0246 08       		.uleb128 0x8
 582 0247 9D060000 		.4byte	.LASF47
 583 024b 06       		.byte	0x6
 584 024c D0       		.byte	0xd0
 585 024d CB060000 		.4byte	0x6cb
 586 0251 40       		.byte	0x40
 587 0252 08       		.uleb128 0x8
 588 0253 BC070000 		.4byte	.LASF48
 589 0257 06       		.byte	0x6
 590 0258 D4       		.byte	0xd4
 591 0259 1B010000 		.4byte	0x11b
 592 025d 44       		.byte	0x44
 593 025e 08       		.uleb128 0x8
 594 025f 74020000 		.4byte	.LASF49
 595 0263 06       		.byte	0x6
 596 0264 DA       		.byte	0xda
 597 0265 C8020000 		.4byte	0x2c8
 598 0269 48       		.byte	0x48
 599 026a 00       		.byte	0
 600 026b 0A       		.uleb128 0xa
 601 026c 08       		.byte	0x8
 602 026d 05       		.byte	0x5
 603 026e 61       		.byte	0x61
 604 026f 8C020000 		.4byte	0x28c
 605 0273 08       		.uleb128 0x8
 606 0274 57050000 		.4byte	.LASF30
 607 0278 05       		.byte	0x5
 608 0279 62       		.byte	0x62
 609 027a 8C020000 		.4byte	0x28c
 610 027e 00       		.byte	0
 611 027f 08       		.uleb128 0x8
 612 0280 32060000 		.4byte	.LASF31
 613 0284 05       		.byte	0x5
 614 0285 64       		.byte	0x64
 615 0286 8C020000 		.4byte	0x28c
 616 028a 04       		.byte	0x4
 617 028b 00       		.byte	0
 618 028c 0B       		.uleb128 0xb
 619 028d 04       		.byte	0x4
 620 028e 57010000 		.4byte	0x157
 621 0292 04       		.uleb128 0x4
 622 0293 8F050000 		.4byte	.LASF50
 623 0297 05       		.byte	0x5
 624 0298 66       		.byte	0x66
 625 0299 6B020000 		.4byte	0x26b
 626 029d 0A       		.uleb128 0xa
 627 029e 04       		.byte	0x4
ARM GAS  /tmp/ccT5mgKJ.s 			page 12


 628 029f 05       		.byte	0x5
 629 02a0 6B       		.byte	0x6b
 630 02a1 B2020000 		.4byte	0x2b2
 631 02a5 08       		.uleb128 0x8
 632 02a6 57050000 		.4byte	.LASF30
 633 02aa 05       		.byte	0x5
 634 02ab 6D       		.byte	0x6d
 635 02ac 8C020000 		.4byte	0x28c
 636 02b0 00       		.byte	0
 637 02b1 00       		.byte	0
 638 02b2 04       		.uleb128 0x4
 639 02b3 9F040000 		.4byte	.LASF51
 640 02b7 05       		.byte	0x5
 641 02b8 70       		.byte	0x70
 642 02b9 9D020000 		.4byte	0x29d
 643 02bd 04       		.uleb128 0x4
 644 02be 3C030000 		.4byte	.LASF52
 645 02c2 07       		.byte	0x7
 646 02c3 E5       		.byte	0xe5
 647 02c4 C8020000 		.4byte	0x2c8
 648 02c8 0C       		.uleb128 0xc
 649 02c9 04       		.byte	0x4
 650 02ca 0D       		.uleb128 0xd
 651 02cb C8040000 		.4byte	.LASF203
 652 02cf 07       		.byte	0x7
 653 02d0 EB       		.byte	0xeb
 654 02d1 DD000000 		.4byte	0xdd
 655 02d5 08       		.byte	0x8
 656 02d6 0E       		.uleb128 0xe
 657 02d7 28080000 		.4byte	.LASF53
 658 02db 64       		.byte	0x64
 659 02dc 07       		.byte	0x7
 660 02dd 0C01     		.2byte	0x10c
 661 02df 22040000 		.4byte	0x422
 662 02e3 0F       		.uleb128 0xf
 663 02e4 73313600 		.ascii	"s16\000"
 664 02e8 07       		.byte	0x7
 665 02e9 0E01     		.2byte	0x10e
 666 02eb BD020000 		.4byte	0x2bd
 667 02ef 00       		.byte	0
 668 02f0 0F       		.uleb128 0xf
 669 02f1 73313700 		.ascii	"s17\000"
 670 02f5 07       		.byte	0x7
 671 02f6 0F01     		.2byte	0x10f
 672 02f8 BD020000 		.4byte	0x2bd
 673 02fc 04       		.byte	0x4
 674 02fd 0F       		.uleb128 0xf
 675 02fe 73313800 		.ascii	"s18\000"
 676 0302 07       		.byte	0x7
 677 0303 1001     		.2byte	0x110
 678 0305 BD020000 		.4byte	0x2bd
 679 0309 08       		.byte	0x8
 680 030a 0F       		.uleb128 0xf
 681 030b 73313900 		.ascii	"s19\000"
 682 030f 07       		.byte	0x7
 683 0310 1101     		.2byte	0x111
 684 0312 BD020000 		.4byte	0x2bd
ARM GAS  /tmp/ccT5mgKJ.s 			page 13


 685 0316 0C       		.byte	0xc
 686 0317 0F       		.uleb128 0xf
 687 0318 73323000 		.ascii	"s20\000"
 688 031c 07       		.byte	0x7
 689 031d 1201     		.2byte	0x112
 690 031f BD020000 		.4byte	0x2bd
 691 0323 10       		.byte	0x10
 692 0324 0F       		.uleb128 0xf
 693 0325 73323100 		.ascii	"s21\000"
 694 0329 07       		.byte	0x7
 695 032a 1301     		.2byte	0x113
 696 032c BD020000 		.4byte	0x2bd
 697 0330 14       		.byte	0x14
 698 0331 0F       		.uleb128 0xf
 699 0332 73323200 		.ascii	"s22\000"
 700 0336 07       		.byte	0x7
 701 0337 1401     		.2byte	0x114
 702 0339 BD020000 		.4byte	0x2bd
 703 033d 18       		.byte	0x18
 704 033e 0F       		.uleb128 0xf
 705 033f 73323300 		.ascii	"s23\000"
 706 0343 07       		.byte	0x7
 707 0344 1501     		.2byte	0x115
 708 0346 BD020000 		.4byte	0x2bd
 709 034a 1C       		.byte	0x1c
 710 034b 0F       		.uleb128 0xf
 711 034c 73323400 		.ascii	"s24\000"
 712 0350 07       		.byte	0x7
 713 0351 1601     		.2byte	0x116
 714 0353 BD020000 		.4byte	0x2bd
 715 0357 20       		.byte	0x20
 716 0358 0F       		.uleb128 0xf
 717 0359 73323500 		.ascii	"s25\000"
 718 035d 07       		.byte	0x7
 719 035e 1701     		.2byte	0x117
 720 0360 BD020000 		.4byte	0x2bd
 721 0364 24       		.byte	0x24
 722 0365 0F       		.uleb128 0xf
 723 0366 73323600 		.ascii	"s26\000"
 724 036a 07       		.byte	0x7
 725 036b 1801     		.2byte	0x118
 726 036d BD020000 		.4byte	0x2bd
 727 0371 28       		.byte	0x28
 728 0372 0F       		.uleb128 0xf
 729 0373 73323700 		.ascii	"s27\000"
 730 0377 07       		.byte	0x7
 731 0378 1901     		.2byte	0x119
 732 037a BD020000 		.4byte	0x2bd
 733 037e 2C       		.byte	0x2c
 734 037f 0F       		.uleb128 0xf
 735 0380 73323800 		.ascii	"s28\000"
 736 0384 07       		.byte	0x7
 737 0385 1A01     		.2byte	0x11a
 738 0387 BD020000 		.4byte	0x2bd
 739 038b 30       		.byte	0x30
 740 038c 0F       		.uleb128 0xf
 741 038d 73323900 		.ascii	"s29\000"
ARM GAS  /tmp/ccT5mgKJ.s 			page 14


 742 0391 07       		.byte	0x7
 743 0392 1B01     		.2byte	0x11b
 744 0394 BD020000 		.4byte	0x2bd
 745 0398 34       		.byte	0x34
 746 0399 0F       		.uleb128 0xf
 747 039a 73333000 		.ascii	"s30\000"
 748 039e 07       		.byte	0x7
 749 039f 1C01     		.2byte	0x11c
 750 03a1 BD020000 		.4byte	0x2bd
 751 03a5 38       		.byte	0x38
 752 03a6 0F       		.uleb128 0xf
 753 03a7 73333100 		.ascii	"s31\000"
 754 03ab 07       		.byte	0x7
 755 03ac 1D01     		.2byte	0x11d
 756 03ae BD020000 		.4byte	0x2bd
 757 03b2 3C       		.byte	0x3c
 758 03b3 0F       		.uleb128 0xf
 759 03b4 723400   		.ascii	"r4\000"
 760 03b7 07       		.byte	0x7
 761 03b8 1F01     		.2byte	0x11f
 762 03ba BD020000 		.4byte	0x2bd
 763 03be 40       		.byte	0x40
 764 03bf 0F       		.uleb128 0xf
 765 03c0 723500   		.ascii	"r5\000"
 766 03c3 07       		.byte	0x7
 767 03c4 2001     		.2byte	0x120
 768 03c6 BD020000 		.4byte	0x2bd
 769 03ca 44       		.byte	0x44
 770 03cb 0F       		.uleb128 0xf
 771 03cc 723600   		.ascii	"r6\000"
 772 03cf 07       		.byte	0x7
 773 03d0 2101     		.2byte	0x121
 774 03d2 BD020000 		.4byte	0x2bd
 775 03d6 48       		.byte	0x48
 776 03d7 0F       		.uleb128 0xf
 777 03d8 723700   		.ascii	"r7\000"
 778 03db 07       		.byte	0x7
 779 03dc 2201     		.2byte	0x122
 780 03de BD020000 		.4byte	0x2bd
 781 03e2 4C       		.byte	0x4c
 782 03e3 0F       		.uleb128 0xf
 783 03e4 723800   		.ascii	"r8\000"
 784 03e7 07       		.byte	0x7
 785 03e8 2301     		.2byte	0x123
 786 03ea BD020000 		.4byte	0x2bd
 787 03ee 50       		.byte	0x50
 788 03ef 0F       		.uleb128 0xf
 789 03f0 723900   		.ascii	"r9\000"
 790 03f3 07       		.byte	0x7
 791 03f4 2401     		.2byte	0x124
 792 03f6 BD020000 		.4byte	0x2bd
 793 03fa 54       		.byte	0x54
 794 03fb 0F       		.uleb128 0xf
 795 03fc 72313000 		.ascii	"r10\000"
 796 0400 07       		.byte	0x7
 797 0401 2501     		.2byte	0x125
 798 0403 BD020000 		.4byte	0x2bd
ARM GAS  /tmp/ccT5mgKJ.s 			page 15


 799 0407 58       		.byte	0x58
 800 0408 0F       		.uleb128 0xf
 801 0409 72313100 		.ascii	"r11\000"
 802 040d 07       		.byte	0x7
 803 040e 2601     		.2byte	0x126
 804 0410 BD020000 		.4byte	0x2bd
 805 0414 5C       		.byte	0x5c
 806 0415 0F       		.uleb128 0xf
 807 0416 6C7200   		.ascii	"lr\000"
 808 0419 07       		.byte	0x7
 809 041a 2701     		.2byte	0x127
 810 041c BD020000 		.4byte	0x2bd
 811 0420 60       		.byte	0x60
 812 0421 00       		.byte	0
 813 0422 0E       		.uleb128 0xe
 814 0423 FD070000 		.4byte	.LASF54
 815 0427 04       		.byte	0x4
 816 0428 07       		.byte	0x7
 817 0429 3101     		.2byte	0x131
 818 042b 3D040000 		.4byte	0x43d
 819 042f 0F       		.uleb128 0xf
 820 0430 72313300 		.ascii	"r13\000"
 821 0434 07       		.byte	0x7
 822 0435 3201     		.2byte	0x132
 823 0437 3D040000 		.4byte	0x43d
 824 043b 00       		.byte	0
 825 043c 00       		.byte	0
 826 043d 0B       		.uleb128 0xb
 827 043e 04       		.byte	0x4
 828 043f D6020000 		.4byte	0x2d6
 829 0443 04       		.uleb128 0x4
 830 0444 8F070000 		.4byte	.LASF55
 831 0448 08       		.byte	0x8
 832 0449 3A       		.byte	0x3a
 833 044a D3000000 		.4byte	0xd3
 834 044e 0A       		.uleb128 0xa
 835 044f 10       		.byte	0x10
 836 0450 08       		.byte	0x8
 837 0451 F1       		.byte	0xf1
 838 0452 87040000 		.4byte	0x487
 839 0456 08       		.uleb128 0x8
 840 0457 0D070000 		.4byte	.LASF56
 841 045b 08       		.byte	0x8
 842 045c F2       		.byte	0xf2
 843 045d 43040000 		.4byte	0x443
 844 0461 00       		.byte	0
 845 0462 08       		.uleb128 0x8
 846 0463 5A000000 		.4byte	.LASF57
 847 0467 08       		.byte	0x8
 848 0468 F3       		.byte	0xf3
 849 0469 43040000 		.4byte	0x443
 850 046d 04       		.byte	0x4
 851 046e 08       		.uleb128 0x8
 852 046f 9F010000 		.4byte	.LASF58
 853 0473 08       		.byte	0x8
 854 0474 F4       		.byte	0xf4
 855 0475 43040000 		.4byte	0x443
ARM GAS  /tmp/ccT5mgKJ.s 			page 16


 856 0479 08       		.byte	0x8
 857 047a 08       		.uleb128 0x8
 858 047b 68060000 		.4byte	.LASF59
 859 047f 08       		.byte	0x8
 860 0480 F5       		.byte	0xf5
 861 0481 43040000 		.4byte	0x443
 862 0485 0C       		.byte	0xc
 863 0486 00       		.byte	0
 864 0487 04       		.uleb128 0x4
 865 0488 A5010000 		.4byte	.LASF60
 866 048c 08       		.byte	0x8
 867 048d F6       		.byte	0xf6
 868 048e 4E040000 		.4byte	0x44e
 869 0492 10       		.uleb128 0x10
 870 0493 20       		.byte	0x20
 871 0494 08       		.byte	0x8
 872 0495 0601     		.2byte	0x106
 873 0497 04050000 		.4byte	0x504
 874 049b 11       		.uleb128 0x11
 875 049c 63060000 		.4byte	.LASF61
 876 04a0 08       		.byte	0x8
 877 04a1 0701     		.2byte	0x107
 878 04a3 43040000 		.4byte	0x443
 879 04a7 00       		.byte	0
 880 04a8 11       		.uleb128 0x11
 881 04a9 E7040000 		.4byte	.LASF62
 882 04ad 08       		.byte	0x8
 883 04ae 0801     		.2byte	0x108
 884 04b0 43040000 		.4byte	0x443
 885 04b4 04       		.byte	0x4
 886 04b5 11       		.uleb128 0x11
 887 04b6 7C020000 		.4byte	.LASF63
 888 04ba 08       		.byte	0x8
 889 04bb 0901     		.2byte	0x109
 890 04bd 43040000 		.4byte	0x443
 891 04c1 08       		.byte	0x8
 892 04c2 11       		.uleb128 0x11
 893 04c3 D1080000 		.4byte	.LASF64
 894 04c7 08       		.byte	0x8
 895 04c8 0A01     		.2byte	0x10a
 896 04ca 43040000 		.4byte	0x443
 897 04ce 0C       		.byte	0xc
 898 04cf 11       		.uleb128 0x11
 899 04d0 E3020000 		.4byte	.LASF65
 900 04d4 08       		.byte	0x8
 901 04d5 0B01     		.2byte	0x10b
 902 04d7 43040000 		.4byte	0x443
 903 04db 10       		.byte	0x10
 904 04dc 11       		.uleb128 0x11
 905 04dd 54070000 		.4byte	.LASF66
 906 04e1 08       		.byte	0x8
 907 04e2 0C01     		.2byte	0x10c
 908 04e4 43040000 		.4byte	0x443
 909 04e8 14       		.byte	0x14
 910 04e9 11       		.uleb128 0x11
 911 04ea 0D080000 		.4byte	.LASF67
 912 04ee 08       		.byte	0x8
ARM GAS  /tmp/ccT5mgKJ.s 			page 17


 913 04ef 0D01     		.2byte	0x10d
 914 04f1 43040000 		.4byte	0x443
 915 04f5 18       		.byte	0x18
 916 04f6 11       		.uleb128 0x11
 917 04f7 5E060000 		.4byte	.LASF68
 918 04fb 08       		.byte	0x8
 919 04fc 0E01     		.2byte	0x10e
 920 04fe 43040000 		.4byte	0x443
 921 0502 1C       		.byte	0x1c
 922 0503 00       		.byte	0
 923 0504 12       		.uleb128 0x12
 924 0505 85080000 		.4byte	.LASF69
 925 0509 08       		.byte	0x8
 926 050a 0F01     		.2byte	0x10f
 927 050c 92040000 		.4byte	0x492
 928 0510 04       		.uleb128 0x4
 929 0511 C7070000 		.4byte	.LASF70
 930 0515 09       		.byte	0x9
 931 0516 58       		.byte	0x58
 932 0517 1B050000 		.4byte	0x51b
 933 051b 0B       		.uleb128 0xb
 934 051c 04       		.byte	0x4
 935 051d 21050000 		.4byte	0x521
 936 0521 13       		.uleb128 0x13
 937 0522 2C050000 		.4byte	0x52c
 938 0526 14       		.uleb128 0x14
 939 0527 C8020000 		.4byte	0x2c8
 940 052b 00       		.byte	0
 941 052c 04       		.uleb128 0x4
 942 052d 20000000 		.4byte	.LASF71
 943 0531 09       		.byte	0x9
 944 0532 5D       		.byte	0x5d
 945 0533 37050000 		.4byte	0x537
 946 0537 07       		.uleb128 0x7
 947 0538 20000000 		.4byte	.LASF71
 948 053c 14       		.byte	0x14
 949 053d 09       		.byte	0x9
 950 053e 64       		.byte	0x64
 951 053f 80050000 		.4byte	0x580
 952 0543 08       		.uleb128 0x8
 953 0544 B5030000 		.4byte	.LASF72
 954 0548 09       		.byte	0x9
 955 0549 65       		.byte	0x65
 956 054a 80050000 		.4byte	0x580
 957 054e 00       		.byte	0
 958 054f 08       		.uleb128 0x8
 959 0550 45030000 		.4byte	.LASF73
 960 0554 09       		.byte	0x9
 961 0555 67       		.byte	0x67
 962 0556 80050000 		.4byte	0x580
 963 055a 04       		.byte	0x4
 964 055b 08       		.uleb128 0x8
 965 055c EE040000 		.4byte	.LASF74
 966 0560 09       		.byte	0x9
 967 0561 69       		.byte	0x69
 968 0562 3C010000 		.4byte	0x13c
 969 0566 08       		.byte	0x8
ARM GAS  /tmp/ccT5mgKJ.s 			page 18


 970 0567 08       		.uleb128 0x8
 971 0568 01090000 		.4byte	.LASF75
 972 056c 09       		.byte	0x9
 973 056d 6A       		.byte	0x6a
 974 056e 10050000 		.4byte	0x510
 975 0572 0C       		.byte	0xc
 976 0573 08       		.uleb128 0x8
 977 0574 3E080000 		.4byte	.LASF76
 978 0578 09       		.byte	0x9
 979 0579 6C       		.byte	0x6c
 980 057a C8020000 		.4byte	0x2c8
 981 057e 10       		.byte	0x10
 982 057f 00       		.byte	0
 983 0580 0B       		.uleb128 0xb
 984 0581 04       		.byte	0x4
 985 0582 2C050000 		.4byte	0x52c
 986 0586 0A       		.uleb128 0xa
 987 0587 10       		.byte	0x10
 988 0588 09       		.byte	0x9
 989 0589 76       		.byte	0x76
 990 058a BF050000 		.4byte	0x5bf
 991 058e 08       		.uleb128 0x8
 992 058f B5030000 		.4byte	.LASF72
 993 0593 09       		.byte	0x9
 994 0594 77       		.byte	0x77
 995 0595 80050000 		.4byte	0x580
 996 0599 00       		.byte	0
 997 059a 08       		.uleb128 0x8
 998 059b 45030000 		.4byte	.LASF73
 999 059f 09       		.byte	0x9
 1000 05a0 79       		.byte	0x79
 1001 05a1 80050000 		.4byte	0x580
 1002 05a5 04       		.byte	0x4
 1003 05a6 08       		.uleb128 0x8
 1004 05a7 EE040000 		.4byte	.LASF74
 1005 05ab 09       		.byte	0x9
 1006 05ac 7B       		.byte	0x7b
 1007 05ad 3C010000 		.4byte	0x13c
 1008 05b1 08       		.byte	0x8
 1009 05b2 08       		.uleb128 0x8
 1010 05b3 C6030000 		.4byte	.LASF77
 1011 05b7 09       		.byte	0x9
 1012 05b8 7C       		.byte	0x7c
 1013 05b9 47010000 		.4byte	0x147
 1014 05bd 0C       		.byte	0xc
 1015 05be 00       		.byte	0
 1016 05bf 04       		.uleb128 0x4
 1017 05c0 CA080000 		.4byte	.LASF78
 1018 05c4 09       		.byte	0x9
 1019 05c5 7D       		.byte	0x7d
 1020 05c6 86050000 		.4byte	0x586
 1021 05ca 15       		.uleb128 0x15
 1022 05cb 4D030000 		.4byte	.LASF86
 1023 05cf 09       		.byte	0x9
 1024 05d0 F5       		.byte	0xf5
 1025 05d1 BF050000 		.4byte	0x5bf
 1026 05d5 0A       		.uleb128 0xa
ARM GAS  /tmp/ccT5mgKJ.s 			page 19


 1027 05d6 1C       		.byte	0x1c
 1028 05d7 0A       		.byte	0xa
 1029 05d8 5E       		.byte	0x5e
 1030 05d9 26060000 		.4byte	0x626
 1031 05dd 08       		.uleb128 0x8
 1032 05de 70070000 		.4byte	.LASF79
 1033 05e2 0A       		.byte	0xa
 1034 05e3 5F       		.byte	0x5f
 1035 05e4 92020000 		.4byte	0x292
 1036 05e8 00       		.byte	0
 1037 05e9 08       		.uleb128 0x8
 1038 05ea D9060000 		.4byte	.LASF80
 1039 05ee 0A       		.byte	0xa
 1040 05ef 60       		.byte	0x60
 1041 05f0 1B010000 		.4byte	0x11b
 1042 05f4 08       		.byte	0x8
 1043 05f5 08       		.uleb128 0x8
 1044 05f6 89050000 		.4byte	.LASF81
 1045 05fa 0A       		.byte	0xa
 1046 05fb 62       		.byte	0x62
 1047 05fc 22040000 		.4byte	0x422
 1048 0600 0C       		.byte	0xc
 1049 0601 08       		.uleb128 0x8
 1050 0602 34030000 		.4byte	.LASF82
 1051 0606 0A       		.byte	0xa
 1052 0607 65       		.byte	0x65
 1053 0608 8C020000 		.4byte	0x28c
 1054 060c 10       		.byte	0x10
 1055 060d 08       		.uleb128 0x8
 1056 060e 05080000 		.4byte	.LASF83
 1057 0612 0A       		.byte	0xa
 1058 0613 66       		.byte	0x66
 1059 0614 8C020000 		.4byte	0x28c
 1060 0618 14       		.byte	0x14
 1061 0619 08       		.uleb128 0x8
 1062 061a B6050000 		.4byte	.LASF84
 1063 061e 0A       		.byte	0xa
 1064 061f 69       		.byte	0x69
 1065 0620 8C020000 		.4byte	0x28c
 1066 0624 18       		.byte	0x18
 1067 0625 00       		.byte	0
 1068 0626 04       		.uleb128 0x4
 1069 0627 67080000 		.4byte	.LASF85
 1070 062b 0A       		.byte	0xa
 1071 062c 6B       		.byte	0x6b
 1072 062d D5050000 		.4byte	0x5d5
 1073 0631 15       		.uleb128 0x15
 1074 0632 7F080000 		.4byte	.LASF87
 1075 0636 0A       		.byte	0xa
 1076 0637 6F       		.byte	0x6f
 1077 0638 26060000 		.4byte	0x626
 1078 063c 07       		.uleb128 0x7
 1079 063d 3E050000 		.4byte	.LASF88
 1080 0641 10       		.byte	0x10
 1081 0642 0B       		.byte	0xb
 1082 0643 2C       		.byte	0x2c
 1083 0644 6D060000 		.4byte	0x66d
ARM GAS  /tmp/ccT5mgKJ.s 			page 20


 1084 0648 08       		.uleb128 0x8
 1085 0649 83020000 		.4byte	.LASF89
 1086 064d 0B       		.byte	0xb
 1087 064e 2D       		.byte	0x2d
 1088 064f 92020000 		.4byte	0x292
 1089 0653 00       		.byte	0
 1090 0654 08       		.uleb128 0x8
 1091 0655 D8080000 		.4byte	.LASF90
 1092 0659 0B       		.byte	0xb
 1093 065a 2F       		.byte	0x2f
 1094 065b 8C020000 		.4byte	0x28c
 1095 065f 08       		.byte	0x8
 1096 0660 08       		.uleb128 0x8
 1097 0661 AB070000 		.4byte	.LASF91
 1098 0665 0B       		.byte	0xb
 1099 0666 31       		.byte	0x31
 1100 0667 6D060000 		.4byte	0x66d
 1101 066b 0C       		.byte	0xc
 1102 066c 00       		.byte	0
 1103 066d 0B       		.uleb128 0xb
 1104 066e 04       		.byte	0x4
 1105 066f 3C060000 		.4byte	0x63c
 1106 0673 04       		.uleb128 0x4
 1107 0674 3E050000 		.4byte	.LASF88
 1108 0678 0B       		.byte	0xb
 1109 0679 33       		.byte	0x33
 1110 067a 3C060000 		.4byte	0x63c
 1111 067e 16       		.uleb128 0x16
 1112 067f 04       		.byte	0x4
 1113 0680 06       		.byte	0x6
 1114 0681 96       		.byte	0x96
 1115 0682 B3060000 		.4byte	0x6b3
 1116 0686 17       		.uleb128 0x17
 1117 0687 39000000 		.4byte	.LASF92
 1118 068b 06       		.byte	0x6
 1119 068c 9D       		.byte	0x9d
 1120 068d 26010000 		.4byte	0x126
 1121 0691 17       		.uleb128 0x17
 1122 0692 D7010000 		.4byte	.LASF93
 1123 0696 06       		.byte	0x6
 1124 0697 A4       		.byte	0xa4
 1125 0698 26010000 		.4byte	0x126
 1126 069c 17       		.uleb128 0x17
 1127 069d 95080000 		.4byte	.LASF94
 1128 06a1 06       		.byte	0x6
 1129 06a2 AB       		.byte	0xab
 1130 06a3 C8020000 		.4byte	0x2c8
 1131 06a7 17       		.uleb128 0x17
 1132 06a8 E7060000 		.4byte	.LASF95
 1133 06ac 06       		.byte	0x6
 1134 06ad B2       		.byte	0xb2
 1135 06ae 31010000 		.4byte	0x131
 1136 06b2 00       		.byte	0
 1137 06b3 0B       		.uleb128 0xb
 1138 06b4 04       		.byte	0x4
 1139 06b5 C0060000 		.4byte	0x6c0
 1140 06b9 03       		.uleb128 0x3
ARM GAS  /tmp/ccT5mgKJ.s 			page 21


 1141 06ba 01       		.byte	0x1
 1142 06bb 08       		.byte	0x8
 1143 06bc 8A070000 		.4byte	.LASF96
 1144 06c0 06       		.uleb128 0x6
 1145 06c1 B9060000 		.4byte	0x6b9
 1146 06c5 0B       		.uleb128 0xb
 1147 06c6 04       		.byte	0x4
 1148 06c7 CA020000 		.4byte	0x2ca
 1149 06cb 0B       		.uleb128 0xb
 1150 06cc 04       		.byte	0x4
 1151 06cd 73060000 		.4byte	0x673
 1152 06d1 0A       		.uleb128 0xa
 1153 06d2 16       		.byte	0x16
 1154 06d3 0C       		.byte	0xc
 1155 06d4 2C       		.byte	0x2c
 1156 06d5 B2070000 		.4byte	0x7b2
 1157 06d9 08       		.uleb128 0x8
 1158 06da F3080000 		.4byte	.LASF97
 1159 06de 0C       		.byte	0xc
 1160 06df 2D       		.byte	0x2d
 1161 06e0 B2070000 		.4byte	0x7b2
 1162 06e4 00       		.byte	0
 1163 06e5 08       		.uleb128 0x8
 1164 06e6 D3040000 		.4byte	.LASF98
 1165 06ea 0C       		.byte	0xc
 1166 06eb 2E       		.byte	0x2e
 1167 06ec A2000000 		.4byte	0xa2
 1168 06f0 04       		.byte	0x4
 1169 06f1 08       		.uleb128 0x8
 1170 06f2 A2050000 		.4byte	.LASF99
 1171 06f6 0C       		.byte	0xc
 1172 06f7 2F       		.byte	0x2f
 1173 06f8 A2000000 		.4byte	0xa2
 1174 06fc 05       		.byte	0x5
 1175 06fd 08       		.uleb128 0x8
 1176 06fe BF080000 		.4byte	.LASF100
 1177 0702 0C       		.byte	0xc
 1178 0703 30       		.byte	0x30
 1179 0704 AD000000 		.4byte	0xad
 1180 0708 06       		.byte	0x6
 1181 0709 08       		.uleb128 0x8
 1182 070a 09060000 		.4byte	.LASF101
 1183 070e 0C       		.byte	0xc
 1184 070f 31       		.byte	0x31
 1185 0710 A2000000 		.4byte	0xa2
 1186 0714 08       		.byte	0x8
 1187 0715 08       		.uleb128 0x8
 1188 0716 44050000 		.4byte	.LASF102
 1189 071a 0C       		.byte	0xc
 1190 071b 32       		.byte	0x32
 1191 071c A2000000 		.4byte	0xa2
 1192 0720 09       		.byte	0x9
 1193 0721 08       		.uleb128 0x8
 1194 0722 C9010000 		.4byte	.LASF103
 1195 0726 0C       		.byte	0xc
 1196 0727 33       		.byte	0x33
 1197 0728 A2000000 		.4byte	0xa2
ARM GAS  /tmp/ccT5mgKJ.s 			page 22


 1198 072c 0A       		.byte	0xa
 1199 072d 08       		.uleb128 0x8
 1200 072e 64070000 		.4byte	.LASF104
 1201 0732 0C       		.byte	0xc
 1202 0733 34       		.byte	0x34
 1203 0734 A2000000 		.4byte	0xa2
 1204 0738 0B       		.byte	0xb
 1205 0739 08       		.uleb128 0x8
 1206 073a 55080000 		.4byte	.LASF105
 1207 073e 0C       		.byte	0xc
 1208 073f 35       		.byte	0x35
 1209 0740 A2000000 		.4byte	0xa2
 1210 0744 0C       		.byte	0xc
 1211 0745 08       		.uleb128 0x8
 1212 0746 2D070000 		.4byte	.LASF106
 1213 074a 0C       		.byte	0xc
 1214 074b 36       		.byte	0x36
 1215 074c A2000000 		.4byte	0xa2
 1216 0750 0D       		.byte	0xd
 1217 0751 08       		.uleb128 0x8
 1218 0752 13000000 		.4byte	.LASF107
 1219 0756 0C       		.byte	0xc
 1220 0757 37       		.byte	0x37
 1221 0758 A2000000 		.4byte	0xa2
 1222 075c 0E       		.byte	0xe
 1223 075d 08       		.uleb128 0x8
 1224 075e 75050000 		.4byte	.LASF108
 1225 0762 0C       		.byte	0xc
 1226 0763 38       		.byte	0x38
 1227 0764 A2000000 		.4byte	0xa2
 1228 0768 0F       		.byte	0xf
 1229 0769 08       		.uleb128 0x8
 1230 076a 49020000 		.4byte	.LASF109
 1231 076e 0C       		.byte	0xc
 1232 076f 39       		.byte	0x39
 1233 0770 A2000000 		.4byte	0xa2
 1234 0774 10       		.byte	0x10
 1235 0775 08       		.uleb128 0x8
 1236 0776 11020000 		.4byte	.LASF110
 1237 077a 0C       		.byte	0xc
 1238 077b 3B       		.byte	0x3b
 1239 077c A2000000 		.4byte	0xa2
 1240 0780 11       		.byte	0x11
 1241 0781 08       		.uleb128 0x8
 1242 0782 67020000 		.4byte	.LASF111
 1243 0786 0C       		.byte	0xc
 1244 0787 3C       		.byte	0x3c
 1245 0788 A2000000 		.4byte	0xa2
 1246 078c 12       		.byte	0x12
 1247 078d 08       		.uleb128 0x8
 1248 078e DB040000 		.4byte	.LASF112
 1249 0792 0C       		.byte	0xc
 1250 0793 3D       		.byte	0x3d
 1251 0794 A2000000 		.4byte	0xa2
 1252 0798 13       		.byte	0x13
 1253 0799 08       		.uleb128 0x8
 1254 079a EE060000 		.4byte	.LASF113
ARM GAS  /tmp/ccT5mgKJ.s 			page 23


 1255 079e 0C       		.byte	0xc
 1256 079f 3E       		.byte	0x3e
 1257 07a0 A2000000 		.4byte	0xa2
 1258 07a4 14       		.byte	0x14
 1259 07a5 08       		.uleb128 0x8
 1260 07a6 C3060000 		.4byte	.LASF114
 1261 07aa 0C       		.byte	0xc
 1262 07ab 40       		.byte	0x40
 1263 07ac A2000000 		.4byte	0xa2
 1264 07b0 15       		.byte	0x15
 1265 07b1 00       		.byte	0
 1266 07b2 18       		.uleb128 0x18
 1267 07b3 B9060000 		.4byte	0x6b9
 1268 07b7 C2070000 		.4byte	0x7c2
 1269 07bb 19       		.uleb128 0x19
 1270 07bc 2C000000 		.4byte	0x2c
 1271 07c0 03       		.byte	0x3
 1272 07c1 00       		.byte	0
 1273 07c2 04       		.uleb128 0x4
 1274 07c3 D9020000 		.4byte	.LASF115
 1275 07c7 0C       		.byte	0xc
 1276 07c8 41       		.byte	0x41
 1277 07c9 D1060000 		.4byte	0x6d1
 1278 07cd 06       		.uleb128 0x6
 1279 07ce C2070000 		.4byte	0x7c2
 1280 07d2 15       		.uleb128 0x15
 1281 07d3 DC030000 		.4byte	.LASF116
 1282 07d7 0C       		.byte	0xc
 1283 07d8 7E       		.byte	0x7e
 1284 07d9 CD070000 		.4byte	0x7cd
 1285 07dd 0A       		.uleb128 0xa
 1286 07de 10       		.byte	0x10
 1287 07df 0D       		.byte	0xd
 1288 07e0 71       		.byte	0x71
 1289 07e1 16080000 		.4byte	0x816
 1290 07e5 08       		.uleb128 0x8
 1291 07e6 8F030000 		.4byte	.LASF117
 1292 07ea 0D       		.byte	0xd
 1293 07eb 72       		.byte	0x72
 1294 07ec 3C010000 		.4byte	0x13c
 1295 07f0 00       		.byte	0
 1296 07f1 08       		.uleb128 0x8
 1297 07f2 D3020000 		.4byte	.LASF118
 1298 07f6 0D       		.byte	0xd
 1299 07f7 73       		.byte	0x73
 1300 07f8 8C020000 		.4byte	0x28c
 1301 07fc 04       		.byte	0x4
 1302 07fd 08       		.uleb128 0x8
 1303 07fe 00040000 		.4byte	.LASF119
 1304 0802 0D       		.byte	0xd
 1305 0803 74       		.byte	0x74
 1306 0804 C8020000 		.4byte	0x2c8
 1307 0808 08       		.byte	0x8
 1308 0809 08       		.uleb128 0x8
 1309 080a 76080000 		.4byte	.LASF120
 1310 080e 0D       		.byte	0xd
 1311 080f 75       		.byte	0x75
ARM GAS  /tmp/ccT5mgKJ.s 			page 24


 1312 0810 A2000000 		.4byte	0xa2
 1313 0814 0C       		.byte	0xc
 1314 0815 00       		.byte	0
 1315 0816 04       		.uleb128 0x4
 1316 0817 5E050000 		.4byte	.LASF121
 1317 081b 0D       		.byte	0xd
 1318 081c 76       		.byte	0x76
 1319 081d DD070000 		.4byte	0x7dd
 1320 0821 1A       		.uleb128 0x1a
 1321 0822 0804     		.2byte	0x408
 1322 0824 0D       		.byte	0xd
 1323 0825 7B       		.byte	0x7b
 1324 0826 4F080000 		.4byte	0x84f
 1325 082a 08       		.uleb128 0x8
 1326 082b 2C030000 		.4byte	.LASF122
 1327 082f 0D       		.byte	0xd
 1328 0830 7C       		.byte	0x7c
 1329 0831 2C000000 		.4byte	0x2c
 1330 0835 00       		.byte	0
 1331 0836 08       		.uleb128 0x8
 1332 0837 50050000 		.4byte	.LASF123
 1333 083b 0D       		.byte	0xd
 1334 083c 7D       		.byte	0x7d
 1335 083d 4F080000 		.4byte	0x84f
 1336 0841 04       		.byte	0x4
 1337 0842 08       		.uleb128 0x8
 1338 0843 7F040000 		.4byte	.LASF124
 1339 0847 0D       		.byte	0xd
 1340 0848 7F       		.byte	0x7f
 1341 0849 55080000 		.4byte	0x855
 1342 084d 08       		.byte	0x8
 1343 084e 00       		.byte	0
 1344 084f 0B       		.uleb128 0xb
 1345 0850 04       		.byte	0x4
 1346 0851 16080000 		.4byte	0x816
 1347 0855 18       		.uleb128 0x18
 1348 0856 16080000 		.4byte	0x816
 1349 085a 65080000 		.4byte	0x865
 1350 085e 19       		.uleb128 0x19
 1351 085f 2C000000 		.4byte	0x2c
 1352 0863 3F       		.byte	0x3f
 1353 0864 00       		.byte	0
 1354 0865 04       		.uleb128 0x4
 1355 0866 B7010000 		.4byte	.LASF125
 1356 086a 0D       		.byte	0xd
 1357 086b 80       		.byte	0x80
 1358 086c 21080000 		.4byte	0x821
 1359 0870 15       		.uleb128 0x15
 1360 0871 DB050000 		.4byte	.LASF126
 1361 0875 0D       		.byte	0xd
 1362 0876 83       		.byte	0x83
 1363 0877 65080000 		.4byte	0x865
 1364 087b 15       		.uleb128 0x15
 1365 087c 89040000 		.4byte	.LASF127
 1366 0880 0D       		.byte	0xd
 1367 0881 E2       		.byte	0xe2
 1368 0882 4C010000 		.4byte	0x14c
ARM GAS  /tmp/ccT5mgKJ.s 			page 25


 1369 0886 15       		.uleb128 0x15
 1370 0887 E0070000 		.4byte	.LASF128
 1371 088b 0D       		.byte	0xd
 1372 088c E3       		.byte	0xe3
 1373 088d 4C010000 		.4byte	0x14c
 1374 0891 15       		.uleb128 0x15
 1375 0892 8A060000 		.4byte	.LASF129
 1376 0896 0D       		.byte	0xd
 1377 0897 F5       		.byte	0xf5
 1378 0898 B3060000 		.4byte	0x6b3
 1379 089c 1B       		.uleb128 0x1b
 1380 089d CA020000 		.4byte	0x2ca
 1381 08a1 08       		.byte	0x8
 1382 08a2 AD080000 		.4byte	0x8ad
 1383 08a6 19       		.uleb128 0x19
 1384 08a7 2C000000 		.4byte	0x2c
 1385 08ab 3A       		.byte	0x3a
 1386 08ac 00       		.byte	0
 1387 08ad 15       		.uleb128 0x15
 1388 08ae F4020000 		.4byte	.LASF130
 1389 08b2 0E       		.byte	0xe
 1390 08b3 89       		.byte	0x89
 1391 08b4 9C080000 		.4byte	0x89c
 1392 08b8 10       		.uleb128 0x10
 1393 08b9 10       		.byte	0x10
 1394 08ba 0F       		.byte	0xf
 1395 08bb 6002     		.2byte	0x260
 1396 08bd F6080000 		.4byte	0x8f6
 1397 08c1 11       		.uleb128 0x11
 1398 08c2 63060000 		.4byte	.LASF61
 1399 08c6 0F       		.byte	0xf
 1400 08c7 6202     		.2byte	0x262
 1401 08c9 D3000000 		.4byte	0xd3
 1402 08cd 00       		.byte	0
 1403 08ce 11       		.uleb128 0x11
 1404 08cf 39050000 		.4byte	.LASF131
 1405 08d3 0F       		.byte	0xf
 1406 08d4 6302     		.2byte	0x263
 1407 08d6 D3000000 		.4byte	0xd3
 1408 08da 04       		.byte	0x4
 1409 08db 0F       		.uleb128 0xf
 1410 08dc 56414C00 		.ascii	"VAL\000"
 1411 08e0 0F       		.byte	0xf
 1412 08e1 6402     		.2byte	0x264
 1413 08e3 D3000000 		.4byte	0xd3
 1414 08e7 08       		.byte	0x8
 1415 08e8 11       		.uleb128 0x11
 1416 08e9 0A040000 		.4byte	.LASF132
 1417 08ed 0F       		.byte	0xf
 1418 08ee 6502     		.2byte	0x265
 1419 08f0 D8000000 		.4byte	0xd8
 1420 08f4 0C       		.byte	0xc
 1421 08f5 00       		.byte	0
 1422 08f6 12       		.uleb128 0x12
 1423 08f7 1F030000 		.4byte	.LASF133
 1424 08fb 0F       		.byte	0xf
 1425 08fc 6602     		.2byte	0x266
ARM GAS  /tmp/ccT5mgKJ.s 			page 26


 1426 08fe B8080000 		.4byte	0x8b8
 1427 0902 18       		.uleb128 0x18
 1428 0903 C8000000 		.4byte	0xc8
 1429 0907 12090000 		.4byte	0x912
 1430 090b 19       		.uleb128 0x19
 1431 090c 2C000000 		.4byte	0x2c
 1432 0910 01       		.byte	0x1
 1433 0911 00       		.byte	0
 1434 0912 1C       		.uleb128 0x1c
 1435 0913 F3010000 		.4byte	.LASF134
 1436 0917 0F       		.byte	0xf
 1437 0918 9806     		.2byte	0x698
 1438 091a C3000000 		.4byte	0xc3
 1439 091e 10       		.uleb128 0x10
 1440 091f 18       		.byte	0x18
 1441 0920 10       		.byte	0x10
 1442 0921 B102     		.2byte	0x2b1
 1443 0923 75090000 		.4byte	0x975
 1444 0927 0F       		.uleb128 0xf
 1445 0928 435200   		.ascii	"CR\000"
 1446 092b 10       		.byte	0x10
 1447 092c B302     		.2byte	0x2b3
 1448 092e D3000000 		.4byte	0xd3
 1449 0932 00       		.byte	0
 1450 0933 11       		.uleb128 0x11
 1451 0934 DB070000 		.4byte	.LASF135
 1452 0938 10       		.byte	0x10
 1453 0939 B402     		.2byte	0x2b4
 1454 093b D3000000 		.4byte	0xd3
 1455 093f 04       		.byte	0x4
 1456 0940 0F       		.uleb128 0xf
 1457 0941 50415200 		.ascii	"PAR\000"
 1458 0945 10       		.byte	0x10
 1459 0946 B502     		.2byte	0x2b5
 1460 0948 D3000000 		.4byte	0xd3
 1461 094c 08       		.byte	0x8
 1462 094d 11       		.uleb128 0x11
 1463 094e 2D000000 		.4byte	.LASF136
 1464 0952 10       		.byte	0x10
 1465 0953 B602     		.2byte	0x2b6
 1466 0955 D3000000 		.4byte	0xd3
 1467 0959 0C       		.byte	0xc
 1468 095a 11       		.uleb128 0x11
 1469 095b 2F080000 		.4byte	.LASF137
 1470 095f 10       		.byte	0x10
 1471 0960 B702     		.2byte	0x2b7
 1472 0962 D3000000 		.4byte	0xd3
 1473 0966 10       		.byte	0x10
 1474 0967 0F       		.uleb128 0xf
 1475 0968 46435200 		.ascii	"FCR\000"
 1476 096c 10       		.byte	0x10
 1477 096d B802     		.2byte	0x2b8
 1478 096f D3000000 		.4byte	0xd3
 1479 0973 14       		.byte	0x14
 1480 0974 00       		.byte	0
 1481 0975 12       		.uleb128 0x12
 1482 0976 6C040000 		.4byte	.LASF138
ARM GAS  /tmp/ccT5mgKJ.s 			page 27


 1483 097a 10       		.byte	0x10
 1484 097b B902     		.2byte	0x2b9
 1485 097d 1E090000 		.4byte	0x91e
 1486 0981 10       		.uleb128 0x10
 1487 0982 1C       		.byte	0x1c
 1488 0983 10       		.byte	0x10
 1489 0984 3E03     		.2byte	0x33e
 1490 0986 E4090000 		.4byte	0x9e4
 1491 098a 0F       		.uleb128 0xf
 1492 098b 41435200 		.ascii	"ACR\000"
 1493 098f 10       		.byte	0x10
 1494 0990 4003     		.2byte	0x340
 1495 0992 D3000000 		.4byte	0xd3
 1496 0996 00       		.byte	0
 1497 0997 11       		.uleb128 0x11
 1498 0998 54030000 		.4byte	.LASF139
 1499 099c 10       		.byte	0x10
 1500 099d 4103     		.2byte	0x341
 1501 099f D3000000 		.4byte	0xd3
 1502 09a3 04       		.byte	0x4
 1503 09a4 11       		.uleb128 0x11
 1504 09a5 04030000 		.4byte	.LASF140
 1505 09a9 10       		.byte	0x10
 1506 09aa 4203     		.2byte	0x342
 1507 09ac D3000000 		.4byte	0xd3
 1508 09b0 08       		.byte	0x8
 1509 09b1 0F       		.uleb128 0xf
 1510 09b2 535200   		.ascii	"SR\000"
 1511 09b5 10       		.byte	0x10
 1512 09b6 4303     		.2byte	0x343
 1513 09b8 D3000000 		.4byte	0xd3
 1514 09bc 0C       		.byte	0xc
 1515 09bd 0F       		.uleb128 0xf
 1516 09be 435200   		.ascii	"CR\000"
 1517 09c1 10       		.byte	0x10
 1518 09c2 4403     		.2byte	0x344
 1519 09c4 D3000000 		.4byte	0xd3
 1520 09c8 10       		.byte	0x10
 1521 09c9 11       		.uleb128 0x11
 1522 09ca 92010000 		.4byte	.LASF141
 1523 09ce 10       		.byte	0x10
 1524 09cf 4503     		.2byte	0x345
 1525 09d1 D3000000 		.4byte	0xd3
 1526 09d5 14       		.byte	0x14
 1527 09d6 11       		.uleb128 0x11
 1528 09d7 C9050000 		.4byte	.LASF142
 1529 09db 10       		.byte	0x10
 1530 09dc 4603     		.2byte	0x346
 1531 09de D3000000 		.4byte	0xd3
 1532 09e2 18       		.byte	0x18
 1533 09e3 00       		.byte	0
 1534 09e4 12       		.uleb128 0x12
 1535 09e5 59020000 		.4byte	.LASF143
 1536 09e9 10       		.byte	0x10
 1537 09ea 4703     		.2byte	0x347
 1538 09ec 81090000 		.4byte	0x981
 1539 09f0 10       		.uleb128 0x10
ARM GAS  /tmp/ccT5mgKJ.s 			page 28


 1540 09f1 08       		.byte	0x8
 1541 09f2 10       		.byte	0x10
 1542 09f3 4E04     		.2byte	0x44e
 1543 09f5 130A0000 		.4byte	0xa13
 1544 09f9 0F       		.uleb128 0xf
 1545 09fa 435200   		.ascii	"CR\000"
 1546 09fd 10       		.byte	0x10
 1547 09fe 5004     		.2byte	0x450
 1548 0a00 D3000000 		.4byte	0xd3
 1549 0a04 00       		.byte	0
 1550 0a05 0F       		.uleb128 0xf
 1551 0a06 43535200 		.ascii	"CSR\000"
 1552 0a0a 10       		.byte	0x10
 1553 0a0b 5104     		.2byte	0x451
 1554 0a0d D3000000 		.4byte	0xd3
 1555 0a11 04       		.byte	0x4
 1556 0a12 00       		.byte	0
 1557 0a13 12       		.uleb128 0x12
 1558 0a14 91020000 		.4byte	.LASF144
 1559 0a18 10       		.byte	0x10
 1560 0a19 5204     		.2byte	0x452
 1561 0a1b F0090000 		.4byte	0x9f0
 1562 0a1f 10       		.uleb128 0x10
 1563 0a20 90       		.byte	0x90
 1564 0a21 10       		.byte	0x10
 1565 0a22 5804     		.2byte	0x458
 1566 0a24 C80B0000 		.4byte	0xbc8
 1567 0a28 0F       		.uleb128 0xf
 1568 0a29 435200   		.ascii	"CR\000"
 1569 0a2c 10       		.byte	0x10
 1570 0a2d 5A04     		.2byte	0x45a
 1571 0a2f D3000000 		.4byte	0xd3
 1572 0a33 00       		.byte	0
 1573 0a34 11       		.uleb128 0x11
 1574 0a35 49040000 		.4byte	.LASF145
 1575 0a39 10       		.byte	0x10
 1576 0a3a 5B04     		.2byte	0x45b
 1577 0a3c D3000000 		.4byte	0xd3
 1578 0a40 04       		.byte	0x4
 1579 0a41 11       		.uleb128 0x11
 1580 0a42 B2080000 		.4byte	.LASF146
 1581 0a46 10       		.byte	0x10
 1582 0a47 5C04     		.2byte	0x45c
 1583 0a49 D3000000 		.4byte	0xd3
 1584 0a4d 08       		.byte	0x8
 1585 0a4e 0F       		.uleb128 0xf
 1586 0a4f 43495200 		.ascii	"CIR\000"
 1587 0a53 10       		.byte	0x10
 1588 0a54 5D04     		.2byte	0x45d
 1589 0a56 D3000000 		.4byte	0xd3
 1590 0a5a 0C       		.byte	0xc
 1591 0a5b 11       		.uleb128 0x11
 1592 0a5c 40020000 		.4byte	.LASF147
 1593 0a60 10       		.byte	0x10
 1594 0a61 5E04     		.2byte	0x45e
 1595 0a63 D3000000 		.4byte	0xd3
 1596 0a67 10       		.byte	0x10
ARM GAS  /tmp/ccT5mgKJ.s 			page 29


 1597 0a68 11       		.uleb128 0x11
 1598 0a69 A2070000 		.4byte	.LASF148
 1599 0a6d 10       		.byte	0x10
 1600 0a6e 5F04     		.2byte	0x45f
 1601 0a70 D3000000 		.4byte	0xd3
 1602 0a74 14       		.byte	0x14
 1603 0a75 11       		.uleb128 0x11
 1604 0a76 13070000 		.4byte	.LASF149
 1605 0a7a 10       		.byte	0x10
 1606 0a7b 6004     		.2byte	0x460
 1607 0a7d D3000000 		.4byte	0xd3
 1608 0a81 18       		.byte	0x18
 1609 0a82 11       		.uleb128 0x11
 1610 0a83 FF050000 		.4byte	.LASF150
 1611 0a87 10       		.byte	0x10
 1612 0a88 6104     		.2byte	0x461
 1613 0a8a C8000000 		.4byte	0xc8
 1614 0a8e 1C       		.byte	0x1c
 1615 0a8f 11       		.uleb128 0x11
 1616 0a90 C0050000 		.4byte	.LASF151
 1617 0a94 10       		.byte	0x10
 1618 0a95 6204     		.2byte	0x462
 1619 0a97 D3000000 		.4byte	0xd3
 1620 0a9b 20       		.byte	0x20
 1621 0a9c 11       		.uleb128 0x11
 1622 0a9d B7020000 		.4byte	.LASF152
 1623 0aa1 10       		.byte	0x10
 1624 0aa2 6304     		.2byte	0x463
 1625 0aa4 D3000000 		.4byte	0xd3
 1626 0aa8 24       		.byte	0x24
 1627 0aa9 11       		.uleb128 0x11
 1628 0aaa 23070000 		.4byte	.LASF153
 1629 0aae 10       		.byte	0x10
 1630 0aaf 6404     		.2byte	0x464
 1631 0ab1 02090000 		.4byte	0x902
 1632 0ab5 28       		.byte	0x28
 1633 0ab6 11       		.uleb128 0x11
 1634 0ab7 A3080000 		.4byte	.LASF154
 1635 0abb 10       		.byte	0x10
 1636 0abc 6504     		.2byte	0x465
 1637 0abe D3000000 		.4byte	0xd3
 1638 0ac2 30       		.byte	0x30
 1639 0ac3 11       		.uleb128 0x11
 1640 0ac4 F5070000 		.4byte	.LASF155
 1641 0ac8 10       		.byte	0x10
 1642 0ac9 6604     		.2byte	0x466
 1643 0acb D3000000 		.4byte	0xd3
 1644 0acf 34       		.byte	0x34
 1645 0ad0 11       		.uleb128 0x11
 1646 0ad1 6D050000 		.4byte	.LASF156
 1647 0ad5 10       		.byte	0x10
 1648 0ad6 6704     		.2byte	0x467
 1649 0ad8 D3000000 		.4byte	0xd3
 1650 0adc 38       		.byte	0x38
 1651 0add 11       		.uleb128 0x11
 1652 0ade 14060000 		.4byte	.LASF157
 1653 0ae2 10       		.byte	0x10
ARM GAS  /tmp/ccT5mgKJ.s 			page 30


 1654 0ae3 6804     		.2byte	0x468
 1655 0ae5 C8000000 		.4byte	0xc8
 1656 0ae9 3C       		.byte	0x3c
 1657 0aea 11       		.uleb128 0x11
 1658 0aeb ED070000 		.4byte	.LASF158
 1659 0aef 10       		.byte	0x10
 1660 0af0 6904     		.2byte	0x469
 1661 0af2 D3000000 		.4byte	0xd3
 1662 0af6 40       		.byte	0x40
 1663 0af7 11       		.uleb128 0x11
 1664 0af8 05070000 		.4byte	.LASF159
 1665 0afc 10       		.byte	0x10
 1666 0afd 6A04     		.2byte	0x46a
 1667 0aff D3000000 		.4byte	0xd3
 1668 0b03 44       		.byte	0x44
 1669 0b04 11       		.uleb128 0x11
 1670 0b05 1E060000 		.4byte	.LASF160
 1671 0b09 10       		.byte	0x10
 1672 0b0a 6B04     		.2byte	0x46b
 1673 0b0c 02090000 		.4byte	0x902
 1674 0b10 48       		.byte	0x48
 1675 0b11 11       		.uleb128 0x11
 1676 0b12 00020000 		.4byte	.LASF161
 1677 0b16 10       		.byte	0x10
 1678 0b17 6C04     		.2byte	0x46c
 1679 0b19 D3000000 		.4byte	0xd3
 1680 0b1d 50       		.byte	0x50
 1681 0b1e 11       		.uleb128 0x11
 1682 0b1f AD010000 		.4byte	.LASF162
 1683 0b23 10       		.byte	0x10
 1684 0b24 6D04     		.2byte	0x46d
 1685 0b26 D3000000 		.4byte	0xd3
 1686 0b2a 54       		.byte	0x54
 1687 0b2b 11       		.uleb128 0x11
 1688 0b2c CF060000 		.4byte	.LASF163
 1689 0b30 10       		.byte	0x10
 1690 0b31 6E04     		.2byte	0x46e
 1691 0b33 D3000000 		.4byte	0xd3
 1692 0b37 58       		.byte	0x58
 1693 0b38 11       		.uleb128 0x11
 1694 0b39 28060000 		.4byte	.LASF164
 1695 0b3d 10       		.byte	0x10
 1696 0b3e 6F04     		.2byte	0x46f
 1697 0b40 C8000000 		.4byte	0xc8
 1698 0b44 5C       		.byte	0x5c
 1699 0b45 11       		.uleb128 0x11
 1700 0b46 C0020000 		.4byte	.LASF165
 1701 0b4a 10       		.byte	0x10
 1702 0b4b 7004     		.2byte	0x470
 1703 0b4d D3000000 		.4byte	0xd3
 1704 0b51 60       		.byte	0x60
 1705 0b52 11       		.uleb128 0x11
 1706 0b53 95040000 		.4byte	.LASF166
 1707 0b57 10       		.byte	0x10
 1708 0b58 7104     		.2byte	0x471
 1709 0b5a D3000000 		.4byte	0xd3
 1710 0b5e 64       		.byte	0x64
ARM GAS  /tmp/ccT5mgKJ.s 			page 31


 1711 0b5f 11       		.uleb128 0x11
 1712 0b60 4A070000 		.4byte	.LASF167
 1713 0b64 10       		.byte	0x10
 1714 0b65 7204     		.2byte	0x472
 1715 0b67 02090000 		.4byte	0x902
 1716 0b6b 68       		.byte	0x68
 1717 0b6c 11       		.uleb128 0x11
 1718 0b6d 71080000 		.4byte	.LASF168
 1719 0b71 10       		.byte	0x10
 1720 0b72 7304     		.2byte	0x473
 1721 0b74 D3000000 		.4byte	0xd3
 1722 0b78 70       		.byte	0x70
 1723 0b79 0F       		.uleb128 0xf
 1724 0b7a 43535200 		.ascii	"CSR\000"
 1725 0b7e 10       		.byte	0x10
 1726 0b7f 7404     		.2byte	0x474
 1727 0b81 D3000000 		.4byte	0xd3
 1728 0b85 74       		.byte	0x74
 1729 0b86 11       		.uleb128 0x11
 1730 0b87 39060000 		.4byte	.LASF169
 1731 0b8b 10       		.byte	0x10
 1732 0b8c 7504     		.2byte	0x475
 1733 0b8e 02090000 		.4byte	0x902
 1734 0b92 78       		.byte	0x78
 1735 0b93 11       		.uleb128 0x11
 1736 0b94 4F080000 		.4byte	.LASF170
 1737 0b98 10       		.byte	0x10
 1738 0b99 7604     		.2byte	0x476
 1739 0b9b D3000000 		.4byte	0xd3
 1740 0b9f 80       		.byte	0x80
 1741 0ba0 11       		.uleb128 0x11
 1742 0ba1 38040000 		.4byte	.LASF171
 1743 0ba5 10       		.byte	0x10
 1744 0ba6 7704     		.2byte	0x477
 1745 0ba8 D3000000 		.4byte	0xd3
 1746 0bac 84       		.byte	0x84
 1747 0bad 11       		.uleb128 0x11
 1748 0bae EC050000 		.4byte	.LASF172
 1749 0bb2 10       		.byte	0x10
 1750 0bb3 7804     		.2byte	0x478
 1751 0bb5 D3000000 		.4byte	0xd3
 1752 0bb9 88       		.byte	0x88
 1753 0bba 11       		.uleb128 0x11
 1754 0bbb 1E020000 		.4byte	.LASF173
 1755 0bbf 10       		.byte	0x10
 1756 0bc0 7904     		.2byte	0x479
 1757 0bc2 D3000000 		.4byte	0xd3
 1758 0bc6 8C       		.byte	0x8c
 1759 0bc7 00       		.byte	0
 1760 0bc8 12       		.uleb128 0x12
 1761 0bc9 E5030000 		.4byte	.LASF174
 1762 0bcd 10       		.byte	0x10
 1763 0bce 7B04     		.2byte	0x47b
 1764 0bd0 1F0A0000 		.4byte	0xa1f
 1765 0bd4 0A       		.uleb128 0xa
 1766 0bd5 0C       		.byte	0xc
 1767 0bd6 11       		.byte	0x11
ARM GAS  /tmp/ccT5mgKJ.s 			page 32


 1768 0bd7 DA       		.byte	0xda
 1769 0bd8 190C0000 		.4byte	0xc19
 1770 0bdc 08       		.uleb128 0x8
 1771 0bdd 8B010000 		.4byte	.LASF175
 1772 0be1 11       		.byte	0x11
 1773 0be2 DB       		.byte	0xdb
 1774 0be3 190C0000 		.4byte	0xc19
 1775 0be7 00       		.byte	0
 1776 0be8 08       		.uleb128 0x8
 1777 0be9 45070000 		.4byte	.LASF176
 1778 0bed 11       		.byte	0x11
 1779 0bee DC       		.byte	0xdc
 1780 0bef 1F0C0000 		.4byte	0xc1f
 1781 0bf3 04       		.byte	0x4
 1782 0bf4 08       		.uleb128 0x8
 1783 0bf5 F9030000 		.4byte	.LASF177
 1784 0bf9 11       		.byte	0x11
 1785 0bfa DD       		.byte	0xdd
 1786 0bfb A2000000 		.4byte	0xa2
 1787 0bff 08       		.byte	0x8
 1788 0c00 08       		.uleb128 0x8
 1789 0c01 34080000 		.4byte	.LASF178
 1790 0c05 11       		.byte	0x11
 1791 0c06 DF       		.byte	0xdf
 1792 0c07 A2000000 		.4byte	0xa2
 1793 0c0b 09       		.byte	0x9
 1794 0c0c 08       		.uleb128 0x8
 1795 0c0d 49000000 		.4byte	.LASF179
 1796 0c11 11       		.byte	0x11
 1797 0c12 E0       		.byte	0xe0
 1798 0c13 A2000000 		.4byte	0xa2
 1799 0c17 0A       		.byte	0xa
 1800 0c18 00       		.byte	0
 1801 0c19 0B       		.uleb128 0xb
 1802 0c1a 04       		.byte	0x4
 1803 0c1b 75090000 		.4byte	0x975
 1804 0c1f 0B       		.uleb128 0xb
 1805 0c20 04       		.byte	0x4
 1806 0c21 D3000000 		.4byte	0xd3
 1807 0c25 04       		.uleb128 0x4
 1808 0c26 43060000 		.4byte	.LASF180
 1809 0c2a 11       		.byte	0x11
 1810 0c2b E1       		.byte	0xe1
 1811 0c2c D40B0000 		.4byte	0xbd4
 1812 0c30 06       		.uleb128 0x6
 1813 0c31 250C0000 		.4byte	0xc25
 1814 0c35 18       		.uleb128 0x18
 1815 0c36 300C0000 		.4byte	0xc30
 1816 0c3a 450C0000 		.4byte	0xc45
 1817 0c3e 19       		.uleb128 0x19
 1818 0c3f 2C000000 		.4byte	0x2c
 1819 0c43 0F       		.byte	0xf
 1820 0c44 00       		.byte	0
 1821 0c45 06       		.uleb128 0x6
 1822 0c46 350C0000 		.4byte	0xc35
 1823 0c4a 1C       		.uleb128 0x1c
 1824 0c4b E0010000 		.4byte	.LASF181
ARM GAS  /tmp/ccT5mgKJ.s 			page 33


 1825 0c4f 11       		.byte	0x11
 1826 0c50 BB01     		.2byte	0x1bb
 1827 0c52 450C0000 		.4byte	0xc45
 1828 0c56 0A       		.uleb128 0xa
 1829 0c57 1C       		.byte	0x1c
 1830 0c58 12       		.byte	0x12
 1831 0c59 A3       		.byte	0xa3
 1832 0c5a B30C0000 		.4byte	0xcb3
 1833 0c5e 08       		.uleb128 0x8
 1834 0c5f 8B020000 		.4byte	.LASF182
 1835 0c63 12       		.byte	0x12
 1836 0c64 A5       		.byte	0xa5
 1837 0c65 C8000000 		.4byte	0xc8
 1838 0c69 00       		.byte	0
 1839 0c6a 08       		.uleb128 0x8
 1840 0c6b 60000000 		.4byte	.LASF183
 1841 0c6f 12       		.byte	0x12
 1842 0c70 A7       		.byte	0xa7
 1843 0c71 C8000000 		.4byte	0xc8
 1844 0c75 04       		.byte	0x4
 1845 0c76 08       		.uleb128 0x8
 1846 0c77 F1030000 		.4byte	.LASF184
 1847 0c7b 12       		.byte	0x12
 1848 0c7c A9       		.byte	0xa9
 1849 0c7d C8000000 		.4byte	0xc8
 1850 0c81 08       		.byte	0x8
 1851 0c82 08       		.uleb128 0x8
 1852 0c83 33050000 		.4byte	.LASF185
 1853 0c87 12       		.byte	0x12
 1854 0c88 AB       		.byte	0xab
 1855 0c89 C8000000 		.4byte	0xc8
 1856 0c8d 0C       		.byte	0xc
 1857 0c8e 09       		.uleb128 0x9
 1858 0c8f 6F647200 		.ascii	"odr\000"
 1859 0c93 12       		.byte	0x12
 1860 0c94 AD       		.byte	0xad
 1861 0c95 C8000000 		.4byte	0xc8
 1862 0c99 10       		.byte	0x10
 1863 0c9a 08       		.uleb128 0x8
 1864 0c9b 98060000 		.4byte	.LASF186
 1865 0c9f 12       		.byte	0x12
 1866 0ca0 AF       		.byte	0xaf
 1867 0ca1 C8000000 		.4byte	0xc8
 1868 0ca5 14       		.byte	0x14
 1869 0ca6 08       		.uleb128 0x8
 1870 0ca7 AA050000 		.4byte	.LASF187
 1871 0cab 12       		.byte	0x12
 1872 0cac B1       		.byte	0xb1
 1873 0cad C8000000 		.4byte	0xc8
 1874 0cb1 18       		.byte	0x18
 1875 0cb2 00       		.byte	0
 1876 0cb3 04       		.uleb128 0x4
 1877 0cb4 00000000 		.4byte	.LASF188
 1878 0cb8 12       		.byte	0x12
 1879 0cb9 B2       		.byte	0xb2
 1880 0cba 560C0000 		.4byte	0xc56
 1881 0cbe 0A       		.uleb128 0xa
ARM GAS  /tmp/ccT5mgKJ.s 			page 34


 1882 0cbf FC       		.byte	0xfc
 1883 0cc0 12       		.byte	0x12
 1884 0cc1 BB       		.byte	0xbb
 1885 0cc2 330D0000 		.4byte	0xd33
 1886 0cc6 08       		.uleb128 0x8
 1887 0cc7 E0060000 		.4byte	.LASF189
 1888 0ccb 12       		.byte	0x12
 1889 0ccc BE       		.byte	0xbe
 1890 0ccd B30C0000 		.4byte	0xcb3
 1891 0cd1 00       		.byte	0
 1892 0cd2 08       		.uleb128 0x8
 1893 0cd3 88030000 		.4byte	.LASF190
 1894 0cd7 12       		.byte	0x12
 1895 0cd8 C2       		.byte	0xc2
 1896 0cd9 B30C0000 		.4byte	0xcb3
 1897 0cdd 1C       		.byte	0x1c
 1898 0cde 08       		.uleb128 0x8
 1899 0cdf AB080000 		.4byte	.LASF191
 1900 0ce3 12       		.byte	0x12
 1901 0ce4 C6       		.byte	0xc6
 1902 0ce5 B30C0000 		.4byte	0xcb3
 1903 0ce9 38       		.byte	0x38
 1904 0cea 08       		.uleb128 0x8
 1905 0ceb AF050000 		.4byte	.LASF192
 1906 0cef 12       		.byte	0x12
 1907 0cf0 CA       		.byte	0xca
 1908 0cf1 B30C0000 		.4byte	0xcb3
 1909 0cf5 54       		.byte	0x54
 1910 0cf6 08       		.uleb128 0x8
 1911 0cf7 B0020000 		.4byte	.LASF193
 1912 0cfb 12       		.byte	0x12
 1913 0cfc CE       		.byte	0xce
 1914 0cfd B30C0000 		.4byte	0xcb3
 1915 0d01 70       		.byte	0x70
 1916 0d02 08       		.uleb128 0x8
 1917 0d03 10040000 		.4byte	.LASF194
 1918 0d07 12       		.byte	0x12
 1919 0d08 D2       		.byte	0xd2
 1920 0d09 B30C0000 		.4byte	0xcb3
 1921 0d0d 8C       		.byte	0x8c
 1922 0d0e 08       		.uleb128 0x8
 1923 0d0f C1040000 		.4byte	.LASF195
 1924 0d13 12       		.byte	0x12
 1925 0d14 D6       		.byte	0xd6
 1926 0d15 B30C0000 		.4byte	0xcb3
 1927 0d19 A8       		.byte	0xa8
 1928 0d1a 08       		.uleb128 0x8
 1929 0d1b 98010000 		.4byte	.LASF196
 1930 0d1f 12       		.byte	0x12
 1931 0d20 DA       		.byte	0xda
 1932 0d21 B30C0000 		.4byte	0xcb3
 1933 0d25 C4       		.byte	0xc4
 1934 0d26 08       		.uleb128 0x8
 1935 0d27 1C070000 		.4byte	.LASF197
 1936 0d2b 12       		.byte	0x12
 1937 0d2c DE       		.byte	0xde
 1938 0d2d B30C0000 		.4byte	0xcb3
ARM GAS  /tmp/ccT5mgKJ.s 			page 35


 1939 0d31 E0       		.byte	0xe0
 1940 0d32 00       		.byte	0
 1941 0d33 04       		.uleb128 0x4
 1942 0d34 45080000 		.4byte	.LASF198
 1943 0d38 12       		.byte	0x12
 1944 0d39 E0       		.byte	0xe0
 1945 0d3a BE0C0000 		.4byte	0xcbe
 1946 0d3e 06       		.uleb128 0x6
 1947 0d3f 330D0000 		.4byte	0xd33
 1948 0d43 1C       		.uleb128 0x1c
 1949 0d44 E0080000 		.4byte	.LASF199
 1950 0d48 12       		.byte	0x12
 1951 0d49 BC01     		.2byte	0x1bc
 1952 0d4b 3E0D0000 		.4byte	0xd3e
 1953 0d4f 1D       		.uleb128 0x1d
 1954 0d50 60030000 		.4byte	.LASF204
 1955 0d54 01       		.byte	0x1
 1956 0d55 9A       		.byte	0x9a
 1957 0d56 00000000 		.4byte	.LFB120
 1958 0d5a B8000000 		.4byte	.LFE120-.LFB120
 1959 0d5e 01       		.uleb128 0x1
 1960 0d5f 9C       		.byte	0x9c
 1961 0d60 1E       		.uleb128 0x1e
 1962 0d61 15080000 		.4byte	.LASF205
 1963 0d65 01       		.byte	0x1
 1964 0d66 6F       		.byte	0x6f
 1965 0d67 00000000 		.4byte	.LFB119
 1966 0d6b 90000000 		.4byte	.LFE119-.LFB119
 1967 0d6f 01       		.uleb128 0x1
 1968 0d70 9C       		.byte	0x9c
 1969 0d71 850D0000 		.4byte	0xd85
 1970 0d75 1F       		.uleb128 0x1f
 1971 0d76 850D0000 		.4byte	0xd85
 1972 0d7a 3A000000 		.4byte	.LBB4
 1973 0d7e 00000000 		.4byte	.Ldebug_ranges0+0
 1974 0d82 01       		.byte	0x1
 1975 0d83 87       		.byte	0x87
 1976 0d84 00       		.byte	0
 1977 0d85 20       		.uleb128 0x20
 1978 0d86 51040000 		.4byte	.LASF206
 1979 0d8a 01       		.byte	0x1
 1980 0d8b 33       		.byte	0x33
 1981 0d8c 01       		.byte	0x1
 1982 0d8d 00       		.byte	0
 1983              		.section	.debug_abbrev,"",%progbits
 1984              	.Ldebug_abbrev0:
 1985 0000 01       		.uleb128 0x1
 1986 0001 11       		.uleb128 0x11
 1987 0002 01       		.byte	0x1
 1988 0003 25       		.uleb128 0x25
 1989 0004 0E       		.uleb128 0xe
 1990 0005 13       		.uleb128 0x13
 1991 0006 0B       		.uleb128 0xb
 1992 0007 03       		.uleb128 0x3
 1993 0008 0E       		.uleb128 0xe
 1994 0009 1B       		.uleb128 0x1b
 1995 000a 0E       		.uleb128 0xe
ARM GAS  /tmp/ccT5mgKJ.s 			page 36


 1996 000b 55       		.uleb128 0x55
 1997 000c 17       		.uleb128 0x17
 1998 000d 11       		.uleb128 0x11
 1999 000e 01       		.uleb128 0x1
 2000 000f 10       		.uleb128 0x10
 2001 0010 17       		.uleb128 0x17
 2002 0011 00       		.byte	0
 2003 0012 00       		.byte	0
 2004 0013 02       		.uleb128 0x2
 2005 0014 24       		.uleb128 0x24
 2006 0015 00       		.byte	0
 2007 0016 0B       		.uleb128 0xb
 2008 0017 0B       		.uleb128 0xb
 2009 0018 3E       		.uleb128 0x3e
 2010 0019 0B       		.uleb128 0xb
 2011 001a 03       		.uleb128 0x3
 2012 001b 08       		.uleb128 0x8
 2013 001c 00       		.byte	0
 2014 001d 00       		.byte	0
 2015 001e 03       		.uleb128 0x3
 2016 001f 24       		.uleb128 0x24
 2017 0020 00       		.byte	0
 2018 0021 0B       		.uleb128 0xb
 2019 0022 0B       		.uleb128 0xb
 2020 0023 3E       		.uleb128 0x3e
 2021 0024 0B       		.uleb128 0xb
 2022 0025 03       		.uleb128 0x3
 2023 0026 0E       		.uleb128 0xe
 2024 0027 00       		.byte	0
 2025 0028 00       		.byte	0
 2026 0029 04       		.uleb128 0x4
 2027 002a 16       		.uleb128 0x16
 2028 002b 00       		.byte	0
 2029 002c 03       		.uleb128 0x3
 2030 002d 0E       		.uleb128 0xe
 2031 002e 3A       		.uleb128 0x3a
 2032 002f 0B       		.uleb128 0xb
 2033 0030 3B       		.uleb128 0x3b
 2034 0031 0B       		.uleb128 0xb
 2035 0032 49       		.uleb128 0x49
 2036 0033 13       		.uleb128 0x13
 2037 0034 00       		.byte	0
 2038 0035 00       		.byte	0
 2039 0036 05       		.uleb128 0x5
 2040 0037 35       		.uleb128 0x35
 2041 0038 00       		.byte	0
 2042 0039 49       		.uleb128 0x49
 2043 003a 13       		.uleb128 0x13
 2044 003b 00       		.byte	0
 2045 003c 00       		.byte	0
 2046 003d 06       		.uleb128 0x6
 2047 003e 26       		.uleb128 0x26
 2048 003f 00       		.byte	0
 2049 0040 49       		.uleb128 0x49
 2050 0041 13       		.uleb128 0x13
 2051 0042 00       		.byte	0
 2052 0043 00       		.byte	0
ARM GAS  /tmp/ccT5mgKJ.s 			page 37


 2053 0044 07       		.uleb128 0x7
 2054 0045 13       		.uleb128 0x13
 2055 0046 01       		.byte	0x1
 2056 0047 03       		.uleb128 0x3
 2057 0048 0E       		.uleb128 0xe
 2058 0049 0B       		.uleb128 0xb
 2059 004a 0B       		.uleb128 0xb
 2060 004b 3A       		.uleb128 0x3a
 2061 004c 0B       		.uleb128 0xb
 2062 004d 3B       		.uleb128 0x3b
 2063 004e 0B       		.uleb128 0xb
 2064 004f 01       		.uleb128 0x1
 2065 0050 13       		.uleb128 0x13
 2066 0051 00       		.byte	0
 2067 0052 00       		.byte	0
 2068 0053 08       		.uleb128 0x8
 2069 0054 0D       		.uleb128 0xd
 2070 0055 00       		.byte	0
 2071 0056 03       		.uleb128 0x3
 2072 0057 0E       		.uleb128 0xe
 2073 0058 3A       		.uleb128 0x3a
 2074 0059 0B       		.uleb128 0xb
 2075 005a 3B       		.uleb128 0x3b
 2076 005b 0B       		.uleb128 0xb
 2077 005c 49       		.uleb128 0x49
 2078 005d 13       		.uleb128 0x13
 2079 005e 38       		.uleb128 0x38
 2080 005f 0B       		.uleb128 0xb
 2081 0060 00       		.byte	0
 2082 0061 00       		.byte	0
 2083 0062 09       		.uleb128 0x9
 2084 0063 0D       		.uleb128 0xd
 2085 0064 00       		.byte	0
 2086 0065 03       		.uleb128 0x3
 2087 0066 08       		.uleb128 0x8
 2088 0067 3A       		.uleb128 0x3a
 2089 0068 0B       		.uleb128 0xb
 2090 0069 3B       		.uleb128 0x3b
 2091 006a 0B       		.uleb128 0xb
 2092 006b 49       		.uleb128 0x49
 2093 006c 13       		.uleb128 0x13
 2094 006d 38       		.uleb128 0x38
 2095 006e 0B       		.uleb128 0xb
 2096 006f 00       		.byte	0
 2097 0070 00       		.byte	0
 2098 0071 0A       		.uleb128 0xa
 2099 0072 13       		.uleb128 0x13
 2100 0073 01       		.byte	0x1
 2101 0074 0B       		.uleb128 0xb
 2102 0075 0B       		.uleb128 0xb
 2103 0076 3A       		.uleb128 0x3a
 2104 0077 0B       		.uleb128 0xb
 2105 0078 3B       		.uleb128 0x3b
 2106 0079 0B       		.uleb128 0xb
 2107 007a 01       		.uleb128 0x1
 2108 007b 13       		.uleb128 0x13
 2109 007c 00       		.byte	0
ARM GAS  /tmp/ccT5mgKJ.s 			page 38


 2110 007d 00       		.byte	0
 2111 007e 0B       		.uleb128 0xb
 2112 007f 0F       		.uleb128 0xf
 2113 0080 00       		.byte	0
 2114 0081 0B       		.uleb128 0xb
 2115 0082 0B       		.uleb128 0xb
 2116 0083 49       		.uleb128 0x49
 2117 0084 13       		.uleb128 0x13
 2118 0085 00       		.byte	0
 2119 0086 00       		.byte	0
 2120 0087 0C       		.uleb128 0xc
 2121 0088 0F       		.uleb128 0xf
 2122 0089 00       		.byte	0
 2123 008a 0B       		.uleb128 0xb
 2124 008b 0B       		.uleb128 0xb
 2125 008c 00       		.byte	0
 2126 008d 00       		.byte	0
 2127 008e 0D       		.uleb128 0xd
 2128 008f 16       		.uleb128 0x16
 2129 0090 00       		.byte	0
 2130 0091 03       		.uleb128 0x3
 2131 0092 0E       		.uleb128 0xe
 2132 0093 3A       		.uleb128 0x3a
 2133 0094 0B       		.uleb128 0xb
 2134 0095 3B       		.uleb128 0x3b
 2135 0096 0B       		.uleb128 0xb
 2136 0097 49       		.uleb128 0x49
 2137 0098 13       		.uleb128 0x13
 2138 0099 8801     		.uleb128 0x88
 2139 009b 0B       		.uleb128 0xb
 2140 009c 00       		.byte	0
 2141 009d 00       		.byte	0
 2142 009e 0E       		.uleb128 0xe
 2143 009f 13       		.uleb128 0x13
 2144 00a0 01       		.byte	0x1
 2145 00a1 03       		.uleb128 0x3
 2146 00a2 0E       		.uleb128 0xe
 2147 00a3 0B       		.uleb128 0xb
 2148 00a4 0B       		.uleb128 0xb
 2149 00a5 3A       		.uleb128 0x3a
 2150 00a6 0B       		.uleb128 0xb
 2151 00a7 3B       		.uleb128 0x3b
 2152 00a8 05       		.uleb128 0x5
 2153 00a9 01       		.uleb128 0x1
 2154 00aa 13       		.uleb128 0x13
 2155 00ab 00       		.byte	0
 2156 00ac 00       		.byte	0
 2157 00ad 0F       		.uleb128 0xf
 2158 00ae 0D       		.uleb128 0xd
 2159 00af 00       		.byte	0
 2160 00b0 03       		.uleb128 0x3
 2161 00b1 08       		.uleb128 0x8
 2162 00b2 3A       		.uleb128 0x3a
 2163 00b3 0B       		.uleb128 0xb
 2164 00b4 3B       		.uleb128 0x3b
 2165 00b5 05       		.uleb128 0x5
 2166 00b6 49       		.uleb128 0x49
ARM GAS  /tmp/ccT5mgKJ.s 			page 39


 2167 00b7 13       		.uleb128 0x13
 2168 00b8 38       		.uleb128 0x38
 2169 00b9 0B       		.uleb128 0xb
 2170 00ba 00       		.byte	0
 2171 00bb 00       		.byte	0
 2172 00bc 10       		.uleb128 0x10
 2173 00bd 13       		.uleb128 0x13
 2174 00be 01       		.byte	0x1
 2175 00bf 0B       		.uleb128 0xb
 2176 00c0 0B       		.uleb128 0xb
 2177 00c1 3A       		.uleb128 0x3a
 2178 00c2 0B       		.uleb128 0xb
 2179 00c3 3B       		.uleb128 0x3b
 2180 00c4 05       		.uleb128 0x5
 2181 00c5 01       		.uleb128 0x1
 2182 00c6 13       		.uleb128 0x13
 2183 00c7 00       		.byte	0
 2184 00c8 00       		.byte	0
 2185 00c9 11       		.uleb128 0x11
 2186 00ca 0D       		.uleb128 0xd
 2187 00cb 00       		.byte	0
 2188 00cc 03       		.uleb128 0x3
 2189 00cd 0E       		.uleb128 0xe
 2190 00ce 3A       		.uleb128 0x3a
 2191 00cf 0B       		.uleb128 0xb
 2192 00d0 3B       		.uleb128 0x3b
 2193 00d1 05       		.uleb128 0x5
 2194 00d2 49       		.uleb128 0x49
 2195 00d3 13       		.uleb128 0x13
 2196 00d4 38       		.uleb128 0x38
 2197 00d5 0B       		.uleb128 0xb
 2198 00d6 00       		.byte	0
 2199 00d7 00       		.byte	0
 2200 00d8 12       		.uleb128 0x12
 2201 00d9 16       		.uleb128 0x16
 2202 00da 00       		.byte	0
 2203 00db 03       		.uleb128 0x3
 2204 00dc 0E       		.uleb128 0xe
 2205 00dd 3A       		.uleb128 0x3a
 2206 00de 0B       		.uleb128 0xb
 2207 00df 3B       		.uleb128 0x3b
 2208 00e0 05       		.uleb128 0x5
 2209 00e1 49       		.uleb128 0x49
 2210 00e2 13       		.uleb128 0x13
 2211 00e3 00       		.byte	0
 2212 00e4 00       		.byte	0
 2213 00e5 13       		.uleb128 0x13
 2214 00e6 15       		.uleb128 0x15
 2215 00e7 01       		.byte	0x1
 2216 00e8 27       		.uleb128 0x27
 2217 00e9 19       		.uleb128 0x19
 2218 00ea 01       		.uleb128 0x1
 2219 00eb 13       		.uleb128 0x13
 2220 00ec 00       		.byte	0
 2221 00ed 00       		.byte	0
 2222 00ee 14       		.uleb128 0x14
 2223 00ef 05       		.uleb128 0x5
ARM GAS  /tmp/ccT5mgKJ.s 			page 40


 2224 00f0 00       		.byte	0
 2225 00f1 49       		.uleb128 0x49
 2226 00f2 13       		.uleb128 0x13
 2227 00f3 00       		.byte	0
 2228 00f4 00       		.byte	0
 2229 00f5 15       		.uleb128 0x15
 2230 00f6 34       		.uleb128 0x34
 2231 00f7 00       		.byte	0
 2232 00f8 03       		.uleb128 0x3
 2233 00f9 0E       		.uleb128 0xe
 2234 00fa 3A       		.uleb128 0x3a
 2235 00fb 0B       		.uleb128 0xb
 2236 00fc 3B       		.uleb128 0x3b
 2237 00fd 0B       		.uleb128 0xb
 2238 00fe 49       		.uleb128 0x49
 2239 00ff 13       		.uleb128 0x13
 2240 0100 3F       		.uleb128 0x3f
 2241 0101 19       		.uleb128 0x19
 2242 0102 3C       		.uleb128 0x3c
 2243 0103 19       		.uleb128 0x19
 2244 0104 00       		.byte	0
 2245 0105 00       		.byte	0
 2246 0106 16       		.uleb128 0x16
 2247 0107 17       		.uleb128 0x17
 2248 0108 01       		.byte	0x1
 2249 0109 0B       		.uleb128 0xb
 2250 010a 0B       		.uleb128 0xb
 2251 010b 3A       		.uleb128 0x3a
 2252 010c 0B       		.uleb128 0xb
 2253 010d 3B       		.uleb128 0x3b
 2254 010e 0B       		.uleb128 0xb
 2255 010f 01       		.uleb128 0x1
 2256 0110 13       		.uleb128 0x13
 2257 0111 00       		.byte	0
 2258 0112 00       		.byte	0
 2259 0113 17       		.uleb128 0x17
 2260 0114 0D       		.uleb128 0xd
 2261 0115 00       		.byte	0
 2262 0116 03       		.uleb128 0x3
 2263 0117 0E       		.uleb128 0xe
 2264 0118 3A       		.uleb128 0x3a
 2265 0119 0B       		.uleb128 0xb
 2266 011a 3B       		.uleb128 0x3b
 2267 011b 0B       		.uleb128 0xb
 2268 011c 49       		.uleb128 0x49
 2269 011d 13       		.uleb128 0x13
 2270 011e 00       		.byte	0
 2271 011f 00       		.byte	0
 2272 0120 18       		.uleb128 0x18
 2273 0121 01       		.uleb128 0x1
 2274 0122 01       		.byte	0x1
 2275 0123 49       		.uleb128 0x49
 2276 0124 13       		.uleb128 0x13
 2277 0125 01       		.uleb128 0x1
 2278 0126 13       		.uleb128 0x13
 2279 0127 00       		.byte	0
 2280 0128 00       		.byte	0
ARM GAS  /tmp/ccT5mgKJ.s 			page 41


 2281 0129 19       		.uleb128 0x19
 2282 012a 21       		.uleb128 0x21
 2283 012b 00       		.byte	0
 2284 012c 49       		.uleb128 0x49
 2285 012d 13       		.uleb128 0x13
 2286 012e 2F       		.uleb128 0x2f
 2287 012f 0B       		.uleb128 0xb
 2288 0130 00       		.byte	0
 2289 0131 00       		.byte	0
 2290 0132 1A       		.uleb128 0x1a
 2291 0133 13       		.uleb128 0x13
 2292 0134 01       		.byte	0x1
 2293 0135 0B       		.uleb128 0xb
 2294 0136 05       		.uleb128 0x5
 2295 0137 3A       		.uleb128 0x3a
 2296 0138 0B       		.uleb128 0xb
 2297 0139 3B       		.uleb128 0x3b
 2298 013a 0B       		.uleb128 0xb
 2299 013b 01       		.uleb128 0x1
 2300 013c 13       		.uleb128 0x13
 2301 013d 00       		.byte	0
 2302 013e 00       		.byte	0
 2303 013f 1B       		.uleb128 0x1b
 2304 0140 01       		.uleb128 0x1
 2305 0141 01       		.byte	0x1
 2306 0142 49       		.uleb128 0x49
 2307 0143 13       		.uleb128 0x13
 2308 0144 8801     		.uleb128 0x88
 2309 0146 0B       		.uleb128 0xb
 2310 0147 01       		.uleb128 0x1
 2311 0148 13       		.uleb128 0x13
 2312 0149 00       		.byte	0
 2313 014a 00       		.byte	0
 2314 014b 1C       		.uleb128 0x1c
 2315 014c 34       		.uleb128 0x34
 2316 014d 00       		.byte	0
 2317 014e 03       		.uleb128 0x3
 2318 014f 0E       		.uleb128 0xe
 2319 0150 3A       		.uleb128 0x3a
 2320 0151 0B       		.uleb128 0xb
 2321 0152 3B       		.uleb128 0x3b
 2322 0153 05       		.uleb128 0x5
 2323 0154 49       		.uleb128 0x49
 2324 0155 13       		.uleb128 0x13
 2325 0156 3F       		.uleb128 0x3f
 2326 0157 19       		.uleb128 0x19
 2327 0158 3C       		.uleb128 0x3c
 2328 0159 19       		.uleb128 0x19
 2329 015a 00       		.byte	0
 2330 015b 00       		.byte	0
 2331 015c 1D       		.uleb128 0x1d
 2332 015d 2E       		.uleb128 0x2e
 2333 015e 00       		.byte	0
 2334 015f 3F       		.uleb128 0x3f
 2335 0160 19       		.uleb128 0x19
 2336 0161 03       		.uleb128 0x3
 2337 0162 0E       		.uleb128 0xe
ARM GAS  /tmp/ccT5mgKJ.s 			page 42


 2338 0163 3A       		.uleb128 0x3a
 2339 0164 0B       		.uleb128 0xb
 2340 0165 3B       		.uleb128 0x3b
 2341 0166 0B       		.uleb128 0xb
 2342 0167 27       		.uleb128 0x27
 2343 0168 19       		.uleb128 0x19
 2344 0169 11       		.uleb128 0x11
 2345 016a 01       		.uleb128 0x1
 2346 016b 12       		.uleb128 0x12
 2347 016c 06       		.uleb128 0x6
 2348 016d 40       		.uleb128 0x40
 2349 016e 18       		.uleb128 0x18
 2350 016f 9742     		.uleb128 0x2117
 2351 0171 19       		.uleb128 0x19
 2352 0172 00       		.byte	0
 2353 0173 00       		.byte	0
 2354 0174 1E       		.uleb128 0x1e
 2355 0175 2E       		.uleb128 0x2e
 2356 0176 01       		.byte	0x1
 2357 0177 3F       		.uleb128 0x3f
 2358 0178 19       		.uleb128 0x19
 2359 0179 03       		.uleb128 0x3
 2360 017a 0E       		.uleb128 0xe
 2361 017b 3A       		.uleb128 0x3a
 2362 017c 0B       		.uleb128 0xb
 2363 017d 3B       		.uleb128 0x3b
 2364 017e 0B       		.uleb128 0xb
 2365 017f 27       		.uleb128 0x27
 2366 0180 19       		.uleb128 0x19
 2367 0181 11       		.uleb128 0x11
 2368 0182 01       		.uleb128 0x1
 2369 0183 12       		.uleb128 0x12
 2370 0184 06       		.uleb128 0x6
 2371 0185 40       		.uleb128 0x40
 2372 0186 18       		.uleb128 0x18
 2373 0187 9742     		.uleb128 0x2117
 2374 0189 19       		.uleb128 0x19
 2375 018a 01       		.uleb128 0x1
 2376 018b 13       		.uleb128 0x13
 2377 018c 00       		.byte	0
 2378 018d 00       		.byte	0
 2379 018e 1F       		.uleb128 0x1f
 2380 018f 1D       		.uleb128 0x1d
 2381 0190 00       		.byte	0
 2382 0191 31       		.uleb128 0x31
 2383 0192 13       		.uleb128 0x13
 2384 0193 52       		.uleb128 0x52
 2385 0194 01       		.uleb128 0x1
 2386 0195 55       		.uleb128 0x55
 2387 0196 17       		.uleb128 0x17
 2388 0197 58       		.uleb128 0x58
 2389 0198 0B       		.uleb128 0xb
 2390 0199 59       		.uleb128 0x59
 2391 019a 0B       		.uleb128 0xb
 2392 019b 00       		.byte	0
 2393 019c 00       		.byte	0
 2394 019d 20       		.uleb128 0x20
ARM GAS  /tmp/ccT5mgKJ.s 			page 43


 2395 019e 2E       		.uleb128 0x2e
 2396 019f 00       		.byte	0
 2397 01a0 03       		.uleb128 0x3
 2398 01a1 0E       		.uleb128 0xe
 2399 01a2 3A       		.uleb128 0x3a
 2400 01a3 0B       		.uleb128 0xb
 2401 01a4 3B       		.uleb128 0x3b
 2402 01a5 0B       		.uleb128 0xb
 2403 01a6 27       		.uleb128 0x27
 2404 01a7 19       		.uleb128 0x19
 2405 01a8 20       		.uleb128 0x20
 2406 01a9 0B       		.uleb128 0xb
 2407 01aa 00       		.byte	0
 2408 01ab 00       		.byte	0
 2409 01ac 00       		.byte	0
 2410              		.section	.debug_aranges,"",%progbits
 2411 0000 24000000 		.4byte	0x24
 2412 0004 0200     		.2byte	0x2
 2413 0006 00000000 		.4byte	.Ldebug_info0
 2414 000a 04       		.byte	0x4
 2415 000b 00       		.byte	0
 2416 000c 0000     		.2byte	0
 2417 000e 0000     		.2byte	0
 2418 0010 00000000 		.4byte	.LFB119
 2419 0014 90000000 		.4byte	.LFE119-.LFB119
 2420 0018 00000000 		.4byte	.LFB120
 2421 001c B8000000 		.4byte	.LFE120-.LFB120
 2422 0020 00000000 		.4byte	0
 2423 0024 00000000 		.4byte	0
 2424              		.section	.debug_ranges,"",%progbits
 2425              	.Ldebug_ranges0:
 2426 0000 3A000000 		.4byte	.LBB4
 2427 0004 3C000000 		.4byte	.LBE4
 2428 0008 52000000 		.4byte	.LBB7
 2429 000c 78000000 		.4byte	.LBE7
 2430 0010 00000000 		.4byte	0
 2431 0014 00000000 		.4byte	0
 2432 0018 00000000 		.4byte	.LFB119
 2433 001c 90000000 		.4byte	.LFE119
 2434 0020 00000000 		.4byte	.LFB120
 2435 0024 B8000000 		.4byte	.LFE120
 2436 0028 00000000 		.4byte	0
 2437 002c 00000000 		.4byte	0
 2438              		.section	.debug_line,"",%progbits
 2439              	.Ldebug_line0:
 2440 0000 D8020000 		.section	.debug_str,"MS",%progbits,1
 2440      02003402 
 2440      00000201 
 2440      FB0E0D00 
 2440      01010101 
 2441              	.LASF188:
 2442 0000 73746D33 		.ascii	"stm32_gpio_setup_t\000"
 2442      325F6770 
 2442      696F5F73 
 2442      65747570 
 2442      5F7400
 2443              	.LASF107:
ARM GAS  /tmp/ccT5mgKJ.s 			page 44


 2444 0013 63665F6F 		.ascii	"cf_off_older\000"
 2444      66665F6F 
 2444      6C646572 
 2444      00
 2445              	.LASF71:
 2446 0020 56697274 		.ascii	"VirtualTimer\000"
 2446      75616C54 
 2446      696D6572 
 2446      00
 2447              	.LASF136:
 2448 002d 4D304152 		.ascii	"M0AR\000"
 2448      00
 2449              	.LASF42:
 2450 0032 705F7469 		.ascii	"p_time\000"
 2450      6D6500
 2451              	.LASF92:
 2452 0039 7264796D 		.ascii	"rdymsg\000"
 2452      736700
 2453              	.LASF18:
 2454 0040 75696E74 		.ascii	"uint64_t\000"
 2454      36345F74 
 2454      00
 2455              	.LASF179:
 2456 0049 76656374 		.ascii	"vector\000"
 2456      6F7200
 2457              	.LASF4:
 2458 0050 5F5F7569 		.ascii	"__uint8_t\000"
 2458      6E74385F 
 2458      7400
 2459              	.LASF57:
 2460 005a 44435253 		.ascii	"DCRSR\000"
 2460      5200
 2461              	.LASF183:
 2462 0060 6F747970 		.ascii	"otyper\000"
 2462      657200
 2463              	.LASF200:
 2464 0067 474E5520 		.ascii	"GNU C99 7.3.1 20180622 (release) [ARM/embedded-7-br"
 2464      43393920 
 2464      372E332E 
 2464      31203230 
 2464      31383036 
 2465 009a 616E6368 		.ascii	"anch revision 261907] -mcpu=cortex-m4 -mfloat-abi=h"
 2465      20726576 
 2465      6973696F 
 2465      6E203236 
 2465      31393037 
 2466 00cd 61726420 		.ascii	"ard -mfpu=fpv4-sp-d16 -mno-thumb-interwork -mthumb "
 2466      2D6D6670 
 2466      753D6670 
 2466      76342D73 
 2466      702D6431 
 2467 0100 2D676764 		.ascii	"-ggdb -O2 -std=gnu99 -fomit-frame-pointer -falign-f"
 2467      62202D4F 
 2467      32202D73 
 2467      74643D67 
 2467      6E753939 
 2468 0133 756E6374 		.ascii	"unctions=16 -ffunction-sections -fdata-sections -fn"
ARM GAS  /tmp/ccT5mgKJ.s 			page 45


 2468      696F6E73 
 2468      3D313620 
 2468      2D666675 
 2468      6E637469 
 2469 0166 6F2D636F 		.ascii	"o-common -fsingle-precision-constant\000"
 2469      6D6D6F6E 
 2469      202D6673 
 2469      696E676C 
 2469      652D7072 
 2470              	.LASF175:
 2471 018b 73747265 		.ascii	"stream\000"
 2471      616D00
 2472              	.LASF141:
 2473 0192 4F505443 		.ascii	"OPTCR\000"
 2473      5200
 2474              	.LASF196:
 2475 0198 50484461 		.ascii	"PHData\000"
 2475      746100
 2476              	.LASF58:
 2477 019f 44435244 		.ascii	"DCRDR\000"
 2477      5200
 2478              	.LASF60:
 2479 01a5 434D785F 		.ascii	"CMx_SCS\000"
 2479      53435300 
 2480              	.LASF162:
 2481 01ad 41484232 		.ascii	"AHB2LPENR\000"
 2481      4C50454E 
 2481      5200
 2482              	.LASF125:
 2483 01b7 63685F74 		.ascii	"ch_trace_buffer_t\000"
 2483      72616365 
 2483      5F627566 
 2483      6665725F 
 2483      7400
 2484              	.LASF103:
 2485 01c9 63685F74 		.ascii	"ch_threadsize\000"
 2485      68726561 
 2485      6473697A 
 2485      6500
 2486              	.LASF93:
 2487 01d7 65786974 		.ascii	"exitcode\000"
 2487      636F6465 
 2487      00
 2488              	.LASF181:
 2489 01e0 5F73746D 		.ascii	"_stm32_dma_streams\000"
 2489      33325F64 
 2489      6D615F73 
 2489      74726561 
 2489      6D7300
 2490              	.LASF134:
 2491 01f3 49544D5F 		.ascii	"ITM_RxBuffer\000"
 2491      52784275 
 2491      66666572 
 2491      00
 2492              	.LASF161:
 2493 0200 41484231 		.ascii	"AHB1LPENR\000"
 2493      4C50454E 
ARM GAS  /tmp/ccT5mgKJ.s 			page 46


 2493      5200
 2494              	.LASF32:
 2495 020a 705F7072 		.ascii	"p_prio\000"
 2495      696F00
 2496              	.LASF110:
 2497 0211 63665F6F 		.ascii	"cf_off_state\000"
 2497      66665F73 
 2497      74617465 
 2497      00
 2498              	.LASF173:
 2499 021e 44434B43 		.ascii	"DCKCFGR\000"
 2499      46475200 
 2500              	.LASF11:
 2501 0226 6C6F6E67 		.ascii	"long long int\000"
 2501      206C6F6E 
 2501      6720696E 
 2501      7400
 2502              	.LASF1:
 2503 0234 7369676E 		.ascii	"signed char\000"
 2503      65642063 
 2503      68617200 
 2504              	.LASF147:
 2505 0240 41484231 		.ascii	"AHB1RSTR\000"
 2505      52535452 
 2505      00
 2506              	.LASF109:
 2507 0249 63665F6F 		.ascii	"cf_off_stklimit\000"
 2507      66665F73 
 2507      746B6C69 
 2507      6D697400 
 2508              	.LASF143:
 2509 0259 464C4153 		.ascii	"FLASH_TypeDef\000"
 2509      485F5479 
 2509      70654465 
 2509      6600
 2510              	.LASF111:
 2511 0267 63665F6F 		.ascii	"cf_off_flags\000"
 2511      66665F66 
 2511      6C616773 
 2511      00
 2512              	.LASF49:
 2513 0274 705F6D70 		.ascii	"p_mpool\000"
 2513      6F6F6C00 
 2514              	.LASF63:
 2515 027c 43504943 		.ascii	"CPICNT\000"
 2515      4E5400
 2516              	.LASF89:
 2517 0283 6D5F7175 		.ascii	"m_queue\000"
 2517      65756500 
 2518              	.LASF182:
 2519 028b 6D6F6465 		.ascii	"moder\000"
 2519      7200
 2520              	.LASF144:
 2521 0291 5057525F 		.ascii	"PWR_TypeDef\000"
 2521      54797065 
 2521      44656600 
 2522              	.LASF23:
ARM GAS  /tmp/ccT5mgKJ.s 			page 47


 2523 029d 74736C69 		.ascii	"tslices_t\000"
 2523      6365735F 
 2523      7400
 2524              	.LASF8:
 2525 02a7 6C6F6E67 		.ascii	"long int\000"
 2525      20696E74 
 2525      00
 2526              	.LASF193:
 2527 02b0 50454461 		.ascii	"PEData\000"
 2527      746100
 2528              	.LASF152:
 2529 02b7 41504232 		.ascii	"APB2RSTR\000"
 2529      52535452 
 2529      00
 2530              	.LASF165:
 2531 02c0 41504231 		.ascii	"APB1LPENR\000"
 2531      4C50454E 
 2531      5200
 2532              	.LASF21:
 2533 02ca 74737461 		.ascii	"tstate_t\000"
 2533      74655F74 
 2533      00
 2534              	.LASF118:
 2535 02d3 73655F74 		.ascii	"se_tp\000"
 2535      7000
 2536              	.LASF115:
 2537 02d9 63686465 		.ascii	"chdebug_t\000"
 2537      6275675F 
 2537      7400
 2538              	.LASF65:
 2539 02e3 534C4545 		.ascii	"SLEEPCNT\000"
 2539      50434E54 
 2539      00
 2540              	.LASF34:
 2541 02ec 705F6E65 		.ascii	"p_newer\000"
 2541      77657200 
 2542              	.LASF130:
 2543 02f4 5F69646C 		.ascii	"_idle_thread_wa\000"
 2543      655F7468 
 2543      72656164 
 2543      5F776100 
 2544              	.LASF140:
 2545 0304 4F50544B 		.ascii	"OPTKEYR\000"
 2545      45595200 
 2546              	.LASF6:
 2547 030c 73686F72 		.ascii	"short unsigned int\000"
 2547      7420756E 
 2547      7369676E 
 2547      65642069 
 2547      6E7400
 2548              	.LASF133:
 2549 031f 53797354 		.ascii	"SysTick_Type\000"
 2549      69636B5F 
 2549      54797065 
 2549      00
 2550              	.LASF122:
 2551 032c 74625F73 		.ascii	"tb_size\000"
ARM GAS  /tmp/ccT5mgKJ.s 			page 48


 2551      697A6500 
 2552              	.LASF82:
 2553 0334 725F6E65 		.ascii	"r_newer\000"
 2553      77657200 
 2554              	.LASF52:
 2555 033c 72656761 		.ascii	"regarm_t\000"
 2555      726D5F74 
 2555      00
 2556              	.LASF73:
 2557 0345 76745F70 		.ascii	"vt_prev\000"
 2557      72657600 
 2558              	.LASF86:
 2559 034d 76746C69 		.ascii	"vtlist\000"
 2559      737400
 2560              	.LASF139:
 2561 0354 4B455952 		.ascii	"KEYR\000"
 2561      00
 2562              	.LASF29:
 2563 0359 54687265 		.ascii	"Thread\000"
 2563      616400
 2564              	.LASF204:
 2565 0360 73746D33 		.ascii	"stm32_clock_init\000"
 2565      325F636C 
 2565      6F636B5F 
 2565      696E6974 
 2565      00
 2566              	.LASF13:
 2567 0371 6C6F6E67 		.ascii	"long long unsigned int\000"
 2567      206C6F6E 
 2567      6720756E 
 2567      7369676E 
 2567      65642069 
 2568              	.LASF190:
 2569 0388 50424461 		.ascii	"PBData\000"
 2569      746100
 2570              	.LASF117:
 2571 038f 73655F74 		.ascii	"se_time\000"
 2571      696D6500 
 2572              	.LASF28:
 2573 0397 636E745F 		.ascii	"cnt_t\000"
 2573      7400
 2574              	.LASF37:
 2575 039d 705F7374 		.ascii	"p_stklimit\000"
 2575      6B6C696D 
 2575      697400
 2576              	.LASF0:
 2577 03a8 756E7369 		.ascii	"unsigned int\000"
 2577      676E6564 
 2577      20696E74 
 2577      00
 2578              	.LASF72:
 2579 03b5 76745F6E 		.ascii	"vt_next\000"
 2579      65787400 
 2580              	.LASF15:
 2581 03bd 75696E74 		.ascii	"uint16_t\000"
 2581      31365F74 
 2581      00
ARM GAS  /tmp/ccT5mgKJ.s 			page 49


 2582              	.LASF77:
 2583 03c6 76745F73 		.ascii	"vt_systime\000"
 2583      79737469 
 2583      6D6500
 2584              	.LASF44:
 2585 03d1 705F6D73 		.ascii	"p_msgqueue\000"
 2585      67717565 
 2585      756500
 2586              	.LASF116:
 2587 03dc 63685F64 		.ascii	"ch_debug\000"
 2587      65627567 
 2587      00
 2588              	.LASF174:
 2589 03e5 5243435F 		.ascii	"RCC_TypeDef\000"
 2589      54797065 
 2589      44656600 
 2590              	.LASF184:
 2591 03f1 6F737065 		.ascii	"ospeedr\000"
 2591      65647200 
 2592              	.LASF177:
 2593 03f9 69736869 		.ascii	"ishift\000"
 2593      667400
 2594              	.LASF119:
 2595 0400 73655F77 		.ascii	"se_wtobjp\000"
 2595      746F626A 
 2595      7000
 2596              	.LASF132:
 2597 040a 43414C49 		.ascii	"CALIB\000"
 2597      4200
 2598              	.LASF194:
 2599 0410 50464461 		.ascii	"PFData\000"
 2599      746100
 2600              	.LASF202:
 2601 0417 2F686F6D 		.ascii	"/home/renan/BLDC/bldc-bootloader\000"
 2601      652F7265 
 2601      6E616E2F 
 2601      424C4443 
 2601      2F626C64 
 2602              	.LASF171:
 2603 0438 504C4C49 		.ascii	"PLLI2SCFGR\000"
 2603      32534346 
 2603      475200
 2604              	.LASF25:
 2605 0443 6D73675F 		.ascii	"msg_t\000"
 2605      7400
 2606              	.LASF145:
 2607 0449 504C4C43 		.ascii	"PLLCFGR\000"
 2607      46475200 
 2608              	.LASF206:
 2609 0451 68616C5F 		.ascii	"hal_lld_backup_domain_init\000"
 2609      6C6C645F 
 2609      6261636B 
 2609      75705F64 
 2609      6F6D6169 
 2610              	.LASF138:
 2611 046c 444D415F 		.ascii	"DMA_Stream_TypeDef\000"
 2611      53747265 
ARM GAS  /tmp/ccT5mgKJ.s 			page 50


 2611      616D5F54 
 2611      79706544 
 2611      656600
 2612              	.LASF124:
 2613 047f 74625F62 		.ascii	"tb_buffer\000"
 2613      75666665 
 2613      7200
 2614              	.LASF127:
 2615 0489 6462675F 		.ascii	"dbg_isr_cnt\000"
 2615      6973725F 
 2615      636E7400 
 2616              	.LASF166:
 2617 0495 41504232 		.ascii	"APB2LPENR\000"
 2617      4C50454E 
 2617      5200
 2618              	.LASF51:
 2619 049f 54687265 		.ascii	"ThreadsList\000"
 2619      6164734C 
 2619      69737400 
 2620              	.LASF26:
 2621 04ab 6576656E 		.ascii	"eventmask_t\000"
 2621      746D6173 
 2621      6B5F7400 
 2622              	.LASF7:
 2623 04b7 5F5F696E 		.ascii	"__int32_t\000"
 2623      7433325F 
 2623      7400
 2624              	.LASF195:
 2625 04c1 50474461 		.ascii	"PGData\000"
 2625      746100
 2626              	.LASF203:
 2627 04c8 73746B61 		.ascii	"stkalign_t\000"
 2627      6C69676E 
 2627      5F7400
 2628              	.LASF98:
 2629 04d3 63685F7A 		.ascii	"ch_zero\000"
 2629      65726F00 
 2630              	.LASF112:
 2631 04db 63665F6F 		.ascii	"cf_off_refs\000"
 2631      66665F72 
 2631      65667300 
 2632              	.LASF62:
 2633 04e7 43594343 		.ascii	"CYCCNT\000"
 2633      4E5400
 2634              	.LASF74:
 2635 04ee 76745F74 		.ascii	"vt_time\000"
 2635      696D6500 
 2636              	.LASF43:
 2637 04f6 705F7761 		.ascii	"p_waiting\000"
 2637      6974696E 
 2637      6700
 2638              	.LASF201:
 2639 0500 43686962 		.ascii	"ChibiOS_2.6.6/os/hal/platforms/STM32F4xx/hal_lld.c\000"
 2639      694F535F 
 2639      322E362E 
 2639      362F6F73 
 2639      2F68616C 
ARM GAS  /tmp/ccT5mgKJ.s 			page 51


 2640              	.LASF185:
 2641 0533 70757064 		.ascii	"pupdr\000"
 2641      7200
 2642              	.LASF131:
 2643 0539 4C4F4144 		.ascii	"LOAD\000"
 2643      00
 2644              	.LASF88:
 2645 053e 4D757465 		.ascii	"Mutex\000"
 2645      7800
 2646              	.LASF102:
 2647 0544 63685F74 		.ascii	"ch_timesize\000"
 2647      696D6573 
 2647      697A6500 
 2648              	.LASF123:
 2649 0550 74625F70 		.ascii	"tb_ptr\000"
 2649      747200
 2650              	.LASF30:
 2651 0557 705F6E65 		.ascii	"p_next\000"
 2651      787400
 2652              	.LASF121:
 2653 055e 63685F73 		.ascii	"ch_swc_event_t\000"
 2653      77635F65 
 2653      76656E74 
 2653      5F7400
 2654              	.LASF156:
 2655 056d 41484233 		.ascii	"AHB3ENR\000"
 2655      454E5200 
 2656              	.LASF108:
 2657 0575 63665F6F 		.ascii	"cf_off_name\000"
 2657      66665F6E 
 2657      616D6500 
 2658              	.LASF35:
 2659 0581 705F6F6C 		.ascii	"p_older\000"
 2659      64657200 
 2660              	.LASF81:
 2661 0589 725F6374 		.ascii	"r_ctx\000"
 2661      7800
 2662              	.LASF50:
 2663 058f 54687265 		.ascii	"ThreadsQueue\000"
 2663      61647351 
 2663      75657565 
 2663      00
 2664              	.LASF33:
 2665 059c 705F6374 		.ascii	"p_ctx\000"
 2665      7800
 2666              	.LASF99:
 2667 05a2 63685F73 		.ascii	"ch_size\000"
 2667      697A6500 
 2668              	.LASF187:
 2669 05aa 61667268 		.ascii	"afrh\000"
 2669      00
 2670              	.LASF192:
 2671 05af 50444461 		.ascii	"PDData\000"
 2671      746100
 2672              	.LASF84:
 2673 05b6 725F6375 		.ascii	"r_current\000"
 2673      7272656E 
ARM GAS  /tmp/ccT5mgKJ.s 			page 52


 2673      7400
 2674              	.LASF151:
 2675 05c0 41504231 		.ascii	"APB1RSTR\000"
 2675      52535452 
 2675      00
 2676              	.LASF142:
 2677 05c9 4F505443 		.ascii	"OPTCR1\000"
 2677      523100
 2678              	.LASF12:
 2679 05d0 5F5F7569 		.ascii	"__uint64_t\000"
 2679      6E743634 
 2679      5F7400
 2680              	.LASF126:
 2681 05db 6462675F 		.ascii	"dbg_trace_buffer\000"
 2681      74726163 
 2681      655F6275 
 2681      66666572 
 2681      00
 2682              	.LASF172:
 2683 05ec 504C4C53 		.ascii	"PLLSAICFGR\000"
 2683      41494346 
 2683      475200
 2684              	.LASF22:
 2685 05f7 74726566 		.ascii	"trefs_t\000"
 2685      735F7400 
 2686              	.LASF150:
 2687 05ff 52455345 		.ascii	"RESERVED0\000"
 2687      52564544 
 2687      3000
 2688              	.LASF101:
 2689 0609 63685F70 		.ascii	"ch_ptrsize\000"
 2689      74727369 
 2689      7A6500
 2690              	.LASF157:
 2691 0614 52455345 		.ascii	"RESERVED2\000"
 2691      52564544 
 2691      3200
 2692              	.LASF160:
 2693 061e 52455345 		.ascii	"RESERVED3\000"
 2693      52564544 
 2693      3300
 2694              	.LASF164:
 2695 0628 52455345 		.ascii	"RESERVED4\000"
 2695      52564544 
 2695      3400
 2696              	.LASF31:
 2697 0632 705F7072 		.ascii	"p_prev\000"
 2697      657600
 2698              	.LASF169:
 2699 0639 52455345 		.ascii	"RESERVED6\000"
 2699      52564544 
 2699      3600
 2700              	.LASF180:
 2701 0643 73746D33 		.ascii	"stm32_dma_stream_t\000"
 2701      325F646D 
 2701      615F7374 
 2701      7265616D 
ARM GAS  /tmp/ccT5mgKJ.s 			page 53


 2701      5F7400
 2702              	.LASF24:
 2703 0656 74707269 		.ascii	"tprio_t\000"
 2703      6F5F7400 
 2704              	.LASF68:
 2705 065e 50435352 		.ascii	"PCSR\000"
 2705      00
 2706              	.LASF61:
 2707 0663 4354524C 		.ascii	"CTRL\000"
 2707      00
 2708              	.LASF59:
 2709 0668 44454D43 		.ascii	"DEMCR\000"
 2709      5200
 2710              	.LASF19:
 2711 066e 5F426F6F 		.ascii	"_Bool\000"
 2711      6C00
 2712              	.LASF16:
 2713 0674 696E7433 		.ascii	"int32_t\000"
 2713      325F7400 
 2714              	.LASF2:
 2715 067c 756E7369 		.ascii	"unsigned char\000"
 2715      676E6564 
 2715      20636861 
 2715      7200
 2716              	.LASF129:
 2717 068a 6462675F 		.ascii	"dbg_panic_msg\000"
 2717      70616E69 
 2717      635F6D73 
 2717      6700
 2718              	.LASF186:
 2719 0698 6166726C 		.ascii	"afrl\000"
 2719      00
 2720              	.LASF47:
 2721 069d 705F6D74 		.ascii	"p_mtxlist\000"
 2721      786C6973 
 2721      7400
 2722              	.LASF3:
 2723 06a7 73686F72 		.ascii	"short int\000"
 2723      7420696E 
 2723      7400
 2724              	.LASF38:
 2725 06b1 705F7374 		.ascii	"p_state\000"
 2725      61746500 
 2726              	.LASF41:
 2727 06b9 705F7072 		.ascii	"p_preempt\000"
 2727      65656D70 
 2727      7400
 2728              	.LASF114:
 2729 06c3 63665F6F 		.ascii	"cf_off_time\000"
 2729      66665F74 
 2729      696D6500 
 2730              	.LASF163:
 2731 06cf 41484233 		.ascii	"AHB3LPENR\000"
 2731      4C50454E 
 2731      5200
 2732              	.LASF80:
 2733 06d9 725F7072 		.ascii	"r_prio\000"
ARM GAS  /tmp/ccT5mgKJ.s 			page 54


 2733      696F00
 2734              	.LASF189:
 2735 06e0 50414461 		.ascii	"PAData\000"
 2735      746100
 2736              	.LASF95:
 2737 06e7 65776D61 		.ascii	"ewmask\000"
 2737      736B00
 2738              	.LASF113:
 2739 06ee 63665F6F 		.ascii	"cf_off_preempt\000"
 2739      66665F70 
 2739      7265656D 
 2739      707400
 2740              	.LASF39:
 2741 06fd 705F666C 		.ascii	"p_flags\000"
 2741      61677300 
 2742              	.LASF159:
 2743 0705 41504232 		.ascii	"APB2ENR\000"
 2743      454E5200 
 2744              	.LASF56:
 2745 070d 44484353 		.ascii	"DHCSR\000"
 2745      5200
 2746              	.LASF149:
 2747 0713 41484233 		.ascii	"AHB3RSTR\000"
 2747      52535452 
 2747      00
 2748              	.LASF197:
 2749 071c 50494461 		.ascii	"PIData\000"
 2749      746100
 2750              	.LASF153:
 2751 0723 52455345 		.ascii	"RESERVED1\000"
 2751      52564544 
 2751      3100
 2752              	.LASF106:
 2753 072d 63665F6F 		.ascii	"cf_off_newer\000"
 2753      66665F6E 
 2753      65776572 
 2753      00
 2754              	.LASF46:
 2755 073a 705F6570 		.ascii	"p_epending\000"
 2755      656E6469 
 2755      6E6700
 2756              	.LASF176:
 2757 0745 69666372 		.ascii	"ifcr\000"
 2757      00
 2758              	.LASF167:
 2759 074a 52455345 		.ascii	"RESERVED5\000"
 2759      52564544 
 2759      3500
 2760              	.LASF66:
 2761 0754 4C535543 		.ascii	"LSUCNT\000"
 2761      4E5400
 2762              	.LASF17:
 2763 075b 75696E74 		.ascii	"uint32_t\000"
 2763      33325F74 
 2763      00
 2764              	.LASF104:
 2765 0764 63665F6F 		.ascii	"cf_off_prio\000"
ARM GAS  /tmp/ccT5mgKJ.s 			page 55


 2765      66665F70 
 2765      72696F00 
 2766              	.LASF79:
 2767 0770 725F7175 		.ascii	"r_queue\000"
 2767      65756500 
 2768              	.LASF10:
 2769 0778 6C6F6E67 		.ascii	"long unsigned int\000"
 2769      20756E73 
 2769      69676E65 
 2769      6420696E 
 2769      7400
 2770              	.LASF96:
 2771 078a 63686172 		.ascii	"char\000"
 2771      00
 2772              	.LASF55:
 2773 078f 494F5245 		.ascii	"IOREG32\000"
 2773      47333200 
 2774              	.LASF5:
 2775 0797 5F5F7569 		.ascii	"__uint16_t\000"
 2775      6E743136 
 2775      5F7400
 2776              	.LASF148:
 2777 07a2 41484232 		.ascii	"AHB2RSTR\000"
 2777      52535452 
 2777      00
 2778              	.LASF91:
 2779 07ab 6D5F6E65 		.ascii	"m_next\000"
 2779      787400
 2780              	.LASF27:
 2781 07b2 73797374 		.ascii	"systime_t\000"
 2781      696D655F 
 2781      7400
 2782              	.LASF48:
 2783 07bc 705F7265 		.ascii	"p_realprio\000"
 2783      616C7072 
 2783      696F00
 2784              	.LASF70:
 2785 07c7 76746675 		.ascii	"vtfunc_t\000"
 2785      6E635F74 
 2785      00
 2786              	.LASF9:
 2787 07d0 5F5F7569 		.ascii	"__uint32_t\000"
 2787      6E743332 
 2787      5F7400
 2788              	.LASF135:
 2789 07db 4E445452 		.ascii	"NDTR\000"
 2789      00
 2790              	.LASF128:
 2791 07e0 6462675F 		.ascii	"dbg_lock_cnt\000"
 2791      6C6F636B 
 2791      5F636E74 
 2791      00
 2792              	.LASF158:
 2793 07ed 41504231 		.ascii	"APB1ENR\000"
 2793      454E5200 
 2794              	.LASF155:
 2795 07f5 41484232 		.ascii	"AHB2ENR\000"
ARM GAS  /tmp/ccT5mgKJ.s 			page 56


 2795      454E5200 
 2796              	.LASF54:
 2797 07fd 636F6E74 		.ascii	"context\000"
 2797      65787400 
 2798              	.LASF83:
 2799 0805 725F6F6C 		.ascii	"r_older\000"
 2799      64657200 
 2800              	.LASF67:
 2801 080d 464F4C44 		.ascii	"FOLDCNT\000"
 2801      434E5400 
 2802              	.LASF205:
 2803 0815 68616C5F 		.ascii	"hal_lld_init\000"
 2803      6C6C645F 
 2803      696E6974 
 2803      00
 2804              	.LASF45:
 2805 0822 705F6D73 		.ascii	"p_msg\000"
 2805      6700
 2806              	.LASF53:
 2807 0828 696E7463 		.ascii	"intctx\000"
 2807      747800
 2808              	.LASF137:
 2809 082f 4D314152 		.ascii	"M1AR\000"
 2809      00
 2810              	.LASF178:
 2811 0834 73656C66 		.ascii	"selfindex\000"
 2811      696E6465 
 2811      7800
 2812              	.LASF76:
 2813 083e 76745F70 		.ascii	"vt_par\000"
 2813      617200
 2814              	.LASF198:
 2815 0845 50414C43 		.ascii	"PALConfig\000"
 2815      6F6E6669 
 2815      6700
 2816              	.LASF170:
 2817 084f 53534347 		.ascii	"SSCGR\000"
 2817      5200
 2818              	.LASF105:
 2819 0855 63665F6F 		.ascii	"cf_off_ctx\000"
 2819      66665F63 
 2819      747800
 2820              	.LASF40:
 2821 0860 705F7265 		.ascii	"p_refs\000"
 2821      667300
 2822              	.LASF85:
 2823 0867 52656164 		.ascii	"ReadyList\000"
 2823      794C6973 
 2823      7400
 2824              	.LASF168:
 2825 0871 42444352 		.ascii	"BDCR\000"
 2825      00
 2826              	.LASF120:
 2827 0876 73655F73 		.ascii	"se_state\000"
 2827      74617465 
 2827      00
 2828              	.LASF87:
ARM GAS  /tmp/ccT5mgKJ.s 			page 57


 2829 087f 726C6973 		.ascii	"rlist\000"
 2829      7400
 2830              	.LASF69:
 2831 0885 434D785F 		.ascii	"CMx_DWT\000"
 2831      44575400 
 2832              	.LASF14:
 2833 088d 75696E74 		.ascii	"uint8_t\000"
 2833      385F7400 
 2834              	.LASF94:
 2835 0895 77746F62 		.ascii	"wtobjp\000"
 2835      6A7000
 2836              	.LASF36:
 2837 089c 705F6E61 		.ascii	"p_name\000"
 2837      6D6500
 2838              	.LASF154:
 2839 08a3 41484231 		.ascii	"AHB1ENR\000"
 2839      454E5200 
 2840              	.LASF191:
 2841 08ab 50434461 		.ascii	"PCData\000"
 2841      746100
 2842              	.LASF146:
 2843 08b2 43464752 		.ascii	"CFGR\000"
 2843      00
 2844              	.LASF20:
 2845 08b7 746D6F64 		.ascii	"tmode_t\000"
 2845      655F7400 
 2846              	.LASF100:
 2847 08bf 63685F76 		.ascii	"ch_version\000"
 2847      65727369 
 2847      6F6E00
 2848              	.LASF78:
 2849 08ca 56544C69 		.ascii	"VTList\000"
 2849      737400
 2850              	.LASF64:
 2851 08d1 45584343 		.ascii	"EXCCNT\000"
 2851      4E5400
 2852              	.LASF90:
 2853 08d8 6D5F6F77 		.ascii	"m_owner\000"
 2853      6E657200 
 2854              	.LASF199:
 2855 08e0 70616C5F 		.ascii	"pal_default_config\000"
 2855      64656661 
 2855      756C745F 
 2855      636F6E66 
 2855      696700
 2856              	.LASF97:
 2857 08f3 63685F69 		.ascii	"ch_identifier\000"
 2857      64656E74 
 2857      69666965 
 2857      7200
 2858              	.LASF75:
 2859 0901 76745F66 		.ascii	"vt_func\000"
 2859      756E6300 
 2860              		.ident	"GCC: (GNU Tools for Arm Embedded Processors 7-2018-q3-update) 7.3.1 20180622 (release) [AR
ARM GAS  /tmp/ccT5mgKJ.s 			page 58


DEFINED SYMBOLS
                            *ABS*:0000000000000000 hal_lld.c
     /tmp/ccT5mgKJ.s:18     .text.hal_lld_init:0000000000000000 $t
     /tmp/ccT5mgKJ.s:26     .text.hal_lld_init:0000000000000000 hal_lld_init
     /tmp/ccT5mgKJ.s:133    .text.hal_lld_init:000000000000007c $d
     /tmp/ccT5mgKJ.s:142    .text.stm32_clock_init:0000000000000000 $t
     /tmp/ccT5mgKJ.s:150    .text.stm32_clock_init:0000000000000000 stm32_clock_init
     /tmp/ccT5mgKJ.s:274    .text.stm32_clock_init:00000000000000a4 $d

NO UNDEFINED SYMBOLS
