ARM GAS  /tmp/ccccEfOH.s 			page 1


   1              		.cpu cortex-m4
   2              		.eabi_attribute 27, 1
   3              		.eabi_attribute 28, 1
   4              		.eabi_attribute 20, 1
   5              		.eabi_attribute 21, 1
   6              		.eabi_attribute 23, 3
   7              		.eabi_attribute 24, 1
   8              		.eabi_attribute 25, 1
   9              		.eabi_attribute 26, 1
  10              		.eabi_attribute 30, 2
  11              		.eabi_attribute 34, 1
  12              		.eabi_attribute 18, 4
  13              		.file	"main.c"
  14              		.text
  15              	.Ltext0:
  16              		.cfi_sections	.debug_frame
  17              		.section	.text.exit_bootloader,"ax",%progbits
  18              		.align	1
  19              		.p2align 4,,15
  20              		.syntax unified
  21              		.thumb
  22              		.thumb_func
  23              		.fpu fpv4-sp-d16
  24              		.type	exit_bootloader, %function
  25              	exit_bootloader:
  26              	.LFB118:
  27              		.file 1 "main.c"
  28              		.loc 1 121 0
  29              		.cfi_startproc
  30              		@ Volatile: function does not return.
  31              		@ args = 0, pretend = 0, frame = 0
  32              		@ frame_needed = 0, uses_anonymous_args = 0
  33 0000 08B5     		push	{r3, lr}
  34              		.cfi_def_cfa_offset 8
  35              		.cfi_offset 3, -8
  36              		.cfi_offset 14, -4
  37              		.loc 1 123 0
  38 0002 0121     		movs	r1, #1
  39 0004 4FF40060 		mov	r0, #2048
  40 0008 FFF7FEFF 		bl	RCC_APB1PeriphClockCmd
  41              	.LVL0:
  42              		.loc 1 124 0
  43 000c 0020     		movs	r0, #0
  44 000e FFF7FEFF 		bl	WWDG_SetPrescaler
  45              	.LVL1:
  46              		.loc 1 125 0
  47 0012 FF20     		movs	r0, #255
  48 0014 FFF7FEFF 		bl	WWDG_SetWindowValue
  49              	.LVL2:
  50              		.loc 1 126 0
  51 0018 6420     		movs	r0, #100
  52 001a FFF7FEFF 		bl	WWDG_Enable
  53              	.LVL3:
  54              	.LBB28:
  55              	.LBB29:
  56              		.file 2 "ChibiOS_2.6.6/os/ports/common/ARMCMx/CMSIS/include/core_cmFunc.h"
  57              		.loc 2 328 0
ARM GAS  /tmp/ccccEfOH.s 			page 2


  58              		.syntax unified
  59              	@ 328 "ChibiOS_2.6.6/os/ports/common/ARMCMx/CMSIS/include/core_cmFunc.h" 1
  60 001e 72B6     		cpsid i
  61              	@ 0 "" 2
  62              		.thumb
  63              		.syntax unified
  64              	.L2:
  65 0020 FEE7     		b	.L2
  66              	.LBE29:
  67              	.LBE28:
  68              		.cfi_endproc
  69              	.LFE118:
  70              		.size	exit_bootloader, .-exit_bootloader
  71 0022 00BF     		.section	.text.blink_led,"ax",%progbits
  72              		.align	1
  73              		.p2align 4,,15
  74              		.global	blink_led
  75              		.syntax unified
  76              		.thumb
  77              		.thumb_func
  78              		.fpu fpv4-sp-d16
  79              		.type	blink_led, %function
  80              	blink_led:
  81              	.LFB122:
  82              		.loc 1 193 0
  83              		.cfi_startproc
  84              		@ args = 0, pretend = 0, frame = 0
  85              		@ frame_needed = 0, uses_anonymous_args = 0
  86              		@ link register save eliminated.
  87              	.LVL4:
  88              		.loc 1 214 0
  89 0000 7047     		bx	lr
  90              		.cfi_endproc
  91              	.LFE122:
  92              		.size	blink_led, .-blink_led
  93 0002 00BF     		.section	.text.sleep,"ax",%progbits
  94              		.align	1
  95              		.p2align 4,,15
  96              		.global	sleep
  97              		.syntax unified
  98              		.thumb
  99              		.thumb_func
 100              		.fpu fpv4-sp-d16
 101              		.type	sleep, %function
 102              	sleep:
 103              	.LFB123:
 104              		.loc 1 216 0
 105              		.cfi_startproc
 106              		@ args = 0, pretend = 0, frame = 8
 107              		@ frame_needed = 0, uses_anonymous_args = 0
 108              		@ link register save eliminated.
 109              	.LVL5:
 110 0000 82B0     		sub	sp, sp, #8
 111              		.cfi_def_cfa_offset 8
 112              	.LBB30:
 113              		.loc 1 217 0
 114 0002 0023     		movs	r3, #0
ARM GAS  /tmp/ccccEfOH.s 			page 3


 115 0004 0193     		str	r3, [sp, #4]
 116 0006 019A     		ldr	r2, [sp, #4]
 117 0008 42F21073 		movw	r3, #10000
 118 000c 03FB00F0 		mul	r0, r3, r0
 119              	.LVL6:
 120 0010 9042     		cmp	r0, r2
 121 0012 06DD     		ble	.L6
 122              	.L8:
 123              	.LBB31:
 124              	.LBB32:
 125              		.file 3 "ChibiOS_2.6.6/os/ports/common/ARMCMx/CMSIS/include/core_cmInstr.h"
 126              		.loc 3 288 0
 127              		.syntax unified
 128              	@ 288 "ChibiOS_2.6.6/os/ports/common/ARMCMx/CMSIS/include/core_cmInstr.h" 1
 129 0014 00BF     		nop
 130              	@ 0 "" 2
 131              		.thumb
 132              		.syntax unified
 133              	.LBE32:
 134              	.LBE31:
 135              		.loc 1 217 0
 136 0016 019B     		ldr	r3, [sp, #4]
 137 0018 0133     		adds	r3, r3, #1
 138 001a 0193     		str	r3, [sp, #4]
 139 001c 019B     		ldr	r3, [sp, #4]
 140 001e 8342     		cmp	r3, r0
 141 0020 F8DB     		blt	.L8
 142              	.L6:
 143              	.LBE30:
 144              		.loc 1 222 0
 145 0022 02B0     		add	sp, sp, #8
 146              		.cfi_def_cfa_offset 0
 147              		@ sp needed
 148 0024 7047     		bx	lr
 149              		.cfi_endproc
 150              	.LFE123:
 151              		.size	sleep, .-sleep
 152 0026 00BF     		.section	.text.startup.main,"ax",%progbits
 153              		.align	1
 154              		.p2align 4,,15
 155              		.global	main
 156              		.syntax unified
 157              		.thumb
 158              		.thumb_func
 159              		.fpu fpv4-sp-d16
 160              		.type	main, %function
 161              	main:
 162              	.LFB124:
 163              		.loc 1 224 0
 164              		.cfi_startproc
 165              		@ args = 0, pretend = 0, frame = 8
 166              		@ frame_needed = 0, uses_anonymous_args = 0
 167 0000 2DE9F04F 		push	{r4, r5, r6, r7, r8, r9, r10, fp, lr}
 168              		.cfi_def_cfa_offset 36
 169              		.cfi_offset 4, -36
 170              		.cfi_offset 5, -32
 171              		.cfi_offset 6, -28
ARM GAS  /tmp/ccccEfOH.s 			page 4


 172              		.cfi_offset 7, -24
 173              		.cfi_offset 8, -20
 174              		.cfi_offset 9, -16
 175              		.cfi_offset 10, -12
 176              		.cfi_offset 11, -8
 177              		.cfi_offset 14, -4
 178              		.loc 1 232 0
 179 0004 2F4B     		ldr	r3, .L26
 180              		.loc 1 229 0
 181 0006 304A     		ldr	r2, .L26+4
 182              		.loc 1 232 0
 183 0008 304E     		ldr	r6, .L26+8
 184              		.loc 1 229 0
 185 000a 3149     		ldr	r1, .L26+12
 186              	.LBB49:
 187              	.LBB50:
 188              	.LBB51:
 189              	.LBB52:
 190              		.loc 1 176 0
 191 000c DFF8CC90 		ldr	r9, .L26+24
 192              	.LBE52:
 193              	.LBE51:
 194              	.LBE50:
 195              	.LBE49:
 196              		.loc 1 229 0
 197 0010 9160     		str	r1, [r2, #8]
 198              		.loc 1 224 0
 199 0012 83B0     		sub	sp, sp, #12
 200              		.cfi_def_cfa_offset 48
 201              		.loc 1 232 0
 202 0014 1846     		mov	r0, r3
 203 0016 3360     		str	r3, [r6]
 204              	.LVL7:
 205 0018 0527     		movs	r7, #5
 206              	.LVL8:
 207              	.L21:
 208              	.LBB64:
 209              	.LBB63:
 210              	.LBB62:
 211              	.LBB61:
 212              		.loc 1 168 0
 213 001a 0023     		movs	r3, #0
 214              		.loc 1 169 0
 215 001c 01A9     		add	r1, sp, #4
 216              		.loc 1 168 0
 217 001e 0193     		str	r3, [sp, #4]
 218              		.loc 1 169 0
 219 0020 FFF7FEFF 		bl	buffer_get_uint32
 220              	.LVL9:
 221              		.loc 1 170 0
 222 0024 01A9     		add	r1, sp, #4
 223              		.loc 1 169 0
 224 0026 0546     		mov	r5, r0
 225              	.LVL10:
 226              		.loc 1 170 0
 227 0028 3068     		ldr	r0, [r6]
 228              	.LVL11:
ARM GAS  /tmp/ccccEfOH.s 			page 5


 229 002a FFF7FEFF 		bl	buffer_get_uint16
 230              	.LVL12:
 231              		.loc 1 176 0
 232 002e 6B1E     		subs	r3, r5, #1
 233 0030 4B45     		cmp	r3, r9
 234              		.loc 1 170 0
 235 0032 0446     		mov	r4, r0
 236              	.LVL13:
 237              		.loc 1 176 0
 238 0034 33D8     		bhi	.L18
 239              		.loc 1 180 0
 240 0036 3068     		ldr	r0, [r6]
 241 0038 019B     		ldr	r3, [sp, #4]
 242 003a 2946     		mov	r1, r5
 243 003c 1844     		add	r0, r0, r3
 244 003e FFF7FEFF 		bl	crc16
 245              	.LVL14:
 246              		.loc 1 181 0
 247 0042 8442     		cmp	r4, r0
 248 0044 2BD1     		bne	.L18
 249              	.LVL15:
 250              	.LBB53:
 251              	.LBB54:
 252              		.loc 1 133 0
 253 0046 FFF7FEFF 		bl	FLASH_Unlock
 254              	.LVL16:
 255              		.loc 1 134 0
 256 004a F220     		movs	r0, #242
 257 004c 214C     		ldr	r4, .L26+16
 258              	.LVL17:
 259 004e DFF89080 		ldr	r8, .L26+28
 260 0052 FFF7FEFF 		bl	FLASH_ClearFlag
 261              	.LVL18:
 262 0056 04F1180A 		add	r10, r4, #24
 263              		.loc 1 137 0
 264 005a 05F1006B 		add	fp, r5, #134217728
 265              	.LVL19:
 266              	.L16:
 267              	.LBB55:
 268              	.LBB56:
 269              		.loc 1 141 0
 270 005e 0221     		movs	r1, #2
 271 0060 38F8020F 		ldrh	r0, [r8, #2]!
 272 0064 FFF7FEFF 		bl	FLASH_EraseSector
 273              	.LVL20:
 274              		.loc 1 142 0
 275 0068 0828     		cmp	r0, #8
 276 006a 1AD1     		bne	.L14
 277              	.LVL21:
 278              	.LBE56:
 279              		.loc 1 139 0
 280 006c A245     		cmp	r10, r4
 281 006e 03D0     		beq	.L15
 282 0070 54F8042B 		ldr	r2, [r4], #4
 283              		.loc 1 140 0
 284 0074 5A45     		cmp	r2, fp
 285 0076 F2D3     		bcc	.L16
ARM GAS  /tmp/ccccEfOH.s 			page 6


 286              	.L15:
 287              	.LVL22:
 288              	.LBE55:
 289              	.LBE54:
 290              	.LBE53:
 291              		.loc 1 190 0
 292 0078 3468     		ldr	r4, [r6]
 293 007a 019B     		ldr	r3, [sp, #4]
 294              	.LVL23:
 295              	.LBB57:
 296              	.LBB58:
 297              		.loc 1 154 0
 298 007c F220     		movs	r0, #242
 299 007e 1C44     		add	r4, r4, r3
 300              	.LVL24:
 301 0080 2544     		add	r5, r5, r4
 302              	.LVL25:
 303 0082 C4F1006A 		rsb	r10, r4, #134217728
 304 0086 FFF7FEFF 		bl	FLASH_ClearFlag
 305              	.LVL26:
 306              	.L17:
 307 008a 0AEB0400 		add	r0, r10, r4
 308              	.LBB59:
 309              	.LBB60:
 310              		.loc 1 158 0
 311 008e 14F8011B 		ldrb	r1, [r4], #1	@ zero_extendqisi2
 312 0092 FFF7FEFF 		bl	FLASH_ProgramByte
 313              	.LVL27:
 314              		.loc 1 159 0
 315 0096 0828     		cmp	r0, #8
 316 0098 03D1     		bne	.L14
 317              	.LBE60:
 318              		.loc 1 157 0
 319 009a A542     		cmp	r5, r4
 320 009c F5D1     		bne	.L17
 321              	.LVL28:
 322              	.L18:
 323              	.LBE59:
 324              	.LBE58:
 325              	.LBE57:
 326              	.LBE61:
 327              	.LBE62:
 328              	.LBE63:
 329              	.LBE64:
 330              		.loc 1 272 0
 331 009e FFF7FEFF 		bl	exit_bootloader
 332              	.LVL29:
 333              	.L14:
 334              	.LBB65:
 335              		.loc 1 248 0
 336 00a2 013F     		subs	r7, r7, #1
 337              	.LVL30:
 338 00a4 01D0     		beq	.L20
 339 00a6 3068     		ldr	r0, [r6]
 340 00a8 B7E7     		b	.L21
 341              	.L20:
 342              	.LVL31:
ARM GAS  /tmp/ccccEfOH.s 			page 7


 343              	.LBE65:
 344              	.LBB66:
 345              	.LBB67:
 346              		.loc 1 217 0
 347 00aa 0197     		str	r7, [sp, #4]
 348 00ac 019B     		ldr	r3, [sp, #4]
 349 00ae 0A4A     		ldr	r2, .L26+20
 350 00b0 9342     		cmp	r3, r2
 351 00b2 F4DC     		bgt	.L18
 352              	.L19:
 353              	.LBB68:
 354              	.LBB69:
 355              		.loc 3 288 0
 356              		.syntax unified
 357              	@ 288 "ChibiOS_2.6.6/os/ports/common/ARMCMx/CMSIS/include/core_cmInstr.h" 1
 358 00b4 00BF     		nop
 359              	@ 0 "" 2
 360              		.thumb
 361              		.syntax unified
 362              	.LBE69:
 363              	.LBE68:
 364              		.loc 1 217 0
 365 00b6 019B     		ldr	r3, [sp, #4]
 366 00b8 0133     		adds	r3, r3, #1
 367 00ba 0193     		str	r3, [sp, #4]
 368 00bc 019B     		ldr	r3, [sp, #4]
 369 00be 9342     		cmp	r3, r2
 370 00c0 F8DD     		ble	.L19
 371 00c2 ECE7     		b	.L18
 372              	.L27:
 373              		.align	2
 374              	.L26:
 375 00c4 00000808 		.word	134742016
 376 00c8 00ED00E0 		.word	-536810240
 377 00cc 00000000 		.word	.LANCHOR0
 378 00d0 00000E08 		.word	135135232
 379 00d4 04000000 		.word	.LANCHOR1+4
 380 00d8 FF2C3101 		.word	19999999
 381 00dc FFFF0500 		.word	393215
 382 00e0 FEFFFFFF 		.word	.LANCHOR2-2
 383              	.LBE67:
 384              	.LBE66:
 385              		.cfi_endproc
 386              	.LFE124:
 387              		.size	main, .-main
 388              		.section	.bss.new_app_addr,"aw",%nobits
 389              		.align	2
 390              		.set	.LANCHOR0,. + 0
 391              		.type	new_app_addr, %object
 392              		.size	new_app_addr, 4
 393              	new_app_addr:
 394 0000 00000000 		.space	4
 395              		.section	.rodata.flash_addr,"a",%progbits
 396              		.align	2
 397              		.set	.LANCHOR1,. + 0
 398              		.type	flash_addr, %object
 399              		.size	flash_addr, 48
ARM GAS  /tmp/ccccEfOH.s 			page 8


 400              	flash_addr:
 401 0000 00000008 		.word	134217728
 402 0004 00400008 		.word	134234112
 403 0008 00800008 		.word	134250496
 404 000c 00C00008 		.word	134266880
 405 0010 00000108 		.word	134283264
 406 0014 00000208 		.word	134348800
 407 0018 00000408 		.word	134479872
 408 001c 00000608 		.word	134610944
 409 0020 00000808 		.word	134742016
 410 0024 00000A08 		.word	134873088
 411 0028 00000C08 		.word	135004160
 412 002c 00000E08 		.word	135135232
 413              		.section	.rodata.flash_sector,"a",%progbits
 414              		.align	2
 415              		.set	.LANCHOR2,. + 0
 416              		.type	flash_sector, %object
 417              		.size	flash_sector, 24
 418              	flash_sector:
 419 0000 0000     		.short	0
 420 0002 0800     		.short	8
 421 0004 1000     		.short	16
 422 0006 1800     		.short	24
 423 0008 2000     		.short	32
 424 000a 2800     		.short	40
 425 000c 3000     		.short	48
 426 000e 3800     		.short	56
 427 0010 4000     		.short	64
 428 0012 4800     		.short	72
 429 0014 5000     		.short	80
 430 0016 5800     		.short	88
 431              		.text
 432              	.Letext0:
 433              		.file 4 "/usr/arm-none-eabi/include/machine/_default_types.h"
 434              		.file 5 "/usr/arm-none-eabi/include/sys/_stdint.h"
 435              		.file 6 "ChibiOS_2.6.6/os/ports/GCC/ARMCMx/chtypes.h"
 436              		.file 7 "ChibiOS_2.6.6/os/kernel/include/chlists.h"
 437              		.file 8 "ChibiOS_2.6.6/os/kernel/include/chthreads.h"
 438              		.file 9 "ChibiOS_2.6.6/os/ports/GCC/ARMCMx/chcore_v7m.h"
 439              		.file 10 "ChibiOS_2.6.6/os/ports/common/ARMCMx/nvic.h"
 440              		.file 11 "ChibiOS_2.6.6/os/kernel/include/chvt.h"
 441              		.file 12 "ChibiOS_2.6.6/os/kernel/include/chschd.h"
 442              		.file 13 "ChibiOS_2.6.6/os/kernel/include/chmtx.h"
 443              		.file 14 "ChibiOS_2.6.6/os/kernel/include/chregistry.h"
 444              		.file 15 "ChibiOS_2.6.6/os/kernel/include/chdebug.h"
 445              		.file 16 "ChibiOS_2.6.6/os/kernel/include/ch.h"
 446              		.file 17 "ChibiOS_2.6.6/os/ports/common/ARMCMx/CMSIS/include/core_cm4.h"
 447              		.file 18 "ChibiOS_2.6.6/os/hal/platforms/STM32F4xx/stm32f4xx.h"
 448              		.file 19 "ChibiOS_2.6.6/ext/stdperiph_stm32f4/inc/stm32f4xx_flash.h"
 449              		.file 20 "ChibiOS_2.6.6/os/hal/platforms/STM32F4xx/stm32_dma.h"
 450              		.file 21 "ChibiOS_2.6.6/os/hal/platforms/STM32/GPIOv2/pal_lld.h"
 451              		.file 22 "buffer.h"
 452              		.file 23 "crc.h"
 453              		.file 24 "ChibiOS_2.6.6/ext/stdperiph_stm32f4/inc/stm32f4xx_rcc.h"
 454              		.file 25 "ChibiOS_2.6.6/ext/stdperiph_stm32f4/inc/stm32f4xx_wwdg.h"
 455              		.section	.debug_info,"",%progbits
 456              	.Ldebug_info0:
ARM GAS  /tmp/ccccEfOH.s 			page 9


 457 0000 83100000 		.4byte	0x1083
 458 0004 0400     		.2byte	0x4
 459 0006 00000000 		.4byte	.Ldebug_abbrev0
 460 000a 04       		.byte	0x4
 461 000b 01       		.uleb128 0x1
 462 000c 83000000 		.4byte	.LASF204
 463 0010 0C       		.byte	0xc
 464 0011 2F040000 		.4byte	.LASF205
 465 0015 36040000 		.4byte	.LASF206
 466 0019 38000000 		.4byte	.Ldebug_ranges0+0x38
 467 001d 00000000 		.4byte	0
 468 0021 00000000 		.4byte	.Ldebug_line0
 469 0025 02       		.uleb128 0x2
 470 0026 01       		.byte	0x1
 471 0027 06       		.byte	0x6
 472 0028 57020000 		.4byte	.LASF0
 473 002c 03       		.uleb128 0x3
 474 002d 59000000 		.4byte	.LASF2
 475 0031 04       		.byte	0x4
 476 0032 2B       		.byte	0x2b
 477 0033 37000000 		.4byte	0x37
 478 0037 02       		.uleb128 0x2
 479 0038 01       		.byte	0x1
 480 0039 08       		.byte	0x8
 481 003a 0E060000 		.4byte	.LASF1
 482 003e 03       		.uleb128 0x3
 483 003f 40030000 		.4byte	.LASF3
 484 0043 04       		.byte	0x4
 485 0044 37       		.byte	0x37
 486 0045 49000000 		.4byte	0x49
 487 0049 02       		.uleb128 0x2
 488 004a 02       		.byte	0x2
 489 004b 05       		.byte	0x5
 490 004c 4D060000 		.4byte	.LASF4
 491 0050 03       		.uleb128 0x3
 492 0051 8C070000 		.4byte	.LASF5
 493 0055 04       		.byte	0x4
 494 0056 39       		.byte	0x39
 495 0057 5B000000 		.4byte	0x5b
 496 005b 02       		.uleb128 0x2
 497 005c 02       		.byte	0x2
 498 005d 07       		.byte	0x7
 499 005e CB060000 		.4byte	.LASF6
 500 0062 03       		.uleb128 0x3
 501 0063 87040000 		.4byte	.LASF7
 502 0067 04       		.byte	0x4
 503 0068 4D       		.byte	0x4d
 504 0069 6D000000 		.4byte	0x6d
 505 006d 02       		.uleb128 0x2
 506 006e 04       		.byte	0x4
 507 006f 05       		.byte	0x5
 508 0070 BC020000 		.4byte	.LASF8
 509 0074 03       		.uleb128 0x3
 510 0075 B5070000 		.4byte	.LASF9
 511 0079 04       		.byte	0x4
 512 007a 4F       		.byte	0x4f
 513 007b 7F000000 		.4byte	0x7f
ARM GAS  /tmp/ccccEfOH.s 			page 10


 514 007f 02       		.uleb128 0x2
 515 0080 04       		.byte	0x4
 516 0081 07       		.byte	0x7
 517 0082 43070000 		.4byte	.LASF10
 518 0086 02       		.uleb128 0x2
 519 0087 08       		.byte	0x8
 520 0088 05       		.byte	0x5
 521 0089 49020000 		.4byte	.LASF11
 522 008d 03       		.uleb128 0x3
 523 008e 7D050000 		.4byte	.LASF12
 524 0092 04       		.byte	0x4
 525 0093 69       		.byte	0x69
 526 0094 98000000 		.4byte	0x98
 527 0098 02       		.uleb128 0x2
 528 0099 08       		.byte	0x8
 529 009a 07       		.byte	0x7
 530 009b B5010000 		.4byte	.LASF13
 531 009f 04       		.uleb128 0x4
 532 00a0 04       		.byte	0x4
 533 00a1 05       		.byte	0x5
 534 00a2 696E7400 		.ascii	"int\000"
 535 00a6 05       		.uleb128 0x5
 536 00a7 9F000000 		.4byte	0x9f
 537 00ab 02       		.uleb128 0x2
 538 00ac 04       		.byte	0x4
 539 00ad 07       		.byte	0x7
 540 00ae 7D030000 		.4byte	.LASF14
 541 00b2 03       		.uleb128 0x3
 542 00b3 A1080000 		.4byte	.LASF15
 543 00b7 05       		.byte	0x5
 544 00b8 18       		.byte	0x18
 545 00b9 2C000000 		.4byte	0x2c
 546 00bd 03       		.uleb128 0x3
 547 00be 11090000 		.4byte	.LASF16
 548 00c2 05       		.byte	0x5
 549 00c3 20       		.byte	0x20
 550 00c4 3E000000 		.4byte	0x3e
 551 00c8 03       		.uleb128 0x3
 552 00c9 92030000 		.4byte	.LASF17
 553 00cd 05       		.byte	0x5
 554 00ce 24       		.byte	0x24
 555 00cf 50000000 		.4byte	0x50
 556 00d3 06       		.uleb128 0x6
 557 00d4 C8000000 		.4byte	0xc8
 558 00d8 03       		.uleb128 0x3
 559 00d9 06060000 		.4byte	.LASF18
 560 00dd 05       		.byte	0x5
 561 00de 2C       		.byte	0x2c
 562 00df 62000000 		.4byte	0x62
 563 00e3 05       		.uleb128 0x5
 564 00e4 D8000000 		.4byte	0xd8
 565 00e8 03       		.uleb128 0x3
 566 00e9 43080000 		.4byte	.LASF19
 567 00ed 05       		.byte	0x5
 568 00ee 30       		.byte	0x30
 569 00ef 74000000 		.4byte	0x74
 570 00f3 05       		.uleb128 0x5
ARM GAS  /tmp/ccccEfOH.s 			page 11


 571 00f4 E8000000 		.4byte	0xe8
 572 00f8 06       		.uleb128 0x6
 573 00f9 E8000000 		.4byte	0xe8
 574 00fd 03       		.uleb128 0x3
 575 00fe 50000000 		.4byte	.LASF20
 576 0102 05       		.byte	0x5
 577 0103 3C       		.byte	0x3c
 578 0104 8D000000 		.4byte	0x8d
 579 0108 02       		.uleb128 0x2
 580 0109 01       		.byte	0x1
 581 010a 02       		.byte	0x2
 582 010b 00060000 		.4byte	.LASF21
 583 010f 03       		.uleb128 0x3
 584 0110 AC060000 		.4byte	.LASF22
 585 0114 06       		.byte	0x6
 586 0115 2C       		.byte	0x2c
 587 0116 B2000000 		.4byte	0xb2
 588 011a 03       		.uleb128 0x3
 589 011b D3020000 		.4byte	.LASF23
 590 011f 06       		.byte	0x6
 591 0120 2D       		.byte	0x2d
 592 0121 B2000000 		.4byte	0xb2
 593 0125 03       		.uleb128 0x3
 594 0126 7B060000 		.4byte	.LASF24
 595 012a 06       		.byte	0x6
 596 012b 2E       		.byte	0x2e
 597 012c B2000000 		.4byte	0xb2
 598 0130 03       		.uleb128 0x3
 599 0131 A4020000 		.4byte	.LASF25
 600 0135 06       		.byte	0x6
 601 0136 2F       		.byte	0x2f
 602 0137 B2000000 		.4byte	0xb2
 603 013b 03       		.uleb128 0x3
 604 013c E8050000 		.4byte	.LASF26
 605 0140 06       		.byte	0x6
 606 0141 30       		.byte	0x30
 607 0142 E8000000 		.4byte	0xe8
 608 0146 03       		.uleb128 0x3
 609 0147 18040000 		.4byte	.LASF27
 610 014b 06       		.byte	0x6
 611 014c 31       		.byte	0x31
 612 014d D8000000 		.4byte	0xd8
 613 0151 03       		.uleb128 0x3
 614 0152 7B040000 		.4byte	.LASF28
 615 0156 06       		.byte	0x6
 616 0157 33       		.byte	0x33
 617 0158 E8000000 		.4byte	0xe8
 618 015c 03       		.uleb128 0x3
 619 015d 97070000 		.4byte	.LASF29
 620 0161 06       		.byte	0x6
 621 0162 35       		.byte	0x35
 622 0163 E8000000 		.4byte	0xe8
 623 0167 05       		.uleb128 0x5
 624 0168 5C010000 		.4byte	0x15c
 625 016c 03       		.uleb128 0x3
 626 016d 6A030000 		.4byte	.LASF30
 627 0171 06       		.byte	0x6
ARM GAS  /tmp/ccccEfOH.s 			page 12


 628 0172 36       		.byte	0x36
 629 0173 D8000000 		.4byte	0xd8
 630 0177 03       		.uleb128 0x3
 631 0178 4A030000 		.4byte	.LASF31
 632 017c 07       		.byte	0x7
 633 017d 2A       		.byte	0x2a
 634 017e 82010000 		.4byte	0x182
 635 0182 07       		.uleb128 0x7
 636 0183 4A030000 		.4byte	.LASF31
 637 0187 4C       		.byte	0x4c
 638 0188 08       		.byte	0x8
 639 0189 5E       		.byte	0x5e
 640 018a 8B020000 		.4byte	0x28b
 641 018e 08       		.uleb128 0x8
 642 018f A5060000 		.4byte	.LASF32
 643 0193 08       		.byte	0x8
 644 0194 5F       		.byte	0x5f
 645 0195 AC020000 		.4byte	0x2ac
 646 0199 00       		.byte	0
 647 019a 08       		.uleb128 0x8
 648 019b BC050000 		.4byte	.LASF33
 649 019f 08       		.byte	0x8
 650 01a0 61       		.byte	0x61
 651 01a1 AC020000 		.4byte	0x2ac
 652 01a5 04       		.byte	0x4
 653 01a6 08       		.uleb128 0x8
 654 01a7 14020000 		.4byte	.LASF34
 655 01ab 08       		.byte	0x8
 656 01ac 63       		.byte	0x63
 657 01ad 3B010000 		.4byte	0x13b
 658 01b1 08       		.byte	0x8
 659 01b2 08       		.uleb128 0x8
 660 01b3 41050000 		.4byte	.LASF35
 661 01b7 08       		.byte	0x8
 662 01b8 64       		.byte	0x64
 663 01b9 42040000 		.4byte	0x442
 664 01bd 0C       		.byte	0xc
 665 01be 08       		.uleb128 0x8
 666 01bf E9020000 		.4byte	.LASF36
 667 01c3 08       		.byte	0x8
 668 01c4 66       		.byte	0x66
 669 01c5 AC020000 		.4byte	0x2ac
 670 01c9 10       		.byte	0x10
 671 01ca 08       		.uleb128 0x8
 672 01cb 1E050000 		.4byte	.LASF37
 673 01cf 08       		.byte	0x8
 674 01d0 67       		.byte	0x67
 675 01d1 AC020000 		.4byte	0x2ac
 676 01d5 14       		.byte	0x14
 677 01d6 08       		.uleb128 0x8
 678 01d7 BF080000 		.4byte	.LASF38
 679 01db 08       		.byte	0x8
 680 01dc 6E       		.byte	0x6e
 681 01dd 75070000 		.4byte	0x775
 682 01e1 18       		.byte	0x18
 683 01e2 08       		.uleb128 0x8
 684 01e3 54050000 		.4byte	.LASF39
ARM GAS  /tmp/ccccEfOH.s 			page 13


 685 01e7 08       		.byte	0x8
 686 01e8 74       		.byte	0x74
 687 01e9 87070000 		.4byte	0x787
 688 01ed 1C       		.byte	0x1c
 689 01ee 08       		.uleb128 0x8
 690 01ef 57060000 		.4byte	.LASF40
 691 01f3 08       		.byte	0x8
 692 01f4 79       		.byte	0x79
 693 01f5 1A010000 		.4byte	0x11a
 694 01f9 20       		.byte	0x20
 695 01fa 08       		.uleb128 0x8
 696 01fb C3060000 		.4byte	.LASF41
 697 01ff 08       		.byte	0x8
 698 0200 7D       		.byte	0x7d
 699 0201 0F010000 		.4byte	0x10f
 700 0205 21       		.byte	0x21
 701 0206 08       		.uleb128 0x8
 702 0207 67080000 		.4byte	.LASF42
 703 020b 08       		.byte	0x8
 704 020c 82       		.byte	0x82
 705 020d 25010000 		.4byte	0x125
 706 0211 22       		.byte	0x22
 707 0212 08       		.uleb128 0x8
 708 0213 71060000 		.4byte	.LASF43
 709 0217 08       		.byte	0x8
 710 0218 88       		.byte	0x88
 711 0219 30010000 		.4byte	0x130
 712 021d 23       		.byte	0x23
 713 021e 08       		.uleb128 0x8
 714 021f 32000000 		.4byte	.LASF44
 715 0223 08       		.byte	0x8
 716 0224 8F       		.byte	0x8f
 717 0225 67010000 		.4byte	0x167
 718 0229 24       		.byte	0x24
 719 022a 09       		.uleb128 0x9
 720 022b 705F7500 		.ascii	"p_u\000"
 721 022f 08       		.byte	0x8
 722 0230 B4       		.byte	0xb4
 723 0231 40070000 		.4byte	0x740
 724 0235 28       		.byte	0x28
 725 0236 08       		.uleb128 0x8
 726 0237 D5040000 		.4byte	.LASF45
 727 023b 08       		.byte	0x8
 728 023c B9       		.byte	0xb9
 729 023d D2020000 		.4byte	0x2d2
 730 0241 2C       		.byte	0x2c
 731 0242 08       		.uleb128 0x8
 732 0243 AF030000 		.4byte	.LASF46
 733 0247 08       		.byte	0x8
 734 0248 BF       		.byte	0xbf
 735 0249 B2020000 		.4byte	0x2b2
 736 024d 30       		.byte	0x30
 737 024e 08       		.uleb128 0x8
 738 024f 01080000 		.4byte	.LASF47
 739 0253 08       		.byte	0x8
 740 0254 C3       		.byte	0xc3
 741 0255 46010000 		.4byte	0x146
ARM GAS  /tmp/ccccEfOH.s 			page 14


 742 0259 38       		.byte	0x38
 743 025a 08       		.uleb128 0x8
 744 025b 07070000 		.4byte	.LASF48
 745 025f 08       		.byte	0x8
 746 0260 C9       		.byte	0xc9
 747 0261 51010000 		.4byte	0x151
 748 0265 3C       		.byte	0x3c
 749 0266 08       		.uleb128 0x8
 750 0267 43060000 		.4byte	.LASF49
 751 026b 08       		.byte	0x8
 752 026c D0       		.byte	0xd0
 753 026d 8D070000 		.4byte	0x78d
 754 0271 40       		.byte	0x40
 755 0272 08       		.uleb128 0x8
 756 0273 A1070000 		.4byte	.LASF50
 757 0277 08       		.byte	0x8
 758 0278 D4       		.byte	0xd4
 759 0279 3B010000 		.4byte	0x13b
 760 027d 44       		.byte	0x44
 761 027e 08       		.uleb128 0x8
 762 027f 83020000 		.4byte	.LASF51
 763 0283 08       		.byte	0x8
 764 0284 DA       		.byte	0xda
 765 0285 E8020000 		.4byte	0x2e8
 766 0289 48       		.byte	0x48
 767 028a 00       		.byte	0
 768 028b 0A       		.uleb128 0xa
 769 028c 08       		.byte	0x8
 770 028d 07       		.byte	0x7
 771 028e 61       		.byte	0x61
 772 028f AC020000 		.4byte	0x2ac
 773 0293 08       		.uleb128 0x8
 774 0294 A5060000 		.4byte	.LASF32
 775 0298 07       		.byte	0x7
 776 0299 62       		.byte	0x62
 777 029a AC020000 		.4byte	0x2ac
 778 029e 00       		.byte	0
 779 029f 08       		.uleb128 0x8
 780 02a0 BC050000 		.4byte	.LASF33
 781 02a4 07       		.byte	0x7
 782 02a5 64       		.byte	0x64
 783 02a6 AC020000 		.4byte	0x2ac
 784 02aa 04       		.byte	0x4
 785 02ab 00       		.byte	0
 786 02ac 0B       		.uleb128 0xb
 787 02ad 04       		.byte	0x4
 788 02ae 77010000 		.4byte	0x177
 789 02b2 03       		.uleb128 0x3
 790 02b3 34050000 		.4byte	.LASF52
 791 02b7 07       		.byte	0x7
 792 02b8 66       		.byte	0x66
 793 02b9 8B020000 		.4byte	0x28b
 794 02bd 0A       		.uleb128 0xa
 795 02be 04       		.byte	0x4
 796 02bf 07       		.byte	0x7
 797 02c0 6B       		.byte	0x6b
 798 02c1 D2020000 		.4byte	0x2d2
ARM GAS  /tmp/ccccEfOH.s 			page 15


 799 02c5 08       		.uleb128 0x8
 800 02c6 A5060000 		.4byte	.LASF32
 801 02ca 07       		.byte	0x7
 802 02cb 6D       		.byte	0x6d
 803 02cc AC020000 		.4byte	0x2ac
 804 02d0 00       		.byte	0
 805 02d1 00       		.byte	0
 806 02d2 03       		.uleb128 0x3
 807 02d3 6F040000 		.4byte	.LASF53
 808 02d7 07       		.byte	0x7
 809 02d8 70       		.byte	0x70
 810 02d9 BD020000 		.4byte	0x2bd
 811 02dd 03       		.uleb128 0x3
 812 02de 28030000 		.4byte	.LASF54
 813 02e2 09       		.byte	0x9
 814 02e3 E5       		.byte	0xe5
 815 02e4 E8020000 		.4byte	0x2e8
 816 02e8 0C       		.uleb128 0xc
 817 02e9 04       		.byte	0x4
 818 02ea 0D       		.uleb128 0xd
 819 02eb 98040000 		.4byte	.LASF207
 820 02ef 09       		.byte	0x9
 821 02f0 EB       		.byte	0xeb
 822 02f1 FD000000 		.4byte	0xfd
 823 02f5 08       		.byte	0x8
 824 02f6 0E       		.uleb128 0xe
 825 02f7 07080000 		.4byte	.LASF55
 826 02fb 64       		.byte	0x64
 827 02fc 09       		.byte	0x9
 828 02fd 0C01     		.2byte	0x10c
 829 02ff 42040000 		.4byte	0x442
 830 0303 0F       		.uleb128 0xf
 831 0304 73313600 		.ascii	"s16\000"
 832 0308 09       		.byte	0x9
 833 0309 0E01     		.2byte	0x10e
 834 030b DD020000 		.4byte	0x2dd
 835 030f 00       		.byte	0
 836 0310 0F       		.uleb128 0xf
 837 0311 73313700 		.ascii	"s17\000"
 838 0315 09       		.byte	0x9
 839 0316 0F01     		.2byte	0x10f
 840 0318 DD020000 		.4byte	0x2dd
 841 031c 04       		.byte	0x4
 842 031d 0F       		.uleb128 0xf
 843 031e 73313800 		.ascii	"s18\000"
 844 0322 09       		.byte	0x9
 845 0323 1001     		.2byte	0x110
 846 0325 DD020000 		.4byte	0x2dd
 847 0329 08       		.byte	0x8
 848 032a 0F       		.uleb128 0xf
 849 032b 73313900 		.ascii	"s19\000"
 850 032f 09       		.byte	0x9
 851 0330 1101     		.2byte	0x111
 852 0332 DD020000 		.4byte	0x2dd
 853 0336 0C       		.byte	0xc
 854 0337 0F       		.uleb128 0xf
 855 0338 73323000 		.ascii	"s20\000"
ARM GAS  /tmp/ccccEfOH.s 			page 16


 856 033c 09       		.byte	0x9
 857 033d 1201     		.2byte	0x112
 858 033f DD020000 		.4byte	0x2dd
 859 0343 10       		.byte	0x10
 860 0344 0F       		.uleb128 0xf
 861 0345 73323100 		.ascii	"s21\000"
 862 0349 09       		.byte	0x9
 863 034a 1301     		.2byte	0x113
 864 034c DD020000 		.4byte	0x2dd
 865 0350 14       		.byte	0x14
 866 0351 0F       		.uleb128 0xf
 867 0352 73323200 		.ascii	"s22\000"
 868 0356 09       		.byte	0x9
 869 0357 1401     		.2byte	0x114
 870 0359 DD020000 		.4byte	0x2dd
 871 035d 18       		.byte	0x18
 872 035e 0F       		.uleb128 0xf
 873 035f 73323300 		.ascii	"s23\000"
 874 0363 09       		.byte	0x9
 875 0364 1501     		.2byte	0x115
 876 0366 DD020000 		.4byte	0x2dd
 877 036a 1C       		.byte	0x1c
 878 036b 0F       		.uleb128 0xf
 879 036c 73323400 		.ascii	"s24\000"
 880 0370 09       		.byte	0x9
 881 0371 1601     		.2byte	0x116
 882 0373 DD020000 		.4byte	0x2dd
 883 0377 20       		.byte	0x20
 884 0378 0F       		.uleb128 0xf
 885 0379 73323500 		.ascii	"s25\000"
 886 037d 09       		.byte	0x9
 887 037e 1701     		.2byte	0x117
 888 0380 DD020000 		.4byte	0x2dd
 889 0384 24       		.byte	0x24
 890 0385 0F       		.uleb128 0xf
 891 0386 73323600 		.ascii	"s26\000"
 892 038a 09       		.byte	0x9
 893 038b 1801     		.2byte	0x118
 894 038d DD020000 		.4byte	0x2dd
 895 0391 28       		.byte	0x28
 896 0392 0F       		.uleb128 0xf
 897 0393 73323700 		.ascii	"s27\000"
 898 0397 09       		.byte	0x9
 899 0398 1901     		.2byte	0x119
 900 039a DD020000 		.4byte	0x2dd
 901 039e 2C       		.byte	0x2c
 902 039f 0F       		.uleb128 0xf
 903 03a0 73323800 		.ascii	"s28\000"
 904 03a4 09       		.byte	0x9
 905 03a5 1A01     		.2byte	0x11a
 906 03a7 DD020000 		.4byte	0x2dd
 907 03ab 30       		.byte	0x30
 908 03ac 0F       		.uleb128 0xf
 909 03ad 73323900 		.ascii	"s29\000"
 910 03b1 09       		.byte	0x9
 911 03b2 1B01     		.2byte	0x11b
 912 03b4 DD020000 		.4byte	0x2dd
ARM GAS  /tmp/ccccEfOH.s 			page 17


 913 03b8 34       		.byte	0x34
 914 03b9 0F       		.uleb128 0xf
 915 03ba 73333000 		.ascii	"s30\000"
 916 03be 09       		.byte	0x9
 917 03bf 1C01     		.2byte	0x11c
 918 03c1 DD020000 		.4byte	0x2dd
 919 03c5 38       		.byte	0x38
 920 03c6 0F       		.uleb128 0xf
 921 03c7 73333100 		.ascii	"s31\000"
 922 03cb 09       		.byte	0x9
 923 03cc 1D01     		.2byte	0x11d
 924 03ce DD020000 		.4byte	0x2dd
 925 03d2 3C       		.byte	0x3c
 926 03d3 0F       		.uleb128 0xf
 927 03d4 723400   		.ascii	"r4\000"
 928 03d7 09       		.byte	0x9
 929 03d8 1F01     		.2byte	0x11f
 930 03da DD020000 		.4byte	0x2dd
 931 03de 40       		.byte	0x40
 932 03df 0F       		.uleb128 0xf
 933 03e0 723500   		.ascii	"r5\000"
 934 03e3 09       		.byte	0x9
 935 03e4 2001     		.2byte	0x120
 936 03e6 DD020000 		.4byte	0x2dd
 937 03ea 44       		.byte	0x44
 938 03eb 0F       		.uleb128 0xf
 939 03ec 723600   		.ascii	"r6\000"
 940 03ef 09       		.byte	0x9
 941 03f0 2101     		.2byte	0x121
 942 03f2 DD020000 		.4byte	0x2dd
 943 03f6 48       		.byte	0x48
 944 03f7 0F       		.uleb128 0xf
 945 03f8 723700   		.ascii	"r7\000"
 946 03fb 09       		.byte	0x9
 947 03fc 2201     		.2byte	0x122
 948 03fe DD020000 		.4byte	0x2dd
 949 0402 4C       		.byte	0x4c
 950 0403 0F       		.uleb128 0xf
 951 0404 723800   		.ascii	"r8\000"
 952 0407 09       		.byte	0x9
 953 0408 2301     		.2byte	0x123
 954 040a DD020000 		.4byte	0x2dd
 955 040e 50       		.byte	0x50
 956 040f 0F       		.uleb128 0xf
 957 0410 723900   		.ascii	"r9\000"
 958 0413 09       		.byte	0x9
 959 0414 2401     		.2byte	0x124
 960 0416 DD020000 		.4byte	0x2dd
 961 041a 54       		.byte	0x54
 962 041b 0F       		.uleb128 0xf
 963 041c 72313000 		.ascii	"r10\000"
 964 0420 09       		.byte	0x9
 965 0421 2501     		.2byte	0x125
 966 0423 DD020000 		.4byte	0x2dd
 967 0427 58       		.byte	0x58
 968 0428 0F       		.uleb128 0xf
 969 0429 72313100 		.ascii	"r11\000"
ARM GAS  /tmp/ccccEfOH.s 			page 18


 970 042d 09       		.byte	0x9
 971 042e 2601     		.2byte	0x126
 972 0430 DD020000 		.4byte	0x2dd
 973 0434 5C       		.byte	0x5c
 974 0435 0F       		.uleb128 0xf
 975 0436 6C7200   		.ascii	"lr\000"
 976 0439 09       		.byte	0x9
 977 043a 2701     		.2byte	0x127
 978 043c DD020000 		.4byte	0x2dd
 979 0440 60       		.byte	0x60
 980 0441 00       		.byte	0
 981 0442 0E       		.uleb128 0xe
 982 0443 F4070000 		.4byte	.LASF56
 983 0447 04       		.byte	0x4
 984 0448 09       		.byte	0x9
 985 0449 3101     		.2byte	0x131
 986 044b 5D040000 		.4byte	0x45d
 987 044f 0F       		.uleb128 0xf
 988 0450 72313300 		.ascii	"r13\000"
 989 0454 09       		.byte	0x9
 990 0455 3201     		.2byte	0x132
 991 0457 5D040000 		.4byte	0x45d
 992 045b 00       		.byte	0
 993 045c 00       		.byte	0
 994 045d 0B       		.uleb128 0xb
 995 045e 04       		.byte	0x4
 996 045f F6020000 		.4byte	0x2f6
 997 0463 03       		.uleb128 0x3
 998 0464 C6080000 		.4byte	.LASF57
 999 0468 0A       		.byte	0xa
 1000 0469 3A       		.byte	0x3a
 1001 046a F3000000 		.4byte	0xf3
 1002 046e 0A       		.uleb128 0xa
 1003 046f 8C       		.byte	0x8c
 1004 0470 0A       		.byte	0xa
 1005 0471 89       		.byte	0x89
 1006 0472 73050000 		.4byte	0x573
 1007 0476 08       		.uleb128 0x8
 1008 0477 0E020000 		.4byte	.LASF58
 1009 047b 0A       		.byte	0xa
 1010 047c 8A       		.byte	0x8a
 1011 047d 63040000 		.4byte	0x463
 1012 0481 00       		.byte	0
 1013 0482 08       		.uleb128 0x8
 1014 0483 13040000 		.4byte	.LASF59
 1015 0487 0A       		.byte	0xa
 1016 0488 8B       		.byte	0x8b
 1017 0489 63040000 		.4byte	0x463
 1018 048d 04       		.byte	0x4
 1019 048e 08       		.uleb128 0x8
 1020 048f E6030000 		.4byte	.LASF60
 1021 0493 0A       		.byte	0xa
 1022 0494 8C       		.byte	0x8c
 1023 0495 63040000 		.4byte	0x463
 1024 0499 08       		.byte	0x8
 1025 049a 08       		.uleb128 0x8
 1026 049b 1E040000 		.4byte	.LASF61
ARM GAS  /tmp/ccccEfOH.s 			page 19


 1027 049f 0A       		.byte	0xa
 1028 04a0 8D       		.byte	0x8d
 1029 04a1 63040000 		.4byte	0x463
 1030 04a5 0C       		.byte	0xc
 1031 04a6 09       		.uleb128 0x9
 1032 04a7 53435200 		.ascii	"SCR\000"
 1033 04ab 0A       		.byte	0xa
 1034 04ac 8E       		.byte	0x8e
 1035 04ad 63040000 		.4byte	0x463
 1036 04b1 10       		.byte	0x10
 1037 04b2 09       		.uleb128 0x9
 1038 04b3 43435200 		.ascii	"CCR\000"
 1039 04b7 0A       		.byte	0xa
 1040 04b8 8F       		.byte	0x8f
 1041 04b9 63040000 		.4byte	0x463
 1042 04bd 14       		.byte	0x14
 1043 04be 08       		.uleb128 0x8
 1044 04bf FC070000 		.4byte	.LASF62
 1045 04c3 0A       		.byte	0xa
 1046 04c4 90       		.byte	0x90
 1047 04c5 83050000 		.4byte	0x583
 1048 04c9 18       		.byte	0x18
 1049 04ca 08       		.uleb128 0x8
 1050 04cb 69020000 		.4byte	.LASF63
 1051 04cf 0A       		.byte	0xa
 1052 04d0 91       		.byte	0x91
 1053 04d1 63040000 		.4byte	0x463
 1054 04d5 24       		.byte	0x24
 1055 04d6 08       		.uleb128 0x8
 1056 04d7 DF040000 		.4byte	.LASF64
 1057 04db 0A       		.byte	0xa
 1058 04dc 92       		.byte	0x92
 1059 04dd 63040000 		.4byte	0x463
 1060 04e1 28       		.byte	0x28
 1061 04e2 08       		.uleb128 0x8
 1062 04e3 63000000 		.4byte	.LASF65
 1063 04e7 0A       		.byte	0xa
 1064 04e8 93       		.byte	0x93
 1065 04e9 63040000 		.4byte	0x463
 1066 04ed 2C       		.byte	0x2c
 1067 04ee 08       		.uleb128 0x8
 1068 04ef 24040000 		.4byte	.LASF66
 1069 04f3 0A       		.byte	0xa
 1070 04f4 94       		.byte	0x94
 1071 04f5 63040000 		.4byte	0x463
 1072 04f9 30       		.byte	0x30
 1073 04fa 08       		.uleb128 0x8
 1074 04fb 29040000 		.4byte	.LASF67
 1075 04ff 0A       		.byte	0xa
 1076 0500 95       		.byte	0x95
 1077 0501 63040000 		.4byte	0x463
 1078 0505 34       		.byte	0x34
 1079 0506 08       		.uleb128 0x8
 1080 0507 01030000 		.4byte	.LASF68
 1081 050b 0A       		.byte	0xa
 1082 050c 96       		.byte	0x96
 1083 050d 63040000 		.4byte	0x463
ARM GAS  /tmp/ccccEfOH.s 			page 20


 1084 0511 38       		.byte	0x38
 1085 0512 08       		.uleb128 0x8
 1086 0513 1B030000 		.4byte	.LASF69
 1087 0517 0A       		.byte	0xa
 1088 0518 97       		.byte	0x97
 1089 0519 63040000 		.4byte	0x463
 1090 051d 3C       		.byte	0x3c
 1091 051e 09       		.uleb128 0x9
 1092 051f 50465200 		.ascii	"PFR\000"
 1093 0523 0A       		.byte	0xa
 1094 0524 98       		.byte	0x98
 1095 0525 98050000 		.4byte	0x598
 1096 0529 40       		.byte	0x40
 1097 052a 09       		.uleb128 0x9
 1098 052b 44465200 		.ascii	"DFR\000"
 1099 052f 0A       		.byte	0xa
 1100 0530 99       		.byte	0x99
 1101 0531 63040000 		.4byte	0x463
 1102 0535 48       		.byte	0x48
 1103 0536 09       		.uleb128 0x9
 1104 0537 41445200 		.ascii	"ADR\000"
 1105 053b 0A       		.byte	0xa
 1106 053c 9A       		.byte	0x9a
 1107 053d 63040000 		.4byte	0x463
 1108 0541 4C       		.byte	0x4c
 1109 0542 08       		.uleb128 0x8
 1110 0543 8F080000 		.4byte	.LASF70
 1111 0547 0A       		.byte	0xa
 1112 0548 9B       		.byte	0x9b
 1113 0549 AD050000 		.4byte	0x5ad
 1114 054d 50       		.byte	0x50
 1115 054e 09       		.uleb128 0x9
 1116 054f 53415200 		.ascii	"SAR\000"
 1117 0553 0A       		.byte	0xa
 1118 0554 9C       		.byte	0x9c
 1119 0555 C2050000 		.4byte	0x5c2
 1120 0559 60       		.byte	0x60
 1121 055a 08       		.uleb128 0x8
 1122 055b 3B070000 		.4byte	.LASF71
 1123 055f 0A       		.byte	0xa
 1124 0560 9D       		.byte	0x9d
 1125 0561 C2050000 		.4byte	0x5c2
 1126 0565 74       		.byte	0x74
 1127 0566 08       		.uleb128 0x8
 1128 0567 06090000 		.4byte	.LASF72
 1129 056b 0A       		.byte	0xa
 1130 056c 9E       		.byte	0x9e
 1131 056d 63040000 		.4byte	0x463
 1132 0571 88       		.byte	0x88
 1133 0572 00       		.byte	0
 1134 0573 10       		.uleb128 0x10
 1135 0574 63040000 		.4byte	0x463
 1136 0578 83050000 		.4byte	0x583
 1137 057c 11       		.uleb128 0x11
 1138 057d AB000000 		.4byte	0xab
 1139 0581 02       		.byte	0x2
 1140 0582 00       		.byte	0
ARM GAS  /tmp/ccccEfOH.s 			page 21


 1141 0583 05       		.uleb128 0x5
 1142 0584 73050000 		.4byte	0x573
 1143 0588 10       		.uleb128 0x10
 1144 0589 63040000 		.4byte	0x463
 1145 058d 98050000 		.4byte	0x598
 1146 0591 11       		.uleb128 0x11
 1147 0592 AB000000 		.4byte	0xab
 1148 0596 01       		.byte	0x1
 1149 0597 00       		.byte	0
 1150 0598 05       		.uleb128 0x5
 1151 0599 88050000 		.4byte	0x588
 1152 059d 10       		.uleb128 0x10
 1153 059e 63040000 		.4byte	0x463
 1154 05a2 AD050000 		.4byte	0x5ad
 1155 05a6 11       		.uleb128 0x11
 1156 05a7 AB000000 		.4byte	0xab
 1157 05ab 03       		.byte	0x3
 1158 05ac 00       		.byte	0
 1159 05ad 05       		.uleb128 0x5
 1160 05ae 9D050000 		.4byte	0x59d
 1161 05b2 10       		.uleb128 0x10
 1162 05b3 63040000 		.4byte	0x463
 1163 05b7 C2050000 		.4byte	0x5c2
 1164 05bb 11       		.uleb128 0x11
 1165 05bc AB000000 		.4byte	0xab
 1166 05c0 04       		.byte	0x4
 1167 05c1 00       		.byte	0
 1168 05c2 05       		.uleb128 0x5
 1169 05c3 B2050000 		.4byte	0x5b2
 1170 05c7 03       		.uleb128 0x3
 1171 05c8 A9080000 		.4byte	.LASF73
 1172 05cc 0A       		.byte	0xa
 1173 05cd 9F       		.byte	0x9f
 1174 05ce 6E040000 		.4byte	0x46e
 1175 05d2 03       		.uleb128 0x3
 1176 05d3 AC070000 		.4byte	.LASF74
 1177 05d7 0B       		.byte	0xb
 1178 05d8 58       		.byte	0x58
 1179 05d9 DD050000 		.4byte	0x5dd
 1180 05dd 0B       		.uleb128 0xb
 1181 05de 04       		.byte	0x4
 1182 05df E3050000 		.4byte	0x5e3
 1183 05e3 12       		.uleb128 0x12
 1184 05e4 EE050000 		.4byte	0x5ee
 1185 05e8 13       		.uleb128 0x13
 1186 05e9 E8020000 		.4byte	0x2e8
 1187 05ed 00       		.byte	0
 1188 05ee 03       		.uleb128 0x3
 1189 05ef 20000000 		.4byte	.LASF75
 1190 05f3 0B       		.byte	0xb
 1191 05f4 5D       		.byte	0x5d
 1192 05f5 F9050000 		.4byte	0x5f9
 1193 05f9 07       		.uleb128 0x7
 1194 05fa 20000000 		.4byte	.LASF75
 1195 05fe 14       		.byte	0x14
 1196 05ff 0B       		.byte	0xb
 1197 0600 64       		.byte	0x64
ARM GAS  /tmp/ccccEfOH.s 			page 22


 1198 0601 42060000 		.4byte	0x642
 1199 0605 08       		.uleb128 0x8
 1200 0606 8A030000 		.4byte	.LASF76
 1201 060a 0B       		.byte	0xb
 1202 060b 65       		.byte	0x65
 1203 060c 42060000 		.4byte	0x642
 1204 0610 00       		.byte	0
 1205 0611 08       		.uleb128 0x8
 1206 0612 31030000 		.4byte	.LASF77
 1207 0616 0B       		.byte	0xb
 1208 0617 67       		.byte	0x67
 1209 0618 42060000 		.4byte	0x642
 1210 061c 04       		.byte	0x4
 1211 061d 08       		.uleb128 0x8
 1212 061e CD040000 		.4byte	.LASF78
 1213 0622 0B       		.byte	0xb
 1214 0623 69       		.byte	0x69
 1215 0624 5C010000 		.4byte	0x15c
 1216 0628 08       		.byte	0x8
 1217 0629 08       		.uleb128 0x8
 1218 062a 56090000 		.4byte	.LASF79
 1219 062e 0B       		.byte	0xb
 1220 062f 6A       		.byte	0x6a
 1221 0630 D2050000 		.4byte	0x5d2
 1222 0634 0C       		.byte	0xc
 1223 0635 08       		.uleb128 0x8
 1224 0636 31080000 		.4byte	.LASF80
 1225 063a 0B       		.byte	0xb
 1226 063b 6C       		.byte	0x6c
 1227 063c E8020000 		.4byte	0x2e8
 1228 0640 10       		.byte	0x10
 1229 0641 00       		.byte	0
 1230 0642 0B       		.uleb128 0xb
 1231 0643 04       		.byte	0x4
 1232 0644 EE050000 		.4byte	0x5ee
 1233 0648 0A       		.uleb128 0xa
 1234 0649 10       		.byte	0x10
 1235 064a 0B       		.byte	0xb
 1236 064b 76       		.byte	0x76
 1237 064c 81060000 		.4byte	0x681
 1238 0650 08       		.uleb128 0x8
 1239 0651 8A030000 		.4byte	.LASF76
 1240 0655 0B       		.byte	0xb
 1241 0656 77       		.byte	0x77
 1242 0657 42060000 		.4byte	0x642
 1243 065b 00       		.byte	0
 1244 065c 08       		.uleb128 0x8
 1245 065d 31030000 		.4byte	.LASF77
 1246 0661 0B       		.byte	0xb
 1247 0662 79       		.byte	0x79
 1248 0663 42060000 		.4byte	0x642
 1249 0667 04       		.byte	0x4
 1250 0668 08       		.uleb128 0x8
 1251 0669 CD040000 		.4byte	.LASF78
 1252 066d 0B       		.byte	0xb
 1253 066e 7B       		.byte	0x7b
 1254 066f 5C010000 		.4byte	0x15c
ARM GAS  /tmp/ccccEfOH.s 			page 23


 1255 0673 08       		.byte	0x8
 1256 0674 08       		.uleb128 0x8
 1257 0675 3E020000 		.4byte	.LASF81
 1258 0679 0B       		.byte	0xb
 1259 067a 7C       		.byte	0x7c
 1260 067b 67010000 		.4byte	0x167
 1261 067f 0C       		.byte	0xc
 1262 0680 00       		.byte	0
 1263 0681 03       		.uleb128 0x3
 1264 0682 FF080000 		.4byte	.LASF82
 1265 0686 0B       		.byte	0xb
 1266 0687 7D       		.byte	0x7d
 1267 0688 48060000 		.4byte	0x648
 1268 068c 14       		.uleb128 0x14
 1269 068d 0C040000 		.4byte	.LASF90
 1270 0691 0B       		.byte	0xb
 1271 0692 F5       		.byte	0xf5
 1272 0693 81060000 		.4byte	0x681
 1273 0697 0A       		.uleb128 0xa
 1274 0698 1C       		.byte	0x1c
 1275 0699 0C       		.byte	0xc
 1276 069a 5E       		.byte	0x5e
 1277 069b E8060000 		.4byte	0x6e8
 1278 069f 08       		.uleb128 0x8
 1279 06a0 33070000 		.4byte	.LASF83
 1280 06a4 0C       		.byte	0xc
 1281 06a5 5F       		.byte	0x5f
 1282 06a6 B2020000 		.4byte	0x2b2
 1283 06aa 00       		.byte	0
 1284 06ab 08       		.uleb128 0x8
 1285 06ac C6040000 		.4byte	.LASF84
 1286 06b0 0C       		.byte	0xc
 1287 06b1 60       		.byte	0x60
 1288 06b2 3B010000 		.4byte	0x13b
 1289 06b6 08       		.byte	0x8
 1290 06b7 08       		.uleb128 0x8
 1291 06b8 26050000 		.4byte	.LASF85
 1292 06bc 0C       		.byte	0xc
 1293 06bd 62       		.byte	0x62
 1294 06be 42040000 		.4byte	0x442
 1295 06c2 0C       		.byte	0xc
 1296 06c3 08       		.uleb128 0x8
 1297 06c4 20030000 		.4byte	.LASF86
 1298 06c8 0C       		.byte	0xc
 1299 06c9 65       		.byte	0x65
 1300 06ca AC020000 		.4byte	0x2ac
 1301 06ce 10       		.byte	0x10
 1302 06cf 08       		.uleb128 0x8
 1303 06d0 75050000 		.4byte	.LASF87
 1304 06d4 0C       		.byte	0xc
 1305 06d5 66       		.byte	0x66
 1306 06d6 AC020000 		.4byte	0x2ac
 1307 06da 14       		.byte	0x14
 1308 06db 08       		.uleb128 0x8
 1309 06dc 6B050000 		.4byte	.LASF88
 1310 06e0 0C       		.byte	0xc
 1311 06e1 69       		.byte	0x69
ARM GAS  /tmp/ccccEfOH.s 			page 24


 1312 06e2 AC020000 		.4byte	0x2ac
 1313 06e6 18       		.byte	0x18
 1314 06e7 00       		.byte	0
 1315 06e8 03       		.uleb128 0x3
 1316 06e9 6E080000 		.4byte	.LASF89
 1317 06ed 0C       		.byte	0xc
 1318 06ee 6B       		.byte	0x6b
 1319 06ef 97060000 		.4byte	0x697
 1320 06f3 14       		.uleb128 0x14
 1321 06f4 94080000 		.4byte	.LASF91
 1322 06f8 0C       		.byte	0xc
 1323 06f9 6F       		.byte	0x6f
 1324 06fa E8060000 		.4byte	0x6e8
 1325 06fe 07       		.uleb128 0x7
 1326 06ff EA040000 		.4byte	.LASF92
 1327 0703 10       		.byte	0x10
 1328 0704 0D       		.byte	0xd
 1329 0705 2C       		.byte	0x2c
 1330 0706 2F070000 		.4byte	0x72f
 1331 070a 08       		.uleb128 0x8
 1332 070b 8B020000 		.4byte	.LASF93
 1333 070f 0D       		.byte	0xd
 1334 0710 2D       		.byte	0x2d
 1335 0711 B2020000 		.4byte	0x2b2
 1336 0715 00       		.byte	0
 1337 0716 08       		.uleb128 0x8
 1338 0717 23090000 		.4byte	.LASF94
 1339 071b 0D       		.byte	0xd
 1340 071c 2F       		.byte	0x2f
 1341 071d AC020000 		.4byte	0x2ac
 1342 0721 08       		.byte	0x8
 1343 0722 08       		.uleb128 0x8
 1344 0723 9B030000 		.4byte	.LASF95
 1345 0727 0D       		.byte	0xd
 1346 0728 31       		.byte	0x31
 1347 0729 2F070000 		.4byte	0x72f
 1348 072d 0C       		.byte	0xc
 1349 072e 00       		.byte	0
 1350 072f 0B       		.uleb128 0xb
 1351 0730 04       		.byte	0x4
 1352 0731 FE060000 		.4byte	0x6fe
 1353 0735 03       		.uleb128 0x3
 1354 0736 EA040000 		.4byte	.LASF92
 1355 073a 0D       		.byte	0xd
 1356 073b 33       		.byte	0x33
 1357 073c FE060000 		.4byte	0x6fe
 1358 0740 15       		.uleb128 0x15
 1359 0741 04       		.byte	0x4
 1360 0742 08       		.byte	0x8
 1361 0743 96       		.byte	0x96
 1362 0744 75070000 		.4byte	0x775
 1363 0748 16       		.uleb128 0x16
 1364 0749 39000000 		.4byte	.LASF96
 1365 074d 08       		.byte	0x8
 1366 074e 9D       		.byte	0x9d
 1367 074f 46010000 		.4byte	0x146
 1368 0753 16       		.uleb128 0x16
ARM GAS  /tmp/ccccEfOH.s 			page 25


 1369 0754 F2010000 		.4byte	.LASF97
 1370 0758 08       		.byte	0x8
 1371 0759 A4       		.byte	0xa4
 1372 075a 46010000 		.4byte	0x146
 1373 075e 16       		.uleb128 0x16
 1374 075f B8080000 		.4byte	.LASF98
 1375 0763 08       		.byte	0x8
 1376 0764 AB       		.byte	0xab
 1377 0765 E8020000 		.4byte	0x2e8
 1378 0769 16       		.uleb128 0x16
 1379 076a 9E060000 		.4byte	.LASF99
 1380 076e 08       		.byte	0x8
 1381 076f B2       		.byte	0xb2
 1382 0770 51010000 		.4byte	0x151
 1383 0774 00       		.byte	0
 1384 0775 0B       		.uleb128 0xb
 1385 0776 04       		.byte	0x4
 1386 0777 82070000 		.4byte	0x782
 1387 077b 02       		.uleb128 0x2
 1388 077c 01       		.byte	0x1
 1389 077d 08       		.byte	0x8
 1390 077e 55070000 		.4byte	.LASF100
 1391 0782 06       		.uleb128 0x6
 1392 0783 7B070000 		.4byte	0x77b
 1393 0787 0B       		.uleb128 0xb
 1394 0788 04       		.byte	0x4
 1395 0789 EA020000 		.4byte	0x2ea
 1396 078d 0B       		.uleb128 0xb
 1397 078e 04       		.byte	0x4
 1398 078f 35070000 		.4byte	0x735
 1399 0793 0A       		.uleb128 0xa
 1400 0794 16       		.byte	0x16
 1401 0795 0E       		.byte	0xe
 1402 0796 2C       		.byte	0x2c
 1403 0797 74080000 		.4byte	0x874
 1404 079b 08       		.uleb128 0x8
 1405 079c 48090000 		.4byte	.LASF101
 1406 07a0 0E       		.byte	0xe
 1407 07a1 2D       		.byte	0x2d
 1408 07a2 74080000 		.4byte	0x874
 1409 07a6 00       		.byte	0
 1410 07a7 08       		.uleb128 0x8
 1411 07a8 B2040000 		.4byte	.LASF102
 1412 07ac 0E       		.byte	0xe
 1413 07ad 2E       		.byte	0x2e
 1414 07ae B2000000 		.4byte	0xb2
 1415 07b2 04       		.byte	0x4
 1416 07b3 08       		.uleb128 0x8
 1417 07b4 47050000 		.4byte	.LASF103
 1418 07b8 0E       		.byte	0xe
 1419 07b9 2F       		.byte	0x2f
 1420 07ba B2000000 		.4byte	0xb2
 1421 07be 05       		.byte	0x5
 1422 07bf 08       		.uleb128 0x8
 1423 07c0 E5080000 		.4byte	.LASF104
 1424 07c4 0E       		.byte	0xe
 1425 07c5 30       		.byte	0x30
ARM GAS  /tmp/ccccEfOH.s 			page 26


 1426 07c6 C8000000 		.4byte	0xc8
 1427 07ca 06       		.byte	0x6
 1428 07cb 08       		.uleb128 0x8
 1429 07cc B1050000 		.4byte	.LASF105
 1430 07d0 0E       		.byte	0xe
 1431 07d1 31       		.byte	0x31
 1432 07d2 B2000000 		.4byte	0xb2
 1433 07d6 08       		.byte	0x8
 1434 07d7 08       		.uleb128 0x8
 1435 07d8 F0040000 		.4byte	.LASF106
 1436 07dc 0E       		.byte	0xe
 1437 07dd 32       		.byte	0x32
 1438 07de B2000000 		.4byte	0xb2
 1439 07e2 09       		.byte	0x9
 1440 07e3 08       		.uleb128 0x8
 1441 07e4 DE010000 		.4byte	.LASF107
 1442 07e8 0E       		.byte	0xe
 1443 07e9 33       		.byte	0x33
 1444 07ea B2000000 		.4byte	0xb2
 1445 07ee 0A       		.byte	0xa
 1446 07ef 08       		.uleb128 0x8
 1447 07f0 27070000 		.4byte	.LASF108
 1448 07f4 0E       		.byte	0xe
 1449 07f5 34       		.byte	0x34
 1450 07f6 B2000000 		.4byte	0xb2
 1451 07fa 0B       		.byte	0xb
 1452 07fb 08       		.uleb128 0x8
 1453 07fc 4C080000 		.4byte	.LASF109
 1454 0800 0E       		.byte	0xe
 1455 0801 35       		.byte	0x35
 1456 0802 B2000000 		.4byte	0xb2
 1457 0806 0C       		.byte	0xc
 1458 0807 08       		.uleb128 0x8
 1459 0808 FA060000 		.4byte	.LASF110
 1460 080c 0E       		.byte	0xe
 1461 080d 36       		.byte	0x36
 1462 080e B2000000 		.4byte	0xb2
 1463 0812 0D       		.byte	0xd
 1464 0813 08       		.uleb128 0x8
 1465 0814 13000000 		.4byte	.LASF111
 1466 0818 0E       		.byte	0xe
 1467 0819 37       		.byte	0x37
 1468 081a B2000000 		.4byte	0xb2
 1469 081e 0E       		.byte	0xe
 1470 081f 08       		.uleb128 0x8
 1471 0820 12050000 		.4byte	.LASF112
 1472 0824 0E       		.byte	0xe
 1473 0825 38       		.byte	0x38
 1474 0826 B2000000 		.4byte	0xb2
 1475 082a 0F       		.byte	0xf
 1476 082b 08       		.uleb128 0x8
 1477 082c 40000000 		.4byte	.LASF113
 1478 0830 0E       		.byte	0xe
 1479 0831 39       		.byte	0x39
 1480 0832 B2000000 		.4byte	0xb2
 1481 0836 10       		.byte	0x10
 1482 0837 08       		.uleb128 0x8
ARM GAS  /tmp/ccccEfOH.s 			page 27


 1483 0838 1B020000 		.4byte	.LASF114
 1484 083c 0E       		.byte	0xe
 1485 083d 3B       		.byte	0x3b
 1486 083e B2000000 		.4byte	0xb2
 1487 0842 11       		.byte	0x11
 1488 0843 08       		.uleb128 0x8
 1489 0844 76020000 		.4byte	.LASF115
 1490 0848 0E       		.byte	0xe
 1491 0849 3C       		.byte	0x3c
 1492 084a B2000000 		.4byte	0xb2
 1493 084e 12       		.byte	0x12
 1494 084f 08       		.uleb128 0x8
 1495 0850 BA040000 		.4byte	.LASF116
 1496 0854 0E       		.byte	0xe
 1497 0855 3D       		.byte	0x3d
 1498 0856 B2000000 		.4byte	0xb2
 1499 085a 13       		.byte	0x13
 1500 085b 08       		.uleb128 0x8
 1501 085c B4060000 		.4byte	.LASF117
 1502 0860 0E       		.byte	0xe
 1503 0861 3E       		.byte	0x3e
 1504 0862 B2000000 		.4byte	0xb2
 1505 0866 14       		.byte	0x14
 1506 0867 08       		.uleb128 0x8
 1507 0868 57040000 		.4byte	.LASF118
 1508 086c 0E       		.byte	0xe
 1509 086d 40       		.byte	0x40
 1510 086e B2000000 		.4byte	0xb2
 1511 0872 15       		.byte	0x15
 1512 0873 00       		.byte	0
 1513 0874 10       		.uleb128 0x10
 1514 0875 7B070000 		.4byte	0x77b
 1515 0879 84080000 		.4byte	0x884
 1516 087d 11       		.uleb128 0x11
 1517 087e AB000000 		.4byte	0xab
 1518 0882 03       		.byte	0x3
 1519 0883 00       		.byte	0
 1520 0884 03       		.uleb128 0x3
 1521 0885 2B090000 		.4byte	.LASF119
 1522 0889 0E       		.byte	0xe
 1523 088a 41       		.byte	0x41
 1524 088b 93070000 		.4byte	0x793
 1525 088f 06       		.uleb128 0x6
 1526 0890 84080000 		.4byte	0x884
 1527 0894 14       		.uleb128 0x14
 1528 0895 BA030000 		.4byte	.LASF120
 1529 0899 0E       		.byte	0xe
 1530 089a 7E       		.byte	0x7e
 1531 089b 8F080000 		.4byte	0x88f
 1532 089f 0B       		.uleb128 0xb
 1533 08a0 04       		.byte	0x4
 1534 08a1 B2000000 		.4byte	0xb2
 1535 08a5 0A       		.uleb128 0xa
 1536 08a6 10       		.byte	0x10
 1537 08a7 0F       		.byte	0xf
 1538 08a8 71       		.byte	0x71
 1539 08a9 DE080000 		.4byte	0x8de
ARM GAS  /tmp/ccccEfOH.s 			page 28


 1540 08ad 08       		.uleb128 0x8
 1541 08ae 62030000 		.4byte	.LASF121
 1542 08b2 0F       		.byte	0xf
 1543 08b3 72       		.byte	0x72
 1544 08b4 5C010000 		.4byte	0x15c
 1545 08b8 00       		.byte	0
 1546 08b9 08       		.uleb128 0x8
 1547 08ba DC020000 		.4byte	.LASF122
 1548 08be 0F       		.byte	0xf
 1549 08bf 73       		.byte	0x73
 1550 08c0 AC020000 		.4byte	0x2ac
 1551 08c4 04       		.byte	0x4
 1552 08c5 08       		.uleb128 0x8
 1553 08c6 EB030000 		.4byte	.LASF123
 1554 08ca 0F       		.byte	0xf
 1555 08cb 74       		.byte	0x74
 1556 08cc E8020000 		.4byte	0x2e8
 1557 08d0 08       		.byte	0x8
 1558 08d1 08       		.uleb128 0x8
 1559 08d2 83060000 		.4byte	.LASF124
 1560 08d6 0F       		.byte	0xf
 1561 08d7 75       		.byte	0x75
 1562 08d8 B2000000 		.4byte	0xb2
 1563 08dc 0C       		.byte	0xc
 1564 08dd 00       		.byte	0
 1565 08de 03       		.uleb128 0x3
 1566 08df 03050000 		.4byte	.LASF125
 1567 08e3 0F       		.byte	0xf
 1568 08e4 76       		.byte	0x76
 1569 08e5 A5080000 		.4byte	0x8a5
 1570 08e9 17       		.uleb128 0x17
 1571 08ea 0804     		.2byte	0x408
 1572 08ec 0F       		.byte	0xf
 1573 08ed 7B       		.byte	0x7b
 1574 08ee 17090000 		.4byte	0x917
 1575 08f2 08       		.uleb128 0x8
 1576 08f3 13030000 		.4byte	.LASF126
 1577 08f7 0F       		.byte	0xf
 1578 08f8 7C       		.byte	0x7c
 1579 08f9 AB000000 		.4byte	0xab
 1580 08fd 00       		.byte	0
 1581 08fe 08       		.uleb128 0x8
 1582 08ff FC040000 		.4byte	.LASF127
 1583 0903 0F       		.byte	0xf
 1584 0904 7D       		.byte	0x7d
 1585 0905 17090000 		.4byte	0x917
 1586 0909 04       		.byte	0x4
 1587 090a 08       		.uleb128 0x8
 1588 090b A7050000 		.4byte	.LASF128
 1589 090f 0F       		.byte	0xf
 1590 0910 7F       		.byte	0x7f
 1591 0911 1D090000 		.4byte	0x91d
 1592 0915 08       		.byte	0x8
 1593 0916 00       		.byte	0
 1594 0917 0B       		.uleb128 0xb
 1595 0918 04       		.byte	0x4
 1596 0919 DE080000 		.4byte	0x8de
ARM GAS  /tmp/ccccEfOH.s 			page 29


 1597 091d 10       		.uleb128 0x10
 1598 091e DE080000 		.4byte	0x8de
 1599 0922 2D090000 		.4byte	0x92d
 1600 0926 11       		.uleb128 0x11
 1601 0927 AB000000 		.4byte	0xab
 1602 092b 3F       		.byte	0x3f
 1603 092c 00       		.byte	0
 1604 092d 03       		.uleb128 0x3
 1605 092e CC010000 		.4byte	.LASF129
 1606 0932 0F       		.byte	0xf
 1607 0933 80       		.byte	0x80
 1608 0934 E9080000 		.4byte	0x8e9
 1609 0938 14       		.uleb128 0x14
 1610 0939 88050000 		.4byte	.LASF130
 1611 093d 0F       		.byte	0xf
 1612 093e 83       		.byte	0x83
 1613 093f 2D090000 		.4byte	0x92d
 1614 0943 14       		.uleb128 0x14
 1615 0944 63040000 		.4byte	.LASF131
 1616 0948 0F       		.byte	0xf
 1617 0949 E2       		.byte	0xe2
 1618 094a 6C010000 		.4byte	0x16c
 1619 094e 14       		.uleb128 0x14
 1620 094f CF070000 		.4byte	.LASF132
 1621 0953 0F       		.byte	0xf
 1622 0954 E3       		.byte	0xe3
 1623 0955 6C010000 		.4byte	0x16c
 1624 0959 14       		.uleb128 0x14
 1625 095a 1C060000 		.4byte	.LASF133
 1626 095e 0F       		.byte	0xf
 1627 095f F5       		.byte	0xf5
 1628 0960 75070000 		.4byte	0x775
 1629 0964 18       		.uleb128 0x18
 1630 0965 EA020000 		.4byte	0x2ea
 1631 0969 08       		.byte	0x8
 1632 096a 75090000 		.4byte	0x975
 1633 096e 11       		.uleb128 0x11
 1634 096f AB000000 		.4byte	0xab
 1635 0973 3A       		.byte	0x3a
 1636 0974 00       		.byte	0
 1637 0975 14       		.uleb128 0x14
 1638 0976 F1020000 		.4byte	.LASF134
 1639 097a 10       		.byte	0x10
 1640 097b 89       		.byte	0x89
 1641 097c 64090000 		.4byte	0x964
 1642 0980 19       		.uleb128 0x19
 1643 0981 36060000 		.4byte	.LASF135
 1644 0985 11       		.byte	0x11
 1645 0986 9806     		.2byte	0x698
 1646 0988 E3000000 		.4byte	0xe3
 1647 098c 1A       		.uleb128 0x1a
 1648 098d 07       		.byte	0x7
 1649 098e 01       		.byte	0x1
 1650 098f 37000000 		.4byte	0x37
 1651 0993 12       		.byte	0x12
 1652 0994 F901     		.2byte	0x1f9
 1653 0996 A7090000 		.4byte	0x9a7
ARM GAS  /tmp/ccccEfOH.s 			page 30


 1654 099a 1B       		.uleb128 0x1b
 1655 099b DE060000 		.4byte	.LASF136
 1656 099f 00       		.byte	0
 1657 09a0 1B       		.uleb128 0x1b
 1658 09a1 CC020000 		.4byte	.LASF137
 1659 09a5 01       		.byte	0x1
 1660 09a6 00       		.byte	0
 1661 09a7 1C       		.uleb128 0x1c
 1662 09a8 18       		.byte	0x18
 1663 09a9 12       		.byte	0x12
 1664 09aa B102     		.2byte	0x2b1
 1665 09ac FE090000 		.4byte	0x9fe
 1666 09b0 0F       		.uleb128 0xf
 1667 09b1 435200   		.ascii	"CR\000"
 1668 09b4 12       		.byte	0x12
 1669 09b5 B302     		.2byte	0x2b3
 1670 09b7 F3000000 		.4byte	0xf3
 1671 09bb 00       		.byte	0
 1672 09bc 1D       		.uleb128 0x1d
 1673 09bd C0070000 		.4byte	.LASF138
 1674 09c1 12       		.byte	0x12
 1675 09c2 B402     		.2byte	0x2b4
 1676 09c4 F3000000 		.4byte	0xf3
 1677 09c8 04       		.byte	0x4
 1678 09c9 0F       		.uleb128 0xf
 1679 09ca 50415200 		.ascii	"PAR\000"
 1680 09ce 12       		.byte	0x12
 1681 09cf B502     		.2byte	0x2b5
 1682 09d1 F3000000 		.4byte	0xf3
 1683 09d5 08       		.byte	0x8
 1684 09d6 1D       		.uleb128 0x1d
 1685 09d7 2D000000 		.4byte	.LASF139
 1686 09db 12       		.byte	0x12
 1687 09dc B602     		.2byte	0x2b6
 1688 09de F3000000 		.4byte	0xf3
 1689 09e2 0C       		.byte	0xc
 1690 09e3 1D       		.uleb128 0x1d
 1691 09e4 0E080000 		.4byte	.LASF140
 1692 09e8 12       		.byte	0x12
 1693 09e9 B702     		.2byte	0x2b7
 1694 09eb F3000000 		.4byte	0xf3
 1695 09ef 10       		.byte	0x10
 1696 09f0 0F       		.uleb128 0xf
 1697 09f1 46435200 		.ascii	"FCR\000"
 1698 09f5 12       		.byte	0x12
 1699 09f6 B802     		.2byte	0x2b8
 1700 09f8 F3000000 		.4byte	0xf3
 1701 09fc 14       		.byte	0x14
 1702 09fd 00       		.byte	0
 1703 09fe 1E       		.uleb128 0x1e
 1704 09ff DC070000 		.4byte	.LASF141
 1705 0a03 12       		.byte	0x12
 1706 0a04 B902     		.2byte	0x2b9
 1707 0a06 A7090000 		.4byte	0x9a7
 1708 0a0a 1F       		.uleb128 0x1f
 1709 0a0b 07       		.byte	0x7
 1710 0a0c 01       		.byte	0x1
ARM GAS  /tmp/ccccEfOH.s 			page 31


 1711 0a0d 37000000 		.4byte	0x37
 1712 0a11 13       		.byte	0x13
 1713 0a12 35       		.byte	0x35
 1714 0a13 480A0000 		.4byte	0xa48
 1715 0a17 1B       		.uleb128 0x1b
 1716 0a18 93020000 		.4byte	.LASF142
 1717 0a1c 01       		.byte	0x1
 1718 0a1d 1B       		.uleb128 0x1b
 1719 0a1e 6A070000 		.4byte	.LASF143
 1720 0a22 02       		.byte	0x2
 1721 0a23 1B       		.uleb128 0x1b
 1722 0a24 5A070000 		.4byte	.LASF144
 1723 0a28 03       		.byte	0x3
 1724 0a29 1B       		.uleb128 0x1b
 1725 0a2a 17070000 		.4byte	.LASF145
 1726 0a2e 04       		.byte	0x4
 1727 0a2f 1B       		.uleb128 0x1b
 1728 0a30 D5080000 		.4byte	.LASF146
 1729 0a34 05       		.byte	0x5
 1730 0a35 1B       		.uleb128 0x1b
 1731 0a36 68000000 		.4byte	.LASF147
 1732 0a3a 06       		.byte	0x6
 1733 0a3b 1B       		.uleb128 0x1b
 1734 0a3c 28020000 		.4byte	.LASF148
 1735 0a40 07       		.byte	0x7
 1736 0a41 1B       		.uleb128 0x1b
 1737 0a42 F0080000 		.4byte	.LASF149
 1738 0a46 08       		.byte	0x8
 1739 0a47 00       		.byte	0
 1740 0a48 0A       		.uleb128 0xa
 1741 0a49 0C       		.byte	0xc
 1742 0a4a 14       		.byte	0x14
 1743 0a4b DA       		.byte	0xda
 1744 0a4c 8D0A0000 		.4byte	0xa8d
 1745 0a50 08       		.uleb128 0x8
 1746 0a51 A7010000 		.4byte	.LASF150
 1747 0a55 14       		.byte	0x14
 1748 0a56 DB       		.byte	0xdb
 1749 0a57 8D0A0000 		.4byte	0xa8d
 1750 0a5b 00       		.byte	0
 1751 0a5c 08       		.uleb128 0x8
 1752 0a5d 12070000 		.4byte	.LASF151
 1753 0a61 14       		.byte	0x14
 1754 0a62 DC       		.byte	0xdc
 1755 0a63 930A0000 		.4byte	0xa93
 1756 0a67 04       		.byte	0x4
 1757 0a68 08       		.uleb128 0x8
 1758 0a69 B1080000 		.4byte	.LASF152
 1759 0a6d 14       		.byte	0x14
 1760 0a6e DD       		.byte	0xdd
 1761 0a6f B2000000 		.4byte	0xb2
 1762 0a73 08       		.byte	0x8
 1763 0a74 08       		.uleb128 0x8
 1764 0a75 13080000 		.4byte	.LASF153
 1765 0a79 14       		.byte	0x14
 1766 0a7a DF       		.byte	0xdf
 1767 0a7b B2000000 		.4byte	0xb2
ARM GAS  /tmp/ccccEfOH.s 			page 32


 1768 0a7f 09       		.byte	0x9
 1769 0a80 08       		.uleb128 0x8
 1770 0a81 9A080000 		.4byte	.LASF154
 1771 0a85 14       		.byte	0x14
 1772 0a86 E0       		.byte	0xe0
 1773 0a87 B2000000 		.4byte	0xb2
 1774 0a8b 0A       		.byte	0xa
 1775 0a8c 00       		.byte	0
 1776 0a8d 0B       		.uleb128 0xb
 1777 0a8e 04       		.byte	0x4
 1778 0a8f FE090000 		.4byte	0x9fe
 1779 0a93 0B       		.uleb128 0xb
 1780 0a94 04       		.byte	0x4
 1781 0a95 F3000000 		.4byte	0xf3
 1782 0a99 03       		.uleb128 0x3
 1783 0a9a C3050000 		.4byte	.LASF155
 1784 0a9e 14       		.byte	0x14
 1785 0a9f E1       		.byte	0xe1
 1786 0aa0 480A0000 		.4byte	0xa48
 1787 0aa4 06       		.uleb128 0x6
 1788 0aa5 990A0000 		.4byte	0xa99
 1789 0aa9 10       		.uleb128 0x10
 1790 0aaa A40A0000 		.4byte	0xaa4
 1791 0aae B90A0000 		.4byte	0xab9
 1792 0ab2 11       		.uleb128 0x11
 1793 0ab3 AB000000 		.4byte	0xab
 1794 0ab7 0F       		.byte	0xf
 1795 0ab8 00       		.byte	0
 1796 0ab9 06       		.uleb128 0x6
 1797 0aba A90A0000 		.4byte	0xaa9
 1798 0abe 19       		.uleb128 0x19
 1799 0abf FB010000 		.4byte	.LASF156
 1800 0ac3 14       		.byte	0x14
 1801 0ac4 BB01     		.2byte	0x1bb
 1802 0ac6 B90A0000 		.4byte	0xab9
 1803 0aca 0A       		.uleb128 0xa
 1804 0acb 1C       		.byte	0x1c
 1805 0acc 15       		.byte	0x15
 1806 0acd A3       		.byte	0xa3
 1807 0ace 270B0000 		.4byte	0xb27
 1808 0ad2 08       		.uleb128 0x8
 1809 0ad3 9E020000 		.4byte	.LASF157
 1810 0ad7 15       		.byte	0x15
 1811 0ad8 A5       		.byte	0xa5
 1812 0ad9 E8000000 		.4byte	0xe8
 1813 0add 00       		.byte	0
 1814 0ade 08       		.uleb128 0x8
 1815 0adf 7C000000 		.4byte	.LASF158
 1816 0ae3 15       		.byte	0x15
 1817 0ae4 A7       		.byte	0xa7
 1818 0ae5 E8000000 		.4byte	0xe8
 1819 0ae9 04       		.byte	0x4
 1820 0aea 08       		.uleb128 0x8
 1821 0aeb CC030000 		.4byte	.LASF159
 1822 0aef 15       		.byte	0x15
 1823 0af0 A9       		.byte	0xa9
 1824 0af1 E8000000 		.4byte	0xe8
ARM GAS  /tmp/ccccEfOH.s 			page 33


 1825 0af5 08       		.byte	0x8
 1826 0af6 08       		.uleb128 0x8
 1827 0af7 EC010000 		.4byte	.LASF160
 1828 0afb 15       		.byte	0x15
 1829 0afc AB       		.byte	0xab
 1830 0afd E8000000 		.4byte	0xe8
 1831 0b01 0C       		.byte	0xc
 1832 0b02 09       		.uleb128 0x9
 1833 0b03 6F647200 		.ascii	"odr\000"
 1834 0b07 15       		.byte	0x15
 1835 0b08 AD       		.byte	0xad
 1836 0b09 E8000000 		.4byte	0xe8
 1837 0b0d 10       		.byte	0x10
 1838 0b0e 08       		.uleb128 0x8
 1839 0b0f EF070000 		.4byte	.LASF161
 1840 0b13 15       		.byte	0x15
 1841 0b14 AF       		.byte	0xaf
 1842 0b15 E8000000 		.4byte	0xe8
 1843 0b19 14       		.byte	0x14
 1844 0b1a 08       		.uleb128 0x8
 1845 0b1b 4F050000 		.4byte	.LASF162
 1846 0b1f 15       		.byte	0x15
 1847 0b20 B1       		.byte	0xb1
 1848 0b21 E8000000 		.4byte	0xe8
 1849 0b25 18       		.byte	0x18
 1850 0b26 00       		.byte	0
 1851 0b27 03       		.uleb128 0x3
 1852 0b28 00000000 		.4byte	.LASF163
 1853 0b2c 15       		.byte	0x15
 1854 0b2d B2       		.byte	0xb2
 1855 0b2e CA0A0000 		.4byte	0xaca
 1856 0b32 0A       		.uleb128 0xa
 1857 0b33 FC       		.byte	0xfc
 1858 0b34 15       		.byte	0x15
 1859 0b35 BB       		.byte	0xbb
 1860 0b36 A70B0000 		.4byte	0xba7
 1861 0b3a 08       		.uleb128 0x8
 1862 0b3b E2020000 		.4byte	.LASF164
 1863 0b3f 15       		.byte	0x15
 1864 0b40 BE       		.byte	0xbe
 1865 0b41 270B0000 		.4byte	0xb27
 1866 0b45 00       		.byte	0
 1867 0b46 08       		.uleb128 0x8
 1868 0b47 5B030000 		.4byte	.LASF165
 1869 0b4b 15       		.byte	0x15
 1870 0b4c C2       		.byte	0xc2
 1871 0b4d 270B0000 		.4byte	0xb27
 1872 0b51 1C       		.byte	0x1c
 1873 0b52 08       		.uleb128 0x8
 1874 0b53 CE080000 		.4byte	.LASF166
 1875 0b57 15       		.byte	0x15
 1876 0b58 C6       		.byte	0xc6
 1877 0b59 270B0000 		.4byte	0xb27
 1878 0b5d 38       		.byte	0x38
 1879 0b5e 08       		.uleb128 0x8
 1880 0b5f 64050000 		.4byte	.LASF167
 1881 0b63 15       		.byte	0x15
ARM GAS  /tmp/ccccEfOH.s 			page 34


 1882 0b64 CA       		.byte	0xca
 1883 0b65 270B0000 		.4byte	0xb27
 1884 0b69 54       		.byte	0x54
 1885 0b6a 08       		.uleb128 0x8
 1886 0b6b C5020000 		.4byte	.LASF168
 1887 0b6f 15       		.byte	0x15
 1888 0b70 CE       		.byte	0xce
 1889 0b71 270B0000 		.4byte	0xb27
 1890 0b75 70       		.byte	0x70
 1891 0b76 08       		.uleb128 0x8
 1892 0b77 FF030000 		.4byte	.LASF169
 1893 0b7b 15       		.byte	0x15
 1894 0b7c D2       		.byte	0xd2
 1895 0b7d 270B0000 		.4byte	0xb27
 1896 0b81 8C       		.byte	0x8c
 1897 0b82 08       		.uleb128 0x8
 1898 0b83 91040000 		.4byte	.LASF170
 1899 0b87 15       		.byte	0x15
 1900 0b88 D6       		.byte	0xd6
 1901 0b89 270B0000 		.4byte	0xb27
 1902 0b8d A8       		.byte	0xa8
 1903 0b8e 08       		.uleb128 0x8
 1904 0b8f AE010000 		.4byte	.LASF171
 1905 0b93 15       		.byte	0x15
 1906 0b94 DA       		.byte	0xda
 1907 0b95 270B0000 		.4byte	0xb27
 1908 0b99 C4       		.byte	0xc4
 1909 0b9a 08       		.uleb128 0x8
 1910 0b9b F3060000 		.4byte	.LASF172
 1911 0b9f 15       		.byte	0x15
 1912 0ba0 DE       		.byte	0xde
 1913 0ba1 270B0000 		.4byte	0xb27
 1914 0ba5 E0       		.byte	0xe0
 1915 0ba6 00       		.byte	0
 1916 0ba7 03       		.uleb128 0x3
 1917 0ba8 19090000 		.4byte	.LASF173
 1918 0bac 15       		.byte	0x15
 1919 0bad E0       		.byte	0xe0
 1920 0bae 320B0000 		.4byte	0xb32
 1921 0bb2 06       		.uleb128 0x6
 1922 0bb3 A70B0000 		.4byte	0xba7
 1923 0bb7 19       		.uleb128 0x19
 1924 0bb8 35090000 		.4byte	.LASF174
 1925 0bbc 15       		.byte	0x15
 1926 0bbd BC01     		.2byte	0x1bc
 1927 0bbf B20B0000 		.4byte	0xbb2
 1928 0bc3 10       		.uleb128 0x10
 1929 0bc4 F8000000 		.4byte	0xf8
 1930 0bc8 D30B0000 		.4byte	0xbd3
 1931 0bcc 11       		.uleb128 0x11
 1932 0bcd AB000000 		.4byte	0xab
 1933 0bd1 0B       		.byte	0xb
 1934 0bd2 00       		.byte	0
 1935 0bd3 06       		.uleb128 0x6
 1936 0bd4 C30B0000 		.4byte	0xbc3
 1937 0bd8 20       		.uleb128 0x20
 1938 0bd9 38080000 		.4byte	.LASF175
ARM GAS  /tmp/ccccEfOH.s 			page 35


 1939 0bdd 01       		.byte	0x1
 1940 0bde 52       		.byte	0x52
 1941 0bdf D30B0000 		.4byte	0xbd3
 1942 0be3 05       		.uleb128 0x5
 1943 0be4 03       		.byte	0x3
 1944 0be5 00000000 		.4byte	flash_addr
 1945 0be9 10       		.uleb128 0x10
 1946 0bea D3000000 		.4byte	0xd3
 1947 0bee F90B0000 		.4byte	0xbf9
 1948 0bf2 11       		.uleb128 0x11
 1949 0bf3 AB000000 		.4byte	0xab
 1950 0bf7 0B       		.byte	0xb
 1951 0bf8 00       		.byte	0
 1952 0bf9 06       		.uleb128 0x6
 1953 0bfa E90B0000 		.4byte	0xbe9
 1954 0bfe 20       		.uleb128 0x20
 1955 0bff 06030000 		.4byte	.LASF176
 1956 0c03 01       		.byte	0x1
 1957 0c04 60       		.byte	0x60
 1958 0c05 F90B0000 		.4byte	0xbf9
 1959 0c09 05       		.uleb128 0x5
 1960 0c0a 03       		.byte	0x3
 1961 0c0b 00000000 		.4byte	flash_sector
 1962 0c0f 20       		.uleb128 0x20
 1963 0c10 A2030000 		.4byte	.LASF177
 1964 0c14 01       		.byte	0x1
 1965 0c15 77       		.byte	0x77
 1966 0c16 9F080000 		.4byte	0x89f
 1967 0c1a 05       		.uleb128 0x5
 1968 0c1b 03       		.byte	0x3
 1969 0c1c 00000000 		.4byte	new_app_addr
 1970 0c20 21       		.uleb128 0x21
 1971 0c21 0C090000 		.4byte	.LASF208
 1972 0c25 01       		.byte	0x1
 1973 0c26 E0       		.byte	0xe0
 1974 0c27 9F000000 		.4byte	0x9f
 1975 0c2b 00000000 		.4byte	.LFB124
 1976 0c2f E4000000 		.4byte	.LFE124-.LFB124
 1977 0c33 01       		.uleb128 0x1
 1978 0c34 9C       		.byte	0x9c
 1979 0c35 140E0000 		.4byte	0xe14
 1980 0c39 22       		.uleb128 0x22
 1981 0c3a 00000000 		.4byte	.Ldebug_ranges0+0
 1982 0c3e CC0D0000 		.4byte	0xdcc
 1983 0c42 23       		.uleb128 0x23
 1984 0c43 6900     		.ascii	"i\000"
 1985 0c45 01       		.byte	0x1
 1986 0c46 F8       		.byte	0xf8
 1987 0c47 9F000000 		.4byte	0x9f
 1988 0c4b 00000000 		.4byte	.LLST1
 1989 0c4f 24       		.uleb128 0x24
 1990 0c50 20000000 		.4byte	.Ldebug_ranges0+0x20
 1991 0c54 25       		.uleb128 0x25
 1992 0c55 72657300 		.ascii	"res\000"
 1993 0c59 01       		.byte	0x1
 1994 0c5a F9       		.byte	0xf9
 1995 0c5b BD000000 		.4byte	0xbd
ARM GAS  /tmp/ccccEfOH.s 			page 36


 1996 0c5f 26       		.uleb128 0x26
 1997 0c60 5A0E0000 		.4byte	0xe5a
 1998 0c64 0C000000 		.4byte	.LBB51
 1999 0c68 20000000 		.4byte	.Ldebug_ranges0+0x20
 2000 0c6c 01       		.byte	0x1
 2001 0c6d F9       		.byte	0xf9
 2002 0c6e 24       		.uleb128 0x24
 2003 0c6f 20000000 		.4byte	.Ldebug_ranges0+0x20
 2004 0c73 27       		.uleb128 0x27
 2005 0c74 6A0E0000 		.4byte	0xe6a
 2006 0c78 02       		.uleb128 0x2
 2007 0c79 91       		.byte	0x91
 2008 0c7a 54       		.sleb128 -44
 2009 0c7b 28       		.uleb128 0x28
 2010 0c7c 750E0000 		.4byte	0xe75
 2011 0c80 41000000 		.4byte	.LLST2
 2012 0c84 28       		.uleb128 0x28
 2013 0c85 800E0000 		.4byte	0xe80
 2014 0c89 6F000000 		.4byte	.LLST3
 2015 0c8d 28       		.uleb128 0x28
 2016 0c8e 8B0E0000 		.4byte	0xe8b
 2017 0c92 82000000 		.4byte	.LLST4
 2018 0c96 29       		.uleb128 0x29
 2019 0c97 960E0000 		.4byte	0xe96
 2020 0c9b 2A       		.uleb128 0x2a
 2021 0c9c EC0E0000 		.4byte	0xeec
 2022 0ca0 46000000 		.4byte	.LBB53
 2023 0ca4 32000000 		.4byte	.LBE53-.LBB53
 2024 0ca8 01       		.byte	0x1
 2025 0ca9 B9       		.byte	0xb9
 2026 0caa 0E0D0000 		.4byte	0xd0e
 2027 0cae 2B       		.uleb128 0x2b
 2028 0caf FC0E0000 		.4byte	0xefc
 2029 0cb3 95000000 		.4byte	.LLST5
 2030 0cb7 2C       		.uleb128 0x2c
 2031 0cb8 070F0000 		.4byte	0xf07
 2032 0cbc 5E000000 		.4byte	.LBB55
 2033 0cc0 1A000000 		.4byte	.LBE55-.LBB55
 2034 0cc4 F40C0000 		.4byte	0xcf4
 2035 0cc8 29       		.uleb128 0x29
 2036 0cc9 080F0000 		.4byte	0xf08
 2037 0ccd 2D       		.uleb128 0x2d
 2038 0cce 110F0000 		.4byte	0xf11
 2039 0cd2 5E000000 		.4byte	.LBB56
 2040 0cd6 0E000000 		.4byte	.LBE56-.LBB56
 2041 0cda 28       		.uleb128 0x28
 2042 0cdb 120F0000 		.4byte	0xf12
 2043 0cdf B3000000 		.4byte	.LLST6
 2044 0ce3 2E       		.uleb128 0x2e
 2045 0ce4 68000000 		.4byte	.LVL20
 2046 0ce8 08100000 		.4byte	0x1008
 2047 0cec 2F       		.uleb128 0x2f
 2048 0ced 01       		.uleb128 0x1
 2049 0cee 51       		.byte	0x51
 2050 0cef 01       		.uleb128 0x1
 2051 0cf0 32       		.byte	0x32
 2052 0cf1 00       		.byte	0
ARM GAS  /tmp/ccccEfOH.s 			page 37


 2053 0cf2 00       		.byte	0
 2054 0cf3 00       		.byte	0
 2055 0cf4 30       		.uleb128 0x30
 2056 0cf5 4A000000 		.4byte	.LVL16
 2057 0cf9 14100000 		.4byte	0x1014
 2058 0cfd 2E       		.uleb128 0x2e
 2059 0cfe 56000000 		.4byte	.LVL18
 2060 0d02 20100000 		.4byte	0x1020
 2061 0d06 2F       		.uleb128 0x2f
 2062 0d07 01       		.uleb128 0x1
 2063 0d08 50       		.byte	0x50
 2064 0d09 02       		.uleb128 0x2
 2065 0d0a 08       		.byte	0x8
 2066 0d0b F2       		.byte	0xf2
 2067 0d0c 00       		.byte	0
 2068 0d0d 00       		.byte	0
 2069 0d0e 2A       		.uleb128 0x2a
 2070 0d0f A20E0000 		.4byte	0xea2
 2071 0d13 7C000000 		.4byte	.LBB57
 2072 0d17 22000000 		.4byte	.LBE57-.LBB57
 2073 0d1b 01       		.byte	0x1
 2074 0d1c BE       		.byte	0xbe
 2075 0d1d 900D0000 		.4byte	0xd90
 2076 0d21 2B       		.uleb128 0x2b
 2077 0d22 B20E0000 		.4byte	0xeb2
 2078 0d26 CB000000 		.4byte	.LLST7
 2079 0d2a 2B       		.uleb128 0x2b
 2080 0d2b C80E0000 		.4byte	0xec8
 2081 0d2f DF000000 		.4byte	.LLST8
 2082 0d33 2B       		.uleb128 0x2b
 2083 0d34 BD0E0000 		.4byte	0xebd
 2084 0d38 02010000 		.4byte	.LLST9
 2085 0d3c 2C       		.uleb128 0x2c
 2086 0d3d D30E0000 		.4byte	0xed3
 2087 0d41 8E000000 		.4byte	.LBB59
 2088 0d45 10000000 		.4byte	.LBE59-.LBB59
 2089 0d49 7F0D0000 		.4byte	0xd7f
 2090 0d4d 29       		.uleb128 0x29
 2091 0d4e D40E0000 		.4byte	0xed4
 2092 0d52 2D       		.uleb128 0x2d
 2093 0d53 DD0E0000 		.4byte	0xedd
 2094 0d57 8E000000 		.4byte	.LBB60
 2095 0d5b 0C000000 		.4byte	.LBE60-.LBB60
 2096 0d5f 28       		.uleb128 0x28
 2097 0d60 DE0E0000 		.4byte	0xede
 2098 0d64 2E010000 		.4byte	.LLST10
 2099 0d68 2E       		.uleb128 0x2e
 2100 0d69 96000000 		.4byte	.LVL27
 2101 0d6d 2C100000 		.4byte	0x102c
 2102 0d71 2F       		.uleb128 0x2f
 2103 0d72 01       		.uleb128 0x1
 2104 0d73 50       		.byte	0x50
 2105 0d74 07       		.uleb128 0x7
 2106 0d75 74       		.byte	0x74
 2107 0d76 00       		.sleb128 0
 2108 0d77 7A       		.byte	0x7a
 2109 0d78 00       		.sleb128 0
ARM GAS  /tmp/ccccEfOH.s 			page 38


 2110 0d79 22       		.byte	0x22
 2111 0d7a 31       		.byte	0x31
 2112 0d7b 1C       		.byte	0x1c
 2113 0d7c 00       		.byte	0
 2114 0d7d 00       		.byte	0
 2115 0d7e 00       		.byte	0
 2116 0d7f 2E       		.uleb128 0x2e
 2117 0d80 8A000000 		.4byte	.LVL26
 2118 0d84 20100000 		.4byte	0x1020
 2119 0d88 2F       		.uleb128 0x2f
 2120 0d89 01       		.uleb128 0x1
 2121 0d8a 50       		.byte	0x50
 2122 0d8b 02       		.uleb128 0x2
 2123 0d8c 08       		.byte	0x8
 2124 0d8d F2       		.byte	0xf2
 2125 0d8e 00       		.byte	0
 2126 0d8f 00       		.byte	0
 2127 0d90 31       		.uleb128 0x31
 2128 0d91 24000000 		.4byte	.LVL9
 2129 0d95 38100000 		.4byte	0x1038
 2130 0d99 A40D0000 		.4byte	0xda4
 2131 0d9d 2F       		.uleb128 0x2f
 2132 0d9e 01       		.uleb128 0x1
 2133 0d9f 51       		.byte	0x51
 2134 0da0 02       		.uleb128 0x2
 2135 0da1 91       		.byte	0x91
 2136 0da2 54       		.sleb128 -44
 2137 0da3 00       		.byte	0
 2138 0da4 31       		.uleb128 0x31
 2139 0da5 2E000000 		.4byte	.LVL12
 2140 0da9 43100000 		.4byte	0x1043
 2141 0dad B80D0000 		.4byte	0xdb8
 2142 0db1 2F       		.uleb128 0x2f
 2143 0db2 01       		.uleb128 0x1
 2144 0db3 51       		.byte	0x51
 2145 0db4 02       		.uleb128 0x2
 2146 0db5 91       		.byte	0x91
 2147 0db6 54       		.sleb128 -44
 2148 0db7 00       		.byte	0
 2149 0db8 2E       		.uleb128 0x2e
 2150 0db9 42000000 		.4byte	.LVL14
 2151 0dbd 4E100000 		.4byte	0x104e
 2152 0dc1 2F       		.uleb128 0x2f
 2153 0dc2 01       		.uleb128 0x1
 2154 0dc3 51       		.byte	0x51
 2155 0dc4 02       		.uleb128 0x2
 2156 0dc5 75       		.byte	0x75
 2157 0dc6 00       		.sleb128 0
 2158 0dc7 00       		.byte	0
 2159 0dc8 00       		.byte	0
 2160 0dc9 00       		.byte	0
 2161 0dca 00       		.byte	0
 2162 0dcb 00       		.byte	0
 2163 0dcc 32       		.uleb128 0x32
 2164 0dcd 140E0000 		.4byte	0xe14
 2165 0dd1 AA000000 		.4byte	.LBB66
 2166 0dd5 3A000000 		.4byte	.LBE66-.LBB66
ARM GAS  /tmp/ccccEfOH.s 			page 39


 2167 0dd9 01       		.byte	0x1
 2168 0dda 0E01     		.2byte	0x10e
 2169 0ddc 0A0E0000 		.4byte	0xe0a
 2170 0de0 33       		.uleb128 0x33
 2171 0de1 200E0000 		.4byte	0xe20
 2172 0de5 D007     		.2byte	0x7d0
 2173 0de7 2D       		.uleb128 0x2d
 2174 0de8 E60F0000 		.4byte	0xfe6
 2175 0dec AA000000 		.4byte	.LBB67
 2176 0df0 3A000000 		.4byte	.LBE67-.LBB67
 2177 0df4 29       		.uleb128 0x29
 2178 0df5 EF0F0000 		.4byte	0xfef
 2179 0df9 34       		.uleb128 0x34
 2180 0dfa 9F0F0000 		.4byte	0xf9f
 2181 0dfe B4000000 		.4byte	.LBB68
 2182 0e02 02000000 		.4byte	.LBE68-.LBB68
 2183 0e06 01       		.byte	0x1
 2184 0e07 DA       		.byte	0xda
 2185 0e08 00       		.byte	0
 2186 0e09 00       		.byte	0
 2187 0e0a 30       		.uleb128 0x30
 2188 0e0b A2000000 		.4byte	.LVL29
 2189 0e0f 200F0000 		.4byte	0xf20
 2190 0e13 00       		.byte	0
 2191 0e14 35       		.uleb128 0x35
 2192 0e15 06040000 		.4byte	.LASF178
 2193 0e19 01       		.byte	0x1
 2194 0e1a D8       		.byte	0xd8
 2195 0e1b 01       		.byte	0x1
 2196 0e1c 370E0000 		.4byte	0xe37
 2197 0e20 36       		.uleb128 0x36
 2198 0e21 5F050000 		.4byte	.LASF180
 2199 0e25 01       		.byte	0x1
 2200 0e26 D8       		.byte	0xd8
 2201 0e27 9F000000 		.4byte	0x9f
 2202 0e2b 37       		.uleb128 0x37
 2203 0e2c 25       		.uleb128 0x25
 2204 0e2d 6900     		.ascii	"i\000"
 2205 0e2f 01       		.byte	0x1
 2206 0e30 D9       		.byte	0xd9
 2207 0e31 A6000000 		.4byte	0xa6
 2208 0e35 00       		.byte	0
 2209 0e36 00       		.byte	0
 2210 0e37 35       		.uleb128 0x35
 2211 0e38 51030000 		.4byte	.LASF179
 2212 0e3c 01       		.byte	0x1
 2213 0e3d C1       		.byte	0xc1
 2214 0e3e 01       		.byte	0x1
 2215 0e3f 5A0E0000 		.4byte	0xe5a
 2216 0e43 38       		.uleb128 0x38
 2217 0e44 6C656400 		.ascii	"led\000"
 2218 0e48 01       		.byte	0x1
 2219 0e49 C1       		.byte	0xc1
 2220 0e4a 9F000000 		.4byte	0x9f
 2221 0e4e 36       		.uleb128 0x36
 2222 0e4f 6F020000 		.4byte	.LASF181
 2223 0e53 01       		.byte	0x1
ARM GAS  /tmp/ccccEfOH.s 			page 40


 2224 0e54 C1       		.byte	0xc1
 2225 0e55 9F000000 		.4byte	0x9f
 2226 0e59 00       		.byte	0
 2227 0e5a 39       		.uleb128 0x39
 2228 0e5b AE020000 		.4byte	.LASF185
 2229 0e5f 01       		.byte	0x1
 2230 0e60 A7       		.byte	0xa7
 2231 0e61 BD000000 		.4byte	0xbd
 2232 0e65 01       		.byte	0x1
 2233 0e66 A20E0000 		.4byte	0xea2
 2234 0e6a 25       		.uleb128 0x25
 2235 0e6b 696E6400 		.ascii	"ind\000"
 2236 0e6f 01       		.byte	0x1
 2237 0e70 A8       		.byte	0xa8
 2238 0e71 D8000000 		.4byte	0xd8
 2239 0e75 3A       		.uleb128 0x3a
 2240 0e76 FA030000 		.4byte	.LASF182
 2241 0e7a 01       		.byte	0x1
 2242 0e7b A9       		.byte	0xa9
 2243 0e7c E8000000 		.4byte	0xe8
 2244 0e80 3A       		.uleb128 0x3a
 2245 0e81 2C050000 		.4byte	.LASF183
 2246 0e85 01       		.byte	0x1
 2247 0e86 AA       		.byte	0xaa
 2248 0e87 C8000000 		.4byte	0xc8
 2249 0e8b 3A       		.uleb128 0x3a
 2250 0e8c C3030000 		.4byte	.LASF184
 2251 0e90 01       		.byte	0x1
 2252 0e91 B4       		.byte	0xb4
 2253 0e92 C8000000 		.4byte	0xc8
 2254 0e96 25       		.uleb128 0x25
 2255 0e97 72657300 		.ascii	"res\000"
 2256 0e9b 01       		.byte	0x1
 2257 0e9c B9       		.byte	0xb9
 2258 0e9d BD000000 		.4byte	0xbd
 2259 0ea1 00       		.byte	0
 2260 0ea2 39       		.uleb128 0x39
 2261 0ea3 A3040000 		.4byte	.LASF186
 2262 0ea7 01       		.byte	0x1
 2263 0ea8 99       		.byte	0x99
 2264 0ea9 BD000000 		.4byte	0xbd
 2265 0ead 01       		.byte	0x1
 2266 0eae EC0E0000 		.4byte	0xeec
 2267 0eb2 36       		.uleb128 0x36
 2268 0eb3 39030000 		.4byte	.LASF187
 2269 0eb7 01       		.byte	0x1
 2270 0eb8 99       		.byte	0x99
 2271 0eb9 E8000000 		.4byte	0xe8
 2272 0ebd 36       		.uleb128 0x36
 2273 0ebe F5030000 		.4byte	.LASF188
 2274 0ec2 01       		.byte	0x1
 2275 0ec3 99       		.byte	0x99
 2276 0ec4 9F080000 		.4byte	0x89f
 2277 0ec8 38       		.uleb128 0x38
 2278 0ec9 6C656E00 		.ascii	"len\000"
 2279 0ecd 01       		.byte	0x1
 2280 0ece 99       		.byte	0x99
ARM GAS  /tmp/ccccEfOH.s 			page 41


 2281 0ecf E8000000 		.4byte	0xe8
 2282 0ed3 37       		.uleb128 0x37
 2283 0ed4 25       		.uleb128 0x25
 2284 0ed5 6900     		.ascii	"i\000"
 2285 0ed7 01       		.byte	0x1
 2286 0ed8 9D       		.byte	0x9d
 2287 0ed9 E8000000 		.4byte	0xe8
 2288 0edd 37       		.uleb128 0x37
 2289 0ede 25       		.uleb128 0x25
 2290 0edf 72657300 		.ascii	"res\000"
 2291 0ee3 01       		.byte	0x1
 2292 0ee4 9E       		.byte	0x9e
 2293 0ee5 BD000000 		.4byte	0xbd
 2294 0ee9 00       		.byte	0
 2295 0eea 00       		.byte	0
 2296 0eeb 00       		.byte	0
 2297 0eec 39       		.uleb128 0x39
 2298 0eed C5070000 		.4byte	.LASF189
 2299 0ef1 01       		.byte	0x1
 2300 0ef2 84       		.byte	0x84
 2301 0ef3 BD000000 		.4byte	0xbd
 2302 0ef7 01       		.byte	0x1
 2303 0ef8 200F0000 		.4byte	0xf20
 2304 0efc 36       		.uleb128 0x36
 2305 0efd 70030000 		.4byte	.LASF190
 2306 0f01 01       		.byte	0x1
 2307 0f02 84       		.byte	0x84
 2308 0f03 E8000000 		.4byte	0xe8
 2309 0f07 37       		.uleb128 0x37
 2310 0f08 25       		.uleb128 0x25
 2311 0f09 6900     		.ascii	"i\000"
 2312 0f0b 01       		.byte	0x1
 2313 0f0c 8B       		.byte	0x8b
 2314 0f0d 9F000000 		.4byte	0x9f
 2315 0f11 37       		.uleb128 0x37
 2316 0f12 25       		.uleb128 0x25
 2317 0f13 72657300 		.ascii	"res\000"
 2318 0f17 01       		.byte	0x1
 2319 0f18 8D       		.byte	0x8d
 2320 0f19 BD000000 		.4byte	0xbd
 2321 0f1d 00       		.byte	0
 2322 0f1e 00       		.byte	0
 2323 0f1f 00       		.byte	0
 2324 0f20 3B       		.uleb128 0x3b
 2325 0f21 F0050000 		.4byte	.LASF209
 2326 0f25 01       		.byte	0x1
 2327 0f26 79       		.byte	0x79
 2328 0f27 00000000 		.4byte	.LFB118
 2329 0f2b 22000000 		.4byte	.LFE118-.LFB118
 2330 0f2f 01       		.uleb128 0x1
 2331 0f30 9C       		.byte	0x9c
 2332 0f31 960F0000 		.4byte	0xf96
 2333 0f35 34       		.uleb128 0x34
 2334 0f36 960F0000 		.4byte	0xf96
 2335 0f3a 1E000000 		.4byte	.LBB28
 2336 0f3e 04000000 		.4byte	.LBE28-.LBB28
 2337 0f42 01       		.byte	0x1
ARM GAS  /tmp/ccccEfOH.s 			page 42


 2338 0f43 80       		.byte	0x80
 2339 0f44 31       		.uleb128 0x31
 2340 0f45 0C000000 		.4byte	.LVL0
 2341 0f49 59100000 		.4byte	0x1059
 2342 0f4d 5E0F0000 		.4byte	0xf5e
 2343 0f51 2F       		.uleb128 0x2f
 2344 0f52 01       		.uleb128 0x1
 2345 0f53 50       		.byte	0x50
 2346 0f54 03       		.uleb128 0x3
 2347 0f55 0A       		.byte	0xa
 2348 0f56 0008     		.2byte	0x800
 2349 0f58 2F       		.uleb128 0x2f
 2350 0f59 01       		.uleb128 0x1
 2351 0f5a 51       		.byte	0x51
 2352 0f5b 01       		.uleb128 0x1
 2353 0f5c 31       		.byte	0x31
 2354 0f5d 00       		.byte	0
 2355 0f5e 31       		.uleb128 0x31
 2356 0f5f 12000000 		.4byte	.LVL1
 2357 0f63 65100000 		.4byte	0x1065
 2358 0f67 710F0000 		.4byte	0xf71
 2359 0f6b 2F       		.uleb128 0x2f
 2360 0f6c 01       		.uleb128 0x1
 2361 0f6d 50       		.byte	0x50
 2362 0f6e 01       		.uleb128 0x1
 2363 0f6f 30       		.byte	0x30
 2364 0f70 00       		.byte	0
 2365 0f71 31       		.uleb128 0x31
 2366 0f72 18000000 		.4byte	.LVL2
 2367 0f76 70100000 		.4byte	0x1070
 2368 0f7a 850F0000 		.4byte	0xf85
 2369 0f7e 2F       		.uleb128 0x2f
 2370 0f7f 01       		.uleb128 0x1
 2371 0f80 50       		.byte	0x50
 2372 0f81 02       		.uleb128 0x2
 2373 0f82 09       		.byte	0x9
 2374 0f83 FF       		.byte	0xff
 2375 0f84 00       		.byte	0
 2376 0f85 2E       		.uleb128 0x2e
 2377 0f86 1E000000 		.4byte	.LVL3
 2378 0f8a 7B100000 		.4byte	0x107b
 2379 0f8e 2F       		.uleb128 0x2f
 2380 0f8f 01       		.uleb128 0x1
 2381 0f90 50       		.byte	0x50
 2382 0f91 02       		.uleb128 0x2
 2383 0f92 08       		.byte	0x8
 2384 0f93 64       		.byte	0x64
 2385 0f94 00       		.byte	0
 2386 0f95 00       		.byte	0
 2387 0f96 3C       		.uleb128 0x3c
 2388 0f97 99050000 		.4byte	.LASF191
 2389 0f9b 02       		.byte	0x2
 2390 0f9c 4601     		.2byte	0x146
 2391 0f9e 03       		.byte	0x3
 2392 0f9f 3C       		.uleb128 0x3c
 2393 0fa0 63020000 		.4byte	.LASF192
 2394 0fa4 03       		.byte	0x3
ARM GAS  /tmp/ccccEfOH.s 			page 43


 2395 0fa5 1E01     		.2byte	0x11e
 2396 0fa7 03       		.byte	0x3
 2397 0fa8 3D       		.uleb128 0x3d
 2398 0fa9 370E0000 		.4byte	0xe37
 2399 0fad 00000000 		.4byte	.LFB122
 2400 0fb1 02000000 		.4byte	.LFE122-.LFB122
 2401 0fb5 01       		.uleb128 0x1
 2402 0fb6 9C       		.byte	0x9c
 2403 0fb7 CA0F0000 		.4byte	0xfca
 2404 0fbb 3E       		.uleb128 0x3e
 2405 0fbc 430E0000 		.4byte	0xe43
 2406 0fc0 01       		.uleb128 0x1
 2407 0fc1 50       		.byte	0x50
 2408 0fc2 3E       		.uleb128 0x3e
 2409 0fc3 4E0E0000 		.4byte	0xe4e
 2410 0fc7 01       		.uleb128 0x1
 2411 0fc8 51       		.byte	0x51
 2412 0fc9 00       		.byte	0
 2413 0fca 3D       		.uleb128 0x3d
 2414 0fcb 140E0000 		.4byte	0xe14
 2415 0fcf 00000000 		.4byte	.LFB123
 2416 0fd3 26000000 		.4byte	.LFE123-.LFB123
 2417 0fd7 01       		.uleb128 0x1
 2418 0fd8 9C       		.byte	0x9c
 2419 0fd9 08100000 		.4byte	0x1008
 2420 0fdd 2B       		.uleb128 0x2b
 2421 0fde 200E0000 		.4byte	0xe20
 2422 0fe2 46010000 		.4byte	.LLST0
 2423 0fe6 3F       		.uleb128 0x3f
 2424 0fe7 02000000 		.4byte	.LBB30
 2425 0feb 20000000 		.4byte	.LBE30-.LBB30
 2426 0fef 27       		.uleb128 0x27
 2427 0ff0 2C0E0000 		.4byte	0xe2c
 2428 0ff4 02       		.uleb128 0x2
 2429 0ff5 91       		.byte	0x91
 2430 0ff6 7C       		.sleb128 -4
 2431 0ff7 34       		.uleb128 0x34
 2432 0ff8 9F0F0000 		.4byte	0xf9f
 2433 0ffc 14000000 		.4byte	.LBB31
 2434 1000 02000000 		.4byte	.LBE31-.LBB31
 2435 1004 01       		.byte	0x1
 2436 1005 DA       		.byte	0xda
 2437 1006 00       		.byte	0
 2438 1007 00       		.byte	0
 2439 1008 40       		.uleb128 0x40
 2440 1009 5F060000 		.4byte	.LASF193
 2441 100d 5F060000 		.4byte	.LASF193
 2442 1011 13       		.byte	0x13
 2443 1012 2B01     		.2byte	0x12b
 2444 1014 40       		.uleb128 0x40
 2445 1015 E6060000 		.4byte	.LASF194
 2446 1019 E6060000 		.4byte	.LASF194
 2447 101d 13       		.byte	0x13
 2448 101e 2901     		.2byte	0x129
 2449 1020 40       		.uleb128 0x40
 2450 1021 57080000 		.4byte	.LASF195
 2451 1025 57080000 		.4byte	.LASF195
ARM GAS  /tmp/ccccEfOH.s 			page 44


 2452 1029 13       		.byte	0x13
 2453 102a 4201     		.2byte	0x142
 2454 102c 40       		.uleb128 0x40
 2455 102d 8C060000 		.4byte	.LASF196
 2456 1031 8C060000 		.4byte	.LASF196
 2457 1035 13       		.byte	0x13
 2458 1036 3001     		.2byte	0x130
 2459 1038 41       		.uleb128 0x41
 2460 1039 D6050000 		.4byte	.LASF197
 2461 103d D6050000 		.4byte	.LASF197
 2462 1041 16       		.byte	0x16
 2463 1042 25       		.byte	0x25
 2464 1043 41       		.uleb128 0x41
 2465 1044 D4030000 		.4byte	.LASF198
 2466 1048 D4030000 		.4byte	.LASF198
 2467 104c 16       		.byte	0x16
 2468 104d 23       		.byte	0x23
 2469 104e 41       		.uleb128 0x41
 2470 104f E4040000 		.4byte	.LASF199
 2471 1053 E4040000 		.4byte	.LASF199
 2472 1057 17       		.byte	0x17
 2473 1058 1F       		.byte	0x1f
 2474 1059 40       		.uleb128 0x40
 2475 105a 78080000 		.4byte	.LASF200
 2476 105e 78080000 		.4byte	.LASF200
 2477 1062 18       		.byte	0x18
 2478 1063 E001     		.2byte	0x1e0
 2479 1065 41       		.uleb128 0x41
 2480 1066 7A070000 		.4byte	.LASF201
 2481 106a 7A070000 		.4byte	.LASF201
 2482 106e 19       		.byte	0x19
 2483 106f 55       		.byte	0x55
 2484 1070 41       		.uleb128 0x41
 2485 1071 1D080000 		.4byte	.LASF202
 2486 1075 1D080000 		.4byte	.LASF202
 2487 1079 19       		.byte	0x19
 2488 107a 56       		.byte	0x56
 2489 107b 41       		.uleb128 0x41
 2490 107c 2A060000 		.4byte	.LASF203
 2491 1080 2A060000 		.4byte	.LASF203
 2492 1084 19       		.byte	0x19
 2493 1085 5B       		.byte	0x5b
 2494 1086 00       		.byte	0
 2495              		.section	.debug_abbrev,"",%progbits
 2496              	.Ldebug_abbrev0:
 2497 0000 01       		.uleb128 0x1
 2498 0001 11       		.uleb128 0x11
 2499 0002 01       		.byte	0x1
 2500 0003 25       		.uleb128 0x25
 2501 0004 0E       		.uleb128 0xe
 2502 0005 13       		.uleb128 0x13
 2503 0006 0B       		.uleb128 0xb
 2504 0007 03       		.uleb128 0x3
 2505 0008 0E       		.uleb128 0xe
 2506 0009 1B       		.uleb128 0x1b
 2507 000a 0E       		.uleb128 0xe
 2508 000b 55       		.uleb128 0x55
ARM GAS  /tmp/ccccEfOH.s 			page 45


 2509 000c 17       		.uleb128 0x17
 2510 000d 11       		.uleb128 0x11
 2511 000e 01       		.uleb128 0x1
 2512 000f 10       		.uleb128 0x10
 2513 0010 17       		.uleb128 0x17
 2514 0011 00       		.byte	0
 2515 0012 00       		.byte	0
 2516 0013 02       		.uleb128 0x2
 2517 0014 24       		.uleb128 0x24
 2518 0015 00       		.byte	0
 2519 0016 0B       		.uleb128 0xb
 2520 0017 0B       		.uleb128 0xb
 2521 0018 3E       		.uleb128 0x3e
 2522 0019 0B       		.uleb128 0xb
 2523 001a 03       		.uleb128 0x3
 2524 001b 0E       		.uleb128 0xe
 2525 001c 00       		.byte	0
 2526 001d 00       		.byte	0
 2527 001e 03       		.uleb128 0x3
 2528 001f 16       		.uleb128 0x16
 2529 0020 00       		.byte	0
 2530 0021 03       		.uleb128 0x3
 2531 0022 0E       		.uleb128 0xe
 2532 0023 3A       		.uleb128 0x3a
 2533 0024 0B       		.uleb128 0xb
 2534 0025 3B       		.uleb128 0x3b
 2535 0026 0B       		.uleb128 0xb
 2536 0027 49       		.uleb128 0x49
 2537 0028 13       		.uleb128 0x13
 2538 0029 00       		.byte	0
 2539 002a 00       		.byte	0
 2540 002b 04       		.uleb128 0x4
 2541 002c 24       		.uleb128 0x24
 2542 002d 00       		.byte	0
 2543 002e 0B       		.uleb128 0xb
 2544 002f 0B       		.uleb128 0xb
 2545 0030 3E       		.uleb128 0x3e
 2546 0031 0B       		.uleb128 0xb
 2547 0032 03       		.uleb128 0x3
 2548 0033 08       		.uleb128 0x8
 2549 0034 00       		.byte	0
 2550 0035 00       		.byte	0
 2551 0036 05       		.uleb128 0x5
 2552 0037 35       		.uleb128 0x35
 2553 0038 00       		.byte	0
 2554 0039 49       		.uleb128 0x49
 2555 003a 13       		.uleb128 0x13
 2556 003b 00       		.byte	0
 2557 003c 00       		.byte	0
 2558 003d 06       		.uleb128 0x6
 2559 003e 26       		.uleb128 0x26
 2560 003f 00       		.byte	0
 2561 0040 49       		.uleb128 0x49
 2562 0041 13       		.uleb128 0x13
 2563 0042 00       		.byte	0
 2564 0043 00       		.byte	0
 2565 0044 07       		.uleb128 0x7
ARM GAS  /tmp/ccccEfOH.s 			page 46


 2566 0045 13       		.uleb128 0x13
 2567 0046 01       		.byte	0x1
 2568 0047 03       		.uleb128 0x3
 2569 0048 0E       		.uleb128 0xe
 2570 0049 0B       		.uleb128 0xb
 2571 004a 0B       		.uleb128 0xb
 2572 004b 3A       		.uleb128 0x3a
 2573 004c 0B       		.uleb128 0xb
 2574 004d 3B       		.uleb128 0x3b
 2575 004e 0B       		.uleb128 0xb
 2576 004f 01       		.uleb128 0x1
 2577 0050 13       		.uleb128 0x13
 2578 0051 00       		.byte	0
 2579 0052 00       		.byte	0
 2580 0053 08       		.uleb128 0x8
 2581 0054 0D       		.uleb128 0xd
 2582 0055 00       		.byte	0
 2583 0056 03       		.uleb128 0x3
 2584 0057 0E       		.uleb128 0xe
 2585 0058 3A       		.uleb128 0x3a
 2586 0059 0B       		.uleb128 0xb
 2587 005a 3B       		.uleb128 0x3b
 2588 005b 0B       		.uleb128 0xb
 2589 005c 49       		.uleb128 0x49
 2590 005d 13       		.uleb128 0x13
 2591 005e 38       		.uleb128 0x38
 2592 005f 0B       		.uleb128 0xb
 2593 0060 00       		.byte	0
 2594 0061 00       		.byte	0
 2595 0062 09       		.uleb128 0x9
 2596 0063 0D       		.uleb128 0xd
 2597 0064 00       		.byte	0
 2598 0065 03       		.uleb128 0x3
 2599 0066 08       		.uleb128 0x8
 2600 0067 3A       		.uleb128 0x3a
 2601 0068 0B       		.uleb128 0xb
 2602 0069 3B       		.uleb128 0x3b
 2603 006a 0B       		.uleb128 0xb
 2604 006b 49       		.uleb128 0x49
 2605 006c 13       		.uleb128 0x13
 2606 006d 38       		.uleb128 0x38
 2607 006e 0B       		.uleb128 0xb
 2608 006f 00       		.byte	0
 2609 0070 00       		.byte	0
 2610 0071 0A       		.uleb128 0xa
 2611 0072 13       		.uleb128 0x13
 2612 0073 01       		.byte	0x1
 2613 0074 0B       		.uleb128 0xb
 2614 0075 0B       		.uleb128 0xb
 2615 0076 3A       		.uleb128 0x3a
 2616 0077 0B       		.uleb128 0xb
 2617 0078 3B       		.uleb128 0x3b
 2618 0079 0B       		.uleb128 0xb
 2619 007a 01       		.uleb128 0x1
 2620 007b 13       		.uleb128 0x13
 2621 007c 00       		.byte	0
 2622 007d 00       		.byte	0
ARM GAS  /tmp/ccccEfOH.s 			page 47


 2623 007e 0B       		.uleb128 0xb
 2624 007f 0F       		.uleb128 0xf
 2625 0080 00       		.byte	0
 2626 0081 0B       		.uleb128 0xb
 2627 0082 0B       		.uleb128 0xb
 2628 0083 49       		.uleb128 0x49
 2629 0084 13       		.uleb128 0x13
 2630 0085 00       		.byte	0
 2631 0086 00       		.byte	0
 2632 0087 0C       		.uleb128 0xc
 2633 0088 0F       		.uleb128 0xf
 2634 0089 00       		.byte	0
 2635 008a 0B       		.uleb128 0xb
 2636 008b 0B       		.uleb128 0xb
 2637 008c 00       		.byte	0
 2638 008d 00       		.byte	0
 2639 008e 0D       		.uleb128 0xd
 2640 008f 16       		.uleb128 0x16
 2641 0090 00       		.byte	0
 2642 0091 03       		.uleb128 0x3
 2643 0092 0E       		.uleb128 0xe
 2644 0093 3A       		.uleb128 0x3a
 2645 0094 0B       		.uleb128 0xb
 2646 0095 3B       		.uleb128 0x3b
 2647 0096 0B       		.uleb128 0xb
 2648 0097 49       		.uleb128 0x49
 2649 0098 13       		.uleb128 0x13
 2650 0099 8801     		.uleb128 0x88
 2651 009b 0B       		.uleb128 0xb
 2652 009c 00       		.byte	0
 2653 009d 00       		.byte	0
 2654 009e 0E       		.uleb128 0xe
 2655 009f 13       		.uleb128 0x13
 2656 00a0 01       		.byte	0x1
 2657 00a1 03       		.uleb128 0x3
 2658 00a2 0E       		.uleb128 0xe
 2659 00a3 0B       		.uleb128 0xb
 2660 00a4 0B       		.uleb128 0xb
 2661 00a5 3A       		.uleb128 0x3a
 2662 00a6 0B       		.uleb128 0xb
 2663 00a7 3B       		.uleb128 0x3b
 2664 00a8 05       		.uleb128 0x5
 2665 00a9 01       		.uleb128 0x1
 2666 00aa 13       		.uleb128 0x13
 2667 00ab 00       		.byte	0
 2668 00ac 00       		.byte	0
 2669 00ad 0F       		.uleb128 0xf
 2670 00ae 0D       		.uleb128 0xd
 2671 00af 00       		.byte	0
 2672 00b0 03       		.uleb128 0x3
 2673 00b1 08       		.uleb128 0x8
 2674 00b2 3A       		.uleb128 0x3a
 2675 00b3 0B       		.uleb128 0xb
 2676 00b4 3B       		.uleb128 0x3b
 2677 00b5 05       		.uleb128 0x5
 2678 00b6 49       		.uleb128 0x49
 2679 00b7 13       		.uleb128 0x13
ARM GAS  /tmp/ccccEfOH.s 			page 48


 2680 00b8 38       		.uleb128 0x38
 2681 00b9 0B       		.uleb128 0xb
 2682 00ba 00       		.byte	0
 2683 00bb 00       		.byte	0
 2684 00bc 10       		.uleb128 0x10
 2685 00bd 01       		.uleb128 0x1
 2686 00be 01       		.byte	0x1
 2687 00bf 49       		.uleb128 0x49
 2688 00c0 13       		.uleb128 0x13
 2689 00c1 01       		.uleb128 0x1
 2690 00c2 13       		.uleb128 0x13
 2691 00c3 00       		.byte	0
 2692 00c4 00       		.byte	0
 2693 00c5 11       		.uleb128 0x11
 2694 00c6 21       		.uleb128 0x21
 2695 00c7 00       		.byte	0
 2696 00c8 49       		.uleb128 0x49
 2697 00c9 13       		.uleb128 0x13
 2698 00ca 2F       		.uleb128 0x2f
 2699 00cb 0B       		.uleb128 0xb
 2700 00cc 00       		.byte	0
 2701 00cd 00       		.byte	0
 2702 00ce 12       		.uleb128 0x12
 2703 00cf 15       		.uleb128 0x15
 2704 00d0 01       		.byte	0x1
 2705 00d1 27       		.uleb128 0x27
 2706 00d2 19       		.uleb128 0x19
 2707 00d3 01       		.uleb128 0x1
 2708 00d4 13       		.uleb128 0x13
 2709 00d5 00       		.byte	0
 2710 00d6 00       		.byte	0
 2711 00d7 13       		.uleb128 0x13
 2712 00d8 05       		.uleb128 0x5
 2713 00d9 00       		.byte	0
 2714 00da 49       		.uleb128 0x49
 2715 00db 13       		.uleb128 0x13
 2716 00dc 00       		.byte	0
 2717 00dd 00       		.byte	0
 2718 00de 14       		.uleb128 0x14
 2719 00df 34       		.uleb128 0x34
 2720 00e0 00       		.byte	0
 2721 00e1 03       		.uleb128 0x3
 2722 00e2 0E       		.uleb128 0xe
 2723 00e3 3A       		.uleb128 0x3a
 2724 00e4 0B       		.uleb128 0xb
 2725 00e5 3B       		.uleb128 0x3b
 2726 00e6 0B       		.uleb128 0xb
 2727 00e7 49       		.uleb128 0x49
 2728 00e8 13       		.uleb128 0x13
 2729 00e9 3F       		.uleb128 0x3f
 2730 00ea 19       		.uleb128 0x19
 2731 00eb 3C       		.uleb128 0x3c
 2732 00ec 19       		.uleb128 0x19
 2733 00ed 00       		.byte	0
 2734 00ee 00       		.byte	0
 2735 00ef 15       		.uleb128 0x15
 2736 00f0 17       		.uleb128 0x17
ARM GAS  /tmp/ccccEfOH.s 			page 49


 2737 00f1 01       		.byte	0x1
 2738 00f2 0B       		.uleb128 0xb
 2739 00f3 0B       		.uleb128 0xb
 2740 00f4 3A       		.uleb128 0x3a
 2741 00f5 0B       		.uleb128 0xb
 2742 00f6 3B       		.uleb128 0x3b
 2743 00f7 0B       		.uleb128 0xb
 2744 00f8 01       		.uleb128 0x1
 2745 00f9 13       		.uleb128 0x13
 2746 00fa 00       		.byte	0
 2747 00fb 00       		.byte	0
 2748 00fc 16       		.uleb128 0x16
 2749 00fd 0D       		.uleb128 0xd
 2750 00fe 00       		.byte	0
 2751 00ff 03       		.uleb128 0x3
 2752 0100 0E       		.uleb128 0xe
 2753 0101 3A       		.uleb128 0x3a
 2754 0102 0B       		.uleb128 0xb
 2755 0103 3B       		.uleb128 0x3b
 2756 0104 0B       		.uleb128 0xb
 2757 0105 49       		.uleb128 0x49
 2758 0106 13       		.uleb128 0x13
 2759 0107 00       		.byte	0
 2760 0108 00       		.byte	0
 2761 0109 17       		.uleb128 0x17
 2762 010a 13       		.uleb128 0x13
 2763 010b 01       		.byte	0x1
 2764 010c 0B       		.uleb128 0xb
 2765 010d 05       		.uleb128 0x5
 2766 010e 3A       		.uleb128 0x3a
 2767 010f 0B       		.uleb128 0xb
 2768 0110 3B       		.uleb128 0x3b
 2769 0111 0B       		.uleb128 0xb
 2770 0112 01       		.uleb128 0x1
 2771 0113 13       		.uleb128 0x13
 2772 0114 00       		.byte	0
 2773 0115 00       		.byte	0
 2774 0116 18       		.uleb128 0x18
 2775 0117 01       		.uleb128 0x1
 2776 0118 01       		.byte	0x1
 2777 0119 49       		.uleb128 0x49
 2778 011a 13       		.uleb128 0x13
 2779 011b 8801     		.uleb128 0x88
 2780 011d 0B       		.uleb128 0xb
 2781 011e 01       		.uleb128 0x1
 2782 011f 13       		.uleb128 0x13
 2783 0120 00       		.byte	0
 2784 0121 00       		.byte	0
 2785 0122 19       		.uleb128 0x19
 2786 0123 34       		.uleb128 0x34
 2787 0124 00       		.byte	0
 2788 0125 03       		.uleb128 0x3
 2789 0126 0E       		.uleb128 0xe
 2790 0127 3A       		.uleb128 0x3a
 2791 0128 0B       		.uleb128 0xb
 2792 0129 3B       		.uleb128 0x3b
 2793 012a 05       		.uleb128 0x5
ARM GAS  /tmp/ccccEfOH.s 			page 50


 2794 012b 49       		.uleb128 0x49
 2795 012c 13       		.uleb128 0x13
 2796 012d 3F       		.uleb128 0x3f
 2797 012e 19       		.uleb128 0x19
 2798 012f 3C       		.uleb128 0x3c
 2799 0130 19       		.uleb128 0x19
 2800 0131 00       		.byte	0
 2801 0132 00       		.byte	0
 2802 0133 1A       		.uleb128 0x1a
 2803 0134 04       		.uleb128 0x4
 2804 0135 01       		.byte	0x1
 2805 0136 3E       		.uleb128 0x3e
 2806 0137 0B       		.uleb128 0xb
 2807 0138 0B       		.uleb128 0xb
 2808 0139 0B       		.uleb128 0xb
 2809 013a 49       		.uleb128 0x49
 2810 013b 13       		.uleb128 0x13
 2811 013c 3A       		.uleb128 0x3a
 2812 013d 0B       		.uleb128 0xb
 2813 013e 3B       		.uleb128 0x3b
 2814 013f 05       		.uleb128 0x5
 2815 0140 01       		.uleb128 0x1
 2816 0141 13       		.uleb128 0x13
 2817 0142 00       		.byte	0
 2818 0143 00       		.byte	0
 2819 0144 1B       		.uleb128 0x1b
 2820 0145 28       		.uleb128 0x28
 2821 0146 00       		.byte	0
 2822 0147 03       		.uleb128 0x3
 2823 0148 0E       		.uleb128 0xe
 2824 0149 1C       		.uleb128 0x1c
 2825 014a 0B       		.uleb128 0xb
 2826 014b 00       		.byte	0
 2827 014c 00       		.byte	0
 2828 014d 1C       		.uleb128 0x1c
 2829 014e 13       		.uleb128 0x13
 2830 014f 01       		.byte	0x1
 2831 0150 0B       		.uleb128 0xb
 2832 0151 0B       		.uleb128 0xb
 2833 0152 3A       		.uleb128 0x3a
 2834 0153 0B       		.uleb128 0xb
 2835 0154 3B       		.uleb128 0x3b
 2836 0155 05       		.uleb128 0x5
 2837 0156 01       		.uleb128 0x1
 2838 0157 13       		.uleb128 0x13
 2839 0158 00       		.byte	0
 2840 0159 00       		.byte	0
 2841 015a 1D       		.uleb128 0x1d
 2842 015b 0D       		.uleb128 0xd
 2843 015c 00       		.byte	0
 2844 015d 03       		.uleb128 0x3
 2845 015e 0E       		.uleb128 0xe
 2846 015f 3A       		.uleb128 0x3a
 2847 0160 0B       		.uleb128 0xb
 2848 0161 3B       		.uleb128 0x3b
 2849 0162 05       		.uleb128 0x5
 2850 0163 49       		.uleb128 0x49
ARM GAS  /tmp/ccccEfOH.s 			page 51


 2851 0164 13       		.uleb128 0x13
 2852 0165 38       		.uleb128 0x38
 2853 0166 0B       		.uleb128 0xb
 2854 0167 00       		.byte	0
 2855 0168 00       		.byte	0
 2856 0169 1E       		.uleb128 0x1e
 2857 016a 16       		.uleb128 0x16
 2858 016b 00       		.byte	0
 2859 016c 03       		.uleb128 0x3
 2860 016d 0E       		.uleb128 0xe
 2861 016e 3A       		.uleb128 0x3a
 2862 016f 0B       		.uleb128 0xb
 2863 0170 3B       		.uleb128 0x3b
 2864 0171 05       		.uleb128 0x5
 2865 0172 49       		.uleb128 0x49
 2866 0173 13       		.uleb128 0x13
 2867 0174 00       		.byte	0
 2868 0175 00       		.byte	0
 2869 0176 1F       		.uleb128 0x1f
 2870 0177 04       		.uleb128 0x4
 2871 0178 01       		.byte	0x1
 2872 0179 3E       		.uleb128 0x3e
 2873 017a 0B       		.uleb128 0xb
 2874 017b 0B       		.uleb128 0xb
 2875 017c 0B       		.uleb128 0xb
 2876 017d 49       		.uleb128 0x49
 2877 017e 13       		.uleb128 0x13
 2878 017f 3A       		.uleb128 0x3a
 2879 0180 0B       		.uleb128 0xb
 2880 0181 3B       		.uleb128 0x3b
 2881 0182 0B       		.uleb128 0xb
 2882 0183 01       		.uleb128 0x1
 2883 0184 13       		.uleb128 0x13
 2884 0185 00       		.byte	0
 2885 0186 00       		.byte	0
 2886 0187 20       		.uleb128 0x20
 2887 0188 34       		.uleb128 0x34
 2888 0189 00       		.byte	0
 2889 018a 03       		.uleb128 0x3
 2890 018b 0E       		.uleb128 0xe
 2891 018c 3A       		.uleb128 0x3a
 2892 018d 0B       		.uleb128 0xb
 2893 018e 3B       		.uleb128 0x3b
 2894 018f 0B       		.uleb128 0xb
 2895 0190 49       		.uleb128 0x49
 2896 0191 13       		.uleb128 0x13
 2897 0192 02       		.uleb128 0x2
 2898 0193 18       		.uleb128 0x18
 2899 0194 00       		.byte	0
 2900 0195 00       		.byte	0
 2901 0196 21       		.uleb128 0x21
 2902 0197 2E       		.uleb128 0x2e
 2903 0198 01       		.byte	0x1
 2904 0199 3F       		.uleb128 0x3f
 2905 019a 19       		.uleb128 0x19
 2906 019b 03       		.uleb128 0x3
 2907 019c 0E       		.uleb128 0xe
ARM GAS  /tmp/ccccEfOH.s 			page 52


 2908 019d 3A       		.uleb128 0x3a
 2909 019e 0B       		.uleb128 0xb
 2910 019f 3B       		.uleb128 0x3b
 2911 01a0 0B       		.uleb128 0xb
 2912 01a1 27       		.uleb128 0x27
 2913 01a2 19       		.uleb128 0x19
 2914 01a3 49       		.uleb128 0x49
 2915 01a4 13       		.uleb128 0x13
 2916 01a5 11       		.uleb128 0x11
 2917 01a6 01       		.uleb128 0x1
 2918 01a7 12       		.uleb128 0x12
 2919 01a8 06       		.uleb128 0x6
 2920 01a9 40       		.uleb128 0x40
 2921 01aa 18       		.uleb128 0x18
 2922 01ab 9742     		.uleb128 0x2117
 2923 01ad 19       		.uleb128 0x19
 2924 01ae 01       		.uleb128 0x1
 2925 01af 13       		.uleb128 0x13
 2926 01b0 00       		.byte	0
 2927 01b1 00       		.byte	0
 2928 01b2 22       		.uleb128 0x22
 2929 01b3 0B       		.uleb128 0xb
 2930 01b4 01       		.byte	0x1
 2931 01b5 55       		.uleb128 0x55
 2932 01b6 17       		.uleb128 0x17
 2933 01b7 01       		.uleb128 0x1
 2934 01b8 13       		.uleb128 0x13
 2935 01b9 00       		.byte	0
 2936 01ba 00       		.byte	0
 2937 01bb 23       		.uleb128 0x23
 2938 01bc 34       		.uleb128 0x34
 2939 01bd 00       		.byte	0
 2940 01be 03       		.uleb128 0x3
 2941 01bf 08       		.uleb128 0x8
 2942 01c0 3A       		.uleb128 0x3a
 2943 01c1 0B       		.uleb128 0xb
 2944 01c2 3B       		.uleb128 0x3b
 2945 01c3 0B       		.uleb128 0xb
 2946 01c4 49       		.uleb128 0x49
 2947 01c5 13       		.uleb128 0x13
 2948 01c6 02       		.uleb128 0x2
 2949 01c7 17       		.uleb128 0x17
 2950 01c8 00       		.byte	0
 2951 01c9 00       		.byte	0
 2952 01ca 24       		.uleb128 0x24
 2953 01cb 0B       		.uleb128 0xb
 2954 01cc 01       		.byte	0x1
 2955 01cd 55       		.uleb128 0x55
 2956 01ce 17       		.uleb128 0x17
 2957 01cf 00       		.byte	0
 2958 01d0 00       		.byte	0
 2959 01d1 25       		.uleb128 0x25
 2960 01d2 34       		.uleb128 0x34
 2961 01d3 00       		.byte	0
 2962 01d4 03       		.uleb128 0x3
 2963 01d5 08       		.uleb128 0x8
 2964 01d6 3A       		.uleb128 0x3a
ARM GAS  /tmp/ccccEfOH.s 			page 53


 2965 01d7 0B       		.uleb128 0xb
 2966 01d8 3B       		.uleb128 0x3b
 2967 01d9 0B       		.uleb128 0xb
 2968 01da 49       		.uleb128 0x49
 2969 01db 13       		.uleb128 0x13
 2970 01dc 00       		.byte	0
 2971 01dd 00       		.byte	0
 2972 01de 26       		.uleb128 0x26
 2973 01df 1D       		.uleb128 0x1d
 2974 01e0 01       		.byte	0x1
 2975 01e1 31       		.uleb128 0x31
 2976 01e2 13       		.uleb128 0x13
 2977 01e3 52       		.uleb128 0x52
 2978 01e4 01       		.uleb128 0x1
 2979 01e5 55       		.uleb128 0x55
 2980 01e6 17       		.uleb128 0x17
 2981 01e7 58       		.uleb128 0x58
 2982 01e8 0B       		.uleb128 0xb
 2983 01e9 59       		.uleb128 0x59
 2984 01ea 0B       		.uleb128 0xb
 2985 01eb 00       		.byte	0
 2986 01ec 00       		.byte	0
 2987 01ed 27       		.uleb128 0x27
 2988 01ee 34       		.uleb128 0x34
 2989 01ef 00       		.byte	0
 2990 01f0 31       		.uleb128 0x31
 2991 01f1 13       		.uleb128 0x13
 2992 01f2 02       		.uleb128 0x2
 2993 01f3 18       		.uleb128 0x18
 2994 01f4 00       		.byte	0
 2995 01f5 00       		.byte	0
 2996 01f6 28       		.uleb128 0x28
 2997 01f7 34       		.uleb128 0x34
 2998 01f8 00       		.byte	0
 2999 01f9 31       		.uleb128 0x31
 3000 01fa 13       		.uleb128 0x13
 3001 01fb 02       		.uleb128 0x2
 3002 01fc 17       		.uleb128 0x17
 3003 01fd 00       		.byte	0
 3004 01fe 00       		.byte	0
 3005 01ff 29       		.uleb128 0x29
 3006 0200 34       		.uleb128 0x34
 3007 0201 00       		.byte	0
 3008 0202 31       		.uleb128 0x31
 3009 0203 13       		.uleb128 0x13
 3010 0204 00       		.byte	0
 3011 0205 00       		.byte	0
 3012 0206 2A       		.uleb128 0x2a
 3013 0207 1D       		.uleb128 0x1d
 3014 0208 01       		.byte	0x1
 3015 0209 31       		.uleb128 0x31
 3016 020a 13       		.uleb128 0x13
 3017 020b 11       		.uleb128 0x11
 3018 020c 01       		.uleb128 0x1
 3019 020d 12       		.uleb128 0x12
 3020 020e 06       		.uleb128 0x6
 3021 020f 58       		.uleb128 0x58
ARM GAS  /tmp/ccccEfOH.s 			page 54


 3022 0210 0B       		.uleb128 0xb
 3023 0211 59       		.uleb128 0x59
 3024 0212 0B       		.uleb128 0xb
 3025 0213 01       		.uleb128 0x1
 3026 0214 13       		.uleb128 0x13
 3027 0215 00       		.byte	0
 3028 0216 00       		.byte	0
 3029 0217 2B       		.uleb128 0x2b
 3030 0218 05       		.uleb128 0x5
 3031 0219 00       		.byte	0
 3032 021a 31       		.uleb128 0x31
 3033 021b 13       		.uleb128 0x13
 3034 021c 02       		.uleb128 0x2
 3035 021d 17       		.uleb128 0x17
 3036 021e 00       		.byte	0
 3037 021f 00       		.byte	0
 3038 0220 2C       		.uleb128 0x2c
 3039 0221 0B       		.uleb128 0xb
 3040 0222 01       		.byte	0x1
 3041 0223 31       		.uleb128 0x31
 3042 0224 13       		.uleb128 0x13
 3043 0225 11       		.uleb128 0x11
 3044 0226 01       		.uleb128 0x1
 3045 0227 12       		.uleb128 0x12
 3046 0228 06       		.uleb128 0x6
 3047 0229 01       		.uleb128 0x1
 3048 022a 13       		.uleb128 0x13
 3049 022b 00       		.byte	0
 3050 022c 00       		.byte	0
 3051 022d 2D       		.uleb128 0x2d
 3052 022e 0B       		.uleb128 0xb
 3053 022f 01       		.byte	0x1
 3054 0230 31       		.uleb128 0x31
 3055 0231 13       		.uleb128 0x13
 3056 0232 11       		.uleb128 0x11
 3057 0233 01       		.uleb128 0x1
 3058 0234 12       		.uleb128 0x12
 3059 0235 06       		.uleb128 0x6
 3060 0236 00       		.byte	0
 3061 0237 00       		.byte	0
 3062 0238 2E       		.uleb128 0x2e
 3063 0239 898201   		.uleb128 0x4109
 3064 023c 01       		.byte	0x1
 3065 023d 11       		.uleb128 0x11
 3066 023e 01       		.uleb128 0x1
 3067 023f 31       		.uleb128 0x31
 3068 0240 13       		.uleb128 0x13
 3069 0241 00       		.byte	0
 3070 0242 00       		.byte	0
 3071 0243 2F       		.uleb128 0x2f
 3072 0244 8A8201   		.uleb128 0x410a
 3073 0247 00       		.byte	0
 3074 0248 02       		.uleb128 0x2
 3075 0249 18       		.uleb128 0x18
 3076 024a 9142     		.uleb128 0x2111
 3077 024c 18       		.uleb128 0x18
 3078 024d 00       		.byte	0
ARM GAS  /tmp/ccccEfOH.s 			page 55


 3079 024e 00       		.byte	0
 3080 024f 30       		.uleb128 0x30
 3081 0250 898201   		.uleb128 0x4109
 3082 0253 00       		.byte	0
 3083 0254 11       		.uleb128 0x11
 3084 0255 01       		.uleb128 0x1
 3085 0256 31       		.uleb128 0x31
 3086 0257 13       		.uleb128 0x13
 3087 0258 00       		.byte	0
 3088 0259 00       		.byte	0
 3089 025a 31       		.uleb128 0x31
 3090 025b 898201   		.uleb128 0x4109
 3091 025e 01       		.byte	0x1
 3092 025f 11       		.uleb128 0x11
 3093 0260 01       		.uleb128 0x1
 3094 0261 31       		.uleb128 0x31
 3095 0262 13       		.uleb128 0x13
 3096 0263 01       		.uleb128 0x1
 3097 0264 13       		.uleb128 0x13
 3098 0265 00       		.byte	0
 3099 0266 00       		.byte	0
 3100 0267 32       		.uleb128 0x32
 3101 0268 1D       		.uleb128 0x1d
 3102 0269 01       		.byte	0x1
 3103 026a 31       		.uleb128 0x31
 3104 026b 13       		.uleb128 0x13
 3105 026c 11       		.uleb128 0x11
 3106 026d 01       		.uleb128 0x1
 3107 026e 12       		.uleb128 0x12
 3108 026f 06       		.uleb128 0x6
 3109 0270 58       		.uleb128 0x58
 3110 0271 0B       		.uleb128 0xb
 3111 0272 59       		.uleb128 0x59
 3112 0273 05       		.uleb128 0x5
 3113 0274 01       		.uleb128 0x1
 3114 0275 13       		.uleb128 0x13
 3115 0276 00       		.byte	0
 3116 0277 00       		.byte	0
 3117 0278 33       		.uleb128 0x33
 3118 0279 05       		.uleb128 0x5
 3119 027a 00       		.byte	0
 3120 027b 31       		.uleb128 0x31
 3121 027c 13       		.uleb128 0x13
 3122 027d 1C       		.uleb128 0x1c
 3123 027e 05       		.uleb128 0x5
 3124 027f 00       		.byte	0
 3125 0280 00       		.byte	0
 3126 0281 34       		.uleb128 0x34
 3127 0282 1D       		.uleb128 0x1d
 3128 0283 00       		.byte	0
 3129 0284 31       		.uleb128 0x31
 3130 0285 13       		.uleb128 0x13
 3131 0286 11       		.uleb128 0x11
 3132 0287 01       		.uleb128 0x1
 3133 0288 12       		.uleb128 0x12
 3134 0289 06       		.uleb128 0x6
 3135 028a 58       		.uleb128 0x58
ARM GAS  /tmp/ccccEfOH.s 			page 56


 3136 028b 0B       		.uleb128 0xb
 3137 028c 59       		.uleb128 0x59
 3138 028d 0B       		.uleb128 0xb
 3139 028e 00       		.byte	0
 3140 028f 00       		.byte	0
 3141 0290 35       		.uleb128 0x35
 3142 0291 2E       		.uleb128 0x2e
 3143 0292 01       		.byte	0x1
 3144 0293 3F       		.uleb128 0x3f
 3145 0294 19       		.uleb128 0x19
 3146 0295 03       		.uleb128 0x3
 3147 0296 0E       		.uleb128 0xe
 3148 0297 3A       		.uleb128 0x3a
 3149 0298 0B       		.uleb128 0xb
 3150 0299 3B       		.uleb128 0x3b
 3151 029a 0B       		.uleb128 0xb
 3152 029b 27       		.uleb128 0x27
 3153 029c 19       		.uleb128 0x19
 3154 029d 20       		.uleb128 0x20
 3155 029e 0B       		.uleb128 0xb
 3156 029f 01       		.uleb128 0x1
 3157 02a0 13       		.uleb128 0x13
 3158 02a1 00       		.byte	0
 3159 02a2 00       		.byte	0
 3160 02a3 36       		.uleb128 0x36
 3161 02a4 05       		.uleb128 0x5
 3162 02a5 00       		.byte	0
 3163 02a6 03       		.uleb128 0x3
 3164 02a7 0E       		.uleb128 0xe
 3165 02a8 3A       		.uleb128 0x3a
 3166 02a9 0B       		.uleb128 0xb
 3167 02aa 3B       		.uleb128 0x3b
 3168 02ab 0B       		.uleb128 0xb
 3169 02ac 49       		.uleb128 0x49
 3170 02ad 13       		.uleb128 0x13
 3171 02ae 00       		.byte	0
 3172 02af 00       		.byte	0
 3173 02b0 37       		.uleb128 0x37
 3174 02b1 0B       		.uleb128 0xb
 3175 02b2 01       		.byte	0x1
 3176 02b3 00       		.byte	0
 3177 02b4 00       		.byte	0
 3178 02b5 38       		.uleb128 0x38
 3179 02b6 05       		.uleb128 0x5
 3180 02b7 00       		.byte	0
 3181 02b8 03       		.uleb128 0x3
 3182 02b9 08       		.uleb128 0x8
 3183 02ba 3A       		.uleb128 0x3a
 3184 02bb 0B       		.uleb128 0xb
 3185 02bc 3B       		.uleb128 0x3b
 3186 02bd 0B       		.uleb128 0xb
 3187 02be 49       		.uleb128 0x49
 3188 02bf 13       		.uleb128 0x13
 3189 02c0 00       		.byte	0
 3190 02c1 00       		.byte	0
 3191 02c2 39       		.uleb128 0x39
 3192 02c3 2E       		.uleb128 0x2e
ARM GAS  /tmp/ccccEfOH.s 			page 57


 3193 02c4 01       		.byte	0x1
 3194 02c5 03       		.uleb128 0x3
 3195 02c6 0E       		.uleb128 0xe
 3196 02c7 3A       		.uleb128 0x3a
 3197 02c8 0B       		.uleb128 0xb
 3198 02c9 3B       		.uleb128 0x3b
 3199 02ca 0B       		.uleb128 0xb
 3200 02cb 27       		.uleb128 0x27
 3201 02cc 19       		.uleb128 0x19
 3202 02cd 49       		.uleb128 0x49
 3203 02ce 13       		.uleb128 0x13
 3204 02cf 20       		.uleb128 0x20
 3205 02d0 0B       		.uleb128 0xb
 3206 02d1 01       		.uleb128 0x1
 3207 02d2 13       		.uleb128 0x13
 3208 02d3 00       		.byte	0
 3209 02d4 00       		.byte	0
 3210 02d5 3A       		.uleb128 0x3a
 3211 02d6 34       		.uleb128 0x34
 3212 02d7 00       		.byte	0
 3213 02d8 03       		.uleb128 0x3
 3214 02d9 0E       		.uleb128 0xe
 3215 02da 3A       		.uleb128 0x3a
 3216 02db 0B       		.uleb128 0xb
 3217 02dc 3B       		.uleb128 0x3b
 3218 02dd 0B       		.uleb128 0xb
 3219 02de 49       		.uleb128 0x49
 3220 02df 13       		.uleb128 0x13
 3221 02e0 00       		.byte	0
 3222 02e1 00       		.byte	0
 3223 02e2 3B       		.uleb128 0x3b
 3224 02e3 2E       		.uleb128 0x2e
 3225 02e4 01       		.byte	0x1
 3226 02e5 03       		.uleb128 0x3
 3227 02e6 0E       		.uleb128 0xe
 3228 02e7 3A       		.uleb128 0x3a
 3229 02e8 0B       		.uleb128 0xb
 3230 02e9 3B       		.uleb128 0x3b
 3231 02ea 0B       		.uleb128 0xb
 3232 02eb 27       		.uleb128 0x27
 3233 02ec 19       		.uleb128 0x19
 3234 02ed 11       		.uleb128 0x11
 3235 02ee 01       		.uleb128 0x1
 3236 02ef 12       		.uleb128 0x12
 3237 02f0 06       		.uleb128 0x6
 3238 02f1 40       		.uleb128 0x40
 3239 02f2 18       		.uleb128 0x18
 3240 02f3 9742     		.uleb128 0x2117
 3241 02f5 19       		.uleb128 0x19
 3242 02f6 01       		.uleb128 0x1
 3243 02f7 13       		.uleb128 0x13
 3244 02f8 00       		.byte	0
 3245 02f9 00       		.byte	0
 3246 02fa 3C       		.uleb128 0x3c
 3247 02fb 2E       		.uleb128 0x2e
 3248 02fc 00       		.byte	0
 3249 02fd 03       		.uleb128 0x3
ARM GAS  /tmp/ccccEfOH.s 			page 58


 3250 02fe 0E       		.uleb128 0xe
 3251 02ff 3A       		.uleb128 0x3a
 3252 0300 0B       		.uleb128 0xb
 3253 0301 3B       		.uleb128 0x3b
 3254 0302 05       		.uleb128 0x5
 3255 0303 27       		.uleb128 0x27
 3256 0304 19       		.uleb128 0x19
 3257 0305 20       		.uleb128 0x20
 3258 0306 0B       		.uleb128 0xb
 3259 0307 00       		.byte	0
 3260 0308 00       		.byte	0
 3261 0309 3D       		.uleb128 0x3d
 3262 030a 2E       		.uleb128 0x2e
 3263 030b 01       		.byte	0x1
 3264 030c 31       		.uleb128 0x31
 3265 030d 13       		.uleb128 0x13
 3266 030e 11       		.uleb128 0x11
 3267 030f 01       		.uleb128 0x1
 3268 0310 12       		.uleb128 0x12
 3269 0311 06       		.uleb128 0x6
 3270 0312 40       		.uleb128 0x40
 3271 0313 18       		.uleb128 0x18
 3272 0314 9742     		.uleb128 0x2117
 3273 0316 19       		.uleb128 0x19
 3274 0317 01       		.uleb128 0x1
 3275 0318 13       		.uleb128 0x13
 3276 0319 00       		.byte	0
 3277 031a 00       		.byte	0
 3278 031b 3E       		.uleb128 0x3e
 3279 031c 05       		.uleb128 0x5
 3280 031d 00       		.byte	0
 3281 031e 31       		.uleb128 0x31
 3282 031f 13       		.uleb128 0x13
 3283 0320 02       		.uleb128 0x2
 3284 0321 18       		.uleb128 0x18
 3285 0322 00       		.byte	0
 3286 0323 00       		.byte	0
 3287 0324 3F       		.uleb128 0x3f
 3288 0325 0B       		.uleb128 0xb
 3289 0326 01       		.byte	0x1
 3290 0327 11       		.uleb128 0x11
 3291 0328 01       		.uleb128 0x1
 3292 0329 12       		.uleb128 0x12
 3293 032a 06       		.uleb128 0x6
 3294 032b 00       		.byte	0
 3295 032c 00       		.byte	0
 3296 032d 40       		.uleb128 0x40
 3297 032e 2E       		.uleb128 0x2e
 3298 032f 00       		.byte	0
 3299 0330 3F       		.uleb128 0x3f
 3300 0331 19       		.uleb128 0x19
 3301 0332 3C       		.uleb128 0x3c
 3302 0333 19       		.uleb128 0x19
 3303 0334 6E       		.uleb128 0x6e
 3304 0335 0E       		.uleb128 0xe
 3305 0336 03       		.uleb128 0x3
 3306 0337 0E       		.uleb128 0xe
ARM GAS  /tmp/ccccEfOH.s 			page 59


 3307 0338 3A       		.uleb128 0x3a
 3308 0339 0B       		.uleb128 0xb
 3309 033a 3B       		.uleb128 0x3b
 3310 033b 05       		.uleb128 0x5
 3311 033c 00       		.byte	0
 3312 033d 00       		.byte	0
 3313 033e 41       		.uleb128 0x41
 3314 033f 2E       		.uleb128 0x2e
 3315 0340 00       		.byte	0
 3316 0341 3F       		.uleb128 0x3f
 3317 0342 19       		.uleb128 0x19
 3318 0343 3C       		.uleb128 0x3c
 3319 0344 19       		.uleb128 0x19
 3320 0345 6E       		.uleb128 0x6e
 3321 0346 0E       		.uleb128 0xe
 3322 0347 03       		.uleb128 0x3
 3323 0348 0E       		.uleb128 0xe
 3324 0349 3A       		.uleb128 0x3a
 3325 034a 0B       		.uleb128 0xb
 3326 034b 3B       		.uleb128 0x3b
 3327 034c 0B       		.uleb128 0xb
 3328 034d 00       		.byte	0
 3329 034e 00       		.byte	0
 3330 034f 00       		.byte	0
 3331              		.section	.debug_loc,"",%progbits
 3332              	.Ldebug_loc0:
 3333              	.LLST1:
 3334 0000 18000000 		.4byte	.LVL7
 3335 0004 1A000000 		.4byte	.LVL8
 3336 0008 0200     		.2byte	0x2
 3337 000a 30       		.byte	0x30
 3338 000b 9F       		.byte	0x9f
 3339 000c 1A000000 		.4byte	.LVL8
 3340 0010 9E000000 		.4byte	.LVL28
 3341 0014 0500     		.2byte	0x5
 3342 0016 35       		.byte	0x35
 3343 0017 77       		.byte	0x77
 3344 0018 00       		.sleb128 0
 3345 0019 1C       		.byte	0x1c
 3346 001a 9F       		.byte	0x9f
 3347 001b A2000000 		.4byte	.LVL29
 3348 001f A4000000 		.4byte	.LVL30
 3349 0023 0500     		.2byte	0x5
 3350 0025 36       		.byte	0x36
 3351 0026 77       		.byte	0x77
 3352 0027 00       		.sleb128 0
 3353 0028 1C       		.byte	0x1c
 3354 0029 9F       		.byte	0x9f
 3355 002a A4000000 		.4byte	.LVL30
 3356 002e E4000000 		.4byte	.LFE124
 3357 0032 0500     		.2byte	0x5
 3358 0034 35       		.byte	0x35
 3359 0035 77       		.byte	0x77
 3360 0036 00       		.sleb128 0
 3361 0037 1C       		.byte	0x1c
 3362 0038 9F       		.byte	0x9f
 3363 0039 00000000 		.4byte	0
ARM GAS  /tmp/ccccEfOH.s 			page 60


 3364 003d 00000000 		.4byte	0
 3365              	.LLST2:
 3366 0041 28000000 		.4byte	.LVL10
 3367 0045 2A000000 		.4byte	.LVL11
 3368 0049 0100     		.2byte	0x1
 3369 004b 50       		.byte	0x50
 3370 004c 2A000000 		.4byte	.LVL11
 3371 0050 82000000 		.4byte	.LVL25
 3372 0054 0100     		.2byte	0x1
 3373 0056 55       		.byte	0x55
 3374 0057 82000000 		.4byte	.LVL25
 3375 005b 9E000000 		.4byte	.LVL28
 3376 005f 0600     		.2byte	0x6
 3377 0061 7B       		.byte	0x7b
 3378 0062 80808040 		.sleb128 -134217728
 3379 0066 9F       		.byte	0x9f
 3380 0067 00000000 		.4byte	0
 3381 006b 00000000 		.4byte	0
 3382              	.LLST3:
 3383 006f 34000000 		.4byte	.LVL13
 3384 0073 4E000000 		.4byte	.LVL17
 3385 0077 0100     		.2byte	0x1
 3386 0079 54       		.byte	0x54
 3387 007a 00000000 		.4byte	0
 3388 007e 00000000 		.4byte	0
 3389              	.LLST4:
 3390 0082 42000000 		.4byte	.LVL14
 3391 0086 49000000 		.4byte	.LVL16-1
 3392 008a 0100     		.2byte	0x1
 3393 008c 50       		.byte	0x50
 3394 008d 00000000 		.4byte	0
 3395 0091 00000000 		.4byte	0
 3396              	.LLST5:
 3397 0095 46000000 		.4byte	.LVL15
 3398 0099 5E000000 		.4byte	.LVL19
 3399 009d 0100     		.2byte	0x1
 3400 009f 55       		.byte	0x55
 3401 00a0 5E000000 		.4byte	.LVL19
 3402 00a4 78000000 		.4byte	.LVL22
 3403 00a8 0100     		.2byte	0x1
 3404 00aa 5B       		.byte	0x5b
 3405 00ab 00000000 		.4byte	0
 3406 00af 00000000 		.4byte	0
 3407              	.LLST6:
 3408 00b3 68000000 		.4byte	.LVL20
 3409 00b7 78000000 		.4byte	.LVL22
 3410 00bb 0600     		.2byte	0x6
 3411 00bd 70       		.byte	0x70
 3412 00be 00       		.sleb128 0
 3413 00bf 08       		.byte	0x8
 3414 00c0 FF       		.byte	0xff
 3415 00c1 1A       		.byte	0x1a
 3416 00c2 9F       		.byte	0x9f
 3417 00c3 00000000 		.4byte	0
 3418 00c7 00000000 		.4byte	0
 3419              	.LLST7:
 3420 00cb 7C000000 		.4byte	.LVL23
ARM GAS  /tmp/ccccEfOH.s 			page 61


 3421 00cf 9E000000 		.4byte	.LVL28
 3422 00d3 0200     		.2byte	0x2
 3423 00d5 30       		.byte	0x30
 3424 00d6 9F       		.byte	0x9f
 3425 00d7 00000000 		.4byte	0
 3426 00db 00000000 		.4byte	0
 3427              	.LLST8:
 3428 00df 7C000000 		.4byte	.LVL23
 3429 00e3 82000000 		.4byte	.LVL25
 3430 00e7 0100     		.2byte	0x1
 3431 00e9 55       		.byte	0x55
 3432 00ea 82000000 		.4byte	.LVL25
 3433 00ee 9E000000 		.4byte	.LVL28
 3434 00f2 0600     		.2byte	0x6
 3435 00f4 7B       		.byte	0x7b
 3436 00f5 80808040 		.sleb128 -134217728
 3437 00f9 9F       		.byte	0x9f
 3438 00fa 00000000 		.4byte	0
 3439 00fe 00000000 		.4byte	0
 3440              	.LLST9:
 3441 0102 7C000000 		.4byte	.LVL23
 3442 0106 80000000 		.4byte	.LVL24
 3443 010a 0600     		.2byte	0x6
 3444 010c 74       		.byte	0x74
 3445 010d 00       		.sleb128 0
 3446 010e 73       		.byte	0x73
 3447 010f 00       		.sleb128 0
 3448 0110 22       		.byte	0x22
 3449 0111 9F       		.byte	0x9f
 3450 0112 80000000 		.4byte	.LVL24
 3451 0116 89000000 		.4byte	.LVL26-1
 3452 011a 0A00     		.2byte	0xa
 3453 011c 03       		.byte	0x3
 3454 011d 00000000 		.4byte	new_app_addr
 3455 0121 06       		.byte	0x6
 3456 0122 73       		.byte	0x73
 3457 0123 00       		.sleb128 0
 3458 0124 22       		.byte	0x22
 3459 0125 9F       		.byte	0x9f
 3460 0126 00000000 		.4byte	0
 3461 012a 00000000 		.4byte	0
 3462              	.LLST10:
 3463 012e 96000000 		.4byte	.LVL27
 3464 0132 9E000000 		.4byte	.LVL28
 3465 0136 0600     		.2byte	0x6
 3466 0138 70       		.byte	0x70
 3467 0139 00       		.sleb128 0
 3468 013a 08       		.byte	0x8
 3469 013b FF       		.byte	0xff
 3470 013c 1A       		.byte	0x1a
 3471 013d 9F       		.byte	0x9f
 3472 013e 00000000 		.4byte	0
 3473 0142 00000000 		.4byte	0
 3474              	.LLST0:
 3475 0146 00000000 		.4byte	.LVL5
 3476 014a 10000000 		.4byte	.LVL6
 3477 014e 0100     		.2byte	0x1
ARM GAS  /tmp/ccccEfOH.s 			page 62


 3478 0150 50       		.byte	0x50
 3479 0151 10000000 		.4byte	.LVL6
 3480 0155 26000000 		.4byte	.LFE123
 3481 0159 0400     		.2byte	0x4
 3482 015b F3       		.byte	0xf3
 3483 015c 01       		.uleb128 0x1
 3484 015d 50       		.byte	0x50
 3485 015e 9F       		.byte	0x9f
 3486 015f 00000000 		.4byte	0
 3487 0163 00000000 		.4byte	0
 3488              		.section	.debug_aranges,"",%progbits
 3489 0000 34000000 		.4byte	0x34
 3490 0004 0200     		.2byte	0x2
 3491 0006 00000000 		.4byte	.Ldebug_info0
 3492 000a 04       		.byte	0x4
 3493 000b 00       		.byte	0
 3494 000c 0000     		.2byte	0
 3495 000e 0000     		.2byte	0
 3496 0010 00000000 		.4byte	.LFB118
 3497 0014 22000000 		.4byte	.LFE118-.LFB118
 3498 0018 00000000 		.4byte	.LFB122
 3499 001c 02000000 		.4byte	.LFE122-.LFB122
 3500 0020 00000000 		.4byte	.LFB123
 3501 0024 26000000 		.4byte	.LFE123-.LFB123
 3502 0028 00000000 		.4byte	.LFB124
 3503 002c E4000000 		.4byte	.LFE124-.LFB124
 3504 0030 00000000 		.4byte	0
 3505 0034 00000000 		.4byte	0
 3506              		.section	.debug_ranges,"",%progbits
 3507              	.Ldebug_ranges0:
 3508 0000 0C000000 		.4byte	.LBB49
 3509 0004 10000000 		.4byte	.LBE49
 3510 0008 1A000000 		.4byte	.LBB64
 3511 000c 9E000000 		.4byte	.LBE64
 3512 0010 A2000000 		.4byte	.LBB65
 3513 0014 AA000000 		.4byte	.LBE65
 3514 0018 00000000 		.4byte	0
 3515 001c 00000000 		.4byte	0
 3516 0020 0C000000 		.4byte	.LBB50
 3517 0024 10000000 		.4byte	.LBE50
 3518 0028 1A000000 		.4byte	.LBB63
 3519 002c 9E000000 		.4byte	.LBE63
 3520 0030 00000000 		.4byte	0
 3521 0034 00000000 		.4byte	0
 3522 0038 00000000 		.4byte	.LFB118
 3523 003c 22000000 		.4byte	.LFE118
 3524 0040 00000000 		.4byte	.LFB122
 3525 0044 02000000 		.4byte	.LFE122
 3526 0048 00000000 		.4byte	.LFB123
 3527 004c 26000000 		.4byte	.LFE123
 3528 0050 00000000 		.4byte	.LFB124
 3529 0054 E4000000 		.4byte	.LFE124
 3530 0058 00000000 		.4byte	0
 3531 005c 00000000 		.4byte	0
 3532              		.section	.debug_line,"",%progbits
 3533              	.Ldebug_line0:
 3534 0000 72030000 		.section	.debug_str,"MS",%progbits,1
ARM GAS  /tmp/ccccEfOH.s 			page 63


 3534      0200CD02 
 3534      00000201 
 3534      FB0E0D00 
 3534      01010101 
 3535              	.LASF163:
 3536 0000 73746D33 		.ascii	"stm32_gpio_setup_t\000"
 3536      325F6770 
 3536      696F5F73 
 3536      65747570 
 3536      5F7400
 3537              	.LASF111:
 3538 0013 63665F6F 		.ascii	"cf_off_older\000"
 3538      66665F6F 
 3538      6C646572 
 3538      00
 3539              	.LASF75:
 3540 0020 56697274 		.ascii	"VirtualTimer\000"
 3540      75616C54 
 3540      696D6572 
 3540      00
 3541              	.LASF139:
 3542 002d 4D304152 		.ascii	"M0AR\000"
 3542      00
 3543              	.LASF44:
 3544 0032 705F7469 		.ascii	"p_time\000"
 3544      6D6500
 3545              	.LASF96:
 3546 0039 7264796D 		.ascii	"rdymsg\000"
 3546      736700
 3547              	.LASF113:
 3548 0040 63665F6F 		.ascii	"cf_off_stklimit\000"
 3548      66665F73 
 3548      746B6C69 
 3548      6D697400 
 3549              	.LASF20:
 3550 0050 75696E74 		.ascii	"uint64_t\000"
 3550      36345F74 
 3550      00
 3551              	.LASF2:
 3552 0059 5F5F7569 		.ascii	"__uint8_t\000"
 3552      6E74385F 
 3552      7400
 3553              	.LASF65:
 3554 0063 48465352 		.ascii	"HFSR\000"
 3554      00
 3555              	.LASF147:
 3556 0068 464C4153 		.ascii	"FLASH_ERROR_PROGRAM\000"
 3556      485F4552 
 3556      524F525F 
 3556      50524F47 
 3556      52414D00 
 3557              	.LASF158:
 3558 007c 6F747970 		.ascii	"otyper\000"
 3558      657200
 3559              	.LASF204:
 3560 0083 474E5520 		.ascii	"GNU C99 7.3.1 20180622 (release) [ARM/embedded-7-br"
 3560      43393920 
ARM GAS  /tmp/ccccEfOH.s 			page 64


 3560      372E332E 
 3560      31203230 
 3560      31383036 
 3561 00b6 616E6368 		.ascii	"anch revision 261907] -mcpu=cortex-m4 -mfloat-abi=h"
 3561      20726576 
 3561      6973696F 
 3561      6E203236 
 3561      31393037 
 3562 00e9 61726420 		.ascii	"ard -mfpu=fpv4-sp-d16 -mno-thumb-interwork -mthumb "
 3562      2D6D6670 
 3562      753D6670 
 3562      76342D73 
 3562      702D6431 
 3563 011c 2D676764 		.ascii	"-ggdb -O2 -std=gnu99 -fomit-frame-pointer -falign-f"
 3563      62202D4F 
 3563      32202D73 
 3563      74643D67 
 3563      6E753939 
 3564 014f 756E6374 		.ascii	"unctions=16 -ffunction-sections -fdata-sections -fn"
 3564      696F6E73 
 3564      3D313620 
 3564      2D666675 
 3564      6E637469 
 3565 0182 6F2D636F 		.ascii	"o-common -fsingle-precision-constant\000"
 3565      6D6D6F6E 
 3565      202D6673 
 3565      696E676C 
 3565      652D7072 
 3566              	.LASF150:
 3567 01a7 73747265 		.ascii	"stream\000"
 3567      616D00
 3568              	.LASF171:
 3569 01ae 50484461 		.ascii	"PHData\000"
 3569      746100
 3570              	.LASF13:
 3571 01b5 6C6F6E67 		.ascii	"long long unsigned int\000"
 3571      206C6F6E 
 3571      6720756E 
 3571      7369676E 
 3571      65642069 
 3572              	.LASF129:
 3573 01cc 63685F74 		.ascii	"ch_trace_buffer_t\000"
 3573      72616365 
 3573      5F627566 
 3573      6665725F 
 3573      7400
 3574              	.LASF107:
 3575 01de 63685F74 		.ascii	"ch_threadsize\000"
 3575      68726561 
 3575      6473697A 
 3575      6500
 3576              	.LASF160:
 3577 01ec 70757064 		.ascii	"pupdr\000"
 3577      7200
 3578              	.LASF97:
 3579 01f2 65786974 		.ascii	"exitcode\000"
 3579      636F6465 
ARM GAS  /tmp/ccccEfOH.s 			page 65


 3579      00
 3580              	.LASF156:
 3581 01fb 5F73746D 		.ascii	"_stm32_dma_streams\000"
 3581      33325F64 
 3581      6D615F73 
 3581      74726561 
 3581      6D7300
 3582              	.LASF58:
 3583 020e 43505549 		.ascii	"CPUID\000"
 3583      4400
 3584              	.LASF34:
 3585 0214 705F7072 		.ascii	"p_prio\000"
 3585      696F00
 3586              	.LASF114:
 3587 021b 63665F6F 		.ascii	"cf_off_state\000"
 3587      66665F73 
 3587      74617465 
 3587      00
 3588              	.LASF148:
 3589 0228 464C4153 		.ascii	"FLASH_ERROR_OPERATION\000"
 3589      485F4552 
 3589      524F525F 
 3589      4F504552 
 3589      4154494F 
 3590              	.LASF81:
 3591 023e 76745F73 		.ascii	"vt_systime\000"
 3591      79737469 
 3591      6D6500
 3592              	.LASF11:
 3593 0249 6C6F6E67 		.ascii	"long long int\000"
 3593      206C6F6E 
 3593      6720696E 
 3593      7400
 3594              	.LASF0:
 3595 0257 7369676E 		.ascii	"signed char\000"
 3595      65642063 
 3595      68617200 
 3596              	.LASF192:
 3597 0263 5F5F4E4F 		.ascii	"__NOP\000"
 3597      5000
 3598              	.LASF63:
 3599 0269 53484353 		.ascii	"SHCSR\000"
 3599      5200
 3600              	.LASF181:
 3601 026f 626C696E 		.ascii	"blinks\000"
 3601      6B7300
 3602              	.LASF115:
 3603 0276 63665F6F 		.ascii	"cf_off_flags\000"
 3603      66665F66 
 3603      6C616773 
 3603      00
 3604              	.LASF51:
 3605 0283 705F6D70 		.ascii	"p_mpool\000"
 3605      6F6F6C00 
 3606              	.LASF93:
 3607 028b 6D5F7175 		.ascii	"m_queue\000"
 3607      65756500 
ARM GAS  /tmp/ccccEfOH.s 			page 66


 3608              	.LASF142:
 3609 0293 464C4153 		.ascii	"FLASH_BUSY\000"
 3609      485F4255 
 3609      535900
 3610              	.LASF157:
 3611 029e 6D6F6465 		.ascii	"moder\000"
 3611      7200
 3612              	.LASF25:
 3613 02a4 74736C69 		.ascii	"tslices_t\000"
 3613      6365735F 
 3613      7400
 3614              	.LASF185:
 3615 02ae 77726974 		.ascii	"write_new_app\000"
 3615      655F6E65 
 3615      775F6170 
 3615      7000
 3616              	.LASF8:
 3617 02bc 6C6F6E67 		.ascii	"long int\000"
 3617      20696E74 
 3617      00
 3618              	.LASF168:
 3619 02c5 50454461 		.ascii	"PEData\000"
 3619      746100
 3620              	.LASF137:
 3621 02cc 454E4142 		.ascii	"ENABLE\000"
 3621      4C4500
 3622              	.LASF23:
 3623 02d3 74737461 		.ascii	"tstate_t\000"
 3623      74655F74 
 3623      00
 3624              	.LASF122:
 3625 02dc 73655F74 		.ascii	"se_tp\000"
 3625      7000
 3626              	.LASF164:
 3627 02e2 50414461 		.ascii	"PAData\000"
 3627      746100
 3628              	.LASF36:
 3629 02e9 705F6E65 		.ascii	"p_newer\000"
 3629      77657200 
 3630              	.LASF134:
 3631 02f1 5F69646C 		.ascii	"_idle_thread_wa\000"
 3631      655F7468 
 3631      72656164 
 3631      5F776100 
 3632              	.LASF68:
 3633 0301 42464152 		.ascii	"BFAR\000"
 3633      00
 3634              	.LASF176:
 3635 0306 666C6173 		.ascii	"flash_sector\000"
 3635      685F7365 
 3635      63746F72 
 3635      00
 3636              	.LASF126:
 3637 0313 74625F73 		.ascii	"tb_size\000"
 3637      697A6500 
 3638              	.LASF69:
 3639 031b 41465352 		.ascii	"AFSR\000"
ARM GAS  /tmp/ccccEfOH.s 			page 67


 3639      00
 3640              	.LASF86:
 3641 0320 725F6E65 		.ascii	"r_newer\000"
 3641      77657200 
 3642              	.LASF54:
 3643 0328 72656761 		.ascii	"regarm_t\000"
 3643      726D5F74 
 3643      00
 3644              	.LASF77:
 3645 0331 76745F70 		.ascii	"vt_prev\000"
 3645      72657600 
 3646              	.LASF187:
 3647 0339 6F666673 		.ascii	"offset\000"
 3647      657400
 3648              	.LASF3:
 3649 0340 5F5F696E 		.ascii	"__int16_t\000"
 3649      7431365F 
 3649      7400
 3650              	.LASF31:
 3651 034a 54687265 		.ascii	"Thread\000"
 3651      616400
 3652              	.LASF179:
 3653 0351 626C696E 		.ascii	"blink_led\000"
 3653      6B5F6C65 
 3653      6400
 3654              	.LASF165:
 3655 035b 50424461 		.ascii	"PBData\000"
 3655      746100
 3656              	.LASF121:
 3657 0362 73655F74 		.ascii	"se_time\000"
 3657      696D6500 
 3658              	.LASF30:
 3659 036a 636E745F 		.ascii	"cnt_t\000"
 3659      7400
 3660              	.LASF190:
 3661 0370 6E65775F 		.ascii	"new_app_size\000"
 3661      6170705F 
 3661      73697A65 
 3661      00
 3662              	.LASF14:
 3663 037d 756E7369 		.ascii	"unsigned int\000"
 3663      676E6564 
 3663      20696E74 
 3663      00
 3664              	.LASF76:
 3665 038a 76745F6E 		.ascii	"vt_next\000"
 3665      65787400 
 3666              	.LASF17:
 3667 0392 75696E74 		.ascii	"uint16_t\000"
 3667      31365F74 
 3667      00
 3668              	.LASF95:
 3669 039b 6D5F6E65 		.ascii	"m_next\000"
 3669      787400
 3670              	.LASF177:
 3671 03a2 6E65775F 		.ascii	"new_app_addr\000"
 3671      6170705F 
ARM GAS  /tmp/ccccEfOH.s 			page 68


 3671      61646472 
 3671      00
 3672              	.LASF46:
 3673 03af 705F6D73 		.ascii	"p_msgqueue\000"
 3673      67717565 
 3673      756500
 3674              	.LASF120:
 3675 03ba 63685F64 		.ascii	"ch_debug\000"
 3675      65627567 
 3675      00
 3676              	.LASF184:
 3677 03c3 6372635F 		.ascii	"crc_calc\000"
 3677      63616C63 
 3677      00
 3678              	.LASF159:
 3679 03cc 6F737065 		.ascii	"ospeedr\000"
 3679      65647200 
 3680              	.LASF198:
 3681 03d4 62756666 		.ascii	"buffer_get_uint16\000"
 3681      65725F67 
 3681      65745F75 
 3681      696E7431 
 3681      3600
 3682              	.LASF60:
 3683 03e6 56544F52 		.ascii	"VTOR\000"
 3683      00
 3684              	.LASF123:
 3685 03eb 73655F77 		.ascii	"se_wtobjp\000"
 3685      746F626A 
 3685      7000
 3686              	.LASF188:
 3687 03f5 64617461 		.ascii	"data\000"
 3687      00
 3688              	.LASF182:
 3689 03fa 73697A65 		.ascii	"size\000"
 3689      00
 3690              	.LASF169:
 3691 03ff 50464461 		.ascii	"PFData\000"
 3691      746100
 3692              	.LASF178:
 3693 0406 736C6565 		.ascii	"sleep\000"
 3693      7000
 3694              	.LASF90:
 3695 040c 76746C69 		.ascii	"vtlist\000"
 3695      737400
 3696              	.LASF59:
 3697 0413 49435352 		.ascii	"ICSR\000"
 3697      00
 3698              	.LASF27:
 3699 0418 6D73675F 		.ascii	"msg_t\000"
 3699      7400
 3700              	.LASF61:
 3701 041e 41495243 		.ascii	"AIRCR\000"
 3701      5200
 3702              	.LASF66:
 3703 0424 44465352 		.ascii	"DFSR\000"
 3703      00
ARM GAS  /tmp/ccccEfOH.s 			page 69


 3704              	.LASF67:
 3705 0429 4D4D4641 		.ascii	"MMFAR\000"
 3705      5200
 3706              	.LASF205:
 3707 042f 6D61696E 		.ascii	"main.c\000"
 3707      2E6300
 3708              	.LASF206:
 3709 0436 2F686F6D 		.ascii	"/home/renan/BLDC/bldc-bootloader\000"
 3709      652F7265 
 3709      6E616E2F 
 3709      424C4443 
 3709      2F626C64 
 3710              	.LASF118:
 3711 0457 63665F6F 		.ascii	"cf_off_time\000"
 3711      66665F74 
 3711      696D6500 
 3712              	.LASF131:
 3713 0463 6462675F 		.ascii	"dbg_isr_cnt\000"
 3713      6973725F 
 3713      636E7400 
 3714              	.LASF53:
 3715 046f 54687265 		.ascii	"ThreadsList\000"
 3715      6164734C 
 3715      69737400 
 3716              	.LASF28:
 3717 047b 6576656E 		.ascii	"eventmask_t\000"
 3717      746D6173 
 3717      6B5F7400 
 3718              	.LASF7:
 3719 0487 5F5F696E 		.ascii	"__int32_t\000"
 3719      7433325F 
 3719      7400
 3720              	.LASF170:
 3721 0491 50474461 		.ascii	"PGData\000"
 3721      746100
 3722              	.LASF207:
 3723 0498 73746B61 		.ascii	"stkalign_t\000"
 3723      6C69676E 
 3723      5F7400
 3724              	.LASF186:
 3725 04a3 77726974 		.ascii	"write_app_data\000"
 3725      655F6170 
 3725      705F6461 
 3725      746100
 3726              	.LASF102:
 3727 04b2 63685F7A 		.ascii	"ch_zero\000"
 3727      65726F00 
 3728              	.LASF116:
 3729 04ba 63665F6F 		.ascii	"cf_off_refs\000"
 3729      66665F72 
 3729      65667300 
 3730              	.LASF84:
 3731 04c6 725F7072 		.ascii	"r_prio\000"
 3731      696F00
 3732              	.LASF78:
 3733 04cd 76745F74 		.ascii	"vt_time\000"
 3733      696D6500 
ARM GAS  /tmp/ccccEfOH.s 			page 70


 3734              	.LASF45:
 3735 04d5 705F7761 		.ascii	"p_waiting\000"
 3735      6974696E 
 3735      6700
 3736              	.LASF64:
 3737 04df 43465352 		.ascii	"CFSR\000"
 3737      00
 3738              	.LASF199:
 3739 04e4 63726331 		.ascii	"crc16\000"
 3739      3600
 3740              	.LASF92:
 3741 04ea 4D757465 		.ascii	"Mutex\000"
 3741      7800
 3742              	.LASF106:
 3743 04f0 63685F74 		.ascii	"ch_timesize\000"
 3743      696D6573 
 3743      697A6500 
 3744              	.LASF127:
 3745 04fc 74625F70 		.ascii	"tb_ptr\000"
 3745      747200
 3746              	.LASF125:
 3747 0503 63685F73 		.ascii	"ch_swc_event_t\000"
 3747      77635F65 
 3747      76656E74 
 3747      5F7400
 3748              	.LASF112:
 3749 0512 63665F6F 		.ascii	"cf_off_name\000"
 3749      66665F6E 
 3749      616D6500 
 3750              	.LASF37:
 3751 051e 705F6F6C 		.ascii	"p_older\000"
 3751      64657200 
 3752              	.LASF85:
 3753 0526 725F6374 		.ascii	"r_ctx\000"
 3753      7800
 3754              	.LASF183:
 3755 052c 6372635F 		.ascii	"crc_app\000"
 3755      61707000 
 3756              	.LASF52:
 3757 0534 54687265 		.ascii	"ThreadsQueue\000"
 3757      61647351 
 3757      75657565 
 3757      00
 3758              	.LASF35:
 3759 0541 705F6374 		.ascii	"p_ctx\000"
 3759      7800
 3760              	.LASF103:
 3761 0547 63685F73 		.ascii	"ch_size\000"
 3761      697A6500 
 3762              	.LASF162:
 3763 054f 61667268 		.ascii	"afrh\000"
 3763      00
 3764              	.LASF39:
 3765 0554 705F7374 		.ascii	"p_stklimit\000"
 3765      6B6C696D 
 3765      697400
 3766              	.LASF180:
ARM GAS  /tmp/ccccEfOH.s 			page 71


 3767 055f 74696D65 		.ascii	"time\000"
 3767      00
 3768              	.LASF167:
 3769 0564 50444461 		.ascii	"PDData\000"
 3769      746100
 3770              	.LASF88:
 3771 056b 725F6375 		.ascii	"r_current\000"
 3771      7272656E 
 3771      7400
 3772              	.LASF87:
 3773 0575 725F6F6C 		.ascii	"r_older\000"
 3773      64657200 
 3774              	.LASF12:
 3775 057d 5F5F7569 		.ascii	"__uint64_t\000"
 3775      6E743634 
 3775      5F7400
 3776              	.LASF130:
 3777 0588 6462675F 		.ascii	"dbg_trace_buffer\000"
 3777      74726163 
 3777      655F6275 
 3777      66666572 
 3777      00
 3778              	.LASF191:
 3779 0599 5F5F6469 		.ascii	"__disable_irq\000"
 3779      7361626C 
 3779      655F6972 
 3779      7100
 3780              	.LASF128:
 3781 05a7 74625F62 		.ascii	"tb_buffer\000"
 3781      75666665 
 3781      7200
 3782              	.LASF105:
 3783 05b1 63685F70 		.ascii	"ch_ptrsize\000"
 3783      74727369 
 3783      7A6500
 3784              	.LASF33:
 3785 05bc 705F7072 		.ascii	"p_prev\000"
 3785      657600
 3786              	.LASF155:
 3787 05c3 73746D33 		.ascii	"stm32_dma_stream_t\000"
 3787      325F646D 
 3787      615F7374 
 3787      7265616D 
 3787      5F7400
 3788              	.LASF197:
 3789 05d6 62756666 		.ascii	"buffer_get_uint32\000"
 3789      65725F67 
 3789      65745F75 
 3789      696E7433 
 3789      3200
 3790              	.LASF26:
 3791 05e8 74707269 		.ascii	"tprio_t\000"
 3791      6F5F7400 
 3792              	.LASF209:
 3793 05f0 65786974 		.ascii	"exit_bootloader\000"
 3793      5F626F6F 
 3793      746C6F61 
ARM GAS  /tmp/ccccEfOH.s 			page 72


 3793      64657200 
 3794              	.LASF21:
 3795 0600 5F426F6F 		.ascii	"_Bool\000"
 3795      6C00
 3796              	.LASF18:
 3797 0606 696E7433 		.ascii	"int32_t\000"
 3797      325F7400 
 3798              	.LASF1:
 3799 060e 756E7369 		.ascii	"unsigned char\000"
 3799      676E6564 
 3799      20636861 
 3799      7200
 3800              	.LASF133:
 3801 061c 6462675F 		.ascii	"dbg_panic_msg\000"
 3801      70616E69 
 3801      635F6D73 
 3801      6700
 3802              	.LASF203:
 3803 062a 57574447 		.ascii	"WWDG_Enable\000"
 3803      5F456E61 
 3803      626C6500 
 3804              	.LASF135:
 3805 0636 49544D5F 		.ascii	"ITM_RxBuffer\000"
 3805      52784275 
 3805      66666572 
 3805      00
 3806              	.LASF49:
 3807 0643 705F6D74 		.ascii	"p_mtxlist\000"
 3807      786C6973 
 3807      7400
 3808              	.LASF4:
 3809 064d 73686F72 		.ascii	"short int\000"
 3809      7420696E 
 3809      7400
 3810              	.LASF40:
 3811 0657 705F7374 		.ascii	"p_state\000"
 3811      61746500 
 3812              	.LASF193:
 3813 065f 464C4153 		.ascii	"FLASH_EraseSector\000"
 3813      485F4572 
 3813      61736553 
 3813      6563746F 
 3813      7200
 3814              	.LASF43:
 3815 0671 705F7072 		.ascii	"p_preempt\000"
 3815      65656D70 
 3815      7400
 3816              	.LASF24:
 3817 067b 74726566 		.ascii	"trefs_t\000"
 3817      735F7400 
 3818              	.LASF124:
 3819 0683 73655F73 		.ascii	"se_state\000"
 3819      74617465 
 3819      00
 3820              	.LASF196:
 3821 068c 464C4153 		.ascii	"FLASH_ProgramByte\000"
 3821      485F5072 
ARM GAS  /tmp/ccccEfOH.s 			page 73


 3821      6F677261 
 3821      6D427974 
 3821      6500
 3822              	.LASF99:
 3823 069e 65776D61 		.ascii	"ewmask\000"
 3823      736B00
 3824              	.LASF32:
 3825 06a5 705F6E65 		.ascii	"p_next\000"
 3825      787400
 3826              	.LASF22:
 3827 06ac 746D6F64 		.ascii	"tmode_t\000"
 3827      655F7400 
 3828              	.LASF117:
 3829 06b4 63665F6F 		.ascii	"cf_off_preempt\000"
 3829      66665F70 
 3829      7265656D 
 3829      707400
 3830              	.LASF41:
 3831 06c3 705F666C 		.ascii	"p_flags\000"
 3831      61677300 
 3832              	.LASF6:
 3833 06cb 73686F72 		.ascii	"short unsigned int\000"
 3833      7420756E 
 3833      7369676E 
 3833      65642069 
 3833      6E7400
 3834              	.LASF136:
 3835 06de 44495341 		.ascii	"DISABLE\000"
 3835      424C4500 
 3836              	.LASF194:
 3837 06e6 464C4153 		.ascii	"FLASH_Unlock\000"
 3837      485F556E 
 3837      6C6F636B 
 3837      00
 3838              	.LASF172:
 3839 06f3 50494461 		.ascii	"PIData\000"
 3839      746100
 3840              	.LASF110:
 3841 06fa 63665F6F 		.ascii	"cf_off_newer\000"
 3841      66665F6E 
 3841      65776572 
 3841      00
 3842              	.LASF48:
 3843 0707 705F6570 		.ascii	"p_epending\000"
 3843      656E6469 
 3843      6E6700
 3844              	.LASF151:
 3845 0712 69666372 		.ascii	"ifcr\000"
 3845      00
 3846              	.LASF145:
 3847 0717 464C4153 		.ascii	"FLASH_ERROR_PGA\000"
 3847      485F4552 
 3847      524F525F 
 3847      50474100 
 3848              	.LASF108:
 3849 0727 63665F6F 		.ascii	"cf_off_prio\000"
 3849      66665F70 
ARM GAS  /tmp/ccccEfOH.s 			page 74


 3849      72696F00 
 3850              	.LASF83:
 3851 0733 725F7175 		.ascii	"r_queue\000"
 3851      65756500 
 3852              	.LASF71:
 3853 073b 756E7573 		.ascii	"unused1\000"
 3853      65643100 
 3854              	.LASF10:
 3855 0743 6C6F6E67 		.ascii	"long unsigned int\000"
 3855      20756E73 
 3855      69676E65 
 3855      6420696E 
 3855      7400
 3856              	.LASF100:
 3857 0755 63686172 		.ascii	"char\000"
 3857      00
 3858              	.LASF144:
 3859 075a 464C4153 		.ascii	"FLASH_ERROR_PGP\000"
 3859      485F4552 
 3859      524F525F 
 3859      50475000 
 3860              	.LASF143:
 3861 076a 464C4153 		.ascii	"FLASH_ERROR_PGS\000"
 3861      485F4552 
 3861      524F525F 
 3861      50475300 
 3862              	.LASF201:
 3863 077a 57574447 		.ascii	"WWDG_SetPrescaler\000"
 3863      5F536574 
 3863      50726573 
 3863      63616C65 
 3863      7200
 3864              	.LASF5:
 3865 078c 5F5F7569 		.ascii	"__uint16_t\000"
 3865      6E743136 
 3865      5F7400
 3866              	.LASF29:
 3867 0797 73797374 		.ascii	"systime_t\000"
 3867      696D655F 
 3867      7400
 3868              	.LASF50:
 3869 07a1 705F7265 		.ascii	"p_realprio\000"
 3869      616C7072 
 3869      696F00
 3870              	.LASF74:
 3871 07ac 76746675 		.ascii	"vtfunc_t\000"
 3871      6E635F74 
 3871      00
 3872              	.LASF9:
 3873 07b5 5F5F7569 		.ascii	"__uint32_t\000"
 3873      6E743332 
 3873      5F7400
 3874              	.LASF138:
 3875 07c0 4E445452 		.ascii	"NDTR\000"
 3875      00
 3876              	.LASF189:
 3877 07c5 65726173 		.ascii	"erase_app\000"
ARM GAS  /tmp/ccccEfOH.s 			page 75


 3877      655F6170 
 3877      7000
 3878              	.LASF132:
 3879 07cf 6462675F 		.ascii	"dbg_lock_cnt\000"
 3879      6C6F636B 
 3879      5F636E74 
 3879      00
 3880              	.LASF141:
 3881 07dc 444D415F 		.ascii	"DMA_Stream_TypeDef\000"
 3881      53747265 
 3881      616D5F54 
 3881      79706544 
 3881      656600
 3882              	.LASF161:
 3883 07ef 6166726C 		.ascii	"afrl\000"
 3883      00
 3884              	.LASF56:
 3885 07f4 636F6E74 		.ascii	"context\000"
 3885      65787400 
 3886              	.LASF62:
 3887 07fc 53485052 		.ascii	"SHPR\000"
 3887      00
 3888              	.LASF47:
 3889 0801 705F6D73 		.ascii	"p_msg\000"
 3889      6700
 3890              	.LASF55:
 3891 0807 696E7463 		.ascii	"intctx\000"
 3891      747800
 3892              	.LASF140:
 3893 080e 4D314152 		.ascii	"M1AR\000"
 3893      00
 3894              	.LASF153:
 3895 0813 73656C66 		.ascii	"selfindex\000"
 3895      696E6465 
 3895      7800
 3896              	.LASF202:
 3897 081d 57574447 		.ascii	"WWDG_SetWindowValue\000"
 3897      5F536574 
 3897      57696E64 
 3897      6F775661 
 3897      6C756500 
 3898              	.LASF80:
 3899 0831 76745F70 		.ascii	"vt_par\000"
 3899      617200
 3900              	.LASF175:
 3901 0838 666C6173 		.ascii	"flash_addr\000"
 3901      685F6164 
 3901      647200
 3902              	.LASF19:
 3903 0843 75696E74 		.ascii	"uint32_t\000"
 3903      33325F74 
 3903      00
 3904              	.LASF109:
 3905 084c 63665F6F 		.ascii	"cf_off_ctx\000"
 3905      66665F63 
 3905      747800
 3906              	.LASF195:
ARM GAS  /tmp/ccccEfOH.s 			page 76


 3907 0857 464C4153 		.ascii	"FLASH_ClearFlag\000"
 3907      485F436C 
 3907      65617246 
 3907      6C616700 
 3908              	.LASF42:
 3909 0867 705F7265 		.ascii	"p_refs\000"
 3909      667300
 3910              	.LASF89:
 3911 086e 52656164 		.ascii	"ReadyList\000"
 3911      794C6973 
 3911      7400
 3912              	.LASF200:
 3913 0878 5243435F 		.ascii	"RCC_APB1PeriphClockCmd\000"
 3913      41504231 
 3913      50657269 
 3913      7068436C 
 3913      6F636B43 
 3914              	.LASF70:
 3915 088f 4D4D4652 		.ascii	"MMFR\000"
 3915      00
 3916              	.LASF91:
 3917 0894 726C6973 		.ascii	"rlist\000"
 3917      7400
 3918              	.LASF154:
 3919 089a 76656374 		.ascii	"vector\000"
 3919      6F7200
 3920              	.LASF15:
 3921 08a1 75696E74 		.ascii	"uint8_t\000"
 3921      385F7400 
 3922              	.LASF73:
 3923 08a9 434D785F 		.ascii	"CMx_SCB\000"
 3923      53434200 
 3924              	.LASF152:
 3925 08b1 69736869 		.ascii	"ishift\000"
 3925      667400
 3926              	.LASF98:
 3927 08b8 77746F62 		.ascii	"wtobjp\000"
 3927      6A7000
 3928              	.LASF38:
 3929 08bf 705F6E61 		.ascii	"p_name\000"
 3929      6D6500
 3930              	.LASF57:
 3931 08c6 494F5245 		.ascii	"IOREG32\000"
 3931      47333200 
 3932              	.LASF166:
 3933 08ce 50434461 		.ascii	"PCData\000"
 3933      746100
 3934              	.LASF146:
 3935 08d5 464C4153 		.ascii	"FLASH_ERROR_WRP\000"
 3935      485F4552 
 3935      524F525F 
 3935      57525000 
 3936              	.LASF104:
 3937 08e5 63685F76 		.ascii	"ch_version\000"
 3937      65727369 
 3937      6F6E00
 3938              	.LASF149:
ARM GAS  /tmp/ccccEfOH.s 			page 77


 3939 08f0 464C4153 		.ascii	"FLASH_COMPLETE\000"
 3939      485F434F 
 3939      4D504C45 
 3939      544500
 3940              	.LASF82:
 3941 08ff 56544C69 		.ascii	"VTList\000"
 3941      737400
 3942              	.LASF72:
 3943 0906 43504143 		.ascii	"CPACR\000"
 3943      5200
 3944              	.LASF208:
 3945 090c 6D61696E 		.ascii	"main\000"
 3945      00
 3946              	.LASF16:
 3947 0911 696E7431 		.ascii	"int16_t\000"
 3947      365F7400 
 3948              	.LASF173:
 3949 0919 50414C43 		.ascii	"PALConfig\000"
 3949      6F6E6669 
 3949      6700
 3950              	.LASF94:
 3951 0923 6D5F6F77 		.ascii	"m_owner\000"
 3951      6E657200 
 3952              	.LASF119:
 3953 092b 63686465 		.ascii	"chdebug_t\000"
 3953      6275675F 
 3953      7400
 3954              	.LASF174:
 3955 0935 70616C5F 		.ascii	"pal_default_config\000"
 3955      64656661 
 3955      756C745F 
 3955      636F6E66 
 3955      696700
 3956              	.LASF101:
 3957 0948 63685F69 		.ascii	"ch_identifier\000"
 3957      64656E74 
 3957      69666965 
 3957      7200
 3958              	.LASF79:
 3959 0956 76745F66 		.ascii	"vt_func\000"
 3959      756E6300 
 3960              		.ident	"GCC: (GNU Tools for Arm Embedded Processors 7-2018-q3-update) 7.3.1 20180622 (release) [AR
ARM GAS  /tmp/ccccEfOH.s 			page 78


DEFINED SYMBOLS
                            *ABS*:0000000000000000 main.c
     /tmp/ccccEfOH.s:18     .text.exit_bootloader:0000000000000000 $t
     /tmp/ccccEfOH.s:25     .text.exit_bootloader:0000000000000000 exit_bootloader
     /tmp/ccccEfOH.s:72     .text.blink_led:0000000000000000 $t
     /tmp/ccccEfOH.s:80     .text.blink_led:0000000000000000 blink_led
     /tmp/ccccEfOH.s:94     .text.sleep:0000000000000000 $t
     /tmp/ccccEfOH.s:102    .text.sleep:0000000000000000 sleep
     /tmp/ccccEfOH.s:153    .text.startup.main:0000000000000000 $t
     /tmp/ccccEfOH.s:161    .text.startup.main:0000000000000000 main
     /tmp/ccccEfOH.s:375    .text.startup.main:00000000000000c4 $d
     /tmp/ccccEfOH.s:389    .bss.new_app_addr:0000000000000000 $d
     /tmp/ccccEfOH.s:393    .bss.new_app_addr:0000000000000000 new_app_addr
     /tmp/ccccEfOH.s:396    .rodata.flash_addr:0000000000000000 $d
     /tmp/ccccEfOH.s:400    .rodata.flash_addr:0000000000000000 flash_addr
     /tmp/ccccEfOH.s:414    .rodata.flash_sector:0000000000000000 $d
     /tmp/ccccEfOH.s:418    .rodata.flash_sector:0000000000000000 flash_sector

UNDEFINED SYMBOLS
RCC_APB1PeriphClockCmd
WWDG_SetPrescaler
WWDG_SetWindowValue
WWDG_Enable
buffer_get_uint32
buffer_get_uint16
crc16
FLASH_Unlock
FLASH_ClearFlag
FLASH_EraseSector
FLASH_ProgramByte
