ARM GAS  /tmp/ccccEfOH.s 			page 1


   1              		.cpu cortex-m4
   2              		.eabi_attribute 27, 1
   3              		.eabi_attribute 28, 1
   4              		.eabi_attribute 20, 1
   5              		.eabi_attribute 21, 1
   6              		.eabi_attribute 23, 3
   7              		.eabi_attribute 24, 1
   8              		.eabi_attribute 25, 1
   9              		.eabi_attribute 26, 1
  10              		.eabi_attribute 30, 2
  11              		.eabi_attribute 34, 1
  12              		.eabi_attribute 18, 4
  13              		.file	"main.c"
  14              		.text
  15              	.Ltext0:
  16              		.cfi_sections	.debug_frame
  17              		.section	.text.exit_bootloader,"ax",%progbits
  18              		.align	1
  19              		.p2align 4,,15
  20              		.syntax unified
  21              		.thumb
  22              		.thumb_func
  23              		.fpu fpv4-sp-d16
  24              		.type	exit_bootloader, %function
  25              	exit_bootloader:
  26              	.LFB118:
  27              		.file 1 "main.c"
  28              		.loc 1 121 0
  29              		.cfi_startproc
  30              		@ Volatile: function does not return.
  31              		@ args = 0, pretend = 0, frame = 0
  32              		@ frame_needed = 0, uses_anonymous_args = 0
  33 0000 08B5     		push	{r3, lr}
  34              		.cfi_def_cfa_offset 8
  35              		.cfi_offset 3, -8
  36              		.cfi_offset 14, -4
  37              		.loc 1 123 0
  38 0002 0121     		movs	r1, #1
  39 0004 4FF40060 		mov	r0, #2048
  40 0008 FFF7FEFF 		bl	RCC_APB1PeriphClockCmd
  41              	.LVL0:
  42              		.loc 1 124 0
  43 000c 0020     		movs	r0, #0
  44 000e FFF7FEFF 		bl	WWDG_SetPrescaler
  45              	.LVL1:
  46              		.loc 1 125 0
  47 0012 FF20     		movs	r0, #255
  48 0014 FFF7FEFF 		bl	WWDG_SetWindowValue
  49              	.LVL2:
  50              		.loc 1 126 0
  51 0018 6420     		movs	r0, #100
  52 001a FFF7FEFF 		bl	WWDG_Enable
  53              	.LVL3:
  54              	.LBB28:
  55              	.LBB29:
  56              		.file 2 "ChibiOS_2.6.6/os/ports/common/ARMCMx/CMSIS/include/core_cmFunc.h"
  57              		.loc 2 328 0
ARM GAS  /tmp/ccccEfOH.s 			page 2


  58              		.syntax unified
  59              	@ 328 "ChibiOS_2.6.6/os/ports/common/ARMCMx/CMSIS/include/core_cmFunc.h" 1
  60 001e 72B6     		cpsid i
  61              	@ 0 "" 2
  62              		.thumb
  63              		.syntax unified
  64              	.L2:
  65 0020 FEE7     		b	.L2
  66              	.LBE29:
  67              	.LBE28:
  68              		.cfi_endproc
  69              	.LFE118:
  70              		.size	exit_bootloader, .-exit_bootloader
  71 0022 00BF     		.section	.text.blink_led,"ax",%progbits
  72              		.align	1
  73              		.p2align 4,,15
  74              		.global	blink_led
  75              		.syntax unified
  76              		.thumb
  77              		.thumb_func
  78              		.fpu fpv4-sp-d16
  79              		.type	blink_led, %function
  80              	blink_led:
  81              	.LFB122:
  82              		.loc 1 193 0
  83              		.cfi_startproc
  84              		@ args = 0, pretend = 0, frame = 0
  85              		@ frame_needed = 0, uses_anonymous_args = 0
  86              		@ link register save eliminated.
  87              	.LVL4:
  88              		.loc 1 214 0
  89 0000 7047     		bx	lr
  90              		.cfi_endproc
  91              	.LFE122:
  92              		.size	blink_led, .-blink_led
  93 0002 00BF     		.section	.text.sleep,"ax",%progbits
  94              		.align	1
  95              		.p2align 4,,15
  96              		.global	sleep
  97              		.syntax unified
  98              		.thumb
  99              		.thumb_func
 100              		.fpu fpv4-sp-d16
 101              		.type	sleep, %function
 102              	sleep:
 103              	.LFB123:
 104              		.loc 1 216 0
 105              		.cfi_startproc
 106              		@ args = 0, pretend = 0, frame = 8
 107              		@ frame_needed = 0, uses_anonymous_args = 0
 108              		@ link register save eliminated.
 109              	.LVL5:
 110 0000 82B0     		sub	sp, sp, #8
 111              		.cfi_def_cfa_offset 8
 112              	.LBB30:
 113              		.loc 1 217 0
 114 0002 0023     		movs	r3, #0
ARM GAS  /tmp/ccccEfOH.s 			page 3


 115 0004 0193     		str	r3, [sp, #4]
 116 0006 019A     		ldr	r2, [sp, #4]
 117 0008 42F21073 		movw	r3, #10000
 118 000c 03FB00F0 		mul	r0, r3, r0
 119              	.LVL6:
 120 0010 9042     		cmp	r0, r2
 121 0012 06DD     		ble	.L6
 122              	.L8:
 123              	.LBB31:
 124              	.LBB32:
 125              		.file 3 "ChibiOS_2.6.6/os/ports/common/ARMCMx/CMSIS/include/core_cmInstr.h"
 126              		.loc 3 288 0
 127              		.syntax unified
 128              	@ 288 "ChibiOS_2.6.6/os/ports/common/ARMCMx/CMSIS/include/core_cmInstr.h" 1
 129 0014 00BF     		nop
 130              	@ 0 "" 2
 131              		.thumb
 132              		.syntax unified
 133              	.LBE32:
 134              	.LBE31:
 135              		.loc 1 217 0
 136 0016 019B     		ldr	r3, [sp, #4]
 137 0018 0133     		adds	r3, r3, #1
 138 001a 0193     		str	r3, [sp, #4]
 139 001c 019B     		ldr	r3, [sp, #4]
 140 001e 8342     		cmp	r3, r0
 141 0020 F8DB     		blt	.L8
 142              	.L6:
 143              	.LBE30:
 144              		.loc 1 222 0
 145 0022 02B0     		add	sp, sp, #8
 146              		.cfi_def_cfa_offset 0
 147              		@ sp needed
 148 0024 7047     		bx	lr
 149              		.cfi_endproc
 150              	.LFE123:
 151              		.size	sleep, .-sleep
 152 0026 00BF     		.section	.text.startup.main,"ax",%progbits
 153              		.align	1
 154              		.p2align 4,,15
 155              		.global	main
 156              		.syntax unified
 157              		.thumb
 158              		.thumb_func
 159              		.fpu fpv4-sp-d16
 160              		.type	main, %function
 161              	main:
 162              	.LFB124:
 163              		.loc 1 224 0
 164              		.cfi_startproc
 165              		@ args = 0, pretend = 0, frame = 8
 166              		@ frame_needed = 0, uses_anonymous_args = 0
 167 0000 2DE9F04F 		push	{r4, r5, r6, r7, r8, r9, r10, fp, lr}
 168              		.cfi_def_cfa_offset 36
 169              		.cfi_offset 4, -36
 170              		.cfi_offset 5, -32
 171              		.cfi_offset 6, -28
ARM GAS  /tmp/ccccEfOH.s 			page 4


 172              		.cfi_offset 7, -24
 173              		.cfi_offset 8, -20
 174              		.cfi_offset 9, -16
 175              		.cfi_offset 10, -12
 176              		.cfi_offset 11, -8
 177              		.cfi_offset 14, -4
 178              		.loc 1 232 0
 179 0004 2F4B     		ldr	r3, .L26
 180              		.loc 1 229 0
 181 0006 304A     		ldr	r2, .L26+4
 182              		.loc 1 232 0
 183 0008 304E     		ldr	r6, .L26+8
 184              		.loc 1 229 0
 185 000a 3149     		ldr	r1, .L26+12
 186              	.LBB49:
 187              	.LBB50:
 188              	.LBB51:
 189              	.LBB52:
 190              		.loc 1 176 0
 191 000c DFF8CC90 		ldr	r9, .L26+24
 192              	.LBE52:
 193              	.LBE51:
 194              	.LBE50:
 195              	.LBE49:
 196              		.loc 1 229 0
 197 0010 9160     		str	r1, [r2, #8]
 198              		.loc 1 224 0
 199 0012 83B0     		sub	sp, sp, #12
 200              		.cfi_def_cfa_offset 48
 201              		.loc 1 232 0
 202 0014 1846     		mov	r0, r3
 203 0016 3360     		str	r3, [r6]
 204              	.LVL7:
 205 0018 0527     		movs	r7, #5
 206              	.LVL8:
 207              	.L21:
 208              	.LBB64:
 209              	.LBB63:
 210              	.LBB62:
 211              	.LBB61:
 212              		.loc 1 168 0
 213 001a 0023     		movs	r3, #0
 214              		.loc 1 169 0
 215 001c 01A9     		add	r1, sp, #4
 216              		.loc 1 168 0
 217 001e 0193     		str	r3, [sp, #4]
 218              		.loc 1 169 0
 219 0020 FFF7FEFF 		bl	buffer_get_uint32
 220              	.LVL9:
 221              		.loc 1 170 0
 222 0024 01A9     		add	r1, sp, #4
 223              		.loc 1 169 0
 224 0026 0546     		mov	r5, r0
 225              	.LVL10:
 226              		.loc 1 170 0
 227 0028 3068     		ldr	r0, [r6]
 228              	.LVL11:
ARM GAS  /tmp/ccccEfOH.s 			page 5


 229 002a FFF7FEFF 		bl	buffer_get_uint16
 230              	.LVL12:
 231              		.loc 1 176 0
 232 002e 6B1E     		subs	r3, r5, #1
 233 0030 4B45     		cmp	r3, r9
 234              		.loc 1 170 0
 235 0032 0446     		mov	r4, r0
 236              	.LVL13:
 237              		.loc 1 176 0
 238 0034 33D8     		bhi	.L18
 239              		.loc 1 180 0
 240 0036 3068     		ldr	r0, [r6]
 241 0038 019B     		ldr	r3, [sp, #4]
 242 003a 2946     		mov	r1, r5
 243 003c 1844     		add	r0, r0, r3
 244 003e FFF7FEFF 		bl	crc16
 245              	.LVL14:
 246              		.loc 1 181 0
 247 0042 8442     		cmp	r4, r0
 248 0044 2BD1     		bne	.L18
 249              	.LVL15:
 250              	.LBB53:
 251              	.LBB54:
 252              		.loc 1 133 0
 253 0046 FFF7FEFF 		bl	FLASH_Unlock
 254              	.LVL16:
 255              		.loc 1 134 0
 256 004a F220     		movs	r0, #242
 257 004c 214C     		ldr	r4, .L26+16
 258              	.LVL17:
 259 004e DFF89080 		ldr	r8, .L26+28
 260 0052 FFF7FEFF 		bl	FLASH_ClearFlag
 261              	.LVL18:
 262 0056 04F1180A 		add	r10, r4, #24
 263              		.loc 1 137 0
 264 005a 05F1006B 		add	fp, r5, #134217728
 265              	.LVL19:
 266              	.L16:
 267              	.LBB55:
 268              	.LBB56:
 269              		.loc 1 141 0
 270 005e 0221     		movs	r1, #2
 271 0060 38F8020F 		ldrh	r0, [r8, #2]!
 272 0064 FFF7FEFF 		bl	FLASH_EraseSector
 273              	.LVL20:
 274              		.loc 1 142 0
 275 0068 0828     		cmp	r0, #8
 276 006a 1AD1     		bne	.L14
 277              	.LVL21:
 278              	.LBE56:
 279              		.loc 1 139 0
 280 006c A245     		cmp	r10, r4
 281 006e 03D0     		beq	.L15
 282 0070 54F8042B 		ldr	r2, [r4], #4
 283              		.loc 1 140 0
 284 0074 5A45     		cmp	r2, fp
 285 0076 F2D3     		bcc	.L16
ARM GAS  /tmp/ccccEfOH.s 			page 6


 286              	.L15:
 287              	.LVL22:
 288              	.LBE55:
 289              	.LBE54:
 290              	.LBE53:
 291              		.loc 1 190 0
 292 0078 3468     		ldr	r4, [r6]
 293 007a 019B     		ldr	r3, [sp, #4]
 294              	.LVL23:
 295              	.LBB57:
 296              	.LBB58:
 297              		.loc 1 154 0
 298 007c F220     		movs	r0, #242
 299 007e 1C44     		add	r4, r4, r3
 300              	.LVL24:
 301 0080 2544     		add	r5, r5, r4
 302              	.LVL25:
 303 0082 C4F1006A 		rsb	r10, r4, #134217728
 304 0086 FFF7FEFF 		bl	FLASH_ClearFlag
 305              	.LVL26:
 306              	.L17:
 307 008a 0AEB0400 		add	r0, r10, r4
 308              	.LBB59:
 309              	.LBB60:
 310              		.loc 1 158 0
 311 008e 14F8011B 		ldrb	r1, [r4], #1	@ zero_extendqisi2
 312 0092 FFF7FEFF 		bl	FLASH_ProgramByte
 313              	.LVL27:
 314              		.loc 1 159 0
 315 0096 0828     		cmp	r0, #8
 316 0098 03D1     		bne	.L14
 317              	.LBE60:
 318              		.loc 1 157 0
 319 009a A542     		cmp	r5, r4
 320 009c F5D1     		bne	.L17
 321              	.LVL28:
 322              	.L18:
 323              	.LBE59:
 324              	.LBE58:
 325              	.LBE57:
 326              	.LBE61:
 327              	.LBE62:
 328              	.LBE63:
 329              	.LBE64:
 330              		.loc 1 272 0
 331 009e FFF7FEFF 		bl	exit_bootloader
 332              	.LVL29:
 333              	.L14:
 334              	.LBB65:
 335              		.loc 1 248 0
 336 00a2 013F     		subs	r7, r7, #1
 337              	.LVL30:
 338 00a4 01D0     		beq	.L20
 339 00a6 3068     		ldr	r0, [r6]
 340 00a8 B7E7     		b	.L21
 341              	.L20:
 342              	.LVL31:
ARM GAS  /tmp/ccccEfOH.s 			page 7


 343              	.LBE65:
 344              	.LBB66:
 345              	.LBB67:
 346              		.loc 1 217 0
 347 00aa 0197     		str	r7, [sp, #4]
 348 00ac 019B     		ldr	r3, [sp, #4]
 349 00ae 0A4A     		ldr	r2, .L26+20
 350 00b0 9342     		cmp	r3, r2
 351 00b2 F4DC     		bgt	.L18
 352              	.L19:
 353              	.LBB68:
 354              	.LBB69:
 355              		.loc 3 288 0
 356              		.syntax unified
 357              	@ 288 "ChibiOS_2.6.6/os/ports/common/ARMCMx/CMSIS/include/core_cmInstr.h" 1
 358 00b4 00BF     		nop
 359              	@ 0 "" 2
 360              		.thumb
 361              		.syntax unified
 362              	.LBE69:
 363              	.LBE68:
 364              		.loc 1 217 0
 365 00b6 019B     		ldr	r3, [sp, #4]
 366 00b8 0133     		adds	r3, r3, #1
 367 00ba 0193     		str	r3, [sp, #4]
 368 00bc 019B     		ldr	r3, [sp, #4]
 369 00be 9342     		cmp	r3, r2
 370 00c0 F8DD     		ble	.L19
 371 00c2 ECE7     		b	.L18
 372              	.L27:
 373              		.align	2
 374              	.L26:
 375 00c4 00000808 		.word	134742016
 376 00c8 00ED00E0 		.word	-536810240
 377 00cc 00000000 		.word	.LANCHOR0
 378 00d0 00000E08 		.word	135135232
 379 00d4 04000000 		.word	.LANCHOR1+4
 380 00d8 FF2C3101 		.word	19999999
 381 00dc FFFF0500 		.word	393215
 382 00e0 FEFFFFFF 		.word	.LANCHOR2-2
 383              	.LBE67:
 384              	.LBE66:
 385              		.cfi_endproc
 386              	.LFE124:
 387              		.size	main, .-main
 388              		.section	.bss.new_app_addr,"aw",%nobits
 389              		.align	2
 390              		.set	.LANCHOR0,. + 0
 391              		.type	new_app_addr, %object
 392              		.size	new_app_addr, 4
 393              	new_app_addr:
 394 0000 00000000 		.space	4
 395              		.section	.rodata.flash_addr,"a",%progbits
 396              		.align	2
 397              		.set	.LANCHOR1,. + 0
 398              		.type	flash_addr, %object
 399              		.size	flash_addr, 48
ARM GAS  /tmp/ccccEfOH.s 			page 8


 400              	flash_addr:
 401 0000 00000008 		.word	134217728
 402 0004 00400008 		.word	134234112
 403 0008 00800008 		.word	134250496
 404 000c 00C00008 		.word	134266880
 405 0010 00000108 		.word	134283264
 406 0014 00000208 		.word	134348800
 407 0018 00000408 		.word	134479872
 408 001c 00000608 		.word	134610944
 409 0020 00000808 		.word	134742016
 410 0024 00000A08 		.word	134873088
 411 0028 00000C08 		.word	135004160
 412 002c 00000E08 		.word	135135232
 413              		.section	.rodata.flash_sector,"a",%progbits
 414              		.align	2
 415              		.set	.LANCHOR2,. + 0
 416              		.type	flash_sector, %object
 417              		.size	flash_sector, 24
 418              	flash_sector:
 419 0000 0000     		.short	0
 420 0002 0800     		.short	8
 421 0004 1000     		.short	16
 422 0006 1800     		.short	24
 423 0008 2000     		.short	32
 424 000a 2800     		.short	40
 425 000c 3000     		.short	48
 426 000e 3800     		.short	56
 427 0010 4000     		.short	64
 428 0012 4800     		.short	72
 429 0014 5000     		.short	80
 430 0016 5800     		.short	88
 431              		.text
 432              	.Letext0:
 433              		.file 4 "/usr/arm-none-eabi/include/machine/_default_types.h"
 434              		.file 5 "/usr/arm-none-eabi/include/sys/_stdint.h"
 435              		.file 6 "ChibiOS_2.6.6/os/ports/GCC/ARMCMx/chtypes.h"
 436              		.file 7 "ChibiOS_2.6.6/os/kernel/include/chlists.h"
 437              		.file 8 "ChibiOS_2.6.6/os/kernel/include/chthreads.h"
 438              		.file 9 "ChibiOS_2.6.6/os/ports/GCC/ARMCMx/chcore_v7m.h"
 439              		.file 10 "ChibiOS_2.6.6/os/ports/common/ARMCMx/nvic.h"
 440              		.file 11 "ChibiOS_2.6.6/os/kernel/include/chvt.h"
 441              		.file 12 "ChibiOS_2.6.6/os/kernel/include/chschd.h"
 442              		.file 13 "ChibiOS_2.6.6/os/kernel/include/chmtx.h"
 443              		.file 14 "ChibiOS_2.6.6/os/kernel/include/chregistry.h"
 444              		.file 15 "ChibiOS_2.6.6/os/kernel/include/chdebug.h"
 445              		.file 16 "ChibiOS_2.6.6/os/kernel/include/ch.h"
 446              		.file 17 "ChibiOS_2.6.6/os/ports/common/ARMCMx/CMSIS/include/core_cm4.h"
 447              		.file 18 "ChibiOS_2.6.6/os/hal/platforms/STM32F4xx/stm32f4xx.h"
 448              		.file 19 "ChibiOS_2.6.6/ext/stdperiph_stm32f4/inc/stm32f4xx_flash.h"
 449              		.file 20 "ChibiOS_2.6.6/os/hal/platforms/STM32F4xx/stm32_dma.h"
 450              		.file 21 "ChibiOS_2.6.6/os/hal/platforms/STM32/GPIOv2/pal_lld.h"
 451              		.file 22 "buffer.h"
 452              		.file 23 "crc.h"
 453              		.file 24 "ChibiOS_2.6.6/ext/stdperiph_stm32f4/inc/stm32f4xx_rcc.h"
 454              		.file 25 "ChibiOS_2.6.6/ext/stdperiph_stm32f4/inc/stm32f4xx_wwdg.h"