ARM GAS  /tmp/cc2UVdBR.s 			page 1


   1              		.cpu cortex-m4
   2              		.eabi_attribute 27, 1
   3              		.eabi_attribute 28, 1
   4              		.eabi_attribute 20, 1
   5              		.eabi_attribute 21, 1
   6              		.eabi_attribute 23, 3
   7              		.eabi_attribute 24, 1
   8              		.eabi_attribute 25, 1
   9              		.eabi_attribute 26, 1
  10              		.eabi_attribute 30, 2
  11              		.eabi_attribute 34, 1
  12              		.eabi_attribute 18, 4
  13              		.file	"nvic.c"
  14              		.text
  15              	.Ltext0:
  16              		.cfi_sections	.debug_frame
  17              		.section	.text.nvicEnableVector,"ax",%progbits
  18              		.align	1
  19              		.p2align 4,,15
  20              		.global	nvicEnableVector
  21              		.syntax unified
  22              		.thumb
  23              		.thumb_func
  24              		.fpu fpv4-sp-d16
  25              		.type	nvicEnableVector, %function
  26              	nvicEnableVector:
  27              	.LFB7:
  28              		.file 1 "ChibiOS_2.6.6/os/ports/common/ARMCMx/nvic.c"
  29              		.loc 1 46 0
  30              		.cfi_startproc
  31              		@ args = 0, pretend = 0, frame = 0
  32              		@ frame_needed = 0, uses_anonymous_args = 0
  33              		@ link register save eliminated.
  34              	.LVL0:
  35 0000 20F00302 		bic	r2, r0, #3
  36 0004 02F16042 		add	r2, r2, #-536870912
  37 0008 02F56142 		add	r2, r2, #57600
  38 000c 70B4     		push	{r4, r5, r6}
  39              		.cfi_def_cfa_offset 12
  40              		.cfi_offset 4, -12
  41              		.cfi_offset 5, -8
  42              		.cfi_offset 6, -4
  43              		.loc 1 50 0
  44 000e 4309     		lsrs	r3, r0, #5
  45              		.loc 1 47 0
  46 0010 C400     		lsls	r4, r0, #3
  47              		.loc 1 49 0
  48 0012 D2F80053 		ldr	r5, [r2, #768]
  49              		.loc 1 47 0
  50 0016 04F01804 		and	r4, r4, #24
  51              	.LVL1:
  52              		.loc 1 49 0
  53 001a FF26     		movs	r6, #255
  54 001c 9B00     		lsls	r3, r3, #2
  55 001e A640     		lsls	r6, r6, r4
  56 0020 03F16043 		add	r3, r3, #-536870912
  57 0024 A140     		lsls	r1, r1, r4
ARM GAS  /tmp/cc2UVdBR.s 			page 2


  58              	.LVL2:
  59 0026 25EA0605 		bic	r5, r5, r6
  60 002a 03F56143 		add	r3, r3, #57600
  61              		.loc 1 50 0
  62 002e 0124     		movs	r4, #1
  63              	.LVL3:
  64 0030 00F01F00 		and	r0, r0, #31
  65              	.LVL4:
  66 0034 04FA00F0 		lsl	r0, r4, r0
  67              		.loc 1 49 0
  68 0038 2943     		orrs	r1, r1, r5
  69 003a C2F80013 		str	r1, [r2, #768]
  70              		.loc 1 52 0
  71 003e 70BC     		pop	{r4, r5, r6}
  72              		.cfi_restore 6
  73              		.cfi_restore 5
  74              		.cfi_restore 4
  75              		.cfi_def_cfa_offset 0
  76              		.loc 1 50 0
  77 0040 C3F88001 		str	r0, [r3, #384]
  78              		.loc 1 51 0
  79 0044 1860     		str	r0, [r3]
  80              		.loc 1 52 0
  81 0046 7047     		bx	lr
  82              		.cfi_endproc
  83              	.LFE7:
  84              		.size	nvicEnableVector, .-nvicEnableVector
  85              		.section	.text.nvicDisableVector,"ax",%progbits
  86              		.align	1
  87              		.p2align 4,,15
  88              		.global	nvicDisableVector
  89              		.syntax unified
  90              		.thumb
  91              		.thumb_func
  92              		.fpu fpv4-sp-d16
  93              		.type	nvicDisableVector, %function
  94              	nvicDisableVector:
  95              	.LFB8:
  96              		.loc 1 60 0
  97              		.cfi_startproc
  98              		@ args = 0, pretend = 0, frame = 0
  99              		@ frame_needed = 0, uses_anonymous_args = 0
 100              		@ link register save eliminated.
 101              	.LVL5:
 102              		.loc 1 63 0
 103 0000 4209     		lsrs	r2, r0, #5
 104              		.loc 1 60 0
 105 0002 30B4     		push	{r4, r5}
 106              		.cfi_def_cfa_offset 8
 107              		.cfi_offset 4, -8
 108              		.cfi_offset 5, -4
 109              		.loc 1 63 0
 110 0004 2032     		adds	r2, r2, #32
 111 0006 00F01F05 		and	r5, r0, #31
 112 000a 0C4C     		ldr	r4, .L6
 113 000c 20F00303 		bic	r3, r0, #3
 114 0010 0121     		movs	r1, #1
ARM GAS  /tmp/cc2UVdBR.s 			page 3


 115 0012 A940     		lsls	r1, r1, r5
 116 0014 03F16043 		add	r3, r3, #-536870912
 117 0018 44F82210 		str	r1, [r4, r2, lsl #2]
 118 001c 03F56143 		add	r3, r3, #57600
 119              		.loc 1 61 0
 120 0020 C000     		lsls	r0, r0, #3
 121              	.LVL6:
 122              		.loc 1 64 0
 123 0022 D3F80023 		ldr	r2, [r3, #768]
 124              		.loc 1 61 0
 125 0026 00F01800 		and	r0, r0, #24
 126              	.LVL7:
 127              		.loc 1 64 0
 128 002a FF21     		movs	r1, #255
 129 002c 01FA00F0 		lsl	r0, r1, r0
 130              	.LVL8:
 131 0030 22EA0000 		bic	r0, r2, r0
 132 0034 C3F80003 		str	r0, [r3, #768]
 133              		.loc 1 65 0
 134 0038 30BC     		pop	{r4, r5}
 135              		.cfi_restore 5
 136              		.cfi_restore 4
 137              		.cfi_def_cfa_offset 0
 138 003a 7047     		bx	lr
 139              	.L7:
 140              		.align	2
 141              	.L6:
 142 003c 00E100E0 		.word	-536813312
 143              		.cfi_endproc
 144              	.LFE8:
 145              		.size	nvicDisableVector, .-nvicDisableVector
 146              		.section	.text.nvicSetSystemHandlerPriority,"ax",%progbits
 147              		.align	1
 148              		.p2align 4,,15
 149              		.global	nvicSetSystemHandlerPriority
 150              		.syntax unified
 151              		.thumb
 152              		.thumb_func
 153              		.fpu fpv4-sp-d16
 154              		.type	nvicSetSystemHandlerPriority, %function
 155              	nvicSetSystemHandlerPriority:
 156              	.LFB9:
 157              		.loc 1 74 0
 158              		.cfi_startproc
 159              		@ args = 0, pretend = 0, frame = 0
 160              		@ frame_needed = 0, uses_anonymous_args = 0
 161              		@ link register save eliminated.
 162              	.LVL9:
 163 0000 20F00303 		bic	r3, r0, #3
 164 0004 03F16043 		add	r3, r3, #-536870912
 165 0008 03F56D43 		add	r3, r3, #60672
 166              		.loc 1 75 0
 167 000c 00F00300 		and	r0, r0, #3
 168              	.LVL10:
 169              		.loc 1 74 0
 170 0010 10B4     		push	{r4}
 171              		.cfi_def_cfa_offset 4
ARM GAS  /tmp/cc2UVdBR.s 			page 4


 172              		.cfi_offset 4, -4
 173              		.loc 1 75 0
 174 0012 C000     		lsls	r0, r0, #3
 175              	.LVL11:
 176              		.loc 1 77 0
 177 0014 9A69     		ldr	r2, [r3, #24]
 178              		.loc 1 78 0
 179 0016 FF24     		movs	r4, #255
 180 0018 8440     		lsls	r4, r4, r0
 181 001a 8140     		lsls	r1, r1, r0
 182              	.LVL12:
 183              		.loc 1 77 0
 184 001c 22EA0400 		bic	r0, r2, r4
 185              	.LVL13:
 186              		.loc 1 78 0
 187 0020 0843     		orrs	r0, r0, r1
 188              		.loc 1 77 0
 189 0022 9861     		str	r0, [r3, #24]
 190              		.loc 1 79 0
 191 0024 5DF8044B 		ldr	r4, [sp], #4
 192              		.cfi_restore 4
 193              		.cfi_def_cfa_offset 0
 194 0028 7047     		bx	lr
 195              		.cfi_endproc
 196              	.LFE9:
 197              		.size	nvicSetSystemHandlerPriority, .-nvicSetSystemHandlerPriority
 198 002a 00BF     		.text
 199              	.Letext0:
 200              		.file 2 "/usr/arm-none-eabi/include/machine/_default_types.h"
 201              		.file 3 "/usr/arm-none-eabi/include/sys/_stdint.h"
 202              		.file 4 "ChibiOS_2.6.6/os/ports/GCC/ARMCMx/chtypes.h"
 203              		.file 5 "ChibiOS_2.6.6/os/kernel/include/chlists.h"
 204              		.file 6 "ChibiOS_2.6.6/os/kernel/include/chthreads.h"
 205              		.file 7 "ChibiOS_2.6.6/os/ports/GCC/ARMCMx/chcore_v7m.h"
 206              		.file 8 "ChibiOS_2.6.6/os/ports/common/ARMCMx/nvic.h"
 207              		.file 9 "ChibiOS_2.6.6/os/kernel/include/chvt.h"
 208              		.file 10 "ChibiOS_2.6.6/os/kernel/include/chschd.h"
 209              		.file 11 "ChibiOS_2.6.6/os/kernel/include/chmtx.h"
 210              		.file 12 "ChibiOS_2.6.6/os/kernel/include/chregistry.h"
 211              		.file 13 "ChibiOS_2.6.6/os/kernel/include/chdebug.h"
 212              		.file 14 "ChibiOS_2.6.6/os/kernel/include/ch.h"
 213              		.section	.debug_info,"",%progbits
 214              	.Ldebug_info0:
 215 0000 200B0000 		.4byte	0xb20
 216 0004 0400     		.2byte	0x4
 217 0006 00000000 		.4byte	.Ldebug_abbrev0
 218 000a 04       		.byte	0x4
 219 000b 01       		.uleb128 0x1
 220 000c 70000000 		.4byte	.LASF149
 221 0010 0C       		.byte	0xc
 222 0011 53030000 		.4byte	.LASF150
 223 0015 9E030000 		.4byte	.LASF151
 224 0019 00000000 		.4byte	.Ldebug_ranges0+0
 225 001d 00000000 		.4byte	0
 226 0021 00000000 		.4byte	.Ldebug_line0
 227 0025 02       		.uleb128 0x2
 228 0026 04       		.byte	0x4
ARM GAS  /tmp/cc2UVdBR.s 			page 5


 229 0027 05       		.byte	0x5
 230 0028 696E7400 		.ascii	"int\000"
 231 002c 03       		.uleb128 0x3
 232 002d 04       		.byte	0x4
 233 002e 07       		.byte	0x7
 234 002f BD020000 		.4byte	.LASF0
 235 0033 03       		.uleb128 0x3
 236 0034 01       		.byte	0x1
 237 0035 06       		.byte	0x6
 238 0036 F5010000 		.4byte	.LASF1
 239 003a 04       		.uleb128 0x4
 240 003b 49000000 		.4byte	.LASF4
 241 003f 02       		.byte	0x2
 242 0040 2B       		.byte	0x2b
 243 0041 45000000 		.4byte	0x45
 244 0045 03       		.uleb128 0x3
 245 0046 01       		.byte	0x1
 246 0047 08       		.byte	0x8
 247 0048 09050000 		.4byte	.LASF2
 248 004c 03       		.uleb128 0x3
 249 004d 02       		.byte	0x2
 250 004e 05       		.byte	0x5
 251 004f 35050000 		.4byte	.LASF3
 252 0053 04       		.uleb128 0x4
 253 0054 07060000 		.4byte	.LASF5
 254 0058 02       		.byte	0x2
 255 0059 39       		.byte	0x39
 256 005a 5E000000 		.4byte	0x5e
 257 005e 03       		.uleb128 0x3
 258 005f 02       		.byte	0x2
 259 0060 07       		.byte	0x7
 260 0061 3B030000 		.4byte	.LASF6
 261 0065 04       		.uleb128 0x4
 262 0066 33060000 		.4byte	.LASF7
 263 006a 02       		.byte	0x2
 264 006b 4D       		.byte	0x4d
 265 006c 70000000 		.4byte	0x70
 266 0070 03       		.uleb128 0x3
 267 0071 04       		.byte	0x4
 268 0072 05       		.byte	0x5
 269 0073 38020000 		.4byte	.LASF8
 270 0077 04       		.uleb128 0x4
 271 0078 88020000 		.4byte	.LASF9
 272 007c 02       		.byte	0x2
 273 007d 4F       		.byte	0x4f
 274 007e 82000000 		.4byte	0x82
 275 0082 03       		.uleb128 0x3
 276 0083 04       		.byte	0x4
 277 0084 07       		.byte	0x7
 278 0085 F1020000 		.4byte	.LASF10
 279 0089 03       		.uleb128 0x3
 280 008a 08       		.byte	0x8
 281 008b 05       		.byte	0x5
 282 008c E7010000 		.4byte	.LASF11
 283 0090 04       		.uleb128 0x4
 284 0091 AD040000 		.4byte	.LASF12
 285 0095 02       		.byte	0x2
ARM GAS  /tmp/cc2UVdBR.s 			page 6


 286 0096 69       		.byte	0x69
 287 0097 9B000000 		.4byte	0x9b
 288 009b 03       		.uleb128 0x3
 289 009c 08       		.byte	0x8
 290 009d 07       		.byte	0x7
 291 009e 94010000 		.4byte	.LASF13
 292 00a2 04       		.uleb128 0x4
 293 00a3 9F060000 		.4byte	.LASF14
 294 00a7 03       		.byte	0x3
 295 00a8 18       		.byte	0x18
 296 00a9 3A000000 		.4byte	0x3a
 297 00ad 04       		.uleb128 0x4
 298 00ae 4A020000 		.4byte	.LASF15
 299 00b2 03       		.byte	0x3
 300 00b3 24       		.byte	0x24
 301 00b4 53000000 		.4byte	0x53
 302 00b8 04       		.uleb128 0x4
 303 00b9 01050000 		.4byte	.LASF16
 304 00bd 03       		.byte	0x3
 305 00be 2C       		.byte	0x2c
 306 00bf 65000000 		.4byte	0x65
 307 00c3 04       		.uleb128 0x4
 308 00c4 C5050000 		.4byte	.LASF17
 309 00c8 03       		.byte	0x3
 310 00c9 30       		.byte	0x30
 311 00ca 77000000 		.4byte	0x77
 312 00ce 05       		.uleb128 0x5
 313 00cf C3000000 		.4byte	0xc3
 314 00d3 04       		.uleb128 0x4
 315 00d4 40000000 		.4byte	.LASF18
 316 00d8 03       		.byte	0x3
 317 00d9 3C       		.byte	0x3c
 318 00da 90000000 		.4byte	0x90
 319 00de 03       		.uleb128 0x3
 320 00df 01       		.byte	0x1
 321 00e0 02       		.byte	0x2
 322 00e1 FB040000 		.4byte	.LASF19
 323 00e5 04       		.uleb128 0x4
 324 00e6 BF030000 		.4byte	.LASF20
 325 00ea 04       		.byte	0x4
 326 00eb 2C       		.byte	0x2c
 327 00ec A2000000 		.4byte	0xa2
 328 00f0 04       		.uleb128 0x4
 329 00f1 41020000 		.4byte	.LASF21
 330 00f5 04       		.byte	0x4
 331 00f6 2D       		.byte	0x2d
 332 00f7 A2000000 		.4byte	0xa2
 333 00fb 04       		.uleb128 0x4
 334 00fc CF040000 		.4byte	.LASF22
 335 0100 04       		.byte	0x4
 336 0101 2E       		.byte	0x2e
 337 0102 A2000000 		.4byte	0xa2
 338 0106 04       		.uleb128 0x4
 339 0107 2E020000 		.4byte	.LASF23
 340 010b 04       		.byte	0x4
 341 010c 2F       		.byte	0x2f
 342 010d A2000000 		.4byte	0xa2
ARM GAS  /tmp/cc2UVdBR.s 			page 7


 343 0111 04       		.uleb128 0x4
 344 0112 F3040000 		.4byte	.LASF24
 345 0116 04       		.byte	0x4
 346 0117 30       		.byte	0x30
 347 0118 C3000000 		.4byte	0xc3
 348 011c 04       		.uleb128 0x4
 349 011d 7F030000 		.4byte	.LASF25
 350 0121 04       		.byte	0x4
 351 0122 31       		.byte	0x31
 352 0123 B8000000 		.4byte	0xb8
 353 0127 04       		.uleb128 0x4
 354 0128 DF030000 		.4byte	.LASF26
 355 012c 04       		.byte	0x4
 356 012d 33       		.byte	0x33
 357 012e C3000000 		.4byte	0xc3
 358 0132 04       		.uleb128 0x4
 359 0133 1E060000 		.4byte	.LASF27
 360 0137 04       		.byte	0x4
 361 0138 35       		.byte	0x35
 362 0139 C3000000 		.4byte	0xc3
 363 013d 05       		.uleb128 0x5
 364 013e 32010000 		.4byte	0x132
 365 0142 04       		.uleb128 0x4
 366 0143 AC020000 		.4byte	.LASF28
 367 0147 04       		.byte	0x4
 368 0148 36       		.byte	0x36
 369 0149 B8000000 		.4byte	0xb8
 370 014d 04       		.uleb128 0x4
 371 014e A6050000 		.4byte	.LASF29
 372 0152 05       		.byte	0x5
 373 0153 2A       		.byte	0x2a
 374 0154 58010000 		.4byte	0x158
 375 0158 06       		.uleb128 0x6
 376 0159 A6050000 		.4byte	.LASF29
 377 015d 4C       		.byte	0x4c
 378 015e 06       		.byte	0x6
 379 015f 5E       		.byte	0x5e
 380 0160 61020000 		.4byte	0x261
 381 0164 07       		.uleb128 0x7
 382 0165 88050000 		.4byte	.LASF30
 383 0169 06       		.byte	0x6
 384 016a 5F       		.byte	0x5f
 385 016b 82020000 		.4byte	0x282
 386 016f 00       		.byte	0
 387 0170 07       		.uleb128 0x7
 388 0171 EC040000 		.4byte	.LASF31
 389 0175 06       		.byte	0x6
 390 0176 61       		.byte	0x61
 391 0177 82020000 		.4byte	0x282
 392 017b 04       		.byte	0x4
 393 017c 07       		.uleb128 0x7
 394 017d C2010000 		.4byte	.LASF32
 395 0181 06       		.byte	0x6
 396 0182 63       		.byte	0x63
 397 0183 11010000 		.4byte	0x111
 398 0187 08       		.byte	0x8
 399 0188 07       		.uleb128 0x7
ARM GAS  /tmp/cc2UVdBR.s 			page 8


 400 0189 E9060000 		.4byte	.LASF33
 401 018d 06       		.byte	0x6
 402 018e 64       		.byte	0x64
 403 018f 18040000 		.4byte	0x418
 404 0193 0C       		.byte	0xc
 405 0194 07       		.uleb128 0x7
 406 0195 5D020000 		.4byte	.LASF34
 407 0199 06       		.byte	0x6
 408 019a 66       		.byte	0x66
 409 019b 82020000 		.4byte	0x282
 410 019f 10       		.byte	0x10
 411 01a0 07       		.uleb128 0x7
 412 01a1 65040000 		.4byte	.LASF35
 413 01a5 06       		.byte	0x6
 414 01a6 67       		.byte	0x67
 415 01a7 82020000 		.4byte	0x282
 416 01ab 14       		.byte	0x14
 417 01ac 07       		.uleb128 0x7
 418 01ad B3060000 		.4byte	.LASF36
 419 01b1 06       		.byte	0x6
 420 01b2 6E       		.byte	0x6e
 421 01b3 6F080000 		.4byte	0x86f
 422 01b7 18       		.byte	0x18
 423 01b8 07       		.uleb128 0x7
 424 01b9 B2020000 		.4byte	.LASF37
 425 01bd 06       		.byte	0x6
 426 01be 74       		.byte	0x74
 427 01bf 81080000 		.4byte	0x881
 428 01c3 1C       		.byte	0x1c
 429 01c4 07       		.uleb128 0x7
 430 01c5 3F050000 		.4byte	.LASF38
 431 01c9 06       		.byte	0x6
 432 01ca 79       		.byte	0x79
 433 01cb F0000000 		.4byte	0xf0
 434 01cf 20       		.byte	0x20
 435 01d0 07       		.uleb128 0x7
 436 01d1 9E050000 		.4byte	.LASF39
 437 01d5 06       		.byte	0x6
 438 01d6 7D       		.byte	0x7d
 439 01d7 E5000000 		.4byte	0xe5
 440 01db 21       		.byte	0x21
 441 01dc 07       		.uleb128 0x7
 442 01dd 7A060000 		.4byte	.LASF40
 443 01e1 06       		.byte	0x6
 444 01e2 82       		.byte	0x82
 445 01e3 FB000000 		.4byte	0xfb
 446 01e7 22       		.byte	0x22
 447 01e8 07       		.uleb128 0x7
 448 01e9 47050000 		.4byte	.LASF41
 449 01ed 06       		.byte	0x6
 450 01ee 88       		.byte	0x88
 451 01ef 06010000 		.4byte	0x106
 452 01f3 23       		.byte	0x23
 453 01f4 07       		.uleb128 0x7
 454 01f5 4A060000 		.4byte	.LASF42
 455 01f9 06       		.byte	0x6
 456 01fa 8F       		.byte	0x8f
ARM GAS  /tmp/cc2UVdBR.s 			page 9


 457 01fb 3D010000 		.4byte	0x13d
 458 01ff 24       		.byte	0x24
 459 0200 08       		.uleb128 0x8
 460 0201 705F7500 		.ascii	"p_u\000"
 461 0205 06       		.byte	0x6
 462 0206 B4       		.byte	0xb4
 463 0207 3A080000 		.4byte	0x83a
 464 020b 28       		.byte	0x28
 465 020c 07       		.uleb128 0x7
 466 020d EF060000 		.4byte	.LASF43
 467 0211 06       		.byte	0x6
 468 0212 B9       		.byte	0xb9
 469 0213 A8020000 		.4byte	0x2a8
 470 0217 2C       		.byte	0x2c
 471 0218 07       		.uleb128 0x7
 472 0219 5D060000 		.4byte	.LASF44
 473 021d 06       		.byte	0x6
 474 021e BF       		.byte	0xbf
 475 021f 88020000 		.4byte	0x288
 476 0223 30       		.byte	0x30
 477 0224 07       		.uleb128 0x7
 478 0225 16000000 		.4byte	.LASF45
 479 0229 06       		.byte	0x6
 480 022a C3       		.byte	0xc3
 481 022b 1C010000 		.4byte	0x11c
 482 022f 38       		.byte	0x38
 483 0230 07       		.uleb128 0x7
 484 0231 BA050000 		.4byte	.LASF46
 485 0235 06       		.byte	0x6
 486 0236 C9       		.byte	0xc9
 487 0237 27010000 		.4byte	0x127
 488 023b 3C       		.byte	0x3c
 489 023c 07       		.uleb128 0x7
 490 023d 2B050000 		.4byte	.LASF47
 491 0241 06       		.byte	0x6
 492 0242 D0       		.byte	0xd0
 493 0243 87080000 		.4byte	0x887
 494 0247 40       		.byte	0x40
 495 0248 07       		.uleb128 0x7
 496 0249 28060000 		.4byte	.LASF48
 497 024d 06       		.byte	0x6
 498 024e D4       		.byte	0xd4
 499 024f 11010000 		.4byte	0x111
 500 0253 44       		.byte	0x44
 501 0254 07       		.uleb128 0x7
 502 0255 1E020000 		.4byte	.LASF49
 503 0259 06       		.byte	0x6
 504 025a DA       		.byte	0xda
 505 025b BE020000 		.4byte	0x2be
 506 025f 48       		.byte	0x48
 507 0260 00       		.byte	0
 508 0261 09       		.uleb128 0x9
 509 0262 08       		.byte	0x8
 510 0263 05       		.byte	0x5
 511 0264 61       		.byte	0x61
 512 0265 82020000 		.4byte	0x282
 513 0269 07       		.uleb128 0x7
ARM GAS  /tmp/cc2UVdBR.s 			page 10


 514 026a 88050000 		.4byte	.LASF30
 515 026e 05       		.byte	0x5
 516 026f 62       		.byte	0x62
 517 0270 82020000 		.4byte	0x282
 518 0274 00       		.byte	0
 519 0275 07       		.uleb128 0x7
 520 0276 EC040000 		.4byte	.LASF31
 521 027a 05       		.byte	0x5
 522 027b 64       		.byte	0x64
 523 027c 82020000 		.4byte	0x282
 524 0280 04       		.byte	0x4
 525 0281 00       		.byte	0
 526 0282 0A       		.uleb128 0xa
 527 0283 04       		.byte	0x4
 528 0284 4D010000 		.4byte	0x14d
 529 0288 04       		.uleb128 0x4
 530 0289 73040000 		.4byte	.LASF50
 531 028d 05       		.byte	0x5
 532 028e 66       		.byte	0x66
 533 028f 61020000 		.4byte	0x261
 534 0293 09       		.uleb128 0x9
 535 0294 04       		.byte	0x4
 536 0295 05       		.byte	0x5
 537 0296 6B       		.byte	0x6b
 538 0297 A8020000 		.4byte	0x2a8
 539 029b 07       		.uleb128 0x7
 540 029c 88050000 		.4byte	.LASF30
 541 02a0 05       		.byte	0x5
 542 02a1 6D       		.byte	0x6d
 543 02a2 82020000 		.4byte	0x282
 544 02a6 00       		.byte	0
 545 02a7 00       		.byte	0
 546 02a8 04       		.uleb128 0x4
 547 02a9 D3030000 		.4byte	.LASF51
 548 02ad 05       		.byte	0x5
 549 02ae 70       		.byte	0x70
 550 02af 93020000 		.4byte	0x293
 551 02b3 04       		.uleb128 0x4
 552 02b4 93020000 		.4byte	.LASF52
 553 02b8 07       		.byte	0x7
 554 02b9 E5       		.byte	0xe5
 555 02ba BE020000 		.4byte	0x2be
 556 02be 0B       		.uleb128 0xb
 557 02bf 04       		.byte	0x4
 558 02c0 0C       		.uleb128 0xc
 559 02c1 F1030000 		.4byte	.LASF152
 560 02c5 07       		.byte	0x7
 561 02c6 EB       		.byte	0xeb
 562 02c7 D3000000 		.4byte	0xd3
 563 02cb 08       		.byte	0x8
 564 02cc 0D       		.uleb128 0xd
 565 02cd 56060000 		.4byte	.LASF53
 566 02d1 64       		.byte	0x64
 567 02d2 07       		.byte	0x7
 568 02d3 0C01     		.2byte	0x10c
 569 02d5 18040000 		.4byte	0x418
 570 02d9 0E       		.uleb128 0xe
ARM GAS  /tmp/cc2UVdBR.s 			page 11


 571 02da 73313600 		.ascii	"s16\000"
 572 02de 07       		.byte	0x7
 573 02df 0E01     		.2byte	0x10e
 574 02e1 B3020000 		.4byte	0x2b3
 575 02e5 00       		.byte	0
 576 02e6 0E       		.uleb128 0xe
 577 02e7 73313700 		.ascii	"s17\000"
 578 02eb 07       		.byte	0x7
 579 02ec 0F01     		.2byte	0x10f
 580 02ee B3020000 		.4byte	0x2b3
 581 02f2 04       		.byte	0x4
 582 02f3 0E       		.uleb128 0xe
 583 02f4 73313800 		.ascii	"s18\000"
 584 02f8 07       		.byte	0x7
 585 02f9 1001     		.2byte	0x110
 586 02fb B3020000 		.4byte	0x2b3
 587 02ff 08       		.byte	0x8
 588 0300 0E       		.uleb128 0xe
 589 0301 73313900 		.ascii	"s19\000"
 590 0305 07       		.byte	0x7
 591 0306 1101     		.2byte	0x111
 592 0308 B3020000 		.4byte	0x2b3
 593 030c 0C       		.byte	0xc
 594 030d 0E       		.uleb128 0xe
 595 030e 73323000 		.ascii	"s20\000"
 596 0312 07       		.byte	0x7
 597 0313 1201     		.2byte	0x112
 598 0315 B3020000 		.4byte	0x2b3
 599 0319 10       		.byte	0x10
 600 031a 0E       		.uleb128 0xe
 601 031b 73323100 		.ascii	"s21\000"
 602 031f 07       		.byte	0x7
 603 0320 1301     		.2byte	0x113
 604 0322 B3020000 		.4byte	0x2b3
 605 0326 14       		.byte	0x14
 606 0327 0E       		.uleb128 0xe
 607 0328 73323200 		.ascii	"s22\000"
 608 032c 07       		.byte	0x7
 609 032d 1401     		.2byte	0x114
 610 032f B3020000 		.4byte	0x2b3
 611 0333 18       		.byte	0x18
 612 0334 0E       		.uleb128 0xe
 613 0335 73323300 		.ascii	"s23\000"
 614 0339 07       		.byte	0x7
 615 033a 1501     		.2byte	0x115
 616 033c B3020000 		.4byte	0x2b3
 617 0340 1C       		.byte	0x1c
 618 0341 0E       		.uleb128 0xe
 619 0342 73323400 		.ascii	"s24\000"
 620 0346 07       		.byte	0x7
 621 0347 1601     		.2byte	0x116
 622 0349 B3020000 		.4byte	0x2b3
 623 034d 20       		.byte	0x20
 624 034e 0E       		.uleb128 0xe
 625 034f 73323500 		.ascii	"s25\000"
 626 0353 07       		.byte	0x7
 627 0354 1701     		.2byte	0x117
ARM GAS  /tmp/cc2UVdBR.s 			page 12


 628 0356 B3020000 		.4byte	0x2b3
 629 035a 24       		.byte	0x24
 630 035b 0E       		.uleb128 0xe
 631 035c 73323600 		.ascii	"s26\000"
 632 0360 07       		.byte	0x7
 633 0361 1801     		.2byte	0x118
 634 0363 B3020000 		.4byte	0x2b3
 635 0367 28       		.byte	0x28
 636 0368 0E       		.uleb128 0xe
 637 0369 73323700 		.ascii	"s27\000"
 638 036d 07       		.byte	0x7
 639 036e 1901     		.2byte	0x119
 640 0370 B3020000 		.4byte	0x2b3
 641 0374 2C       		.byte	0x2c
 642 0375 0E       		.uleb128 0xe
 643 0376 73323800 		.ascii	"s28\000"
 644 037a 07       		.byte	0x7
 645 037b 1A01     		.2byte	0x11a
 646 037d B3020000 		.4byte	0x2b3
 647 0381 30       		.byte	0x30
 648 0382 0E       		.uleb128 0xe
 649 0383 73323900 		.ascii	"s29\000"
 650 0387 07       		.byte	0x7
 651 0388 1B01     		.2byte	0x11b
 652 038a B3020000 		.4byte	0x2b3
 653 038e 34       		.byte	0x34
 654 038f 0E       		.uleb128 0xe
 655 0390 73333000 		.ascii	"s30\000"
 656 0394 07       		.byte	0x7
 657 0395 1C01     		.2byte	0x11c
 658 0397 B3020000 		.4byte	0x2b3
 659 039b 38       		.byte	0x38
 660 039c 0E       		.uleb128 0xe
 661 039d 73333100 		.ascii	"s31\000"
 662 03a1 07       		.byte	0x7
 663 03a2 1D01     		.2byte	0x11d
 664 03a4 B3020000 		.4byte	0x2b3
 665 03a8 3C       		.byte	0x3c
 666 03a9 0E       		.uleb128 0xe
 667 03aa 723400   		.ascii	"r4\000"
 668 03ad 07       		.byte	0x7
 669 03ae 1F01     		.2byte	0x11f
 670 03b0 B3020000 		.4byte	0x2b3
 671 03b4 40       		.byte	0x40
 672 03b5 0E       		.uleb128 0xe
 673 03b6 723500   		.ascii	"r5\000"
 674 03b9 07       		.byte	0x7
 675 03ba 2001     		.2byte	0x120
 676 03bc B3020000 		.4byte	0x2b3
 677 03c0 44       		.byte	0x44
 678 03c1 0E       		.uleb128 0xe
 679 03c2 723600   		.ascii	"r6\000"
 680 03c5 07       		.byte	0x7
 681 03c6 2101     		.2byte	0x121
 682 03c8 B3020000 		.4byte	0x2b3
 683 03cc 48       		.byte	0x48
 684 03cd 0E       		.uleb128 0xe
ARM GAS  /tmp/cc2UVdBR.s 			page 13


 685 03ce 723700   		.ascii	"r7\000"
 686 03d1 07       		.byte	0x7
 687 03d2 2201     		.2byte	0x122
 688 03d4 B3020000 		.4byte	0x2b3
 689 03d8 4C       		.byte	0x4c
 690 03d9 0E       		.uleb128 0xe
 691 03da 723800   		.ascii	"r8\000"
 692 03dd 07       		.byte	0x7
 693 03de 2301     		.2byte	0x123
 694 03e0 B3020000 		.4byte	0x2b3
 695 03e4 50       		.byte	0x50
 696 03e5 0E       		.uleb128 0xe
 697 03e6 723900   		.ascii	"r9\000"
 698 03e9 07       		.byte	0x7
 699 03ea 2401     		.2byte	0x124
 700 03ec B3020000 		.4byte	0x2b3
 701 03f0 54       		.byte	0x54
 702 03f1 0E       		.uleb128 0xe
 703 03f2 72313000 		.ascii	"r10\000"
 704 03f6 07       		.byte	0x7
 705 03f7 2501     		.2byte	0x125
 706 03f9 B3020000 		.4byte	0x2b3
 707 03fd 58       		.byte	0x58
 708 03fe 0E       		.uleb128 0xe
 709 03ff 72313100 		.ascii	"r11\000"
 710 0403 07       		.byte	0x7
 711 0404 2601     		.2byte	0x126
 712 0406 B3020000 		.4byte	0x2b3
 713 040a 5C       		.byte	0x5c
 714 040b 0E       		.uleb128 0xe
 715 040c 6C7200   		.ascii	"lr\000"
 716 040f 07       		.byte	0x7
 717 0410 2701     		.2byte	0x127
 718 0412 B3020000 		.4byte	0x2b3
 719 0416 60       		.byte	0x60
 720 0417 00       		.byte	0
 721 0418 0D       		.uleb128 0xd
 722 0419 33030000 		.4byte	.LASF54
 723 041d 04       		.byte	0x4
 724 041e 07       		.byte	0x7
 725 041f 3101     		.2byte	0x131
 726 0421 33040000 		.4byte	0x433
 727 0425 0E       		.uleb128 0xe
 728 0426 72313300 		.ascii	"r13\000"
 729 042a 07       		.byte	0x7
 730 042b 3201     		.2byte	0x132
 731 042d 33040000 		.4byte	0x433
 732 0431 00       		.byte	0
 733 0432 00       		.byte	0
 734 0433 0A       		.uleb128 0xa
 735 0434 04       		.byte	0x4
 736 0435 CC020000 		.4byte	0x2cc
 737 0439 04       		.uleb128 0x4
 738 043a FF050000 		.4byte	.LASF55
 739 043e 08       		.byte	0x8
 740 043f 3A       		.byte	0x3a
 741 0440 CE000000 		.4byte	0xce
ARM GAS  /tmp/cc2UVdBR.s 			page 14


 742 0444 0F       		.uleb128 0xf
 743 0445 040E     		.2byte	0xe04
 744 0447 08       		.byte	0x8
 745 0448 6A       		.byte	0x6a
 746 0449 F3040000 		.4byte	0x4f3
 747 044d 07       		.uleb128 0x7
 748 044e 12060000 		.4byte	.LASF56
 749 0452 08       		.byte	0x8
 750 0453 6B       		.byte	0x6b
 751 0454 03050000 		.4byte	0x503
 752 0458 00       		.byte	0
 753 0459 07       		.uleb128 0x7
 754 045a E2050000 		.4byte	.LASF57
 755 045e 08       		.byte	0x8
 756 045f 6C       		.byte	0x6c
 757 0460 18050000 		.4byte	0x518
 758 0464 20       		.byte	0x20
 759 0465 07       		.uleb128 0x7
 760 0466 88040000 		.4byte	.LASF58
 761 046a 08       		.byte	0x8
 762 046b 6D       		.byte	0x6d
 763 046c 03050000 		.4byte	0x503
 764 0470 80       		.byte	0x80
 765 0471 07       		.uleb128 0x7
 766 0472 EA050000 		.4byte	.LASF59
 767 0476 08       		.byte	0x8
 768 0477 6E       		.byte	0x6e
 769 0478 18050000 		.4byte	0x518
 770 047c A0       		.byte	0xa0
 771 047d 10       		.uleb128 0x10
 772 047e BD010000 		.4byte	.LASF60
 773 0482 08       		.byte	0x8
 774 0483 6F       		.byte	0x6f
 775 0484 03050000 		.4byte	0x503
 776 0488 0001     		.2byte	0x100
 777 048a 10       		.uleb128 0x10
 778 048b F2050000 		.4byte	.LASF61
 779 048f 08       		.byte	0x8
 780 0490 70       		.byte	0x70
 781 0491 18050000 		.4byte	0x518
 782 0495 2001     		.2byte	0x120
 783 0497 10       		.uleb128 0x10
 784 0498 00000000 		.4byte	.LASF62
 785 049c 08       		.byte	0x8
 786 049d 71       		.byte	0x71
 787 049e 03050000 		.4byte	0x503
 788 04a2 8001     		.2byte	0x180
 789 04a4 10       		.uleb128 0x10
 790 04a5 1C000000 		.4byte	.LASF63
 791 04a9 08       		.byte	0x8
 792 04aa 72       		.byte	0x72
 793 04ab 18050000 		.4byte	0x518
 794 04af A001     		.2byte	0x1a0
 795 04b1 10       		.uleb128 0x10
 796 04b2 45040000 		.4byte	.LASF64
 797 04b6 08       		.byte	0x8
 798 04b7 73       		.byte	0x73
ARM GAS  /tmp/cc2UVdBR.s 			page 15


 799 04b8 03050000 		.4byte	0x503
 800 04bc 0002     		.2byte	0x200
 801 04be 10       		.uleb128 0x10
 802 04bf 24000000 		.4byte	.LASF65
 803 04c3 08       		.byte	0x8
 804 04c4 74       		.byte	0x74
 805 04c5 2D050000 		.4byte	0x52d
 806 04c9 2002     		.2byte	0x220
 807 04cb 11       		.uleb128 0x11
 808 04cc 49505200 		.ascii	"IPR\000"
 809 04d0 08       		.byte	0x8
 810 04d1 75       		.byte	0x75
 811 04d2 42050000 		.4byte	0x542
 812 04d6 0003     		.2byte	0x300
 813 04d8 10       		.uleb128 0x10
 814 04d9 2C000000 		.4byte	.LASF66
 815 04dd 08       		.byte	0x8
 816 04de 76       		.byte	0x76
 817 04df 58050000 		.4byte	0x558
 818 04e3 F003     		.2byte	0x3f0
 819 04e5 10       		.uleb128 0x10
 820 04e6 A7060000 		.4byte	.LASF67
 821 04ea 08       		.byte	0x8
 822 04eb 77       		.byte	0x77
 823 04ec 39040000 		.4byte	0x439
 824 04f0 000E     		.2byte	0xe00
 825 04f2 00       		.byte	0
 826 04f3 12       		.uleb128 0x12
 827 04f4 39040000 		.4byte	0x439
 828 04f8 03050000 		.4byte	0x503
 829 04fc 13       		.uleb128 0x13
 830 04fd 2C000000 		.4byte	0x2c
 831 0501 07       		.byte	0x7
 832 0502 00       		.byte	0
 833 0503 05       		.uleb128 0x5
 834 0504 F3040000 		.4byte	0x4f3
 835 0508 12       		.uleb128 0x12
 836 0509 39040000 		.4byte	0x439
 837 050d 18050000 		.4byte	0x518
 838 0511 13       		.uleb128 0x13
 839 0512 2C000000 		.4byte	0x2c
 840 0516 17       		.byte	0x17
 841 0517 00       		.byte	0
 842 0518 05       		.uleb128 0x5
 843 0519 08050000 		.4byte	0x508
 844 051d 12       		.uleb128 0x12
 845 051e 39040000 		.4byte	0x439
 846 0522 2D050000 		.4byte	0x52d
 847 0526 13       		.uleb128 0x13
 848 0527 2C000000 		.4byte	0x2c
 849 052b 37       		.byte	0x37
 850 052c 00       		.byte	0
 851 052d 05       		.uleb128 0x5
 852 052e 1D050000 		.4byte	0x51d
 853 0532 12       		.uleb128 0x12
 854 0533 39040000 		.4byte	0x439
 855 0537 42050000 		.4byte	0x542
ARM GAS  /tmp/cc2UVdBR.s 			page 16


 856 053b 13       		.uleb128 0x13
 857 053c 2C000000 		.4byte	0x2c
 858 0540 3B       		.byte	0x3b
 859 0541 00       		.byte	0
 860 0542 05       		.uleb128 0x5
 861 0543 32050000 		.4byte	0x532
 862 0547 12       		.uleb128 0x12
 863 0548 39040000 		.4byte	0x439
 864 054c 58050000 		.4byte	0x558
 865 0550 14       		.uleb128 0x14
 866 0551 2C000000 		.4byte	0x2c
 867 0555 8302     		.2byte	0x283
 868 0557 00       		.byte	0
 869 0558 05       		.uleb128 0x5
 870 0559 47050000 		.4byte	0x547
 871 055d 04       		.uleb128 0x4
 872 055e 20040000 		.4byte	.LASF68
 873 0562 08       		.byte	0x8
 874 0563 78       		.byte	0x78
 875 0564 44040000 		.4byte	0x444
 876 0568 09       		.uleb128 0x9
 877 0569 8C       		.byte	0x8c
 878 056a 08       		.byte	0x8
 879 056b 89       		.byte	0x89
 880 056c 6D060000 		.4byte	0x66d
 881 0570 07       		.uleb128 0x7
 882 0571 B8040000 		.4byte	.LASF69
 883 0575 08       		.byte	0x8
 884 0576 8A       		.byte	0x8a
 885 0577 39040000 		.4byte	0x439
 886 057b 00       		.byte	0
 887 057c 07       		.uleb128 0x7
 888 057d 4E030000 		.4byte	.LASF70
 889 0581 08       		.byte	0x8
 890 0582 8B       		.byte	0x8b
 891 0583 39040000 		.4byte	0x439
 892 0587 04       		.byte	0x4
 893 0588 07       		.uleb128 0x7
 894 0589 21030000 		.4byte	.LASF71
 895 058d 08       		.byte	0x8
 896 058e 8C       		.byte	0x8c
 897 058f 39040000 		.4byte	0x439
 898 0593 08       		.byte	0x8
 899 0594 07       		.uleb128 0x7
 900 0595 85030000 		.4byte	.LASF72
 901 0599 08       		.byte	0x8
 902 059a 8D       		.byte	0x8d
 903 059b 39040000 		.4byte	0x439
 904 059f 0C       		.byte	0xc
 905 05a0 08       		.uleb128 0x8
 906 05a1 53435200 		.ascii	"SCR\000"
 907 05a5 08       		.byte	0x8
 908 05a6 8E       		.byte	0x8e
 909 05a7 39040000 		.4byte	0x439
 910 05ab 10       		.byte	0x10
 911 05ac 08       		.uleb128 0x8
 912 05ad 43435200 		.ascii	"CCR\000"
ARM GAS  /tmp/cc2UVdBR.s 			page 17


 913 05b1 08       		.byte	0x8
 914 05b2 8F       		.byte	0x8f
 915 05b3 39040000 		.4byte	0x439
 916 05b7 14       		.byte	0x14
 917 05b8 07       		.uleb128 0x7
 918 05b9 51060000 		.4byte	.LASF73
 919 05bd 08       		.byte	0x8
 920 05be 90       		.byte	0x90
 921 05bf 7D060000 		.4byte	0x67d
 922 05c3 18       		.byte	0x18
 923 05c4 07       		.uleb128 0x7
 924 05c5 25050000 		.4byte	.LASF74
 925 05c9 08       		.byte	0x8
 926 05ca 91       		.byte	0x91
 927 05cb 39040000 		.4byte	0x439
 928 05cf 24       		.byte	0x24
 929 05d0 07       		.uleb128 0x7
 930 05d1 40040000 		.4byte	.LASF75
 931 05d5 08       		.byte	0x8
 932 05d6 92       		.byte	0x92
 933 05d7 39040000 		.4byte	0x439
 934 05db 28       		.byte	0x28
 935 05dc 07       		.uleb128 0x7
 936 05dd D2060000 		.4byte	.LASF76
 937 05e1 08       		.byte	0x8
 938 05e2 93       		.byte	0x93
 939 05e3 39040000 		.4byte	0x439
 940 05e7 2C       		.byte	0x2c
 941 05e8 07       		.uleb128 0x7
 942 05e9 8B030000 		.4byte	.LASF77
 943 05ed 08       		.byte	0x8
 944 05ee 94       		.byte	0x94
 945 05ef 39040000 		.4byte	0x439
 946 05f3 30       		.byte	0x30
 947 05f4 07       		.uleb128 0x7
 948 05f5 98030000 		.4byte	.LASF78
 949 05f9 08       		.byte	0x8
 950 05fa 95       		.byte	0x95
 951 05fb 39040000 		.4byte	0x439
 952 05ff 34       		.byte	0x34
 953 0600 07       		.uleb128 0x7
 954 0601 75020000 		.4byte	.LASF79
 955 0605 08       		.byte	0x8
 956 0606 96       		.byte	0x96
 957 0607 39040000 		.4byte	0x439
 958 060b 38       		.byte	0x38
 959 060c 07       		.uleb128 0x7
 960 060d 83020000 		.4byte	.LASF80
 961 0611 08       		.byte	0x8
 962 0612 97       		.byte	0x97
 963 0613 39040000 		.4byte	0x439
 964 0617 3C       		.byte	0x3c
 965 0618 08       		.uleb128 0x8
 966 0619 50465200 		.ascii	"PFR\000"
 967 061d 08       		.byte	0x8
 968 061e 98       		.byte	0x98
 969 061f 92060000 		.4byte	0x692
ARM GAS  /tmp/cc2UVdBR.s 			page 18


 970 0623 40       		.byte	0x40
 971 0624 08       		.uleb128 0x8
 972 0625 44465200 		.ascii	"DFR\000"
 973 0629 08       		.byte	0x8
 974 062a 99       		.byte	0x99
 975 062b 39040000 		.4byte	0x439
 976 062f 48       		.byte	0x48
 977 0630 08       		.uleb128 0x8
 978 0631 41445200 		.ascii	"ADR\000"
 979 0635 08       		.byte	0x8
 980 0636 9A       		.byte	0x9a
 981 0637 39040000 		.4byte	0x439
 982 063b 4C       		.byte	0x4c
 983 063c 07       		.uleb128 0x7
 984 063d 94060000 		.4byte	.LASF81
 985 0641 08       		.byte	0x8
 986 0642 9B       		.byte	0x9b
 987 0643 A7060000 		.4byte	0x6a7
 988 0647 50       		.byte	0x50
 989 0648 08       		.uleb128 0x8
 990 0649 53415200 		.ascii	"SAR\000"
 991 064d 08       		.byte	0x8
 992 064e 9C       		.byte	0x9c
 993 064f BC060000 		.4byte	0x6bc
 994 0653 60       		.byte	0x60
 995 0654 07       		.uleb128 0x7
 996 0655 E2050000 		.4byte	.LASF57
 997 0659 08       		.byte	0x8
 998 065a 9D       		.byte	0x9d
 999 065b BC060000 		.4byte	0x6bc
 1000 065f 74       		.byte	0x74
 1001 0660 07       		.uleb128 0x7
 1002 0661 CC060000 		.4byte	.LASF82
 1003 0665 08       		.byte	0x8
 1004 0666 9E       		.byte	0x9e
 1005 0667 39040000 		.4byte	0x439
 1006 066b 88       		.byte	0x88
 1007 066c 00       		.byte	0
 1008 066d 12       		.uleb128 0x12
 1009 066e 39040000 		.4byte	0x439
 1010 0672 7D060000 		.4byte	0x67d
 1011 0676 13       		.uleb128 0x13
 1012 0677 2C000000 		.4byte	0x2c
 1013 067b 02       		.byte	0x2
 1014 067c 00       		.byte	0
 1015 067d 05       		.uleb128 0x5
 1016 067e 6D060000 		.4byte	0x66d
 1017 0682 12       		.uleb128 0x12
 1018 0683 39040000 		.4byte	0x439
 1019 0687 92060000 		.4byte	0x692
 1020 068b 13       		.uleb128 0x13
 1021 068c 2C000000 		.4byte	0x2c
 1022 0690 01       		.byte	0x1
 1023 0691 00       		.byte	0
 1024 0692 05       		.uleb128 0x5
 1025 0693 82060000 		.4byte	0x682
 1026 0697 12       		.uleb128 0x12
ARM GAS  /tmp/cc2UVdBR.s 			page 19


 1027 0698 39040000 		.4byte	0x439
 1028 069c A7060000 		.4byte	0x6a7
 1029 06a0 13       		.uleb128 0x13
 1030 06a1 2C000000 		.4byte	0x2c
 1031 06a5 03       		.byte	0x3
 1032 06a6 00       		.byte	0
 1033 06a7 05       		.uleb128 0x5
 1034 06a8 97060000 		.4byte	0x697
 1035 06ac 12       		.uleb128 0x12
 1036 06ad 39040000 		.4byte	0x439
 1037 06b1 BC060000 		.4byte	0x6bc
 1038 06b5 13       		.uleb128 0x13
 1039 06b6 2C000000 		.4byte	0x2c
 1040 06ba 04       		.byte	0x4
 1041 06bb 00       		.byte	0
 1042 06bc 05       		.uleb128 0x5
 1043 06bd AC060000 		.4byte	0x6ac
 1044 06c1 04       		.uleb128 0x4
 1045 06c2 53000000 		.4byte	.LASF83
 1046 06c6 08       		.byte	0x8
 1047 06c7 9F       		.byte	0x9f
 1048 06c8 68050000 		.4byte	0x568
 1049 06cc 04       		.uleb128 0x4
 1050 06cd 18030000 		.4byte	.LASF84
 1051 06d1 09       		.byte	0x9
 1052 06d2 58       		.byte	0x58
 1053 06d3 D7060000 		.4byte	0x6d7
 1054 06d7 0A       		.uleb128 0xa
 1055 06d8 04       		.byte	0x4
 1056 06d9 DD060000 		.4byte	0x6dd
 1057 06dd 15       		.uleb128 0x15
 1058 06de E8060000 		.4byte	0x6e8
 1059 06e2 16       		.uleb128 0x16
 1060 06e3 BE020000 		.4byte	0x2be
 1061 06e7 00       		.byte	0
 1062 06e8 04       		.uleb128 0x4
 1063 06e9 26030000 		.4byte	.LASF85
 1064 06ed 09       		.byte	0x9
 1065 06ee 5D       		.byte	0x5d
 1066 06ef F3060000 		.4byte	0x6f3
 1067 06f3 06       		.uleb128 0x6
 1068 06f4 26030000 		.4byte	.LASF85
 1069 06f8 14       		.byte	0x14
 1070 06f9 09       		.byte	0x9
 1071 06fa 64       		.byte	0x64
 1072 06fb 3C070000 		.4byte	0x73c
 1073 06ff 07       		.uleb128 0x7
 1074 0700 CA020000 		.4byte	.LASF86
 1075 0704 09       		.byte	0x9
 1076 0705 65       		.byte	0x65
 1077 0706 3C070000 		.4byte	0x73c
 1078 070a 00       		.byte	0
 1079 070b 07       		.uleb128 0x7
 1080 070c 9C020000 		.4byte	.LASF87
 1081 0710 09       		.byte	0x9
 1082 0711 67       		.byte	0x67
 1083 0712 3C070000 		.4byte	0x73c
ARM GAS  /tmp/cc2UVdBR.s 			page 20


 1084 0716 04       		.byte	0x4
 1085 0717 07       		.uleb128 0x7
 1086 0718 29040000 		.4byte	.LASF88
 1087 071c 09       		.byte	0x9
 1088 071d 69       		.byte	0x69
 1089 071e 32010000 		.4byte	0x132
 1090 0722 08       		.byte	0x8
 1091 0723 07       		.uleb128 0x7
 1092 0724 38040000 		.4byte	.LASF89
 1093 0728 09       		.byte	0x9
 1094 0729 6A       		.byte	0x6a
 1095 072a CC060000 		.4byte	0x6cc
 1096 072e 0C       		.byte	0xc
 1097 072f 07       		.uleb128 0x7
 1098 0730 68060000 		.4byte	.LASF90
 1099 0734 09       		.byte	0x9
 1100 0735 6C       		.byte	0x6c
 1101 0736 BE020000 		.4byte	0x2be
 1102 073a 10       		.byte	0x10
 1103 073b 00       		.byte	0
 1104 073c 0A       		.uleb128 0xa
 1105 073d 04       		.byte	0x4
 1106 073e E8060000 		.4byte	0x6e8
 1107 0742 09       		.uleb128 0x9
 1108 0743 10       		.byte	0x10
 1109 0744 09       		.byte	0x9
 1110 0745 76       		.byte	0x76
 1111 0746 7B070000 		.4byte	0x77b
 1112 074a 07       		.uleb128 0x7
 1113 074b CA020000 		.4byte	.LASF86
 1114 074f 09       		.byte	0x9
 1115 0750 77       		.byte	0x77
 1116 0751 3C070000 		.4byte	0x73c
 1117 0755 00       		.byte	0
 1118 0756 07       		.uleb128 0x7
 1119 0757 9C020000 		.4byte	.LASF87
 1120 075b 09       		.byte	0x9
 1121 075c 79       		.byte	0x79
 1122 075d 3C070000 		.4byte	0x73c
 1123 0761 04       		.byte	0x4
 1124 0762 07       		.uleb128 0x7
 1125 0763 29040000 		.4byte	.LASF88
 1126 0767 09       		.byte	0x9
 1127 0768 7B       		.byte	0x7b
 1128 0769 32010000 		.4byte	0x132
 1129 076d 08       		.byte	0x8
 1130 076e 07       		.uleb128 0x7
 1131 076f DC010000 		.4byte	.LASF91
 1132 0773 09       		.byte	0x9
 1133 0774 7C       		.byte	0x7c
 1134 0775 3D010000 		.4byte	0x13d
 1135 0779 0C       		.byte	0xc
 1136 077a 00       		.byte	0
 1137 077b 04       		.uleb128 0x4
 1138 077c C5060000 		.4byte	.LASF92
 1139 0780 09       		.byte	0x9
 1140 0781 7D       		.byte	0x7d
ARM GAS  /tmp/cc2UVdBR.s 			page 21


 1141 0782 42070000 		.4byte	0x742
 1142 0786 17       		.uleb128 0x17
 1143 0787 69000000 		.4byte	.LASF100
 1144 078b 09       		.byte	0x9
 1145 078c F5       		.byte	0xf5
 1146 078d 7B070000 		.4byte	0x77b
 1147 0791 09       		.uleb128 0x9
 1148 0792 1C       		.byte	0x1c
 1149 0793 0A       		.byte	0xa
 1150 0794 5E       		.byte	0x5e
 1151 0795 E2070000 		.4byte	0x7e2
 1152 0799 07       		.uleb128 0x7
 1153 079a DA050000 		.4byte	.LASF93
 1154 079e 0A       		.byte	0xa
 1155 079f 5F       		.byte	0x5f
 1156 07a0 88020000 		.4byte	0x288
 1157 07a4 00       		.byte	0
 1158 07a5 07       		.uleb128 0x7
 1159 07a6 7A050000 		.4byte	.LASF94
 1160 07aa 0A       		.byte	0xa
 1161 07ab 60       		.byte	0x60
 1162 07ac 11010000 		.4byte	0x111
 1163 07b0 08       		.byte	0x8
 1164 07b1 07       		.uleb128 0x7
 1165 07b2 6D040000 		.4byte	.LASF95
 1166 07b6 0A       		.byte	0xa
 1167 07b7 62       		.byte	0x62
 1168 07b8 18040000 		.4byte	0x418
 1169 07bc 0C       		.byte	0xc
 1170 07bd 07       		.uleb128 0x7
 1171 07be 90030000 		.4byte	.LASF96
 1172 07c2 0A       		.byte	0xa
 1173 07c3 65       		.byte	0x65
 1174 07c4 82020000 		.4byte	0x282
 1175 07c8 10       		.byte	0x10
 1176 07c9 07       		.uleb128 0x7
 1177 07ca A5040000 		.4byte	.LASF97
 1178 07ce 0A       		.byte	0xa
 1179 07cf 66       		.byte	0x66
 1180 07d0 82020000 		.4byte	0x282
 1181 07d4 14       		.byte	0x14
 1182 07d5 07       		.uleb128 0x7
 1183 07d6 9B040000 		.4byte	.LASF98
 1184 07da 0A       		.byte	0xa
 1185 07db 69       		.byte	0x69
 1186 07dc 82020000 		.4byte	0x282
 1187 07e0 18       		.byte	0x18
 1188 07e1 00       		.byte	0
 1189 07e2 04       		.uleb128 0x4
 1190 07e3 81060000 		.4byte	.LASF99
 1191 07e7 0A       		.byte	0xa
 1192 07e8 6B       		.byte	0x6b
 1193 07e9 91070000 		.4byte	0x791
 1194 07ed 17       		.uleb128 0x17
 1195 07ee 99060000 		.4byte	.LASF101
 1196 07f2 0A       		.byte	0xa
 1197 07f3 6F       		.byte	0x6f
ARM GAS  /tmp/cc2UVdBR.s 			page 22


 1198 07f4 E2070000 		.4byte	0x7e2
 1199 07f8 06       		.uleb128 0x6
 1200 07f9 EB030000 		.4byte	.LASF102
 1201 07fd 10       		.byte	0x10
 1202 07fe 0B       		.byte	0xb
 1203 07ff 2C       		.byte	0x2c
 1204 0800 29080000 		.4byte	0x829
 1205 0804 07       		.uleb128 0x7
 1206 0805 26020000 		.4byte	.LASF103
 1207 0809 0B       		.byte	0xb
 1208 080a 2D       		.byte	0x2d
 1209 080b 88020000 		.4byte	0x288
 1210 080f 00       		.byte	0
 1211 0810 07       		.uleb128 0x7
 1212 0811 D7060000 		.4byte	.LASF104
 1213 0815 0B       		.byte	0xb
 1214 0816 2F       		.byte	0x2f
 1215 0817 82020000 		.4byte	0x282
 1216 081b 08       		.byte	0x8
 1217 081c 07       		.uleb128 0x7
 1218 081d 17060000 		.4byte	.LASF105
 1219 0821 0B       		.byte	0xb
 1220 0822 31       		.byte	0x31
 1221 0823 29080000 		.4byte	0x829
 1222 0827 0C       		.byte	0xc
 1223 0828 00       		.byte	0
 1224 0829 0A       		.uleb128 0xa
 1225 082a 04       		.byte	0x4
 1226 082b F8070000 		.4byte	0x7f8
 1227 082f 04       		.uleb128 0x4
 1228 0830 EB030000 		.4byte	.LASF102
 1229 0834 0B       		.byte	0xb
 1230 0835 33       		.byte	0x33
 1231 0836 F8070000 		.4byte	0x7f8
 1232 083a 18       		.uleb128 0x18
 1233 083b 04       		.byte	0x4
 1234 083c 06       		.byte	0x6
 1235 083d 96       		.byte	0x96
 1236 083e 6F080000 		.4byte	0x86f
 1237 0842 19       		.uleb128 0x19
 1238 0843 39000000 		.4byte	.LASF106
 1239 0847 06       		.byte	0x6
 1240 0848 9D       		.byte	0x9d
 1241 0849 1C010000 		.4byte	0x11c
 1242 084d 19       		.uleb128 0x19
 1243 084e 7A020000 		.4byte	.LASF107
 1244 0852 06       		.byte	0x6
 1245 0853 A4       		.byte	0xa4
 1246 0854 1C010000 		.4byte	0x11c
 1247 0858 19       		.uleb128 0x19
 1248 0859 AC060000 		.4byte	.LASF108
 1249 085d 06       		.byte	0x6
 1250 085e AB       		.byte	0xab
 1251 085f BE020000 		.4byte	0x2be
 1252 0863 19       		.uleb128 0x19
 1253 0864 81050000 		.4byte	.LASF109
 1254 0868 06       		.byte	0x6
ARM GAS  /tmp/cc2UVdBR.s 			page 23


 1255 0869 B2       		.byte	0xb2
 1256 086a 27010000 		.4byte	0x127
 1257 086e 00       		.byte	0
 1258 086f 0A       		.uleb128 0xa
 1259 0870 04       		.byte	0x4
 1260 0871 7C080000 		.4byte	0x87c
 1261 0875 03       		.uleb128 0x3
 1262 0876 01       		.byte	0x1
 1263 0877 08       		.byte	0x8
 1264 0878 FA050000 		.4byte	.LASF110
 1265 087c 1A       		.uleb128 0x1a
 1266 087d 75080000 		.4byte	0x875
 1267 0881 0A       		.uleb128 0xa
 1268 0882 04       		.byte	0x4
 1269 0883 C0020000 		.4byte	0x2c0
 1270 0887 0A       		.uleb128 0xa
 1271 0888 04       		.byte	0x4
 1272 0889 2F080000 		.4byte	0x82f
 1273 088d 09       		.uleb128 0x9
 1274 088e 16       		.byte	0x16
 1275 088f 0C       		.byte	0xc
 1276 0890 2C       		.byte	0x2c
 1277 0891 6E090000 		.4byte	0x96e
 1278 0895 07       		.uleb128 0x7
 1279 0896 8D040000 		.4byte	.LASF111
 1280 089a 0C       		.byte	0xc
 1281 089b 2D       		.byte	0x2d
 1282 089c 6E090000 		.4byte	0x96e
 1283 08a0 00       		.byte	0
 1284 08a1 07       		.uleb128 0x7
 1285 08a2 0C040000 		.4byte	.LASF112
 1286 08a6 0C       		.byte	0xc
 1287 08a7 2E       		.byte	0x2e
 1288 08a8 A2000000 		.4byte	0xa2
 1289 08ac 04       		.byte	0x4
 1290 08ad 07       		.uleb128 0x7
 1291 08ae 80040000 		.4byte	.LASF113
 1292 08b2 0C       		.byte	0xc
 1293 08b3 2F       		.byte	0x2f
 1294 08b4 A2000000 		.4byte	0xa2
 1295 08b8 05       		.byte	0x5
 1296 08b9 07       		.uleb128 0x7
 1297 08ba BA060000 		.4byte	.LASF114
 1298 08be 0C       		.byte	0xc
 1299 08bf 30       		.byte	0x30
 1300 08c0 AD000000 		.4byte	0xad
 1301 08c4 06       		.byte	0x6
 1302 08c5 07       		.uleb128 0x7
 1303 08c6 E1040000 		.4byte	.LASF115
 1304 08ca 0C       		.byte	0xc
 1305 08cb 31       		.byte	0x31
 1306 08cc A2000000 		.4byte	0xa2
 1307 08d0 08       		.byte	0x8
 1308 08d1 07       		.uleb128 0x7
 1309 08d2 0C030000 		.4byte	.LASF116
 1310 08d6 0C       		.byte	0xc
 1311 08d7 32       		.byte	0x32
ARM GAS  /tmp/cc2UVdBR.s 			page 24


 1312 08d8 A2000000 		.4byte	0xa2
 1313 08dc 09       		.byte	0x9
 1314 08dd 07       		.uleb128 0x7
 1315 08de 5B000000 		.4byte	.LASF117
 1316 08e2 0C       		.byte	0xc
 1317 08e3 33       		.byte	0x33
 1318 08e4 A2000000 		.4byte	0xa2
 1319 08e8 0A       		.byte	0xa
 1320 08e9 07       		.uleb128 0x7
 1321 08ea CE050000 		.4byte	.LASF118
 1322 08ee 0C       		.byte	0xc
 1323 08ef 34       		.byte	0x34
 1324 08f0 A2000000 		.4byte	0xa2
 1325 08f4 0B       		.byte	0xb
 1326 08f5 07       		.uleb128 0x7
 1327 08f6 6F060000 		.4byte	.LASF119
 1328 08fa 0C       		.byte	0xc
 1329 08fb 35       		.byte	0x35
 1330 08fc A2000000 		.4byte	0xa2
 1331 0900 0C       		.byte	0xc
 1332 0901 07       		.uleb128 0x7
 1333 0902 AD050000 		.4byte	.LASF120
 1334 0906 0C       		.byte	0xc
 1335 0907 36       		.byte	0x36
 1336 0908 A2000000 		.4byte	0xa2
 1337 090c 0D       		.byte	0xd
 1338 090d 07       		.uleb128 0x7
 1339 090e E4020000 		.4byte	.LASF121
 1340 0912 0C       		.byte	0xc
 1341 0913 37       		.byte	0x37
 1342 0914 A2000000 		.4byte	0xa2
 1343 0918 0E       		.byte	0xe
 1344 0919 07       		.uleb128 0x7
 1345 091a 59040000 		.4byte	.LASF122
 1346 091e 0C       		.byte	0xc
 1347 091f 38       		.byte	0x38
 1348 0920 A2000000 		.4byte	0xa2
 1349 0924 0F       		.byte	0xf
 1350 0925 07       		.uleb128 0x7
 1351 0926 01020000 		.4byte	.LASF123
 1352 092a 0C       		.byte	0xc
 1353 092b 39       		.byte	0x39
 1354 092c A2000000 		.4byte	0xa2
 1355 0930 10       		.byte	0x10
 1356 0931 07       		.uleb128 0x7
 1357 0932 C9010000 		.4byte	.LASF124
 1358 0936 0C       		.byte	0xc
 1359 0937 3B       		.byte	0x3b
 1360 0938 A2000000 		.4byte	0xa2
 1361 093c 11       		.byte	0x11
 1362 093d 07       		.uleb128 0x7
 1363 093e 11020000 		.4byte	.LASF125
 1364 0942 0C       		.byte	0xc
 1365 0943 3C       		.byte	0x3c
 1366 0944 A2000000 		.4byte	0xa2
 1367 0948 12       		.byte	0x12
 1368 0949 07       		.uleb128 0x7
ARM GAS  /tmp/cc2UVdBR.s 			page 25


 1369 094a 14040000 		.4byte	.LASF126
 1370 094e 0C       		.byte	0xc
 1371 094f 3D       		.byte	0x3d
 1372 0950 A2000000 		.4byte	0xa2
 1373 0954 13       		.byte	0x13
 1374 0955 07       		.uleb128 0x7
 1375 0956 8F050000 		.4byte	.LASF127
 1376 095a 0C       		.byte	0xc
 1377 095b 3E       		.byte	0x3e
 1378 095c A2000000 		.4byte	0xa2
 1379 0960 14       		.byte	0x14
 1380 0961 07       		.uleb128 0x7
 1381 0962 51050000 		.4byte	.LASF128
 1382 0966 0C       		.byte	0xc
 1383 0967 40       		.byte	0x40
 1384 0968 A2000000 		.4byte	0xa2
 1385 096c 15       		.byte	0x15
 1386 096d 00       		.byte	0
 1387 096e 12       		.uleb128 0x12
 1388 096f 75080000 		.4byte	0x875
 1389 0973 7E090000 		.4byte	0x97e
 1390 0977 13       		.uleb128 0x13
 1391 0978 2C000000 		.4byte	0x2c
 1392 097c 03       		.byte	0x3
 1393 097d 00       		.byte	0
 1394 097e 04       		.uleb128 0x4
 1395 097f 53020000 		.4byte	.LASF129
 1396 0983 0C       		.byte	0xc
 1397 0984 41       		.byte	0x41
 1398 0985 8D080000 		.4byte	0x88d
 1399 0989 1A       		.uleb128 0x1a
 1400 098a 7E090000 		.4byte	0x97e
 1401 098e 17       		.uleb128 0x17
 1402 098f 03030000 		.4byte	.LASF130
 1403 0993 0C       		.byte	0xc
 1404 0994 7E       		.byte	0x7e
 1405 0995 89090000 		.4byte	0x989
 1406 0999 09       		.uleb128 0x9
 1407 099a 10       		.byte	0x10
 1408 099b 0D       		.byte	0xd
 1409 099c 71       		.byte	0x71
 1410 099d D2090000 		.4byte	0x9d2
 1411 09a1 07       		.uleb128 0x7
 1412 09a2 A4020000 		.4byte	.LASF131
 1413 09a6 0D       		.byte	0xd
 1414 09a7 72       		.byte	0x72
 1415 09a8 32010000 		.4byte	0x132
 1416 09ac 00       		.byte	0
 1417 09ad 07       		.uleb128 0x7
 1418 09ae D6010000 		.4byte	.LASF132
 1419 09b2 0D       		.byte	0xd
 1420 09b3 73       		.byte	0x73
 1421 09b4 82020000 		.4byte	0x282
 1422 09b8 04       		.byte	0x4
 1423 09b9 07       		.uleb128 0x7
 1424 09ba DF060000 		.4byte	.LASF133
 1425 09be 0D       		.byte	0xd
ARM GAS  /tmp/cc2UVdBR.s 			page 26


 1426 09bf 74       		.byte	0x74
 1427 09c0 BE020000 		.4byte	0x2be
 1428 09c4 08       		.byte	0x8
 1429 09c5 07       		.uleb128 0x7
 1430 09c6 8B060000 		.4byte	.LASF134
 1431 09ca 0D       		.byte	0xd
 1432 09cb 75       		.byte	0x75
 1433 09cc A2000000 		.4byte	0xa2
 1434 09d0 0C       		.byte	0xc
 1435 09d1 00       		.byte	0
 1436 09d2 04       		.uleb128 0x4
 1437 09d3 4A040000 		.4byte	.LASF135
 1438 09d7 0D       		.byte	0xd
 1439 09d8 76       		.byte	0x76
 1440 09d9 99090000 		.4byte	0x999
 1441 09dd 0F       		.uleb128 0xf
 1442 09de 0804     		.2byte	0x408
 1443 09e0 0D       		.byte	0xd
 1444 09e1 7B       		.byte	0x7b
 1445 09e2 0B0A0000 		.4byte	0xa0b
 1446 09e6 07       		.uleb128 0x7
 1447 09e7 04040000 		.4byte	.LASF136
 1448 09eb 0D       		.byte	0xd
 1449 09ec 7C       		.byte	0x7c
 1450 09ed 2C000000 		.4byte	0x2c
 1451 09f1 00       		.byte	0
 1452 09f2 07       		.uleb128 0x7
 1453 09f3 31040000 		.4byte	.LASF137
 1454 09f7 0D       		.byte	0xd
 1455 09f8 7D       		.byte	0x7d
 1456 09f9 0B0A0000 		.4byte	0xa0b
 1457 09fd 04       		.byte	0x4
 1458 09fe 07       		.uleb128 0x7
 1459 09ff D7040000 		.4byte	.LASF138
 1460 0a03 0D       		.byte	0xd
 1461 0a04 7F       		.byte	0x7f
 1462 0a05 110A0000 		.4byte	0xa11
 1463 0a09 08       		.byte	0x8
 1464 0a0a 00       		.byte	0
 1465 0a0b 0A       		.uleb128 0xa
 1466 0a0c 04       		.byte	0x4
 1467 0a0d D2090000 		.4byte	0x9d2
 1468 0a11 12       		.uleb128 0x12
 1469 0a12 D2090000 		.4byte	0x9d2
 1470 0a16 210A0000 		.4byte	0xa21
 1471 0a1a 13       		.uleb128 0x13
 1472 0a1b 2C000000 		.4byte	0x2c
 1473 0a1f 3F       		.byte	0x3f
 1474 0a20 00       		.byte	0
 1475 0a21 04       		.uleb128 0x4
 1476 0a22 AB010000 		.4byte	.LASF139
 1477 0a26 0D       		.byte	0xd
 1478 0a27 80       		.byte	0x80
 1479 0a28 DD090000 		.4byte	0x9dd
 1480 0a2c 17       		.uleb128 0x17
 1481 0a2d BE040000 		.4byte	.LASF140
 1482 0a31 0D       		.byte	0xd
ARM GAS  /tmp/cc2UVdBR.s 			page 27


 1483 0a32 83       		.byte	0x83
 1484 0a33 210A0000 		.4byte	0xa21
 1485 0a37 17       		.uleb128 0x17
 1486 0a38 C7030000 		.4byte	.LASF141
 1487 0a3c 0D       		.byte	0xd
 1488 0a3d E2       		.byte	0xe2
 1489 0a3e 42010000 		.4byte	0x142
 1490 0a42 17       		.uleb128 0x17
 1491 0a43 3D060000 		.4byte	.LASF142
 1492 0a47 0D       		.byte	0xd
 1493 0a48 E3       		.byte	0xe3
 1494 0a49 42010000 		.4byte	0x142
 1495 0a4d 17       		.uleb128 0x17
 1496 0a4e 17050000 		.4byte	.LASF143
 1497 0a52 0D       		.byte	0xd
 1498 0a53 F5       		.byte	0xf5
 1499 0a54 6F080000 		.4byte	0x86f
 1500 0a58 1B       		.uleb128 0x1b
 1501 0a59 C0020000 		.4byte	0x2c0
 1502 0a5d 08       		.byte	0x8
 1503 0a5e 690A0000 		.4byte	0xa69
 1504 0a62 13       		.uleb128 0x13
 1505 0a63 2C000000 		.4byte	0x2c
 1506 0a67 3A       		.byte	0x3a
 1507 0a68 00       		.byte	0
 1508 0a69 17       		.uleb128 0x17
 1509 0a6a 65020000 		.4byte	.LASF144
 1510 0a6e 0E       		.byte	0xe
 1511 0a6f 89       		.byte	0x89
 1512 0a70 580A0000 		.4byte	0xa58
 1513 0a74 1C       		.uleb128 0x1c
 1514 0a75 5D050000 		.4byte	.LASF147
 1515 0a79 01       		.byte	0x1
 1516 0a7a 4A       		.byte	0x4a
 1517 0a7b 00000000 		.4byte	.LFB9
 1518 0a7f 2A000000 		.4byte	.LFE9-.LFB9
 1519 0a83 01       		.uleb128 0x1
 1520 0a84 9C       		.byte	0x9c
 1521 0a85 B60A0000 		.4byte	0xab6
 1522 0a89 1D       		.uleb128 0x1d
 1523 0a8a FC030000 		.4byte	.LASF145
 1524 0a8e 01       		.byte	0x1
 1525 0a8f 4A       		.byte	0x4a
 1526 0a90 C3000000 		.4byte	0xc3
 1527 0a94 00000000 		.4byte	.LLST5
 1528 0a98 1D       		.uleb128 0x1d
 1529 0a99 34000000 		.4byte	.LASF146
 1530 0a9d 01       		.byte	0x1
 1531 0a9e 4A       		.byte	0x4a
 1532 0a9f C3000000 		.4byte	0xc3
 1533 0aa3 21000000 		.4byte	.LLST6
 1534 0aa7 1E       		.uleb128 0x1e
 1535 0aa8 736800   		.ascii	"sh\000"
 1536 0aab 01       		.byte	0x1
 1537 0aac 4B       		.byte	0x4b
 1538 0aad 2C000000 		.4byte	0x2c
 1539 0ab1 42000000 		.4byte	.LLST7
ARM GAS  /tmp/cc2UVdBR.s 			page 28


 1540 0ab5 00       		.byte	0
 1541 0ab6 1C       		.uleb128 0x1c
 1542 0ab7 D2020000 		.4byte	.LASF148
 1543 0abb 01       		.byte	0x1
 1544 0abc 3C       		.byte	0x3c
 1545 0abd 00000000 		.4byte	.LFB8
 1546 0ac1 40000000 		.4byte	.LFE8-.LFB8
 1547 0ac5 01       		.uleb128 0x1
 1548 0ac6 9C       		.byte	0x9c
 1549 0ac7 E70A0000 		.4byte	0xae7
 1550 0acb 1F       		.uleb128 0x1f
 1551 0acc 6E00     		.ascii	"n\000"
 1552 0ace 01       		.byte	0x1
 1553 0acf 3C       		.byte	0x3c
 1554 0ad0 C3000000 		.4byte	0xc3
 1555 0ad4 67000000 		.4byte	.LLST3
 1556 0ad8 1E       		.uleb128 0x1e
 1557 0ad9 736800   		.ascii	"sh\000"
 1558 0adc 01       		.byte	0x1
 1559 0add 3D       		.byte	0x3d
 1560 0ade 2C000000 		.4byte	0x2c
 1561 0ae2 88000000 		.4byte	.LLST4
 1562 0ae6 00       		.byte	0
 1563 0ae7 20       		.uleb128 0x20
 1564 0ae8 05000000 		.4byte	.LASF153
 1565 0aec 01       		.byte	0x1
 1566 0aed 2E       		.byte	0x2e
 1567 0aee 00000000 		.4byte	.LFB7
 1568 0af2 48000000 		.4byte	.LFE7-.LFB7
 1569 0af6 01       		.uleb128 0x1
 1570 0af7 9C       		.byte	0x9c
 1571 0af8 1F       		.uleb128 0x1f
 1572 0af9 6E00     		.ascii	"n\000"
 1573 0afb 01       		.byte	0x1
 1574 0afc 2E       		.byte	0x2e
 1575 0afd C3000000 		.4byte	0xc3
 1576 0b01 D0000000 		.4byte	.LLST0
 1577 0b05 1D       		.uleb128 0x1d
 1578 0b06 34000000 		.4byte	.LASF146
 1579 0b0a 01       		.byte	0x1
 1580 0b0b 2E       		.byte	0x2e
 1581 0b0c C3000000 		.4byte	0xc3
 1582 0b10 F1000000 		.4byte	.LLST1
 1583 0b14 1E       		.uleb128 0x1e
 1584 0b15 736800   		.ascii	"sh\000"
 1585 0b18 01       		.byte	0x1
 1586 0b19 2F       		.byte	0x2f
 1587 0b1a 2C000000 		.4byte	0x2c
 1588 0b1e 12010000 		.4byte	.LLST2
 1589 0b22 00       		.byte	0
 1590 0b23 00       		.byte	0
 1591              		.section	.debug_abbrev,"",%progbits
 1592              	.Ldebug_abbrev0:
 1593 0000 01       		.uleb128 0x1
 1594 0001 11       		.uleb128 0x11
 1595 0002 01       		.byte	0x1
 1596 0003 25       		.uleb128 0x25
ARM GAS  /tmp/cc2UVdBR.s 			page 29


 1597 0004 0E       		.uleb128 0xe
 1598 0005 13       		.uleb128 0x13
 1599 0006 0B       		.uleb128 0xb
 1600 0007 03       		.uleb128 0x3
 1601 0008 0E       		.uleb128 0xe
 1602 0009 1B       		.uleb128 0x1b
 1603 000a 0E       		.uleb128 0xe
 1604 000b 55       		.uleb128 0x55
 1605 000c 17       		.uleb128 0x17
 1606 000d 11       		.uleb128 0x11
 1607 000e 01       		.uleb128 0x1
 1608 000f 10       		.uleb128 0x10
 1609 0010 17       		.uleb128 0x17
 1610 0011 00       		.byte	0
 1611 0012 00       		.byte	0
 1612 0013 02       		.uleb128 0x2
 1613 0014 24       		.uleb128 0x24
 1614 0015 00       		.byte	0
 1615 0016 0B       		.uleb128 0xb
 1616 0017 0B       		.uleb128 0xb
 1617 0018 3E       		.uleb128 0x3e
 1618 0019 0B       		.uleb128 0xb
 1619 001a 03       		.uleb128 0x3
 1620 001b 08       		.uleb128 0x8
 1621 001c 00       		.byte	0
 1622 001d 00       		.byte	0
 1623 001e 03       		.uleb128 0x3
 1624 001f 24       		.uleb128 0x24
 1625 0020 00       		.byte	0
 1626 0021 0B       		.uleb128 0xb
 1627 0022 0B       		.uleb128 0xb
 1628 0023 3E       		.uleb128 0x3e
 1629 0024 0B       		.uleb128 0xb
 1630 0025 03       		.uleb128 0x3
 1631 0026 0E       		.uleb128 0xe
 1632 0027 00       		.byte	0
 1633 0028 00       		.byte	0
 1634 0029 04       		.uleb128 0x4
 1635 002a 16       		.uleb128 0x16
 1636 002b 00       		.byte	0
 1637 002c 03       		.uleb128 0x3
 1638 002d 0E       		.uleb128 0xe
 1639 002e 3A       		.uleb128 0x3a
 1640 002f 0B       		.uleb128 0xb
 1641 0030 3B       		.uleb128 0x3b
 1642 0031 0B       		.uleb128 0xb
 1643 0032 49       		.uleb128 0x49
 1644 0033 13       		.uleb128 0x13
 1645 0034 00       		.byte	0
 1646 0035 00       		.byte	0
 1647 0036 05       		.uleb128 0x5
 1648 0037 35       		.uleb128 0x35
 1649 0038 00       		.byte	0
 1650 0039 49       		.uleb128 0x49
 1651 003a 13       		.uleb128 0x13
 1652 003b 00       		.byte	0
 1653 003c 00       		.byte	0
ARM GAS  /tmp/cc2UVdBR.s 			page 30


 1654 003d 06       		.uleb128 0x6
 1655 003e 13       		.uleb128 0x13
 1656 003f 01       		.byte	0x1
 1657 0040 03       		.uleb128 0x3
 1658 0041 0E       		.uleb128 0xe
 1659 0042 0B       		.uleb128 0xb
 1660 0043 0B       		.uleb128 0xb
 1661 0044 3A       		.uleb128 0x3a
 1662 0045 0B       		.uleb128 0xb
 1663 0046 3B       		.uleb128 0x3b
 1664 0047 0B       		.uleb128 0xb
 1665 0048 01       		.uleb128 0x1
 1666 0049 13       		.uleb128 0x13
 1667 004a 00       		.byte	0
 1668 004b 00       		.byte	0
 1669 004c 07       		.uleb128 0x7
 1670 004d 0D       		.uleb128 0xd
 1671 004e 00       		.byte	0
 1672 004f 03       		.uleb128 0x3
 1673 0050 0E       		.uleb128 0xe
 1674 0051 3A       		.uleb128 0x3a
 1675 0052 0B       		.uleb128 0xb
 1676 0053 3B       		.uleb128 0x3b
 1677 0054 0B       		.uleb128 0xb
 1678 0055 49       		.uleb128 0x49
 1679 0056 13       		.uleb128 0x13
 1680 0057 38       		.uleb128 0x38
 1681 0058 0B       		.uleb128 0xb
 1682 0059 00       		.byte	0
 1683 005a 00       		.byte	0
 1684 005b 08       		.uleb128 0x8
 1685 005c 0D       		.uleb128 0xd
 1686 005d 00       		.byte	0
 1687 005e 03       		.uleb128 0x3
 1688 005f 08       		.uleb128 0x8
 1689 0060 3A       		.uleb128 0x3a
 1690 0061 0B       		.uleb128 0xb
 1691 0062 3B       		.uleb128 0x3b
 1692 0063 0B       		.uleb128 0xb
 1693 0064 49       		.uleb128 0x49
 1694 0065 13       		.uleb128 0x13
 1695 0066 38       		.uleb128 0x38
 1696 0067 0B       		.uleb128 0xb
 1697 0068 00       		.byte	0
 1698 0069 00       		.byte	0
 1699 006a 09       		.uleb128 0x9
 1700 006b 13       		.uleb128 0x13
 1701 006c 01       		.byte	0x1
 1702 006d 0B       		.uleb128 0xb
 1703 006e 0B       		.uleb128 0xb
 1704 006f 3A       		.uleb128 0x3a
 1705 0070 0B       		.uleb128 0xb
 1706 0071 3B       		.uleb128 0x3b
 1707 0072 0B       		.uleb128 0xb
 1708 0073 01       		.uleb128 0x1
 1709 0074 13       		.uleb128 0x13
 1710 0075 00       		.byte	0
ARM GAS  /tmp/cc2UVdBR.s 			page 31


 1711 0076 00       		.byte	0
 1712 0077 0A       		.uleb128 0xa
 1713 0078 0F       		.uleb128 0xf
 1714 0079 00       		.byte	0
 1715 007a 0B       		.uleb128 0xb
 1716 007b 0B       		.uleb128 0xb
 1717 007c 49       		.uleb128 0x49
 1718 007d 13       		.uleb128 0x13
 1719 007e 00       		.byte	0
 1720 007f 00       		.byte	0
 1721 0080 0B       		.uleb128 0xb
 1722 0081 0F       		.uleb128 0xf
 1723 0082 00       		.byte	0
 1724 0083 0B       		.uleb128 0xb
 1725 0084 0B       		.uleb128 0xb
 1726 0085 00       		.byte	0
 1727 0086 00       		.byte	0
 1728 0087 0C       		.uleb128 0xc
 1729 0088 16       		.uleb128 0x16
 1730 0089 00       		.byte	0
 1731 008a 03       		.uleb128 0x3
 1732 008b 0E       		.uleb128 0xe
 1733 008c 3A       		.uleb128 0x3a
 1734 008d 0B       		.uleb128 0xb
 1735 008e 3B       		.uleb128 0x3b
 1736 008f 0B       		.uleb128 0xb
 1737 0090 49       		.uleb128 0x49
 1738 0091 13       		.uleb128 0x13
 1739 0092 8801     		.uleb128 0x88
 1740 0094 0B       		.uleb128 0xb
 1741 0095 00       		.byte	0
 1742 0096 00       		.byte	0
 1743 0097 0D       		.uleb128 0xd
 1744 0098 13       		.uleb128 0x13
 1745 0099 01       		.byte	0x1
 1746 009a 03       		.uleb128 0x3
 1747 009b 0E       		.uleb128 0xe
 1748 009c 0B       		.uleb128 0xb
 1749 009d 0B       		.uleb128 0xb
 1750 009e 3A       		.uleb128 0x3a
 1751 009f 0B       		.uleb128 0xb
 1752 00a0 3B       		.uleb128 0x3b
 1753 00a1 05       		.uleb128 0x5
 1754 00a2 01       		.uleb128 0x1
 1755 00a3 13       		.uleb128 0x13
 1756 00a4 00       		.byte	0
 1757 00a5 00       		.byte	0
 1758 00a6 0E       		.uleb128 0xe
 1759 00a7 0D       		.uleb128 0xd
 1760 00a8 00       		.byte	0
 1761 00a9 03       		.uleb128 0x3
 1762 00aa 08       		.uleb128 0x8
 1763 00ab 3A       		.uleb128 0x3a
 1764 00ac 0B       		.uleb128 0xb
 1765 00ad 3B       		.uleb128 0x3b
 1766 00ae 05       		.uleb128 0x5
 1767 00af 49       		.uleb128 0x49
ARM GAS  /tmp/cc2UVdBR.s 			page 32


 1768 00b0 13       		.uleb128 0x13
 1769 00b1 38       		.uleb128 0x38
 1770 00b2 0B       		.uleb128 0xb
 1771 00b3 00       		.byte	0
 1772 00b4 00       		.byte	0
 1773 00b5 0F       		.uleb128 0xf
 1774 00b6 13       		.uleb128 0x13
 1775 00b7 01       		.byte	0x1
 1776 00b8 0B       		.uleb128 0xb
 1777 00b9 05       		.uleb128 0x5
 1778 00ba 3A       		.uleb128 0x3a
 1779 00bb 0B       		.uleb128 0xb
 1780 00bc 3B       		.uleb128 0x3b
 1781 00bd 0B       		.uleb128 0xb
 1782 00be 01       		.uleb128 0x1
 1783 00bf 13       		.uleb128 0x13
 1784 00c0 00       		.byte	0
 1785 00c1 00       		.byte	0
 1786 00c2 10       		.uleb128 0x10
 1787 00c3 0D       		.uleb128 0xd
 1788 00c4 00       		.byte	0
 1789 00c5 03       		.uleb128 0x3
 1790 00c6 0E       		.uleb128 0xe
 1791 00c7 3A       		.uleb128 0x3a
 1792 00c8 0B       		.uleb128 0xb
 1793 00c9 3B       		.uleb128 0x3b
 1794 00ca 0B       		.uleb128 0xb
 1795 00cb 49       		.uleb128 0x49
 1796 00cc 13       		.uleb128 0x13
 1797 00cd 38       		.uleb128 0x38
 1798 00ce 05       		.uleb128 0x5
 1799 00cf 00       		.byte	0
 1800 00d0 00       		.byte	0
 1801 00d1 11       		.uleb128 0x11
 1802 00d2 0D       		.uleb128 0xd
 1803 00d3 00       		.byte	0
 1804 00d4 03       		.uleb128 0x3
 1805 00d5 08       		.uleb128 0x8
 1806 00d6 3A       		.uleb128 0x3a
 1807 00d7 0B       		.uleb128 0xb
 1808 00d8 3B       		.uleb128 0x3b
 1809 00d9 0B       		.uleb128 0xb
 1810 00da 49       		.uleb128 0x49
 1811 00db 13       		.uleb128 0x13
 1812 00dc 38       		.uleb128 0x38
 1813 00dd 05       		.uleb128 0x5
 1814 00de 00       		.byte	0
 1815 00df 00       		.byte	0
 1816 00e0 12       		.uleb128 0x12
 1817 00e1 01       		.uleb128 0x1
 1818 00e2 01       		.byte	0x1
 1819 00e3 49       		.uleb128 0x49
 1820 00e4 13       		.uleb128 0x13
 1821 00e5 01       		.uleb128 0x1
 1822 00e6 13       		.uleb128 0x13
 1823 00e7 00       		.byte	0
 1824 00e8 00       		.byte	0
ARM GAS  /tmp/cc2UVdBR.s 			page 33


 1825 00e9 13       		.uleb128 0x13
 1826 00ea 21       		.uleb128 0x21
 1827 00eb 00       		.byte	0
 1828 00ec 49       		.uleb128 0x49
 1829 00ed 13       		.uleb128 0x13
 1830 00ee 2F       		.uleb128 0x2f
 1831 00ef 0B       		.uleb128 0xb
 1832 00f0 00       		.byte	0
 1833 00f1 00       		.byte	0
 1834 00f2 14       		.uleb128 0x14
 1835 00f3 21       		.uleb128 0x21
 1836 00f4 00       		.byte	0
 1837 00f5 49       		.uleb128 0x49
 1838 00f6 13       		.uleb128 0x13
 1839 00f7 2F       		.uleb128 0x2f
 1840 00f8 05       		.uleb128 0x5
 1841 00f9 00       		.byte	0
 1842 00fa 00       		.byte	0
 1843 00fb 15       		.uleb128 0x15
 1844 00fc 15       		.uleb128 0x15
 1845 00fd 01       		.byte	0x1
 1846 00fe 27       		.uleb128 0x27
 1847 00ff 19       		.uleb128 0x19
 1848 0100 01       		.uleb128 0x1
 1849 0101 13       		.uleb128 0x13
 1850 0102 00       		.byte	0
 1851 0103 00       		.byte	0
 1852 0104 16       		.uleb128 0x16
 1853 0105 05       		.uleb128 0x5
 1854 0106 00       		.byte	0
 1855 0107 49       		.uleb128 0x49
 1856 0108 13       		.uleb128 0x13
 1857 0109 00       		.byte	0
 1858 010a 00       		.byte	0
 1859 010b 17       		.uleb128 0x17
 1860 010c 34       		.uleb128 0x34
 1861 010d 00       		.byte	0
 1862 010e 03       		.uleb128 0x3
 1863 010f 0E       		.uleb128 0xe
 1864 0110 3A       		.uleb128 0x3a
 1865 0111 0B       		.uleb128 0xb
 1866 0112 3B       		.uleb128 0x3b
 1867 0113 0B       		.uleb128 0xb
 1868 0114 49       		.uleb128 0x49
 1869 0115 13       		.uleb128 0x13
 1870 0116 3F       		.uleb128 0x3f
 1871 0117 19       		.uleb128 0x19
 1872 0118 3C       		.uleb128 0x3c
 1873 0119 19       		.uleb128 0x19
 1874 011a 00       		.byte	0
 1875 011b 00       		.byte	0
 1876 011c 18       		.uleb128 0x18
 1877 011d 17       		.uleb128 0x17
 1878 011e 01       		.byte	0x1
 1879 011f 0B       		.uleb128 0xb
 1880 0120 0B       		.uleb128 0xb
 1881 0121 3A       		.uleb128 0x3a
ARM GAS  /tmp/cc2UVdBR.s 			page 34


 1882 0122 0B       		.uleb128 0xb
 1883 0123 3B       		.uleb128 0x3b
 1884 0124 0B       		.uleb128 0xb
 1885 0125 01       		.uleb128 0x1
 1886 0126 13       		.uleb128 0x13
 1887 0127 00       		.byte	0
 1888 0128 00       		.byte	0
 1889 0129 19       		.uleb128 0x19
 1890 012a 0D       		.uleb128 0xd
 1891 012b 00       		.byte	0
 1892 012c 03       		.uleb128 0x3
 1893 012d 0E       		.uleb128 0xe
 1894 012e 3A       		.uleb128 0x3a
 1895 012f 0B       		.uleb128 0xb
 1896 0130 3B       		.uleb128 0x3b
 1897 0131 0B       		.uleb128 0xb
 1898 0132 49       		.uleb128 0x49
 1899 0133 13       		.uleb128 0x13
 1900 0134 00       		.byte	0
 1901 0135 00       		.byte	0
 1902 0136 1A       		.uleb128 0x1a
 1903 0137 26       		.uleb128 0x26
 1904 0138 00       		.byte	0
 1905 0139 49       		.uleb128 0x49
 1906 013a 13       		.uleb128 0x13
 1907 013b 00       		.byte	0
 1908 013c 00       		.byte	0
 1909 013d 1B       		.uleb128 0x1b
 1910 013e 01       		.uleb128 0x1
 1911 013f 01       		.byte	0x1
 1912 0140 49       		.uleb128 0x49
 1913 0141 13       		.uleb128 0x13
 1914 0142 8801     		.uleb128 0x88
 1915 0144 0B       		.uleb128 0xb
 1916 0145 01       		.uleb128 0x1
 1917 0146 13       		.uleb128 0x13
 1918 0147 00       		.byte	0
 1919 0148 00       		.byte	0
 1920 0149 1C       		.uleb128 0x1c
 1921 014a 2E       		.uleb128 0x2e
 1922 014b 01       		.byte	0x1
 1923 014c 3F       		.uleb128 0x3f
 1924 014d 19       		.uleb128 0x19
 1925 014e 03       		.uleb128 0x3
 1926 014f 0E       		.uleb128 0xe
 1927 0150 3A       		.uleb128 0x3a
 1928 0151 0B       		.uleb128 0xb
 1929 0152 3B       		.uleb128 0x3b
 1930 0153 0B       		.uleb128 0xb
 1931 0154 27       		.uleb128 0x27
 1932 0155 19       		.uleb128 0x19
 1933 0156 11       		.uleb128 0x11
 1934 0157 01       		.uleb128 0x1
 1935 0158 12       		.uleb128 0x12
 1936 0159 06       		.uleb128 0x6
 1937 015a 40       		.uleb128 0x40
 1938 015b 18       		.uleb128 0x18
ARM GAS  /tmp/cc2UVdBR.s 			page 35


 1939 015c 9742     		.uleb128 0x2117
 1940 015e 19       		.uleb128 0x19
 1941 015f 01       		.uleb128 0x1
 1942 0160 13       		.uleb128 0x13
 1943 0161 00       		.byte	0
 1944 0162 00       		.byte	0
 1945 0163 1D       		.uleb128 0x1d
 1946 0164 05       		.uleb128 0x5
 1947 0165 00       		.byte	0
 1948 0166 03       		.uleb128 0x3
 1949 0167 0E       		.uleb128 0xe
 1950 0168 3A       		.uleb128 0x3a
 1951 0169 0B       		.uleb128 0xb
 1952 016a 3B       		.uleb128 0x3b
 1953 016b 0B       		.uleb128 0xb
 1954 016c 49       		.uleb128 0x49
 1955 016d 13       		.uleb128 0x13
 1956 016e 02       		.uleb128 0x2
 1957 016f 17       		.uleb128 0x17
 1958 0170 00       		.byte	0
 1959 0171 00       		.byte	0
 1960 0172 1E       		.uleb128 0x1e
 1961 0173 34       		.uleb128 0x34
 1962 0174 00       		.byte	0
 1963 0175 03       		.uleb128 0x3
 1964 0176 08       		.uleb128 0x8
 1965 0177 3A       		.uleb128 0x3a
 1966 0178 0B       		.uleb128 0xb
 1967 0179 3B       		.uleb128 0x3b
 1968 017a 0B       		.uleb128 0xb
 1969 017b 49       		.uleb128 0x49
 1970 017c 13       		.uleb128 0x13
 1971 017d 02       		.uleb128 0x2
 1972 017e 17       		.uleb128 0x17
 1973 017f 00       		.byte	0
 1974 0180 00       		.byte	0
 1975 0181 1F       		.uleb128 0x1f
 1976 0182 05       		.uleb128 0x5
 1977 0183 00       		.byte	0
 1978 0184 03       		.uleb128 0x3
 1979 0185 08       		.uleb128 0x8
 1980 0186 3A       		.uleb128 0x3a
 1981 0187 0B       		.uleb128 0xb
 1982 0188 3B       		.uleb128 0x3b
 1983 0189 0B       		.uleb128 0xb
 1984 018a 49       		.uleb128 0x49
 1985 018b 13       		.uleb128 0x13
 1986 018c 02       		.uleb128 0x2
 1987 018d 17       		.uleb128 0x17
 1988 018e 00       		.byte	0
 1989 018f 00       		.byte	0
 1990 0190 20       		.uleb128 0x20
 1991 0191 2E       		.uleb128 0x2e
 1992 0192 01       		.byte	0x1
 1993 0193 3F       		.uleb128 0x3f
 1994 0194 19       		.uleb128 0x19
 1995 0195 03       		.uleb128 0x3
ARM GAS  /tmp/cc2UVdBR.s 			page 36


 1996 0196 0E       		.uleb128 0xe
 1997 0197 3A       		.uleb128 0x3a
 1998 0198 0B       		.uleb128 0xb
 1999 0199 3B       		.uleb128 0x3b
 2000 019a 0B       		.uleb128 0xb
 2001 019b 27       		.uleb128 0x27
 2002 019c 19       		.uleb128 0x19
 2003 019d 11       		.uleb128 0x11
 2004 019e 01       		.uleb128 0x1
 2005 019f 12       		.uleb128 0x12
 2006 01a0 06       		.uleb128 0x6
 2007 01a1 40       		.uleb128 0x40
 2008 01a2 18       		.uleb128 0x18
 2009 01a3 9742     		.uleb128 0x2117
 2010 01a5 19       		.uleb128 0x19
 2011 01a6 00       		.byte	0
 2012 01a7 00       		.byte	0
 2013 01a8 00       		.byte	0
 2014              		.section	.debug_loc,"",%progbits
 2015              	.Ldebug_loc0:
 2016              	.LLST5:
 2017 0000 00000000 		.4byte	.LVL9
 2018 0004 10000000 		.4byte	.LVL10
 2019 0008 0100     		.2byte	0x1
 2020 000a 50       		.byte	0x50
 2021 000b 10000000 		.4byte	.LVL10
 2022 000f 2A000000 		.4byte	.LFE9
 2023 0013 0400     		.2byte	0x4
 2024 0015 F3       		.byte	0xf3
 2025 0016 01       		.uleb128 0x1
 2026 0017 50       		.byte	0x50
 2027 0018 9F       		.byte	0x9f
 2028 0019 00000000 		.4byte	0
 2029 001d 00000000 		.4byte	0
 2030              	.LLST6:
 2031 0021 00000000 		.4byte	.LVL9
 2032 0025 1C000000 		.4byte	.LVL12
 2033 0029 0100     		.2byte	0x1
 2034 002b 51       		.byte	0x51
 2035 002c 1C000000 		.4byte	.LVL12
 2036 0030 2A000000 		.4byte	.LFE9
 2037 0034 0400     		.2byte	0x4
 2038 0036 F3       		.byte	0xf3
 2039 0037 01       		.uleb128 0x1
 2040 0038 51       		.byte	0x51
 2041 0039 9F       		.byte	0x9f
 2042 003a 00000000 		.4byte	0
 2043 003e 00000000 		.4byte	0
 2044              	.LLST7:
 2045 0042 14000000 		.4byte	.LVL11
 2046 0046 20000000 		.4byte	.LVL13
 2047 004a 0100     		.2byte	0x1
 2048 004c 50       		.byte	0x50
 2049 004d 20000000 		.4byte	.LVL13
 2050 0051 2A000000 		.4byte	.LFE9
 2051 0055 0800     		.2byte	0x8
 2052 0057 F3       		.byte	0xf3
ARM GAS  /tmp/cc2UVdBR.s 			page 37


 2053 0058 01       		.uleb128 0x1
 2054 0059 50       		.byte	0x50
 2055 005a 33       		.byte	0x33
 2056 005b 1A       		.byte	0x1a
 2057 005c 33       		.byte	0x33
 2058 005d 24       		.byte	0x24
 2059 005e 9F       		.byte	0x9f
 2060 005f 00000000 		.4byte	0
 2061 0063 00000000 		.4byte	0
 2062              	.LLST3:
 2063 0067 00000000 		.4byte	.LVL5
 2064 006b 22000000 		.4byte	.LVL6
 2065 006f 0100     		.2byte	0x1
 2066 0071 50       		.byte	0x50
 2067 0072 22000000 		.4byte	.LVL6
 2068 0076 40000000 		.4byte	.LFE8
 2069 007a 0400     		.2byte	0x4
 2070 007c F3       		.byte	0xf3
 2071 007d 01       		.uleb128 0x1
 2072 007e 50       		.byte	0x50
 2073 007f 9F       		.byte	0x9f
 2074 0080 00000000 		.4byte	0
 2075 0084 00000000 		.4byte	0
 2076              	.LLST4:
 2077 0088 00000000 		.4byte	.LVL5
 2078 008c 22000000 		.4byte	.LVL6
 2079 0090 0700     		.2byte	0x7
 2080 0092 70       		.byte	0x70
 2081 0093 00       		.sleb128 0
 2082 0094 33       		.byte	0x33
 2083 0095 24       		.byte	0x24
 2084 0096 48       		.byte	0x48
 2085 0097 1A       		.byte	0x1a
 2086 0098 9F       		.byte	0x9f
 2087 0099 22000000 		.4byte	.LVL6
 2088 009d 2A000000 		.4byte	.LVL7
 2089 00a1 0800     		.2byte	0x8
 2090 00a3 F3       		.byte	0xf3
 2091 00a4 01       		.uleb128 0x1
 2092 00a5 50       		.byte	0x50
 2093 00a6 33       		.byte	0x33
 2094 00a7 24       		.byte	0x24
 2095 00a8 48       		.byte	0x48
 2096 00a9 1A       		.byte	0x1a
 2097 00aa 9F       		.byte	0x9f
 2098 00ab 2A000000 		.4byte	.LVL7
 2099 00af 30000000 		.4byte	.LVL8
 2100 00b3 0100     		.2byte	0x1
 2101 00b5 50       		.byte	0x50
 2102 00b6 30000000 		.4byte	.LVL8
 2103 00ba 40000000 		.4byte	.LFE8
 2104 00be 0800     		.2byte	0x8
 2105 00c0 F3       		.byte	0xf3
 2106 00c1 01       		.uleb128 0x1
 2107 00c2 50       		.byte	0x50
 2108 00c3 33       		.byte	0x33
 2109 00c4 24       		.byte	0x24
ARM GAS  /tmp/cc2UVdBR.s 			page 38


 2110 00c5 48       		.byte	0x48
 2111 00c6 1A       		.byte	0x1a
 2112 00c7 9F       		.byte	0x9f
 2113 00c8 00000000 		.4byte	0
 2114 00cc 00000000 		.4byte	0
 2115              	.LLST0:
 2116 00d0 00000000 		.4byte	.LVL0
 2117 00d4 34000000 		.4byte	.LVL4
 2118 00d8 0100     		.2byte	0x1
 2119 00da 50       		.byte	0x50
 2120 00db 34000000 		.4byte	.LVL4
 2121 00df 48000000 		.4byte	.LFE7
 2122 00e3 0400     		.2byte	0x4
 2123 00e5 F3       		.byte	0xf3
 2124 00e6 01       		.uleb128 0x1
 2125 00e7 50       		.byte	0x50
 2126 00e8 9F       		.byte	0x9f
 2127 00e9 00000000 		.4byte	0
 2128 00ed 00000000 		.4byte	0
 2129              	.LLST1:
 2130 00f1 00000000 		.4byte	.LVL0
 2131 00f5 26000000 		.4byte	.LVL2
 2132 00f9 0100     		.2byte	0x1
 2133 00fb 51       		.byte	0x51
 2134 00fc 26000000 		.4byte	.LVL2
 2135 0100 48000000 		.4byte	.LFE7
 2136 0104 0400     		.2byte	0x4
 2137 0106 F3       		.byte	0xf3
 2138 0107 01       		.uleb128 0x1
 2139 0108 51       		.byte	0x51
 2140 0109 9F       		.byte	0x9f
 2141 010a 00000000 		.4byte	0
 2142 010e 00000000 		.4byte	0
 2143              	.LLST2:
 2144 0112 1A000000 		.4byte	.LVL1
 2145 0116 30000000 		.4byte	.LVL3
 2146 011a 0100     		.2byte	0x1
 2147 011c 54       		.byte	0x54
 2148 011d 30000000 		.4byte	.LVL3
 2149 0121 34000000 		.4byte	.LVL4
 2150 0125 0700     		.2byte	0x7
 2151 0127 70       		.byte	0x70
 2152 0128 00       		.sleb128 0
 2153 0129 33       		.byte	0x33
 2154 012a 24       		.byte	0x24
 2155 012b 48       		.byte	0x48
 2156 012c 1A       		.byte	0x1a
 2157 012d 9F       		.byte	0x9f
 2158 012e 34000000 		.4byte	.LVL4
 2159 0132 48000000 		.4byte	.LFE7
 2160 0136 0800     		.2byte	0x8
 2161 0138 F3       		.byte	0xf3
 2162 0139 01       		.uleb128 0x1
 2163 013a 50       		.byte	0x50
 2164 013b 33       		.byte	0x33
 2165 013c 24       		.byte	0x24
 2166 013d 48       		.byte	0x48
ARM GAS  /tmp/cc2UVdBR.s 			page 39


 2167 013e 1A       		.byte	0x1a
 2168 013f 9F       		.byte	0x9f
 2169 0140 00000000 		.4byte	0
 2170 0144 00000000 		.4byte	0
 2171              		.section	.debug_aranges,"",%progbits
 2172 0000 2C000000 		.4byte	0x2c
 2173 0004 0200     		.2byte	0x2
 2174 0006 00000000 		.4byte	.Ldebug_info0
 2175 000a 04       		.byte	0x4
 2176 000b 00       		.byte	0
 2177 000c 0000     		.2byte	0
 2178 000e 0000     		.2byte	0
 2179 0010 00000000 		.4byte	.LFB7
 2180 0014 48000000 		.4byte	.LFE7-.LFB7
 2181 0018 00000000 		.4byte	.LFB8
 2182 001c 40000000 		.4byte	.LFE8-.LFB8
 2183 0020 00000000 		.4byte	.LFB9
 2184 0024 2A000000 		.4byte	.LFE9-.LFB9
 2185 0028 00000000 		.4byte	0
 2186 002c 00000000 		.4byte	0
 2187              		.section	.debug_ranges,"",%progbits
 2188              	.Ldebug_ranges0:
 2189 0000 00000000 		.4byte	.LFB7
 2190 0004 48000000 		.4byte	.LFE7
 2191 0008 00000000 		.4byte	.LFB8
 2192 000c 40000000 		.4byte	.LFE8
 2193 0010 00000000 		.4byte	.LFB9
 2194 0014 2A000000 		.4byte	.LFE9
 2195 0018 00000000 		.4byte	0
 2196 001c 00000000 		.4byte	0
 2197              		.section	.debug_line,"",%progbits
 2198              	.Ldebug_line0:
 2199 0000 C0010000 		.section	.debug_str,"MS",%progbits,1
 2199      02007001 
 2199      00000201 
 2199      FB0E0D00 
 2199      01010101 
 2200              	.LASF62:
 2201 0000 49435052 		.ascii	"ICPR\000"
 2201      00
 2202              	.LASF153:
 2203 0005 6E766963 		.ascii	"nvicEnableVector\000"
 2203      456E6162 
 2203      6C655665 
 2203      63746F72 
 2203      00
 2204              	.LASF45:
 2205 0016 705F6D73 		.ascii	"p_msg\000"
 2205      6700
 2206              	.LASF63:
 2207 001c 756E7573 		.ascii	"unused4\000"
 2207      65643400 
 2208              	.LASF65:
 2209 0024 756E7573 		.ascii	"unused5\000"
 2209      65643500 
 2210              	.LASF66:
 2211 002c 756E7573 		.ascii	"unused6\000"
ARM GAS  /tmp/cc2UVdBR.s 			page 40


 2211      65643600 
 2212              	.LASF146:
 2213 0034 7072696F 		.ascii	"prio\000"
 2213      00
 2214              	.LASF106:
 2215 0039 7264796D 		.ascii	"rdymsg\000"
 2215      736700
 2216              	.LASF18:
 2217 0040 75696E74 		.ascii	"uint64_t\000"
 2217      36345F74 
 2217      00
 2218              	.LASF4:
 2219 0049 5F5F7569 		.ascii	"__uint8_t\000"
 2219      6E74385F 
 2219      7400
 2220              	.LASF83:
 2221 0053 434D785F 		.ascii	"CMx_SCB\000"
 2221      53434200 
 2222              	.LASF117:
 2223 005b 63685F74 		.ascii	"ch_threadsize\000"
 2223      68726561 
 2223      6473697A 
 2223      6500
 2224              	.LASF100:
 2225 0069 76746C69 		.ascii	"vtlist\000"
 2225      737400
 2226              	.LASF149:
 2227 0070 474E5520 		.ascii	"GNU C99 7.3.1 20180622 (release) [ARM/embedded-7-br"
 2227      43393920 
 2227      372E332E 
 2227      31203230 
 2227      31383036 
 2228 00a3 616E6368 		.ascii	"anch revision 261907] -mcpu=cortex-m4 -mfloat-abi=h"
 2228      20726576 
 2228      6973696F 
 2228      6E203236 
 2228      31393037 
 2229 00d6 61726420 		.ascii	"ard -mfpu=fpv4-sp-d16 -mno-thumb-interwork -mthumb "
 2229      2D6D6670 
 2229      753D6670 
 2229      76342D73 
 2229      702D6431 
 2230 0109 2D676764 		.ascii	"-ggdb -O2 -std=gnu99 -fomit-frame-pointer -falign-f"
 2230      62202D4F 
 2230      32202D73 
 2230      74643D67 
 2230      6E753939 
 2231 013c 756E6374 		.ascii	"unctions=16 -ffunction-sections -fdata-sections -fn"
 2231      696F6E73 
 2231      3D313620 
 2231      2D666675 
 2231      6E637469 
 2232 016f 6F2D636F 		.ascii	"o-common -fsingle-precision-constant\000"
 2232      6D6D6F6E 
 2232      202D6673 
 2232      696E676C 
 2232      652D7072 
ARM GAS  /tmp/cc2UVdBR.s 			page 41


 2233              	.LASF13:
 2234 0194 6C6F6E67 		.ascii	"long long unsigned int\000"
 2234      206C6F6E 
 2234      6720756E 
 2234      7369676E 
 2234      65642069 
 2235              	.LASF139:
 2236 01ab 63685F74 		.ascii	"ch_trace_buffer_t\000"
 2236      72616365 
 2236      5F627566 
 2236      6665725F 
 2236      7400
 2237              	.LASF60:
 2238 01bd 49535052 		.ascii	"ISPR\000"
 2238      00
 2239              	.LASF32:
 2240 01c2 705F7072 		.ascii	"p_prio\000"
 2240      696F00
 2241              	.LASF124:
 2242 01c9 63665F6F 		.ascii	"cf_off_state\000"
 2242      66665F73 
 2242      74617465 
 2242      00
 2243              	.LASF132:
 2244 01d6 73655F74 		.ascii	"se_tp\000"
 2244      7000
 2245              	.LASF91:
 2246 01dc 76745F73 		.ascii	"vt_systime\000"
 2246      79737469 
 2246      6D6500
 2247              	.LASF11:
 2248 01e7 6C6F6E67 		.ascii	"long long int\000"
 2248      206C6F6E 
 2248      6720696E 
 2248      7400
 2249              	.LASF1:
 2250 01f5 7369676E 		.ascii	"signed char\000"
 2250      65642063 
 2250      68617200 
 2251              	.LASF123:
 2252 0201 63665F6F 		.ascii	"cf_off_stklimit\000"
 2252      66665F73 
 2252      746B6C69 
 2252      6D697400 
 2253              	.LASF125:
 2254 0211 63665F6F 		.ascii	"cf_off_flags\000"
 2254      66665F66 
 2254      6C616773 
 2254      00
 2255              	.LASF49:
 2256 021e 705F6D70 		.ascii	"p_mpool\000"
 2256      6F6F6C00 
 2257              	.LASF103:
 2258 0226 6D5F7175 		.ascii	"m_queue\000"
 2258      65756500 
 2259              	.LASF23:
 2260 022e 74736C69 		.ascii	"tslices_t\000"
ARM GAS  /tmp/cc2UVdBR.s 			page 42


 2260      6365735F 
 2260      7400
 2261              	.LASF8:
 2262 0238 6C6F6E67 		.ascii	"long int\000"
 2262      20696E74 
 2262      00
 2263              	.LASF21:
 2264 0241 74737461 		.ascii	"tstate_t\000"
 2264      74655F74 
 2264      00
 2265              	.LASF15:
 2266 024a 75696E74 		.ascii	"uint16_t\000"
 2266      31365F74 
 2266      00
 2267              	.LASF129:
 2268 0253 63686465 		.ascii	"chdebug_t\000"
 2268      6275675F 
 2268      7400
 2269              	.LASF34:
 2270 025d 705F6E65 		.ascii	"p_newer\000"
 2270      77657200 
 2271              	.LASF144:
 2272 0265 5F69646C 		.ascii	"_idle_thread_wa\000"
 2272      655F7468 
 2272      72656164 
 2272      5F776100 
 2273              	.LASF79:
 2274 0275 42464152 		.ascii	"BFAR\000"
 2274      00
 2275              	.LASF107:
 2276 027a 65786974 		.ascii	"exitcode\000"
 2276      636F6465 
 2276      00
 2277              	.LASF80:
 2278 0283 41465352 		.ascii	"AFSR\000"
 2278      00
 2279              	.LASF9:
 2280 0288 5F5F7569 		.ascii	"__uint32_t\000"
 2280      6E743332 
 2280      5F7400
 2281              	.LASF52:
 2282 0293 72656761 		.ascii	"regarm_t\000"
 2282      726D5F74 
 2282      00
 2283              	.LASF87:
 2284 029c 76745F70 		.ascii	"vt_prev\000"
 2284      72657600 
 2285              	.LASF131:
 2286 02a4 73655F74 		.ascii	"se_time\000"
 2286      696D6500 
 2287              	.LASF28:
 2288 02ac 636E745F 		.ascii	"cnt_t\000"
 2288      7400
 2289              	.LASF37:
 2290 02b2 705F7374 		.ascii	"p_stklimit\000"
 2290      6B6C696D 
 2290      697400
ARM GAS  /tmp/cc2UVdBR.s 			page 43


 2291              	.LASF0:
 2292 02bd 756E7369 		.ascii	"unsigned int\000"
 2292      676E6564 
 2292      20696E74 
 2292      00
 2293              	.LASF86:
 2294 02ca 76745F6E 		.ascii	"vt_next\000"
 2294      65787400 
 2295              	.LASF148:
 2296 02d2 6E766963 		.ascii	"nvicDisableVector\000"
 2296      44697361 
 2296      626C6556 
 2296      6563746F 
 2296      7200
 2297              	.LASF121:
 2298 02e4 63665F6F 		.ascii	"cf_off_older\000"
 2298      66665F6F 
 2298      6C646572 
 2298      00
 2299              	.LASF10:
 2300 02f1 6C6F6E67 		.ascii	"long unsigned int\000"
 2300      20756E73 
 2300      69676E65 
 2300      6420696E 
 2300      7400
 2301              	.LASF130:
 2302 0303 63685F64 		.ascii	"ch_debug\000"
 2302      65627567 
 2302      00
 2303              	.LASF116:
 2304 030c 63685F74 		.ascii	"ch_timesize\000"
 2304      696D6573 
 2304      697A6500 
 2305              	.LASF84:
 2306 0318 76746675 		.ascii	"vtfunc_t\000"
 2306      6E635F74 
 2306      00
 2307              	.LASF71:
 2308 0321 56544F52 		.ascii	"VTOR\000"
 2308      00
 2309              	.LASF85:
 2310 0326 56697274 		.ascii	"VirtualTimer\000"
 2310      75616C54 
 2310      696D6572 
 2310      00
 2311              	.LASF54:
 2312 0333 636F6E74 		.ascii	"context\000"
 2312      65787400 
 2313              	.LASF6:
 2314 033b 73686F72 		.ascii	"short unsigned int\000"
 2314      7420756E 
 2314      7369676E 
 2314      65642069 
 2314      6E7400
 2315              	.LASF70:
 2316 034e 49435352 		.ascii	"ICSR\000"
 2316      00
ARM GAS  /tmp/cc2UVdBR.s 			page 44


 2317              	.LASF150:
 2318 0353 43686962 		.ascii	"ChibiOS_2.6.6/os/ports/common/ARMCMx/nvic.c\000"
 2318      694F535F 
 2318      322E362E 
 2318      362F6F73 
 2318      2F706F72 
 2319              	.LASF25:
 2320 037f 6D73675F 		.ascii	"msg_t\000"
 2320      7400
 2321              	.LASF72:
 2322 0385 41495243 		.ascii	"AIRCR\000"
 2322      5200
 2323              	.LASF77:
 2324 038b 44465352 		.ascii	"DFSR\000"
 2324      00
 2325              	.LASF96:
 2326 0390 725F6E65 		.ascii	"r_newer\000"
 2326      77657200 
 2327              	.LASF78:
 2328 0398 4D4D4641 		.ascii	"MMFAR\000"
 2328      5200
 2329              	.LASF151:
 2330 039e 2F686F6D 		.ascii	"/home/renan/BLDC/bldc-bootloader\000"
 2330      652F7265 
 2330      6E616E2F 
 2330      424C4443 
 2330      2F626C64 
 2331              	.LASF20:
 2332 03bf 746D6F64 		.ascii	"tmode_t\000"
 2332      655F7400 
 2333              	.LASF141:
 2334 03c7 6462675F 		.ascii	"dbg_isr_cnt\000"
 2334      6973725F 
 2334      636E7400 
 2335              	.LASF51:
 2336 03d3 54687265 		.ascii	"ThreadsList\000"
 2336      6164734C 
 2336      69737400 
 2337              	.LASF26:
 2338 03df 6576656E 		.ascii	"eventmask_t\000"
 2338      746D6173 
 2338      6B5F7400 
 2339              	.LASF102:
 2340 03eb 4D757465 		.ascii	"Mutex\000"
 2340      7800
 2341              	.LASF152:
 2342 03f1 73746B61 		.ascii	"stkalign_t\000"
 2342      6C69676E 
 2342      5F7400
 2343              	.LASF145:
 2344 03fc 68616E64 		.ascii	"handler\000"
 2344      6C657200 
 2345              	.LASF136:
 2346 0404 74625F73 		.ascii	"tb_size\000"
 2346      697A6500 
 2347              	.LASF112:
 2348 040c 63685F7A 		.ascii	"ch_zero\000"
ARM GAS  /tmp/cc2UVdBR.s 			page 45


 2348      65726F00 
 2349              	.LASF126:
 2350 0414 63665F6F 		.ascii	"cf_off_refs\000"
 2350      66665F72 
 2350      65667300 
 2351              	.LASF68:
 2352 0420 434D785F 		.ascii	"CMx_NVIC\000"
 2352      4E564943 
 2352      00
 2353              	.LASF88:
 2354 0429 76745F74 		.ascii	"vt_time\000"
 2354      696D6500 
 2355              	.LASF137:
 2356 0431 74625F70 		.ascii	"tb_ptr\000"
 2356      747200
 2357              	.LASF89:
 2358 0438 76745F66 		.ascii	"vt_func\000"
 2358      756E6300 
 2359              	.LASF75:
 2360 0440 43465352 		.ascii	"CFSR\000"
 2360      00
 2361              	.LASF64:
 2362 0445 49414252 		.ascii	"IABR\000"
 2362      00
 2363              	.LASF135:
 2364 044a 63685F73 		.ascii	"ch_swc_event_t\000"
 2364      77635F65 
 2364      76656E74 
 2364      5F7400
 2365              	.LASF122:
 2366 0459 63665F6F 		.ascii	"cf_off_name\000"
 2366      66665F6E 
 2366      616D6500 
 2367              	.LASF35:
 2368 0465 705F6F6C 		.ascii	"p_older\000"
 2368      64657200 
 2369              	.LASF95:
 2370 046d 725F6374 		.ascii	"r_ctx\000"
 2370      7800
 2371              	.LASF50:
 2372 0473 54687265 		.ascii	"ThreadsQueue\000"
 2372      61647351 
 2372      75657565 
 2372      00
 2373              	.LASF113:
 2374 0480 63685F73 		.ascii	"ch_size\000"
 2374      697A6500 
 2375              	.LASF58:
 2376 0488 49434552 		.ascii	"ICER\000"
 2376      00
 2377              	.LASF111:
 2378 048d 63685F69 		.ascii	"ch_identifier\000"
 2378      64656E74 
 2378      69666965 
 2378      7200
 2379              	.LASF98:
 2380 049b 725F6375 		.ascii	"r_current\000"
ARM GAS  /tmp/cc2UVdBR.s 			page 46


 2380      7272656E 
 2380      7400
 2381              	.LASF97:
 2382 04a5 725F6F6C 		.ascii	"r_older\000"
 2382      64657200 
 2383              	.LASF12:
 2384 04ad 5F5F7569 		.ascii	"__uint64_t\000"
 2384      6E743634 
 2384      5F7400
 2385              	.LASF69:
 2386 04b8 43505549 		.ascii	"CPUID\000"
 2386      4400
 2387              	.LASF140:
 2388 04be 6462675F 		.ascii	"dbg_trace_buffer\000"
 2388      74726163 
 2388      655F6275 
 2388      66666572 
 2388      00
 2389              	.LASF22:
 2390 04cf 74726566 		.ascii	"trefs_t\000"
 2390      735F7400 
 2391              	.LASF138:
 2392 04d7 74625F62 		.ascii	"tb_buffer\000"
 2392      75666665 
 2392      7200
 2393              	.LASF115:
 2394 04e1 63685F70 		.ascii	"ch_ptrsize\000"
 2394      74727369 
 2394      7A6500
 2395              	.LASF31:
 2396 04ec 705F7072 		.ascii	"p_prev\000"
 2396      657600
 2397              	.LASF24:
 2398 04f3 74707269 		.ascii	"tprio_t\000"
 2398      6F5F7400 
 2399              	.LASF19:
 2400 04fb 5F426F6F 		.ascii	"_Bool\000"
 2400      6C00
 2401              	.LASF16:
 2402 0501 696E7433 		.ascii	"int32_t\000"
 2402      325F7400 
 2403              	.LASF2:
 2404 0509 756E7369 		.ascii	"unsigned char\000"
 2404      676E6564 
 2404      20636861 
 2404      7200
 2405              	.LASF143:
 2406 0517 6462675F 		.ascii	"dbg_panic_msg\000"
 2406      70616E69 
 2406      635F6D73 
 2406      6700
 2407              	.LASF74:
 2408 0525 53484353 		.ascii	"SHCSR\000"
 2408      5200
 2409              	.LASF47:
 2410 052b 705F6D74 		.ascii	"p_mtxlist\000"
 2410      786C6973 
ARM GAS  /tmp/cc2UVdBR.s 			page 47


 2410      7400
 2411              	.LASF3:
 2412 0535 73686F72 		.ascii	"short int\000"
 2412      7420696E 
 2412      7400
 2413              	.LASF38:
 2414 053f 705F7374 		.ascii	"p_state\000"
 2414      61746500 
 2415              	.LASF41:
 2416 0547 705F7072 		.ascii	"p_preempt\000"
 2416      65656D70 
 2416      7400
 2417              	.LASF128:
 2418 0551 63665F6F 		.ascii	"cf_off_time\000"
 2418      66665F74 
 2418      696D6500 
 2419              	.LASF147:
 2420 055d 6E766963 		.ascii	"nvicSetSystemHandlerPriority\000"
 2420      53657453 
 2420      79737465 
 2420      6D48616E 
 2420      646C6572 
 2421              	.LASF94:
 2422 057a 725F7072 		.ascii	"r_prio\000"
 2422      696F00
 2423              	.LASF109:
 2424 0581 65776D61 		.ascii	"ewmask\000"
 2424      736B00
 2425              	.LASF30:
 2426 0588 705F6E65 		.ascii	"p_next\000"
 2426      787400
 2427              	.LASF127:
 2428 058f 63665F6F 		.ascii	"cf_off_preempt\000"
 2428      66665F70 
 2428      7265656D 
 2428      707400
 2429              	.LASF39:
 2430 059e 705F666C 		.ascii	"p_flags\000"
 2430      61677300 
 2431              	.LASF29:
 2432 05a6 54687265 		.ascii	"Thread\000"
 2432      616400
 2433              	.LASF120:
 2434 05ad 63665F6F 		.ascii	"cf_off_newer\000"
 2434      66665F6E 
 2434      65776572 
 2434      00
 2435              	.LASF46:
 2436 05ba 705F6570 		.ascii	"p_epending\000"
 2436      656E6469 
 2436      6E6700
 2437              	.LASF17:
 2438 05c5 75696E74 		.ascii	"uint32_t\000"
 2438      33325F74 
 2438      00
 2439              	.LASF118:
 2440 05ce 63665F6F 		.ascii	"cf_off_prio\000"
ARM GAS  /tmp/cc2UVdBR.s 			page 48


 2440      66665F70 
 2440      72696F00 
 2441              	.LASF93:
 2442 05da 725F7175 		.ascii	"r_queue\000"
 2442      65756500 
 2443              	.LASF57:
 2444 05e2 756E7573 		.ascii	"unused1\000"
 2444      65643100 
 2445              	.LASF59:
 2446 05ea 756E7573 		.ascii	"unused2\000"
 2446      65643200 
 2447              	.LASF61:
 2448 05f2 756E7573 		.ascii	"unused3\000"
 2448      65643300 
 2449              	.LASF110:
 2450 05fa 63686172 		.ascii	"char\000"
 2450      00
 2451              	.LASF55:
 2452 05ff 494F5245 		.ascii	"IOREG32\000"
 2452      47333200 
 2453              	.LASF5:
 2454 0607 5F5F7569 		.ascii	"__uint16_t\000"
 2454      6E743136 
 2454      5F7400
 2455              	.LASF56:
 2456 0612 49534552 		.ascii	"ISER\000"
 2456      00
 2457              	.LASF105:
 2458 0617 6D5F6E65 		.ascii	"m_next\000"
 2458      787400
 2459              	.LASF27:
 2460 061e 73797374 		.ascii	"systime_t\000"
 2460      696D655F 
 2460      7400
 2461              	.LASF48:
 2462 0628 705F7265 		.ascii	"p_realprio\000"
 2462      616C7072 
 2462      696F00
 2463              	.LASF7:
 2464 0633 5F5F696E 		.ascii	"__int32_t\000"
 2464      7433325F 
 2464      7400
 2465              	.LASF142:
 2466 063d 6462675F 		.ascii	"dbg_lock_cnt\000"
 2466      6C6F636B 
 2466      5F636E74 
 2466      00
 2467              	.LASF42:
 2468 064a 705F7469 		.ascii	"p_time\000"
 2468      6D6500
 2469              	.LASF73:
 2470 0651 53485052 		.ascii	"SHPR\000"
 2470      00
 2471              	.LASF53:
 2472 0656 696E7463 		.ascii	"intctx\000"
 2472      747800
 2473              	.LASF44:
ARM GAS  /tmp/cc2UVdBR.s 			page 49


 2474 065d 705F6D73 		.ascii	"p_msgqueue\000"
 2474      67717565 
 2474      756500
 2475              	.LASF90:
 2476 0668 76745F70 		.ascii	"vt_par\000"
 2476      617200
 2477              	.LASF119:
 2478 066f 63665F6F 		.ascii	"cf_off_ctx\000"
 2478      66665F63 
 2478      747800
 2479              	.LASF40:
 2480 067a 705F7265 		.ascii	"p_refs\000"
 2480      667300
 2481              	.LASF99:
 2482 0681 52656164 		.ascii	"ReadyList\000"
 2482      794C6973 
 2482      7400
 2483              	.LASF134:
 2484 068b 73655F73 		.ascii	"se_state\000"
 2484      74617465 
 2484      00
 2485              	.LASF81:
 2486 0694 4D4D4652 		.ascii	"MMFR\000"
 2486      00
 2487              	.LASF101:
 2488 0699 726C6973 		.ascii	"rlist\000"
 2488      7400
 2489              	.LASF14:
 2490 069f 75696E74 		.ascii	"uint8_t\000"
 2490      385F7400 
 2491              	.LASF67:
 2492 06a7 53544952 		.ascii	"STIR\000"
 2492      00
 2493              	.LASF108:
 2494 06ac 77746F62 		.ascii	"wtobjp\000"
 2494      6A7000
 2495              	.LASF36:
 2496 06b3 705F6E61 		.ascii	"p_name\000"
 2496      6D6500
 2497              	.LASF114:
 2498 06ba 63685F76 		.ascii	"ch_version\000"
 2498      65727369 
 2498      6F6E00
 2499              	.LASF92:
 2500 06c5 56544C69 		.ascii	"VTList\000"
 2500      737400
 2501              	.LASF82:
 2502 06cc 43504143 		.ascii	"CPACR\000"
 2502      5200
 2503              	.LASF76:
 2504 06d2 48465352 		.ascii	"HFSR\000"
 2504      00
 2505              	.LASF104:
 2506 06d7 6D5F6F77 		.ascii	"m_owner\000"
 2506      6E657200 
 2507              	.LASF133:
 2508 06df 73655F77 		.ascii	"se_wtobjp\000"
ARM GAS  /tmp/cc2UVdBR.s 			page 50


 2508      746F626A 
 2508      7000
 2509              	.LASF33:
 2510 06e9 705F6374 		.ascii	"p_ctx\000"
 2510      7800
 2511              	.LASF43:
 2512 06ef 705F7761 		.ascii	"p_waiting\000"
 2512      6974696E 
 2512      6700
 2513              		.ident	"GCC: (GNU Tools for Arm Embedded Processors 7-2018-q3-update) 7.3.1 20180622 (release) [AR
ARM GAS  /tmp/cc2UVdBR.s 			page 51


DEFINED SYMBOLS
                            *ABS*:0000000000000000 nvic.c
     /tmp/cc2UVdBR.s:18     .text.nvicEnableVector:0000000000000000 $t
     /tmp/cc2UVdBR.s:26     .text.nvicEnableVector:0000000000000000 nvicEnableVector
     /tmp/cc2UVdBR.s:86     .text.nvicDisableVector:0000000000000000 $t
     /tmp/cc2UVdBR.s:94     .text.nvicDisableVector:0000000000000000 nvicDisableVector
     /tmp/cc2UVdBR.s:142    .text.nvicDisableVector:000000000000003c $d
     /tmp/cc2UVdBR.s:147    .text.nvicSetSystemHandlerPriority:0000000000000000 $t
     /tmp/cc2UVdBR.s:155    .text.nvicSetSystemHandlerPriority:0000000000000000 nvicSetSystemHandlerPriority

NO UNDEFINED SYMBOLS
