ARM GAS  /tmp/cc2UVdBR.s 			page 1


   1              		.cpu cortex-m4
   2              		.eabi_attribute 27, 1
   3              		.eabi_attribute 28, 1
   4              		.eabi_attribute 20, 1
   5              		.eabi_attribute 21, 1
   6              		.eabi_attribute 23, 3
   7              		.eabi_attribute 24, 1
   8              		.eabi_attribute 25, 1
   9              		.eabi_attribute 26, 1
  10              		.eabi_attribute 30, 2
  11              		.eabi_attribute 34, 1
  12              		.eabi_attribute 18, 4
  13              		.file	"nvic.c"
  14              		.text
  15              	.Ltext0:
  16              		.cfi_sections	.debug_frame
  17              		.section	.text.nvicEnableVector,"ax",%progbits
  18              		.align	1
  19              		.p2align 4,,15
  20              		.global	nvicEnableVector
  21              		.syntax unified
  22              		.thumb
  23              		.thumb_func
  24              		.fpu fpv4-sp-d16
  25              		.type	nvicEnableVector, %function
  26              	nvicEnableVector:
  27              	.LFB7:
  28              		.file 1 "ChibiOS_2.6.6/os/ports/common/ARMCMx/nvic.c"
  29              		.loc 1 46 0
  30              		.cfi_startproc
  31              		@ args = 0, pretend = 0, frame = 0
  32              		@ frame_needed = 0, uses_anonymous_args = 0
  33              		@ link register save eliminated.
  34              	.LVL0:
  35 0000 20F00302 		bic	r2, r0, #3
  36 0004 02F16042 		add	r2, r2, #-536870912
  37 0008 02F56142 		add	r2, r2, #57600
  38 000c 70B4     		push	{r4, r5, r6}
  39              		.cfi_def_cfa_offset 12
  40              		.cfi_offset 4, -12
  41              		.cfi_offset 5, -8
  42              		.cfi_offset 6, -4
  43              		.loc 1 50 0
  44 000e 4309     		lsrs	r3, r0, #5
  45              		.loc 1 47 0
  46 0010 C400     		lsls	r4, r0, #3
  47              		.loc 1 49 0
  48 0012 D2F80053 		ldr	r5, [r2, #768]
  49              		.loc 1 47 0
  50 0016 04F01804 		and	r4, r4, #24
  51              	.LVL1:
  52              		.loc 1 49 0
  53 001a FF26     		movs	r6, #255
  54 001c 9B00     		lsls	r3, r3, #2
  55 001e A640     		lsls	r6, r6, r4
  56 0020 03F16043 		add	r3, r3, #-536870912
  57 0024 A140     		lsls	r1, r1, r4
ARM GAS  /tmp/cc2UVdBR.s 			page 2


  58              	.LVL2:
  59 0026 25EA0605 		bic	r5, r5, r6
  60 002a 03F56143 		add	r3, r3, #57600
  61              		.loc 1 50 0
  62 002e 0124     		movs	r4, #1
  63              	.LVL3:
  64 0030 00F01F00 		and	r0, r0, #31
  65              	.LVL4:
  66 0034 04FA00F0 		lsl	r0, r4, r0
  67              		.loc 1 49 0
  68 0038 2943     		orrs	r1, r1, r5
  69 003a C2F80013 		str	r1, [r2, #768]
  70              		.loc 1 52 0
  71 003e 70BC     		pop	{r4, r5, r6}
  72              		.cfi_restore 6
  73              		.cfi_restore 5
  74              		.cfi_restore 4
  75              		.cfi_def_cfa_offset 0
  76              		.loc 1 50 0
  77 0040 C3F88001 		str	r0, [r3, #384]
  78              		.loc 1 51 0
  79 0044 1860     		str	r0, [r3]
  80              		.loc 1 52 0
  81 0046 7047     		bx	lr
  82              		.cfi_endproc
  83              	.LFE7:
  84              		.size	nvicEnableVector, .-nvicEnableVector
  85              		.section	.text.nvicDisableVector,"ax",%progbits
  86              		.align	1
  87              		.p2align 4,,15
  88              		.global	nvicDisableVector
  89              		.syntax unified
  90              		.thumb
  91              		.thumb_func
  92              		.fpu fpv4-sp-d16
  93              		.type	nvicDisableVector, %function
  94              	nvicDisableVector:
  95              	.LFB8:
  96              		.loc 1 60 0
  97              		.cfi_startproc
  98              		@ args = 0, pretend = 0, frame = 0
  99              		@ frame_needed = 0, uses_anonymous_args = 0
 100              		@ link register save eliminated.
 101              	.LVL5:
 102              		.loc 1 63 0
 103 0000 4209     		lsrs	r2, r0, #5
 104              		.loc 1 60 0
 105 0002 30B4     		push	{r4, r5}
 106              		.cfi_def_cfa_offset 8
 107              		.cfi_offset 4, -8
 108              		.cfi_offset 5, -4
 109              		.loc 1 63 0
 110 0004 2032     		adds	r2, r2, #32
 111 0006 00F01F05 		and	r5, r0, #31
 112 000a 0C4C     		ldr	r4, .L6
 113 000c 20F00303 		bic	r3, r0, #3
 114 0010 0121     		movs	r1, #1
ARM GAS  /tmp/cc2UVdBR.s 			page 3


 115 0012 A940     		lsls	r1, r1, r5
 116 0014 03F16043 		add	r3, r3, #-536870912
 117 0018 44F82210 		str	r1, [r4, r2, lsl #2]
 118 001c 03F56143 		add	r3, r3, #57600
 119              		.loc 1 61 0
 120 0020 C000     		lsls	r0, r0, #3
 121              	.LVL6:
 122              		.loc 1 64 0
 123 0022 D3F80023 		ldr	r2, [r3, #768]
 124              		.loc 1 61 0
 125 0026 00F01800 		and	r0, r0, #24
 126              	.LVL7:
 127              		.loc 1 64 0
 128 002a FF21     		movs	r1, #255
 129 002c 01FA00F0 		lsl	r0, r1, r0
 130              	.LVL8:
 131 0030 22EA0000 		bic	r0, r2, r0
 132 0034 C3F80003 		str	r0, [r3, #768]
 133              		.loc 1 65 0
 134 0038 30BC     		pop	{r4, r5}
 135              		.cfi_restore 5
 136              		.cfi_restore 4
 137              		.cfi_def_cfa_offset 0
 138 003a 7047     		bx	lr
 139              	.L7:
 140              		.align	2
 141              	.L6:
 142 003c 00E100E0 		.word	-536813312
 143              		.cfi_endproc
 144              	.LFE8:
 145              		.size	nvicDisableVector, .-nvicDisableVector
 146              		.section	.text.nvicSetSystemHandlerPriority,"ax",%progbits
 147              		.align	1
 148              		.p2align 4,,15
 149              		.global	nvicSetSystemHandlerPriority
 150              		.syntax unified
 151              		.thumb
 152              		.thumb_func
 153              		.fpu fpv4-sp-d16
 154              		.type	nvicSetSystemHandlerPriority, %function
 155              	nvicSetSystemHandlerPriority:
 156              	.LFB9:
 157              		.loc 1 74 0
 158              		.cfi_startproc
 159              		@ args = 0, pretend = 0, frame = 0
 160              		@ frame_needed = 0, uses_anonymous_args = 0
 161              		@ link register save eliminated.
 162              	.LVL9:
 163 0000 20F00303 		bic	r3, r0, #3
 164 0004 03F16043 		add	r3, r3, #-536870912
 165 0008 03F56D43 		add	r3, r3, #60672
 166              		.loc 1 75 0
 167 000c 00F00300 		and	r0, r0, #3
 168              	.LVL10:
 169              		.loc 1 74 0
 170 0010 10B4     		push	{r4}
 171              		.cfi_def_cfa_offset 4
ARM GAS  /tmp/cc2UVdBR.s 			page 4


 172              		.cfi_offset 4, -4
 173              		.loc 1 75 0
 174 0012 C000     		lsls	r0, r0, #3
 175              	.LVL11:
 176              		.loc 1 77 0
 177 0014 9A69     		ldr	r2, [r3, #24]
 178              		.loc 1 78 0
 179 0016 FF24     		movs	r4, #255
 180 0018 8440     		lsls	r4, r4, r0
 181 001a 8140     		lsls	r1, r1, r0
 182              	.LVL12:
 183              		.loc 1 77 0
 184 001c 22EA0400 		bic	r0, r2, r4
 185              	.LVL13:
 186              		.loc 1 78 0
 187 0020 0843     		orrs	r0, r0, r1
 188              		.loc 1 77 0
 189 0022 9861     		str	r0, [r3, #24]
 190              		.loc 1 79 0
 191 0024 5DF8044B 		ldr	r4, [sp], #4
 192              		.cfi_restore 4
 193              		.cfi_def_cfa_offset 0
 194 0028 7047     		bx	lr
 195              		.cfi_endproc
 196              	.LFE9:
 197              		.size	nvicSetSystemHandlerPriority, .-nvicSetSystemHandlerPriority
 198 002a 00BF     		.text
 199              	.Letext0:
 200              		.file 2 "/usr/arm-none-eabi/include/machine/_default_types.h"
 201              		.file 3 "/usr/arm-none-eabi/include/sys/_stdint.h"
 202              		.file 4 "ChibiOS_2.6.6/os/ports/GCC/ARMCMx/chtypes.h"
 203              		.file 5 "ChibiOS_2.6.6/os/kernel/include/chlists.h"
 204              		.file 6 "ChibiOS_2.6.6/os/kernel/include/chthreads.h"
 205              		.file 7 "ChibiOS_2.6.6/os/ports/GCC/ARMCMx/chcore_v7m.h"
 206              		.file 8 "ChibiOS_2.6.6/os/ports/common/ARMCMx/nvic.h"
 207              		.file 9 "ChibiOS_2.6.6/os/kernel/include/chvt.h"
 208              		.file 10 "ChibiOS_2.6.6/os/kernel/include/chschd.h"
 209              		.file 11 "ChibiOS_2.6.6/os/kernel/include/chmtx.h"
 210              		.file 12 "ChibiOS_2.6.6/os/kernel/include/chregistry.h"
 211              		.file 13 "ChibiOS_2.6.6/os/kernel/include/chdebug.h"
 212              		.file 14 "ChibiOS_2.6.6/os/kernel/include/ch.h"