ARM GAS  /tmp/ccnbAtHI.s 			page 1


   1              		.cpu cortex-m4
   2              		.eabi_attribute 27, 1
   3              		.eabi_attribute 28, 1
   4              		.eabi_attribute 20, 1
   5              		.eabi_attribute 21, 1
   6              		.eabi_attribute 23, 3
   7              		.eabi_attribute 24, 1
   8              		.eabi_attribute 25, 1
   9              		.eabi_attribute 26, 1
  10              		.eabi_attribute 30, 2
  11              		.eabi_attribute 34, 1
  12              		.eabi_attribute 18, 4
  13              		.file	"stm32f4xx_dac.c"
  14              		.text
  15              	.Ltext0:
  16              		.cfi_sections	.debug_frame
  17              		.section	.text.DAC_DeInit,"ax",%progbits
  18              		.align	1
  19              		.p2align 4,,15
  20              		.global	DAC_DeInit
  21              		.syntax unified
  22              		.thumb
  23              		.thumb_func
  24              		.fpu fpv4-sp-d16
  25              		.type	DAC_DeInit, %function
  26              	DAC_DeInit:
  27              	.LFB111:
  28              		.file 1 "ChibiOS_2.6.6/ext/stdperiph_stm32f4/src/stm32f4xx_dac.c"
  29              		.loc 1 181 0
  30              		.cfi_startproc
  31              		@ args = 0, pretend = 0, frame = 0
  32              		@ frame_needed = 0, uses_anonymous_args = 0
  33 0000 08B5     		push	{r3, lr}
  34              		.cfi_def_cfa_offset 8
  35              		.cfi_offset 3, -8
  36              		.cfi_offset 14, -4
  37              		.loc 1 183 0
  38 0002 0121     		movs	r1, #1
  39 0004 4FF00050 		mov	r0, #536870912
  40 0008 FFF7FEFF 		bl	RCC_APB1PeriphResetCmd
  41              	.LVL0:
  42              		.loc 1 185 0
  43 000c 0021     		movs	r1, #0
  44 000e 4FF00050 		mov	r0, #536870912
  45              		.loc 1 186 0
  46 0012 BDE80840 		pop	{r3, lr}
  47              		.cfi_restore 14
  48              		.cfi_restore 3
  49              		.cfi_def_cfa_offset 0
  50              		.loc 1 185 0
  51 0016 FFF7FEBF 		b	RCC_APB1PeriphResetCmd
  52              	.LVL1:
  53              		.cfi_endproc
  54              	.LFE111:
  55              		.size	DAC_DeInit, .-DAC_DeInit
  56 001a 00BF     		.section	.text.DAC_Init,"ax",%progbits
  57              		.align	1
ARM GAS  /tmp/ccnbAtHI.s 			page 2


  58              		.p2align 4,,15
  59              		.global	DAC_Init
  60              		.syntax unified
  61              		.thumb
  62              		.thumb_func
  63              		.fpu fpv4-sp-d16
  64              		.type	DAC_Init, %function
  65              	DAC_Init:
  66              	.LFB112:
  67              		.loc 1 200 0
  68              		.cfi_startproc
  69              		@ args = 0, pretend = 0, frame = 0
  70              		@ frame_needed = 0, uses_anonymous_args = 0
  71              		@ link register save eliminated.
  72              	.LVL2:
  73 0000 70B4     		push	{r4, r5, r6}
  74              		.cfi_def_cfa_offset 12
  75              		.cfi_offset 4, -12
  76              		.cfi_offset 5, -8
  77              		.cfi_offset 6, -4
  78              		.loc 1 220 0
  79 0002 D1E90036 		ldrd	r3, r6, [r1]
  80 0006 D1E90225 		ldrd	r2, r5, [r1, #8]
  81              		.loc 1 211 0
  82 000a 084C     		ldr	r4, .L6
  83              		.loc 1 220 0
  84 000c 3343     		orrs	r3, r3, r6
  85 000e 1343     		orrs	r3, r3, r2
  86              		.loc 1 213 0
  87 0010 40F6FE71 		movw	r1, #4094
  88              	.LVL3:
  89              		.loc 1 211 0
  90 0014 2268     		ldr	r2, [r4]
  91              	.LVL4:
  92              		.loc 1 220 0
  93 0016 2B43     		orrs	r3, r3, r5
  94              		.loc 1 213 0
  95 0018 8140     		lsls	r1, r1, r0
  96              		.loc 1 224 0
  97 001a 03FA00F0 		lsl	r0, r3, r0
  98              	.LVL5:
  99              		.loc 1 213 0
 100 001e 22EA0103 		bic	r3, r2, r1
 101              	.LVL6:
 102              		.loc 1 224 0
 103 0022 1843     		orrs	r0, r0, r3
 104              	.LVL7:
 105              		.loc 1 226 0
 106 0024 2060     		str	r0, [r4]
 107              		.loc 1 227 0
 108 0026 70BC     		pop	{r4, r5, r6}
 109              		.cfi_restore 6
 110              		.cfi_restore 5
 111              		.cfi_restore 4
 112              		.cfi_def_cfa_offset 0
 113 0028 7047     		bx	lr
 114              	.L7:
ARM GAS  /tmp/ccnbAtHI.s 			page 3


 115 002a 00BF     		.align	2
 116              	.L6:
 117 002c 00740040 		.word	1073771520
 118              		.cfi_endproc
 119              	.LFE112:
 120              		.size	DAC_Init, .-DAC_Init
 121              		.section	.text.DAC_StructInit,"ax",%progbits
 122              		.align	1
 123              		.p2align 4,,15
 124              		.global	DAC_StructInit
 125              		.syntax unified
 126              		.thumb
 127              		.thumb_func
 128              		.fpu fpv4-sp-d16
 129              		.type	DAC_StructInit, %function
 130              	DAC_StructInit:
 131              	.LFB113:
 132              		.loc 1 236 0
 133              		.cfi_startproc
 134              		@ args = 0, pretend = 0, frame = 0
 135              		@ frame_needed = 0, uses_anonymous_args = 0
 136              		@ link register save eliminated.
 137              	.LVL8:
 138              		.loc 1 239 0
 139 0000 0023     		movs	r3, #0
 140              		.loc 1 241 0
 141 0002 C0E90033 		strd	r3, r3, [r0]
 142              		.loc 1 245 0
 143 0006 C0E90233 		strd	r3, r3, [r0, #8]
 144              		.loc 1 246 0
 145 000a 7047     		bx	lr
 146              		.cfi_endproc
 147              	.LFE113:
 148              		.size	DAC_StructInit, .-DAC_StructInit
 149              		.section	.text.DAC_Cmd,"ax",%progbits
 150              		.align	1
 151              		.p2align 4,,15
 152              		.global	DAC_Cmd
 153              		.syntax unified
 154              		.thumb
 155              		.thumb_func
 156              		.fpu fpv4-sp-d16
 157              		.type	DAC_Cmd, %function
 158              	DAC_Cmd:
 159              	.LFB114:
 160              		.loc 1 260 0
 161              		.cfi_startproc
 162              		@ args = 0, pretend = 0, frame = 0
 163              		@ frame_needed = 0, uses_anonymous_args = 0
 164              		@ link register save eliminated.
 165              	.LVL9:
 166              		.loc 1 268 0
 167 0000 064A     		ldr	r2, .L13
 168 0002 0123     		movs	r3, #1
 169 0004 03FA00F0 		lsl	r0, r3, r0
 170              	.LVL10:
 171 0008 1368     		ldr	r3, [r2]
ARM GAS  /tmp/ccnbAtHI.s 			page 4


 172              		.loc 1 265 0
 173 000a 19B9     		cbnz	r1, .L12
 174              		.loc 1 273 0
 175 000c 23EA0000 		bic	r0, r3, r0
 176 0010 1060     		str	r0, [r2]
 177              		.loc 1 275 0
 178 0012 7047     		bx	lr
 179              	.L12:
 180              		.loc 1 268 0
 181 0014 1843     		orrs	r0, r0, r3
 182 0016 1060     		str	r0, [r2]
 183 0018 7047     		bx	lr
 184              	.L14:
 185 001a 00BF     		.align	2
 186              	.L13:
 187 001c 00740040 		.word	1073771520
 188              		.cfi_endproc
 189              	.LFE114:
 190              		.size	DAC_Cmd, .-DAC_Cmd
 191              		.section	.text.DAC_SoftwareTriggerCmd,"ax",%progbits
 192              		.align	1
 193              		.p2align 4,,15
 194              		.global	DAC_SoftwareTriggerCmd
 195              		.syntax unified
 196              		.thumb
 197              		.thumb_func
 198              		.fpu fpv4-sp-d16
 199              		.type	DAC_SoftwareTriggerCmd, %function
 200              	DAC_SoftwareTriggerCmd:
 201              	.LFB115:
 202              		.loc 1 288 0
 203              		.cfi_startproc
 204              		@ args = 0, pretend = 0, frame = 0
 205              		@ frame_needed = 0, uses_anonymous_args = 0
 206              		@ link register save eliminated.
 207              	.LVL11:
 208              		.loc 1 296 0
 209 0000 064A     		ldr	r2, .L19
 210 0002 0123     		movs	r3, #1
 211 0004 0009     		lsrs	r0, r0, #4
 212              	.LVL12:
 213 0006 03FA00F0 		lsl	r0, r3, r0
 214 000a 5368     		ldr	r3, [r2, #4]
 215              		.loc 1 293 0
 216 000c 19B9     		cbnz	r1, .L18
 217              		.loc 1 301 0
 218 000e 23EA0000 		bic	r0, r3, r0
 219 0012 5060     		str	r0, [r2, #4]
 220              		.loc 1 303 0
 221 0014 7047     		bx	lr
 222              	.L18:
 223              		.loc 1 296 0
 224 0016 1843     		orrs	r0, r0, r3
 225 0018 5060     		str	r0, [r2, #4]
 226 001a 7047     		bx	lr
 227              	.L20:
 228              		.align	2
ARM GAS  /tmp/ccnbAtHI.s 			page 5


 229              	.L19:
 230 001c 00740040 		.word	1073771520
 231              		.cfi_endproc
 232              	.LFE115:
 233              		.size	DAC_SoftwareTriggerCmd, .-DAC_SoftwareTriggerCmd
 234              		.section	.text.DAC_DualSoftwareTriggerCmd,"ax",%progbits
 235              		.align	1
 236              		.p2align 4,,15
 237              		.global	DAC_DualSoftwareTriggerCmd
 238              		.syntax unified
 239              		.thumb
 240              		.thumb_func
 241              		.fpu fpv4-sp-d16
 242              		.type	DAC_DualSoftwareTriggerCmd, %function
 243              	DAC_DualSoftwareTriggerCmd:
 244              	.LFB116:
 245              		.loc 1 312 0
 246              		.cfi_startproc
 247              		@ args = 0, pretend = 0, frame = 0
 248              		@ frame_needed = 0, uses_anonymous_args = 0
 249              		@ link register save eliminated.
 250              	.LVL13:
 251              		.loc 1 319 0
 252 0000 054A     		ldr	r2, .L25
 253 0002 5368     		ldr	r3, [r2, #4]
 254              		.loc 1 316 0
 255 0004 18B9     		cbnz	r0, .L24
 256              		.loc 1 324 0
 257 0006 23F00303 		bic	r3, r3, #3
 258 000a 5360     		str	r3, [r2, #4]
 259              		.loc 1 326 0
 260 000c 7047     		bx	lr
 261              	.L24:
 262              		.loc 1 319 0
 263 000e 43F00303 		orr	r3, r3, #3
 264 0012 5360     		str	r3, [r2, #4]
 265 0014 7047     		bx	lr
 266              	.L26:
 267 0016 00BF     		.align	2
 268              	.L25:
 269 0018 00740040 		.word	1073771520
 270              		.cfi_endproc
 271              	.LFE116:
 272              		.size	DAC_DualSoftwareTriggerCmd, .-DAC_DualSoftwareTriggerCmd
 273              		.section	.text.DAC_WaveGenerationCmd,"ax",%progbits
 274              		.align	1
 275              		.p2align 4,,15
 276              		.global	DAC_WaveGenerationCmd
 277              		.syntax unified
 278              		.thumb
 279              		.thumb_func
 280              		.fpu fpv4-sp-d16
 281              		.type	DAC_WaveGenerationCmd, %function
 282              	DAC_WaveGenerationCmd:
 283              	.LFB117:
 284              		.loc 1 343 0
 285              		.cfi_startproc
ARM GAS  /tmp/ccnbAtHI.s 			page 6


 286              		@ args = 0, pretend = 0, frame = 0
 287              		@ frame_needed = 0, uses_anonymous_args = 0
 288              		@ link register save eliminated.
 289              	.LVL14:
 290 0000 8140     		lsls	r1, r1, r0
 291              	.LVL15:
 292              		.loc 1 349 0
 293 0002 2AB9     		cbnz	r2, .L30
 294              		.loc 1 357 0
 295 0004 054A     		ldr	r2, .L31
 296              	.LVL16:
 297 0006 1368     		ldr	r3, [r2]
 298 0008 23EA0101 		bic	r1, r3, r1
 299 000c 1160     		str	r1, [r2]
 300              		.loc 1 359 0
 301 000e 7047     		bx	lr
 302              	.LVL17:
 303              	.L30:
 304              		.loc 1 352 0
 305 0010 024B     		ldr	r3, .L31
 306 0012 1868     		ldr	r0, [r3]
 307              	.LVL18:
 308 0014 0143     		orrs	r1, r1, r0
 309 0016 1960     		str	r1, [r3]
 310 0018 7047     		bx	lr
 311              	.L32:
 312 001a 00BF     		.align	2
 313              	.L31:
 314 001c 00740040 		.word	1073771520
 315              		.cfi_endproc
 316              	.LFE117:
 317              		.size	DAC_WaveGenerationCmd, .-DAC_WaveGenerationCmd
 318              		.section	.text.DAC_SetChannel1Data,"ax",%progbits
 319              		.align	1
 320              		.p2align 4,,15
 321              		.global	DAC_SetChannel1Data
 322              		.syntax unified
 323              		.thumb
 324              		.thumb_func
 325              		.fpu fpv4-sp-d16
 326              		.type	DAC_SetChannel1Data, %function
 327              	DAC_SetChannel1Data:
 328              	.LFB118:
 329              		.loc 1 372 0
 330              		.cfi_startproc
 331              		@ args = 0, pretend = 0, frame = 8
 332              		@ frame_needed = 0, uses_anonymous_args = 0
 333              		@ link register save eliminated.
 334              	.LVL19:
 335 0000 82B0     		sub	sp, sp, #8
 336              		.cfi_def_cfa_offset 8
 337              		.loc 1 373 0
 338 0002 0022     		movs	r2, #0
 339              		.loc 1 379 0
 340 0004 054B     		ldr	r3, .L35
 341              		.loc 1 373 0
 342 0006 0192     		str	r2, [sp, #4]
ARM GAS  /tmp/ccnbAtHI.s 			page 7


 343              		.loc 1 379 0
 344 0008 0193     		str	r3, [sp, #4]
 345              		.loc 1 380 0
 346 000a 019B     		ldr	r3, [sp, #4]
 347 000c 0833     		adds	r3, r3, #8
 348 000e 1844     		add	r0, r0, r3
 349              	.LVL20:
 350 0010 0190     		str	r0, [sp, #4]
 351              		.loc 1 383 0
 352 0012 019B     		ldr	r3, [sp, #4]
 353 0014 1960     		str	r1, [r3]
 354              		.loc 1 384 0
 355 0016 02B0     		add	sp, sp, #8
 356              		.cfi_def_cfa_offset 0
 357              		@ sp needed
 358 0018 7047     		bx	lr
 359              	.L36:
 360 001a 00BF     		.align	2
 361              	.L35:
 362 001c 00740040 		.word	1073771520
 363              		.cfi_endproc
 364              	.LFE118:
 365              		.size	DAC_SetChannel1Data, .-DAC_SetChannel1Data
 366              		.section	.text.DAC_SetChannel2Data,"ax",%progbits
 367              		.align	1
 368              		.p2align 4,,15
 369              		.global	DAC_SetChannel2Data
 370              		.syntax unified
 371              		.thumb
 372              		.thumb_func
 373              		.fpu fpv4-sp-d16
 374              		.type	DAC_SetChannel2Data, %function
 375              	DAC_SetChannel2Data:
 376              	.LFB119:
 377              		.loc 1 397 0
 378              		.cfi_startproc
 379              		@ args = 0, pretend = 0, frame = 8
 380              		@ frame_needed = 0, uses_anonymous_args = 0
 381              		@ link register save eliminated.
 382              	.LVL21:
 383 0000 82B0     		sub	sp, sp, #8
 384              		.cfi_def_cfa_offset 8
 385              		.loc 1 398 0
 386 0002 0022     		movs	r2, #0
 387              		.loc 1 404 0
 388 0004 054B     		ldr	r3, .L39
 389              		.loc 1 398 0
 390 0006 0192     		str	r2, [sp, #4]
 391              		.loc 1 404 0
 392 0008 0193     		str	r3, [sp, #4]
 393              		.loc 1 405 0
 394 000a 019B     		ldr	r3, [sp, #4]
 395 000c 1433     		adds	r3, r3, #20
 396 000e 1844     		add	r0, r0, r3
 397              	.LVL22:
 398 0010 0190     		str	r0, [sp, #4]
 399              		.loc 1 408 0
ARM GAS  /tmp/ccnbAtHI.s 			page 8


 400 0012 019B     		ldr	r3, [sp, #4]
 401 0014 1960     		str	r1, [r3]
 402              		.loc 1 409 0
 403 0016 02B0     		add	sp, sp, #8
 404              		.cfi_def_cfa_offset 0
 405              		@ sp needed
 406 0018 7047     		bx	lr
 407              	.L40:
 408 001a 00BF     		.align	2
 409              	.L39:
 410 001c 00740040 		.word	1073771520
 411              		.cfi_endproc
 412              	.LFE119:
 413              		.size	DAC_SetChannel2Data, .-DAC_SetChannel2Data
 414              		.section	.text.DAC_SetDualChannelData,"ax",%progbits
 415              		.align	1
 416              		.p2align 4,,15
 417              		.global	DAC_SetDualChannelData
 418              		.syntax unified
 419              		.thumb
 420              		.thumb_func
 421              		.fpu fpv4-sp-d16
 422              		.type	DAC_SetDualChannelData, %function
 423              	DAC_SetDualChannelData:
 424              	.LFB120:
 425              		.loc 1 425 0
 426              		.cfi_startproc
 427              		@ args = 0, pretend = 0, frame = 0
 428              		@ frame_needed = 0, uses_anonymous_args = 0
 429              		@ link register save eliminated.
 430              	.LVL23:
 431              		.loc 1 434 0
 432 0000 0828     		cmp	r0, #8
 433              		.loc 1 444 0
 434 0002 044B     		ldr	r3, .L44
 435              		.loc 1 436 0
 436 0004 0CBF     		ite	eq
 437 0006 42EA0122 		orreq	r2, r2, r1, lsl #8
 438              	.LVL24:
 439              		.loc 1 440 0
 440 000a 42EA0142 		orrne	r2, r2, r1, lsl #16
 441              	.LVL25:
 442              		.loc 1 447 0
 443 000e C250     		str	r2, [r0, r3]
 444              		.loc 1 448 0
 445 0010 7047     		bx	lr
 446              	.L45:
 447 0012 00BF     		.align	2
 448              	.L44:
 449 0014 20740040 		.word	1073771552
 450              		.cfi_endproc
 451              	.LFE120:
 452              		.size	DAC_SetDualChannelData, .-DAC_SetDualChannelData
 453              		.section	.text.DAC_GetDataOutputValue,"ax",%progbits
 454              		.align	1
 455              		.p2align 4,,15
 456              		.global	DAC_GetDataOutputValue
ARM GAS  /tmp/ccnbAtHI.s 			page 9


 457              		.syntax unified
 458              		.thumb
 459              		.thumb_func
 460              		.fpu fpv4-sp-d16
 461              		.type	DAC_GetDataOutputValue, %function
 462              	DAC_GetDataOutputValue:
 463              	.LFB121:
 464              		.loc 1 459 0
 465              		.cfi_startproc
 466              		@ args = 0, pretend = 0, frame = 8
 467              		@ frame_needed = 0, uses_anonymous_args = 0
 468              		@ link register save eliminated.
 469              	.LVL26:
 470 0000 82B0     		sub	sp, sp, #8
 471              		.cfi_def_cfa_offset 8
 472              		.loc 1 460 0
 473 0002 0022     		movs	r2, #0
 474              		.loc 1 465 0
 475 0004 064B     		ldr	r3, .L48
 476              		.loc 1 460 0
 477 0006 0192     		str	r2, [sp, #4]
 478              		.loc 1 465 0
 479 0008 0193     		str	r3, [sp, #4]
 480              		.loc 1 466 0
 481 000a 019B     		ldr	r3, [sp, #4]
 482 000c 2C33     		adds	r3, r3, #44
 483 000e 03EB9000 		add	r0, r3, r0, lsr #2
 484              	.LVL27:
 485 0012 0190     		str	r0, [sp, #4]
 486              		.loc 1 469 0
 487 0014 019B     		ldr	r3, [sp, #4]
 488 0016 1868     		ldr	r0, [r3]
 489              		.loc 1 470 0
 490 0018 80B2     		uxth	r0, r0
 491 001a 02B0     		add	sp, sp, #8
 492              		.cfi_def_cfa_offset 0
 493              		@ sp needed
 494 001c 7047     		bx	lr
 495              	.L49:
 496 001e 00BF     		.align	2
 497              	.L48:
 498 0020 00740040 		.word	1073771520
 499              		.cfi_endproc
 500              	.LFE121:
 501              		.size	DAC_GetDataOutputValue, .-DAC_GetDataOutputValue
 502              		.section	.text.DAC_DMACmd,"ax",%progbits
 503              		.align	1
 504              		.p2align 4,,15
 505              		.global	DAC_DMACmd
 506              		.syntax unified
 507              		.thumb
 508              		.thumb_func
 509              		.fpu fpv4-sp-d16
 510              		.type	DAC_DMACmd, %function
 511              	DAC_DMACmd:
 512              	.LFB122:
 513              		.loc 1 504 0
ARM GAS  /tmp/ccnbAtHI.s 			page 10


 514              		.cfi_startproc
 515              		@ args = 0, pretend = 0, frame = 0
 516              		@ frame_needed = 0, uses_anonymous_args = 0
 517              		@ link register save eliminated.
 518              	.LVL28:
 519              		.loc 1 512 0
 520 0000 064A     		ldr	r2, .L54
 521 0002 4FF48053 		mov	r3, #4096
 522 0006 03FA00F0 		lsl	r0, r3, r0
 523              	.LVL29:
 524 000a 1368     		ldr	r3, [r2]
 525              		.loc 1 509 0
 526 000c 19B9     		cbnz	r1, .L53
 527              		.loc 1 517 0
 528 000e 23EA0000 		bic	r0, r3, r0
 529 0012 1060     		str	r0, [r2]
 530              		.loc 1 519 0
 531 0014 7047     		bx	lr
 532              	.L53:
 533              		.loc 1 512 0
 534 0016 1843     		orrs	r0, r0, r3
 535 0018 1060     		str	r0, [r2]
 536 001a 7047     		bx	lr
 537              	.L55:
 538              		.align	2
 539              	.L54:
 540 001c 00740040 		.word	1073771520
 541              		.cfi_endproc
 542              	.LFE122:
 543              		.size	DAC_DMACmd, .-DAC_DMACmd
 544              		.section	.text.DAC_ITConfig,"ax",%progbits
 545              		.align	1
 546              		.p2align 4,,15
 547              		.global	DAC_ITConfig
 548              		.syntax unified
 549              		.thumb
 550              		.thumb_func
 551              		.fpu fpv4-sp-d16
 552              		.type	DAC_ITConfig, %function
 553              	DAC_ITConfig:
 554              	.LFB129:
 555              		.cfi_startproc
 556              		@ args = 0, pretend = 0, frame = 0
 557              		@ frame_needed = 0, uses_anonymous_args = 0
 558              		@ link register save eliminated.
 559 0000 FFF7FEBF 		b	DAC_WaveGenerationCmd
 560              		.cfi_endproc
 561              	.LFE129:
 562              		.size	DAC_ITConfig, .-DAC_ITConfig
 563              		.section	.text.DAC_GetFlagStatus,"ax",%progbits
 564              		.align	1
 565              		.p2align 4,,15
 566              		.global	DAC_GetFlagStatus
 567              		.syntax unified
 568              		.thumb
 569              		.thumb_func
 570              		.fpu fpv4-sp-d16
ARM GAS  /tmp/ccnbAtHI.s 			page 11


 571              		.type	DAC_GetFlagStatus, %function
 572              	DAC_GetFlagStatus:
 573              	.LFB124:
 574              		.loc 1 584 0
 575              		.cfi_startproc
 576              		@ args = 0, pretend = 0, frame = 0
 577              		@ frame_needed = 0, uses_anonymous_args = 0
 578              		@ link register save eliminated.
 579              	.LVL30:
 580              		.loc 1 591 0
 581 0000 034B     		ldr	r3, .L58
 582 0002 5B6B     		ldr	r3, [r3, #52]
 583              	.LVL31:
 584 0004 8140     		lsls	r1, r1, r0
 585              	.LVL32:
 586 0006 1942     		tst	r1, r3
 587              		.loc 1 603 0
 588 0008 14BF     		ite	ne
 589 000a 0120     		movne	r0, #1
 590              	.LVL33:
 591 000c 0020     		moveq	r0, #0
 592 000e 7047     		bx	lr
 593              	.L59:
 594              		.align	2
 595              	.L58:
 596 0010 00740040 		.word	1073771520
 597              		.cfi_endproc
 598              	.LFE124:
 599              		.size	DAC_GetFlagStatus, .-DAC_GetFlagStatus
 600              		.section	.text.DAC_ClearFlag,"ax",%progbits
 601              		.align	1
 602              		.p2align 4,,15
 603              		.global	DAC_ClearFlag
 604              		.syntax unified
 605              		.thumb
 606              		.thumb_func
 607              		.fpu fpv4-sp-d16
 608              		.type	DAC_ClearFlag, %function
 609              	DAC_ClearFlag:
 610              	.LFB125:
 611              		.loc 1 619 0
 612              		.cfi_startproc
 613              		@ args = 0, pretend = 0, frame = 0
 614              		@ frame_needed = 0, uses_anonymous_args = 0
 615              		@ link register save eliminated.
 616              	.LVL34:
 617              		.loc 1 625 0
 618 0000 014B     		ldr	r3, .L61
 619 0002 8140     		lsls	r1, r1, r0
 620              	.LVL35:
 621 0004 5963     		str	r1, [r3, #52]
 622              		.loc 1 626 0
 623 0006 7047     		bx	lr
 624              	.L62:
 625              		.align	2
 626              	.L61:
 627 0008 00740040 		.word	1073771520
ARM GAS  /tmp/ccnbAtHI.s 			page 12


 628              		.cfi_endproc
 629              	.LFE125:
 630              		.size	DAC_ClearFlag, .-DAC_ClearFlag
 631              		.section	.text.DAC_GetITStatus,"ax",%progbits
 632              		.align	1
 633              		.p2align 4,,15
 634              		.global	DAC_GetITStatus
 635              		.syntax unified
 636              		.thumb
 637              		.thumb_func
 638              		.fpu fpv4-sp-d16
 639              		.type	DAC_GetITStatus, %function
 640              	DAC_GetITStatus:
 641              	.LFB126:
 642              		.loc 1 642 0
 643              		.cfi_startproc
 644              		@ args = 0, pretend = 0, frame = 0
 645              		@ frame_needed = 0, uses_anonymous_args = 0
 646              		@ link register save eliminated.
 647              	.LVL36:
 648              		.loc 1 651 0
 649 0000 054B     		ldr	r3, .L66
 650 0002 1A68     		ldr	r2, [r3]
 651              		.loc 1 654 0
 652 0004 5B6B     		ldr	r3, [r3, #52]
 653              		.loc 1 651 0
 654 0006 8140     		lsls	r1, r1, r0
 655              	.LVL37:
 656              		.loc 1 654 0
 657 0008 11EA0300 		ands	r0, r1, r3
 658              	.LVL38:
 659 000c 03D0     		beq	.L64
 660              		.loc 1 654 0 is_stmt 0 discriminator 1
 661 000e 0A42     		tst	r2, r1
 662              		.loc 1 657 0 is_stmt 1 discriminator 1
 663 0010 14BF     		ite	ne
 664 0012 0120     		movne	r0, #1
 665 0014 0020     		moveq	r0, #0
 666              	.L64:
 667              	.LVL39:
 668              		.loc 1 666 0
 669 0016 7047     		bx	lr
 670              	.L67:
 671              		.align	2
 672              	.L66:
 673 0018 00740040 		.word	1073771520
 674              		.cfi_endproc
 675              	.LFE126:
 676              		.size	DAC_GetITStatus, .-DAC_GetITStatus
 677              		.section	.text.DAC_ClearITPendingBit,"ax",%progbits
 678              		.align	1
 679              		.p2align 4,,15
 680              		.global	DAC_ClearITPendingBit
 681              		.syntax unified
 682              		.thumb
 683              		.thumb_func
 684              		.fpu fpv4-sp-d16
ARM GAS  /tmp/ccnbAtHI.s 			page 13


 685              		.type	DAC_ClearITPendingBit, %function
 686              	DAC_ClearITPendingBit:
 687              	.LFB131:
 688              		.cfi_startproc
 689              		@ args = 0, pretend = 0, frame = 0
 690              		@ frame_needed = 0, uses_anonymous_args = 0
 691              		@ link register save eliminated.
 692 0000 014B     		ldr	r3, .L69
 693 0002 8140     		lsls	r1, r1, r0
 694 0004 5963     		str	r1, [r3, #52]
 695 0006 7047     		bx	lr
 696              	.L70:
 697              		.align	2
 698              	.L69:
 699 0008 00740040 		.word	1073771520
 700              		.cfi_endproc
 701              	.LFE131:
 702              		.size	DAC_ClearITPendingBit, .-DAC_ClearITPendingBit
 703              		.text
 704              	.Letext0:
 705              		.file 2 "/usr/arm-none-eabi/include/machine/_default_types.h"
 706              		.file 3 "/usr/arm-none-eabi/include/sys/_stdint.h"
 707              		.file 4 "ChibiOS_2.6.6/os/hal/platforms/STM32F4xx/stm32f4xx.h"
 708              		.file 5 "ChibiOS_2.6.6/ext/stdperiph_stm32f4/inc/stm32f4xx_dac.h"
 709              		.file 6 "ChibiOS_2.6.6/os/ports/common/ARMCMx/CMSIS/include/core_cm4.h"
 710              		.file 7 "ChibiOS_2.6.6/ext/stdperiph_stm32f4/inc/stm32f4xx_rcc.h"