ARM GAS  /tmp/ccy5nbc0.s 			page 1


   1              		.cpu cortex-m4
   2              		.eabi_attribute 27, 1
   3              		.eabi_attribute 28, 1
   4              		.eabi_attribute 20, 1
   5              		.eabi_attribute 21, 1
   6              		.eabi_attribute 23, 3
   7              		.eabi_attribute 24, 1
   8              		.eabi_attribute 25, 1
   9              		.eabi_attribute 26, 1
  10              		.eabi_attribute 30, 2
  11              		.eabi_attribute 34, 1
  12              		.eabi_attribute 18, 4
  13              		.file	"stm32f4xx_pwr.c"
  14              		.text
  15              	.Ltext0:
  16              		.cfi_sections	.debug_frame
  17              		.section	.text.PWR_DeInit,"ax",%progbits
  18              		.align	1
  19              		.p2align 4,,15
  20              		.global	PWR_DeInit
  21              		.syntax unified
  22              		.thumb
  23              		.thumb_func
  24              		.fpu fpv4-sp-d16
  25              		.type	PWR_DeInit, %function
  26              	PWR_DeInit:
  27              	.LFB111:
  28              		.file 1 "ChibiOS_2.6.6/ext/stdperiph_stm32f4/src/stm32f4xx_pwr.c"
  29              		.loc 1 127 0
  30              		.cfi_startproc
  31              		@ args = 0, pretend = 0, frame = 0
  32              		@ frame_needed = 0, uses_anonymous_args = 0
  33 0000 08B5     		push	{r3, lr}
  34              		.cfi_def_cfa_offset 8
  35              		.cfi_offset 3, -8
  36              		.cfi_offset 14, -4
  37              		.loc 1 128 0
  38 0002 0121     		movs	r1, #1
  39 0004 4FF08050 		mov	r0, #268435456
  40 0008 FFF7FEFF 		bl	RCC_APB1PeriphResetCmd
  41              	.LVL0:
  42              		.loc 1 129 0
  43 000c 0021     		movs	r1, #0
  44 000e 4FF08050 		mov	r0, #268435456
  45              		.loc 1 130 0
  46 0012 BDE80840 		pop	{r3, lr}
  47              		.cfi_restore 14
  48              		.cfi_restore 3
  49              		.cfi_def_cfa_offset 0
  50              		.loc 1 129 0
  51 0016 FFF7FEBF 		b	RCC_APB1PeriphResetCmd
  52              	.LVL1:
  53              		.cfi_endproc
  54              	.LFE111:
  55              		.size	PWR_DeInit, .-PWR_DeInit
  56 001a 00BF     		.section	.text.PWR_BackupAccessCmd,"ax",%progbits
  57              		.align	1
ARM GAS  /tmp/ccy5nbc0.s 			page 2


  58              		.p2align 4,,15
  59              		.global	PWR_BackupAccessCmd
  60              		.syntax unified
  61              		.thumb
  62              		.thumb_func
  63              		.fpu fpv4-sp-d16
  64              		.type	PWR_BackupAccessCmd, %function
  65              	PWR_BackupAccessCmd:
  66              	.LFB112:
  67              		.loc 1 142 0
  68              		.cfi_startproc
  69              		@ args = 0, pretend = 0, frame = 0
  70              		@ frame_needed = 0, uses_anonymous_args = 0
  71              		@ link register save eliminated.
  72              	.LVL2:
  73              		.loc 1 146 0
  74 0000 014B     		ldr	r3, .L5
  75 0002 1860     		str	r0, [r3]
  76              		.loc 1 147 0
  77 0004 7047     		bx	lr
  78              	.L6:
  79 0006 00BF     		.align	2
  80              	.L5:
  81 0008 20000E42 		.word	1108213792
  82              		.cfi_endproc
  83              	.LFE112:
  84              		.size	PWR_BackupAccessCmd, .-PWR_BackupAccessCmd
  85              		.section	.text.PWR_PVDLevelConfig,"ax",%progbits
  86              		.align	1
  87              		.p2align 4,,15
  88              		.global	PWR_PVDLevelConfig
  89              		.syntax unified
  90              		.thumb
  91              		.thumb_func
  92              		.fpu fpv4-sp-d16
  93              		.type	PWR_PVDLevelConfig, %function
  94              	PWR_PVDLevelConfig:
  95              	.LFB113:
  96              		.loc 1 190 0
  97              		.cfi_startproc
  98              		@ args = 0, pretend = 0, frame = 0
  99              		@ frame_needed = 0, uses_anonymous_args = 0
 100              		@ link register save eliminated.
 101              	.LVL3:
 102              		.loc 1 196 0
 103 0000 034A     		ldr	r2, .L8
 104 0002 1368     		ldr	r3, [r2]
 105              	.LVL4:
 106              		.loc 1 199 0
 107 0004 23F0E003 		bic	r3, r3, #224
 108              	.LVL5:
 109              		.loc 1 202 0
 110 0008 1843     		orrs	r0, r0, r3
 111              	.LVL6:
 112              		.loc 1 205 0
 113 000a 1060     		str	r0, [r2]
 114              		.loc 1 206 0
ARM GAS  /tmp/ccy5nbc0.s 			page 3


 115 000c 7047     		bx	lr
 116              	.L9:
 117 000e 00BF     		.align	2
 118              	.L8:
 119 0010 00700040 		.word	1073770496
 120              		.cfi_endproc
 121              	.LFE113:
 122              		.size	PWR_PVDLevelConfig, .-PWR_PVDLevelConfig
 123              		.section	.text.PWR_PVDCmd,"ax",%progbits
 124              		.align	1
 125              		.p2align 4,,15
 126              		.global	PWR_PVDCmd
 127              		.syntax unified
 128              		.thumb
 129              		.thumb_func
 130              		.fpu fpv4-sp-d16
 131              		.type	PWR_PVDCmd, %function
 132              	PWR_PVDCmd:
 133              	.LFB114:
 134              		.loc 1 215 0
 135              		.cfi_startproc
 136              		@ args = 0, pretend = 0, frame = 0
 137              		@ frame_needed = 0, uses_anonymous_args = 0
 138              		@ link register save eliminated.
 139              	.LVL7:
 140              		.loc 1 219 0
 141 0000 014B     		ldr	r3, .L11
 142 0002 1860     		str	r0, [r3]
 143              		.loc 1 220 0
 144 0004 7047     		bx	lr
 145              	.L12:
 146 0006 00BF     		.align	2
 147              	.L11:
 148 0008 10000E42 		.word	1108213776
 149              		.cfi_endproc
 150              	.LFE114:
 151              		.size	PWR_PVDCmd, .-PWR_PVDCmd
 152              		.section	.text.PWR_WakeUpPinCmd,"ax",%progbits
 153              		.align	1
 154              		.p2align 4,,15
 155              		.global	PWR_WakeUpPinCmd
 156              		.syntax unified
 157              		.thumb
 158              		.thumb_func
 159              		.fpu fpv4-sp-d16
 160              		.type	PWR_WakeUpPinCmd, %function
 161              	PWR_WakeUpPinCmd:
 162              	.LFB115:
 163              		.loc 1 249 0
 164              		.cfi_startproc
 165              		@ args = 0, pretend = 0, frame = 0
 166              		@ frame_needed = 0, uses_anonymous_args = 0
 167              		@ link register save eliminated.
 168              	.LVL8:
 169              		.loc 1 253 0
 170 0000 014B     		ldr	r3, .L14
 171 0002 1860     		str	r0, [r3]
ARM GAS  /tmp/ccy5nbc0.s 			page 4


 172              		.loc 1 254 0
 173 0004 7047     		bx	lr
 174              	.L15:
 175 0006 00BF     		.align	2
 176              	.L14:
 177 0008 A0000E42 		.word	1108213920
 178              		.cfi_endproc
 179              	.LFE115:
 180              		.size	PWR_WakeUpPinCmd, .-PWR_WakeUpPinCmd
 181              		.section	.text.PWR_BackupRegulatorCmd,"ax",%progbits
 182              		.align	1
 183              		.p2align 4,,15
 184              		.global	PWR_BackupRegulatorCmd
 185              		.syntax unified
 186              		.thumb
 187              		.thumb_func
 188              		.fpu fpv4-sp-d16
 189              		.type	PWR_BackupRegulatorCmd, %function
 190              	PWR_BackupRegulatorCmd:
 191              	.LFB116:
 192              		.loc 1 307 0
 193              		.cfi_startproc
 194              		@ args = 0, pretend = 0, frame = 0
 195              		@ frame_needed = 0, uses_anonymous_args = 0
 196              		@ link register save eliminated.
 197              	.LVL9:
 198              		.loc 1 311 0
 199 0000 014B     		ldr	r3, .L17
 200 0002 1860     		str	r0, [r3]
 201              		.loc 1 312 0
 202 0004 7047     		bx	lr
 203              	.L18:
 204 0006 00BF     		.align	2
 205              	.L17:
 206 0008 A4000E42 		.word	1108213924
 207              		.cfi_endproc
 208              	.LFE116:
 209              		.size	PWR_BackupRegulatorCmd, .-PWR_BackupRegulatorCmd
 210              		.section	.text.PWR_MainRegulatorModeConfig,"ax",%progbits
 211              		.align	1
 212              		.p2align 4,,15
 213              		.global	PWR_MainRegulatorModeConfig
 214              		.syntax unified
 215              		.thumb
 216              		.thumb_func
 217              		.fpu fpv4-sp-d16
 218              		.type	PWR_MainRegulatorModeConfig, %function
 219              	PWR_MainRegulatorModeConfig:
 220              	.LFB117:
 221              		.loc 1 327 0
 222              		.cfi_startproc
 223              		@ args = 0, pretend = 0, frame = 0
 224              		@ frame_needed = 0, uses_anonymous_args = 0
 225              		@ link register save eliminated.
 226              	.LVL10:
 227              		.loc 1 333 0
 228 0000 054A     		ldr	r2, .L23
ARM GAS  /tmp/ccy5nbc0.s 			page 5


 229 0002 1368     		ldr	r3, [r2]
 230              		.loc 1 331 0
 231 0004 18B1     		cbz	r0, .L22
 232              		.loc 1 337 0
 233 0006 43F48043 		orr	r3, r3, #16384
 234 000a 1360     		str	r3, [r2]
 235              		.loc 1 339 0
 236 000c 7047     		bx	lr
 237              	.L22:
 238              		.loc 1 333 0
 239 000e 23F48043 		bic	r3, r3, #16384
 240 0012 1360     		str	r3, [r2]
 241 0014 7047     		bx	lr
 242              	.L24:
 243 0016 00BF     		.align	2
 244              	.L23:
 245 0018 00700040 		.word	1073770496
 246              		.cfi_endproc
 247              	.LFE117:
 248              		.size	PWR_MainRegulatorModeConfig, .-PWR_MainRegulatorModeConfig
 249              		.section	.text.PWR_FlashPowerDownCmd,"ax",%progbits
 250              		.align	1
 251              		.p2align 4,,15
 252              		.global	PWR_FlashPowerDownCmd
 253              		.syntax unified
 254              		.thumb
 255              		.thumb_func
 256              		.fpu fpv4-sp-d16
 257              		.type	PWR_FlashPowerDownCmd, %function
 258              	PWR_FlashPowerDownCmd:
 259              	.LFB118:
 260              		.loc 1 369 0
 261              		.cfi_startproc
 262              		@ args = 0, pretend = 0, frame = 0
 263              		@ frame_needed = 0, uses_anonymous_args = 0
 264              		@ link register save eliminated.
 265              	.LVL11:
 266              		.loc 1 373 0
 267 0000 014B     		ldr	r3, .L26
 268 0002 1860     		str	r0, [r3]
 269              		.loc 1 374 0
 270 0004 7047     		bx	lr
 271              	.L27:
 272 0006 00BF     		.align	2
 273              	.L26:
 274 0008 24000E42 		.word	1108213796
 275              		.cfi_endproc
 276              	.LFE118:
 277              		.size	PWR_FlashPowerDownCmd, .-PWR_FlashPowerDownCmd
 278              		.section	.text.PWR_EnterSTOPMode,"ax",%progbits
 279              		.align	1
 280              		.p2align 4,,15
 281              		.global	PWR_EnterSTOPMode
 282              		.syntax unified
 283              		.thumb
 284              		.thumb_func
 285              		.fpu fpv4-sp-d16
ARM GAS  /tmp/ccy5nbc0.s 			page 6


 286              		.type	PWR_EnterSTOPMode, %function
 287              	PWR_EnterSTOPMode:
 288              	.LFB119:
 289              		.loc 1 509 0
 290              		.cfi_startproc
 291              		@ args = 0, pretend = 0, frame = 0
 292              		@ frame_needed = 0, uses_anonymous_args = 0
 293              		@ link register save eliminated.
 294              	.LVL12:
 295 0000 10B4     		push	{r4}
 296              		.cfi_def_cfa_offset 4
 297              		.cfi_offset 4, -4
 298              		.loc 1 517 0
 299 0002 0C4C     		ldr	r4, .L33
 300              		.loc 1 528 0
 301 0004 0C4A     		ldr	r2, .L33+4
 302              		.loc 1 517 0
 303 0006 2368     		ldr	r3, [r4]
 304              	.LVL13:
 305              		.loc 1 519 0
 306 0008 23F00303 		bic	r3, r3, #3
 307              	.LVL14:
 308              		.loc 1 522 0
 309 000c 1843     		orrs	r0, r0, r3
 310              	.LVL15:
 311              		.loc 1 525 0
 312 000e 2060     		str	r0, [r4]
 313              		.loc 1 528 0
 314 0010 1369     		ldr	r3, [r2, #16]
 315              		.loc 1 531 0
 316 0012 0129     		cmp	r1, #1
 317              		.loc 1 528 0
 318 0014 43F00403 		orr	r3, r3, #4
 319 0018 1361     		str	r3, [r2, #16]
 320              		.loc 1 531 0
 321 001a 08D0     		beq	.L32
 322              	.LBB8:
 323              	.LBB9:
 324              		.file 2 "ChibiOS_2.6.6/os/ports/common/ARMCMx/CMSIS/include/core_cmInstr.h"
 325              		.loc 2 310 0
 326              		.syntax unified
 327              	@ 310 "ChibiOS_2.6.6/os/ports/common/ARMCMx/CMSIS/include/core_cmInstr.h" 1
 328 001c 20BF     		wfe
 329              	@ 0 "" 2
 330              		.thumb
 331              		.syntax unified
 332              	.L30:
 333              	.LBE9:
 334              	.LBE8:
 335              		.loc 1 542 0
 336 001e 064A     		ldr	r2, .L33+4
 337              		.loc 1 543 0
 338 0020 5DF8044B 		ldr	r4, [sp], #4
 339              		.cfi_remember_state
 340              		.cfi_restore 4
 341              		.cfi_def_cfa_offset 0
 342              		.loc 1 542 0
ARM GAS  /tmp/ccy5nbc0.s 			page 7


 343 0024 1369     		ldr	r3, [r2, #16]
 344 0026 23F00403 		bic	r3, r3, #4
 345 002a 1361     		str	r3, [r2, #16]
 346              		.loc 1 543 0
 347 002c 7047     		bx	lr
 348              	.L32:
 349              		.cfi_restore_state
 350              	.LBB10:
 351              	.LBB11:
 352              		.loc 2 299 0
 353              		.syntax unified
 354              	@ 299 "ChibiOS_2.6.6/os/ports/common/ARMCMx/CMSIS/include/core_cmInstr.h" 1
 355 002e 30BF     		wfi
 356              	@ 0 "" 2
 357              		.thumb
 358              		.syntax unified
 359 0030 F5E7     		b	.L30
 360              	.L34:
 361 0032 00BF     		.align	2
 362              	.L33:
 363 0034 00700040 		.word	1073770496
 364 0038 00ED00E0 		.word	-536810240
 365              	.LBE11:
 366              	.LBE10:
 367              		.cfi_endproc
 368              	.LFE119:
 369              		.size	PWR_EnterSTOPMode, .-PWR_EnterSTOPMode
 370              		.section	.text.PWR_EnterSTANDBYMode,"ax",%progbits
 371              		.align	1
 372              		.p2align 4,,15
 373              		.global	PWR_EnterSTANDBYMode
 374              		.syntax unified
 375              		.thumb
 376              		.thumb_func
 377              		.fpu fpv4-sp-d16
 378              		.type	PWR_EnterSTANDBYMode, %function
 379              	PWR_EnterSTANDBYMode:
 380              	.LFB120:
 381              		.loc 1 557 0
 382              		.cfi_startproc
 383              		@ args = 0, pretend = 0, frame = 0
 384              		@ frame_needed = 0, uses_anonymous_args = 0
 385              		@ link register save eliminated.
 386              		.loc 1 559 0
 387 0000 074B     		ldr	r3, .L36
 388              		.loc 1 565 0
 389 0002 0849     		ldr	r1, .L36+4
 390              		.loc 1 559 0
 391 0004 1A68     		ldr	r2, [r3]
 392 0006 42F00402 		orr	r2, r2, #4
 393 000a 1A60     		str	r2, [r3]
 394              		.loc 1 562 0
 395 000c 1A68     		ldr	r2, [r3]
 396 000e 42F00202 		orr	r2, r2, #2
 397 0012 1A60     		str	r2, [r3]
 398              		.loc 1 565 0
 399 0014 0B69     		ldr	r3, [r1, #16]
ARM GAS  /tmp/ccy5nbc0.s 			page 8


 400 0016 43F00403 		orr	r3, r3, #4
 401 001a 0B61     		str	r3, [r1, #16]
 402              	.LBB12:
 403              	.LBB13:
 404              		.loc 2 299 0
 405              		.syntax unified
 406              	@ 299 "ChibiOS_2.6.6/os/ports/common/ARMCMx/CMSIS/include/core_cmInstr.h" 1
 407 001c 30BF     		wfi
 408              	@ 0 "" 2
 409              		.thumb
 410              		.syntax unified
 411              	.LBE13:
 412              	.LBE12:
 413              		.loc 1 573 0
 414 001e 7047     		bx	lr
 415              	.L37:
 416              		.align	2
 417              	.L36:
 418 0020 00700040 		.word	1073770496
 419 0024 00ED00E0 		.word	-536810240
 420              		.cfi_endproc
 421              	.LFE120:
 422              		.size	PWR_EnterSTANDBYMode, .-PWR_EnterSTANDBYMode
 423              		.section	.text.PWR_GetFlagStatus,"ax",%progbits
 424              		.align	1
 425              		.p2align 4,,15
 426              		.global	PWR_GetFlagStatus
 427              		.syntax unified
 428              		.thumb
 429              		.thumb_func
 430              		.fpu fpv4-sp-d16
 431              		.type	PWR_GetFlagStatus, %function
 432              	PWR_GetFlagStatus:
 433              	.LFB121:
 434              		.loc 1 614 0
 435              		.cfi_startproc
 436              		@ args = 0, pretend = 0, frame = 0
 437              		@ frame_needed = 0, uses_anonymous_args = 0
 438              		@ link register save eliminated.
 439              	.LVL16:
 440              		.loc 1 620 0
 441 0000 034B     		ldr	r3, .L39
 442 0002 5B68     		ldr	r3, [r3, #4]
 443              	.LVL17:
 444 0004 0342     		tst	r3, r0
 445              		.loc 1 630 0
 446 0006 14BF     		ite	ne
 447 0008 0120     		movne	r0, #1
 448              	.LVL18:
 449 000a 0020     		moveq	r0, #0
 450 000c 7047     		bx	lr
 451              	.L40:
 452 000e 00BF     		.align	2
 453              	.L39:
 454 0010 00700040 		.word	1073770496
 455              		.cfi_endproc
 456              	.LFE121:
ARM GAS  /tmp/ccy5nbc0.s 			page 9


 457              		.size	PWR_GetFlagStatus, .-PWR_GetFlagStatus
 458              		.section	.text.PWR_ClearFlag,"ax",%progbits
 459              		.align	1
 460              		.p2align 4,,15
 461              		.global	PWR_ClearFlag
 462              		.syntax unified
 463              		.thumb
 464              		.thumb_func
 465              		.fpu fpv4-sp-d16
 466              		.type	PWR_ClearFlag, %function
 467              	PWR_ClearFlag:
 468              	.LFB122:
 469              		.loc 1 641 0
 470              		.cfi_startproc
 471              		@ args = 0, pretend = 0, frame = 0
 472              		@ frame_needed = 0, uses_anonymous_args = 0
 473              		@ link register save eliminated.
 474              	.LVL19:
 475              		.loc 1 645 0
 476 0000 024A     		ldr	r2, .L42
 477 0002 1368     		ldr	r3, [r2]
 478 0004 43EA8000 		orr	r0, r3, r0, lsl #2
 479              	.LVL20:
 480 0008 1060     		str	r0, [r2]
 481              		.loc 1 646 0
 482 000a 7047     		bx	lr
 483              	.L43:
 484              		.align	2
 485              	.L42:
 486 000c 00700040 		.word	1073770496
 487              		.cfi_endproc
 488              	.LFE122:
 489              		.size	PWR_ClearFlag, .-PWR_ClearFlag
 490              		.text
 491              	.Letext0:
 492              		.file 3 "/usr/arm-none-eabi/include/machine/_default_types.h"
 493              		.file 4 "/usr/arm-none-eabi/include/sys/_stdint.h"
 494              		.file 5 "ChibiOS_2.6.6/os/ports/common/ARMCMx/CMSIS/include/core_cm4.h"
 495              		.file 6 "ChibiOS_2.6.6/os/hal/platforms/STM32F4xx/stm32f4xx.h"
 496              		.file 7 "ChibiOS_2.6.6/ext/stdperiph_stm32f4/inc/stm32f4xx_rcc.h"