ARM GAS  /tmp/ccBdZ8fr.s 			page 1


   1              		.cpu cortex-m4
   2              		.eabi_attribute 27, 1
   3              		.eabi_attribute 28, 1
   4              		.eabi_attribute 20, 1
   5              		.eabi_attribute 21, 1
   6              		.eabi_attribute 23, 3
   7              		.eabi_attribute 24, 1
   8              		.eabi_attribute 25, 1
   9              		.eabi_attribute 26, 1
  10              		.eabi_attribute 30, 2
  11              		.eabi_attribute 34, 1
  12              		.eabi_attribute 18, 4
  13              		.file	"stm32f4xx_cryp_tdes.c"
  14              		.text
  15              	.Ltext0:
  16              		.cfi_sections	.debug_frame
  17              		.section	.text.CRYP_TDES_ECB,"ax",%progbits
  18              		.align	1
  19              		.p2align 4,,15
  20              		.global	CRYP_TDES_ECB
  21              		.syntax unified
  22              		.thumb
  23              		.thumb_func
  24              		.fpu fpv4-sp-d16
  25              		.type	CRYP_TDES_ECB, %function
  26              	CRYP_TDES_ECB:
  27              	.LFB111:
  28              		.file 1 "ChibiOS_2.6.6/ext/stdperiph_stm32f4/src/stm32f4xx_cryp_tdes.c"
  29              		.loc 1 104 0
  30              		.cfi_startproc
  31              		@ args = 4, pretend = 0, frame = 48
  32              		@ frame_needed = 0, uses_anonymous_args = 0
  33              	.LVL0:
  34 0000 2DE9F043 		push	{r4, r5, r6, r7, r8, r9, lr}
  35              		.cfi_def_cfa_offset 28
  36              		.cfi_offset 4, -28
  37              		.cfi_offset 5, -24
  38              		.cfi_offset 6, -20
  39              		.cfi_offset 7, -16
  40              		.cfi_offset 8, -12
  41              		.cfi_offset 9, -8
  42              		.cfi_offset 14, -4
  43 0004 8DB0     		sub	sp, sp, #52
  44              		.cfi_def_cfa_offset 80
  45              		.loc 1 104 0
  46 0006 8046     		mov	r8, r0
  47              		.loc 1 107 0
  48 0008 0025     		movs	r5, #0
  49              		.loc 1 116 0
  50 000a 04A8     		add	r0, sp, #16
  51              	.LVL1:
  52              		.loc 1 104 0
  53 000c 0C46     		mov	r4, r1
  54 000e 9946     		mov	r9, r3
  55 0010 1646     		mov	r6, r2
  56              		.loc 1 107 0
  57 0012 0195     		str	r5, [sp, #4]
ARM GAS  /tmp/ccBdZ8fr.s 			page 2


  58              	.LVL2:
  59              		.loc 1 104 0
  60 0014 149F     		ldr	r7, [sp, #80]
  61              	.LVL3:
  62              		.loc 1 116 0
  63 0016 FFF7FEFF 		bl	CRYP_KeyStructInit
  64              	.LVL4:
  65              		.loc 1 119 0
  66 001a B8F1010F 		cmp	r8, #1
  67              		.loc 1 125 0
  68 001e 16BF     		itet	ne
  69 0020 0423     		movne	r3, #4
  70              		.loc 1 121 0
  71 0022 ADF80850 		strheq	r5, [sp, #8]	@ movhi
  72              		.loc 1 125 0
  73 0026 ADF80830 		strhne	r3, [sp, #8]	@ movhi
  74              		.loc 1 128 0
  75 002a 0025     		movs	r5, #0
  76              		.loc 1 129 0
  77 002c 8023     		movs	r3, #128
  78              		.loc 1 130 0
  79 002e 02A8     		add	r0, sp, #8
  80              		.loc 1 129 0
  81 0030 ADF80C30 		strh	r3, [sp, #12]	@ movhi
  82              		.loc 1 128 0
  83 0034 ADF80A50 		strh	r5, [sp, #10]	@ movhi
  84              		.loc 1 130 0
  85 0038 FFF7FEFF 		bl	CRYP_Init
  86              	.LVL5:
  87              	.LBB30:
  88              	.LBB31:
  89              		.file 2 "ChibiOS_2.6.6/os/ports/common/ARMCMx/CMSIS/include/core_cmInstr.h"
  90              		.loc 2 369 0
  91 003c 2368     		ldr	r3, [r4]
  92              		.syntax unified
  93              	@ 369 "ChibiOS_2.6.6/os/ports/common/ARMCMx/CMSIS/include/core_cmInstr.h" 1
  94 003e 1BBA     		rev r3, r3
  95              	@ 0 "" 2
  96              	.LVL6:
  97              		.thumb
  98              		.syntax unified
  99              	.LBE31:
 100              	.LBE30:
 101              		.loc 1 133 0
 102 0040 0693     		str	r3, [sp, #24]
 103              	.LVL7:
 104              	.LBB32:
 105              	.LBB33:
 106              		.loc 2 369 0
 107 0042 6368     		ldr	r3, [r4, #4]
 108              		.syntax unified
 109              	@ 369 "ChibiOS_2.6.6/os/ports/common/ARMCMx/CMSIS/include/core_cmInstr.h" 1
 110 0044 1BBA     		rev r3, r3
 111              	@ 0 "" 2
 112              	.LVL8:
 113              		.thumb
 114              		.syntax unified
ARM GAS  /tmp/ccBdZ8fr.s 			page 3


 115              	.LBE33:
 116              	.LBE32:
 117              		.loc 1 135 0
 118 0046 0793     		str	r3, [sp, #28]
 119              	.LVL9:
 120              	.LBB34:
 121              	.LBB35:
 122              		.loc 2 369 0
 123 0048 A368     		ldr	r3, [r4, #8]
 124              		.syntax unified
 125              	@ 369 "ChibiOS_2.6.6/os/ports/common/ARMCMx/CMSIS/include/core_cmInstr.h" 1
 126 004a 1BBA     		rev r3, r3
 127              	@ 0 "" 2
 128              	.LVL10:
 129              		.thumb
 130              		.syntax unified
 131              	.LBE35:
 132              	.LBE34:
 133              		.loc 1 137 0
 134 004c 0893     		str	r3, [sp, #32]
 135              	.LVL11:
 136              	.LBB36:
 137              	.LBB37:
 138              		.loc 2 369 0
 139 004e E368     		ldr	r3, [r4, #12]
 140              		.syntax unified
 141              	@ 369 "ChibiOS_2.6.6/os/ports/common/ARMCMx/CMSIS/include/core_cmInstr.h" 1
 142 0050 1BBA     		rev r3, r3
 143              	@ 0 "" 2
 144              	.LVL12:
 145              		.thumb
 146              		.syntax unified
 147              	.LBE37:
 148              	.LBE36:
 149              		.loc 1 139 0
 150 0052 0993     		str	r3, [sp, #36]
 151              	.LVL13:
 152              	.LBB38:
 153              	.LBB39:
 154              		.loc 2 369 0
 155 0054 2369     		ldr	r3, [r4, #16]
 156              		.syntax unified
 157              	@ 369 "ChibiOS_2.6.6/os/ports/common/ARMCMx/CMSIS/include/core_cmInstr.h" 1
 158 0056 1BBA     		rev r3, r3
 159              	@ 0 "" 2
 160              	.LVL14:
 161              		.thumb
 162              		.syntax unified
 163              	.LBE39:
 164              	.LBE38:
 165              		.loc 1 141 0
 166 0058 0A93     		str	r3, [sp, #40]
 167              	.LVL15:
 168              	.LBB40:
 169              	.LBB41:
 170              		.loc 2 369 0
 171 005a 6369     		ldr	r3, [r4, #20]
ARM GAS  /tmp/ccBdZ8fr.s 			page 4


 172              		.syntax unified
 173              	@ 369 "ChibiOS_2.6.6/os/ports/common/ARMCMx/CMSIS/include/core_cmInstr.h" 1
 174 005c 1BBA     		rev r3, r3
 175              	@ 0 "" 2
 176              	.LVL16:
 177              		.thumb
 178              		.syntax unified
 179              	.LBE41:
 180              	.LBE40:
 181              		.loc 1 144 0
 182 005e 04A8     		add	r0, sp, #16
 183              		.loc 1 143 0
 184 0060 0B93     		str	r3, [sp, #44]
 185              		.loc 1 144 0
 186 0062 FFF7FEFF 		bl	CRYP_KeyInit
 187              	.LVL17:
 188              		.loc 1 147 0
 189 0066 FFF7FEFF 		bl	CRYP_FIFOFlush
 190              	.LVL18:
 191              		.loc 1 150 0
 192 006a 0120     		movs	r0, #1
 193 006c FFF7FEFF 		bl	CRYP_Cmd
 194              	.LVL19:
 195              		.loc 1 152 0
 196 0070 B9F1000F 		cmp	r9, #0
 197 0074 30D0     		beq	.L4
 198 0076 6FF00308 		mvn	r8, #3
 199 007a A8EB0608 		sub	r8, r8, r6
 200 007e 341D     		adds	r4, r6, #4
 201              	.LVL20:
 202              	.L9:
 203              		.loc 1 155 0
 204 0080 54F8040C 		ldr	r0, [r4, #-4]
 205 0084 FFF7FEFF 		bl	CRYP_DataIn
 206              	.LVL21:
 207              		.loc 1 157 0
 208 0088 2068     		ldr	r0, [r4]
 209 008a FFF7FEFF 		bl	CRYP_DataIn
 210              	.LVL22:
 211              		.loc 1 161 0
 212 008e 0195     		str	r5, [sp, #4]
 213 0090 00E0     		b	.L6
 214              	.LVL23:
 215              	.L18:
 216              		.loc 1 166 0 discriminator 1
 217 0092 90B1     		cbz	r0, .L7
 218              	.LVL24:
 219              	.L6:
 220              		.loc 1 164 0 discriminator 2
 221 0094 1020     		movs	r0, #16
 222 0096 FFF7FEFF 		bl	CRYP_GetFlagStatus
 223              	.LVL25:
 224              		.loc 1 165 0 discriminator 2
 225 009a 019B     		ldr	r3, [sp, #4]
 226 009c 0133     		adds	r3, r3, #1
 227 009e 0193     		str	r3, [sp, #4]
 228              		.loc 1 166 0 discriminator 2
ARM GAS  /tmp/ccBdZ8fr.s 			page 5


 229 00a0 019B     		ldr	r3, [sp, #4]
 230 00a2 B3F5803F 		cmp	r3, #65536
 231 00a6 F4D1     		bne	.L18
 232              		.loc 1 168 0
 233 00a8 38B1     		cbz	r0, .L7
 234              		.loc 1 170 0
 235 00aa 0024     		movs	r4, #0
 236              	.LVL26:
 237              	.L8:
 238              		.loc 1 184 0
 239 00ac 0020     		movs	r0, #0
 240 00ae FFF7FEFF 		bl	CRYP_Cmd
 241              	.LVL27:
 242              		.loc 1 187 0
 243 00b2 2046     		mov	r0, r4
 244 00b4 0DB0     		add	sp, sp, #52
 245              		.cfi_remember_state
 246              		.cfi_def_cfa_offset 28
 247              		@ sp needed
 248 00b6 BDE8F083 		pop	{r4, r5, r6, r7, r8, r9, pc}
 249              	.LVL28:
 250              	.L7:
 251              		.cfi_restore_state
 252              		.loc 1 176 0
 253 00ba FFF7FEFF 		bl	CRYP_DataOut
 254              	.LVL29:
 255 00be A31B     		subs	r3, r4, r6
 256 00c0 3B44     		add	r3, r3, r7
 257 00c2 43F8040C 		str	r0, [r3, #-4]
 258              	.LVL30:
 259              		.loc 1 178 0
 260 00c6 FFF7FEFF 		bl	CRYP_DataOut
 261              	.LVL31:
 262 00ca BB1B     		subs	r3, r7, r6
 263 00cc 1851     		str	r0, [r3, r4]
 264              	.LVL32:
 265 00ce 0834     		adds	r4, r4, #8
 266              	.LVL33:
 267              		.loc 1 152 0
 268 00d0 08EB0403 		add	r3, r8, r4
 269 00d4 9945     		cmp	r9, r3
 270 00d6 D3D8     		bhi	.L9
 271              	.LVL34:
 272              	.L4:
 273              		.loc 1 104 0
 274 00d8 0124     		movs	r4, #1
 275 00da E7E7     		b	.L8
 276              		.cfi_endproc
 277              	.LFE111:
 278              		.size	CRYP_TDES_ECB, .-CRYP_TDES_ECB
 279              		.section	.text.CRYP_TDES_CBC,"ax",%progbits
 280              		.align	1
 281              		.p2align 4,,15
 282              		.global	CRYP_TDES_CBC
 283              		.syntax unified
 284              		.thumb
 285              		.thumb_func
ARM GAS  /tmp/ccBdZ8fr.s 			page 6


 286              		.fpu fpv4-sp-d16
 287              		.type	CRYP_TDES_CBC, %function
 288              	CRYP_TDES_CBC:
 289              	.LFB112:
 290              		.loc 1 206 0
 291              		.cfi_startproc
 292              		@ args = 8, pretend = 0, frame = 64
 293              		@ frame_needed = 0, uses_anonymous_args = 0
 294              	.LVL35:
 295 0000 2DE9F047 		push	{r4, r5, r6, r7, r8, r9, r10, lr}
 296              		.cfi_def_cfa_offset 32
 297              		.cfi_offset 4, -32
 298              		.cfi_offset 5, -28
 299              		.cfi_offset 6, -24
 300              		.cfi_offset 7, -20
 301              		.cfi_offset 8, -16
 302              		.cfi_offset 9, -12
 303              		.cfi_offset 10, -8
 304              		.cfi_offset 14, -4
 305 0004 90B0     		sub	sp, sp, #64
 306              		.cfi_def_cfa_offset 96
 307              		.loc 1 206 0
 308 0006 8246     		mov	r10, r0
 309              		.loc 1 210 0
 310 0008 4FF00008 		mov	r8, #0
 311              		.loc 1 220 0
 312 000c 08A8     		add	r0, sp, #32
 313              	.LVL36:
 314              		.loc 1 206 0
 315 000e 0C46     		mov	r4, r1
 316 0010 1E46     		mov	r6, r3
 317 0012 1546     		mov	r5, r2
 318              		.loc 1 210 0
 319 0014 CDF80480 		str	r8, [sp, #4]
 320              	.LVL37:
 321              		.loc 1 206 0
 322 0018 DDE91897 		ldrd	r9, r7, [sp, #96]
 323              	.LVL38:
 324              		.loc 1 220 0
 325 001c FFF7FEFF 		bl	CRYP_KeyStructInit
 326              	.LVL39:
 327              		.loc 1 223 0
 328 0020 BAF1010F 		cmp	r10, #1
 329              		.loc 1 229 0
 330 0024 18BF     		it	ne
 331 0026 0423     		movne	r3, #4
 332              		.loc 1 231 0
 333 0028 4FF00802 		mov	r2, #8
 334              		.loc 1 229 0
 335 002c 18BF     		it	ne
 336 002e ADF80830 		strhne	r3, [sp, #8]	@ movhi
 337              		.loc 1 234 0
 338 0032 0DEB0200 		add	r0, sp, r2
 339              		.loc 1 232 0
 340 0036 4FF08003 		mov	r3, #128
 341              		.loc 1 225 0
 342 003a 08BF     		it	eq
ARM GAS  /tmp/ccBdZ8fr.s 			page 7


 343 003c ADF80880 		strheq	r8, [sp, #8]	@ movhi
 344              		.loc 1 232 0
 345 0040 ADF80C30 		strh	r3, [sp, #12]	@ movhi
 346              		.loc 1 231 0
 347 0044 ADF80A20 		strh	r2, [sp, #10]	@ movhi
 348              		.loc 1 234 0
 349 0048 FFF7FEFF 		bl	CRYP_Init
 350              	.LVL40:
 351              	.LBB42:
 352              	.LBB43:
 353              		.loc 2 369 0
 354 004c 2368     		ldr	r3, [r4]
 355              		.syntax unified
 356              	@ 369 "ChibiOS_2.6.6/os/ports/common/ARMCMx/CMSIS/include/core_cmInstr.h" 1
 357 004e 1BBA     		rev r3, r3
 358              	@ 0 "" 2
 359              	.LVL41:
 360              		.thumb
 361              		.syntax unified
 362              	.LBE43:
 363              	.LBE42:
 364              		.loc 1 237 0
 365 0050 0A93     		str	r3, [sp, #40]
 366              	.LVL42:
 367              	.LBB44:
 368              	.LBB45:
 369              		.loc 2 369 0
 370 0052 6368     		ldr	r3, [r4, #4]
 371              		.syntax unified
 372              	@ 369 "ChibiOS_2.6.6/os/ports/common/ARMCMx/CMSIS/include/core_cmInstr.h" 1
 373 0054 1BBA     		rev r3, r3
 374              	@ 0 "" 2
 375              	.LVL43:
 376              		.thumb
 377              		.syntax unified
 378              	.LBE45:
 379              	.LBE44:
 380              		.loc 1 239 0
 381 0056 0B93     		str	r3, [sp, #44]
 382              	.LVL44:
 383              	.LBB46:
 384              	.LBB47:
 385              		.loc 2 369 0
 386 0058 A368     		ldr	r3, [r4, #8]
 387              		.syntax unified
 388              	@ 369 "ChibiOS_2.6.6/os/ports/common/ARMCMx/CMSIS/include/core_cmInstr.h" 1
 389 005a 1BBA     		rev r3, r3
 390              	@ 0 "" 2
 391              	.LVL45:
 392              		.thumb
 393              		.syntax unified
 394              	.LBE47:
 395              	.LBE46:
 396              		.loc 1 241 0
 397 005c 0C93     		str	r3, [sp, #48]
 398              	.LVL46:
 399              	.LBB48:
ARM GAS  /tmp/ccBdZ8fr.s 			page 8


 400              	.LBB49:
 401              		.loc 2 369 0
 402 005e E368     		ldr	r3, [r4, #12]
 403              		.syntax unified
 404              	@ 369 "ChibiOS_2.6.6/os/ports/common/ARMCMx/CMSIS/include/core_cmInstr.h" 1
 405 0060 1BBA     		rev r3, r3
 406              	@ 0 "" 2
 407              	.LVL47:
 408              		.thumb
 409              		.syntax unified
 410              	.LBE49:
 411              	.LBE48:
 412              		.loc 1 243 0
 413 0062 0D93     		str	r3, [sp, #52]
 414              	.LVL48:
 415              	.LBB50:
 416              	.LBB51:
 417              		.loc 2 369 0
 418 0064 2369     		ldr	r3, [r4, #16]
 419              		.syntax unified
 420              	@ 369 "ChibiOS_2.6.6/os/ports/common/ARMCMx/CMSIS/include/core_cmInstr.h" 1
 421 0066 1BBA     		rev r3, r3
 422              	@ 0 "" 2
 423              	.LVL49:
 424              		.thumb
 425              		.syntax unified
 426              	.LBE51:
 427              	.LBE50:
 428              		.loc 1 245 0
 429 0068 0E93     		str	r3, [sp, #56]
 430              	.LVL50:
 431              	.LBB52:
 432              	.LBB53:
 433              		.loc 2 369 0
 434 006a 6369     		ldr	r3, [r4, #20]
 435              		.syntax unified
 436              	@ 369 "ChibiOS_2.6.6/os/ports/common/ARMCMx/CMSIS/include/core_cmInstr.h" 1
 437 006c 1BBA     		rev r3, r3
 438              	@ 0 "" 2
 439              	.LVL51:
 440              		.thumb
 441              		.syntax unified
 442              	.LBE53:
 443              	.LBE52:
 444              		.loc 1 248 0
 445 006e 08A8     		add	r0, sp, #32
 446              		.loc 1 247 0
 447 0070 0F93     		str	r3, [sp, #60]
 448              		.loc 1 248 0
 449 0072 FFF7FEFF 		bl	CRYP_KeyInit
 450              	.LVL52:
 451              	.LBB54:
 452              	.LBB55:
 453              		.loc 2 369 0
 454 0076 2B68     		ldr	r3, [r5]
 455              		.syntax unified
 456              	@ 369 "ChibiOS_2.6.6/os/ports/common/ARMCMx/CMSIS/include/core_cmInstr.h" 1
ARM GAS  /tmp/ccBdZ8fr.s 			page 9


 457 0078 1BBA     		rev r3, r3
 458              	@ 0 "" 2
 459              	.LVL53:
 460              		.thumb
 461              		.syntax unified
 462              	.LBE55:
 463              	.LBE54:
 464              		.loc 1 251 0
 465 007a 0493     		str	r3, [sp, #16]
 466              	.LVL54:
 467              	.LBB56:
 468              	.LBB57:
 469              		.loc 2 369 0
 470 007c 6B68     		ldr	r3, [r5, #4]
 471              		.syntax unified
 472              	@ 369 "ChibiOS_2.6.6/os/ports/common/ARMCMx/CMSIS/include/core_cmInstr.h" 1
 473 007e 1BBA     		rev r3, r3
 474              	@ 0 "" 2
 475              	.LVL55:
 476              		.thumb
 477              		.syntax unified
 478              	.LBE57:
 479              	.LBE56:
 480              		.loc 1 254 0
 481 0080 04A8     		add	r0, sp, #16
 482              		.loc 1 253 0
 483 0082 0593     		str	r3, [sp, #20]
 484              		.loc 1 254 0
 485 0084 FFF7FEFF 		bl	CRYP_IVInit
 486              	.LVL56:
 487              		.loc 1 257 0
 488 0088 FFF7FEFF 		bl	CRYP_FIFOFlush
 489              	.LVL57:
 490              		.loc 1 260 0
 491 008c 0120     		movs	r0, #1
 492 008e FFF7FEFF 		bl	CRYP_Cmd
 493              	.LVL58:
 494              		.loc 1 262 0
 495 0092 B9F1000F 		cmp	r9, #0
 496 0096 31D0     		beq	.L22
 497 0098 6FF00308 		mvn	r8, #3
 498 009c A8EB0608 		sub	r8, r8, r6
 499 00a0 341D     		adds	r4, r6, #4
 500              	.LVL59:
 501              		.loc 1 271 0
 502 00a2 0025     		movs	r5, #0
 503              	.LVL60:
 504              	.L27:
 505              		.loc 1 265 0
 506 00a4 54F8040C 		ldr	r0, [r4, #-4]
 507 00a8 FFF7FEFF 		bl	CRYP_DataIn
 508              	.LVL61:
 509              		.loc 1 267 0
 510 00ac 2068     		ldr	r0, [r4]
 511 00ae FFF7FEFF 		bl	CRYP_DataIn
 512              	.LVL62:
 513              		.loc 1 271 0
ARM GAS  /tmp/ccBdZ8fr.s 			page 10


 514 00b2 0195     		str	r5, [sp, #4]
 515 00b4 00E0     		b	.L24
 516              	.LVL63:
 517              	.L35:
 518              		.loc 1 276 0 discriminator 1
 519 00b6 90B1     		cbz	r0, .L25
 520              	.LVL64:
 521              	.L24:
 522              		.loc 1 274 0 discriminator 2
 523 00b8 1020     		movs	r0, #16
 524 00ba FFF7FEFF 		bl	CRYP_GetFlagStatus
 525              	.LVL65:
 526              		.loc 1 275 0 discriminator 2
 527 00be 019B     		ldr	r3, [sp, #4]
 528 00c0 0133     		adds	r3, r3, #1
 529 00c2 0193     		str	r3, [sp, #4]
 530              		.loc 1 276 0 discriminator 2
 531 00c4 019B     		ldr	r3, [sp, #4]
 532 00c6 B3F5803F 		cmp	r3, #65536
 533 00ca F4D1     		bne	.L35
 534              		.loc 1 278 0
 535 00cc 38B1     		cbz	r0, .L25
 536              		.loc 1 280 0
 537 00ce 0024     		movs	r4, #0
 538              	.LVL66:
 539              	.L26:
 540              		.loc 1 294 0
 541 00d0 0020     		movs	r0, #0
 542 00d2 FFF7FEFF 		bl	CRYP_Cmd
 543              	.LVL67:
 544              		.loc 1 297 0
 545 00d6 2046     		mov	r0, r4
 546 00d8 10B0     		add	sp, sp, #64
 547              		.cfi_remember_state
 548              		.cfi_def_cfa_offset 32
 549              		@ sp needed
 550 00da BDE8F087 		pop	{r4, r5, r6, r7, r8, r9, r10, pc}
 551              	.LVL68:
 552              	.L25:
 553              		.cfi_restore_state
 554              		.loc 1 286 0
 555 00de FFF7FEFF 		bl	CRYP_DataOut
 556              	.LVL69:
 557 00e2 A31B     		subs	r3, r4, r6
 558 00e4 3B44     		add	r3, r3, r7
 559 00e6 43F8040C 		str	r0, [r3, #-4]
 560              	.LVL70:
 561              		.loc 1 288 0
 562 00ea FFF7FEFF 		bl	CRYP_DataOut
 563              	.LVL71:
 564 00ee BB1B     		subs	r3, r7, r6
 565 00f0 1851     		str	r0, [r3, r4]
 566              	.LVL72:
 567 00f2 0834     		adds	r4, r4, #8
 568              	.LVL73:
 569              		.loc 1 262 0
 570 00f4 08EB0403 		add	r3, r8, r4
ARM GAS  /tmp/ccBdZ8fr.s 			page 11


 571 00f8 9945     		cmp	r9, r3
 572 00fa D3D8     		bhi	.L27
 573              	.LVL74:
 574              	.L22:
 575              		.loc 1 206 0
 576 00fc 0124     		movs	r4, #1
 577 00fe E7E7     		b	.L26
 578              		.cfi_endproc
 579              	.LFE112:
 580              		.size	CRYP_TDES_CBC, .-CRYP_TDES_CBC
 581              		.text
 582              	.Letext0:
 583              		.file 3 "/usr/arm-none-eabi/include/machine/_default_types.h"
 584              		.file 4 "/usr/arm-none-eabi/include/sys/_stdint.h"
 585              		.file 5 "ChibiOS_2.6.6/os/hal/platforms/STM32F4xx/stm32f4xx.h"
 586              		.file 6 "ChibiOS_2.6.6/ext/stdperiph_stm32f4/inc/stm32f4xx_cryp.h"
 587              		.file 7 "ChibiOS_2.6.6/os/ports/common/ARMCMx/CMSIS/include/core_cm4.h"
 588              		.section	.debug_info,"",%progbits
 589              	.Ldebug_info0:
 590 0000 88080000 		.4byte	0x888
 591 0004 0400     		.2byte	0x4
 592 0006 00000000 		.4byte	.Ldebug_abbrev0
 593 000a 04       		.byte	0x4
 594 000b 01       		.uleb128 0x1
 595 000c DD030000 		.4byte	.LASF68
 596 0010 0C       		.byte	0xc
 597 0011 95000000 		.4byte	.LASF69
 598 0015 2F030000 		.4byte	.LASF70
 599 0019 00000000 		.4byte	.Ldebug_ranges0+0
 600 001d 00000000 		.4byte	0
 601 0021 00000000 		.4byte	.Ldebug_line0
 602 0025 02       		.uleb128 0x2
 603 0026 01       		.byte	0x1
 604 0027 06       		.byte	0x6
 605 0028 10020000 		.4byte	.LASF0
 606 002c 03       		.uleb128 0x3
 607 002d 94010000 		.4byte	.LASF3
 608 0031 03       		.byte	0x3
 609 0032 2B       		.byte	0x2b
 610 0033 37000000 		.4byte	0x37
 611 0037 02       		.uleb128 0x2
 612 0038 01       		.byte	0x1
 613 0039 08       		.byte	0x8
 614 003a ED010000 		.4byte	.LASF1
 615 003e 02       		.uleb128 0x2
 616 003f 02       		.byte	0x2
 617 0040 05       		.byte	0x5
 618 0041 5E010000 		.4byte	.LASF2
 619 0045 03       		.uleb128 0x3
 620 0046 7B000000 		.4byte	.LASF4
 621 004a 03       		.byte	0x3
 622 004b 39       		.byte	0x39
 623 004c 50000000 		.4byte	0x50
 624 0050 02       		.uleb128 0x2
 625 0051 02       		.byte	0x2
 626 0052 07       		.byte	0x7
 627 0053 91020000 		.4byte	.LASF5
ARM GAS  /tmp/ccBdZ8fr.s 			page 12


 628 0057 03       		.uleb128 0x3
 629 0058 50030000 		.4byte	.LASF6
 630 005c 03       		.byte	0x3
 631 005d 4D       		.byte	0x4d
 632 005e 62000000 		.4byte	0x62
 633 0062 02       		.uleb128 0x2
 634 0063 04       		.byte	0x4
 635 0064 05       		.byte	0x5
 636 0065 7F010000 		.4byte	.LASF7
 637 0069 03       		.uleb128 0x3
 638 006a 61000000 		.4byte	.LASF8
 639 006e 03       		.byte	0x3
 640 006f 4F       		.byte	0x4f
 641 0070 74000000 		.4byte	0x74
 642 0074 02       		.uleb128 0x2
 643 0075 04       		.byte	0x4
 644 0076 07       		.byte	0x7
 645 0077 12030000 		.4byte	.LASF9
 646 007b 02       		.uleb128 0x2
 647 007c 08       		.byte	0x8
 648 007d 05       		.byte	0x5
 649 007e 71010000 		.4byte	.LASF10
 650 0082 02       		.uleb128 0x2
 651 0083 08       		.byte	0x8
 652 0084 07       		.byte	0x7
 653 0085 1C020000 		.4byte	.LASF11
 654 0089 04       		.uleb128 0x4
 655 008a 04       		.byte	0x4
 656 008b 05       		.byte	0x5
 657 008c 696E7400 		.ascii	"int\000"
 658 0090 02       		.uleb128 0x2
 659 0091 04       		.byte	0x4
 660 0092 07       		.byte	0x7
 661 0093 49020000 		.4byte	.LASF12
 662 0097 03       		.uleb128 0x3
 663 0098 07010000 		.4byte	.LASF13
 664 009c 04       		.byte	0x4
 665 009d 18       		.byte	0x18
 666 009e 2C000000 		.4byte	0x2c
 667 00a2 03       		.uleb128 0x3
 668 00a3 56020000 		.4byte	.LASF14
 669 00a7 04       		.byte	0x4
 670 00a8 24       		.byte	0x24
 671 00a9 45000000 		.4byte	0x45
 672 00ad 03       		.uleb128 0x3
 673 00ae C5020000 		.4byte	.LASF15
 674 00b2 04       		.byte	0x4
 675 00b3 2C       		.byte	0x2c
 676 00b4 57000000 		.4byte	0x57
 677 00b8 05       		.uleb128 0x5
 678 00b9 AD000000 		.4byte	0xad
 679 00bd 03       		.uleb128 0x3
 680 00be 40020000 		.4byte	.LASF16
 681 00c2 04       		.byte	0x4
 682 00c3 30       		.byte	0x30
 683 00c4 69000000 		.4byte	0x69
 684 00c8 05       		.uleb128 0x5
ARM GAS  /tmp/ccBdZ8fr.s 			page 13


 685 00c9 BD000000 		.4byte	0xbd
 686 00cd 06       		.uleb128 0x6
 687 00ce 95030000 		.4byte	.LASF71
 688 00d2 07       		.byte	0x7
 689 00d3 9806     		.2byte	0x698
 690 00d5 B8000000 		.4byte	0xb8
 691 00d9 07       		.uleb128 0x7
 692 00da 07       		.byte	0x7
 693 00db 01       		.byte	0x1
 694 00dc 37000000 		.4byte	0x37
 695 00e0 05       		.byte	0x5
 696 00e1 F701     		.2byte	0x1f7
 697 00e3 F4000000 		.4byte	0xf4
 698 00e7 08       		.uleb128 0x8
 699 00e8 5A030000 		.4byte	.LASF17
 700 00ec 00       		.byte	0
 701 00ed 09       		.uleb128 0x9
 702 00ee 53455400 		.ascii	"SET\000"
 703 00f2 01       		.byte	0x1
 704 00f3 00       		.byte	0
 705 00f4 07       		.uleb128 0x7
 706 00f5 07       		.byte	0x7
 707 00f6 01       		.byte	0x1
 708 00f7 37000000 		.4byte	0x37
 709 00fb 05       		.byte	0x5
 710 00fc F901     		.2byte	0x1f9
 711 00fe 0F010000 		.4byte	0x10f
 712 0102 08       		.uleb128 0x8
 713 0103 4E010000 		.4byte	.LASF18
 714 0107 00       		.byte	0
 715 0108 08       		.uleb128 0x8
 716 0109 C8030000 		.4byte	.LASF19
 717 010d 01       		.byte	0x1
 718 010e 00       		.byte	0
 719 010f 07       		.uleb128 0x7
 720 0110 07       		.byte	0x7
 721 0111 01       		.byte	0x1
 722 0112 37000000 		.4byte	0x37
 723 0116 05       		.byte	0x5
 724 0117 FC01     		.2byte	0x1fc
 725 0119 2A010000 		.4byte	0x12a
 726 011d 08       		.uleb128 0x8
 727 011e 9E010000 		.4byte	.LASF20
 728 0122 00       		.byte	0
 729 0123 08       		.uleb128 0x8
 730 0124 89020000 		.4byte	.LASF21
 731 0128 01       		.byte	0x1
 732 0129 00       		.byte	0
 733 012a 0A       		.uleb128 0xa
 734 012b 88010000 		.4byte	.LASF22
 735 012f 05       		.byte	0x5
 736 0130 FC01     		.2byte	0x1fc
 737 0132 0F010000 		.4byte	0x10f
 738 0136 0B       		.uleb128 0xb
 739 0137 08       		.byte	0x8
 740 0138 06       		.byte	0x6
 741 0139 35       		.byte	0x35
ARM GAS  /tmp/ccBdZ8fr.s 			page 14


 742 013a 6F010000 		.4byte	0x16f
 743 013e 0C       		.uleb128 0xc
 744 013f BE010000 		.4byte	.LASF23
 745 0143 06       		.byte	0x6
 746 0144 37       		.byte	0x37
 747 0145 A2000000 		.4byte	0xa2
 748 0149 00       		.byte	0
 749 014a 0C       		.uleb128 0xc
 750 014b CF030000 		.4byte	.LASF24
 751 014f 06       		.byte	0x6
 752 0150 39       		.byte	0x39
 753 0151 A2000000 		.4byte	0xa2
 754 0155 02       		.byte	0x2
 755 0156 0C       		.uleb128 0xc
 756 0157 6D020000 		.4byte	.LASF25
 757 015b 06       		.byte	0x6
 758 015c 3C       		.byte	0x3c
 759 015d A2000000 		.4byte	0xa2
 760 0161 04       		.byte	0x4
 761 0162 0C       		.uleb128 0xc
 762 0163 05030000 		.4byte	.LASF26
 763 0167 06       		.byte	0x6
 764 0168 3E       		.byte	0x3e
 765 0169 A2000000 		.4byte	0xa2
 766 016d 06       		.byte	0x6
 767 016e 00       		.byte	0
 768 016f 03       		.uleb128 0x3
 769 0170 50000000 		.4byte	.LASF27
 770 0174 06       		.byte	0x6
 771 0175 41       		.byte	0x41
 772 0176 36010000 		.4byte	0x136
 773 017a 0B       		.uleb128 0xb
 774 017b 20       		.byte	0x20
 775 017c 06       		.byte	0x6
 776 017d 46       		.byte	0x46
 777 017e E3010000 		.4byte	0x1e3
 778 0182 0C       		.uleb128 0xc
 779 0183 5F020000 		.4byte	.LASF28
 780 0187 06       		.byte	0x6
 781 0188 48       		.byte	0x48
 782 0189 BD000000 		.4byte	0xbd
 783 018d 00       		.byte	0
 784 018e 0C       		.uleb128 0xc
 785 018f E8020000 		.4byte	.LASF29
 786 0193 06       		.byte	0x6
 787 0194 49       		.byte	0x49
 788 0195 BD000000 		.4byte	0xbd
 789 0199 04       		.byte	0x4
 790 019a 0C       		.uleb128 0xc
 791 019b 87030000 		.4byte	.LASF30
 792 019f 06       		.byte	0x6
 793 01a0 4A       		.byte	0x4a
 794 01a1 BD000000 		.4byte	0xbd
 795 01a5 08       		.byte	0x8
 796 01a6 0C       		.uleb128 0xc
 797 01a7 86000000 		.4byte	.LASF31
 798 01ab 06       		.byte	0x6
ARM GAS  /tmp/ccBdZ8fr.s 			page 15


 799 01ac 4B       		.byte	0x4b
 800 01ad BD000000 		.4byte	0xbd
 801 01b1 0C       		.byte	0xc
 802 01b2 0C       		.uleb128 0xc
 803 01b3 7B020000 		.4byte	.LASF32
 804 01b7 06       		.byte	0x6
 805 01b8 4C       		.byte	0x4c
 806 01b9 BD000000 		.4byte	0xbd
 807 01bd 10       		.byte	0x10
 808 01be 0C       		.uleb128 0xc
 809 01bf CD020000 		.4byte	.LASF33
 810 01c3 06       		.byte	0x6
 811 01c4 4D       		.byte	0x4d
 812 01c5 BD000000 		.4byte	0xbd
 813 01c9 14       		.byte	0x14
 814 01ca 0C       		.uleb128 0xc
 815 01cb AB020000 		.4byte	.LASF34
 816 01cf 06       		.byte	0x6
 817 01d0 4E       		.byte	0x4e
 818 01d1 BD000000 		.4byte	0xbd
 819 01d5 18       		.byte	0x18
 820 01d6 0C       		.uleb128 0xc
 821 01d7 6C000000 		.4byte	.LASF35
 822 01db 06       		.byte	0x6
 823 01dc 4F       		.byte	0x4f
 824 01dd BD000000 		.4byte	0xbd
 825 01e1 1C       		.byte	0x1c
 826 01e2 00       		.byte	0
 827 01e3 03       		.uleb128 0x3
 828 01e4 CB010000 		.4byte	.LASF36
 829 01e8 06       		.byte	0x6
 830 01e9 50       		.byte	0x50
 831 01ea 7A010000 		.4byte	0x17a
 832 01ee 0B       		.uleb128 0xb
 833 01ef 10       		.byte	0x10
 834 01f0 06       		.byte	0x6
 835 01f1 54       		.byte	0x54
 836 01f2 27020000 		.4byte	0x227
 837 01f6 0C       		.uleb128 0xc
 838 01f7 03020000 		.4byte	.LASF37
 839 01fb 06       		.byte	0x6
 840 01fc 56       		.byte	0x56
 841 01fd BD000000 		.4byte	0xbd
 842 0201 00       		.byte	0
 843 0202 0C       		.uleb128 0xc
 844 0203 DF010000 		.4byte	.LASF38
 845 0207 06       		.byte	0x6
 846 0208 57       		.byte	0x57
 847 0209 BD000000 		.4byte	0xbd
 848 020d 04       		.byte	0x4
 849 020e 0C       		.uleb128 0xc
 850 020f 60030000 		.4byte	.LASF39
 851 0213 06       		.byte	0x6
 852 0214 58       		.byte	0x58
 853 0215 BD000000 		.4byte	0xbd
 854 0219 08       		.byte	0x8
 855 021a 0C       		.uleb128 0xc
ARM GAS  /tmp/ccBdZ8fr.s 			page 16


 856 021b BA030000 		.4byte	.LASF40
 857 021f 06       		.byte	0x6
 858 0220 59       		.byte	0x59
 859 0221 BD000000 		.4byte	0xbd
 860 0225 0C       		.byte	0xc
 861 0226 00       		.byte	0
 862 0227 03       		.uleb128 0x3
 863 0228 07000000 		.4byte	.LASF41
 864 022c 06       		.byte	0x6
 865 022d 5A       		.byte	0x5a
 866 022e EE010000 		.4byte	0x1ee
 867 0232 0D       		.uleb128 0xd
 868 0233 A2030000 		.4byte	.LASF57
 869 0237 01       		.byte	0x1
 870 0238 CC       		.byte	0xcc
 871 0239 2A010000 		.4byte	0x12a
 872 023d 00000000 		.4byte	.LFB112
 873 0241 00010000 		.4byte	.LFE112-.LFB112
 874 0245 01       		.uleb128 0x1
 875 0246 9C       		.byte	0x9c
 876 0247 5D050000 		.4byte	0x55d
 877 024b 0E       		.uleb128 0xe
 878 024c 7C030000 		.4byte	.LASF42
 879 0250 01       		.byte	0x1
 880 0251 CC       		.byte	0xcc
 881 0252 97000000 		.4byte	0x97
 882 0256 00000000 		.4byte	.LLST16
 883 025a 0F       		.uleb128 0xf
 884 025b 4B657900 		.ascii	"Key\000"
 885 025f 01       		.byte	0x1
 886 0260 CC       		.byte	0xcc
 887 0261 5D050000 		.4byte	0x55d
 888 0265 21000000 		.4byte	.LLST17
 889 0269 0E       		.uleb128 0xe
 890 026a F5000000 		.4byte	.LASF43
 891 026e 01       		.byte	0x1
 892 026f CC       		.byte	0xcc
 893 0270 5D050000 		.4byte	0x55d
 894 0274 4D000000 		.4byte	.LLST18
 895 0278 0E       		.uleb128 0xe
 896 0279 81030000 		.4byte	.LASF44
 897 027d 01       		.byte	0x1
 898 027e CD       		.byte	0xcd
 899 027f 5D050000 		.4byte	0x55d
 900 0283 79000000 		.4byte	.LLST19
 901 0287 0E       		.uleb128 0xe
 902 0288 20010000 		.4byte	.LASF45
 903 028c 01       		.byte	0x1
 904 028d CD       		.byte	0xcd
 905 028e BD000000 		.4byte	0xbd
 906 0292 97000000 		.4byte	.LLST20
 907 0296 0E       		.uleb128 0xe
 908 0297 49000000 		.4byte	.LASF46
 909 029b 01       		.byte	0x1
 910 029c CD       		.byte	0xcd
 911 029d 5D050000 		.4byte	0x55d
 912 02a1 B7000000 		.4byte	.LLST21
ARM GAS  /tmp/ccBdZ8fr.s 			page 17


 913 02a5 10       		.uleb128 0x10
 914 02a6 31000000 		.4byte	.LASF47
 915 02aa 01       		.byte	0x1
 916 02ab CF       		.byte	0xcf
 917 02ac 6F010000 		.4byte	0x16f
 918 02b0 03       		.uleb128 0x3
 919 02b1 91       		.byte	0x91
 920 02b2 A87F     		.sleb128 -88
 921 02b4 10       		.uleb128 0x10
 922 02b5 D3000000 		.4byte	.LASF48
 923 02b9 01       		.byte	0x1
 924 02ba D0       		.byte	0xd0
 925 02bb E3010000 		.4byte	0x1e3
 926 02bf 02       		.uleb128 0x2
 927 02c0 91       		.byte	0x91
 928 02c1 40       		.sleb128 -64
 929 02c2 10       		.uleb128 0x10
 930 02c3 A4010000 		.4byte	.LASF49
 931 02c7 01       		.byte	0x1
 932 02c8 D1       		.byte	0xd1
 933 02c9 27020000 		.4byte	0x227
 934 02cd 03       		.uleb128 0x3
 935 02ce 91       		.byte	0x91
 936 02cf B07F     		.sleb128 -80
 937 02d1 10       		.uleb128 0x10
 938 02d2 FB010000 		.4byte	.LASF50
 939 02d6 01       		.byte	0x1
 940 02d7 D2       		.byte	0xd2
 941 02d8 C8000000 		.4byte	0xc8
 942 02dc 03       		.uleb128 0x3
 943 02dd 91       		.byte	0x91
 944 02de A47F     		.sleb128 -92
 945 02e0 11       		.uleb128 0x11
 946 02e1 24030000 		.4byte	.LASF51
 947 02e5 01       		.byte	0x1
 948 02e6 D3       		.byte	0xd3
 949 02e7 BD000000 		.4byte	0xbd
 950 02eb D7000000 		.4byte	.LLST22
 951 02ef 12       		.uleb128 0x12
 952 02f0 A4020000 		.4byte	.LASF52
 953 02f4 01       		.byte	0x1
 954 02f5 D4       		.byte	0xd4
 955 02f6 2A010000 		.4byte	0x12a
 956 02fa 01       		.byte	0x1
 957 02fb 11       		.uleb128 0x11
 958 02fc 56010000 		.4byte	.LASF53
 959 0300 01       		.byte	0x1
 960 0301 D5       		.byte	0xd5
 961 0302 BD000000 		.4byte	0xbd
 962 0306 0C010000 		.4byte	.LLST23
 963 030a 11       		.uleb128 0x11
 964 030b 1A000000 		.4byte	.LASF54
 965 030f 01       		.byte	0x1
 966 0310 D6       		.byte	0xd6
 967 0311 BD000000 		.4byte	0xbd
 968 0315 7B010000 		.4byte	.LLST24
 969 0319 11       		.uleb128 0x11
ARM GAS  /tmp/ccBdZ8fr.s 			page 18


 970 031a 0F010000 		.4byte	.LASF55
 971 031e 01       		.byte	0x1
 972 031f D7       		.byte	0xd7
 973 0320 BD000000 		.4byte	0xbd
 974 0324 D8010000 		.4byte	.LLST25
 975 0328 11       		.uleb128 0x11
 976 0329 EE000000 		.4byte	.LASF56
 977 032d 01       		.byte	0x1
 978 032e D8       		.byte	0xd8
 979 032f BD000000 		.4byte	0xbd
 980 0333 28020000 		.4byte	.LLST26
 981 0337 13       		.uleb128 0x13
 982 0338 6900     		.ascii	"i\000"
 983 033a 01       		.byte	0x1
 984 033b D9       		.byte	0xd9
 985 033c BD000000 		.4byte	0xbd
 986 0340 63020000 		.4byte	.LLST27
 987 0344 14       		.uleb128 0x14
 988 0345 F5070000 		.4byte	0x7f5
 989 0349 4C000000 		.4byte	.LBB42
 990 034d 04000000 		.4byte	.LBE42-.LBB42
 991 0351 01       		.byte	0x1
 992 0352 ED       		.byte	0xed
 993 0353 70030000 		.4byte	0x370
 994 0357 15       		.uleb128 0x15
 995 0358 06080000 		.4byte	0x806
 996 035c BF020000 		.4byte	.LLST28
 997 0360 16       		.uleb128 0x16
 998 0361 4C000000 		.4byte	.LBB43
 999 0365 04000000 		.4byte	.LBE43-.LBB43
 1000 0369 17       		.uleb128 0x17
 1001 036a 12080000 		.4byte	0x812
 1002 036e 00       		.byte	0
 1003 036f 00       		.byte	0
 1004 0370 14       		.uleb128 0x14
 1005 0371 F5070000 		.4byte	0x7f5
 1006 0375 52000000 		.4byte	.LBB44
 1007 0379 04000000 		.4byte	.LBE44-.LBB44
 1008 037d 01       		.byte	0x1
 1009 037e EF       		.byte	0xef
 1010 037f 9C030000 		.4byte	0x39c
 1011 0383 15       		.uleb128 0x15
 1012 0384 06080000 		.4byte	0x806
 1013 0388 D3020000 		.4byte	.LLST29
 1014 038c 16       		.uleb128 0x16
 1015 038d 52000000 		.4byte	.LBB45
 1016 0391 04000000 		.4byte	.LBE45-.LBB45
 1017 0395 17       		.uleb128 0x17
 1018 0396 12080000 		.4byte	0x812
 1019 039a 00       		.byte	0
 1020 039b 00       		.byte	0
 1021 039c 14       		.uleb128 0x14
 1022 039d F5070000 		.4byte	0x7f5
 1023 03a1 58000000 		.4byte	.LBB46
 1024 03a5 04000000 		.4byte	.LBE46-.LBB46
 1025 03a9 01       		.byte	0x1
 1026 03aa F1       		.byte	0xf1
ARM GAS  /tmp/ccBdZ8fr.s 			page 19


 1027 03ab C8030000 		.4byte	0x3c8
 1028 03af 15       		.uleb128 0x15
 1029 03b0 06080000 		.4byte	0x806
 1030 03b4 E7020000 		.4byte	.LLST30
 1031 03b8 16       		.uleb128 0x16
 1032 03b9 58000000 		.4byte	.LBB47
 1033 03bd 04000000 		.4byte	.LBE47-.LBB47
 1034 03c1 17       		.uleb128 0x17
 1035 03c2 12080000 		.4byte	0x812
 1036 03c6 00       		.byte	0
 1037 03c7 00       		.byte	0
 1038 03c8 14       		.uleb128 0x14
 1039 03c9 F5070000 		.4byte	0x7f5
 1040 03cd 5E000000 		.4byte	.LBB48
 1041 03d1 04000000 		.4byte	.LBE48-.LBB48
 1042 03d5 01       		.byte	0x1
 1043 03d6 F3       		.byte	0xf3
 1044 03d7 F4030000 		.4byte	0x3f4
 1045 03db 15       		.uleb128 0x15
 1046 03dc 06080000 		.4byte	0x806
 1047 03e0 FB020000 		.4byte	.LLST31
 1048 03e4 16       		.uleb128 0x16
 1049 03e5 5E000000 		.4byte	.LBB49
 1050 03e9 04000000 		.4byte	.LBE49-.LBB49
 1051 03ed 17       		.uleb128 0x17
 1052 03ee 12080000 		.4byte	0x812
 1053 03f2 00       		.byte	0
 1054 03f3 00       		.byte	0
 1055 03f4 14       		.uleb128 0x14
 1056 03f5 F5070000 		.4byte	0x7f5
 1057 03f9 64000000 		.4byte	.LBB50
 1058 03fd 04000000 		.4byte	.LBE50-.LBB50
 1059 0401 01       		.byte	0x1
 1060 0402 F5       		.byte	0xf5
 1061 0403 20040000 		.4byte	0x420
 1062 0407 15       		.uleb128 0x15
 1063 0408 06080000 		.4byte	0x806
 1064 040c 0F030000 		.4byte	.LLST32
 1065 0410 16       		.uleb128 0x16
 1066 0411 64000000 		.4byte	.LBB51
 1067 0415 04000000 		.4byte	.LBE51-.LBB51
 1068 0419 17       		.uleb128 0x17
 1069 041a 12080000 		.4byte	0x812
 1070 041e 00       		.byte	0
 1071 041f 00       		.byte	0
 1072 0420 14       		.uleb128 0x14
 1073 0421 F5070000 		.4byte	0x7f5
 1074 0425 6A000000 		.4byte	.LBB52
 1075 0429 04000000 		.4byte	.LBE52-.LBB52
 1076 042d 01       		.byte	0x1
 1077 042e F7       		.byte	0xf7
 1078 042f 4C040000 		.4byte	0x44c
 1079 0433 15       		.uleb128 0x15
 1080 0434 06080000 		.4byte	0x806
 1081 0438 23030000 		.4byte	.LLST33
 1082 043c 16       		.uleb128 0x16
 1083 043d 6A000000 		.4byte	.LBB53
ARM GAS  /tmp/ccBdZ8fr.s 			page 20


 1084 0441 04000000 		.4byte	.LBE53-.LBB53
 1085 0445 17       		.uleb128 0x17
 1086 0446 12080000 		.4byte	0x812
 1087 044a 00       		.byte	0
 1088 044b 00       		.byte	0
 1089 044c 14       		.uleb128 0x14
 1090 044d F5070000 		.4byte	0x7f5
 1091 0451 76000000 		.4byte	.LBB54
 1092 0455 04000000 		.4byte	.LBE54-.LBB54
 1093 0459 01       		.byte	0x1
 1094 045a FB       		.byte	0xfb
 1095 045b 78040000 		.4byte	0x478
 1096 045f 15       		.uleb128 0x15
 1097 0460 06080000 		.4byte	0x806
 1098 0464 37030000 		.4byte	.LLST34
 1099 0468 16       		.uleb128 0x16
 1100 0469 76000000 		.4byte	.LBB55
 1101 046d 04000000 		.4byte	.LBE55-.LBB55
 1102 0471 17       		.uleb128 0x17
 1103 0472 12080000 		.4byte	0x812
 1104 0476 00       		.byte	0
 1105 0477 00       		.byte	0
 1106 0478 14       		.uleb128 0x14
 1107 0479 F5070000 		.4byte	0x7f5
 1108 047d 7C000000 		.4byte	.LBB56
 1109 0481 04000000 		.4byte	.LBE56-.LBB56
 1110 0485 01       		.byte	0x1
 1111 0486 FD       		.byte	0xfd
 1112 0487 A4040000 		.4byte	0x4a4
 1113 048b 15       		.uleb128 0x15
 1114 048c 06080000 		.4byte	0x806
 1115 0490 4B030000 		.4byte	.LLST35
 1116 0494 16       		.uleb128 0x16
 1117 0495 7C000000 		.4byte	.LBB57
 1118 0499 04000000 		.4byte	.LBE57-.LBB57
 1119 049d 17       		.uleb128 0x17
 1120 049e 12080000 		.4byte	0x812
 1121 04a2 00       		.byte	0
 1122 04a3 00       		.byte	0
 1123 04a4 18       		.uleb128 0x18
 1124 04a5 20000000 		.4byte	.LVL39
 1125 04a9 1F080000 		.4byte	0x81f
 1126 04ad B8040000 		.4byte	0x4b8
 1127 04b1 19       		.uleb128 0x19
 1128 04b2 01       		.uleb128 0x1
 1129 04b3 50       		.byte	0x50
 1130 04b4 02       		.uleb128 0x2
 1131 04b5 91       		.byte	0x91
 1132 04b6 40       		.sleb128 -64
 1133 04b7 00       		.byte	0
 1134 04b8 18       		.uleb128 0x18
 1135 04b9 4C000000 		.4byte	.LVL40
 1136 04bd 2B080000 		.4byte	0x82b
 1137 04c1 CD040000 		.4byte	0x4cd
 1138 04c5 19       		.uleb128 0x19
 1139 04c6 01       		.uleb128 0x1
 1140 04c7 50       		.byte	0x50
ARM GAS  /tmp/ccBdZ8fr.s 			page 21


 1141 04c8 03       		.uleb128 0x3
 1142 04c9 91       		.byte	0x91
 1143 04ca A87F     		.sleb128 -88
 1144 04cc 00       		.byte	0
 1145 04cd 18       		.uleb128 0x18
 1146 04ce 76000000 		.4byte	.LVL52
 1147 04d2 37080000 		.4byte	0x837
 1148 04d6 E1040000 		.4byte	0x4e1
 1149 04da 19       		.uleb128 0x19
 1150 04db 01       		.uleb128 0x1
 1151 04dc 50       		.byte	0x50
 1152 04dd 02       		.uleb128 0x2
 1153 04de 91       		.byte	0x91
 1154 04df 40       		.sleb128 -64
 1155 04e0 00       		.byte	0
 1156 04e1 18       		.uleb128 0x18
 1157 04e2 88000000 		.4byte	.LVL56
 1158 04e6 43080000 		.4byte	0x843
 1159 04ea F6040000 		.4byte	0x4f6
 1160 04ee 19       		.uleb128 0x19
 1161 04ef 01       		.uleb128 0x1
 1162 04f0 50       		.byte	0x50
 1163 04f1 03       		.uleb128 0x3
 1164 04f2 91       		.byte	0x91
 1165 04f3 B07F     		.sleb128 -80
 1166 04f5 00       		.byte	0
 1167 04f6 1A       		.uleb128 0x1a
 1168 04f7 8C000000 		.4byte	.LVL57
 1169 04fb 4F080000 		.4byte	0x84f
 1170 04ff 18       		.uleb128 0x18
 1171 0500 92000000 		.4byte	.LVL58
 1172 0504 5B080000 		.4byte	0x85b
 1173 0508 12050000 		.4byte	0x512
 1174 050c 19       		.uleb128 0x19
 1175 050d 01       		.uleb128 0x1
 1176 050e 50       		.byte	0x50
 1177 050f 01       		.uleb128 0x1
 1178 0510 31       		.byte	0x31
 1179 0511 00       		.byte	0
 1180 0512 1A       		.uleb128 0x1a
 1181 0513 AC000000 		.4byte	.LVL61
 1182 0517 67080000 		.4byte	0x867
 1183 051b 1A       		.uleb128 0x1a
 1184 051c B2000000 		.4byte	.LVL62
 1185 0520 67080000 		.4byte	0x867
 1186 0524 18       		.uleb128 0x18
 1187 0525 BE000000 		.4byte	.LVL65
 1188 0529 73080000 		.4byte	0x873
 1189 052d 37050000 		.4byte	0x537
 1190 0531 19       		.uleb128 0x19
 1191 0532 01       		.uleb128 0x1
 1192 0533 50       		.byte	0x50
 1193 0534 01       		.uleb128 0x1
 1194 0535 40       		.byte	0x40
 1195 0536 00       		.byte	0
 1196 0537 18       		.uleb128 0x18
 1197 0538 D6000000 		.4byte	.LVL67
ARM GAS  /tmp/ccBdZ8fr.s 			page 22


 1198 053c 5B080000 		.4byte	0x85b
 1199 0540 4A050000 		.4byte	0x54a
 1200 0544 19       		.uleb128 0x19
 1201 0545 01       		.uleb128 0x1
 1202 0546 50       		.byte	0x50
 1203 0547 01       		.uleb128 0x1
 1204 0548 30       		.byte	0x30
 1205 0549 00       		.byte	0
 1206 054a 1A       		.uleb128 0x1a
 1207 054b E2000000 		.4byte	.LVL69
 1208 054f 7F080000 		.4byte	0x87f
 1209 0553 1A       		.uleb128 0x1a
 1210 0554 EE000000 		.4byte	.LVL71
 1211 0558 7F080000 		.4byte	0x87f
 1212 055c 00       		.byte	0
 1213 055d 1B       		.uleb128 0x1b
 1214 055e 04       		.byte	0x4
 1215 055f 97000000 		.4byte	0x97
 1216 0563 0D       		.uleb128 0xd
 1217 0564 F7020000 		.4byte	.LASF58
 1218 0568 01       		.byte	0x1
 1219 0569 66       		.byte	0x66
 1220 056a 2A010000 		.4byte	0x12a
 1221 056e 00000000 		.4byte	.LFB111
 1222 0572 DC000000 		.4byte	.LFE111-.LFB111
 1223 0576 01       		.uleb128 0x1
 1224 0577 9C       		.byte	0x9c
 1225 0578 F5070000 		.4byte	0x7f5
 1226 057c 0E       		.uleb128 0xe
 1227 057d 7C030000 		.4byte	.LASF42
 1228 0581 01       		.byte	0x1
 1229 0582 66       		.byte	0x66
 1230 0583 97000000 		.4byte	0x97
 1231 0587 5F030000 		.4byte	.LLST0
 1232 058b 0F       		.uleb128 0xf
 1233 058c 4B657900 		.ascii	"Key\000"
 1234 0590 01       		.byte	0x1
 1235 0591 66       		.byte	0x66
 1236 0592 5D050000 		.4byte	0x55d
 1237 0596 80030000 		.4byte	.LLST1
 1238 059a 0E       		.uleb128 0xe
 1239 059b 81030000 		.4byte	.LASF44
 1240 059f 01       		.byte	0x1
 1241 05a0 66       		.byte	0x66
 1242 05a1 5D050000 		.4byte	0x55d
 1243 05a5 AC030000 		.4byte	.LLST2
 1244 05a9 0E       		.uleb128 0xe
 1245 05aa 20010000 		.4byte	.LASF45
 1246 05ae 01       		.byte	0x1
 1247 05af 67       		.byte	0x67
 1248 05b0 BD000000 		.4byte	0xbd
 1249 05b4 CA030000 		.4byte	.LLST3
 1250 05b8 0E       		.uleb128 0xe
 1251 05b9 49000000 		.4byte	.LASF46
 1252 05bd 01       		.byte	0x1
 1253 05be 67       		.byte	0x67
 1254 05bf 5D050000 		.4byte	0x55d
ARM GAS  /tmp/ccBdZ8fr.s 			page 23


 1255 05c3 E8030000 		.4byte	.LLST4
 1256 05c7 10       		.uleb128 0x10
 1257 05c8 31000000 		.4byte	.LASF47
 1258 05cc 01       		.byte	0x1
 1259 05cd 69       		.byte	0x69
 1260 05ce 6F010000 		.4byte	0x16f
 1261 05d2 03       		.uleb128 0x3
 1262 05d3 91       		.byte	0x91
 1263 05d4 B87F     		.sleb128 -72
 1264 05d6 10       		.uleb128 0x10
 1265 05d7 D3000000 		.4byte	.LASF48
 1266 05db 01       		.byte	0x1
 1267 05dc 6A       		.byte	0x6a
 1268 05dd E3010000 		.4byte	0x1e3
 1269 05e1 02       		.uleb128 0x2
 1270 05e2 91       		.byte	0x91
 1271 05e3 40       		.sleb128 -64
 1272 05e4 10       		.uleb128 0x10
 1273 05e5 FB010000 		.4byte	.LASF50
 1274 05e9 01       		.byte	0x1
 1275 05ea 6B       		.byte	0x6b
 1276 05eb C8000000 		.4byte	0xc8
 1277 05ef 03       		.uleb128 0x3
 1278 05f0 91       		.byte	0x91
 1279 05f1 B47F     		.sleb128 -76
 1280 05f3 11       		.uleb128 0x11
 1281 05f4 24030000 		.4byte	.LASF51
 1282 05f8 01       		.byte	0x1
 1283 05f9 6C       		.byte	0x6c
 1284 05fa BD000000 		.4byte	0xbd
 1285 05fe 08040000 		.4byte	.LLST5
 1286 0602 12       		.uleb128 0x12
 1287 0603 A4020000 		.4byte	.LASF52
 1288 0607 01       		.byte	0x1
 1289 0608 6D       		.byte	0x6d
 1290 0609 2A010000 		.4byte	0x12a
 1291 060d 01       		.byte	0x1
 1292 060e 11       		.uleb128 0x11
 1293 060f 56010000 		.4byte	.LASF53
 1294 0613 01       		.byte	0x1
 1295 0614 6E       		.byte	0x6e
 1296 0615 BD000000 		.4byte	0xbd
 1297 0619 3D040000 		.4byte	.LLST6
 1298 061d 11       		.uleb128 0x11
 1299 061e 1A000000 		.4byte	.LASF54
 1300 0622 01       		.byte	0x1
 1301 0623 6F       		.byte	0x6f
 1302 0624 BD000000 		.4byte	0xbd
 1303 0628 AC040000 		.4byte	.LLST7
 1304 062c 11       		.uleb128 0x11
 1305 062d 0F010000 		.4byte	.LASF55
 1306 0631 01       		.byte	0x1
 1307 0632 70       		.byte	0x70
 1308 0633 BD000000 		.4byte	0xbd
 1309 0637 09050000 		.4byte	.LLST8
 1310 063b 13       		.uleb128 0x13
 1311 063c 6900     		.ascii	"i\000"
ARM GAS  /tmp/ccBdZ8fr.s 			page 24


 1312 063e 01       		.byte	0x1
 1313 063f 71       		.byte	0x71
 1314 0640 BD000000 		.4byte	0xbd
 1315 0644 59050000 		.4byte	.LLST9
 1316 0648 14       		.uleb128 0x14
 1317 0649 F5070000 		.4byte	0x7f5
 1318 064d 3C000000 		.4byte	.LBB30
 1319 0651 04000000 		.4byte	.LBE30-.LBB30
 1320 0655 01       		.byte	0x1
 1321 0656 85       		.byte	0x85
 1322 0657 74060000 		.4byte	0x674
 1323 065b 15       		.uleb128 0x15
 1324 065c 06080000 		.4byte	0x806
 1325 0660 B5050000 		.4byte	.LLST10
 1326 0664 16       		.uleb128 0x16
 1327 0665 3C000000 		.4byte	.LBB31
 1328 0669 04000000 		.4byte	.LBE31-.LBB31
 1329 066d 17       		.uleb128 0x17
 1330 066e 12080000 		.4byte	0x812
 1331 0672 00       		.byte	0
 1332 0673 00       		.byte	0
 1333 0674 14       		.uleb128 0x14
 1334 0675 F5070000 		.4byte	0x7f5
 1335 0679 42000000 		.4byte	.LBB32
 1336 067d 04000000 		.4byte	.LBE32-.LBB32
 1337 0681 01       		.byte	0x1
 1338 0682 87       		.byte	0x87
 1339 0683 A0060000 		.4byte	0x6a0
 1340 0687 15       		.uleb128 0x15
 1341 0688 06080000 		.4byte	0x806
 1342 068c C9050000 		.4byte	.LLST11
 1343 0690 16       		.uleb128 0x16
 1344 0691 42000000 		.4byte	.LBB33
 1345 0695 04000000 		.4byte	.LBE33-.LBB33
 1346 0699 17       		.uleb128 0x17
 1347 069a 12080000 		.4byte	0x812
 1348 069e 00       		.byte	0
 1349 069f 00       		.byte	0
 1350 06a0 14       		.uleb128 0x14
 1351 06a1 F5070000 		.4byte	0x7f5
 1352 06a5 48000000 		.4byte	.LBB34
 1353 06a9 04000000 		.4byte	.LBE34-.LBB34
 1354 06ad 01       		.byte	0x1
 1355 06ae 89       		.byte	0x89
 1356 06af CC060000 		.4byte	0x6cc
 1357 06b3 15       		.uleb128 0x15
 1358 06b4 06080000 		.4byte	0x806
 1359 06b8 DD050000 		.4byte	.LLST12
 1360 06bc 16       		.uleb128 0x16
 1361 06bd 48000000 		.4byte	.LBB35
 1362 06c1 04000000 		.4byte	.LBE35-.LBB35
 1363 06c5 17       		.uleb128 0x17
 1364 06c6 12080000 		.4byte	0x812
 1365 06ca 00       		.byte	0
 1366 06cb 00       		.byte	0
 1367 06cc 14       		.uleb128 0x14
 1368 06cd F5070000 		.4byte	0x7f5
ARM GAS  /tmp/ccBdZ8fr.s 			page 25


 1369 06d1 4E000000 		.4byte	.LBB36
 1370 06d5 04000000 		.4byte	.LBE36-.LBB36
 1371 06d9 01       		.byte	0x1
 1372 06da 8B       		.byte	0x8b
 1373 06db F8060000 		.4byte	0x6f8
 1374 06df 15       		.uleb128 0x15
 1375 06e0 06080000 		.4byte	0x806
 1376 06e4 F1050000 		.4byte	.LLST13
 1377 06e8 16       		.uleb128 0x16
 1378 06e9 4E000000 		.4byte	.LBB37
 1379 06ed 04000000 		.4byte	.LBE37-.LBB37
 1380 06f1 17       		.uleb128 0x17
 1381 06f2 12080000 		.4byte	0x812
 1382 06f6 00       		.byte	0
 1383 06f7 00       		.byte	0
 1384 06f8 14       		.uleb128 0x14
 1385 06f9 F5070000 		.4byte	0x7f5
 1386 06fd 54000000 		.4byte	.LBB38
 1387 0701 04000000 		.4byte	.LBE38-.LBB38
 1388 0705 01       		.byte	0x1
 1389 0706 8D       		.byte	0x8d
 1390 0707 24070000 		.4byte	0x724
 1391 070b 15       		.uleb128 0x15
 1392 070c 06080000 		.4byte	0x806
 1393 0710 05060000 		.4byte	.LLST14
 1394 0714 16       		.uleb128 0x16
 1395 0715 54000000 		.4byte	.LBB39
 1396 0719 04000000 		.4byte	.LBE39-.LBB39
 1397 071d 17       		.uleb128 0x17
 1398 071e 12080000 		.4byte	0x812
 1399 0722 00       		.byte	0
 1400 0723 00       		.byte	0
 1401 0724 14       		.uleb128 0x14
 1402 0725 F5070000 		.4byte	0x7f5
 1403 0729 5A000000 		.4byte	.LBB40
 1404 072d 04000000 		.4byte	.LBE40-.LBB40
 1405 0731 01       		.byte	0x1
 1406 0732 8F       		.byte	0x8f
 1407 0733 50070000 		.4byte	0x750
 1408 0737 15       		.uleb128 0x15
 1409 0738 06080000 		.4byte	0x806
 1410 073c 19060000 		.4byte	.LLST15
 1411 0740 16       		.uleb128 0x16
 1412 0741 5A000000 		.4byte	.LBB41
 1413 0745 04000000 		.4byte	.LBE41-.LBB41
 1414 0749 17       		.uleb128 0x17
 1415 074a 12080000 		.4byte	0x812
 1416 074e 00       		.byte	0
 1417 074f 00       		.byte	0
 1418 0750 18       		.uleb128 0x18
 1419 0751 1A000000 		.4byte	.LVL4
 1420 0755 1F080000 		.4byte	0x81f
 1421 0759 64070000 		.4byte	0x764
 1422 075d 19       		.uleb128 0x19
 1423 075e 01       		.uleb128 0x1
 1424 075f 50       		.byte	0x50
 1425 0760 02       		.uleb128 0x2
ARM GAS  /tmp/ccBdZ8fr.s 			page 26


 1426 0761 91       		.byte	0x91
 1427 0762 40       		.sleb128 -64
 1428 0763 00       		.byte	0
 1429 0764 18       		.uleb128 0x18
 1430 0765 3C000000 		.4byte	.LVL5
 1431 0769 2B080000 		.4byte	0x82b
 1432 076d 79070000 		.4byte	0x779
 1433 0771 19       		.uleb128 0x19
 1434 0772 01       		.uleb128 0x1
 1435 0773 50       		.byte	0x50
 1436 0774 03       		.uleb128 0x3
 1437 0775 91       		.byte	0x91
 1438 0776 B87F     		.sleb128 -72
 1439 0778 00       		.byte	0
 1440 0779 18       		.uleb128 0x18
 1441 077a 66000000 		.4byte	.LVL17
 1442 077e 37080000 		.4byte	0x837
 1443 0782 8D070000 		.4byte	0x78d
 1444 0786 19       		.uleb128 0x19
 1445 0787 01       		.uleb128 0x1
 1446 0788 50       		.byte	0x50
 1447 0789 02       		.uleb128 0x2
 1448 078a 91       		.byte	0x91
 1449 078b 40       		.sleb128 -64
 1450 078c 00       		.byte	0
 1451 078d 1A       		.uleb128 0x1a
 1452 078e 6A000000 		.4byte	.LVL18
 1453 0792 4F080000 		.4byte	0x84f
 1454 0796 18       		.uleb128 0x18
 1455 0797 70000000 		.4byte	.LVL19
 1456 079b 5B080000 		.4byte	0x85b
 1457 079f A9070000 		.4byte	0x7a9
 1458 07a3 19       		.uleb128 0x19
 1459 07a4 01       		.uleb128 0x1
 1460 07a5 50       		.byte	0x50
 1461 07a6 01       		.uleb128 0x1
 1462 07a7 31       		.byte	0x31
 1463 07a8 00       		.byte	0
 1464 07a9 1A       		.uleb128 0x1a
 1465 07aa 88000000 		.4byte	.LVL21
 1466 07ae 67080000 		.4byte	0x867
 1467 07b2 1A       		.uleb128 0x1a
 1468 07b3 8E000000 		.4byte	.LVL22
 1469 07b7 67080000 		.4byte	0x867
 1470 07bb 18       		.uleb128 0x18
 1471 07bc 9A000000 		.4byte	.LVL25
 1472 07c0 73080000 		.4byte	0x873
 1473 07c4 CE070000 		.4byte	0x7ce
 1474 07c8 19       		.uleb128 0x19
 1475 07c9 01       		.uleb128 0x1
 1476 07ca 50       		.byte	0x50
 1477 07cb 01       		.uleb128 0x1
 1478 07cc 40       		.byte	0x40
 1479 07cd 00       		.byte	0
 1480 07ce 18       		.uleb128 0x18
 1481 07cf B2000000 		.4byte	.LVL27
 1482 07d3 5B080000 		.4byte	0x85b
ARM GAS  /tmp/ccBdZ8fr.s 			page 27


 1483 07d7 E2070000 		.4byte	0x7e2
 1484 07db 19       		.uleb128 0x19
 1485 07dc 01       		.uleb128 0x1
 1486 07dd 50       		.byte	0x50
 1487 07de 02       		.uleb128 0x2
 1488 07df 75       		.byte	0x75
 1489 07e0 00       		.sleb128 0
 1490 07e1 00       		.byte	0
 1491 07e2 1A       		.uleb128 0x1a
 1492 07e3 BE000000 		.4byte	.LVL29
 1493 07e7 7F080000 		.4byte	0x87f
 1494 07eb 1A       		.uleb128 0x1a
 1495 07ec CA000000 		.4byte	.LVL31
 1496 07f0 7F080000 		.4byte	0x87f
 1497 07f4 00       		.byte	0
 1498 07f5 1C       		.uleb128 0x1c
 1499 07f6 1A010000 		.4byte	.LASF72
 1500 07fa 02       		.byte	0x2
 1501 07fb 6D01     		.2byte	0x16d
 1502 07fd BD000000 		.4byte	0xbd
 1503 0801 03       		.byte	0x3
 1504 0802 1F080000 		.4byte	0x81f
 1505 0806 1D       		.uleb128 0x1d
 1506 0807 01010000 		.4byte	.LASF73
 1507 080b 02       		.byte	0x2
 1508 080c 6D01     		.2byte	0x16d
 1509 080e BD000000 		.4byte	0xbd
 1510 0812 1E       		.uleb128 0x1e
 1511 0813 00000000 		.4byte	.LASF74
 1512 0817 02       		.byte	0x2
 1513 0818 6F01     		.2byte	0x16f
 1514 081a BD000000 		.4byte	0xbd
 1515 081e 00       		.byte	0
 1516 081f 1F       		.uleb128 0x1f
 1517 0820 28010000 		.4byte	.LASF59
 1518 0824 28010000 		.4byte	.LASF59
 1519 0828 06       		.byte	0x6
 1520 0829 0901     		.2byte	0x109
 1521 082b 1F       		.uleb128 0x1f
 1522 082c B0030000 		.4byte	.LASF60
 1523 0830 B0030000 		.4byte	.LASF60
 1524 0834 06       		.byte	0x6
 1525 0835 0601     		.2byte	0x106
 1526 0837 1F       		.uleb128 0x1f
 1527 0838 24000000 		.4byte	.LASF61
 1528 083c 24000000 		.4byte	.LASF61
 1529 0840 06       		.byte	0x6
 1530 0841 0801     		.2byte	0x108
 1531 0843 1F       		.uleb128 0x1f
 1532 0844 DC020000 		.4byte	.LASF62
 1533 0848 DC020000 		.4byte	.LASF62
 1534 084c 06       		.byte	0x6
 1535 084d 0A01     		.2byte	0x10a
 1536 084f 1F       		.uleb128 0x1f
 1537 0850 6D030000 		.4byte	.LASF63
 1538 0854 6D030000 		.4byte	.LASF63
 1539 0858 06       		.byte	0x6
ARM GAS  /tmp/ccBdZ8fr.s 			page 28


 1540 0859 1101     		.2byte	0x111
 1541 085b 1F       		.uleb128 0x1f
 1542 085c 68010000 		.4byte	.LASF64
 1543 0860 68010000 		.4byte	.LASF64
 1544 0864 06       		.byte	0x6
 1545 0865 0C01     		.2byte	0x10c
 1546 0867 1F       		.uleb128 0x1f
 1547 0868 B9020000 		.4byte	.LASF65
 1548 086c B9020000 		.4byte	.LASF65
 1549 0870 06       		.byte	0x6
 1550 0871 0F01     		.2byte	0x10f
 1551 0873 1F       		.uleb128 0x1f
 1552 0874 3B010000 		.4byte	.LASF66
 1553 0878 3B010000 		.4byte	.LASF66
 1554 087c 06       		.byte	0x6
 1555 087d 1E01     		.2byte	0x11e
 1556 087f 1F       		.uleb128 0x1f
 1557 0880 33020000 		.4byte	.LASF67
 1558 0884 33020000 		.4byte	.LASF67
 1559 0888 06       		.byte	0x6
 1560 0889 1001     		.2byte	0x110
 1561 088b 00       		.byte	0
 1562              		.section	.debug_abbrev,"",%progbits
 1563              	.Ldebug_abbrev0:
 1564 0000 01       		.uleb128 0x1
 1565 0001 11       		.uleb128 0x11
 1566 0002 01       		.byte	0x1
 1567 0003 25       		.uleb128 0x25
 1568 0004 0E       		.uleb128 0xe
 1569 0005 13       		.uleb128 0x13
 1570 0006 0B       		.uleb128 0xb
 1571 0007 03       		.uleb128 0x3
 1572 0008 0E       		.uleb128 0xe
 1573 0009 1B       		.uleb128 0x1b
 1574 000a 0E       		.uleb128 0xe
 1575 000b 55       		.uleb128 0x55
 1576 000c 17       		.uleb128 0x17
 1577 000d 11       		.uleb128 0x11
 1578 000e 01       		.uleb128 0x1
 1579 000f 10       		.uleb128 0x10
 1580 0010 17       		.uleb128 0x17
 1581 0011 00       		.byte	0
 1582 0012 00       		.byte	0
 1583 0013 02       		.uleb128 0x2
 1584 0014 24       		.uleb128 0x24
 1585 0015 00       		.byte	0
 1586 0016 0B       		.uleb128 0xb
 1587 0017 0B       		.uleb128 0xb
 1588 0018 3E       		.uleb128 0x3e
 1589 0019 0B       		.uleb128 0xb
 1590 001a 03       		.uleb128 0x3
 1591 001b 0E       		.uleb128 0xe
 1592 001c 00       		.byte	0
 1593 001d 00       		.byte	0
 1594 001e 03       		.uleb128 0x3
 1595 001f 16       		.uleb128 0x16
 1596 0020 00       		.byte	0
ARM GAS  /tmp/ccBdZ8fr.s 			page 29


 1597 0021 03       		.uleb128 0x3
 1598 0022 0E       		.uleb128 0xe
 1599 0023 3A       		.uleb128 0x3a
 1600 0024 0B       		.uleb128 0xb
 1601 0025 3B       		.uleb128 0x3b
 1602 0026 0B       		.uleb128 0xb
 1603 0027 49       		.uleb128 0x49
 1604 0028 13       		.uleb128 0x13
 1605 0029 00       		.byte	0
 1606 002a 00       		.byte	0
 1607 002b 04       		.uleb128 0x4
 1608 002c 24       		.uleb128 0x24
 1609 002d 00       		.byte	0
 1610 002e 0B       		.uleb128 0xb
 1611 002f 0B       		.uleb128 0xb
 1612 0030 3E       		.uleb128 0x3e
 1613 0031 0B       		.uleb128 0xb
 1614 0032 03       		.uleb128 0x3
 1615 0033 08       		.uleb128 0x8
 1616 0034 00       		.byte	0
 1617 0035 00       		.byte	0
 1618 0036 05       		.uleb128 0x5
 1619 0037 35       		.uleb128 0x35
 1620 0038 00       		.byte	0
 1621 0039 49       		.uleb128 0x49
 1622 003a 13       		.uleb128 0x13
 1623 003b 00       		.byte	0
 1624 003c 00       		.byte	0
 1625 003d 06       		.uleb128 0x6
 1626 003e 34       		.uleb128 0x34
 1627 003f 00       		.byte	0
 1628 0040 03       		.uleb128 0x3
 1629 0041 0E       		.uleb128 0xe
 1630 0042 3A       		.uleb128 0x3a
 1631 0043 0B       		.uleb128 0xb
 1632 0044 3B       		.uleb128 0x3b
 1633 0045 05       		.uleb128 0x5
 1634 0046 49       		.uleb128 0x49
 1635 0047 13       		.uleb128 0x13
 1636 0048 3F       		.uleb128 0x3f
 1637 0049 19       		.uleb128 0x19
 1638 004a 3C       		.uleb128 0x3c
 1639 004b 19       		.uleb128 0x19
 1640 004c 00       		.byte	0
 1641 004d 00       		.byte	0
 1642 004e 07       		.uleb128 0x7
 1643 004f 04       		.uleb128 0x4
 1644 0050 01       		.byte	0x1
 1645 0051 3E       		.uleb128 0x3e
 1646 0052 0B       		.uleb128 0xb
 1647 0053 0B       		.uleb128 0xb
 1648 0054 0B       		.uleb128 0xb
 1649 0055 49       		.uleb128 0x49
 1650 0056 13       		.uleb128 0x13
 1651 0057 3A       		.uleb128 0x3a
 1652 0058 0B       		.uleb128 0xb
 1653 0059 3B       		.uleb128 0x3b
ARM GAS  /tmp/ccBdZ8fr.s 			page 30


 1654 005a 05       		.uleb128 0x5
 1655 005b 01       		.uleb128 0x1
 1656 005c 13       		.uleb128 0x13
 1657 005d 00       		.byte	0
 1658 005e 00       		.byte	0
 1659 005f 08       		.uleb128 0x8
 1660 0060 28       		.uleb128 0x28
 1661 0061 00       		.byte	0
 1662 0062 03       		.uleb128 0x3
 1663 0063 0E       		.uleb128 0xe
 1664 0064 1C       		.uleb128 0x1c
 1665 0065 0B       		.uleb128 0xb
 1666 0066 00       		.byte	0
 1667 0067 00       		.byte	0
 1668 0068 09       		.uleb128 0x9
 1669 0069 28       		.uleb128 0x28
 1670 006a 00       		.byte	0
 1671 006b 03       		.uleb128 0x3
 1672 006c 08       		.uleb128 0x8
 1673 006d 1C       		.uleb128 0x1c
 1674 006e 0B       		.uleb128 0xb
 1675 006f 00       		.byte	0
 1676 0070 00       		.byte	0
 1677 0071 0A       		.uleb128 0xa
 1678 0072 16       		.uleb128 0x16
 1679 0073 00       		.byte	0
 1680 0074 03       		.uleb128 0x3
 1681 0075 0E       		.uleb128 0xe
 1682 0076 3A       		.uleb128 0x3a
 1683 0077 0B       		.uleb128 0xb
 1684 0078 3B       		.uleb128 0x3b
 1685 0079 05       		.uleb128 0x5
 1686 007a 49       		.uleb128 0x49
 1687 007b 13       		.uleb128 0x13
 1688 007c 00       		.byte	0
 1689 007d 00       		.byte	0
 1690 007e 0B       		.uleb128 0xb
 1691 007f 13       		.uleb128 0x13
 1692 0080 01       		.byte	0x1
 1693 0081 0B       		.uleb128 0xb
 1694 0082 0B       		.uleb128 0xb
 1695 0083 3A       		.uleb128 0x3a
 1696 0084 0B       		.uleb128 0xb
 1697 0085 3B       		.uleb128 0x3b
 1698 0086 0B       		.uleb128 0xb
 1699 0087 01       		.uleb128 0x1
 1700 0088 13       		.uleb128 0x13
 1701 0089 00       		.byte	0
 1702 008a 00       		.byte	0
 1703 008b 0C       		.uleb128 0xc
 1704 008c 0D       		.uleb128 0xd
 1705 008d 00       		.byte	0
 1706 008e 03       		.uleb128 0x3
 1707 008f 0E       		.uleb128 0xe
 1708 0090 3A       		.uleb128 0x3a
 1709 0091 0B       		.uleb128 0xb
 1710 0092 3B       		.uleb128 0x3b
ARM GAS  /tmp/ccBdZ8fr.s 			page 31


 1711 0093 0B       		.uleb128 0xb
 1712 0094 49       		.uleb128 0x49
 1713 0095 13       		.uleb128 0x13
 1714 0096 38       		.uleb128 0x38
 1715 0097 0B       		.uleb128 0xb
 1716 0098 00       		.byte	0
 1717 0099 00       		.byte	0
 1718 009a 0D       		.uleb128 0xd
 1719 009b 2E       		.uleb128 0x2e
 1720 009c 01       		.byte	0x1
 1721 009d 3F       		.uleb128 0x3f
 1722 009e 19       		.uleb128 0x19
 1723 009f 03       		.uleb128 0x3
 1724 00a0 0E       		.uleb128 0xe
 1725 00a1 3A       		.uleb128 0x3a
 1726 00a2 0B       		.uleb128 0xb
 1727 00a3 3B       		.uleb128 0x3b
 1728 00a4 0B       		.uleb128 0xb
 1729 00a5 27       		.uleb128 0x27
 1730 00a6 19       		.uleb128 0x19
 1731 00a7 49       		.uleb128 0x49
 1732 00a8 13       		.uleb128 0x13
 1733 00a9 11       		.uleb128 0x11
 1734 00aa 01       		.uleb128 0x1
 1735 00ab 12       		.uleb128 0x12
 1736 00ac 06       		.uleb128 0x6
 1737 00ad 40       		.uleb128 0x40
 1738 00ae 18       		.uleb128 0x18
 1739 00af 9742     		.uleb128 0x2117
 1740 00b1 19       		.uleb128 0x19
 1741 00b2 01       		.uleb128 0x1
 1742 00b3 13       		.uleb128 0x13
 1743 00b4 00       		.byte	0
 1744 00b5 00       		.byte	0
 1745 00b6 0E       		.uleb128 0xe
 1746 00b7 05       		.uleb128 0x5
 1747 00b8 00       		.byte	0
 1748 00b9 03       		.uleb128 0x3
 1749 00ba 0E       		.uleb128 0xe
 1750 00bb 3A       		.uleb128 0x3a
 1751 00bc 0B       		.uleb128 0xb
 1752 00bd 3B       		.uleb128 0x3b
 1753 00be 0B       		.uleb128 0xb
 1754 00bf 49       		.uleb128 0x49
 1755 00c0 13       		.uleb128 0x13
 1756 00c1 02       		.uleb128 0x2
 1757 00c2 17       		.uleb128 0x17
 1758 00c3 00       		.byte	0
 1759 00c4 00       		.byte	0
 1760 00c5 0F       		.uleb128 0xf
 1761 00c6 05       		.uleb128 0x5
 1762 00c7 00       		.byte	0
 1763 00c8 03       		.uleb128 0x3
 1764 00c9 08       		.uleb128 0x8
 1765 00ca 3A       		.uleb128 0x3a
 1766 00cb 0B       		.uleb128 0xb
 1767 00cc 3B       		.uleb128 0x3b
ARM GAS  /tmp/ccBdZ8fr.s 			page 32


 1768 00cd 0B       		.uleb128 0xb
 1769 00ce 49       		.uleb128 0x49
 1770 00cf 13       		.uleb128 0x13
 1771 00d0 02       		.uleb128 0x2
 1772 00d1 17       		.uleb128 0x17
 1773 00d2 00       		.byte	0
 1774 00d3 00       		.byte	0
 1775 00d4 10       		.uleb128 0x10
 1776 00d5 34       		.uleb128 0x34
 1777 00d6 00       		.byte	0
 1778 00d7 03       		.uleb128 0x3
 1779 00d8 0E       		.uleb128 0xe
 1780 00d9 3A       		.uleb128 0x3a
 1781 00da 0B       		.uleb128 0xb
 1782 00db 3B       		.uleb128 0x3b
 1783 00dc 0B       		.uleb128 0xb
 1784 00dd 49       		.uleb128 0x49
 1785 00de 13       		.uleb128 0x13
 1786 00df 02       		.uleb128 0x2
 1787 00e0 18       		.uleb128 0x18
 1788 00e1 00       		.byte	0
 1789 00e2 00       		.byte	0
 1790 00e3 11       		.uleb128 0x11
 1791 00e4 34       		.uleb128 0x34
 1792 00e5 00       		.byte	0
 1793 00e6 03       		.uleb128 0x3
 1794 00e7 0E       		.uleb128 0xe
 1795 00e8 3A       		.uleb128 0x3a
 1796 00e9 0B       		.uleb128 0xb
 1797 00ea 3B       		.uleb128 0x3b
 1798 00eb 0B       		.uleb128 0xb
 1799 00ec 49       		.uleb128 0x49
 1800 00ed 13       		.uleb128 0x13
 1801 00ee 02       		.uleb128 0x2
 1802 00ef 17       		.uleb128 0x17
 1803 00f0 00       		.byte	0
 1804 00f1 00       		.byte	0
 1805 00f2 12       		.uleb128 0x12
 1806 00f3 34       		.uleb128 0x34
 1807 00f4 00       		.byte	0
 1808 00f5 03       		.uleb128 0x3
 1809 00f6 0E       		.uleb128 0xe
 1810 00f7 3A       		.uleb128 0x3a
 1811 00f8 0B       		.uleb128 0xb
 1812 00f9 3B       		.uleb128 0x3b
 1813 00fa 0B       		.uleb128 0xb
 1814 00fb 49       		.uleb128 0x49
 1815 00fc 13       		.uleb128 0x13
 1816 00fd 1C       		.uleb128 0x1c
 1817 00fe 0B       		.uleb128 0xb
 1818 00ff 00       		.byte	0
 1819 0100 00       		.byte	0
 1820 0101 13       		.uleb128 0x13
 1821 0102 34       		.uleb128 0x34
 1822 0103 00       		.byte	0
 1823 0104 03       		.uleb128 0x3
 1824 0105 08       		.uleb128 0x8
ARM GAS  /tmp/ccBdZ8fr.s 			page 33


 1825 0106 3A       		.uleb128 0x3a
 1826 0107 0B       		.uleb128 0xb
 1827 0108 3B       		.uleb128 0x3b
 1828 0109 0B       		.uleb128 0xb
 1829 010a 49       		.uleb128 0x49
 1830 010b 13       		.uleb128 0x13
 1831 010c 02       		.uleb128 0x2
 1832 010d 17       		.uleb128 0x17
 1833 010e 00       		.byte	0
 1834 010f 00       		.byte	0
 1835 0110 14       		.uleb128 0x14
 1836 0111 1D       		.uleb128 0x1d
 1837 0112 01       		.byte	0x1
 1838 0113 31       		.uleb128 0x31
 1839 0114 13       		.uleb128 0x13
 1840 0115 11       		.uleb128 0x11
 1841 0116 01       		.uleb128 0x1
 1842 0117 12       		.uleb128 0x12
 1843 0118 06       		.uleb128 0x6
 1844 0119 58       		.uleb128 0x58
 1845 011a 0B       		.uleb128 0xb
 1846 011b 59       		.uleb128 0x59
 1847 011c 0B       		.uleb128 0xb
 1848 011d 01       		.uleb128 0x1
 1849 011e 13       		.uleb128 0x13
 1850 011f 00       		.byte	0
 1851 0120 00       		.byte	0
 1852 0121 15       		.uleb128 0x15
 1853 0122 05       		.uleb128 0x5
 1854 0123 00       		.byte	0
 1855 0124 31       		.uleb128 0x31
 1856 0125 13       		.uleb128 0x13
 1857 0126 02       		.uleb128 0x2
 1858 0127 17       		.uleb128 0x17
 1859 0128 00       		.byte	0
 1860 0129 00       		.byte	0
 1861 012a 16       		.uleb128 0x16
 1862 012b 0B       		.uleb128 0xb
 1863 012c 01       		.byte	0x1
 1864 012d 11       		.uleb128 0x11
 1865 012e 01       		.uleb128 0x1
 1866 012f 12       		.uleb128 0x12
 1867 0130 06       		.uleb128 0x6
 1868 0131 00       		.byte	0
 1869 0132 00       		.byte	0
 1870 0133 17       		.uleb128 0x17
 1871 0134 34       		.uleb128 0x34
 1872 0135 00       		.byte	0
 1873 0136 31       		.uleb128 0x31
 1874 0137 13       		.uleb128 0x13
 1875 0138 00       		.byte	0
 1876 0139 00       		.byte	0
 1877 013a 18       		.uleb128 0x18
 1878 013b 898201   		.uleb128 0x4109
 1879 013e 01       		.byte	0x1
 1880 013f 11       		.uleb128 0x11
 1881 0140 01       		.uleb128 0x1
ARM GAS  /tmp/ccBdZ8fr.s 			page 34


 1882 0141 31       		.uleb128 0x31
 1883 0142 13       		.uleb128 0x13
 1884 0143 01       		.uleb128 0x1
 1885 0144 13       		.uleb128 0x13
 1886 0145 00       		.byte	0
 1887 0146 00       		.byte	0
 1888 0147 19       		.uleb128 0x19
 1889 0148 8A8201   		.uleb128 0x410a
 1890 014b 00       		.byte	0
 1891 014c 02       		.uleb128 0x2
 1892 014d 18       		.uleb128 0x18
 1893 014e 9142     		.uleb128 0x2111
 1894 0150 18       		.uleb128 0x18
 1895 0151 00       		.byte	0
 1896 0152 00       		.byte	0
 1897 0153 1A       		.uleb128 0x1a
 1898 0154 898201   		.uleb128 0x4109
 1899 0157 00       		.byte	0
 1900 0158 11       		.uleb128 0x11
 1901 0159 01       		.uleb128 0x1
 1902 015a 31       		.uleb128 0x31
 1903 015b 13       		.uleb128 0x13
 1904 015c 00       		.byte	0
 1905 015d 00       		.byte	0
 1906 015e 1B       		.uleb128 0x1b
 1907 015f 0F       		.uleb128 0xf
 1908 0160 00       		.byte	0
 1909 0161 0B       		.uleb128 0xb
 1910 0162 0B       		.uleb128 0xb
 1911 0163 49       		.uleb128 0x49
 1912 0164 13       		.uleb128 0x13
 1913 0165 00       		.byte	0
 1914 0166 00       		.byte	0
 1915 0167 1C       		.uleb128 0x1c
 1916 0168 2E       		.uleb128 0x2e
 1917 0169 01       		.byte	0x1
 1918 016a 03       		.uleb128 0x3
 1919 016b 0E       		.uleb128 0xe
 1920 016c 3A       		.uleb128 0x3a
 1921 016d 0B       		.uleb128 0xb
 1922 016e 3B       		.uleb128 0x3b
 1923 016f 05       		.uleb128 0x5
 1924 0170 27       		.uleb128 0x27
 1925 0171 19       		.uleb128 0x19
 1926 0172 49       		.uleb128 0x49
 1927 0173 13       		.uleb128 0x13
 1928 0174 20       		.uleb128 0x20
 1929 0175 0B       		.uleb128 0xb
 1930 0176 01       		.uleb128 0x1
 1931 0177 13       		.uleb128 0x13
 1932 0178 00       		.byte	0
 1933 0179 00       		.byte	0
 1934 017a 1D       		.uleb128 0x1d
 1935 017b 05       		.uleb128 0x5
 1936 017c 00       		.byte	0
 1937 017d 03       		.uleb128 0x3
 1938 017e 0E       		.uleb128 0xe
ARM GAS  /tmp/ccBdZ8fr.s 			page 35


 1939 017f 3A       		.uleb128 0x3a
 1940 0180 0B       		.uleb128 0xb
 1941 0181 3B       		.uleb128 0x3b
 1942 0182 05       		.uleb128 0x5
 1943 0183 49       		.uleb128 0x49
 1944 0184 13       		.uleb128 0x13
 1945 0185 00       		.byte	0
 1946 0186 00       		.byte	0
 1947 0187 1E       		.uleb128 0x1e
 1948 0188 34       		.uleb128 0x34
 1949 0189 00       		.byte	0
 1950 018a 03       		.uleb128 0x3
 1951 018b 0E       		.uleb128 0xe
 1952 018c 3A       		.uleb128 0x3a
 1953 018d 0B       		.uleb128 0xb
 1954 018e 3B       		.uleb128 0x3b
 1955 018f 05       		.uleb128 0x5
 1956 0190 49       		.uleb128 0x49
 1957 0191 13       		.uleb128 0x13
 1958 0192 00       		.byte	0
 1959 0193 00       		.byte	0
 1960 0194 1F       		.uleb128 0x1f
 1961 0195 2E       		.uleb128 0x2e
 1962 0196 00       		.byte	0
 1963 0197 3F       		.uleb128 0x3f
 1964 0198 19       		.uleb128 0x19
 1965 0199 3C       		.uleb128 0x3c
 1966 019a 19       		.uleb128 0x19
 1967 019b 6E       		.uleb128 0x6e
 1968 019c 0E       		.uleb128 0xe
 1969 019d 03       		.uleb128 0x3
 1970 019e 0E       		.uleb128 0xe
 1971 019f 3A       		.uleb128 0x3a
 1972 01a0 0B       		.uleb128 0xb
 1973 01a1 3B       		.uleb128 0x3b
 1974 01a2 05       		.uleb128 0x5
 1975 01a3 00       		.byte	0
 1976 01a4 00       		.byte	0
 1977 01a5 00       		.byte	0
 1978              		.section	.debug_loc,"",%progbits
 1979              	.Ldebug_loc0:
 1980              	.LLST16:
 1981 0000 00000000 		.4byte	.LVL35
 1982 0004 0E000000 		.4byte	.LVL36
 1983 0008 0100     		.2byte	0x1
 1984 000a 50       		.byte	0x50
 1985 000b 0E000000 		.4byte	.LVL36
 1986 000f 00010000 		.4byte	.LFE112
 1987 0013 0400     		.2byte	0x4
 1988 0015 F3       		.byte	0xf3
 1989 0016 01       		.uleb128 0x1
 1990 0017 50       		.byte	0x50
 1991 0018 9F       		.byte	0x9f
 1992 0019 00000000 		.4byte	0
 1993 001d 00000000 		.4byte	0
 1994              	.LLST17:
 1995 0021 00000000 		.4byte	.LVL35
ARM GAS  /tmp/ccBdZ8fr.s 			page 36


 1996 0025 1F000000 		.4byte	.LVL39-1
 1997 0029 0100     		.2byte	0x1
 1998 002b 51       		.byte	0x51
 1999 002c 1F000000 		.4byte	.LVL39-1
 2000 0030 A2000000 		.4byte	.LVL59
 2001 0034 0100     		.2byte	0x1
 2002 0036 54       		.byte	0x54
 2003 0037 A2000000 		.4byte	.LVL59
 2004 003b 00010000 		.4byte	.LFE112
 2005 003f 0400     		.2byte	0x4
 2006 0041 F3       		.byte	0xf3
 2007 0042 01       		.uleb128 0x1
 2008 0043 51       		.byte	0x51
 2009 0044 9F       		.byte	0x9f
 2010 0045 00000000 		.4byte	0
 2011 0049 00000000 		.4byte	0
 2012              	.LLST18:
 2013 004d 00000000 		.4byte	.LVL35
 2014 0051 1F000000 		.4byte	.LVL39-1
 2015 0055 0100     		.2byte	0x1
 2016 0057 52       		.byte	0x52
 2017 0058 1F000000 		.4byte	.LVL39-1
 2018 005c A4000000 		.4byte	.LVL60
 2019 0060 0100     		.2byte	0x1
 2020 0062 55       		.byte	0x55
 2021 0063 A4000000 		.4byte	.LVL60
 2022 0067 00010000 		.4byte	.LFE112
 2023 006b 0400     		.2byte	0x4
 2024 006d F3       		.byte	0xf3
 2025 006e 01       		.uleb128 0x1
 2026 006f 52       		.byte	0x52
 2027 0070 9F       		.byte	0x9f
 2028 0071 00000000 		.4byte	0
 2029 0075 00000000 		.4byte	0
 2030              	.LLST19:
 2031 0079 00000000 		.4byte	.LVL35
 2032 007d 1F000000 		.4byte	.LVL39-1
 2033 0081 0100     		.2byte	0x1
 2034 0083 53       		.byte	0x53
 2035 0084 1F000000 		.4byte	.LVL39-1
 2036 0088 00010000 		.4byte	.LFE112
 2037 008c 0100     		.2byte	0x1
 2038 008e 56       		.byte	0x56
 2039 008f 00000000 		.4byte	0
 2040 0093 00000000 		.4byte	0
 2041              	.LLST20:
 2042 0097 00000000 		.4byte	.LVL35
 2043 009b DE000000 		.4byte	.LVL68
 2044 009f 0200     		.2byte	0x2
 2045 00a1 91       		.byte	0x91
 2046 00a2 00       		.sleb128 0
 2047 00a3 DE000000 		.4byte	.LVL68
 2048 00a7 00010000 		.4byte	.LFE112
 2049 00ab 0200     		.2byte	0x2
 2050 00ad 91       		.byte	0x91
 2051 00ae 00       		.sleb128 0
 2052 00af 00000000 		.4byte	0
ARM GAS  /tmp/ccBdZ8fr.s 			page 37


 2053 00b3 00000000 		.4byte	0
 2054              	.LLST21:
 2055 00b7 00000000 		.4byte	.LVL35
 2056 00bb DE000000 		.4byte	.LVL68
 2057 00bf 0200     		.2byte	0x2
 2058 00c1 91       		.byte	0x91
 2059 00c2 04       		.sleb128 4
 2060 00c3 DE000000 		.4byte	.LVL68
 2061 00c7 00010000 		.4byte	.LFE112
 2062 00cb 0200     		.2byte	0x2
 2063 00cd 91       		.byte	0x91
 2064 00ce 04       		.sleb128 4
 2065 00cf 00000000 		.4byte	0
 2066 00d3 00000000 		.4byte	0
 2067              	.LLST22:
 2068 00d7 18000000 		.4byte	.LVL37
 2069 00db A4000000 		.4byte	.LVL60
 2070 00df 0200     		.2byte	0x2
 2071 00e1 30       		.byte	0x30
 2072 00e2 9F       		.byte	0x9f
 2073 00e3 B6000000 		.4byte	.LVL63
 2074 00e7 B8000000 		.4byte	.LVL64
 2075 00eb 0100     		.2byte	0x1
 2076 00ed 50       		.byte	0x50
 2077 00ee BE000000 		.4byte	.LVL65
 2078 00f2 D0000000 		.4byte	.LVL66
 2079 00f6 0100     		.2byte	0x1
 2080 00f8 50       		.byte	0x50
 2081 00f9 DE000000 		.4byte	.LVL68
 2082 00fd E1000000 		.4byte	.LVL69-1
 2083 0101 0100     		.2byte	0x1
 2084 0103 50       		.byte	0x50
 2085 0104 00000000 		.4byte	0
 2086 0108 00000000 		.4byte	0
 2087              	.LLST23:
 2088 010c 18000000 		.4byte	.LVL37
 2089 0110 1F000000 		.4byte	.LVL39-1
 2090 0114 0100     		.2byte	0x1
 2091 0116 51       		.byte	0x51
 2092 0117 1F000000 		.4byte	.LVL39-1
 2093 011b 52000000 		.4byte	.LVL42
 2094 011f 0100     		.2byte	0x1
 2095 0121 54       		.byte	0x54
 2096 0122 52000000 		.4byte	.LVL42
 2097 0126 58000000 		.4byte	.LVL44
 2098 012a 0300     		.2byte	0x3
 2099 012c 74       		.byte	0x74
 2100 012d 04       		.sleb128 4
 2101 012e 9F       		.byte	0x9f
 2102 012f 58000000 		.4byte	.LVL44
 2103 0133 5E000000 		.4byte	.LVL46
 2104 0137 0300     		.2byte	0x3
 2105 0139 74       		.byte	0x74
 2106 013a 08       		.sleb128 8
 2107 013b 9F       		.byte	0x9f
 2108 013c 5E000000 		.4byte	.LVL46
 2109 0140 64000000 		.4byte	.LVL48
ARM GAS  /tmp/ccBdZ8fr.s 			page 38


 2110 0144 0300     		.2byte	0x3
 2111 0146 74       		.byte	0x74
 2112 0147 0C       		.sleb128 12
 2113 0148 9F       		.byte	0x9f
 2114 0149 64000000 		.4byte	.LVL48
 2115 014d 6A000000 		.4byte	.LVL50
 2116 0151 0300     		.2byte	0x3
 2117 0153 74       		.byte	0x74
 2118 0154 10       		.sleb128 16
 2119 0155 9F       		.byte	0x9f
 2120 0156 6A000000 		.4byte	.LVL50
 2121 015a A2000000 		.4byte	.LVL59
 2122 015e 0300     		.2byte	0x3
 2123 0160 74       		.byte	0x74
 2124 0161 14       		.sleb128 20
 2125 0162 9F       		.byte	0x9f
 2126 0163 A2000000 		.4byte	.LVL59
 2127 0167 00010000 		.4byte	.LFE112
 2128 016b 0600     		.2byte	0x6
 2129 016d F3       		.byte	0xf3
 2130 016e 01       		.uleb128 0x1
 2131 016f 51       		.byte	0x51
 2132 0170 23       		.byte	0x23
 2133 0171 14       		.uleb128 0x14
 2134 0172 9F       		.byte	0x9f
 2135 0173 00000000 		.4byte	0
 2136 0177 00000000 		.4byte	0
 2137              	.LLST24:
 2138 017b 18000000 		.4byte	.LVL37
 2139 017f 1F000000 		.4byte	.LVL39-1
 2140 0183 0100     		.2byte	0x1
 2141 0185 53       		.byte	0x53
 2142 0186 1F000000 		.4byte	.LVL39-1
 2143 018a A4000000 		.4byte	.LVL60
 2144 018e 0100     		.2byte	0x1
 2145 0190 56       		.byte	0x56
 2146 0191 A4000000 		.4byte	.LVL60
 2147 0195 AC000000 		.4byte	.LVL61
 2148 0199 0300     		.2byte	0x3
 2149 019b 74       		.byte	0x74
 2150 019c 7C       		.sleb128 -4
 2151 019d 9F       		.byte	0x9f
 2152 019e AC000000 		.4byte	.LVL61
 2153 01a2 B2000000 		.4byte	.LVL62
 2154 01a6 0100     		.2byte	0x1
 2155 01a8 54       		.byte	0x54
 2156 01a9 B2000000 		.4byte	.LVL62
 2157 01ad D0000000 		.4byte	.LVL66
 2158 01b1 0300     		.2byte	0x3
 2159 01b3 74       		.byte	0x74
 2160 01b4 04       		.sleb128 4
 2161 01b5 9F       		.byte	0x9f
 2162 01b6 DE000000 		.4byte	.LVL68
 2163 01ba F4000000 		.4byte	.LVL73
 2164 01be 0300     		.2byte	0x3
 2165 01c0 74       		.byte	0x74
 2166 01c1 04       		.sleb128 4
ARM GAS  /tmp/ccBdZ8fr.s 			page 39


 2167 01c2 9F       		.byte	0x9f
 2168 01c3 F4000000 		.4byte	.LVL73
 2169 01c7 FC000000 		.4byte	.LVL74
 2170 01cb 0300     		.2byte	0x3
 2171 01cd 74       		.byte	0x74
 2172 01ce 7C       		.sleb128 -4
 2173 01cf 9F       		.byte	0x9f
 2174 01d0 00000000 		.4byte	0
 2175 01d4 00000000 		.4byte	0
 2176              	.LLST25:
 2177 01d8 1C000000 		.4byte	.LVL38
 2178 01dc A4000000 		.4byte	.LVL60
 2179 01e0 0100     		.2byte	0x1
 2180 01e2 57       		.byte	0x57
 2181 01e3 EA000000 		.4byte	.LVL70
 2182 01e7 F2000000 		.4byte	.LVL72
 2183 01eb 0900     		.2byte	0x9
 2184 01ed 77       		.byte	0x77
 2185 01ee 00       		.sleb128 0
 2186 01ef 76       		.byte	0x76
 2187 01f0 00       		.sleb128 0
 2188 01f1 1C       		.byte	0x1c
 2189 01f2 74       		.byte	0x74
 2190 01f3 00       		.sleb128 0
 2191 01f4 22       		.byte	0x22
 2192 01f5 9F       		.byte	0x9f
 2193 01f6 F2000000 		.4byte	.LVL72
 2194 01fa F4000000 		.4byte	.LVL73
 2195 01fe 0B00     		.2byte	0xb
 2196 0200 77       		.byte	0x77
 2197 0201 00       		.sleb128 0
 2198 0202 76       		.byte	0x76
 2199 0203 00       		.sleb128 0
 2200 0204 1C       		.byte	0x1c
 2201 0205 74       		.byte	0x74
 2202 0206 00       		.sleb128 0
 2203 0207 22       		.byte	0x22
 2204 0208 23       		.byte	0x23
 2205 0209 04       		.uleb128 0x4
 2206 020a 9F       		.byte	0x9f
 2207 020b F4000000 		.4byte	.LVL73
 2208 020f FC000000 		.4byte	.LVL74
 2209 0213 0B00     		.2byte	0xb
 2210 0215 77       		.byte	0x77
 2211 0216 00       		.sleb128 0
 2212 0217 76       		.byte	0x76
 2213 0218 00       		.sleb128 0
 2214 0219 1C       		.byte	0x1c
 2215 021a 74       		.byte	0x74
 2216 021b 00       		.sleb128 0
 2217 021c 22       		.byte	0x22
 2218 021d 34       		.byte	0x34
 2219 021e 1C       		.byte	0x1c
 2220 021f 9F       		.byte	0x9f
 2221 0220 00000000 		.4byte	0
 2222 0224 00000000 		.4byte	0
 2223              	.LLST26:
ARM GAS  /tmp/ccBdZ8fr.s 			page 40


 2224 0228 1C000000 		.4byte	.LVL38
 2225 022c 1F000000 		.4byte	.LVL39-1
 2226 0230 0100     		.2byte	0x1
 2227 0232 52       		.byte	0x52
 2228 0233 1F000000 		.4byte	.LVL39-1
 2229 0237 7C000000 		.4byte	.LVL54
 2230 023b 0100     		.2byte	0x1
 2231 023d 55       		.byte	0x55
 2232 023e 7C000000 		.4byte	.LVL54
 2233 0242 A4000000 		.4byte	.LVL60
 2234 0246 0300     		.2byte	0x3
 2235 0248 75       		.byte	0x75
 2236 0249 04       		.sleb128 4
 2237 024a 9F       		.byte	0x9f
 2238 024b A4000000 		.4byte	.LVL60
 2239 024f 00010000 		.4byte	.LFE112
 2240 0253 0600     		.2byte	0x6
 2241 0255 F3       		.byte	0xf3
 2242 0256 01       		.uleb128 0x1
 2243 0257 52       		.byte	0x52
 2244 0258 23       		.byte	0x23
 2245 0259 04       		.uleb128 0x4
 2246 025a 9F       		.byte	0x9f
 2247 025b 00000000 		.4byte	0
 2248 025f 00000000 		.4byte	0
 2249              	.LLST27:
 2250 0263 1C000000 		.4byte	.LVL38
 2251 0267 A4000000 		.4byte	.LVL60
 2252 026b 0200     		.2byte	0x2
 2253 026d 30       		.byte	0x30
 2254 026e 9F       		.byte	0x9f
 2255 026f A4000000 		.4byte	.LVL60
 2256 0273 D0000000 		.4byte	.LVL66
 2257 0277 0800     		.2byte	0x8
 2258 0279 74       		.byte	0x74
 2259 027a 00       		.sleb128 0
 2260 027b 76       		.byte	0x76
 2261 027c 00       		.sleb128 0
 2262 027d 1C       		.byte	0x1c
 2263 027e 34       		.byte	0x34
 2264 027f 1C       		.byte	0x1c
 2265 0280 9F       		.byte	0x9f
 2266 0281 DE000000 		.4byte	.LVL68
 2267 0285 F2000000 		.4byte	.LVL72
 2268 0289 0800     		.2byte	0x8
 2269 028b 74       		.byte	0x74
 2270 028c 00       		.sleb128 0
 2271 028d 76       		.byte	0x76
 2272 028e 00       		.sleb128 0
 2273 028f 1C       		.byte	0x1c
 2274 0290 34       		.byte	0x34
 2275 0291 1C       		.byte	0x1c
 2276 0292 9F       		.byte	0x9f
 2277 0293 F2000000 		.4byte	.LVL72
 2278 0297 F4000000 		.4byte	.LVL73
 2279 029b 0800     		.2byte	0x8
 2280 029d 74       		.byte	0x74
ARM GAS  /tmp/ccBdZ8fr.s 			page 41


 2281 029e 00       		.sleb128 0
 2282 029f 76       		.byte	0x76
 2283 02a0 00       		.sleb128 0
 2284 02a1 1C       		.byte	0x1c
 2285 02a2 23       		.byte	0x23
 2286 02a3 04       		.uleb128 0x4
 2287 02a4 9F       		.byte	0x9f
 2288 02a5 F4000000 		.4byte	.LVL73
 2289 02a9 FC000000 		.4byte	.LVL74
 2290 02ad 0800     		.2byte	0x8
 2291 02af 74       		.byte	0x74
 2292 02b0 00       		.sleb128 0
 2293 02b1 76       		.byte	0x76
 2294 02b2 00       		.sleb128 0
 2295 02b3 1C       		.byte	0x1c
 2296 02b4 34       		.byte	0x34
 2297 02b5 1C       		.byte	0x1c
 2298 02b6 9F       		.byte	0x9f
 2299 02b7 00000000 		.4byte	0
 2300 02bb 00000000 		.4byte	0
 2301              	.LLST28:
 2302 02bf 4C000000 		.4byte	.LVL40
 2303 02c3 50000000 		.4byte	.LVL41
 2304 02c7 0200     		.2byte	0x2
 2305 02c9 74       		.byte	0x74
 2306 02ca 00       		.sleb128 0
 2307 02cb 00000000 		.4byte	0
 2308 02cf 00000000 		.4byte	0
 2309              	.LLST29:
 2310 02d3 52000000 		.4byte	.LVL42
 2311 02d7 56000000 		.4byte	.LVL43
 2312 02db 0200     		.2byte	0x2
 2313 02dd 74       		.byte	0x74
 2314 02de 04       		.sleb128 4
 2315 02df 00000000 		.4byte	0
 2316 02e3 00000000 		.4byte	0
 2317              	.LLST30:
 2318 02e7 58000000 		.4byte	.LVL44
 2319 02eb 5C000000 		.4byte	.LVL45
 2320 02ef 0200     		.2byte	0x2
 2321 02f1 74       		.byte	0x74
 2322 02f2 08       		.sleb128 8
 2323 02f3 00000000 		.4byte	0
 2324 02f7 00000000 		.4byte	0
 2325              	.LLST31:
 2326 02fb 5E000000 		.4byte	.LVL46
 2327 02ff 62000000 		.4byte	.LVL47
 2328 0303 0200     		.2byte	0x2
 2329 0305 74       		.byte	0x74
 2330 0306 0C       		.sleb128 12
 2331 0307 00000000 		.4byte	0
 2332 030b 00000000 		.4byte	0
 2333              	.LLST32:
 2334 030f 64000000 		.4byte	.LVL48
 2335 0313 68000000 		.4byte	.LVL49
 2336 0317 0200     		.2byte	0x2
 2337 0319 74       		.byte	0x74
ARM GAS  /tmp/ccBdZ8fr.s 			page 42


 2338 031a 10       		.sleb128 16
 2339 031b 00000000 		.4byte	0
 2340 031f 00000000 		.4byte	0
 2341              	.LLST33:
 2342 0323 6A000000 		.4byte	.LVL50
 2343 0327 6E000000 		.4byte	.LVL51
 2344 032b 0200     		.2byte	0x2
 2345 032d 74       		.byte	0x74
 2346 032e 14       		.sleb128 20
 2347 032f 00000000 		.4byte	0
 2348 0333 00000000 		.4byte	0
 2349              	.LLST34:
 2350 0337 76000000 		.4byte	.LVL52
 2351 033b 7A000000 		.4byte	.LVL53
 2352 033f 0200     		.2byte	0x2
 2353 0341 75       		.byte	0x75
 2354 0342 00       		.sleb128 0
 2355 0343 00000000 		.4byte	0
 2356 0347 00000000 		.4byte	0
 2357              	.LLST35:
 2358 034b 7C000000 		.4byte	.LVL54
 2359 034f 80000000 		.4byte	.LVL55
 2360 0353 0200     		.2byte	0x2
 2361 0355 75       		.byte	0x75
 2362 0356 04       		.sleb128 4
 2363 0357 00000000 		.4byte	0
 2364 035b 00000000 		.4byte	0
 2365              	.LLST0:
 2366 035f 00000000 		.4byte	.LVL0
 2367 0363 0C000000 		.4byte	.LVL1
 2368 0367 0100     		.2byte	0x1
 2369 0369 50       		.byte	0x50
 2370 036a 0C000000 		.4byte	.LVL1
 2371 036e DC000000 		.4byte	.LFE111
 2372 0372 0400     		.2byte	0x4
 2373 0374 F3       		.byte	0xf3
 2374 0375 01       		.uleb128 0x1
 2375 0376 50       		.byte	0x50
 2376 0377 9F       		.byte	0x9f
 2377 0378 00000000 		.4byte	0
 2378 037c 00000000 		.4byte	0
 2379              	.LLST1:
 2380 0380 00000000 		.4byte	.LVL0
 2381 0384 19000000 		.4byte	.LVL4-1
 2382 0388 0100     		.2byte	0x1
 2383 038a 51       		.byte	0x51
 2384 038b 19000000 		.4byte	.LVL4-1
 2385 038f 80000000 		.4byte	.LVL20
 2386 0393 0100     		.2byte	0x1
 2387 0395 54       		.byte	0x54
 2388 0396 80000000 		.4byte	.LVL20
 2389 039a DC000000 		.4byte	.LFE111
 2390 039e 0400     		.2byte	0x4
 2391 03a0 F3       		.byte	0xf3
 2392 03a1 01       		.uleb128 0x1
 2393 03a2 51       		.byte	0x51
 2394 03a3 9F       		.byte	0x9f
ARM GAS  /tmp/ccBdZ8fr.s 			page 43


 2395 03a4 00000000 		.4byte	0
 2396 03a8 00000000 		.4byte	0
 2397              	.LLST2:
 2398 03ac 00000000 		.4byte	.LVL0
 2399 03b0 19000000 		.4byte	.LVL4-1
 2400 03b4 0100     		.2byte	0x1
 2401 03b6 52       		.byte	0x52
 2402 03b7 19000000 		.4byte	.LVL4-1
 2403 03bb DC000000 		.4byte	.LFE111
 2404 03bf 0100     		.2byte	0x1
 2405 03c1 56       		.byte	0x56
 2406 03c2 00000000 		.4byte	0
 2407 03c6 00000000 		.4byte	0
 2408              	.LLST3:
 2409 03ca 00000000 		.4byte	.LVL0
 2410 03ce 19000000 		.4byte	.LVL4-1
 2411 03d2 0100     		.2byte	0x1
 2412 03d4 53       		.byte	0x53
 2413 03d5 19000000 		.4byte	.LVL4-1
 2414 03d9 DC000000 		.4byte	.LFE111
 2415 03dd 0100     		.2byte	0x1
 2416 03df 59       		.byte	0x59
 2417 03e0 00000000 		.4byte	0
 2418 03e4 00000000 		.4byte	0
 2419              	.LLST4:
 2420 03e8 00000000 		.4byte	.LVL0
 2421 03ec BA000000 		.4byte	.LVL28
 2422 03f0 0200     		.2byte	0x2
 2423 03f2 91       		.byte	0x91
 2424 03f3 00       		.sleb128 0
 2425 03f4 BA000000 		.4byte	.LVL28
 2426 03f8 DC000000 		.4byte	.LFE111
 2427 03fc 0200     		.2byte	0x2
 2428 03fe 91       		.byte	0x91
 2429 03ff 00       		.sleb128 0
 2430 0400 00000000 		.4byte	0
 2431 0404 00000000 		.4byte	0
 2432              	.LLST5:
 2433 0408 14000000 		.4byte	.LVL2
 2434 040c 80000000 		.4byte	.LVL20
 2435 0410 0200     		.2byte	0x2
 2436 0412 30       		.byte	0x30
 2437 0413 9F       		.byte	0x9f
 2438 0414 92000000 		.4byte	.LVL23
 2439 0418 94000000 		.4byte	.LVL24
 2440 041c 0100     		.2byte	0x1
 2441 041e 50       		.byte	0x50
 2442 041f 9A000000 		.4byte	.LVL25
 2443 0423 AC000000 		.4byte	.LVL26
 2444 0427 0100     		.2byte	0x1
 2445 0429 50       		.byte	0x50
 2446 042a BA000000 		.4byte	.LVL28
 2447 042e BD000000 		.4byte	.LVL29-1
 2448 0432 0100     		.2byte	0x1
 2449 0434 50       		.byte	0x50
 2450 0435 00000000 		.4byte	0
 2451 0439 00000000 		.4byte	0
ARM GAS  /tmp/ccBdZ8fr.s 			page 44


 2452              	.LLST6:
 2453 043d 14000000 		.4byte	.LVL2
 2454 0441 19000000 		.4byte	.LVL4-1
 2455 0445 0100     		.2byte	0x1
 2456 0447 51       		.byte	0x51
 2457 0448 19000000 		.4byte	.LVL4-1
 2458 044c 42000000 		.4byte	.LVL7
 2459 0450 0100     		.2byte	0x1
 2460 0452 54       		.byte	0x54
 2461 0453 42000000 		.4byte	.LVL7
 2462 0457 48000000 		.4byte	.LVL9
 2463 045b 0300     		.2byte	0x3
 2464 045d 74       		.byte	0x74
 2465 045e 04       		.sleb128 4
 2466 045f 9F       		.byte	0x9f
 2467 0460 48000000 		.4byte	.LVL9
 2468 0464 4E000000 		.4byte	.LVL11
 2469 0468 0300     		.2byte	0x3
 2470 046a 74       		.byte	0x74
 2471 046b 08       		.sleb128 8
 2472 046c 9F       		.byte	0x9f
 2473 046d 4E000000 		.4byte	.LVL11
 2474 0471 54000000 		.4byte	.LVL13
 2475 0475 0300     		.2byte	0x3
 2476 0477 74       		.byte	0x74
 2477 0478 0C       		.sleb128 12
 2478 0479 9F       		.byte	0x9f
 2479 047a 54000000 		.4byte	.LVL13
 2480 047e 5A000000 		.4byte	.LVL15
 2481 0482 0300     		.2byte	0x3
 2482 0484 74       		.byte	0x74
 2483 0485 10       		.sleb128 16
 2484 0486 9F       		.byte	0x9f
 2485 0487 5A000000 		.4byte	.LVL15
 2486 048b 80000000 		.4byte	.LVL20
 2487 048f 0300     		.2byte	0x3
 2488 0491 74       		.byte	0x74
 2489 0492 14       		.sleb128 20
 2490 0493 9F       		.byte	0x9f
 2491 0494 80000000 		.4byte	.LVL20
 2492 0498 DC000000 		.4byte	.LFE111
 2493 049c 0600     		.2byte	0x6
 2494 049e F3       		.byte	0xf3
 2495 049f 01       		.uleb128 0x1
 2496 04a0 51       		.byte	0x51
 2497 04a1 23       		.byte	0x23
 2498 04a2 14       		.uleb128 0x14
 2499 04a3 9F       		.byte	0x9f
 2500 04a4 00000000 		.4byte	0
 2501 04a8 00000000 		.4byte	0
 2502              	.LLST7:
 2503 04ac 14000000 		.4byte	.LVL2
 2504 04b0 19000000 		.4byte	.LVL4-1
 2505 04b4 0100     		.2byte	0x1
 2506 04b6 52       		.byte	0x52
 2507 04b7 19000000 		.4byte	.LVL4-1
 2508 04bb 80000000 		.4byte	.LVL20
ARM GAS  /tmp/ccBdZ8fr.s 			page 45


 2509 04bf 0100     		.2byte	0x1
 2510 04c1 56       		.byte	0x56
 2511 04c2 80000000 		.4byte	.LVL20
 2512 04c6 88000000 		.4byte	.LVL21
 2513 04ca 0300     		.2byte	0x3
 2514 04cc 74       		.byte	0x74
 2515 04cd 7C       		.sleb128 -4
 2516 04ce 9F       		.byte	0x9f
 2517 04cf 88000000 		.4byte	.LVL21
 2518 04d3 8E000000 		.4byte	.LVL22
 2519 04d7 0100     		.2byte	0x1
 2520 04d9 54       		.byte	0x54
 2521 04da 8E000000 		.4byte	.LVL22
 2522 04de AC000000 		.4byte	.LVL26
 2523 04e2 0300     		.2byte	0x3
 2524 04e4 74       		.byte	0x74
 2525 04e5 04       		.sleb128 4
 2526 04e6 9F       		.byte	0x9f
 2527 04e7 BA000000 		.4byte	.LVL28
 2528 04eb D0000000 		.4byte	.LVL33
 2529 04ef 0300     		.2byte	0x3
 2530 04f1 74       		.byte	0x74
 2531 04f2 04       		.sleb128 4
 2532 04f3 9F       		.byte	0x9f
 2533 04f4 D0000000 		.4byte	.LVL33
 2534 04f8 D8000000 		.4byte	.LVL34
 2535 04fc 0300     		.2byte	0x3
 2536 04fe 74       		.byte	0x74
 2537 04ff 7C       		.sleb128 -4
 2538 0500 9F       		.byte	0x9f
 2539 0501 00000000 		.4byte	0
 2540 0505 00000000 		.4byte	0
 2541              	.LLST8:
 2542 0509 16000000 		.4byte	.LVL3
 2543 050d 80000000 		.4byte	.LVL20
 2544 0511 0100     		.2byte	0x1
 2545 0513 57       		.byte	0x57
 2546 0514 C6000000 		.4byte	.LVL30
 2547 0518 CE000000 		.4byte	.LVL32
 2548 051c 0900     		.2byte	0x9
 2549 051e 77       		.byte	0x77
 2550 051f 00       		.sleb128 0
 2551 0520 76       		.byte	0x76
 2552 0521 00       		.sleb128 0
 2553 0522 1C       		.byte	0x1c
 2554 0523 74       		.byte	0x74
 2555 0524 00       		.sleb128 0
 2556 0525 22       		.byte	0x22
 2557 0526 9F       		.byte	0x9f
 2558 0527 CE000000 		.4byte	.LVL32
 2559 052b D0000000 		.4byte	.LVL33
 2560 052f 0B00     		.2byte	0xb
 2561 0531 77       		.byte	0x77
 2562 0532 00       		.sleb128 0
 2563 0533 76       		.byte	0x76
 2564 0534 00       		.sleb128 0
 2565 0535 1C       		.byte	0x1c
ARM GAS  /tmp/ccBdZ8fr.s 			page 46


 2566 0536 74       		.byte	0x74
 2567 0537 00       		.sleb128 0
 2568 0538 22       		.byte	0x22
 2569 0539 23       		.byte	0x23
 2570 053a 04       		.uleb128 0x4
 2571 053b 9F       		.byte	0x9f
 2572 053c D0000000 		.4byte	.LVL33
 2573 0540 D8000000 		.4byte	.LVL34
 2574 0544 0B00     		.2byte	0xb
 2575 0546 77       		.byte	0x77
 2576 0547 00       		.sleb128 0
 2577 0548 76       		.byte	0x76
 2578 0549 00       		.sleb128 0
 2579 054a 1C       		.byte	0x1c
 2580 054b 74       		.byte	0x74
 2581 054c 00       		.sleb128 0
 2582 054d 22       		.byte	0x22
 2583 054e 34       		.byte	0x34
 2584 054f 1C       		.byte	0x1c
 2585 0550 9F       		.byte	0x9f
 2586 0551 00000000 		.4byte	0
 2587 0555 00000000 		.4byte	0
 2588              	.LLST9:
 2589 0559 16000000 		.4byte	.LVL3
 2590 055d 80000000 		.4byte	.LVL20
 2591 0561 0200     		.2byte	0x2
 2592 0563 30       		.byte	0x30
 2593 0564 9F       		.byte	0x9f
 2594 0565 80000000 		.4byte	.LVL20
 2595 0569 AC000000 		.4byte	.LVL26
 2596 056d 0800     		.2byte	0x8
 2597 056f 74       		.byte	0x74
 2598 0570 00       		.sleb128 0
 2599 0571 76       		.byte	0x76
 2600 0572 00       		.sleb128 0
 2601 0573 1C       		.byte	0x1c
 2602 0574 34       		.byte	0x34
 2603 0575 1C       		.byte	0x1c
 2604 0576 9F       		.byte	0x9f
 2605 0577 BA000000 		.4byte	.LVL28
 2606 057b CE000000 		.4byte	.LVL32
 2607 057f 0800     		.2byte	0x8
 2608 0581 74       		.byte	0x74
 2609 0582 00       		.sleb128 0
 2610 0583 76       		.byte	0x76
 2611 0584 00       		.sleb128 0
 2612 0585 1C       		.byte	0x1c
 2613 0586 34       		.byte	0x34
 2614 0587 1C       		.byte	0x1c
 2615 0588 9F       		.byte	0x9f
 2616 0589 CE000000 		.4byte	.LVL32
 2617 058d D0000000 		.4byte	.LVL33
 2618 0591 0800     		.2byte	0x8
 2619 0593 74       		.byte	0x74
 2620 0594 00       		.sleb128 0
 2621 0595 76       		.byte	0x76
 2622 0596 00       		.sleb128 0
ARM GAS  /tmp/ccBdZ8fr.s 			page 47


 2623 0597 1C       		.byte	0x1c
 2624 0598 23       		.byte	0x23
 2625 0599 04       		.uleb128 0x4
 2626 059a 9F       		.byte	0x9f
 2627 059b D0000000 		.4byte	.LVL33
 2628 059f D8000000 		.4byte	.LVL34
 2629 05a3 0800     		.2byte	0x8
 2630 05a5 74       		.byte	0x74
 2631 05a6 00       		.sleb128 0
 2632 05a7 76       		.byte	0x76
 2633 05a8 00       		.sleb128 0
 2634 05a9 1C       		.byte	0x1c
 2635 05aa 34       		.byte	0x34
 2636 05ab 1C       		.byte	0x1c
 2637 05ac 9F       		.byte	0x9f
 2638 05ad 00000000 		.4byte	0
 2639 05b1 00000000 		.4byte	0
 2640              	.LLST10:
 2641 05b5 3C000000 		.4byte	.LVL5
 2642 05b9 40000000 		.4byte	.LVL6
 2643 05bd 0200     		.2byte	0x2
 2644 05bf 74       		.byte	0x74
 2645 05c0 00       		.sleb128 0
 2646 05c1 00000000 		.4byte	0
 2647 05c5 00000000 		.4byte	0
 2648              	.LLST11:
 2649 05c9 42000000 		.4byte	.LVL7
 2650 05cd 46000000 		.4byte	.LVL8
 2651 05d1 0200     		.2byte	0x2
 2652 05d3 74       		.byte	0x74
 2653 05d4 04       		.sleb128 4
 2654 05d5 00000000 		.4byte	0
 2655 05d9 00000000 		.4byte	0
 2656              	.LLST12:
 2657 05dd 48000000 		.4byte	.LVL9
 2658 05e1 4C000000 		.4byte	.LVL10
 2659 05e5 0200     		.2byte	0x2
 2660 05e7 74       		.byte	0x74
 2661 05e8 08       		.sleb128 8
 2662 05e9 00000000 		.4byte	0
 2663 05ed 00000000 		.4byte	0
 2664              	.LLST13:
 2665 05f1 4E000000 		.4byte	.LVL11
 2666 05f5 52000000 		.4byte	.LVL12
 2667 05f9 0200     		.2byte	0x2
 2668 05fb 74       		.byte	0x74
 2669 05fc 0C       		.sleb128 12
 2670 05fd 00000000 		.4byte	0
 2671 0601 00000000 		.4byte	0
 2672              	.LLST14:
 2673 0605 54000000 		.4byte	.LVL13
 2674 0609 58000000 		.4byte	.LVL14
 2675 060d 0200     		.2byte	0x2
 2676 060f 74       		.byte	0x74
 2677 0610 10       		.sleb128 16
 2678 0611 00000000 		.4byte	0
 2679 0615 00000000 		.4byte	0
ARM GAS  /tmp/ccBdZ8fr.s 			page 48


 2680              	.LLST15:
 2681 0619 5A000000 		.4byte	.LVL15
 2682 061d 5E000000 		.4byte	.LVL16
 2683 0621 0200     		.2byte	0x2
 2684 0623 74       		.byte	0x74
 2685 0624 14       		.sleb128 20
 2686 0625 00000000 		.4byte	0
 2687 0629 00000000 		.4byte	0
 2688              		.section	.debug_aranges,"",%progbits
 2689 0000 24000000 		.4byte	0x24
 2690 0004 0200     		.2byte	0x2
 2691 0006 00000000 		.4byte	.Ldebug_info0
 2692 000a 04       		.byte	0x4
 2693 000b 00       		.byte	0
 2694 000c 0000     		.2byte	0
 2695 000e 0000     		.2byte	0
 2696 0010 00000000 		.4byte	.LFB111
 2697 0014 DC000000 		.4byte	.LFE111-.LFB111
 2698 0018 00000000 		.4byte	.LFB112
 2699 001c 00010000 		.4byte	.LFE112-.LFB112
 2700 0020 00000000 		.4byte	0
 2701 0024 00000000 		.4byte	0
 2702              		.section	.debug_ranges,"",%progbits
 2703              	.Ldebug_ranges0:
 2704 0000 00000000 		.4byte	.LFB111
 2705 0004 DC000000 		.4byte	.LFE111
 2706 0008 00000000 		.4byte	.LFB112
 2707 000c 00010000 		.4byte	.LFE112
 2708 0010 00000000 		.4byte	0
 2709 0014 00000000 		.4byte	0
 2710              		.section	.debug_line,"",%progbits
 2711              	.Ldebug_line0:
 2712 0000 DB020000 		.section	.debug_str,"MS",%progbits,1
 2712      02007E01 
 2712      00000201 
 2712      FB0E0D00 
 2712      01010101 
 2713              	.LASF74:
 2714 0000 72657375 		.ascii	"result\000"
 2714      6C7400
 2715              	.LASF41:
 2716 0007 43525950 		.ascii	"CRYP_IVInitTypeDef\000"
 2716      5F495649 
 2716      6E697454 
 2716      79706544 
 2716      656600
 2717              	.LASF54:
 2718 001a 696E7075 		.ascii	"inputaddr\000"
 2718      74616464 
 2718      7200
 2719              	.LASF61:
 2720 0024 43525950 		.ascii	"CRYP_KeyInit\000"
 2720      5F4B6579 
 2720      496E6974 
 2720      00
 2721              	.LASF47:
 2722 0031 54444553 		.ascii	"TDES_CRYP_InitStructure\000"
ARM GAS  /tmp/ccBdZ8fr.s 			page 49


 2722      5F435259 
 2722      505F496E 
 2722      69745374 
 2722      72756374 
 2723              	.LASF46:
 2724 0049 4F757470 		.ascii	"Output\000"
 2724      757400
 2725              	.LASF27:
 2726 0050 43525950 		.ascii	"CRYP_InitTypeDef\000"
 2726      5F496E69 
 2726      74547970 
 2726      65446566 
 2726      00
 2727              	.LASF8:
 2728 0061 5F5F7569 		.ascii	"__uint32_t\000"
 2728      6E743332 
 2728      5F7400
 2729              	.LASF35:
 2730 006c 43525950 		.ascii	"CRYP_Key3Right\000"
 2730      5F4B6579 
 2730      33526967 
 2730      687400
 2731              	.LASF4:
 2732 007b 5F5F7569 		.ascii	"__uint16_t\000"
 2732      6E743136 
 2732      5F7400
 2733              	.LASF31:
 2734 0086 43525950 		.ascii	"CRYP_Key1Right\000"
 2734      5F4B6579 
 2734      31526967 
 2734      687400
 2735              	.LASF69:
 2736 0095 43686962 		.ascii	"ChibiOS_2.6.6/ext/stdperiph_stm32f4/src/stm32f4xx_c"
 2736      694F535F 
 2736      322E362E 
 2736      362F6578 
 2736      742F7374 
 2737 00c8 7279705F 		.ascii	"ryp_tdes.c\000"
 2737      74646573 
 2737      2E6300
 2738              	.LASF48:
 2739 00d3 54444553 		.ascii	"TDES_CRYP_KeyInitStructure\000"
 2739      5F435259 
 2739      505F4B65 
 2739      79496E69 
 2739      74537472 
 2740              	.LASF56:
 2741 00ee 69766164 		.ascii	"ivaddr\000"
 2741      647200
 2742              	.LASF43:
 2743 00f5 496E6974 		.ascii	"InitVectors\000"
 2743      56656374 
 2743      6F727300 
 2744              	.LASF73:
 2745 0101 76616C75 		.ascii	"value\000"
 2745      6500
 2746              	.LASF13:
ARM GAS  /tmp/ccBdZ8fr.s 			page 50


 2747 0107 75696E74 		.ascii	"uint8_t\000"
 2747      385F7400 
 2748              	.LASF55:
 2749 010f 6F757470 		.ascii	"outputaddr\000"
 2749      75746164 
 2749      647200
 2750              	.LASF72:
 2751 011a 5F5F5245 		.ascii	"__REV\000"
 2751      5600
 2752              	.LASF45:
 2753 0120 496C656E 		.ascii	"Ilength\000"
 2753      67746800 
 2754              	.LASF59:
 2755 0128 43525950 		.ascii	"CRYP_KeyStructInit\000"
 2755      5F4B6579 
 2755      53747275 
 2755      6374496E 
 2755      697400
 2756              	.LASF66:
 2757 013b 43525950 		.ascii	"CRYP_GetFlagStatus\000"
 2757      5F476574 
 2757      466C6167 
 2757      53746174 
 2757      757300
 2758              	.LASF18:
 2759 014e 44495341 		.ascii	"DISABLE\000"
 2759      424C4500 
 2760              	.LASF53:
 2761 0156 6B657961 		.ascii	"keyaddr\000"
 2761      64647200 
 2762              	.LASF2:
 2763 015e 73686F72 		.ascii	"short int\000"
 2763      7420696E 
 2763      7400
 2764              	.LASF64:
 2765 0168 43525950 		.ascii	"CRYP_Cmd\000"
 2765      5F436D64 
 2765      00
 2766              	.LASF10:
 2767 0171 6C6F6E67 		.ascii	"long long int\000"
 2767      206C6F6E 
 2767      6720696E 
 2767      7400
 2768              	.LASF7:
 2769 017f 6C6F6E67 		.ascii	"long int\000"
 2769      20696E74 
 2769      00
 2770              	.LASF22:
 2771 0188 4572726F 		.ascii	"ErrorStatus\000"
 2771      72537461 
 2771      74757300 
 2772              	.LASF3:
 2773 0194 5F5F7569 		.ascii	"__uint8_t\000"
 2773      6E74385F 
 2773      7400
 2774              	.LASF20:
 2775 019e 4552524F 		.ascii	"ERROR\000"
ARM GAS  /tmp/ccBdZ8fr.s 			page 51


 2775      5200
 2776              	.LASF49:
 2777 01a4 54444553 		.ascii	"TDES_CRYP_IVInitStructure\000"
 2777      5F435259 
 2777      505F4956 
 2777      496E6974 
 2777      53747275 
 2778              	.LASF23:
 2779 01be 43525950 		.ascii	"CRYP_AlgoDir\000"
 2779      5F416C67 
 2779      6F446972 
 2779      00
 2780              	.LASF36:
 2781 01cb 43525950 		.ascii	"CRYP_KeyInitTypeDef\000"
 2781      5F4B6579 
 2781      496E6974 
 2781      54797065 
 2781      44656600 
 2782              	.LASF38:
 2783 01df 43525950 		.ascii	"CRYP_IV0Right\000"
 2783      5F495630 
 2783      52696768 
 2783      7400
 2784              	.LASF1:
 2785 01ed 756E7369 		.ascii	"unsigned char\000"
 2785      676E6564 
 2785      20636861 
 2785      7200
 2786              	.LASF50:
 2787 01fb 636F756E 		.ascii	"counter\000"
 2787      74657200 
 2788              	.LASF37:
 2789 0203 43525950 		.ascii	"CRYP_IV0Left\000"
 2789      5F495630 
 2789      4C656674 
 2789      00
 2790              	.LASF0:
 2791 0210 7369676E 		.ascii	"signed char\000"
 2791      65642063 
 2791      68617200 
 2792              	.LASF11:
 2793 021c 6C6F6E67 		.ascii	"long long unsigned int\000"
 2793      206C6F6E 
 2793      6720756E 
 2793      7369676E 
 2793      65642069 
 2794              	.LASF67:
 2795 0233 43525950 		.ascii	"CRYP_DataOut\000"
 2795      5F446174 
 2795      614F7574 
 2795      00
 2796              	.LASF16:
 2797 0240 75696E74 		.ascii	"uint32_t\000"
 2797      33325F74 
 2797      00
 2798              	.LASF12:
 2799 0249 756E7369 		.ascii	"unsigned int\000"
ARM GAS  /tmp/ccBdZ8fr.s 			page 52


 2799      676E6564 
 2799      20696E74 
 2799      00
 2800              	.LASF14:
 2801 0256 75696E74 		.ascii	"uint16_t\000"
 2801      31365F74 
 2801      00
 2802              	.LASF28:
 2803 025f 43525950 		.ascii	"CRYP_Key0Left\000"
 2803      5F4B6579 
 2803      304C6566 
 2803      7400
 2804              	.LASF25:
 2805 026d 43525950 		.ascii	"CRYP_DataType\000"
 2805      5F446174 
 2805      61547970 
 2805      6500
 2806              	.LASF32:
 2807 027b 43525950 		.ascii	"CRYP_Key2Left\000"
 2807      5F4B6579 
 2807      324C6566 
 2807      7400
 2808              	.LASF21:
 2809 0289 53554343 		.ascii	"SUCCESS\000"
 2809      45535300 
 2810              	.LASF5:
 2811 0291 73686F72 		.ascii	"short unsigned int\000"
 2811      7420756E 
 2811      7369676E 
 2811      65642069 
 2811      6E7400
 2812              	.LASF52:
 2813 02a4 73746174 		.ascii	"status\000"
 2813      757300
 2814              	.LASF34:
 2815 02ab 43525950 		.ascii	"CRYP_Key3Left\000"
 2815      5F4B6579 
 2815      334C6566 
 2815      7400
 2816              	.LASF65:
 2817 02b9 43525950 		.ascii	"CRYP_DataIn\000"
 2817      5F446174 
 2817      61496E00 
 2818              	.LASF15:
 2819 02c5 696E7433 		.ascii	"int32_t\000"
 2819      325F7400 
 2820              	.LASF33:
 2821 02cd 43525950 		.ascii	"CRYP_Key2Right\000"
 2821      5F4B6579 
 2821      32526967 
 2821      687400
 2822              	.LASF62:
 2823 02dc 43525950 		.ascii	"CRYP_IVInit\000"
 2823      5F495649 
 2823      6E697400 
 2824              	.LASF29:
 2825 02e8 43525950 		.ascii	"CRYP_Key0Right\000"
ARM GAS  /tmp/ccBdZ8fr.s 			page 53


 2825      5F4B6579 
 2825      30526967 
 2825      687400
 2826              	.LASF58:
 2827 02f7 43525950 		.ascii	"CRYP_TDES_ECB\000"
 2827      5F544445 
 2827      535F4543 
 2827      4200
 2828              	.LASF26:
 2829 0305 43525950 		.ascii	"CRYP_KeySize\000"
 2829      5F4B6579 
 2829      53697A65 
 2829      00
 2830              	.LASF9:
 2831 0312 6C6F6E67 		.ascii	"long unsigned int\000"
 2831      20756E73 
 2831      69676E65 
 2831      6420696E 
 2831      7400
 2832              	.LASF51:
 2833 0324 62757379 		.ascii	"busystatus\000"
 2833      73746174 
 2833      757300
 2834              	.LASF70:
 2835 032f 2F686F6D 		.ascii	"/home/renan/BLDC/bldc-bootloader\000"
 2835      652F7265 
 2835      6E616E2F 
 2835      424C4443 
 2835      2F626C64 
 2836              	.LASF6:
 2837 0350 5F5F696E 		.ascii	"__int32_t\000"
 2837      7433325F 
 2837      7400
 2838              	.LASF17:
 2839 035a 52455345 		.ascii	"RESET\000"
 2839      5400
 2840              	.LASF39:
 2841 0360 43525950 		.ascii	"CRYP_IV1Left\000"
 2841      5F495631 
 2841      4C656674 
 2841      00
 2842              	.LASF63:
 2843 036d 43525950 		.ascii	"CRYP_FIFOFlush\000"
 2843      5F464946 
 2843      4F466C75 
 2843      736800
 2844              	.LASF42:
 2845 037c 4D6F6465 		.ascii	"Mode\000"
 2845      00
 2846              	.LASF44:
 2847 0381 496E7075 		.ascii	"Input\000"
 2847      7400
 2848              	.LASF30:
 2849 0387 43525950 		.ascii	"CRYP_Key1Left\000"
 2849      5F4B6579 
 2849      314C6566 
 2849      7400
ARM GAS  /tmp/ccBdZ8fr.s 			page 54


 2850              	.LASF71:
 2851 0395 49544D5F 		.ascii	"ITM_RxBuffer\000"
 2851      52784275 
 2851      66666572 
 2851      00
 2852              	.LASF57:
 2853 03a2 43525950 		.ascii	"CRYP_TDES_CBC\000"
 2853      5F544445 
 2853      535F4342 
 2853      4300
 2854              	.LASF60:
 2855 03b0 43525950 		.ascii	"CRYP_Init\000"
 2855      5F496E69 
 2855      7400
 2856              	.LASF40:
 2857 03ba 43525950 		.ascii	"CRYP_IV1Right\000"
 2857      5F495631 
 2857      52696768 
 2857      7400
 2858              	.LASF19:
 2859 03c8 454E4142 		.ascii	"ENABLE\000"
 2859      4C4500
 2860              	.LASF24:
 2861 03cf 43525950 		.ascii	"CRYP_AlgoMode\000"
 2861      5F416C67 
 2861      6F4D6F64 
 2861      6500
 2862              	.LASF68:
 2863 03dd 474E5520 		.ascii	"GNU C99 7.3.1 20180622 (release) [ARM/embedded-7-br"
 2863      43393920 
 2863      372E332E 
 2863      31203230 
 2863      31383036 
 2864 0410 616E6368 		.ascii	"anch revision 261907] -mcpu=cortex-m4 -mfloat-abi=h"
 2864      20726576 
 2864      6973696F 
 2864      6E203236 
 2864      31393037 
 2865 0443 61726420 		.ascii	"ard -mfpu=fpv4-sp-d16 -mno-thumb-interwork -mthumb "
 2865      2D6D6670 
 2865      753D6670 
 2865      76342D73 
 2865      702D6431 
 2866 0476 2D676764 		.ascii	"-ggdb -O2 -std=gnu99 -fomit-frame-pointer -falign-f"
 2866      62202D4F 
 2866      32202D73 
 2866      74643D67 
 2866      6E753939 
 2867 04a9 756E6374 		.ascii	"unctions=16 -ffunction-sections -fdata-sections -fn"
 2867      696F6E73 
 2867      3D313620 
 2867      2D666675 
 2867      6E637469 
 2868 04dc 6F2D636F 		.ascii	"o-common -fsingle-precision-constant\000"
 2868      6D6D6F6E 
 2868      202D6673 
 2868      696E676C 
ARM GAS  /tmp/ccBdZ8fr.s 			page 55


 2868      652D7072 
 2869              		.ident	"GCC: (GNU Tools for Arm Embedded Processors 7-2018-q3-update) 7.3.1 20180622 (release) [AR
ARM GAS  /tmp/ccBdZ8fr.s 			page 56


DEFINED SYMBOLS
                            *ABS*:0000000000000000 stm32f4xx_cryp_tdes.c
     /tmp/ccBdZ8fr.s:18     .text.CRYP_TDES_ECB:0000000000000000 $t
     /tmp/ccBdZ8fr.s:26     .text.CRYP_TDES_ECB:0000000000000000 CRYP_TDES_ECB
     /tmp/ccBdZ8fr.s:280    .text.CRYP_TDES_CBC:0000000000000000 $t
     /tmp/ccBdZ8fr.s:288    .text.CRYP_TDES_CBC:0000000000000000 CRYP_TDES_CBC

UNDEFINED SYMBOLS
CRYP_KeyStructInit
CRYP_Init
CRYP_KeyInit
CRYP_FIFOFlush
CRYP_Cmd
CRYP_DataIn
CRYP_GetFlagStatus
CRYP_DataOut
CRYP_IVInit
