ARM GAS  /tmp/cc7Xux4D.s 			page 1


   1              		.cpu cortex-m4
   2              		.eabi_attribute 27, 1
   3              		.eabi_attribute 28, 1
   4              		.eabi_attribute 20, 1
   5              		.eabi_attribute 21, 1
   6              		.eabi_attribute 23, 3
   7              		.eabi_attribute 24, 1
   8              		.eabi_attribute 25, 1
   9              		.eabi_attribute 26, 1
  10              		.eabi_attribute 30, 2
  11              		.eabi_attribute 34, 1
  12              		.eabi_attribute 18, 4
  13              		.file	"stm32f4xx_usart.c"
  14              		.text
  15              	.Ltext0:
  16              		.cfi_sections	.debug_frame
  17              		.section	.text.USART_DeInit,"ax",%progbits
  18              		.align	1
  19              		.p2align 4,,15
  20              		.global	USART_DeInit
  21              		.syntax unified
  22              		.thumb
  23              		.thumb_func
  24              		.fpu fpv4-sp-d16
  25              		.type	USART_DeInit, %function
  26              	USART_DeInit:
  27              	.LFB111:
  28              		.file 1 "ChibiOS_2.6.6/ext/stdperiph_stm32f4/src/stm32f4xx_usart.c"
  29              		.loc 1 185 0
  30              		.cfi_startproc
  31              		@ args = 0, pretend = 0, frame = 0
  32              		@ frame_needed = 0, uses_anonymous_args = 0
  33              	.LVL0:
  34 0000 08B5     		push	{r3, lr}
  35              		.cfi_def_cfa_offset 8
  36              		.cfi_offset 3, -8
  37              		.cfi_offset 14, -4
  38              		.loc 1 189 0
  39 0002 2B4B     		ldr	r3, .L16
  40 0004 9842     		cmp	r0, r3
  41 0006 1BD0     		beq	.L10
  42              		.loc 1 194 0
  43 0008 2A4B     		ldr	r3, .L16+4
  44 000a 9842     		cmp	r0, r3
  45 000c 22D0     		beq	.L11
  46              		.loc 1 199 0
  47 000e 2A4B     		ldr	r3, .L16+8
  48 0010 9842     		cmp	r0, r3
  49 0012 2BD0     		beq	.L12
  50              		.loc 1 204 0
  51 0014 294B     		ldr	r3, .L16+12
  52 0016 9842     		cmp	r0, r3
  53 0018 34D0     		beq	.L13
  54              		.loc 1 209 0
  55 001a 294B     		ldr	r3, .L16+16
  56 001c 9842     		cmp	r0, r3
  57 001e 03D0     		beq	.L14
ARM GAS  /tmp/cc7Xux4D.s 			page 2


  58              		.loc 1 216 0
  59 0020 284B     		ldr	r3, .L16+20
  60 0022 9842     		cmp	r0, r3
  61 0024 3AD0     		beq	.L15
  62              		.loc 1 222 0
  63 0026 08BD     		pop	{r3, pc}
  64              	.L14:
  65              		.loc 1 211 0
  66 0028 0121     		movs	r1, #1
  67 002a 4FF48010 		mov	r0, #1048576
  68              	.LVL1:
  69 002e FFF7FEFF 		bl	RCC_APB1PeriphResetCmd
  70              	.LVL2:
  71              		.loc 1 212 0
  72 0032 0021     		movs	r1, #0
  73 0034 4FF48010 		mov	r0, #1048576
  74              		.loc 1 222 0
  75 0038 BDE80840 		pop	{r3, lr}
  76              		.cfi_remember_state
  77              		.cfi_restore 14
  78              		.cfi_restore 3
  79              		.cfi_def_cfa_offset 0
  80              		.loc 1 212 0
  81 003c FFF7FEBF 		b	RCC_APB1PeriphResetCmd
  82              	.LVL3:
  83              	.L10:
  84              		.cfi_restore_state
  85              		.loc 1 191 0
  86 0040 0121     		movs	r1, #1
  87 0042 1020     		movs	r0, #16
  88              	.LVL4:
  89 0044 FFF7FEFF 		bl	RCC_APB2PeriphResetCmd
  90              	.LVL5:
  91              		.loc 1 192 0
  92 0048 0021     		movs	r1, #0
  93 004a 1020     		movs	r0, #16
  94              		.loc 1 222 0
  95 004c BDE80840 		pop	{r3, lr}
  96              		.cfi_remember_state
  97              		.cfi_restore 14
  98              		.cfi_restore 3
  99              		.cfi_def_cfa_offset 0
 100              		.loc 1 192 0
 101 0050 FFF7FEBF 		b	RCC_APB2PeriphResetCmd
 102              	.LVL6:
 103              	.L11:
 104              		.cfi_restore_state
 105              		.loc 1 196 0
 106 0054 0121     		movs	r1, #1
 107 0056 4FF40030 		mov	r0, #131072
 108              	.LVL7:
 109 005a FFF7FEFF 		bl	RCC_APB1PeriphResetCmd
 110              	.LVL8:
 111              		.loc 1 197 0
 112 005e 0021     		movs	r1, #0
 113 0060 4FF40030 		mov	r0, #131072
 114              		.loc 1 222 0
ARM GAS  /tmp/cc7Xux4D.s 			page 3


 115 0064 BDE80840 		pop	{r3, lr}
 116              		.cfi_remember_state
 117              		.cfi_restore 14
 118              		.cfi_restore 3
 119              		.cfi_def_cfa_offset 0
 120              		.loc 1 197 0
 121 0068 FFF7FEBF 		b	RCC_APB1PeriphResetCmd
 122              	.LVL9:
 123              	.L12:
 124              		.cfi_restore_state
 125              		.loc 1 201 0
 126 006c 0121     		movs	r1, #1
 127 006e 4FF48020 		mov	r0, #262144
 128              	.LVL10:
 129 0072 FFF7FEFF 		bl	RCC_APB1PeriphResetCmd
 130              	.LVL11:
 131              		.loc 1 202 0
 132 0076 0021     		movs	r1, #0
 133 0078 4FF48020 		mov	r0, #262144
 134              		.loc 1 222 0
 135 007c BDE80840 		pop	{r3, lr}
 136              		.cfi_remember_state
 137              		.cfi_restore 14
 138              		.cfi_restore 3
 139              		.cfi_def_cfa_offset 0
 140              		.loc 1 202 0
 141 0080 FFF7FEBF 		b	RCC_APB1PeriphResetCmd
 142              	.LVL12:
 143              	.L13:
 144              		.cfi_restore_state
 145              		.loc 1 206 0
 146 0084 0121     		movs	r1, #1
 147 0086 4FF40020 		mov	r0, #524288
 148              	.LVL13:
 149 008a FFF7FEFF 		bl	RCC_APB1PeriphResetCmd
 150              	.LVL14:
 151              		.loc 1 207 0
 152 008e 0021     		movs	r1, #0
 153 0090 4FF40020 		mov	r0, #524288
 154              		.loc 1 222 0
 155 0094 BDE80840 		pop	{r3, lr}
 156              		.cfi_remember_state
 157              		.cfi_restore 14
 158              		.cfi_restore 3
 159              		.cfi_def_cfa_offset 0
 160              		.loc 1 207 0
 161 0098 FFF7FEBF 		b	RCC_APB1PeriphResetCmd
 162              	.LVL15:
 163              	.L15:
 164              		.cfi_restore_state
 165              		.loc 1 218 0
 166 009c 0121     		movs	r1, #1
 167 009e 2020     		movs	r0, #32
 168              	.LVL16:
 169 00a0 FFF7FEFF 		bl	RCC_APB2PeriphResetCmd
 170              	.LVL17:
 171              		.loc 1 219 0
ARM GAS  /tmp/cc7Xux4D.s 			page 4


 172 00a4 0021     		movs	r1, #0
 173 00a6 2020     		movs	r0, #32
 174              		.loc 1 222 0
 175 00a8 BDE80840 		pop	{r3, lr}
 176              		.cfi_restore 14
 177              		.cfi_restore 3
 178              		.cfi_def_cfa_offset 0
 179              		.loc 1 219 0
 180 00ac FFF7FEBF 		b	RCC_APB2PeriphResetCmd
 181              	.LVL18:
 182              	.L17:
 183              		.align	2
 184              	.L16:
 185 00b0 00100140 		.word	1073811456
 186 00b4 00440040 		.word	1073759232
 187 00b8 00480040 		.word	1073760256
 188 00bc 004C0040 		.word	1073761280
 189 00c0 00500040 		.word	1073762304
 190 00c4 00140140 		.word	1073812480
 191              		.cfi_endproc
 192              	.LFE111:
 193              		.size	USART_DeInit, .-USART_DeInit
 194              		.section	.text.USART_Init,"ax",%progbits
 195              		.align	1
 196              		.p2align 4,,15
 197              		.global	USART_Init
 198              		.syntax unified
 199              		.thumb
 200              		.thumb_func
 201              		.fpu fpv4-sp-d16
 202              		.type	USART_Init, %function
 203              	USART_Init:
 204              	.LFB112:
 205              		.loc 1 234 0
 206              		.cfi_startproc
 207              		@ args = 0, pretend = 0, frame = 16
 208              		@ frame_needed = 0, uses_anonymous_args = 0
 209              	.LVL19:
 210              		.loc 1 256 0
 211 0000 028A     		ldrh	r2, [r0, #16]
 212              		.loc 1 234 0
 213 0002 F0B5     		push	{r4, r5, r6, r7, lr}
 214              		.cfi_def_cfa_offset 20
 215              		.cfi_offset 4, -20
 216              		.cfi_offset 5, -16
 217              		.cfi_offset 6, -12
 218              		.cfi_offset 7, -8
 219              		.cfi_offset 14, -4
 220              		.loc 1 256 0
 221 0004 92B2     		uxth	r2, r2
 222              	.LVL20:
 223              		.loc 1 234 0
 224 0006 0446     		mov	r4, r0
 225              		.loc 1 263 0
 226 0008 C888     		ldrh	r0, [r1, #6]
 227              	.LVL21:
 228              		.loc 1 234 0
ARM GAS  /tmp/cc7Xux4D.s 			page 5


 229 000a 0D46     		mov	r5, r1
 230              		.loc 1 259 0
 231 000c 22F44052 		bic	r2, r2, #12288
 232              	.LVL22:
 233              		.loc 1 266 0
 234 0010 0243     		orrs	r2, r2, r0
 235              	.LVL23:
 236              		.loc 1 250 0
 237 0012 8989     		ldrh	r1, [r1, #12]
 238              	.LVL24:
 239              		.loc 1 278 0
 240 0014 AB88     		ldrh	r3, [r5, #4]
 241 0016 2F89     		ldrh	r7, [r5, #8]
 242              		.loc 1 266 0
 243 0018 2282     		strh	r2, [r4, #16]	@ movhi
 244              		.loc 1 269 0
 245 001a A689     		ldrh	r6, [r4, #12]
 246              	.LVL25:
 247              		.loc 1 278 0
 248 001c 6889     		ldrh	r0, [r5, #10]
 249              		.loc 1 272 0
 250 001e 254A     		ldr	r2, .L28
 251              		.loc 1 278 0
 252 0020 3B43     		orrs	r3, r3, r7
 253              		.loc 1 272 0
 254 0022 3240     		ands	r2, r2, r6
 255              	.LVL26:
 256              		.loc 1 278 0
 257 0024 0343     		orrs	r3, r3, r0
 258              		.loc 1 282 0
 259 0026 1343     		orrs	r3, r3, r2
 260 0028 A381     		strh	r3, [r4, #12]	@ movhi
 261              		.loc 1 285 0
 262 002a A38A     		ldrh	r3, [r4, #20]
 263 002c 9BB2     		uxth	r3, r3
 264              	.LVL27:
 265              		.loc 1 288 0
 266 002e 23F44073 		bic	r3, r3, #768
 267              	.LVL28:
 268              		.loc 1 295 0
 269 0032 0B43     		orrs	r3, r3, r1
 270              	.LVL29:
 271              		.loc 1 234 0
 272 0034 85B0     		sub	sp, sp, #20
 273              		.cfi_def_cfa_offset 40
 274              		.loc 1 295 0
 275 0036 A382     		strh	r3, [r4, #20]	@ movhi
 276              		.loc 1 299 0
 277 0038 6846     		mov	r0, sp
 278 003a FFF7FEFF 		bl	RCC_GetClocksFreq
 279              	.LVL30:
 280              		.loc 1 301 0
 281 003e 1E4B     		ldr	r3, .L28+4
 282 0040 9C42     		cmp	r4, r3
 283 0042 05D0     		beq	.L19
 284              		.loc 1 301 0 is_stmt 0 discriminator 1
 285 0044 03F58063 		add	r3, r3, #1024
ARM GAS  /tmp/cc7Xux4D.s 			page 6


 286 0048 9C42     		cmp	r4, r3
 287 004a 01D0     		beq	.L19
 288              		.loc 1 307 0 is_stmt 1
 289 004c 029B     		ldr	r3, [sp, #8]
 290              	.LVL31:
 291 004e 00E0     		b	.L21
 292              	.LVL32:
 293              	.L19:
 294              		.loc 1 303 0
 295 0050 039B     		ldr	r3, [sp, #12]
 296              	.LVL33:
 297              	.L21:
 298              		.loc 1 311 0
 299 0052 A289     		ldrh	r2, [r4, #12]
 300 0054 2968     		ldr	r1, [r5]
 301              		.loc 1 321 0
 302 0056 194D     		ldr	r5, .L28+8
 303              	.LVL34:
 304              		.loc 1 311 0
 305 0058 1004     		lsls	r0, r2, #16
 306 005a 03EB8303 		add	r3, r3, r3, lsl #2
 307              	.LVL35:
 308              		.loc 1 327 0
 309 005e A289     		ldrh	r2, [r4, #12]
 310 0060 03EB8303 		add	r3, r3, r3, lsl #2
 311              		.loc 1 314 0
 312 0064 4CBF     		ite	mi
 313 0066 4900     		lslmi	r1, r1, #1
 314              		.loc 1 319 0
 315 0068 8900     		lslpl	r1, r1, #2
 316 006a B3FBF1F1 		udiv	r1, r3, r1
 317              	.LVL36:
 318              		.loc 1 321 0
 319 006e A5FB0130 		umull	r3, r0, r5, r1
 320 0072 4009     		lsrs	r0, r0, #5
 321 0074 6423     		movs	r3, #100
 322              		.loc 1 327 0
 323 0076 1204     		lsls	r2, r2, #16
 324 0078 03FB1013 		mls	r3, r3, r0, r1
 325              		.loc 1 321 0
 326 007c 4FEA0010 		lsl	r0, r0, #4
 327              	.LVL37:
 328              		.loc 1 327 0
 329 0080 0AD4     		bmi	.L27
 330              		.loc 1 333 0
 331 0082 1B01     		lsls	r3, r3, #4
 332              	.LVL38:
 333 0084 3233     		adds	r3, r3, #50
 334 0086 A5FB0323 		umull	r2, r3, r5, r3
 335 008a C3F34313 		ubfx	r3, r3, #5, #4
 336 008e 0343     		orrs	r3, r3, r0
 337              	.LVL39:
 338              		.loc 1 337 0
 339 0090 9BB2     		uxth	r3, r3
 340              	.LVL40:
 341 0092 2381     		strh	r3, [r4, #8]	@ movhi
 342              		.loc 1 338 0
ARM GAS  /tmp/cc7Xux4D.s 			page 7


 343 0094 05B0     		add	sp, sp, #20
 344              		.cfi_remember_state
 345              		.cfi_def_cfa_offset 20
 346              		@ sp needed
 347 0096 F0BD     		pop	{r4, r5, r6, r7, pc}
 348              	.LVL41:
 349              	.L27:
 350              		.cfi_restore_state
 351              		.loc 1 329 0
 352 0098 DB00     		lsls	r3, r3, #3
 353              	.LVL42:
 354 009a 03F13202 		add	r2, r3, #50
 355 009e A5FB0223 		umull	r2, r3, r5, r2
 356 00a2 C3F34212 		ubfx	r2, r3, #5, #3
 357 00a6 42EA0003 		orr	r3, r2, r0
 358              	.LVL43:
 359              		.loc 1 337 0
 360 00aa 9BB2     		uxth	r3, r3
 361              	.LVL44:
 362 00ac 2381     		strh	r3, [r4, #8]	@ movhi
 363              		.loc 1 338 0
 364 00ae 05B0     		add	sp, sp, #20
 365              		.cfi_def_cfa_offset 20
 366              		@ sp needed
 367 00b0 F0BD     		pop	{r4, r5, r6, r7, pc}
 368              	.LVL45:
 369              	.L29:
 370 00b2 00BF     		.align	2
 371              	.L28:
 372 00b4 F3E9FFFF 		.word	-5645
 373 00b8 00100140 		.word	1073811456
 374 00bc 1F85EB51 		.word	1374389535
 375              		.cfi_endproc
 376              	.LFE112:
 377              		.size	USART_Init, .-USART_Init
 378              		.section	.text.USART_StructInit,"ax",%progbits
 379              		.align	1
 380              		.p2align 4,,15
 381              		.global	USART_StructInit
 382              		.syntax unified
 383              		.thumb
 384              		.thumb_func
 385              		.fpu fpv4-sp-d16
 386              		.type	USART_StructInit, %function
 387              	USART_StructInit:
 388              	.LFB113:
 389              		.loc 1 347 0
 390              		.cfi_startproc
 391              		@ args = 0, pretend = 0, frame = 0
 392              		@ frame_needed = 0, uses_anonymous_args = 0
 393              		@ link register save eliminated.
 394              	.LVL46:
 395              		.loc 1 349 0
 396 0000 0023     		movs	r3, #0
 397 0002 4FF41651 		mov	r1, #9600
 398              		.loc 1 351 0
 399 0006 4FF44022 		mov	r2, #786432
ARM GAS  /tmp/cc7Xux4D.s 			page 8


 400              		.loc 1 349 0
 401 000a 0160     		str	r1, [r0]
 402 000c C0E90132 		strd	r3, r2, [r0, #4]
 403              		.loc 1 353 0
 404 0010 8381     		strh	r3, [r0, #12]	@ movhi
 405              		.loc 1 355 0
 406 0012 7047     		bx	lr
 407              		.cfi_endproc
 408              	.LFE113:
 409              		.size	USART_StructInit, .-USART_StructInit
 410              		.section	.text.USART_ClockInit,"ax",%progbits
 411              		.align	1
 412              		.p2align 4,,15
 413              		.global	USART_ClockInit
 414              		.syntax unified
 415              		.thumb
 416              		.thumb_func
 417              		.fpu fpv4-sp-d16
 418              		.type	USART_ClockInit, %function
 419              	USART_ClockInit:
 420              	.LFB114:
 421              		.loc 1 367 0
 422              		.cfi_startproc
 423              		@ args = 0, pretend = 0, frame = 0
 424              		@ frame_needed = 0, uses_anonymous_args = 0
 425              		@ link register save eliminated.
 426              	.LVL47:
 427 0000 30B4     		push	{r4, r5}
 428              		.cfi_def_cfa_offset 8
 429              		.cfi_offset 4, -8
 430              		.cfi_offset 5, -4
 431              		.loc 1 386 0
 432 0002 0B88     		ldrh	r3, [r1]
 433 0004 4D88     		ldrh	r5, [r1, #2]
 434 0006 8C88     		ldrh	r4, [r1, #4]
 435              		.loc 1 377 0
 436 0008 028A     		ldrh	r2, [r0, #16]
 437              		.loc 1 386 0
 438 000a C988     		ldrh	r1, [r1, #6]
 439              	.LVL48:
 440 000c 2B43     		orrs	r3, r3, r5
 441 000e 2343     		orrs	r3, r3, r4
 442              		.loc 1 377 0
 443 0010 92B2     		uxth	r2, r2
 444              	.LVL49:
 445              		.loc 1 386 0
 446 0012 0B43     		orrs	r3, r3, r1
 447              		.loc 1 379 0
 448 0014 22F47062 		bic	r2, r2, #3840
 449              	.LVL50:
 450              		.loc 1 388 0
 451 0018 1343     		orrs	r3, r3, r2
 452 001a 0382     		strh	r3, [r0, #16]	@ movhi
 453              		.loc 1 389 0
 454 001c 30BC     		pop	{r4, r5}
 455              		.cfi_restore 5
 456              		.cfi_restore 4
ARM GAS  /tmp/cc7Xux4D.s 			page 9


 457              		.cfi_def_cfa_offset 0
 458 001e 7047     		bx	lr
 459              		.cfi_endproc
 460              	.LFE114:
 461              		.size	USART_ClockInit, .-USART_ClockInit
 462              		.section	.text.USART_ClockStructInit,"ax",%progbits
 463              		.align	1
 464              		.p2align 4,,15
 465              		.global	USART_ClockStructInit
 466              		.syntax unified
 467              		.thumb
 468              		.thumb_func
 469              		.fpu fpv4-sp-d16
 470              		.type	USART_ClockStructInit, %function
 471              	USART_ClockStructInit:
 472              	.LFB115:
 473              		.loc 1 398 0
 474              		.cfi_startproc
 475              		@ args = 0, pretend = 0, frame = 0
 476              		@ frame_needed = 0, uses_anonymous_args = 0
 477              		@ link register save eliminated.
 478              	.LVL51:
 479              		.loc 1 400 0
 480 0000 0023     		movs	r3, #0
 481 0002 0380     		strh	r3, [r0]	@ movhi
 482              		.loc 1 401 0
 483 0004 4380     		strh	r3, [r0, #2]	@ movhi
 484              		.loc 1 402 0
 485 0006 8380     		strh	r3, [r0, #4]	@ movhi
 486              		.loc 1 403 0
 487 0008 C380     		strh	r3, [r0, #6]	@ movhi
 488              		.loc 1 404 0
 489 000a 7047     		bx	lr
 490              		.cfi_endproc
 491              	.LFE115:
 492              		.size	USART_ClockStructInit, .-USART_ClockStructInit
 493              		.section	.text.USART_Cmd,"ax",%progbits
 494              		.align	1
 495              		.p2align 4,,15
 496              		.global	USART_Cmd
 497              		.syntax unified
 498              		.thumb
 499              		.thumb_func
 500              		.fpu fpv4-sp-d16
 501              		.type	USART_Cmd, %function
 502              	USART_Cmd:
 503              	.LFB116:
 504              		.loc 1 415 0
 505              		.cfi_startproc
 506              		@ args = 0, pretend = 0, frame = 0
 507              		@ frame_needed = 0, uses_anonymous_args = 0
 508              		@ link register save eliminated.
 509              	.LVL52:
 510              		.loc 1 423 0
 511 0000 8389     		ldrh	r3, [r0, #12]
 512              		.loc 1 420 0
 513 0002 29B9     		cbnz	r1, .L37
ARM GAS  /tmp/cc7Xux4D.s 			page 10


 514              		.loc 1 428 0
 515 0004 23F40053 		bic	r3, r3, #8192
 516 0008 1B04     		lsls	r3, r3, #16
 517 000a 1B0C     		lsrs	r3, r3, #16
 518 000c 8381     		strh	r3, [r0, #12]	@ movhi
 519              		.loc 1 430 0
 520 000e 7047     		bx	lr
 521              	.L37:
 522              		.loc 1 423 0
 523 0010 43F40053 		orr	r3, r3, #8192
 524 0014 8381     		strh	r3, [r0, #12]	@ movhi
 525 0016 7047     		bx	lr
 526              		.cfi_endproc
 527              	.LFE116:
 528              		.size	USART_Cmd, .-USART_Cmd
 529              		.section	.text.USART_SetPrescaler,"ax",%progbits
 530              		.align	1
 531              		.p2align 4,,15
 532              		.global	USART_SetPrescaler
 533              		.syntax unified
 534              		.thumb
 535              		.thumb_func
 536              		.fpu fpv4-sp-d16
 537              		.type	USART_SetPrescaler, %function
 538              	USART_SetPrescaler:
 539              	.LFB117:
 540              		.loc 1 441 0
 541              		.cfi_startproc
 542              		@ args = 0, pretend = 0, frame = 0
 543              		@ frame_needed = 0, uses_anonymous_args = 0
 544              		@ link register save eliminated.
 545              	.LVL53:
 546              		.loc 1 446 0
 547 0000 038B     		ldrh	r3, [r0, #24]
 548 0002 03F47F43 		and	r3, r3, #65280
 549 0006 0383     		strh	r3, [r0, #24]	@ movhi
 550              		.loc 1 448 0
 551 0008 038B     		ldrh	r3, [r0, #24]
 552 000a 1943     		orrs	r1, r1, r3
 553              	.LVL54:
 554 000c 0183     		strh	r1, [r0, #24]	@ movhi
 555              		.loc 1 449 0
 556 000e 7047     		bx	lr
 557              		.cfi_endproc
 558              	.LFE117:
 559              		.size	USART_SetPrescaler, .-USART_SetPrescaler
 560              		.section	.text.USART_OverSampling8Cmd,"ax",%progbits
 561              		.align	1
 562              		.p2align 4,,15
 563              		.global	USART_OverSampling8Cmd
 564              		.syntax unified
 565              		.thumb
 566              		.thumb_func
 567              		.fpu fpv4-sp-d16
 568              		.type	USART_OverSampling8Cmd, %function
 569              	USART_OverSampling8Cmd:
 570              	.LFB118:
ARM GAS  /tmp/cc7Xux4D.s 			page 11


 571              		.loc 1 462 0
 572              		.cfi_startproc
 573              		@ args = 0, pretend = 0, frame = 0
 574              		@ frame_needed = 0, uses_anonymous_args = 0
 575              		@ link register save eliminated.
 576              	.LVL55:
 577              		.loc 1 470 0
 578 0000 8389     		ldrh	r3, [r0, #12]
 579              		.loc 1 467 0
 580 0002 19B9     		cbnz	r1, .L42
 581              		.loc 1 475 0
 582 0004 C3F30E03 		ubfx	r3, r3, #0, #15
 583 0008 8381     		strh	r3, [r0, #12]	@ movhi
 584              		.loc 1 477 0
 585 000a 7047     		bx	lr
 586              	.L42:
 587              		.loc 1 470 0
 588 000c 43F40043 		orr	r3, r3, #32768
 589 0010 8381     		strh	r3, [r0, #12]	@ movhi
 590 0012 7047     		bx	lr
 591              		.cfi_endproc
 592              	.LFE118:
 593              		.size	USART_OverSampling8Cmd, .-USART_OverSampling8Cmd
 594              		.section	.text.USART_OneBitMethodCmd,"ax",%progbits
 595              		.align	1
 596              		.p2align 4,,15
 597              		.global	USART_OneBitMethodCmd
 598              		.syntax unified
 599              		.thumb
 600              		.thumb_func
 601              		.fpu fpv4-sp-d16
 602              		.type	USART_OneBitMethodCmd, %function
 603              	USART_OneBitMethodCmd:
 604              	.LFB119:
 605              		.loc 1 488 0
 606              		.cfi_startproc
 607              		@ args = 0, pretend = 0, frame = 0
 608              		@ frame_needed = 0, uses_anonymous_args = 0
 609              		@ link register save eliminated.
 610              	.LVL56:
 611              		.loc 1 496 0
 612 0000 838A     		ldrh	r3, [r0, #20]
 613              		.loc 1 493 0
 614 0002 29B9     		cbnz	r1, .L46
 615              		.loc 1 501 0
 616 0004 23F40063 		bic	r3, r3, #2048
 617 0008 1B04     		lsls	r3, r3, #16
 618 000a 1B0C     		lsrs	r3, r3, #16
 619 000c 8382     		strh	r3, [r0, #20]	@ movhi
 620              		.loc 1 503 0
 621 000e 7047     		bx	lr
 622              	.L46:
 623              		.loc 1 496 0
 624 0010 43F40063 		orr	r3, r3, #2048
 625 0014 8382     		strh	r3, [r0, #20]	@ movhi
 626 0016 7047     		bx	lr
 627              		.cfi_endproc
ARM GAS  /tmp/cc7Xux4D.s 			page 12


 628              	.LFE119:
 629              		.size	USART_OneBitMethodCmd, .-USART_OneBitMethodCmd
 630              		.section	.text.USART_SendData,"ax",%progbits
 631              		.align	1
 632              		.p2align 4,,15
 633              		.global	USART_SendData
 634              		.syntax unified
 635              		.thumb
 636              		.thumb_func
 637              		.fpu fpv4-sp-d16
 638              		.type	USART_SendData, %function
 639              	USART_SendData:
 640              	.LFB120:
 641              		.loc 1 545 0
 642              		.cfi_startproc
 643              		@ args = 0, pretend = 0, frame = 0
 644              		@ frame_needed = 0, uses_anonymous_args = 0
 645              		@ link register save eliminated.
 646              	.LVL57:
 647              		.loc 1 551 0
 648 0000 C1F30801 		ubfx	r1, r1, #0, #9
 649              	.LVL58:
 650 0004 8180     		strh	r1, [r0, #4]	@ movhi
 651              		.loc 1 552 0
 652 0006 7047     		bx	lr
 653              		.cfi_endproc
 654              	.LFE120:
 655              		.size	USART_SendData, .-USART_SendData
 656              		.section	.text.USART_ReceiveData,"ax",%progbits
 657              		.align	1
 658              		.p2align 4,,15
 659              		.global	USART_ReceiveData
 660              		.syntax unified
 661              		.thumb
 662              		.thumb_func
 663              		.fpu fpv4-sp-d16
 664              		.type	USART_ReceiveData, %function
 665              	USART_ReceiveData:
 666              	.LFB121:
 667              		.loc 1 561 0
 668              		.cfi_startproc
 669              		@ args = 0, pretend = 0, frame = 0
 670              		@ frame_needed = 0, uses_anonymous_args = 0
 671              		@ link register save eliminated.
 672              	.LVL59:
 673              		.loc 1 566 0
 674 0000 8088     		ldrh	r0, [r0, #4]
 675              	.LVL60:
 676              		.loc 1 567 0
 677 0002 C0F30800 		ubfx	r0, r0, #0, #9
 678 0006 7047     		bx	lr
 679              		.cfi_endproc
 680              	.LFE121:
 681              		.size	USART_ReceiveData, .-USART_ReceiveData
 682              		.section	.text.USART_SetAddress,"ax",%progbits
 683              		.align	1
 684              		.p2align 4,,15
ARM GAS  /tmp/cc7Xux4D.s 			page 13


 685              		.global	USART_SetAddress
 686              		.syntax unified
 687              		.thumb
 688              		.thumb_func
 689              		.fpu fpv4-sp-d16
 690              		.type	USART_SetAddress, %function
 691              	USART_SetAddress:
 692              	.LFB122:
 693              		.loc 1 612 0
 694              		.cfi_startproc
 695              		@ args = 0, pretend = 0, frame = 0
 696              		@ frame_needed = 0, uses_anonymous_args = 0
 697              		@ link register save eliminated.
 698              	.LVL61:
 699              		.loc 1 618 0
 700 0000 038A     		ldrh	r3, [r0, #16]
 701 0002 23F00F03 		bic	r3, r3, #15
 702 0006 1B04     		lsls	r3, r3, #16
 703 0008 1B0C     		lsrs	r3, r3, #16
 704 000a 0382     		strh	r3, [r0, #16]	@ movhi
 705              		.loc 1 620 0
 706 000c 038A     		ldrh	r3, [r0, #16]
 707 000e 1943     		orrs	r1, r1, r3
 708              	.LVL62:
 709 0010 0182     		strh	r1, [r0, #16]	@ movhi
 710              		.loc 1 621 0
 711 0012 7047     		bx	lr
 712              		.cfi_endproc
 713              	.LFE122:
 714              		.size	USART_SetAddress, .-USART_SetAddress
 715              		.section	.text.USART_ReceiverWakeUpCmd,"ax",%progbits
 716              		.align	1
 717              		.p2align 4,,15
 718              		.global	USART_ReceiverWakeUpCmd
 719              		.syntax unified
 720              		.thumb
 721              		.thumb_func
 722              		.fpu fpv4-sp-d16
 723              		.type	USART_ReceiverWakeUpCmd, %function
 724              	USART_ReceiverWakeUpCmd:
 725              	.LFB123:
 726              		.loc 1 632 0
 727              		.cfi_startproc
 728              		@ args = 0, pretend = 0, frame = 0
 729              		@ frame_needed = 0, uses_anonymous_args = 0
 730              		@ link register save eliminated.
 731              	.LVL63:
 732              		.loc 1 640 0
 733 0000 8389     		ldrh	r3, [r0, #12]
 734              		.loc 1 637 0
 735 0002 29B9     		cbnz	r1, .L53
 736              		.loc 1 645 0
 737 0004 23F00203 		bic	r3, r3, #2
 738 0008 1B04     		lsls	r3, r3, #16
 739 000a 1B0C     		lsrs	r3, r3, #16
 740 000c 8381     		strh	r3, [r0, #12]	@ movhi
 741              		.loc 1 647 0
ARM GAS  /tmp/cc7Xux4D.s 			page 14


 742 000e 7047     		bx	lr
 743              	.L53:
 744              		.loc 1 640 0
 745 0010 43F00203 		orr	r3, r3, #2
 746 0014 8381     		strh	r3, [r0, #12]	@ movhi
 747 0016 7047     		bx	lr
 748              		.cfi_endproc
 749              	.LFE123:
 750              		.size	USART_ReceiverWakeUpCmd, .-USART_ReceiverWakeUpCmd
 751              		.section	.text.USART_WakeUpConfig,"ax",%progbits
 752              		.align	1
 753              		.p2align 4,,15
 754              		.global	USART_WakeUpConfig
 755              		.syntax unified
 756              		.thumb
 757              		.thumb_func
 758              		.fpu fpv4-sp-d16
 759              		.type	USART_WakeUpConfig, %function
 760              	USART_WakeUpConfig:
 761              	.LFB124:
 762              		.loc 1 659 0
 763              		.cfi_startproc
 764              		@ args = 0, pretend = 0, frame = 0
 765              		@ frame_needed = 0, uses_anonymous_args = 0
 766              		@ link register save eliminated.
 767              	.LVL64:
 768              		.loc 1 664 0
 769 0000 8389     		ldrh	r3, [r0, #12]
 770 0002 23F40063 		bic	r3, r3, #2048
 771 0006 1B04     		lsls	r3, r3, #16
 772 0008 1B0C     		lsrs	r3, r3, #16
 773 000a 8381     		strh	r3, [r0, #12]	@ movhi
 774              		.loc 1 665 0
 775 000c 8389     		ldrh	r3, [r0, #12]
 776 000e 1943     		orrs	r1, r1, r3
 777              	.LVL65:
 778 0010 8181     		strh	r1, [r0, #12]	@ movhi
 779              		.loc 1 666 0
 780 0012 7047     		bx	lr
 781              		.cfi_endproc
 782              	.LFE124:
 783              		.size	USART_WakeUpConfig, .-USART_WakeUpConfig
 784              		.section	.text.USART_LINBreakDetectLengthConfig,"ax",%progbits
 785              		.align	1
 786              		.p2align 4,,15
 787              		.global	USART_LINBreakDetectLengthConfig
 788              		.syntax unified
 789              		.thumb
 790              		.thumb_func
 791              		.fpu fpv4-sp-d16
 792              		.type	USART_LINBreakDetectLengthConfig, %function
 793              	USART_LINBreakDetectLengthConfig:
 794              	.LFB125:
 795              		.loc 1 728 0
 796              		.cfi_startproc
 797              		@ args = 0, pretend = 0, frame = 0
 798              		@ frame_needed = 0, uses_anonymous_args = 0
ARM GAS  /tmp/cc7Xux4D.s 			page 15


 799              		@ link register save eliminated.
 800              	.LVL66:
 801              		.loc 1 733 0
 802 0000 038A     		ldrh	r3, [r0, #16]
 803 0002 23F02003 		bic	r3, r3, #32
 804 0006 1B04     		lsls	r3, r3, #16
 805 0008 1B0C     		lsrs	r3, r3, #16
 806 000a 0382     		strh	r3, [r0, #16]	@ movhi
 807              		.loc 1 734 0
 808 000c 038A     		ldrh	r3, [r0, #16]
 809 000e 1943     		orrs	r1, r1, r3
 810              	.LVL67:
 811 0010 0182     		strh	r1, [r0, #16]	@ movhi
 812              		.loc 1 735 0
 813 0012 7047     		bx	lr
 814              		.cfi_endproc
 815              	.LFE125:
 816              		.size	USART_LINBreakDetectLengthConfig, .-USART_LINBreakDetectLengthConfig
 817              		.section	.text.USART_LINCmd,"ax",%progbits
 818              		.align	1
 819              		.p2align 4,,15
 820              		.global	USART_LINCmd
 821              		.syntax unified
 822              		.thumb
 823              		.thumb_func
 824              		.fpu fpv4-sp-d16
 825              		.type	USART_LINCmd, %function
 826              	USART_LINCmd:
 827              	.LFB126:
 828              		.loc 1 746 0
 829              		.cfi_startproc
 830              		@ args = 0, pretend = 0, frame = 0
 831              		@ frame_needed = 0, uses_anonymous_args = 0
 832              		@ link register save eliminated.
 833              	.LVL68:
 834              		.loc 1 754 0
 835 0000 038A     		ldrh	r3, [r0, #16]
 836              		.loc 1 751 0
 837 0002 29B9     		cbnz	r1, .L59
 838              		.loc 1 759 0
 839 0004 23F48043 		bic	r3, r3, #16384
 840 0008 1B04     		lsls	r3, r3, #16
 841 000a 1B0C     		lsrs	r3, r3, #16
 842 000c 0382     		strh	r3, [r0, #16]	@ movhi
 843              		.loc 1 761 0
 844 000e 7047     		bx	lr
 845              	.L59:
 846              		.loc 1 754 0
 847 0010 43F48043 		orr	r3, r3, #16384
 848 0014 0382     		strh	r3, [r0, #16]	@ movhi
 849 0016 7047     		bx	lr
 850              		.cfi_endproc
 851              	.LFE126:
 852              		.size	USART_LINCmd, .-USART_LINCmd
 853              		.section	.text.USART_SendBreak,"ax",%progbits
 854              		.align	1
 855              		.p2align 4,,15
ARM GAS  /tmp/cc7Xux4D.s 			page 16


 856              		.global	USART_SendBreak
 857              		.syntax unified
 858              		.thumb
 859              		.thumb_func
 860              		.fpu fpv4-sp-d16
 861              		.type	USART_SendBreak, %function
 862              	USART_SendBreak:
 863              	.LFB127:
 864              		.loc 1 770 0
 865              		.cfi_startproc
 866              		@ args = 0, pretend = 0, frame = 0
 867              		@ frame_needed = 0, uses_anonymous_args = 0
 868              		@ link register save eliminated.
 869              	.LVL69:
 870              		.loc 1 775 0
 871 0000 8389     		ldrh	r3, [r0, #12]
 872 0002 43F00103 		orr	r3, r3, #1
 873 0006 8381     		strh	r3, [r0, #12]	@ movhi
 874              		.loc 1 776 0
 875 0008 7047     		bx	lr
 876              		.cfi_endproc
 877              	.LFE127:
 878              		.size	USART_SendBreak, .-USART_SendBreak
 879 000a 00BF     		.section	.text.USART_HalfDuplexCmd,"ax",%progbits
 880              		.align	1
 881              		.p2align 4,,15
 882              		.global	USART_HalfDuplexCmd
 883              		.syntax unified
 884              		.thumb
 885              		.thumb_func
 886              		.fpu fpv4-sp-d16
 887              		.type	USART_HalfDuplexCmd, %function
 888              	USART_HalfDuplexCmd:
 889              	.LFB128:
 890              		.loc 1 823 0
 891              		.cfi_startproc
 892              		@ args = 0, pretend = 0, frame = 0
 893              		@ frame_needed = 0, uses_anonymous_args = 0
 894              		@ link register save eliminated.
 895              	.LVL70:
 896              		.loc 1 831 0
 897 0000 838A     		ldrh	r3, [r0, #20]
 898              		.loc 1 828 0
 899 0002 29B9     		cbnz	r1, .L64
 900              		.loc 1 836 0
 901 0004 23F00803 		bic	r3, r3, #8
 902 0008 1B04     		lsls	r3, r3, #16
 903 000a 1B0C     		lsrs	r3, r3, #16
 904 000c 8382     		strh	r3, [r0, #20]	@ movhi
 905              		.loc 1 838 0
 906 000e 7047     		bx	lr
 907              	.L64:
 908              		.loc 1 831 0
 909 0010 43F00803 		orr	r3, r3, #8
 910 0014 8382     		strh	r3, [r0, #20]	@ movhi
 911 0016 7047     		bx	lr
 912              		.cfi_endproc
ARM GAS  /tmp/cc7Xux4D.s 			page 17


 913              	.LFE128:
 914              		.size	USART_HalfDuplexCmd, .-USART_HalfDuplexCmd
 915              		.section	.text.USART_SetGuardTime,"ax",%progbits
 916              		.align	1
 917              		.p2align 4,,15
 918              		.global	USART_SetGuardTime
 919              		.syntax unified
 920              		.thumb
 921              		.thumb_func
 922              		.fpu fpv4-sp-d16
 923              		.type	USART_SetGuardTime, %function
 924              	USART_SetGuardTime:
 925              	.LFB129:
 926              		.loc 1 908 0
 927              		.cfi_startproc
 928              		@ args = 0, pretend = 0, frame = 0
 929              		@ frame_needed = 0, uses_anonymous_args = 0
 930              		@ link register save eliminated.
 931              	.LVL71:
 932              		.loc 1 913 0
 933 0000 038B     		ldrh	r3, [r0, #24]
 934 0002 DBB2     		uxtb	r3, r3
 935 0004 0383     		strh	r3, [r0, #24]	@ movhi
 936              		.loc 1 915 0
 937 0006 038B     		ldrh	r3, [r0, #24]
 938 0008 43EA0121 		orr	r1, r3, r1, lsl #8
 939              	.LVL72:
 940 000c 0183     		strh	r1, [r0, #24]	@ movhi
 941              		.loc 1 916 0
 942 000e 7047     		bx	lr
 943              		.cfi_endproc
 944              	.LFE129:
 945              		.size	USART_SetGuardTime, .-USART_SetGuardTime
 946              		.section	.text.USART_SmartCardCmd,"ax",%progbits
 947              		.align	1
 948              		.p2align 4,,15
 949              		.global	USART_SmartCardCmd
 950              		.syntax unified
 951              		.thumb
 952              		.thumb_func
 953              		.fpu fpv4-sp-d16
 954              		.type	USART_SmartCardCmd, %function
 955              	USART_SmartCardCmd:
 956              	.LFB130:
 957              		.loc 1 927 0
 958              		.cfi_startproc
 959              		@ args = 0, pretend = 0, frame = 0
 960              		@ frame_needed = 0, uses_anonymous_args = 0
 961              		@ link register save eliminated.
 962              	.LVL73:
 963              		.loc 1 934 0
 964 0000 838A     		ldrh	r3, [r0, #20]
 965              		.loc 1 931 0
 966 0002 29B9     		cbnz	r1, .L69
 967              		.loc 1 939 0
 968 0004 23F02003 		bic	r3, r3, #32
 969 0008 1B04     		lsls	r3, r3, #16
ARM GAS  /tmp/cc7Xux4D.s 			page 18


 970 000a 1B0C     		lsrs	r3, r3, #16
 971 000c 8382     		strh	r3, [r0, #20]	@ movhi
 972              		.loc 1 941 0
 973 000e 7047     		bx	lr
 974              	.L69:
 975              		.loc 1 934 0
 976 0010 43F02003 		orr	r3, r3, #32
 977 0014 8382     		strh	r3, [r0, #20]	@ movhi
 978 0016 7047     		bx	lr
 979              		.cfi_endproc
 980              	.LFE130:
 981              		.size	USART_SmartCardCmd, .-USART_SmartCardCmd
 982              		.section	.text.USART_SmartCardNACKCmd,"ax",%progbits
 983              		.align	1
 984              		.p2align 4,,15
 985              		.global	USART_SmartCardNACKCmd
 986              		.syntax unified
 987              		.thumb
 988              		.thumb_func
 989              		.fpu fpv4-sp-d16
 990              		.type	USART_SmartCardNACKCmd, %function
 991              	USART_SmartCardNACKCmd:
 992              	.LFB131:
 993              		.loc 1 952 0
 994              		.cfi_startproc
 995              		@ args = 0, pretend = 0, frame = 0
 996              		@ frame_needed = 0, uses_anonymous_args = 0
 997              		@ link register save eliminated.
 998              	.LVL74:
 999              		.loc 1 959 0
 1000 0000 838A     		ldrh	r3, [r0, #20]
 1001              		.loc 1 956 0
 1002 0002 29B9     		cbnz	r1, .L73
 1003              		.loc 1 964 0
 1004 0004 23F01003 		bic	r3, r3, #16
 1005 0008 1B04     		lsls	r3, r3, #16
 1006 000a 1B0C     		lsrs	r3, r3, #16
 1007 000c 8382     		strh	r3, [r0, #20]	@ movhi
 1008              		.loc 1 966 0
 1009 000e 7047     		bx	lr
 1010              	.L73:
 1011              		.loc 1 959 0
 1012 0010 43F01003 		orr	r3, r3, #16
 1013 0014 8382     		strh	r3, [r0, #20]	@ movhi
 1014 0016 7047     		bx	lr
 1015              		.cfi_endproc
 1016              	.LFE131:
 1017              		.size	USART_SmartCardNACKCmd, .-USART_SmartCardNACKCmd
 1018              		.section	.text.USART_IrDAConfig,"ax",%progbits
 1019              		.align	1
 1020              		.p2align 4,,15
 1021              		.global	USART_IrDAConfig
 1022              		.syntax unified
 1023              		.thumb
 1024              		.thumb_func
 1025              		.fpu fpv4-sp-d16
 1026              		.type	USART_IrDAConfig, %function
ARM GAS  /tmp/cc7Xux4D.s 			page 19


 1027              	USART_IrDAConfig:
 1028              	.LFB132:
 1029              		.loc 1 1023 0
 1030              		.cfi_startproc
 1031              		@ args = 0, pretend = 0, frame = 0
 1032              		@ frame_needed = 0, uses_anonymous_args = 0
 1033              		@ link register save eliminated.
 1034              	.LVL75:
 1035              		.loc 1 1028 0
 1036 0000 838A     		ldrh	r3, [r0, #20]
 1037 0002 23F00403 		bic	r3, r3, #4
 1038 0006 1B04     		lsls	r3, r3, #16
 1039 0008 1B0C     		lsrs	r3, r3, #16
 1040 000a 8382     		strh	r3, [r0, #20]	@ movhi
 1041              		.loc 1 1029 0
 1042 000c 838A     		ldrh	r3, [r0, #20]
 1043 000e 1943     		orrs	r1, r1, r3
 1044              	.LVL76:
 1045 0010 8182     		strh	r1, [r0, #20]	@ movhi
 1046              		.loc 1 1030 0
 1047 0012 7047     		bx	lr
 1048              		.cfi_endproc
 1049              	.LFE132:
 1050              		.size	USART_IrDAConfig, .-USART_IrDAConfig
 1051              		.section	.text.USART_IrDACmd,"ax",%progbits
 1052              		.align	1
 1053              		.p2align 4,,15
 1054              		.global	USART_IrDACmd
 1055              		.syntax unified
 1056              		.thumb
 1057              		.thumb_func
 1058              		.fpu fpv4-sp-d16
 1059              		.type	USART_IrDACmd, %function
 1060              	USART_IrDACmd:
 1061              	.LFB133:
 1062              		.loc 1 1041 0
 1063              		.cfi_startproc
 1064              		@ args = 0, pretend = 0, frame = 0
 1065              		@ frame_needed = 0, uses_anonymous_args = 0
 1066              		@ link register save eliminated.
 1067              	.LVL77:
 1068              		.loc 1 1049 0
 1069 0000 838A     		ldrh	r3, [r0, #20]
 1070              		.loc 1 1046 0
 1071 0002 29B9     		cbnz	r1, .L78
 1072              		.loc 1 1054 0
 1073 0004 23F00203 		bic	r3, r3, #2
 1074 0008 1B04     		lsls	r3, r3, #16
 1075 000a 1B0C     		lsrs	r3, r3, #16
 1076 000c 8382     		strh	r3, [r0, #20]	@ movhi
 1077              		.loc 1 1056 0
 1078 000e 7047     		bx	lr
 1079              	.L78:
 1080              		.loc 1 1049 0
 1081 0010 43F00203 		orr	r3, r3, #2
 1082 0014 8382     		strh	r3, [r0, #20]	@ movhi
 1083 0016 7047     		bx	lr
ARM GAS  /tmp/cc7Xux4D.s 			page 20


 1084              		.cfi_endproc
 1085              	.LFE133:
 1086              		.size	USART_IrDACmd, .-USART_IrDACmd
 1087              		.section	.text.USART_DMACmd,"ax",%progbits
 1088              		.align	1
 1089              		.p2align 4,,15
 1090              		.global	USART_DMACmd
 1091              		.syntax unified
 1092              		.thumb
 1093              		.thumb_func
 1094              		.fpu fpv4-sp-d16
 1095              		.type	USART_DMACmd, %function
 1096              	USART_DMACmd:
 1097              	.LFB134:
 1098              		.loc 1 1087 0
 1099              		.cfi_startproc
 1100              		@ args = 0, pretend = 0, frame = 0
 1101              		@ frame_needed = 0, uses_anonymous_args = 0
 1102              		@ link register save eliminated.
 1103              	.LVL78:
 1104              		.loc 1 1097 0
 1105 0000 838A     		ldrh	r3, [r0, #20]
 1106              		.loc 1 1093 0
 1107 0002 1AB9     		cbnz	r2, .L82
 1108              		.loc 1 1103 0
 1109 0004 23EA0101 		bic	r1, r3, r1
 1110              	.LVL79:
 1111 0008 8182     		strh	r1, [r0, #20]	@ movhi
 1112              		.loc 1 1105 0
 1113 000a 7047     		bx	lr
 1114              	.LVL80:
 1115              	.L82:
 1116              		.loc 1 1097 0
 1117 000c 1943     		orrs	r1, r1, r3
 1118              	.LVL81:
 1119 000e 8182     		strh	r1, [r0, #20]	@ movhi
 1120 0010 7047     		bx	lr
 1121              		.cfi_endproc
 1122              	.LFE134:
 1123              		.size	USART_DMACmd, .-USART_DMACmd
 1124              		.section	.text.USART_ITConfig,"ax",%progbits
 1125              		.align	1
 1126              		.p2align 4,,15
 1127              		.global	USART_ITConfig
 1128              		.syntax unified
 1129              		.thumb
 1130              		.thumb_func
 1131              		.fpu fpv4-sp-d16
 1132              		.type	USART_ITConfig, %function
 1133              	USART_ITConfig:
 1134              	.LFB135:
 1135              		.loc 1 1215 0
 1136              		.cfi_startproc
 1137              		@ args = 0, pretend = 0, frame = 0
 1138              		@ frame_needed = 0, uses_anonymous_args = 0
 1139              		@ link register save eliminated.
 1140              	.LVL82:
ARM GAS  /tmp/cc7Xux4D.s 			page 21


 1141 0000 10B4     		push	{r4}
 1142              		.cfi_def_cfa_offset 4
 1143              		.cfi_offset 4, -4
 1144              		.loc 1 1235 0
 1145 0002 01F01F04 		and	r4, r1, #31
 1146              		.loc 1 1232 0
 1147 0006 C1F34211 		ubfx	r1, r1, #5, #3
 1148              	.LVL83:
 1149              		.loc 1 1236 0
 1150 000a 0123     		movs	r3, #1
 1151              	.LVL84:
 1152              		.loc 1 1238 0
 1153 000c 0129     		cmp	r1, #1
 1154              		.loc 1 1236 0
 1155 000e 03FA04F3 		lsl	r3, r3, r4
 1156              	.LVL85:
 1157              		.loc 1 1238 0
 1158 0012 11D0     		beq	.L90
 1159              		.loc 1 1242 0
 1160 0014 0229     		cmp	r1, #2
 1161              		.loc 1 1244 0
 1162 0016 0CBF     		ite	eq
 1163 0018 1030     		addeq	r0, r0, #16
 1164              	.LVL86:
 1165              		.loc 1 1248 0
 1166 001a 1430     		addne	r0, r0, #20
 1167              	.LVL87:
 1168              	.L85:
 1169              		.loc 1 1250 0
 1170 001c 32B9     		cbnz	r2, .L91
 1171              		.loc 1 1256 0
 1172 001e 0268     		ldr	r2, [r0]
 1173              	.LVL88:
 1174              		.loc 1 1258 0
 1175 0020 5DF8044B 		ldr	r4, [sp], #4
 1176              		.cfi_remember_state
 1177              		.cfi_restore 4
 1178              		.cfi_def_cfa_offset 0
 1179              		.loc 1 1256 0
 1180 0024 22EA0303 		bic	r3, r2, r3
 1181              	.LVL89:
 1182 0028 0360     		str	r3, [r0]
 1183              		.loc 1 1258 0
 1184 002a 7047     		bx	lr
 1185              	.LVL90:
 1186              	.L91:
 1187              		.cfi_restore_state
 1188              		.loc 1 1252 0
 1189 002c 0268     		ldr	r2, [r0]
 1190              	.LVL91:
 1191              		.loc 1 1258 0
 1192 002e 5DF8044B 		ldr	r4, [sp], #4
 1193              		.cfi_remember_state
 1194              		.cfi_restore 4
 1195              		.cfi_def_cfa_offset 0
 1196              		.loc 1 1252 0
 1197 0032 1343     		orrs	r3, r3, r2
ARM GAS  /tmp/cc7Xux4D.s 			page 22


 1198              	.LVL92:
 1199 0034 0360     		str	r3, [r0]
 1200              		.loc 1 1258 0
 1201 0036 7047     		bx	lr
 1202              	.LVL93:
 1203              	.L90:
 1204              		.cfi_restore_state
 1205              		.loc 1 1240 0
 1206 0038 0C30     		adds	r0, r0, #12
 1207              	.LVL94:
 1208 003a EFE7     		b	.L85
 1209              		.cfi_endproc
 1210              	.LFE135:
 1211              		.size	USART_ITConfig, .-USART_ITConfig
 1212              		.section	.text.USART_GetFlagStatus,"ax",%progbits
 1213              		.align	1
 1214              		.p2align 4,,15
 1215              		.global	USART_GetFlagStatus
 1216              		.syntax unified
 1217              		.thumb
 1218              		.thumb_func
 1219              		.fpu fpv4-sp-d16
 1220              		.type	USART_GetFlagStatus, %function
 1221              	USART_GetFlagStatus:
 1222              	.LFB136:
 1223              		.loc 1 1279 0
 1224              		.cfi_startproc
 1225              		@ args = 0, pretend = 0, frame = 0
 1226              		@ frame_needed = 0, uses_anonymous_args = 0
 1227              		@ link register save eliminated.
 1228              	.LVL95:
 1229              		.loc 1 1291 0
 1230 0000 0388     		ldrh	r3, [r0]
 1231              	.LVL96:
 1232 0002 1942     		tst	r1, r3
 1233              		.loc 1 1300 0
 1234 0004 14BF     		ite	ne
 1235 0006 0120     		movne	r0, #1
 1236              	.LVL97:
 1237 0008 0020     		moveq	r0, #0
 1238 000a 7047     		bx	lr
 1239              		.cfi_endproc
 1240              	.LFE136:
 1241              		.size	USART_GetFlagStatus, .-USART_GetFlagStatus
 1242              		.section	.text.USART_ClearFlag,"ax",%progbits
 1243              		.align	1
 1244              		.p2align 4,,15
 1245              		.global	USART_ClearFlag
 1246              		.syntax unified
 1247              		.thumb
 1248              		.thumb_func
 1249              		.fpu fpv4-sp-d16
 1250              		.type	USART_ClearFlag, %function
 1251              	USART_ClearFlag:
 1252              	.LFB137:
 1253              		.loc 1 1328 0
 1254              		.cfi_startproc
ARM GAS  /tmp/cc7Xux4D.s 			page 23


 1255              		@ args = 0, pretend = 0, frame = 0
 1256              		@ frame_needed = 0, uses_anonymous_args = 0
 1257              		@ link register save eliminated.
 1258              	.LVL98:
 1259              		.loc 1 1339 0
 1260 0000 C943     		mvns	r1, r1
 1261              	.LVL99:
 1262 0002 89B2     		uxth	r1, r1
 1263 0004 0180     		strh	r1, [r0]	@ movhi
 1264              		.loc 1 1340 0
 1265 0006 7047     		bx	lr
 1266              		.cfi_endproc
 1267              	.LFE137:
 1268              		.size	USART_ClearFlag, .-USART_ClearFlag
 1269              		.section	.text.USART_GetITStatus,"ax",%progbits
 1270              		.align	1
 1271              		.p2align 4,,15
 1272              		.global	USART_GetITStatus
 1273              		.syntax unified
 1274              		.thumb
 1275              		.thumb_func
 1276              		.fpu fpv4-sp-d16
 1277              		.type	USART_GetITStatus, %function
 1278              	USART_GetITStatus:
 1279              	.LFB138:
 1280              		.loc 1 1362 0
 1281              		.cfi_startproc
 1282              		@ args = 0, pretend = 0, frame = 0
 1283              		@ frame_needed = 0, uses_anonymous_args = 0
 1284              		@ link register save eliminated.
 1285              	.LVL100:
 1286              		.loc 1 1376 0
 1287 0000 C1F34212 		ubfx	r2, r1, #5, #3
 1288              	.LVL101:
 1289              		.loc 1 1362 0
 1290 0004 10B4     		push	{r4}
 1291              		.cfi_def_cfa_offset 4
 1292              		.cfi_offset 4, -4
 1293              		.loc 1 1379 0
 1294 0006 0123     		movs	r3, #1
 1295              		.loc 1 1378 0
 1296 0008 01F01F04 		and	r4, r1, #31
 1297              	.LVL102:
 1298              		.loc 1 1381 0
 1299 000c 012A     		cmp	r2, #1
 1300              		.loc 1 1379 0
 1301 000e 03FA04F3 		lsl	r3, r3, r4
 1302              	.LVL103:
 1303              		.loc 1 1381 0
 1304 0012 16D0     		beq	.L101
 1305              		.loc 1 1385 0
 1306 0014 022A     		cmp	r2, #2
 1307              		.loc 1 1387 0
 1308 0016 0CBF     		ite	eq
 1309 0018 028A     		ldrheq	r2, [r0, #16]
 1310              	.LVL104:
 1311              		.loc 1 1391 0
ARM GAS  /tmp/cc7Xux4D.s 			page 24


 1312 001a 828A     		ldrhne	r2, [r0, #20]
 1313 001c 1340     		ands	r3, r3, r2
 1314              	.LVL105:
 1315              	.L96:
 1316              		.loc 1 1396 0
 1317 001e 0288     		ldrh	r2, [r0]
 1318 0020 92B2     		uxth	r2, r2
 1319              	.LVL106:
 1320              		.loc 1 1397 0
 1321 0022 53B1     		cbz	r3, .L99
 1322              		.loc 1 1395 0 discriminator 1
 1323 0024 0123     		movs	r3, #1
 1324              	.LVL107:
 1325              		.loc 1 1394 0 discriminator 1
 1326 0026 090A     		lsrs	r1, r1, #8
 1327              	.LVL108:
 1328              		.loc 1 1395 0 discriminator 1
 1329 0028 03FA01F1 		lsl	r1, r3, r1
 1330              		.loc 1 1397 0 discriminator 1
 1331 002c 0A42     		tst	r2, r1
 1332              		.loc 1 1399 0 discriminator 1
 1333 002e 14BF     		ite	ne
 1334 0030 1846     		movne	r0, r3
 1335              	.LVL109:
 1336 0032 0020     		moveq	r0, #0
 1337              	.LVL110:
 1338              		.loc 1 1407 0 discriminator 1
 1339 0034 5DF8044B 		ldr	r4, [sp], #4
 1340              		.cfi_remember_state
 1341              		.cfi_restore 4
 1342              		.cfi_def_cfa_offset 0
 1343 0038 7047     		bx	lr
 1344              	.LVL111:
 1345              	.L99:
 1346              		.cfi_restore_state
 1347              		.loc 1 1403 0
 1348 003a 1846     		mov	r0, r3
 1349              	.LVL112:
 1350              		.loc 1 1407 0
 1351 003c 5DF8044B 		ldr	r4, [sp], #4
 1352              		.cfi_remember_state
 1353              		.cfi_restore 4
 1354              		.cfi_def_cfa_offset 0
 1355 0040 7047     		bx	lr
 1356              	.LVL113:
 1357              	.L101:
 1358              		.cfi_restore_state
 1359              		.loc 1 1383 0
 1360 0042 8289     		ldrh	r2, [r0, #12]
 1361              	.LVL114:
 1362 0044 1340     		ands	r3, r3, r2
 1363              	.LVL115:
 1364 0046 EAE7     		b	.L96
 1365              		.cfi_endproc
 1366              	.LFE138:
 1367              		.size	USART_GetITStatus, .-USART_GetITStatus
 1368              		.section	.text.USART_ClearITPendingBit,"ax",%progbits
ARM GAS  /tmp/cc7Xux4D.s 			page 25


 1369              		.align	1
 1370              		.p2align 4,,15
 1371              		.global	USART_ClearITPendingBit
 1372              		.syntax unified
 1373              		.thumb
 1374              		.thumb_func
 1375              		.fpu fpv4-sp-d16
 1376              		.type	USART_ClearITPendingBit, %function
 1377              	USART_ClearITPendingBit:
 1378              	.LFB139:
 1379              		.loc 1 1436 0
 1380              		.cfi_startproc
 1381              		@ args = 0, pretend = 0, frame = 0
 1382              		@ frame_needed = 0, uses_anonymous_args = 0
 1383              		@ link register save eliminated.
 1384              	.LVL116:
 1385              		.loc 1 1449 0
 1386 0000 090A     		lsrs	r1, r1, #8
 1387              	.LVL117:
 1388 0002 0123     		movs	r3, #1
 1389 0004 03FA01F1 		lsl	r1, r3, r1
 1390              		.loc 1 1450 0
 1391 0008 C943     		mvns	r1, r1
 1392 000a 89B2     		uxth	r1, r1
 1393 000c 0180     		strh	r1, [r0]	@ movhi
 1394              		.loc 1 1451 0
 1395 000e 7047     		bx	lr
 1396              		.cfi_endproc
 1397              	.LFE139:
 1398              		.size	USART_ClearITPendingBit, .-USART_ClearITPendingBit
 1399              		.text
 1400              	.Letext0:
 1401              		.file 2 "/usr/arm-none-eabi/include/machine/_default_types.h"
 1402              		.file 3 "/usr/arm-none-eabi/include/sys/_stdint.h"
 1403              		.file 4 "ChibiOS_2.6.6/os/hal/platforms/STM32F4xx/stm32f4xx.h"
 1404              		.file 5 "ChibiOS_2.6.6/ext/stdperiph_stm32f4/inc/stm32f4xx_rcc.h"
 1405              		.file 6 "ChibiOS_2.6.6/ext/stdperiph_stm32f4/inc/stm32f4xx_usart.h"
 1406              		.file 7 "ChibiOS_2.6.6/os/ports/common/ARMCMx/CMSIS/include/core_cm4.h"
 1407              		.section	.debug_info,"",%progbits
 1408              	.Ldebug_info0:
 1409 0000 280B0000 		.4byte	0xb28
 1410 0004 0400     		.2byte	0x4
 1411 0006 00000000 		.4byte	.Ldebug_abbrev0
 1412 000a 04       		.byte	0x4
 1413 000b 01       		.uleb128 0x1
 1414 000c 5A060000 		.4byte	.LASF106
 1415 0010 0C       		.byte	0xc
 1416 0011 FE050000 		.4byte	.LASF107
 1417 0015 56040000 		.4byte	.LASF108
 1418 0019 00000000 		.4byte	.Ldebug_ranges0+0
 1419 001d 00000000 		.4byte	0
 1420 0021 00000000 		.4byte	.Ldebug_line0
 1421 0025 02       		.uleb128 0x2
 1422 0026 08       		.byte	0x8
 1423 0027 07       		.byte	0x7
 1424 0028 C8020000 		.4byte	.LASF0
 1425 002c 02       		.uleb128 0x2
ARM GAS  /tmp/cc7Xux4D.s 			page 26


 1426 002d 04       		.byte	0x4
 1427 002e 07       		.byte	0x7
 1428 002f FB020000 		.4byte	.LASF1
 1429 0033 02       		.uleb128 0x2
 1430 0034 01       		.byte	0x1
 1431 0035 06       		.byte	0x6
 1432 0036 66010000 		.4byte	.LASF2
 1433 003a 03       		.uleb128 0x3
 1434 003b 27020000 		.4byte	.LASF5
 1435 003f 02       		.byte	0x2
 1436 0040 2B       		.byte	0x2b
 1437 0041 45000000 		.4byte	0x45
 1438 0045 02       		.uleb128 0x2
 1439 0046 01       		.byte	0x1
 1440 0047 08       		.byte	0x8
 1441 0048 8E020000 		.4byte	.LASF3
 1442 004c 02       		.uleb128 0x2
 1443 004d 02       		.byte	0x2
 1444 004e 05       		.byte	0x5
 1445 004f DF000000 		.4byte	.LASF4
 1446 0053 03       		.uleb128 0x3
 1447 0054 B7000000 		.4byte	.LASF6
 1448 0058 02       		.byte	0x2
 1449 0059 39       		.byte	0x39
 1450 005a 5E000000 		.4byte	0x5e
 1451 005e 02       		.uleb128 0x2
 1452 005f 02       		.byte	0x2
 1453 0060 07       		.byte	0x7
 1454 0061 FD030000 		.4byte	.LASF7
 1455 0065 03       		.uleb128 0x3
 1456 0066 3F050000 		.4byte	.LASF8
 1457 006a 02       		.byte	0x2
 1458 006b 4D       		.byte	0x4d
 1459 006c 70000000 		.4byte	0x70
 1460 0070 02       		.uleb128 0x2
 1461 0071 04       		.byte	0x4
 1462 0072 05       		.byte	0x5
 1463 0073 D5010000 		.4byte	.LASF9
 1464 0077 03       		.uleb128 0x3
 1465 0078 10050000 		.4byte	.LASF10
 1466 007c 02       		.byte	0x2
 1467 007d 4F       		.byte	0x4f
 1468 007e 82000000 		.4byte	0x82
 1469 0082 02       		.uleb128 0x2
 1470 0083 04       		.byte	0x4
 1471 0084 07       		.byte	0x7
 1472 0085 11030000 		.4byte	.LASF11
 1473 0089 02       		.uleb128 0x2
 1474 008a 08       		.byte	0x8
 1475 008b 05       		.byte	0x5
 1476 008c A7010000 		.4byte	.LASF12
 1477 0090 04       		.uleb128 0x4
 1478 0091 04       		.byte	0x4
 1479 0092 05       		.byte	0x5
 1480 0093 696E7400 		.ascii	"int\000"
 1481 0097 03       		.uleb128 0x3
 1482 0098 19010000 		.4byte	.LASF13
ARM GAS  /tmp/cc7Xux4D.s 			page 27


 1483 009c 03       		.byte	0x3
 1484 009d 18       		.byte	0x18
 1485 009e 3A000000 		.4byte	0x3a
 1486 00a2 03       		.uleb128 0x3
 1487 00a3 08030000 		.4byte	.LASF14
 1488 00a7 03       		.byte	0x3
 1489 00a8 24       		.byte	0x24
 1490 00a9 53000000 		.4byte	0x53
 1491 00ad 05       		.uleb128 0x5
 1492 00ae A2000000 		.4byte	0xa2
 1493 00b2 03       		.uleb128 0x3
 1494 00b3 D7030000 		.4byte	.LASF15
 1495 00b7 03       		.byte	0x3
 1496 00b8 2C       		.byte	0x2c
 1497 00b9 65000000 		.4byte	0x65
 1498 00bd 05       		.uleb128 0x5
 1499 00be B2000000 		.4byte	0xb2
 1500 00c2 03       		.uleb128 0x3
 1501 00c3 DF020000 		.4byte	.LASF16
 1502 00c7 03       		.byte	0x3
 1503 00c8 30       		.byte	0x30
 1504 00c9 77000000 		.4byte	0x77
 1505 00cd 06       		.uleb128 0x6
 1506 00ce E7050000 		.4byte	.LASF109
 1507 00d2 07       		.byte	0x7
 1508 00d3 9806     		.2byte	0x698
 1509 00d5 BD000000 		.4byte	0xbd
 1510 00d9 07       		.uleb128 0x7
 1511 00da 07       		.byte	0x7
 1512 00db 01       		.byte	0x1
 1513 00dc 45000000 		.4byte	0x45
 1514 00e0 04       		.byte	0x4
 1515 00e1 F701     		.2byte	0x1f7
 1516 00e3 F4000000 		.4byte	0xf4
 1517 00e7 08       		.uleb128 0x8
 1518 00e8 40040000 		.4byte	.LASF17
 1519 00ec 00       		.byte	0
 1520 00ed 09       		.uleb128 0x9
 1521 00ee 53455400 		.ascii	"SET\000"
 1522 00f2 01       		.byte	0x1
 1523 00f3 00       		.byte	0
 1524 00f4 0A       		.uleb128 0xa
 1525 00f5 AC000000 		.4byte	.LASF18
 1526 00f9 04       		.byte	0x4
 1527 00fa F701     		.2byte	0x1f7
 1528 00fc D9000000 		.4byte	0xd9
 1529 0100 0A       		.uleb128 0xa
 1530 0101 CC010000 		.4byte	.LASF19
 1531 0105 04       		.byte	0x4
 1532 0106 F701     		.2byte	0x1f7
 1533 0108 D9000000 		.4byte	0xd9
 1534 010c 07       		.uleb128 0x7
 1535 010d 07       		.byte	0x7
 1536 010e 01       		.byte	0x1
 1537 010f 45000000 		.4byte	0x45
 1538 0113 04       		.byte	0x4
 1539 0114 F901     		.2byte	0x1f9
ARM GAS  /tmp/cc7Xux4D.s 			page 28


 1540 0116 27010000 		.4byte	0x127
 1541 011a 08       		.uleb128 0x8
 1542 011b 5E010000 		.4byte	.LASF20
 1543 011f 00       		.byte	0
 1544 0120 08       		.uleb128 0x8
 1545 0121 53060000 		.4byte	.LASF21
 1546 0125 01       		.byte	0x1
 1547 0126 00       		.byte	0
 1548 0127 0A       		.uleb128 0xa
 1549 0128 E9040000 		.4byte	.LASF22
 1550 012c 04       		.byte	0x4
 1551 012d F901     		.2byte	0x1f9
 1552 012f 0C010000 		.4byte	0x10c
 1553 0133 0B       		.uleb128 0xb
 1554 0134 1C       		.byte	0x1c
 1555 0135 04       		.byte	0x4
 1556 0136 2905     		.2byte	0x529
 1557 0138 F1010000 		.4byte	0x1f1
 1558 013c 0C       		.uleb128 0xc
 1559 013d 535200   		.ascii	"SR\000"
 1560 0140 04       		.byte	0x4
 1561 0141 2B05     		.2byte	0x52b
 1562 0143 AD000000 		.4byte	0xad
 1563 0147 00       		.byte	0
 1564 0148 0D       		.uleb128 0xd
 1565 0149 83040000 		.4byte	.LASF23
 1566 014d 04       		.byte	0x4
 1567 014e 2C05     		.2byte	0x52c
 1568 0150 A2000000 		.4byte	0xa2
 1569 0154 02       		.byte	0x2
 1570 0155 0C       		.uleb128 0xc
 1571 0156 445200   		.ascii	"DR\000"
 1572 0159 04       		.byte	0x4
 1573 015a 2D05     		.2byte	0x52d
 1574 015c AD000000 		.4byte	0xad
 1575 0160 04       		.byte	0x4
 1576 0161 0D       		.uleb128 0xd
 1577 0162 8D040000 		.4byte	.LASF24
 1578 0166 04       		.byte	0x4
 1579 0167 2E05     		.2byte	0x52e
 1580 0169 A2000000 		.4byte	0xa2
 1581 016d 06       		.byte	0x6
 1582 016e 0C       		.uleb128 0xc
 1583 016f 42525200 		.ascii	"BRR\000"
 1584 0173 04       		.byte	0x4
 1585 0174 2F05     		.2byte	0x52f
 1586 0176 AD000000 		.4byte	0xad
 1587 017a 08       		.byte	0x8
 1588 017b 0D       		.uleb128 0xd
 1589 017c 97040000 		.4byte	.LASF25
 1590 0180 04       		.byte	0x4
 1591 0181 3005     		.2byte	0x530
 1592 0183 A2000000 		.4byte	0xa2
 1593 0187 0A       		.byte	0xa
 1594 0188 0C       		.uleb128 0xc
 1595 0189 43523100 		.ascii	"CR1\000"
 1596 018d 04       		.byte	0x4
ARM GAS  /tmp/cc7Xux4D.s 			page 29


 1597 018e 3105     		.2byte	0x531
 1598 0190 AD000000 		.4byte	0xad
 1599 0194 0C       		.byte	0xc
 1600 0195 0D       		.uleb128 0xd
 1601 0196 A1040000 		.4byte	.LASF26
 1602 019a 04       		.byte	0x4
 1603 019b 3205     		.2byte	0x532
 1604 019d A2000000 		.4byte	0xa2
 1605 01a1 0E       		.byte	0xe
 1606 01a2 0C       		.uleb128 0xc
 1607 01a3 43523200 		.ascii	"CR2\000"
 1608 01a7 04       		.byte	0x4
 1609 01a8 3305     		.2byte	0x533
 1610 01aa AD000000 		.4byte	0xad
 1611 01ae 10       		.byte	0x10
 1612 01af 0D       		.uleb128 0xd
 1613 01b0 AB040000 		.4byte	.LASF27
 1614 01b4 04       		.byte	0x4
 1615 01b5 3405     		.2byte	0x534
 1616 01b7 A2000000 		.4byte	0xa2
 1617 01bb 12       		.byte	0x12
 1618 01bc 0C       		.uleb128 0xc
 1619 01bd 43523300 		.ascii	"CR3\000"
 1620 01c1 04       		.byte	0x4
 1621 01c2 3505     		.2byte	0x535
 1622 01c4 AD000000 		.4byte	0xad
 1623 01c8 14       		.byte	0x14
 1624 01c9 0D       		.uleb128 0xd
 1625 01ca B5040000 		.4byte	.LASF28
 1626 01ce 04       		.byte	0x4
 1627 01cf 3605     		.2byte	0x536
 1628 01d1 A2000000 		.4byte	0xa2
 1629 01d5 16       		.byte	0x16
 1630 01d6 0D       		.uleb128 0xd
 1631 01d7 1A000000 		.4byte	.LASF29
 1632 01db 04       		.byte	0x4
 1633 01dc 3705     		.2byte	0x537
 1634 01de AD000000 		.4byte	0xad
 1635 01e2 18       		.byte	0x18
 1636 01e3 0D       		.uleb128 0xd
 1637 01e4 BF040000 		.4byte	.LASF30
 1638 01e8 04       		.byte	0x4
 1639 01e9 3805     		.2byte	0x538
 1640 01eb A2000000 		.4byte	0xa2
 1641 01ef 1A       		.byte	0x1a
 1642 01f0 00       		.byte	0
 1643 01f1 0A       		.uleb128 0xa
 1644 01f2 C2000000 		.4byte	.LASF31
 1645 01f6 04       		.byte	0x4
 1646 01f7 3905     		.2byte	0x539
 1647 01f9 33010000 		.4byte	0x133
 1648 01fd 0E       		.uleb128 0xe
 1649 01fe 10       		.byte	0x10
 1650 01ff 05       		.byte	0x5
 1651 0200 30       		.byte	0x30
 1652 0201 36020000 		.4byte	0x236
 1653 0205 0F       		.uleb128 0xf
ARM GAS  /tmp/cc7Xux4D.s 			page 30


 1654 0206 3D000000 		.4byte	.LASF32
 1655 020a 05       		.byte	0x5
 1656 020b 32       		.byte	0x32
 1657 020c C2000000 		.4byte	0xc2
 1658 0210 00       		.byte	0
 1659 0211 0F       		.uleb128 0xf
 1660 0212 6C000000 		.4byte	.LASF33
 1661 0216 05       		.byte	0x5
 1662 0217 33       		.byte	0x33
 1663 0218 C2000000 		.4byte	0xc2
 1664 021c 04       		.byte	0x4
 1665 021d 0F       		.uleb128 0xf
 1666 021e 1B050000 		.4byte	.LASF34
 1667 0222 05       		.byte	0x5
 1668 0223 34       		.byte	0x34
 1669 0224 C2000000 		.4byte	0xc2
 1670 0228 08       		.byte	0x8
 1671 0229 0F       		.uleb128 0xf
 1672 022a 46040000 		.4byte	.LASF35
 1673 022e 05       		.byte	0x5
 1674 022f 35       		.byte	0x35
 1675 0230 C2000000 		.4byte	0xc2
 1676 0234 0C       		.byte	0xc
 1677 0235 00       		.byte	0
 1678 0236 03       		.uleb128 0x3
 1679 0237 6B030000 		.4byte	.LASF36
 1680 023b 05       		.byte	0x5
 1681 023c 36       		.byte	0x36
 1682 023d FD010000 		.4byte	0x1fd
 1683 0241 0E       		.uleb128 0xe
 1684 0242 10       		.byte	0x10
 1685 0243 06       		.byte	0x6
 1686 0244 36       		.byte	0x36
 1687 0245 92020000 		.4byte	0x292
 1688 0249 0F       		.uleb128 0xf
 1689 024a 80010000 		.4byte	.LASF37
 1690 024e 06       		.byte	0x6
 1691 024f 38       		.byte	0x38
 1692 0250 C2000000 		.4byte	0xc2
 1693 0254 00       		.byte	0
 1694 0255 0F       		.uleb128 0xf
 1695 0256 37010000 		.4byte	.LASF38
 1696 025a 06       		.byte	0x6
 1697 025b 3E       		.byte	0x3e
 1698 025c A2000000 		.4byte	0xa2
 1699 0260 04       		.byte	0x4
 1700 0261 0F       		.uleb128 0xf
 1701 0262 D0000000 		.4byte	.LASF39
 1702 0266 06       		.byte	0x6
 1703 0267 41       		.byte	0x41
 1704 0268 A2000000 		.4byte	0xa2
 1705 026c 06       		.byte	0x6
 1706 026d 0F       		.uleb128 0xf
 1707 026e 6B020000 		.4byte	.LASF40
 1708 0272 06       		.byte	0x6
 1709 0273 44       		.byte	0x44
 1710 0274 A2000000 		.4byte	0xa2
ARM GAS  /tmp/cc7Xux4D.s 			page 31


 1711 0278 08       		.byte	0x8
 1712 0279 0F       		.uleb128 0xf
 1713 027a BE030000 		.4byte	.LASF41
 1714 027e 06       		.byte	0x6
 1715 027f 4B       		.byte	0x4b
 1716 0280 A2000000 		.4byte	0xa2
 1717 0284 0A       		.byte	0xa
 1718 0285 0F       		.uleb128 0xf
 1719 0286 91030000 		.4byte	.LASF42
 1720 028a 06       		.byte	0x6
 1721 028b 4E       		.byte	0x4e
 1722 028c A2000000 		.4byte	0xa2
 1723 0290 0C       		.byte	0xc
 1724 0291 00       		.byte	0
 1725 0292 03       		.uleb128 0x3
 1726 0293 33030000 		.4byte	.LASF43
 1727 0297 06       		.byte	0x6
 1728 0298 51       		.byte	0x51
 1729 0299 41020000 		.4byte	0x241
 1730 029d 0E       		.uleb128 0xe
 1731 029e 08       		.byte	0x8
 1732 029f 06       		.byte	0x6
 1733 02a0 57       		.byte	0x57
 1734 02a1 D6020000 		.4byte	0x2d6
 1735 02a5 0F       		.uleb128 0xf
 1736 02a6 77040000 		.4byte	.LASF44
 1737 02aa 06       		.byte	0x6
 1738 02ab 5A       		.byte	0x5a
 1739 02ac A2000000 		.4byte	0xa2
 1740 02b0 00       		.byte	0
 1741 02b1 0F       		.uleb128 0xf
 1742 02b2 D5050000 		.4byte	.LASF45
 1743 02b6 06       		.byte	0x6
 1744 02b7 5D       		.byte	0x5d
 1745 02b8 A2000000 		.4byte	0xa2
 1746 02bc 02       		.byte	0x2
 1747 02bd 0F       		.uleb128 0xf
 1748 02be 0F000000 		.4byte	.LASF46
 1749 02c2 06       		.byte	0x6
 1750 02c3 60       		.byte	0x60
 1751 02c4 A2000000 		.4byte	0xa2
 1752 02c8 04       		.byte	0x4
 1753 02c9 0F       		.uleb128 0xf
 1754 02ca 72010000 		.4byte	.LASF47
 1755 02ce 06       		.byte	0x6
 1756 02cf 63       		.byte	0x63
 1757 02d0 A2000000 		.4byte	0xa2
 1758 02d4 06       		.byte	0x6
 1759 02d5 00       		.byte	0
 1760 02d6 03       		.uleb128 0x3
 1761 02d7 E9000000 		.4byte	.LASF48
 1762 02db 06       		.byte	0x6
 1763 02dc 66       		.byte	0x66
 1764 02dd 9D020000 		.4byte	0x29d
 1765 02e1 10       		.uleb128 0x10
 1766 02e2 DE010000 		.4byte	.LASF55
 1767 02e6 01       		.byte	0x1
ARM GAS  /tmp/cc7Xux4D.s 			page 32


 1768 02e7 9B05     		.2byte	0x59b
 1769 02e9 00000000 		.4byte	.LFB139
 1770 02ed 10000000 		.4byte	.LFE139-.LFB139
 1771 02f1 01       		.uleb128 0x1
 1772 02f2 9C       		.byte	0x9c
 1773 02f3 36030000 		.4byte	0x336
 1774 02f7 11       		.uleb128 0x11
 1775 02f8 8A030000 		.4byte	.LASF49
 1776 02fc 01       		.byte	0x1
 1777 02fd 9B05     		.2byte	0x59b
 1778 02ff 36030000 		.4byte	0x336
 1779 0303 01       		.uleb128 0x1
 1780 0304 50       		.byte	0x50
 1781 0305 12       		.uleb128 0x12
 1782 0306 21010000 		.4byte	.LASF50
 1783 030a 01       		.byte	0x1
 1784 030b 9B05     		.2byte	0x59b
 1785 030d A2000000 		.4byte	0xa2
 1786 0311 00000000 		.4byte	.LLST33
 1787 0315 13       		.uleb128 0x13
 1788 0316 DF030000 		.4byte	.LASF51
 1789 031a 01       		.byte	0x1
 1790 031b 9D05     		.2byte	0x59d
 1791 031d A2000000 		.4byte	0xa2
 1792 0321 21000000 		.4byte	.LLST34
 1793 0325 13       		.uleb128 0x13
 1794 0326 E0050000 		.4byte	.LASF52
 1795 032a 01       		.byte	0x1
 1796 032b 9D05     		.2byte	0x59d
 1797 032d A2000000 		.4byte	0xa2
 1798 0331 48000000 		.4byte	.LLST35
 1799 0335 00       		.byte	0
 1800 0336 14       		.uleb128 0x14
 1801 0337 04       		.byte	0x4
 1802 0338 F1010000 		.4byte	0x1f1
 1803 033c 15       		.uleb128 0x15
 1804 033d 10040000 		.4byte	.LASF58
 1805 0341 01       		.byte	0x1
 1806 0342 5105     		.2byte	0x551
 1807 0344 00010000 		.4byte	0x100
 1808 0348 00000000 		.4byte	.LFB138
 1809 034c 48000000 		.4byte	.LFE138-.LFB138
 1810 0350 01       		.uleb128 0x1
 1811 0351 9C       		.byte	0x9c
 1812 0352 B7030000 		.4byte	0x3b7
 1813 0356 12       		.uleb128 0x12
 1814 0357 8A030000 		.4byte	.LASF49
 1815 035b 01       		.byte	0x1
 1816 035c 5105     		.2byte	0x551
 1817 035e 36030000 		.4byte	0x336
 1818 0362 73000000 		.4byte	.LLST27
 1819 0366 12       		.uleb128 0x12
 1820 0367 21010000 		.4byte	.LASF50
 1821 036b 01       		.byte	0x1
 1822 036c 5105     		.2byte	0x551
 1823 036e A2000000 		.4byte	0xa2
 1824 0372 B8000000 		.4byte	.LLST28
ARM GAS  /tmp/cc7Xux4D.s 			page 33


 1825 0376 13       		.uleb128 0x13
 1826 0377 DF030000 		.4byte	.LASF51
 1827 037b 01       		.byte	0x1
 1828 037c 5305     		.2byte	0x553
 1829 037e C2000000 		.4byte	0xc2
 1830 0382 E4000000 		.4byte	.LLST29
 1831 0386 13       		.uleb128 0x13
 1832 0387 E0050000 		.4byte	.LASF52
 1833 038b 01       		.byte	0x1
 1834 038c 5305     		.2byte	0x553
 1835 038e C2000000 		.4byte	0xc2
 1836 0392 6E010000 		.4byte	.LLST30
 1837 0396 13       		.uleb128 0x13
 1838 0397 4A060000 		.4byte	.LASF53
 1839 039b 01       		.byte	0x1
 1840 039c 5305     		.2byte	0x553
 1841 039e C2000000 		.4byte	0xc2
 1842 03a2 A3010000 		.4byte	.LLST31
 1843 03a6 13       		.uleb128 0x13
 1844 03a7 F4050000 		.4byte	.LASF54
 1845 03ab 01       		.byte	0x1
 1846 03ac 5405     		.2byte	0x554
 1847 03ae 00010000 		.4byte	0x100
 1848 03b2 16020000 		.4byte	.LLST32
 1849 03b6 00       		.byte	0
 1850 03b7 10       		.uleb128 0x10
 1851 03b8 A7020000 		.4byte	.LASF56
 1852 03bc 01       		.byte	0x1
 1853 03bd 2F05     		.2byte	0x52f
 1854 03bf 00000000 		.4byte	.LFB137
 1855 03c3 08000000 		.4byte	.LFE137-.LFB137
 1856 03c7 01       		.uleb128 0x1
 1857 03c8 9C       		.byte	0x9c
 1858 03c9 EC030000 		.4byte	0x3ec
 1859 03cd 11       		.uleb128 0x11
 1860 03ce 8A030000 		.4byte	.LASF49
 1861 03d2 01       		.byte	0x1
 1862 03d3 2F05     		.2byte	0x52f
 1863 03d5 36030000 		.4byte	0x336
 1864 03d9 01       		.uleb128 0x1
 1865 03da 50       		.byte	0x50
 1866 03db 12       		.uleb128 0x12
 1867 03dc 31020000 		.4byte	.LASF57
 1868 03e0 01       		.byte	0x1
 1869 03e1 2F05     		.2byte	0x52f
 1870 03e3 A2000000 		.4byte	0xa2
 1871 03e7 58020000 		.4byte	.LLST26
 1872 03eb 00       		.byte	0
 1873 03ec 15       		.uleb128 0x15
 1874 03ed 2B050000 		.4byte	.LASF59
 1875 03f1 01       		.byte	0x1
 1876 03f2 FE04     		.2byte	0x4fe
 1877 03f4 F4000000 		.4byte	0xf4
 1878 03f8 00000000 		.4byte	.LFB136
 1879 03fc 0C000000 		.4byte	.LFE136-.LFB136
 1880 0400 01       		.uleb128 0x1
 1881 0401 9C       		.byte	0x9c
ARM GAS  /tmp/cc7Xux4D.s 			page 34


 1882 0402 35040000 		.4byte	0x435
 1883 0406 12       		.uleb128 0x12
 1884 0407 8A030000 		.4byte	.LASF49
 1885 040b 01       		.byte	0x1
 1886 040c FE04     		.2byte	0x4fe
 1887 040e 36030000 		.4byte	0x336
 1888 0412 79020000 		.4byte	.LLST24
 1889 0416 11       		.uleb128 0x11
 1890 0417 31020000 		.4byte	.LASF57
 1891 041b 01       		.byte	0x1
 1892 041c FE04     		.2byte	0x4fe
 1893 041e A2000000 		.4byte	0xa2
 1894 0422 01       		.uleb128 0x1
 1895 0423 51       		.byte	0x51
 1896 0424 13       		.uleb128 0x13
 1897 0425 F4050000 		.4byte	.LASF54
 1898 0429 01       		.byte	0x1
 1899 042a 0005     		.2byte	0x500
 1900 042c F4000000 		.4byte	0xf4
 1901 0430 9A020000 		.4byte	.LLST25
 1902 0434 00       		.byte	0
 1903 0435 10       		.uleb128 0x10
 1904 0436 5C030000 		.4byte	.LASF60
 1905 043a 01       		.byte	0x1
 1906 043b BE04     		.2byte	0x4be
 1907 043d 00000000 		.4byte	.LFB135
 1908 0441 3C000000 		.4byte	.LFE135-.LFB135
 1909 0445 01       		.uleb128 0x1
 1910 0446 9C       		.byte	0x9c
 1911 0447 BA040000 		.4byte	0x4ba
 1912 044b 12       		.uleb128 0x12
 1913 044c 8A030000 		.4byte	.LASF49
 1914 0450 01       		.byte	0x1
 1915 0451 BE04     		.2byte	0x4be
 1916 0453 36030000 		.4byte	0x336
 1917 0457 C2020000 		.4byte	.LLST18
 1918 045b 12       		.uleb128 0x12
 1919 045c 21010000 		.4byte	.LASF50
 1920 0460 01       		.byte	0x1
 1921 0461 BE04     		.2byte	0x4be
 1922 0463 A2000000 		.4byte	0xa2
 1923 0467 FB020000 		.4byte	.LLST19
 1924 046b 12       		.uleb128 0x12
 1925 046c 48010000 		.4byte	.LASF61
 1926 0470 01       		.byte	0x1
 1927 0471 BE04     		.2byte	0x4be
 1928 0473 27010000 		.4byte	0x127
 1929 0477 1C030000 		.4byte	.LLST20
 1930 047b 13       		.uleb128 0x13
 1931 047c 4A060000 		.4byte	.LASF53
 1932 0480 01       		.byte	0x1
 1933 0481 C004     		.2byte	0x4c0
 1934 0483 C2000000 		.4byte	0xc2
 1935 0487 61030000 		.4byte	.LLST21
 1936 048b 13       		.uleb128 0x13
 1937 048c 1F000000 		.4byte	.LASF62
 1938 0490 01       		.byte	0x1
ARM GAS  /tmp/cc7Xux4D.s 			page 35


 1939 0491 C004     		.2byte	0x4c0
 1940 0493 C2000000 		.4byte	0xc2
 1941 0497 85030000 		.4byte	.LLST22
 1942 049b 13       		.uleb128 0x13
 1943 049c E0050000 		.4byte	.LASF52
 1944 04a0 01       		.byte	0x1
 1945 04a1 C004     		.2byte	0x4c0
 1946 04a3 C2000000 		.4byte	0xc2
 1947 04a7 99030000 		.4byte	.LLST23
 1948 04ab 16       		.uleb128 0x16
 1949 04ac 9C020000 		.4byte	.LASF63
 1950 04b0 01       		.byte	0x1
 1951 04b1 C104     		.2byte	0x4c1
 1952 04b3 C2000000 		.4byte	0xc2
 1953 04b7 01       		.uleb128 0x1
 1954 04b8 50       		.byte	0x50
 1955 04b9 00       		.byte	0
 1956 04ba 10       		.uleb128 0x10
 1957 04bb 51010000 		.4byte	.LASF64
 1958 04bf 01       		.byte	0x1
 1959 04c0 3E04     		.2byte	0x43e
 1960 04c2 00000000 		.4byte	.LFB134
 1961 04c6 12000000 		.4byte	.LFE134-.LFB134
 1962 04ca 01       		.uleb128 0x1
 1963 04cb 9C       		.byte	0x9c
 1964 04cc FD040000 		.4byte	0x4fd
 1965 04d0 11       		.uleb128 0x11
 1966 04d1 8A030000 		.4byte	.LASF49
 1967 04d5 01       		.byte	0x1
 1968 04d6 3E04     		.2byte	0x43e
 1969 04d8 36030000 		.4byte	0x336
 1970 04dc 01       		.uleb128 0x1
 1971 04dd 50       		.byte	0x50
 1972 04de 12       		.uleb128 0x12
 1973 04df 7D030000 		.4byte	.LASF65
 1974 04e3 01       		.byte	0x1
 1975 04e4 3E04     		.2byte	0x43e
 1976 04e6 A2000000 		.4byte	0xa2
 1977 04ea CE030000 		.4byte	.LLST17
 1978 04ee 11       		.uleb128 0x11
 1979 04ef 48010000 		.4byte	.LASF61
 1980 04f3 01       		.byte	0x1
 1981 04f4 3E04     		.2byte	0x43e
 1982 04f6 27010000 		.4byte	0x127
 1983 04fa 01       		.uleb128 0x1
 1984 04fb 52       		.byte	0x52
 1985 04fc 00       		.byte	0
 1986 04fd 10       		.uleb128 0x10
 1987 04fe C9040000 		.4byte	.LASF66
 1988 0502 01       		.byte	0x1
 1989 0503 1004     		.2byte	0x410
 1990 0505 00000000 		.4byte	.LFB133
 1991 0509 18000000 		.4byte	.LFE133-.LFB133
 1992 050d 01       		.uleb128 0x1
 1993 050e 9C       		.byte	0x9c
 1994 050f 30050000 		.4byte	0x530
 1995 0513 11       		.uleb128 0x11
ARM GAS  /tmp/cc7Xux4D.s 			page 36


 1996 0514 8A030000 		.4byte	.LASF49
 1997 0518 01       		.byte	0x1
 1998 0519 1004     		.2byte	0x410
 1999 051b 36030000 		.4byte	0x336
 2000 051f 01       		.uleb128 0x1
 2001 0520 50       		.byte	0x50
 2002 0521 11       		.uleb128 0x11
 2003 0522 48010000 		.4byte	.LASF61
 2004 0526 01       		.byte	0x1
 2005 0527 1004     		.2byte	0x410
 2006 0529 27010000 		.4byte	0x127
 2007 052d 01       		.uleb128 0x1
 2008 052e 51       		.byte	0x51
 2009 052f 00       		.byte	0
 2010 0530 10       		.uleb128 0x10
 2011 0531 2F040000 		.4byte	.LASF67
 2012 0535 01       		.byte	0x1
 2013 0536 FE03     		.2byte	0x3fe
 2014 0538 00000000 		.4byte	.LFB132
 2015 053c 14000000 		.4byte	.LFE132-.LFB132
 2016 0540 01       		.uleb128 0x1
 2017 0541 9C       		.byte	0x9c
 2018 0542 65050000 		.4byte	0x565
 2019 0546 11       		.uleb128 0x11
 2020 0547 8A030000 		.4byte	.LASF49
 2021 054b 01       		.byte	0x1
 2022 054c FE03     		.2byte	0x3fe
 2023 054e 36030000 		.4byte	0x336
 2024 0552 01       		.uleb128 0x1
 2025 0553 50       		.byte	0x50
 2026 0554 12       		.uleb128 0x12
 2027 0555 8F010000 		.4byte	.LASF68
 2028 0559 01       		.byte	0x1
 2029 055a FE03     		.2byte	0x3fe
 2030 055c A2000000 		.4byte	0xa2
 2031 0560 08040000 		.4byte	.LLST16
 2032 0564 00       		.byte	0
 2033 0565 10       		.uleb128 0x10
 2034 0566 F9040000 		.4byte	.LASF69
 2035 056a 01       		.byte	0x1
 2036 056b B703     		.2byte	0x3b7
 2037 056d 00000000 		.4byte	.LFB131
 2038 0571 18000000 		.4byte	.LFE131-.LFB131
 2039 0575 01       		.uleb128 0x1
 2040 0576 9C       		.byte	0x9c
 2041 0577 98050000 		.4byte	0x598
 2042 057b 11       		.uleb128 0x11
 2043 057c 8A030000 		.4byte	.LASF49
 2044 0580 01       		.byte	0x1
 2045 0581 B703     		.2byte	0x3b7
 2046 0583 36030000 		.4byte	0x336
 2047 0587 01       		.uleb128 0x1
 2048 0588 50       		.byte	0x50
 2049 0589 11       		.uleb128 0x11
 2050 058a 48010000 		.4byte	.LASF61
 2051 058e 01       		.byte	0x1
 2052 058f B703     		.2byte	0x3b7
ARM GAS  /tmp/cc7Xux4D.s 			page 37


 2053 0591 27010000 		.4byte	0x127
 2054 0595 01       		.uleb128 0x1
 2055 0596 51       		.byte	0x51
 2056 0597 00       		.byte	0
 2057 0598 10       		.uleb128 0x10
 2058 0599 AB030000 		.4byte	.LASF70
 2059 059d 01       		.byte	0x1
 2060 059e 9E03     		.2byte	0x39e
 2061 05a0 00000000 		.4byte	.LFB130
 2062 05a4 18000000 		.4byte	.LFE130-.LFB130
 2063 05a8 01       		.uleb128 0x1
 2064 05a9 9C       		.byte	0x9c
 2065 05aa CB050000 		.4byte	0x5cb
 2066 05ae 11       		.uleb128 0x11
 2067 05af 8A030000 		.4byte	.LASF49
 2068 05b3 01       		.byte	0x1
 2069 05b4 9E03     		.2byte	0x39e
 2070 05b6 36030000 		.4byte	0x336
 2071 05ba 01       		.uleb128 0x1
 2072 05bb 50       		.byte	0x50
 2073 05bc 11       		.uleb128 0x11
 2074 05bd 48010000 		.4byte	.LASF61
 2075 05c1 01       		.byte	0x1
 2076 05c2 9E03     		.2byte	0x39e
 2077 05c4 27010000 		.4byte	0x127
 2078 05c8 01       		.uleb128 0x1
 2079 05c9 51       		.byte	0x51
 2080 05ca 00       		.byte	0
 2081 05cb 10       		.uleb128 0x10
 2082 05cc E8020000 		.4byte	.LASF71
 2083 05d0 01       		.byte	0x1
 2084 05d1 8B03     		.2byte	0x38b
 2085 05d3 00000000 		.4byte	.LFB129
 2086 05d7 10000000 		.4byte	.LFE129-.LFB129
 2087 05db 01       		.uleb128 0x1
 2088 05dc 9C       		.byte	0x9c
 2089 05dd 00060000 		.4byte	0x600
 2090 05e1 11       		.uleb128 0x11
 2091 05e2 8A030000 		.4byte	.LASF49
 2092 05e6 01       		.byte	0x1
 2093 05e7 8B03     		.2byte	0x38b
 2094 05e9 36030000 		.4byte	0x336
 2095 05ed 01       		.uleb128 0x1
 2096 05ee 50       		.byte	0x50
 2097 05ef 12       		.uleb128 0x12
 2098 05f0 F6010000 		.4byte	.LASF72
 2099 05f4 01       		.byte	0x1
 2100 05f5 8B03     		.2byte	0x38b
 2101 05f7 97000000 		.4byte	0x97
 2102 05fb 29040000 		.4byte	.LLST15
 2103 05ff 00       		.byte	0
 2104 0600 10       		.uleb128 0x10
 2105 0601 A0050000 		.4byte	.LASF73
 2106 0605 01       		.byte	0x1
 2107 0606 3603     		.2byte	0x336
 2108 0608 00000000 		.4byte	.LFB128
 2109 060c 18000000 		.4byte	.LFE128-.LFB128
ARM GAS  /tmp/cc7Xux4D.s 			page 38


 2110 0610 01       		.uleb128 0x1
 2111 0611 9C       		.byte	0x9c
 2112 0612 33060000 		.4byte	0x633
 2113 0616 11       		.uleb128 0x11
 2114 0617 8A030000 		.4byte	.LASF49
 2115 061b 01       		.byte	0x1
 2116 061c 3603     		.2byte	0x336
 2117 061e 36030000 		.4byte	0x336
 2118 0622 01       		.uleb128 0x1
 2119 0623 50       		.byte	0x50
 2120 0624 11       		.uleb128 0x11
 2121 0625 48010000 		.4byte	.LASF61
 2122 0629 01       		.byte	0x1
 2123 062a 3603     		.2byte	0x336
 2124 062c 27010000 		.4byte	0x127
 2125 0630 01       		.uleb128 0x1
 2126 0631 51       		.byte	0x51
 2127 0632 00       		.byte	0
 2128 0633 10       		.uleb128 0x10
 2129 0634 23030000 		.4byte	.LASF74
 2130 0638 01       		.byte	0x1
 2131 0639 0103     		.2byte	0x301
 2132 063b 00000000 		.4byte	.LFB127
 2133 063f 0A000000 		.4byte	.LFE127-.LFB127
 2134 0643 01       		.uleb128 0x1
 2135 0644 9C       		.byte	0x9c
 2136 0645 58060000 		.4byte	0x658
 2137 0649 11       		.uleb128 0x11
 2138 064a 8A030000 		.4byte	.LASF49
 2139 064e 01       		.byte	0x1
 2140 064f 0103     		.2byte	0x301
 2141 0651 36030000 		.4byte	0x336
 2142 0655 01       		.uleb128 0x1
 2143 0656 50       		.byte	0x50
 2144 0657 00       		.byte	0
 2145 0658 10       		.uleb128 0x10
 2146 0659 22040000 		.4byte	.LASF75
 2147 065d 01       		.byte	0x1
 2148 065e E902     		.2byte	0x2e9
 2149 0660 00000000 		.4byte	.LFB126
 2150 0664 18000000 		.4byte	.LFE126-.LFB126
 2151 0668 01       		.uleb128 0x1
 2152 0669 9C       		.byte	0x9c
 2153 066a 8B060000 		.4byte	0x68b
 2154 066e 11       		.uleb128 0x11
 2155 066f 8A030000 		.4byte	.LASF49
 2156 0673 01       		.byte	0x1
 2157 0674 E902     		.2byte	0x2e9
 2158 0676 36030000 		.4byte	0x336
 2159 067a 01       		.uleb128 0x1
 2160 067b 50       		.byte	0x50
 2161 067c 11       		.uleb128 0x11
 2162 067d 48010000 		.4byte	.LASF61
 2163 0681 01       		.byte	0x1
 2164 0682 E902     		.2byte	0x2e9
 2165 0684 27010000 		.4byte	0x127
 2166 0688 01       		.uleb128 0x1
ARM GAS  /tmp/cc7Xux4D.s 			page 39


 2167 0689 51       		.byte	0x51
 2168 068a 00       		.byte	0
 2169 068b 10       		.uleb128 0x10
 2170 068c 06020000 		.4byte	.LASF76
 2171 0690 01       		.byte	0x1
 2172 0691 D702     		.2byte	0x2d7
 2173 0693 00000000 		.4byte	.LFB125
 2174 0697 14000000 		.4byte	.LFE125-.LFB125
 2175 069b 01       		.uleb128 0x1
 2176 069c 9C       		.byte	0x9c
 2177 069d C0060000 		.4byte	0x6c0
 2178 06a1 11       		.uleb128 0x11
 2179 06a2 8A030000 		.4byte	.LASF49
 2180 06a6 01       		.byte	0x1
 2181 06a7 D702     		.2byte	0x2d7
 2182 06a9 36030000 		.4byte	0x336
 2183 06ad 01       		.uleb128 0x1
 2184 06ae 50       		.byte	0x50
 2185 06af 12       		.uleb128 0x12
 2186 06b0 7B000000 		.4byte	.LASF77
 2187 06b4 01       		.byte	0x1
 2188 06b5 D702     		.2byte	0x2d7
 2189 06b7 A2000000 		.4byte	0xa2
 2190 06bb 4A040000 		.4byte	.LLST14
 2191 06bf 00       		.byte	0
 2192 06c0 10       		.uleb128 0x10
 2193 06c1 8D050000 		.4byte	.LASF78
 2194 06c5 01       		.byte	0x1
 2195 06c6 9202     		.2byte	0x292
 2196 06c8 00000000 		.4byte	.LFB124
 2197 06cc 14000000 		.4byte	.LFE124-.LFB124
 2198 06d0 01       		.uleb128 0x1
 2199 06d1 9C       		.byte	0x9c
 2200 06d2 F5060000 		.4byte	0x6f5
 2201 06d6 11       		.uleb128 0x11
 2202 06d7 8A030000 		.4byte	.LASF49
 2203 06db 01       		.byte	0x1
 2204 06dc 9202     		.2byte	0x292
 2205 06de 36030000 		.4byte	0x336
 2206 06e2 01       		.uleb128 0x1
 2207 06e3 50       		.byte	0x50
 2208 06e4 12       		.uleb128 0x12
 2209 06e5 2A010000 		.4byte	.LASF79
 2210 06e9 01       		.byte	0x1
 2211 06ea 9202     		.2byte	0x292
 2212 06ec A2000000 		.4byte	0xa2
 2213 06f0 6B040000 		.4byte	.LLST13
 2214 06f4 00       		.byte	0
 2215 06f5 10       		.uleb128 0x10
 2216 06f6 25000000 		.4byte	.LASF80
 2217 06fa 01       		.byte	0x1
 2218 06fb 7702     		.2byte	0x277
 2219 06fd 00000000 		.4byte	.LFB123
 2220 0701 18000000 		.4byte	.LFE123-.LFB123
 2221 0705 01       		.uleb128 0x1
 2222 0706 9C       		.byte	0x9c
 2223 0707 28070000 		.4byte	0x728
ARM GAS  /tmp/cc7Xux4D.s 			page 40


 2224 070b 11       		.uleb128 0x11
 2225 070c 8A030000 		.4byte	.LASF49
 2226 0710 01       		.byte	0x1
 2227 0711 7702     		.2byte	0x277
 2228 0713 36030000 		.4byte	0x336
 2229 0717 01       		.uleb128 0x1
 2230 0718 50       		.byte	0x50
 2231 0719 11       		.uleb128 0x11
 2232 071a 48010000 		.4byte	.LASF61
 2233 071e 01       		.byte	0x1
 2234 071f 7702     		.2byte	0x277
 2235 0721 27010000 		.4byte	0x127
 2236 0725 01       		.uleb128 0x1
 2237 0726 51       		.byte	0x51
 2238 0727 00       		.byte	0
 2239 0728 10       		.uleb128 0x10
 2240 0729 B7020000 		.4byte	.LASF81
 2241 072d 01       		.byte	0x1
 2242 072e 6302     		.2byte	0x263
 2243 0730 00000000 		.4byte	.LFB122
 2244 0734 14000000 		.4byte	.LFE122-.LFB122
 2245 0738 01       		.uleb128 0x1
 2246 0739 9C       		.byte	0x9c
 2247 073a 5D070000 		.4byte	0x75d
 2248 073e 11       		.uleb128 0x11
 2249 073f 8A030000 		.4byte	.LASF49
 2250 0743 01       		.byte	0x1
 2251 0744 6302     		.2byte	0x263
 2252 0746 36030000 		.4byte	0x336
 2253 074a 01       		.uleb128 0x1
 2254 074b 50       		.byte	0x50
 2255 074c 12       		.uleb128 0x12
 2256 074d C9030000 		.4byte	.LASF82
 2257 0751 01       		.byte	0x1
 2258 0752 6302     		.2byte	0x263
 2259 0754 97000000 		.4byte	0x97
 2260 0758 8C040000 		.4byte	.LLST12
 2261 075c 00       		.byte	0
 2262 075d 15       		.uleb128 0x15
 2263 075e 38060000 		.4byte	.LASF83
 2264 0762 01       		.byte	0x1
 2265 0763 3002     		.2byte	0x230
 2266 0765 A2000000 		.4byte	0xa2
 2267 0769 00000000 		.4byte	.LFB121
 2268 076d 08000000 		.4byte	.LFE121-.LFB121
 2269 0771 01       		.uleb128 0x1
 2270 0772 9C       		.byte	0x9c
 2271 0773 88070000 		.4byte	0x788
 2272 0777 12       		.uleb128 0x12
 2273 0778 8A030000 		.4byte	.LASF49
 2274 077c 01       		.byte	0x1
 2275 077d 3002     		.2byte	0x230
 2276 077f 36030000 		.4byte	0x336
 2277 0783 AD040000 		.4byte	.LLST11
 2278 0787 00       		.byte	0
 2279 0788 10       		.uleb128 0x10
 2280 0789 0A010000 		.4byte	.LASF84
ARM GAS  /tmp/cc7Xux4D.s 			page 41


 2281 078d 01       		.byte	0x1
 2282 078e 2002     		.2byte	0x220
 2283 0790 00000000 		.4byte	.LFB120
 2284 0794 08000000 		.4byte	.LFE120-.LFB120
 2285 0798 01       		.uleb128 0x1
 2286 0799 9C       		.byte	0x9c
 2287 079a BD070000 		.4byte	0x7bd
 2288 079e 11       		.uleb128 0x11
 2289 079f 8A030000 		.4byte	.LASF49
 2290 07a3 01       		.byte	0x1
 2291 07a4 2002     		.2byte	0x220
 2292 07a6 36030000 		.4byte	0x336
 2293 07aa 01       		.uleb128 0x1
 2294 07ab 50       		.byte	0x50
 2295 07ac 12       		.uleb128 0x12
 2296 07ad 5F020000 		.4byte	.LASF85
 2297 07b1 01       		.byte	0x1
 2298 07b2 2002     		.2byte	0x220
 2299 07b4 A2000000 		.4byte	0xa2
 2300 07b8 CE040000 		.4byte	.LLST10
 2301 07bc 00       		.byte	0
 2302 07bd 10       		.uleb128 0x10
 2303 07be 96000000 		.4byte	.LASF86
 2304 07c2 01       		.byte	0x1
 2305 07c3 E701     		.2byte	0x1e7
 2306 07c5 00000000 		.4byte	.LFB119
 2307 07c9 18000000 		.4byte	.LFE119-.LFB119
 2308 07cd 01       		.uleb128 0x1
 2309 07ce 9C       		.byte	0x9c
 2310 07cf F0070000 		.4byte	0x7f0
 2311 07d3 11       		.uleb128 0x11
 2312 07d4 8A030000 		.4byte	.LASF49
 2313 07d8 01       		.byte	0x1
 2314 07d9 E701     		.2byte	0x1e7
 2315 07db 36030000 		.4byte	0x336
 2316 07df 01       		.uleb128 0x1
 2317 07e0 50       		.byte	0x50
 2318 07e1 11       		.uleb128 0x11
 2319 07e2 48010000 		.4byte	.LASF61
 2320 07e6 01       		.byte	0x1
 2321 07e7 E701     		.2byte	0x1e7
 2322 07e9 27010000 		.4byte	0x127
 2323 07ed 01       		.uleb128 0x1
 2324 07ee 51       		.byte	0x51
 2325 07ef 00       		.byte	0
 2326 07f0 10       		.uleb128 0x10
 2327 07f1 E6030000 		.4byte	.LASF87
 2328 07f5 01       		.byte	0x1
 2329 07f6 CD01     		.2byte	0x1cd
 2330 07f8 00000000 		.4byte	.LFB118
 2331 07fc 14000000 		.4byte	.LFE118-.LFB118
 2332 0800 01       		.uleb128 0x1
 2333 0801 9C       		.byte	0x9c
 2334 0802 23080000 		.4byte	0x823
 2335 0806 11       		.uleb128 0x11
 2336 0807 8A030000 		.4byte	.LASF49
 2337 080b 01       		.byte	0x1
ARM GAS  /tmp/cc7Xux4D.s 			page 42


 2338 080c CD01     		.2byte	0x1cd
 2339 080e 36030000 		.4byte	0x336
 2340 0812 01       		.uleb128 0x1
 2341 0813 50       		.byte	0x50
 2342 0814 11       		.uleb128 0x11
 2343 0815 48010000 		.4byte	.LASF61
 2344 0819 01       		.byte	0x1
 2345 081a CD01     		.2byte	0x1cd
 2346 081c 27010000 		.4byte	0x127
 2347 0820 01       		.uleb128 0x1
 2348 0821 51       		.byte	0x51
 2349 0822 00       		.byte	0
 2350 0823 10       		.uleb128 0x10
 2351 0824 4E000000 		.4byte	.LASF88
 2352 0828 01       		.byte	0x1
 2353 0829 B801     		.2byte	0x1b8
 2354 082b 00000000 		.4byte	.LFB117
 2355 082f 10000000 		.4byte	.LFE117-.LFB117
 2356 0833 01       		.uleb128 0x1
 2357 0834 9C       		.byte	0x9c
 2358 0835 58080000 		.4byte	0x858
 2359 0839 11       		.uleb128 0x11
 2360 083a 8A030000 		.4byte	.LASF49
 2361 083e 01       		.byte	0x1
 2362 083f B801     		.2byte	0x1b8
 2363 0841 36030000 		.4byte	0x336
 2364 0845 01       		.uleb128 0x1
 2365 0846 50       		.byte	0x50
 2366 0847 12       		.uleb128 0x12
 2367 0848 C5050000 		.4byte	.LASF89
 2368 084c 01       		.byte	0x1
 2369 084d B801     		.2byte	0x1b8
 2370 084f 97000000 		.4byte	0x97
 2371 0853 EF040000 		.4byte	.LLST9
 2372 0857 00       		.byte	0
 2373 0858 10       		.uleb128 0x10
 2374 0859 00010000 		.4byte	.LASF90
 2375 085d 01       		.byte	0x1
 2376 085e 9E01     		.2byte	0x19e
 2377 0860 00000000 		.4byte	.LFB116
 2378 0864 18000000 		.4byte	.LFE116-.LFB116
 2379 0868 01       		.uleb128 0x1
 2380 0869 9C       		.byte	0x9c
 2381 086a 8B080000 		.4byte	0x88b
 2382 086e 11       		.uleb128 0x11
 2383 086f 8A030000 		.4byte	.LASF49
 2384 0873 01       		.byte	0x1
 2385 0874 9E01     		.2byte	0x19e
 2386 0876 36030000 		.4byte	0x336
 2387 087a 01       		.uleb128 0x1
 2388 087b 50       		.byte	0x50
 2389 087c 11       		.uleb128 0x11
 2390 087d 48010000 		.4byte	.LASF61
 2391 0881 01       		.byte	0x1
 2392 0882 9E01     		.2byte	0x19e
 2393 0884 27010000 		.4byte	0x127
 2394 0888 01       		.uleb128 0x1
ARM GAS  /tmp/cc7Xux4D.s 			page 43


 2395 0889 51       		.byte	0x51
 2396 088a 00       		.byte	0
 2397 088b 10       		.uleb128 0x10
 2398 088c 78020000 		.4byte	.LASF91
 2399 0890 01       		.byte	0x1
 2400 0891 8D01     		.2byte	0x18d
 2401 0893 00000000 		.4byte	.LFB115
 2402 0897 0C000000 		.4byte	.LFE115-.LFB115
 2403 089b 01       		.uleb128 0x1
 2404 089c 9C       		.byte	0x9c
 2405 089d B0080000 		.4byte	0x8b0
 2406 08a1 11       		.uleb128 0x11
 2407 08a2 49020000 		.4byte	.LASF92
 2408 08a6 01       		.byte	0x1
 2409 08a7 8D01     		.2byte	0x18d
 2410 08a9 B0080000 		.4byte	0x8b0
 2411 08ad 01       		.uleb128 0x1
 2412 08ae 50       		.byte	0x50
 2413 08af 00       		.byte	0
 2414 08b0 14       		.uleb128 0x14
 2415 08b1 04       		.byte	0x4
 2416 08b2 D6020000 		.4byte	0x2d6
 2417 08b6 10       		.uleb128 0x10
 2418 08b7 7D050000 		.4byte	.LASF93
 2419 08bb 01       		.byte	0x1
 2420 08bc 6E01     		.2byte	0x16e
 2421 08be 00000000 		.4byte	.LFB114
 2422 08c2 20000000 		.4byte	.LFE114-.LFB114
 2423 08c6 01       		.uleb128 0x1
 2424 08c7 9C       		.byte	0x9c
 2425 08c8 FB080000 		.4byte	0x8fb
 2426 08cc 11       		.uleb128 0x11
 2427 08cd 8A030000 		.4byte	.LASF49
 2428 08d1 01       		.byte	0x1
 2429 08d2 6E01     		.2byte	0x16e
 2430 08d4 36030000 		.4byte	0x336
 2431 08d8 01       		.uleb128 0x1
 2432 08d9 50       		.byte	0x50
 2433 08da 12       		.uleb128 0x12
 2434 08db 49020000 		.4byte	.LASF92
 2435 08df 01       		.byte	0x1
 2436 08e0 6E01     		.2byte	0x16e
 2437 08e2 B0080000 		.4byte	0x8b0
 2438 08e6 10050000 		.4byte	.LLST7
 2439 08ea 13       		.uleb128 0x13
 2440 08eb 64020000 		.4byte	.LASF94
 2441 08ef 01       		.byte	0x1
 2442 08f0 7001     		.2byte	0x170
 2443 08f2 C2000000 		.4byte	0xc2
 2444 08f6 31050000 		.4byte	.LLST8
 2445 08fa 00       		.byte	0
 2446 08fb 10       		.uleb128 0x10
 2447 08fc B4050000 		.4byte	.LASF95
 2448 0900 01       		.byte	0x1
 2449 0901 5A01     		.2byte	0x15a
 2450 0903 00000000 		.4byte	.LFB113
 2451 0907 14000000 		.4byte	.LFE113-.LFB113
ARM GAS  /tmp/cc7Xux4D.s 			page 44


 2452 090b 01       		.uleb128 0x1
 2453 090c 9C       		.byte	0x9c
 2454 090d 20090000 		.4byte	0x920
 2455 0911 11       		.uleb128 0x11
 2456 0912 5B050000 		.4byte	.LASF96
 2457 0916 01       		.byte	0x1
 2458 0917 5A01     		.2byte	0x15a
 2459 0919 20090000 		.4byte	0x920
 2460 091d 01       		.uleb128 0x1
 2461 091e 50       		.byte	0x50
 2462 091f 00       		.byte	0
 2463 0920 14       		.uleb128 0x14
 2464 0921 04       		.byte	0x4
 2465 0922 92020000 		.4byte	0x292
 2466 0926 17       		.uleb128 0x17
 2467 0927 61000000 		.4byte	.LASF97
 2468 092b 01       		.byte	0x1
 2469 092c E9       		.byte	0xe9
 2470 092d 00000000 		.4byte	.LFB112
 2471 0931 C0000000 		.4byte	.LFE112-.LFB112
 2472 0935 01       		.uleb128 0x1
 2473 0936 9C       		.byte	0x9c
 2474 0937 B4090000 		.4byte	0x9b4
 2475 093b 18       		.uleb128 0x18
 2476 093c 8A030000 		.4byte	.LASF49
 2477 0940 01       		.byte	0x1
 2478 0941 E9       		.byte	0xe9
 2479 0942 36030000 		.4byte	0x336
 2480 0946 7F050000 		.4byte	.LLST1
 2481 094a 18       		.uleb128 0x18
 2482 094b 5B050000 		.4byte	.LASF96
 2483 094f 01       		.byte	0x1
 2484 0950 E9       		.byte	0xe9
 2485 0951 20090000 		.4byte	0x920
 2486 0955 AB050000 		.4byte	.LLST2
 2487 0959 19       		.uleb128 0x19
 2488 095a 64020000 		.4byte	.LASF94
 2489 095e 01       		.byte	0x1
 2490 095f EB       		.byte	0xeb
 2491 0960 C2000000 		.4byte	0xc2
 2492 0964 D7050000 		.4byte	.LLST3
 2493 0968 19       		.uleb128 0x19
 2494 0969 9E010000 		.4byte	.LASF98
 2495 096d 01       		.byte	0x1
 2496 096e EB       		.byte	0xeb
 2497 096f C2000000 		.4byte	0xc2
 2498 0973 E4060000 		.4byte	.LLST4
 2499 0977 19       		.uleb128 0x19
 2500 0978 00000000 		.4byte	.LASF99
 2501 097c 01       		.byte	0x1
 2502 097d EC       		.byte	0xec
 2503 097e C2000000 		.4byte	0xc2
 2504 0982 1A070000 		.4byte	.LLST5
 2505 0986 19       		.uleb128 0x19
 2506 0987 D7040000 		.4byte	.LASF100
 2507 098b 01       		.byte	0x1
 2508 098c ED       		.byte	0xed
ARM GAS  /tmp/cc7Xux4D.s 			page 45


 2509 098d C2000000 		.4byte	0xc2
 2510 0991 39070000 		.4byte	.LLST6
 2511 0995 1A       		.uleb128 0x1a
 2512 0996 6C050000 		.4byte	.LASF101
 2513 099a 01       		.byte	0x1
 2514 099b EE       		.byte	0xee
 2515 099c 36020000 		.4byte	0x236
 2516 09a0 02       		.uleb128 0x2
 2517 09a1 91       		.byte	0x91
 2518 09a2 58       		.sleb128 -40
 2519 09a3 1B       		.uleb128 0x1b
 2520 09a4 3E000000 		.4byte	.LVL30
 2521 09a8 070B0000 		.4byte	0xb07
 2522 09ac 1C       		.uleb128 0x1c
 2523 09ad 01       		.uleb128 0x1
 2524 09ae 50       		.byte	0x50
 2525 09af 02       		.uleb128 0x2
 2526 09b0 7D       		.byte	0x7d
 2527 09b1 00       		.sleb128 0
 2528 09b2 00       		.byte	0
 2529 09b3 00       		.byte	0
 2530 09b4 17       		.uleb128 0x17
 2531 09b5 3C020000 		.4byte	.LASF102
 2532 09b9 01       		.byte	0x1
 2533 09ba B8       		.byte	0xb8
 2534 09bb 00000000 		.4byte	.LFB111
 2535 09bf C8000000 		.4byte	.LFE111-.LFB111
 2536 09c3 01       		.uleb128 0x1
 2537 09c4 9C       		.byte	0x9c
 2538 09c5 070B0000 		.4byte	0xb07
 2539 09c9 18       		.uleb128 0x18
 2540 09ca 8A030000 		.4byte	.LASF49
 2541 09ce 01       		.byte	0x1
 2542 09cf B8       		.byte	0xb8
 2543 09d0 36030000 		.4byte	0x336
 2544 09d4 DF070000 		.4byte	.LLST0
 2545 09d8 1D       		.uleb128 0x1d
 2546 09d9 32000000 		.4byte	.LVL2
 2547 09dd 130B0000 		.4byte	0xb13
 2548 09e1 F2090000 		.4byte	0x9f2
 2549 09e5 1C       		.uleb128 0x1c
 2550 09e6 01       		.uleb128 0x1
 2551 09e7 50       		.byte	0x50
 2552 09e8 03       		.uleb128 0x3
 2553 09e9 40       		.byte	0x40
 2554 09ea 40       		.byte	0x40
 2555 09eb 24       		.byte	0x24
 2556 09ec 1C       		.uleb128 0x1c
 2557 09ed 01       		.uleb128 0x1
 2558 09ee 51       		.byte	0x51
 2559 09ef 01       		.uleb128 0x1
 2560 09f0 31       		.byte	0x31
 2561 09f1 00       		.byte	0
 2562 09f2 1E       		.uleb128 0x1e
 2563 09f3 40000000 		.4byte	.LVL3
 2564 09f7 130B0000 		.4byte	0xb13
 2565 09fb 0C0A0000 		.4byte	0xa0c
ARM GAS  /tmp/cc7Xux4D.s 			page 46


 2566 09ff 1C       		.uleb128 0x1c
 2567 0a00 01       		.uleb128 0x1
 2568 0a01 50       		.byte	0x50
 2569 0a02 03       		.uleb128 0x3
 2570 0a03 40       		.byte	0x40
 2571 0a04 40       		.byte	0x40
 2572 0a05 24       		.byte	0x24
 2573 0a06 1C       		.uleb128 0x1c
 2574 0a07 01       		.uleb128 0x1
 2575 0a08 51       		.byte	0x51
 2576 0a09 01       		.uleb128 0x1
 2577 0a0a 30       		.byte	0x30
 2578 0a0b 00       		.byte	0
 2579 0a0c 1D       		.uleb128 0x1d
 2580 0a0d 48000000 		.4byte	.LVL5
 2581 0a11 1F0B0000 		.4byte	0xb1f
 2582 0a15 240A0000 		.4byte	0xa24
 2583 0a19 1C       		.uleb128 0x1c
 2584 0a1a 01       		.uleb128 0x1
 2585 0a1b 50       		.byte	0x50
 2586 0a1c 01       		.uleb128 0x1
 2587 0a1d 40       		.byte	0x40
 2588 0a1e 1C       		.uleb128 0x1c
 2589 0a1f 01       		.uleb128 0x1
 2590 0a20 51       		.byte	0x51
 2591 0a21 01       		.uleb128 0x1
 2592 0a22 31       		.byte	0x31
 2593 0a23 00       		.byte	0
 2594 0a24 1E       		.uleb128 0x1e
 2595 0a25 54000000 		.4byte	.LVL6
 2596 0a29 1F0B0000 		.4byte	0xb1f
 2597 0a2d 3C0A0000 		.4byte	0xa3c
 2598 0a31 1C       		.uleb128 0x1c
 2599 0a32 01       		.uleb128 0x1
 2600 0a33 50       		.byte	0x50
 2601 0a34 01       		.uleb128 0x1
 2602 0a35 40       		.byte	0x40
 2603 0a36 1C       		.uleb128 0x1c
 2604 0a37 01       		.uleb128 0x1
 2605 0a38 51       		.byte	0x51
 2606 0a39 01       		.uleb128 0x1
 2607 0a3a 30       		.byte	0x30
 2608 0a3b 00       		.byte	0
 2609 0a3c 1D       		.uleb128 0x1d
 2610 0a3d 5E000000 		.4byte	.LVL8
 2611 0a41 130B0000 		.4byte	0xb13
 2612 0a45 560A0000 		.4byte	0xa56
 2613 0a49 1C       		.uleb128 0x1c
 2614 0a4a 01       		.uleb128 0x1
 2615 0a4b 50       		.byte	0x50
 2616 0a4c 03       		.uleb128 0x3
 2617 0a4d 40       		.byte	0x40
 2618 0a4e 3D       		.byte	0x3d
 2619 0a4f 24       		.byte	0x24
 2620 0a50 1C       		.uleb128 0x1c
 2621 0a51 01       		.uleb128 0x1
 2622 0a52 51       		.byte	0x51
ARM GAS  /tmp/cc7Xux4D.s 			page 47


 2623 0a53 01       		.uleb128 0x1
 2624 0a54 31       		.byte	0x31
 2625 0a55 00       		.byte	0
 2626 0a56 1E       		.uleb128 0x1e
 2627 0a57 6C000000 		.4byte	.LVL9
 2628 0a5b 130B0000 		.4byte	0xb13
 2629 0a5f 700A0000 		.4byte	0xa70
 2630 0a63 1C       		.uleb128 0x1c
 2631 0a64 01       		.uleb128 0x1
 2632 0a65 50       		.byte	0x50
 2633 0a66 03       		.uleb128 0x3
 2634 0a67 40       		.byte	0x40
 2635 0a68 3D       		.byte	0x3d
 2636 0a69 24       		.byte	0x24
 2637 0a6a 1C       		.uleb128 0x1c
 2638 0a6b 01       		.uleb128 0x1
 2639 0a6c 51       		.byte	0x51
 2640 0a6d 01       		.uleb128 0x1
 2641 0a6e 30       		.byte	0x30
 2642 0a6f 00       		.byte	0
 2643 0a70 1D       		.uleb128 0x1d
 2644 0a71 76000000 		.4byte	.LVL11
 2645 0a75 130B0000 		.4byte	0xb13
 2646 0a79 8A0A0000 		.4byte	0xa8a
 2647 0a7d 1C       		.uleb128 0x1c
 2648 0a7e 01       		.uleb128 0x1
 2649 0a7f 50       		.byte	0x50
 2650 0a80 03       		.uleb128 0x3
 2651 0a81 40       		.byte	0x40
 2652 0a82 3E       		.byte	0x3e
 2653 0a83 24       		.byte	0x24
 2654 0a84 1C       		.uleb128 0x1c
 2655 0a85 01       		.uleb128 0x1
 2656 0a86 51       		.byte	0x51
 2657 0a87 01       		.uleb128 0x1
 2658 0a88 31       		.byte	0x31
 2659 0a89 00       		.byte	0
 2660 0a8a 1E       		.uleb128 0x1e
 2661 0a8b 84000000 		.4byte	.LVL12
 2662 0a8f 130B0000 		.4byte	0xb13
 2663 0a93 A40A0000 		.4byte	0xaa4
 2664 0a97 1C       		.uleb128 0x1c
 2665 0a98 01       		.uleb128 0x1
 2666 0a99 50       		.byte	0x50
 2667 0a9a 03       		.uleb128 0x3
 2668 0a9b 40       		.byte	0x40
 2669 0a9c 3E       		.byte	0x3e
 2670 0a9d 24       		.byte	0x24
 2671 0a9e 1C       		.uleb128 0x1c
 2672 0a9f 01       		.uleb128 0x1
 2673 0aa0 51       		.byte	0x51
 2674 0aa1 01       		.uleb128 0x1
 2675 0aa2 30       		.byte	0x30
 2676 0aa3 00       		.byte	0
 2677 0aa4 1D       		.uleb128 0x1d
 2678 0aa5 8E000000 		.4byte	.LVL14
 2679 0aa9 130B0000 		.4byte	0xb13
ARM GAS  /tmp/cc7Xux4D.s 			page 48


 2680 0aad BE0A0000 		.4byte	0xabe
 2681 0ab1 1C       		.uleb128 0x1c
 2682 0ab2 01       		.uleb128 0x1
 2683 0ab3 50       		.byte	0x50
 2684 0ab4 03       		.uleb128 0x3
 2685 0ab5 40       		.byte	0x40
 2686 0ab6 3F       		.byte	0x3f
 2687 0ab7 24       		.byte	0x24
 2688 0ab8 1C       		.uleb128 0x1c
 2689 0ab9 01       		.uleb128 0x1
 2690 0aba 51       		.byte	0x51
 2691 0abb 01       		.uleb128 0x1
 2692 0abc 31       		.byte	0x31
 2693 0abd 00       		.byte	0
 2694 0abe 1E       		.uleb128 0x1e
 2695 0abf 9C000000 		.4byte	.LVL15
 2696 0ac3 130B0000 		.4byte	0xb13
 2697 0ac7 D80A0000 		.4byte	0xad8
 2698 0acb 1C       		.uleb128 0x1c
 2699 0acc 01       		.uleb128 0x1
 2700 0acd 50       		.byte	0x50
 2701 0ace 03       		.uleb128 0x3
 2702 0acf 40       		.byte	0x40
 2703 0ad0 3F       		.byte	0x3f
 2704 0ad1 24       		.byte	0x24
 2705 0ad2 1C       		.uleb128 0x1c
 2706 0ad3 01       		.uleb128 0x1
 2707 0ad4 51       		.byte	0x51
 2708 0ad5 01       		.uleb128 0x1
 2709 0ad6 30       		.byte	0x30
 2710 0ad7 00       		.byte	0
 2711 0ad8 1D       		.uleb128 0x1d
 2712 0ad9 A4000000 		.4byte	.LVL17
 2713 0add 1F0B0000 		.4byte	0xb1f
 2714 0ae1 F10A0000 		.4byte	0xaf1
 2715 0ae5 1C       		.uleb128 0x1c
 2716 0ae6 01       		.uleb128 0x1
 2717 0ae7 50       		.byte	0x50
 2718 0ae8 02       		.uleb128 0x2
 2719 0ae9 08       		.byte	0x8
 2720 0aea 20       		.byte	0x20
 2721 0aeb 1C       		.uleb128 0x1c
 2722 0aec 01       		.uleb128 0x1
 2723 0aed 51       		.byte	0x51
 2724 0aee 01       		.uleb128 0x1
 2725 0aef 31       		.byte	0x31
 2726 0af0 00       		.byte	0
 2727 0af1 1F       		.uleb128 0x1f
 2728 0af2 B0000000 		.4byte	.LVL18
 2729 0af6 1F0B0000 		.4byte	0xb1f
 2730 0afa 1C       		.uleb128 0x1c
 2731 0afb 01       		.uleb128 0x1
 2732 0afc 50       		.byte	0x50
 2733 0afd 02       		.uleb128 0x2
 2734 0afe 08       		.byte	0x8
 2735 0aff 20       		.byte	0x20
 2736 0b00 1C       		.uleb128 0x1c
ARM GAS  /tmp/cc7Xux4D.s 			page 49


 2737 0b01 01       		.uleb128 0x1
 2738 0b02 51       		.byte	0x51
 2739 0b03 01       		.uleb128 0x1
 2740 0b04 30       		.byte	0x30
 2741 0b05 00       		.byte	0
 2742 0b06 00       		.byte	0
 2743 0b07 20       		.uleb128 0x20
 2744 0b08 49050000 		.4byte	.LASF103
 2745 0b0c 49050000 		.4byte	.LASF103
 2746 0b10 05       		.byte	0x5
 2747 0b11 D501     		.2byte	0x1d5
 2748 0b13 20       		.uleb128 0x20
 2749 0b14 B5010000 		.4byte	.LASF104
 2750 0b18 B5010000 		.4byte	.LASF104
 2751 0b1c 05       		.byte	0x5
 2752 0b1d E601     		.2byte	0x1e6
 2753 0b1f 20       		.uleb128 0x20
 2754 0b20 45030000 		.4byte	.LASF105
 2755 0b24 45030000 		.4byte	.LASF105
 2756 0b28 05       		.byte	0x5
 2757 0b29 E701     		.2byte	0x1e7
 2758 0b2b 00       		.byte	0
 2759              		.section	.debug_abbrev,"",%progbits
 2760              	.Ldebug_abbrev0:
 2761 0000 01       		.uleb128 0x1
 2762 0001 11       		.uleb128 0x11
 2763 0002 01       		.byte	0x1
 2764 0003 25       		.uleb128 0x25
 2765 0004 0E       		.uleb128 0xe
 2766 0005 13       		.uleb128 0x13
 2767 0006 0B       		.uleb128 0xb
 2768 0007 03       		.uleb128 0x3
 2769 0008 0E       		.uleb128 0xe
 2770 0009 1B       		.uleb128 0x1b
 2771 000a 0E       		.uleb128 0xe
 2772 000b 55       		.uleb128 0x55
 2773 000c 17       		.uleb128 0x17
 2774 000d 11       		.uleb128 0x11
 2775 000e 01       		.uleb128 0x1
 2776 000f 10       		.uleb128 0x10
 2777 0010 17       		.uleb128 0x17
 2778 0011 00       		.byte	0
 2779 0012 00       		.byte	0
 2780 0013 02       		.uleb128 0x2
 2781 0014 24       		.uleb128 0x24
 2782 0015 00       		.byte	0
 2783 0016 0B       		.uleb128 0xb
 2784 0017 0B       		.uleb128 0xb
 2785 0018 3E       		.uleb128 0x3e
 2786 0019 0B       		.uleb128 0xb
 2787 001a 03       		.uleb128 0x3
 2788 001b 0E       		.uleb128 0xe
 2789 001c 00       		.byte	0
 2790 001d 00       		.byte	0
 2791 001e 03       		.uleb128 0x3
 2792 001f 16       		.uleb128 0x16
 2793 0020 00       		.byte	0
ARM GAS  /tmp/cc7Xux4D.s 			page 50


 2794 0021 03       		.uleb128 0x3
 2795 0022 0E       		.uleb128 0xe
 2796 0023 3A       		.uleb128 0x3a
 2797 0024 0B       		.uleb128 0xb
 2798 0025 3B       		.uleb128 0x3b
 2799 0026 0B       		.uleb128 0xb
 2800 0027 49       		.uleb128 0x49
 2801 0028 13       		.uleb128 0x13
 2802 0029 00       		.byte	0
 2803 002a 00       		.byte	0
 2804 002b 04       		.uleb128 0x4
 2805 002c 24       		.uleb128 0x24
 2806 002d 00       		.byte	0
 2807 002e 0B       		.uleb128 0xb
 2808 002f 0B       		.uleb128 0xb
 2809 0030 3E       		.uleb128 0x3e
 2810 0031 0B       		.uleb128 0xb
 2811 0032 03       		.uleb128 0x3
 2812 0033 08       		.uleb128 0x8
 2813 0034 00       		.byte	0
 2814 0035 00       		.byte	0
 2815 0036 05       		.uleb128 0x5
 2816 0037 35       		.uleb128 0x35
 2817 0038 00       		.byte	0
 2818 0039 49       		.uleb128 0x49
 2819 003a 13       		.uleb128 0x13
 2820 003b 00       		.byte	0
 2821 003c 00       		.byte	0
 2822 003d 06       		.uleb128 0x6
 2823 003e 34       		.uleb128 0x34
 2824 003f 00       		.byte	0
 2825 0040 03       		.uleb128 0x3
 2826 0041 0E       		.uleb128 0xe
 2827 0042 3A       		.uleb128 0x3a
 2828 0043 0B       		.uleb128 0xb
 2829 0044 3B       		.uleb128 0x3b
 2830 0045 05       		.uleb128 0x5
 2831 0046 49       		.uleb128 0x49
 2832 0047 13       		.uleb128 0x13
 2833 0048 3F       		.uleb128 0x3f
 2834 0049 19       		.uleb128 0x19
 2835 004a 3C       		.uleb128 0x3c
 2836 004b 19       		.uleb128 0x19
 2837 004c 00       		.byte	0
 2838 004d 00       		.byte	0
 2839 004e 07       		.uleb128 0x7
 2840 004f 04       		.uleb128 0x4
 2841 0050 01       		.byte	0x1
 2842 0051 3E       		.uleb128 0x3e
 2843 0052 0B       		.uleb128 0xb
 2844 0053 0B       		.uleb128 0xb
 2845 0054 0B       		.uleb128 0xb
 2846 0055 49       		.uleb128 0x49
 2847 0056 13       		.uleb128 0x13
 2848 0057 3A       		.uleb128 0x3a
 2849 0058 0B       		.uleb128 0xb
 2850 0059 3B       		.uleb128 0x3b
ARM GAS  /tmp/cc7Xux4D.s 			page 51


 2851 005a 05       		.uleb128 0x5
 2852 005b 01       		.uleb128 0x1
 2853 005c 13       		.uleb128 0x13
 2854 005d 00       		.byte	0
 2855 005e 00       		.byte	0
 2856 005f 08       		.uleb128 0x8
 2857 0060 28       		.uleb128 0x28
 2858 0061 00       		.byte	0
 2859 0062 03       		.uleb128 0x3
 2860 0063 0E       		.uleb128 0xe
 2861 0064 1C       		.uleb128 0x1c
 2862 0065 0B       		.uleb128 0xb
 2863 0066 00       		.byte	0
 2864 0067 00       		.byte	0
 2865 0068 09       		.uleb128 0x9
 2866 0069 28       		.uleb128 0x28
 2867 006a 00       		.byte	0
 2868 006b 03       		.uleb128 0x3
 2869 006c 08       		.uleb128 0x8
 2870 006d 1C       		.uleb128 0x1c
 2871 006e 0B       		.uleb128 0xb
 2872 006f 00       		.byte	0
 2873 0070 00       		.byte	0
 2874 0071 0A       		.uleb128 0xa
 2875 0072 16       		.uleb128 0x16
 2876 0073 00       		.byte	0
 2877 0074 03       		.uleb128 0x3
 2878 0075 0E       		.uleb128 0xe
 2879 0076 3A       		.uleb128 0x3a
 2880 0077 0B       		.uleb128 0xb
 2881 0078 3B       		.uleb128 0x3b
 2882 0079 05       		.uleb128 0x5
 2883 007a 49       		.uleb128 0x49
 2884 007b 13       		.uleb128 0x13
 2885 007c 00       		.byte	0
 2886 007d 00       		.byte	0
 2887 007e 0B       		.uleb128 0xb
 2888 007f 13       		.uleb128 0x13
 2889 0080 01       		.byte	0x1
 2890 0081 0B       		.uleb128 0xb
 2891 0082 0B       		.uleb128 0xb
 2892 0083 3A       		.uleb128 0x3a
 2893 0084 0B       		.uleb128 0xb
 2894 0085 3B       		.uleb128 0x3b
 2895 0086 05       		.uleb128 0x5
 2896 0087 01       		.uleb128 0x1
 2897 0088 13       		.uleb128 0x13
 2898 0089 00       		.byte	0
 2899 008a 00       		.byte	0
 2900 008b 0C       		.uleb128 0xc
 2901 008c 0D       		.uleb128 0xd
 2902 008d 00       		.byte	0
 2903 008e 03       		.uleb128 0x3
 2904 008f 08       		.uleb128 0x8
 2905 0090 3A       		.uleb128 0x3a
 2906 0091 0B       		.uleb128 0xb
 2907 0092 3B       		.uleb128 0x3b
ARM GAS  /tmp/cc7Xux4D.s 			page 52


 2908 0093 05       		.uleb128 0x5
 2909 0094 49       		.uleb128 0x49
 2910 0095 13       		.uleb128 0x13
 2911 0096 38       		.uleb128 0x38
 2912 0097 0B       		.uleb128 0xb
 2913 0098 00       		.byte	0
 2914 0099 00       		.byte	0
 2915 009a 0D       		.uleb128 0xd
 2916 009b 0D       		.uleb128 0xd
 2917 009c 00       		.byte	0
 2918 009d 03       		.uleb128 0x3
 2919 009e 0E       		.uleb128 0xe
 2920 009f 3A       		.uleb128 0x3a
 2921 00a0 0B       		.uleb128 0xb
 2922 00a1 3B       		.uleb128 0x3b
 2923 00a2 05       		.uleb128 0x5
 2924 00a3 49       		.uleb128 0x49
 2925 00a4 13       		.uleb128 0x13
 2926 00a5 38       		.uleb128 0x38
 2927 00a6 0B       		.uleb128 0xb
 2928 00a7 00       		.byte	0
 2929 00a8 00       		.byte	0
 2930 00a9 0E       		.uleb128 0xe
 2931 00aa 13       		.uleb128 0x13
 2932 00ab 01       		.byte	0x1
 2933 00ac 0B       		.uleb128 0xb
 2934 00ad 0B       		.uleb128 0xb
 2935 00ae 3A       		.uleb128 0x3a
 2936 00af 0B       		.uleb128 0xb
 2937 00b0 3B       		.uleb128 0x3b
 2938 00b1 0B       		.uleb128 0xb
 2939 00b2 01       		.uleb128 0x1
 2940 00b3 13       		.uleb128 0x13
 2941 00b4 00       		.byte	0
 2942 00b5 00       		.byte	0
 2943 00b6 0F       		.uleb128 0xf
 2944 00b7 0D       		.uleb128 0xd
 2945 00b8 00       		.byte	0
 2946 00b9 03       		.uleb128 0x3
 2947 00ba 0E       		.uleb128 0xe
 2948 00bb 3A       		.uleb128 0x3a
 2949 00bc 0B       		.uleb128 0xb
 2950 00bd 3B       		.uleb128 0x3b
 2951 00be 0B       		.uleb128 0xb
 2952 00bf 49       		.uleb128 0x49
 2953 00c0 13       		.uleb128 0x13
 2954 00c1 38       		.uleb128 0x38
 2955 00c2 0B       		.uleb128 0xb
 2956 00c3 00       		.byte	0
 2957 00c4 00       		.byte	0
 2958 00c5 10       		.uleb128 0x10
 2959 00c6 2E       		.uleb128 0x2e
 2960 00c7 01       		.byte	0x1
 2961 00c8 3F       		.uleb128 0x3f
 2962 00c9 19       		.uleb128 0x19
 2963 00ca 03       		.uleb128 0x3
 2964 00cb 0E       		.uleb128 0xe
ARM GAS  /tmp/cc7Xux4D.s 			page 53


 2965 00cc 3A       		.uleb128 0x3a
 2966 00cd 0B       		.uleb128 0xb
 2967 00ce 3B       		.uleb128 0x3b
 2968 00cf 05       		.uleb128 0x5
 2969 00d0 27       		.uleb128 0x27
 2970 00d1 19       		.uleb128 0x19
 2971 00d2 11       		.uleb128 0x11
 2972 00d3 01       		.uleb128 0x1
 2973 00d4 12       		.uleb128 0x12
 2974 00d5 06       		.uleb128 0x6
 2975 00d6 40       		.uleb128 0x40
 2976 00d7 18       		.uleb128 0x18
 2977 00d8 9742     		.uleb128 0x2117
 2978 00da 19       		.uleb128 0x19
 2979 00db 01       		.uleb128 0x1
 2980 00dc 13       		.uleb128 0x13
 2981 00dd 00       		.byte	0
 2982 00de 00       		.byte	0
 2983 00df 11       		.uleb128 0x11
 2984 00e0 05       		.uleb128 0x5
 2985 00e1 00       		.byte	0
 2986 00e2 03       		.uleb128 0x3
 2987 00e3 0E       		.uleb128 0xe
 2988 00e4 3A       		.uleb128 0x3a
 2989 00e5 0B       		.uleb128 0xb
 2990 00e6 3B       		.uleb128 0x3b
 2991 00e7 05       		.uleb128 0x5
 2992 00e8 49       		.uleb128 0x49
 2993 00e9 13       		.uleb128 0x13
 2994 00ea 02       		.uleb128 0x2
 2995 00eb 18       		.uleb128 0x18
 2996 00ec 00       		.byte	0
 2997 00ed 00       		.byte	0
 2998 00ee 12       		.uleb128 0x12
 2999 00ef 05       		.uleb128 0x5
 3000 00f0 00       		.byte	0
 3001 00f1 03       		.uleb128 0x3
 3002 00f2 0E       		.uleb128 0xe
 3003 00f3 3A       		.uleb128 0x3a
 3004 00f4 0B       		.uleb128 0xb
 3005 00f5 3B       		.uleb128 0x3b
 3006 00f6 05       		.uleb128 0x5
 3007 00f7 49       		.uleb128 0x49
 3008 00f8 13       		.uleb128 0x13
 3009 00f9 02       		.uleb128 0x2
 3010 00fa 17       		.uleb128 0x17
 3011 00fb 00       		.byte	0
 3012 00fc 00       		.byte	0
 3013 00fd 13       		.uleb128 0x13
 3014 00fe 34       		.uleb128 0x34
 3015 00ff 00       		.byte	0
 3016 0100 03       		.uleb128 0x3
 3017 0101 0E       		.uleb128 0xe
 3018 0102 3A       		.uleb128 0x3a
 3019 0103 0B       		.uleb128 0xb
 3020 0104 3B       		.uleb128 0x3b
 3021 0105 05       		.uleb128 0x5
ARM GAS  /tmp/cc7Xux4D.s 			page 54


 3022 0106 49       		.uleb128 0x49
 3023 0107 13       		.uleb128 0x13
 3024 0108 02       		.uleb128 0x2
 3025 0109 17       		.uleb128 0x17
 3026 010a 00       		.byte	0
 3027 010b 00       		.byte	0
 3028 010c 14       		.uleb128 0x14
 3029 010d 0F       		.uleb128 0xf
 3030 010e 00       		.byte	0
 3031 010f 0B       		.uleb128 0xb
 3032 0110 0B       		.uleb128 0xb
 3033 0111 49       		.uleb128 0x49
 3034 0112 13       		.uleb128 0x13
 3035 0113 00       		.byte	0
 3036 0114 00       		.byte	0
 3037 0115 15       		.uleb128 0x15
 3038 0116 2E       		.uleb128 0x2e
 3039 0117 01       		.byte	0x1
 3040 0118 3F       		.uleb128 0x3f
 3041 0119 19       		.uleb128 0x19
 3042 011a 03       		.uleb128 0x3
 3043 011b 0E       		.uleb128 0xe
 3044 011c 3A       		.uleb128 0x3a
 3045 011d 0B       		.uleb128 0xb
 3046 011e 3B       		.uleb128 0x3b
 3047 011f 05       		.uleb128 0x5
 3048 0120 27       		.uleb128 0x27
 3049 0121 19       		.uleb128 0x19
 3050 0122 49       		.uleb128 0x49
 3051 0123 13       		.uleb128 0x13
 3052 0124 11       		.uleb128 0x11
 3053 0125 01       		.uleb128 0x1
 3054 0126 12       		.uleb128 0x12
 3055 0127 06       		.uleb128 0x6
 3056 0128 40       		.uleb128 0x40
 3057 0129 18       		.uleb128 0x18
 3058 012a 9742     		.uleb128 0x2117
 3059 012c 19       		.uleb128 0x19
 3060 012d 01       		.uleb128 0x1
 3061 012e 13       		.uleb128 0x13
 3062 012f 00       		.byte	0
 3063 0130 00       		.byte	0
 3064 0131 16       		.uleb128 0x16
 3065 0132 34       		.uleb128 0x34
 3066 0133 00       		.byte	0
 3067 0134 03       		.uleb128 0x3
 3068 0135 0E       		.uleb128 0xe
 3069 0136 3A       		.uleb128 0x3a
 3070 0137 0B       		.uleb128 0xb
 3071 0138 3B       		.uleb128 0x3b
 3072 0139 05       		.uleb128 0x5
 3073 013a 49       		.uleb128 0x49
 3074 013b 13       		.uleb128 0x13
 3075 013c 02       		.uleb128 0x2
 3076 013d 18       		.uleb128 0x18
 3077 013e 00       		.byte	0
 3078 013f 00       		.byte	0
ARM GAS  /tmp/cc7Xux4D.s 			page 55


 3079 0140 17       		.uleb128 0x17
 3080 0141 2E       		.uleb128 0x2e
 3081 0142 01       		.byte	0x1
 3082 0143 3F       		.uleb128 0x3f
 3083 0144 19       		.uleb128 0x19
 3084 0145 03       		.uleb128 0x3
 3085 0146 0E       		.uleb128 0xe
 3086 0147 3A       		.uleb128 0x3a
 3087 0148 0B       		.uleb128 0xb
 3088 0149 3B       		.uleb128 0x3b
 3089 014a 0B       		.uleb128 0xb
 3090 014b 27       		.uleb128 0x27
 3091 014c 19       		.uleb128 0x19
 3092 014d 11       		.uleb128 0x11
 3093 014e 01       		.uleb128 0x1
 3094 014f 12       		.uleb128 0x12
 3095 0150 06       		.uleb128 0x6
 3096 0151 40       		.uleb128 0x40
 3097 0152 18       		.uleb128 0x18
 3098 0153 9742     		.uleb128 0x2117
 3099 0155 19       		.uleb128 0x19
 3100 0156 01       		.uleb128 0x1
 3101 0157 13       		.uleb128 0x13
 3102 0158 00       		.byte	0
 3103 0159 00       		.byte	0
 3104 015a 18       		.uleb128 0x18
 3105 015b 05       		.uleb128 0x5
 3106 015c 00       		.byte	0
 3107 015d 03       		.uleb128 0x3
 3108 015e 0E       		.uleb128 0xe
 3109 015f 3A       		.uleb128 0x3a
 3110 0160 0B       		.uleb128 0xb
 3111 0161 3B       		.uleb128 0x3b
 3112 0162 0B       		.uleb128 0xb
 3113 0163 49       		.uleb128 0x49
 3114 0164 13       		.uleb128 0x13
 3115 0165 02       		.uleb128 0x2
 3116 0166 17       		.uleb128 0x17
 3117 0167 00       		.byte	0
 3118 0168 00       		.byte	0
 3119 0169 19       		.uleb128 0x19
 3120 016a 34       		.uleb128 0x34
 3121 016b 00       		.byte	0
 3122 016c 03       		.uleb128 0x3
 3123 016d 0E       		.uleb128 0xe
 3124 016e 3A       		.uleb128 0x3a
 3125 016f 0B       		.uleb128 0xb
 3126 0170 3B       		.uleb128 0x3b
 3127 0171 0B       		.uleb128 0xb
 3128 0172 49       		.uleb128 0x49
 3129 0173 13       		.uleb128 0x13
 3130 0174 02       		.uleb128 0x2
 3131 0175 17       		.uleb128 0x17
 3132 0176 00       		.byte	0
 3133 0177 00       		.byte	0
 3134 0178 1A       		.uleb128 0x1a
 3135 0179 34       		.uleb128 0x34
ARM GAS  /tmp/cc7Xux4D.s 			page 56


 3136 017a 00       		.byte	0
 3137 017b 03       		.uleb128 0x3
 3138 017c 0E       		.uleb128 0xe
 3139 017d 3A       		.uleb128 0x3a
 3140 017e 0B       		.uleb128 0xb
 3141 017f 3B       		.uleb128 0x3b
 3142 0180 0B       		.uleb128 0xb
 3143 0181 49       		.uleb128 0x49
 3144 0182 13       		.uleb128 0x13
 3145 0183 02       		.uleb128 0x2
 3146 0184 18       		.uleb128 0x18
 3147 0185 00       		.byte	0
 3148 0186 00       		.byte	0
 3149 0187 1B       		.uleb128 0x1b
 3150 0188 898201   		.uleb128 0x4109
 3151 018b 01       		.byte	0x1
 3152 018c 11       		.uleb128 0x11
 3153 018d 01       		.uleb128 0x1
 3154 018e 31       		.uleb128 0x31
 3155 018f 13       		.uleb128 0x13
 3156 0190 00       		.byte	0
 3157 0191 00       		.byte	0
 3158 0192 1C       		.uleb128 0x1c
 3159 0193 8A8201   		.uleb128 0x410a
 3160 0196 00       		.byte	0
 3161 0197 02       		.uleb128 0x2
 3162 0198 18       		.uleb128 0x18
 3163 0199 9142     		.uleb128 0x2111
 3164 019b 18       		.uleb128 0x18
 3165 019c 00       		.byte	0
 3166 019d 00       		.byte	0
 3167 019e 1D       		.uleb128 0x1d
 3168 019f 898201   		.uleb128 0x4109
 3169 01a2 01       		.byte	0x1
 3170 01a3 11       		.uleb128 0x11
 3171 01a4 01       		.uleb128 0x1
 3172 01a5 31       		.uleb128 0x31
 3173 01a6 13       		.uleb128 0x13
 3174 01a7 01       		.uleb128 0x1
 3175 01a8 13       		.uleb128 0x13
 3176 01a9 00       		.byte	0
 3177 01aa 00       		.byte	0
 3178 01ab 1E       		.uleb128 0x1e
 3179 01ac 898201   		.uleb128 0x4109
 3180 01af 01       		.byte	0x1
 3181 01b0 11       		.uleb128 0x11
 3182 01b1 01       		.uleb128 0x1
 3183 01b2 9542     		.uleb128 0x2115
 3184 01b4 19       		.uleb128 0x19
 3185 01b5 31       		.uleb128 0x31
 3186 01b6 13       		.uleb128 0x13
 3187 01b7 01       		.uleb128 0x1
 3188 01b8 13       		.uleb128 0x13
 3189 01b9 00       		.byte	0
 3190 01ba 00       		.byte	0
 3191 01bb 1F       		.uleb128 0x1f
 3192 01bc 898201   		.uleb128 0x4109
ARM GAS  /tmp/cc7Xux4D.s 			page 57


 3193 01bf 01       		.byte	0x1
 3194 01c0 11       		.uleb128 0x11
 3195 01c1 01       		.uleb128 0x1
 3196 01c2 9542     		.uleb128 0x2115
 3197 01c4 19       		.uleb128 0x19
 3198 01c5 31       		.uleb128 0x31
 3199 01c6 13       		.uleb128 0x13
 3200 01c7 00       		.byte	0
 3201 01c8 00       		.byte	0
 3202 01c9 20       		.uleb128 0x20
 3203 01ca 2E       		.uleb128 0x2e
 3204 01cb 00       		.byte	0
 3205 01cc 3F       		.uleb128 0x3f
 3206 01cd 19       		.uleb128 0x19
 3207 01ce 3C       		.uleb128 0x3c
 3208 01cf 19       		.uleb128 0x19
 3209 01d0 6E       		.uleb128 0x6e
 3210 01d1 0E       		.uleb128 0xe
 3211 01d2 03       		.uleb128 0x3
 3212 01d3 0E       		.uleb128 0xe
 3213 01d4 3A       		.uleb128 0x3a
 3214 01d5 0B       		.uleb128 0xb
 3215 01d6 3B       		.uleb128 0x3b
 3216 01d7 05       		.uleb128 0x5
 3217 01d8 00       		.byte	0
 3218 01d9 00       		.byte	0
 3219 01da 00       		.byte	0
 3220              		.section	.debug_loc,"",%progbits
 3221              	.Ldebug_loc0:
 3222              	.LLST33:
 3223 0000 00000000 		.4byte	.LVL116
 3224 0004 02000000 		.4byte	.LVL117
 3225 0008 0100     		.2byte	0x1
 3226 000a 51       		.byte	0x51
 3227 000b 02000000 		.4byte	.LVL117
 3228 000f 10000000 		.4byte	.LFE139
 3229 0013 0400     		.2byte	0x4
 3230 0015 F3       		.byte	0xf3
 3231 0016 01       		.uleb128 0x1
 3232 0017 51       		.byte	0x51
 3233 0018 9F       		.byte	0x9f
 3234 0019 00000000 		.4byte	0
 3235 001d 00000000 		.4byte	0
 3236              	.LLST34:
 3237 0021 00000000 		.4byte	.LVL116
 3238 0025 02000000 		.4byte	.LVL117
 3239 0029 0500     		.2byte	0x5
 3240 002b 71       		.byte	0x71
 3241 002c 00       		.sleb128 0
 3242 002d 38       		.byte	0x38
 3243 002e 25       		.byte	0x25
 3244 002f 9F       		.byte	0x9f
 3245 0030 02000000 		.4byte	.LVL117
 3246 0034 10000000 		.4byte	.LFE139
 3247 0038 0600     		.2byte	0x6
 3248 003a F3       		.byte	0xf3
 3249 003b 01       		.uleb128 0x1
ARM GAS  /tmp/cc7Xux4D.s 			page 58


 3250 003c 51       		.byte	0x51
 3251 003d 38       		.byte	0x38
 3252 003e 25       		.byte	0x25
 3253 003f 9F       		.byte	0x9f
 3254 0040 00000000 		.4byte	0
 3255 0044 00000000 		.4byte	0
 3256              	.LLST35:
 3257 0048 00000000 		.4byte	.LVL116
 3258 004c 02000000 		.4byte	.LVL117
 3259 0050 0700     		.2byte	0x7
 3260 0052 31       		.byte	0x31
 3261 0053 71       		.byte	0x71
 3262 0054 00       		.sleb128 0
 3263 0055 38       		.byte	0x38
 3264 0056 25       		.byte	0x25
 3265 0057 24       		.byte	0x24
 3266 0058 9F       		.byte	0x9f
 3267 0059 02000000 		.4byte	.LVL117
 3268 005d 10000000 		.4byte	.LFE139
 3269 0061 0800     		.2byte	0x8
 3270 0063 31       		.byte	0x31
 3271 0064 F3       		.byte	0xf3
 3272 0065 01       		.uleb128 0x1
 3273 0066 51       		.byte	0x51
 3274 0067 38       		.byte	0x38
 3275 0068 25       		.byte	0x25
 3276 0069 24       		.byte	0x24
 3277 006a 9F       		.byte	0x9f
 3278 006b 00000000 		.4byte	0
 3279 006f 00000000 		.4byte	0
 3280              	.LLST27:
 3281 0073 00000000 		.4byte	.LVL100
 3282 0077 32000000 		.4byte	.LVL109
 3283 007b 0100     		.2byte	0x1
 3284 007d 50       		.byte	0x50
 3285 007e 32000000 		.4byte	.LVL109
 3286 0082 3A000000 		.4byte	.LVL111
 3287 0086 0400     		.2byte	0x4
 3288 0088 F3       		.byte	0xf3
 3289 0089 01       		.uleb128 0x1
 3290 008a 50       		.byte	0x50
 3291 008b 9F       		.byte	0x9f
 3292 008c 3A000000 		.4byte	.LVL111
 3293 0090 3C000000 		.4byte	.LVL112
 3294 0094 0100     		.2byte	0x1
 3295 0096 50       		.byte	0x50
 3296 0097 3C000000 		.4byte	.LVL112
 3297 009b 42000000 		.4byte	.LVL113
 3298 009f 0400     		.2byte	0x4
 3299 00a1 F3       		.byte	0xf3
 3300 00a2 01       		.uleb128 0x1
 3301 00a3 50       		.byte	0x50
 3302 00a4 9F       		.byte	0x9f
 3303 00a5 42000000 		.4byte	.LVL113
 3304 00a9 48000000 		.4byte	.LFE138
 3305 00ad 0100     		.2byte	0x1
 3306 00af 50       		.byte	0x50
ARM GAS  /tmp/cc7Xux4D.s 			page 59


 3307 00b0 00000000 		.4byte	0
 3308 00b4 00000000 		.4byte	0
 3309              	.LLST28:
 3310 00b8 00000000 		.4byte	.LVL100
 3311 00bc 28000000 		.4byte	.LVL108
 3312 00c0 0100     		.2byte	0x1
 3313 00c2 51       		.byte	0x51
 3314 00c3 28000000 		.4byte	.LVL108
 3315 00c7 3A000000 		.4byte	.LVL111
 3316 00cb 0400     		.2byte	0x4
 3317 00cd F3       		.byte	0xf3
 3318 00ce 01       		.uleb128 0x1
 3319 00cf 51       		.byte	0x51
 3320 00d0 9F       		.byte	0x9f
 3321 00d1 3A000000 		.4byte	.LVL111
 3322 00d5 48000000 		.4byte	.LFE138
 3323 00d9 0100     		.2byte	0x1
 3324 00db 51       		.byte	0x51
 3325 00dc 00000000 		.4byte	0
 3326 00e0 00000000 		.4byte	0
 3327              	.LLST29:
 3328 00e4 00000000 		.4byte	.LVL100
 3329 00e8 1E000000 		.4byte	.LVL105
 3330 00ec 0200     		.2byte	0x2
 3331 00ee 30       		.byte	0x30
 3332 00ef 9F       		.byte	0x9f
 3333 00f0 1E000000 		.4byte	.LVL105
 3334 00f4 22000000 		.4byte	.LVL106
 3335 00f8 0B00     		.2byte	0xb
 3336 00fa 31       		.byte	0x31
 3337 00fb 71       		.byte	0x71
 3338 00fc 00       		.sleb128 0
 3339 00fd 38       		.byte	0x38
 3340 00fe 25       		.byte	0x25
 3341 00ff 0A       		.byte	0xa
 3342 0100 FFFF     		.2byte	0xffff
 3343 0102 1A       		.byte	0x1a
 3344 0103 24       		.byte	0x24
 3345 0104 9F       		.byte	0x9f
 3346 0105 22000000 		.4byte	.LVL106
 3347 0109 28000000 		.4byte	.LVL108
 3348 010d 1200     		.2byte	0x12
 3349 010f 31       		.byte	0x31
 3350 0110 71       		.byte	0x71
 3351 0111 00       		.sleb128 0
 3352 0112 38       		.byte	0x38
 3353 0113 25       		.byte	0x25
 3354 0114 0A       		.byte	0xa
 3355 0115 FFFF     		.2byte	0xffff
 3356 0117 1A       		.byte	0x1a
 3357 0118 24       		.byte	0x24
 3358 0119 72       		.byte	0x72
 3359 011a 00       		.sleb128 0
 3360 011b 0A       		.byte	0xa
 3361 011c FFFF     		.2byte	0xffff
 3362 011e 1A       		.byte	0x1a
 3363 011f 1A       		.byte	0x1a
ARM GAS  /tmp/cc7Xux4D.s 			page 60


 3364 0120 9F       		.byte	0x9f
 3365 0121 28000000 		.4byte	.LVL108
 3366 0125 3A000000 		.4byte	.LVL111
 3367 0129 1300     		.2byte	0x13
 3368 012b 31       		.byte	0x31
 3369 012c F3       		.byte	0xf3
 3370 012d 01       		.uleb128 0x1
 3371 012e 51       		.byte	0x51
 3372 012f 38       		.byte	0x38
 3373 0130 25       		.byte	0x25
 3374 0131 0A       		.byte	0xa
 3375 0132 FFFF     		.2byte	0xffff
 3376 0134 1A       		.byte	0x1a
 3377 0135 24       		.byte	0x24
 3378 0136 72       		.byte	0x72
 3379 0137 00       		.sleb128 0
 3380 0138 0A       		.byte	0xa
 3381 0139 FFFF     		.2byte	0xffff
 3382 013b 1A       		.byte	0x1a
 3383 013c 1A       		.byte	0x1a
 3384 013d 9F       		.byte	0x9f
 3385 013e 3A000000 		.4byte	.LVL111
 3386 0142 42000000 		.4byte	.LVL113
 3387 0146 1200     		.2byte	0x12
 3388 0148 31       		.byte	0x31
 3389 0149 71       		.byte	0x71
 3390 014a 00       		.sleb128 0
 3391 014b 38       		.byte	0x38
 3392 014c 25       		.byte	0x25
 3393 014d 0A       		.byte	0xa
 3394 014e FFFF     		.2byte	0xffff
 3395 0150 1A       		.byte	0x1a
 3396 0151 24       		.byte	0x24
 3397 0152 72       		.byte	0x72
 3398 0153 00       		.sleb128 0
 3399 0154 0A       		.byte	0xa
 3400 0155 FFFF     		.2byte	0xffff
 3401 0157 1A       		.byte	0x1a
 3402 0158 1A       		.byte	0x1a
 3403 0159 9F       		.byte	0x9f
 3404 015a 42000000 		.4byte	.LVL113
 3405 015e 48000000 		.4byte	.LFE138
 3406 0162 0200     		.2byte	0x2
 3407 0164 30       		.byte	0x30
 3408 0165 9F       		.byte	0x9f
 3409 0166 00000000 		.4byte	0
 3410 016a 00000000 		.4byte	0
 3411              	.LLST30:
 3412 016e 00000000 		.4byte	.LVL100
 3413 0172 0C000000 		.4byte	.LVL102
 3414 0176 0200     		.2byte	0x2
 3415 0178 30       		.byte	0x30
 3416 0179 9F       		.byte	0x9f
 3417 017a 0C000000 		.4byte	.LVL102
 3418 017e 12000000 		.4byte	.LVL103
 3419 0182 0100     		.2byte	0x1
 3420 0184 54       		.byte	0x54
ARM GAS  /tmp/cc7Xux4D.s 			page 61


 3421 0185 12000000 		.4byte	.LVL103
 3422 0189 26000000 		.4byte	.LVL107
 3423 018d 0100     		.2byte	0x1
 3424 018f 53       		.byte	0x53
 3425 0190 3A000000 		.4byte	.LVL111
 3426 0194 48000000 		.4byte	.LFE138
 3427 0198 0100     		.2byte	0x1
 3428 019a 53       		.byte	0x53
 3429 019b 00000000 		.4byte	0
 3430 019f 00000000 		.4byte	0
 3431              	.LLST31:
 3432 01a3 00000000 		.4byte	.LVL100
 3433 01a7 04000000 		.4byte	.LVL101
 3434 01ab 0200     		.2byte	0x2
 3435 01ad 30       		.byte	0x30
 3436 01ae 9F       		.byte	0x9f
 3437 01af 04000000 		.4byte	.LVL101
 3438 01b3 1A000000 		.4byte	.LVL104
 3439 01b7 0600     		.2byte	0x6
 3440 01b9 72       		.byte	0x72
 3441 01ba 00       		.sleb128 0
 3442 01bb 08       		.byte	0x8
 3443 01bc FF       		.byte	0xff
 3444 01bd 1A       		.byte	0x1a
 3445 01be 9F       		.byte	0x9f
 3446 01bf 1A000000 		.4byte	.LVL104
 3447 01c3 28000000 		.4byte	.LVL108
 3448 01c7 0B00     		.2byte	0xb
 3449 01c9 71       		.byte	0x71
 3450 01ca 00       		.sleb128 0
 3451 01cb 09       		.byte	0x9
 3452 01cc FC       		.byte	0xfc
 3453 01cd 24       		.byte	0x24
 3454 01ce 31       		.byte	0x31
 3455 01cf 25       		.byte	0x25
 3456 01d0 08       		.byte	0x8
 3457 01d1 FF       		.byte	0xff
 3458 01d2 1A       		.byte	0x1a
 3459 01d3 9F       		.byte	0x9f
 3460 01d4 3A000000 		.4byte	.LVL111
 3461 01d8 42000000 		.4byte	.LVL113
 3462 01dc 0B00     		.2byte	0xb
 3463 01de 71       		.byte	0x71
 3464 01df 00       		.sleb128 0
 3465 01e0 09       		.byte	0x9
 3466 01e1 FC       		.byte	0xfc
 3467 01e2 24       		.byte	0x24
 3468 01e3 31       		.byte	0x31
 3469 01e4 25       		.byte	0x25
 3470 01e5 08       		.byte	0x8
 3471 01e6 FF       		.byte	0xff
 3472 01e7 1A       		.byte	0x1a
 3473 01e8 9F       		.byte	0x9f
 3474 01e9 42000000 		.4byte	.LVL113
 3475 01ed 44000000 		.4byte	.LVL114
 3476 01f1 0600     		.2byte	0x6
 3477 01f3 72       		.byte	0x72
ARM GAS  /tmp/cc7Xux4D.s 			page 62


 3478 01f4 00       		.sleb128 0
 3479 01f5 08       		.byte	0x8
 3480 01f6 FF       		.byte	0xff
 3481 01f7 1A       		.byte	0x1a
 3482 01f8 9F       		.byte	0x9f
 3483 01f9 44000000 		.4byte	.LVL114
 3484 01fd 48000000 		.4byte	.LFE138
 3485 0201 0B00     		.2byte	0xb
 3486 0203 71       		.byte	0x71
 3487 0204 00       		.sleb128 0
 3488 0205 09       		.byte	0x9
 3489 0206 FC       		.byte	0xfc
 3490 0207 24       		.byte	0x24
 3491 0208 31       		.byte	0x31
 3492 0209 25       		.byte	0x25
 3493 020a 08       		.byte	0x8
 3494 020b FF       		.byte	0xff
 3495 020c 1A       		.byte	0x1a
 3496 020d 9F       		.byte	0x9f
 3497 020e 00000000 		.4byte	0
 3498 0212 00000000 		.4byte	0
 3499              	.LLST32:
 3500 0216 00000000 		.4byte	.LVL100
 3501 021a 34000000 		.4byte	.LVL110
 3502 021e 0200     		.2byte	0x2
 3503 0220 30       		.byte	0x30
 3504 0221 9F       		.byte	0x9f
 3505 0222 34000000 		.4byte	.LVL110
 3506 0226 3A000000 		.4byte	.LVL111
 3507 022a 0100     		.2byte	0x1
 3508 022c 50       		.byte	0x50
 3509 022d 3A000000 		.4byte	.LVL111
 3510 0231 3C000000 		.4byte	.LVL112
 3511 0235 0200     		.2byte	0x2
 3512 0237 30       		.byte	0x30
 3513 0238 9F       		.byte	0x9f
 3514 0239 3C000000 		.4byte	.LVL112
 3515 023d 42000000 		.4byte	.LVL113
 3516 0241 0100     		.2byte	0x1
 3517 0243 50       		.byte	0x50
 3518 0244 42000000 		.4byte	.LVL113
 3519 0248 48000000 		.4byte	.LFE138
 3520 024c 0200     		.2byte	0x2
 3521 024e 30       		.byte	0x30
 3522 024f 9F       		.byte	0x9f
 3523 0250 00000000 		.4byte	0
 3524 0254 00000000 		.4byte	0
 3525              	.LLST26:
 3526 0258 00000000 		.4byte	.LVL98
 3527 025c 02000000 		.4byte	.LVL99
 3528 0260 0100     		.2byte	0x1
 3529 0262 51       		.byte	0x51
 3530 0263 02000000 		.4byte	.LVL99
 3531 0267 08000000 		.4byte	.LFE137
 3532 026b 0400     		.2byte	0x4
 3533 026d F3       		.byte	0xf3
 3534 026e 01       		.uleb128 0x1
ARM GAS  /tmp/cc7Xux4D.s 			page 63


 3535 026f 51       		.byte	0x51
 3536 0270 9F       		.byte	0x9f
 3537 0271 00000000 		.4byte	0
 3538 0275 00000000 		.4byte	0
 3539              	.LLST24:
 3540 0279 00000000 		.4byte	.LVL95
 3541 027d 08000000 		.4byte	.LVL97
 3542 0281 0100     		.2byte	0x1
 3543 0283 50       		.byte	0x50
 3544 0284 08000000 		.4byte	.LVL97
 3545 0288 0C000000 		.4byte	.LFE136
 3546 028c 0400     		.2byte	0x4
 3547 028e F3       		.byte	0xf3
 3548 028f 01       		.uleb128 0x1
 3549 0290 50       		.byte	0x50
 3550 0291 9F       		.byte	0x9f
 3551 0292 00000000 		.4byte	0
 3552 0296 00000000 		.4byte	0
 3553              	.LLST25:
 3554 029a 00000000 		.4byte	.LVL95
 3555 029e 02000000 		.4byte	.LVL96
 3556 02a2 0200     		.2byte	0x2
 3557 02a4 30       		.byte	0x30
 3558 02a5 9F       		.byte	0x9f
 3559 02a6 02000000 		.4byte	.LVL96
 3560 02aa 0C000000 		.4byte	.LFE136
 3561 02ae 0A00     		.2byte	0xa
 3562 02b0 71       		.byte	0x71
 3563 02b1 00       		.sleb128 0
 3564 02b2 73       		.byte	0x73
 3565 02b3 00       		.sleb128 0
 3566 02b4 1A       		.byte	0x1a
 3567 02b5 40       		.byte	0x40
 3568 02b6 24       		.byte	0x24
 3569 02b7 30       		.byte	0x30
 3570 02b8 2E       		.byte	0x2e
 3571 02b9 9F       		.byte	0x9f
 3572 02ba 00000000 		.4byte	0
 3573 02be 00000000 		.4byte	0
 3574              	.LLST18:
 3575 02c2 00000000 		.4byte	.LVL82
 3576 02c6 1A000000 		.4byte	.LVL86
 3577 02ca 0100     		.2byte	0x1
 3578 02cc 50       		.byte	0x50
 3579 02cd 1A000000 		.4byte	.LVL86
 3580 02d1 38000000 		.4byte	.LVL93
 3581 02d5 0400     		.2byte	0x4
 3582 02d7 F3       		.byte	0xf3
 3583 02d8 01       		.uleb128 0x1
 3584 02d9 50       		.byte	0x50
 3585 02da 9F       		.byte	0x9f
 3586 02db 38000000 		.4byte	.LVL93
 3587 02df 3A000000 		.4byte	.LVL94
 3588 02e3 0100     		.2byte	0x1
 3589 02e5 50       		.byte	0x50
 3590 02e6 3A000000 		.4byte	.LVL94
 3591 02ea 3C000000 		.4byte	.LFE135
ARM GAS  /tmp/cc7Xux4D.s 			page 64


 3592 02ee 0300     		.2byte	0x3
 3593 02f0 70       		.byte	0x70
 3594 02f1 74       		.sleb128 -12
 3595 02f2 9F       		.byte	0x9f
 3596 02f3 00000000 		.4byte	0
 3597 02f7 00000000 		.4byte	0
 3598              	.LLST19:
 3599 02fb 00000000 		.4byte	.LVL82
 3600 02ff 0A000000 		.4byte	.LVL83
 3601 0303 0100     		.2byte	0x1
 3602 0305 51       		.byte	0x51
 3603 0306 0A000000 		.4byte	.LVL83
 3604 030a 3C000000 		.4byte	.LFE135
 3605 030e 0400     		.2byte	0x4
 3606 0310 F3       		.byte	0xf3
 3607 0311 01       		.uleb128 0x1
 3608 0312 51       		.byte	0x51
 3609 0313 9F       		.byte	0x9f
 3610 0314 00000000 		.4byte	0
 3611 0318 00000000 		.4byte	0
 3612              	.LLST20:
 3613 031c 00000000 		.4byte	.LVL82
 3614 0320 20000000 		.4byte	.LVL88
 3615 0324 0100     		.2byte	0x1
 3616 0326 52       		.byte	0x52
 3617 0327 20000000 		.4byte	.LVL88
 3618 032b 2C000000 		.4byte	.LVL90
 3619 032f 0400     		.2byte	0x4
 3620 0331 F3       		.byte	0xf3
 3621 0332 01       		.uleb128 0x1
 3622 0333 52       		.byte	0x52
 3623 0334 9F       		.byte	0x9f
 3624 0335 2C000000 		.4byte	.LVL90
 3625 0339 2E000000 		.4byte	.LVL91
 3626 033d 0100     		.2byte	0x1
 3627 033f 52       		.byte	0x52
 3628 0340 2E000000 		.4byte	.LVL91
 3629 0344 38000000 		.4byte	.LVL93
 3630 0348 0400     		.2byte	0x4
 3631 034a F3       		.byte	0xf3
 3632 034b 01       		.uleb128 0x1
 3633 034c 52       		.byte	0x52
 3634 034d 9F       		.byte	0x9f
 3635 034e 38000000 		.4byte	.LVL93
 3636 0352 3C000000 		.4byte	.LFE135
 3637 0356 0100     		.2byte	0x1
 3638 0358 52       		.byte	0x52
 3639 0359 00000000 		.4byte	0
 3640 035d 00000000 		.4byte	0
 3641              	.LLST21:
 3642 0361 00000000 		.4byte	.LVL82
 3643 0365 0C000000 		.4byte	.LVL84
 3644 0369 0200     		.2byte	0x2
 3645 036b 30       		.byte	0x30
 3646 036c 9F       		.byte	0x9f
 3647 036d 0C000000 		.4byte	.LVL84
 3648 0371 3C000000 		.4byte	.LFE135
ARM GAS  /tmp/cc7Xux4D.s 			page 65


 3649 0375 0600     		.2byte	0x6
 3650 0377 71       		.byte	0x71
 3651 0378 00       		.sleb128 0
 3652 0379 08       		.byte	0x8
 3653 037a FF       		.byte	0xff
 3654 037b 1A       		.byte	0x1a
 3655 037c 9F       		.byte	0x9f
 3656 037d 00000000 		.4byte	0
 3657 0381 00000000 		.4byte	0
 3658              	.LLST22:
 3659 0385 00000000 		.4byte	.LVL82
 3660 0389 0C000000 		.4byte	.LVL84
 3661 038d 0200     		.2byte	0x2
 3662 038f 30       		.byte	0x30
 3663 0390 9F       		.byte	0x9f
 3664 0391 00000000 		.4byte	0
 3665 0395 00000000 		.4byte	0
 3666              	.LLST23:
 3667 0399 00000000 		.4byte	.LVL82
 3668 039d 12000000 		.4byte	.LVL85
 3669 03a1 0200     		.2byte	0x2
 3670 03a3 30       		.byte	0x30
 3671 03a4 9F       		.byte	0x9f
 3672 03a5 12000000 		.4byte	.LVL85
 3673 03a9 28000000 		.4byte	.LVL89
 3674 03ad 0100     		.2byte	0x1
 3675 03af 53       		.byte	0x53
 3676 03b0 2C000000 		.4byte	.LVL90
 3677 03b4 34000000 		.4byte	.LVL92
 3678 03b8 0100     		.2byte	0x1
 3679 03ba 53       		.byte	0x53
 3680 03bb 38000000 		.4byte	.LVL93
 3681 03bf 3C000000 		.4byte	.LFE135
 3682 03c3 0100     		.2byte	0x1
 3683 03c5 53       		.byte	0x53
 3684 03c6 00000000 		.4byte	0
 3685 03ca 00000000 		.4byte	0
 3686              	.LLST17:
 3687 03ce 00000000 		.4byte	.LVL78
 3688 03d2 08000000 		.4byte	.LVL79
 3689 03d6 0100     		.2byte	0x1
 3690 03d8 51       		.byte	0x51
 3691 03d9 08000000 		.4byte	.LVL79
 3692 03dd 0C000000 		.4byte	.LVL80
 3693 03e1 0400     		.2byte	0x4
 3694 03e3 F3       		.byte	0xf3
 3695 03e4 01       		.uleb128 0x1
 3696 03e5 51       		.byte	0x51
 3697 03e6 9F       		.byte	0x9f
 3698 03e7 0C000000 		.4byte	.LVL80
 3699 03eb 0E000000 		.4byte	.LVL81
 3700 03ef 0100     		.2byte	0x1
 3701 03f1 51       		.byte	0x51
 3702 03f2 0E000000 		.4byte	.LVL81
 3703 03f6 12000000 		.4byte	.LFE134
 3704 03fa 0400     		.2byte	0x4
 3705 03fc F3       		.byte	0xf3
ARM GAS  /tmp/cc7Xux4D.s 			page 66


 3706 03fd 01       		.uleb128 0x1
 3707 03fe 51       		.byte	0x51
 3708 03ff 9F       		.byte	0x9f
 3709 0400 00000000 		.4byte	0
 3710 0404 00000000 		.4byte	0
 3711              	.LLST16:
 3712 0408 00000000 		.4byte	.LVL75
 3713 040c 10000000 		.4byte	.LVL76
 3714 0410 0100     		.2byte	0x1
 3715 0412 51       		.byte	0x51
 3716 0413 10000000 		.4byte	.LVL76
 3717 0417 14000000 		.4byte	.LFE132
 3718 041b 0400     		.2byte	0x4
 3719 041d F3       		.byte	0xf3
 3720 041e 01       		.uleb128 0x1
 3721 041f 51       		.byte	0x51
 3722 0420 9F       		.byte	0x9f
 3723 0421 00000000 		.4byte	0
 3724 0425 00000000 		.4byte	0
 3725              	.LLST15:
 3726 0429 00000000 		.4byte	.LVL71
 3727 042d 0C000000 		.4byte	.LVL72
 3728 0431 0100     		.2byte	0x1
 3729 0433 51       		.byte	0x51
 3730 0434 0C000000 		.4byte	.LVL72
 3731 0438 10000000 		.4byte	.LFE129
 3732 043c 0400     		.2byte	0x4
 3733 043e F3       		.byte	0xf3
 3734 043f 01       		.uleb128 0x1
 3735 0440 51       		.byte	0x51
 3736 0441 9F       		.byte	0x9f
 3737 0442 00000000 		.4byte	0
 3738 0446 00000000 		.4byte	0
 3739              	.LLST14:
 3740 044a 00000000 		.4byte	.LVL66
 3741 044e 10000000 		.4byte	.LVL67
 3742 0452 0100     		.2byte	0x1
 3743 0454 51       		.byte	0x51
 3744 0455 10000000 		.4byte	.LVL67
 3745 0459 14000000 		.4byte	.LFE125
 3746 045d 0400     		.2byte	0x4
 3747 045f F3       		.byte	0xf3
 3748 0460 01       		.uleb128 0x1
 3749 0461 51       		.byte	0x51
 3750 0462 9F       		.byte	0x9f
 3751 0463 00000000 		.4byte	0
 3752 0467 00000000 		.4byte	0
 3753              	.LLST13:
 3754 046b 00000000 		.4byte	.LVL64
 3755 046f 10000000 		.4byte	.LVL65
 3756 0473 0100     		.2byte	0x1
 3757 0475 51       		.byte	0x51
 3758 0476 10000000 		.4byte	.LVL65
 3759 047a 14000000 		.4byte	.LFE124
 3760 047e 0400     		.2byte	0x4
 3761 0480 F3       		.byte	0xf3
 3762 0481 01       		.uleb128 0x1
ARM GAS  /tmp/cc7Xux4D.s 			page 67


 3763 0482 51       		.byte	0x51
 3764 0483 9F       		.byte	0x9f
 3765 0484 00000000 		.4byte	0
 3766 0488 00000000 		.4byte	0
 3767              	.LLST12:
 3768 048c 00000000 		.4byte	.LVL61
 3769 0490 10000000 		.4byte	.LVL62
 3770 0494 0100     		.2byte	0x1
 3771 0496 51       		.byte	0x51
 3772 0497 10000000 		.4byte	.LVL62
 3773 049b 14000000 		.4byte	.LFE122
 3774 049f 0400     		.2byte	0x4
 3775 04a1 F3       		.byte	0xf3
 3776 04a2 01       		.uleb128 0x1
 3777 04a3 51       		.byte	0x51
 3778 04a4 9F       		.byte	0x9f
 3779 04a5 00000000 		.4byte	0
 3780 04a9 00000000 		.4byte	0
 3781              	.LLST11:
 3782 04ad 00000000 		.4byte	.LVL59
 3783 04b1 02000000 		.4byte	.LVL60
 3784 04b5 0100     		.2byte	0x1
 3785 04b7 50       		.byte	0x50
 3786 04b8 02000000 		.4byte	.LVL60
 3787 04bc 08000000 		.4byte	.LFE121
 3788 04c0 0400     		.2byte	0x4
 3789 04c2 F3       		.byte	0xf3
 3790 04c3 01       		.uleb128 0x1
 3791 04c4 50       		.byte	0x50
 3792 04c5 9F       		.byte	0x9f
 3793 04c6 00000000 		.4byte	0
 3794 04ca 00000000 		.4byte	0
 3795              	.LLST10:
 3796 04ce 00000000 		.4byte	.LVL57
 3797 04d2 04000000 		.4byte	.LVL58
 3798 04d6 0100     		.2byte	0x1
 3799 04d8 51       		.byte	0x51
 3800 04d9 04000000 		.4byte	.LVL58
 3801 04dd 08000000 		.4byte	.LFE120
 3802 04e1 0400     		.2byte	0x4
 3803 04e3 F3       		.byte	0xf3
 3804 04e4 01       		.uleb128 0x1
 3805 04e5 51       		.byte	0x51
 3806 04e6 9F       		.byte	0x9f
 3807 04e7 00000000 		.4byte	0
 3808 04eb 00000000 		.4byte	0
 3809              	.LLST9:
 3810 04ef 00000000 		.4byte	.LVL53
 3811 04f3 0C000000 		.4byte	.LVL54
 3812 04f7 0100     		.2byte	0x1
 3813 04f9 51       		.byte	0x51
 3814 04fa 0C000000 		.4byte	.LVL54
 3815 04fe 10000000 		.4byte	.LFE117
 3816 0502 0400     		.2byte	0x4
 3817 0504 F3       		.byte	0xf3
 3818 0505 01       		.uleb128 0x1
 3819 0506 51       		.byte	0x51
ARM GAS  /tmp/cc7Xux4D.s 			page 68


 3820 0507 9F       		.byte	0x9f
 3821 0508 00000000 		.4byte	0
 3822 050c 00000000 		.4byte	0
 3823              	.LLST7:
 3824 0510 00000000 		.4byte	.LVL47
 3825 0514 0C000000 		.4byte	.LVL48
 3826 0518 0100     		.2byte	0x1
 3827 051a 51       		.byte	0x51
 3828 051b 0C000000 		.4byte	.LVL48
 3829 051f 20000000 		.4byte	.LFE114
 3830 0523 0400     		.2byte	0x4
 3831 0525 F3       		.byte	0xf3
 3832 0526 01       		.uleb128 0x1
 3833 0527 51       		.byte	0x51
 3834 0528 9F       		.byte	0x9f
 3835 0529 00000000 		.4byte	0
 3836 052d 00000000 		.4byte	0
 3837              	.LLST8:
 3838 0531 00000000 		.4byte	.LVL47
 3839 0535 12000000 		.4byte	.LVL49
 3840 0539 0200     		.2byte	0x2
 3841 053b 30       		.byte	0x30
 3842 053c 9F       		.byte	0x9f
 3843 053d 12000000 		.4byte	.LVL49
 3844 0541 18000000 		.4byte	.LVL50
 3845 0545 0100     		.2byte	0x1
 3846 0547 52       		.byte	0x52
 3847 0548 18000000 		.4byte	.LVL50
 3848 054c 20000000 		.4byte	.LFE114
 3849 0550 2500     		.2byte	0x25
 3850 0552 F3       		.byte	0xf3
 3851 0553 01       		.uleb128 0x1
 3852 0554 51       		.byte	0x51
 3853 0555 94       		.byte	0x94
 3854 0556 02       		.byte	0x2
 3855 0557 F3       		.byte	0xf3
 3856 0558 01       		.uleb128 0x1
 3857 0559 51       		.byte	0x51
 3858 055a 23       		.byte	0x23
 3859 055b 02       		.uleb128 0x2
 3860 055c 94       		.byte	0x94
 3861 055d 02       		.byte	0x2
 3862 055e 21       		.byte	0x21
 3863 055f F3       		.byte	0xf3
 3864 0560 01       		.uleb128 0x1
 3865 0561 51       		.byte	0x51
 3866 0562 23       		.byte	0x23
 3867 0563 04       		.uleb128 0x4
 3868 0564 94       		.byte	0x94
 3869 0565 02       		.byte	0x2
 3870 0566 21       		.byte	0x21
 3871 0567 F3       		.byte	0xf3
 3872 0568 01       		.uleb128 0x1
 3873 0569 51       		.byte	0x51
 3874 056a 23       		.byte	0x23
 3875 056b 06       		.uleb128 0x6
 3876 056c 94       		.byte	0x94
ARM GAS  /tmp/cc7Xux4D.s 			page 69


 3877 056d 02       		.byte	0x2
 3878 056e 21       		.byte	0x21
 3879 056f 0A       		.byte	0xa
 3880 0570 FFFF     		.2byte	0xffff
 3881 0572 1A       		.byte	0x1a
 3882 0573 72       		.byte	0x72
 3883 0574 00       		.sleb128 0
 3884 0575 21       		.byte	0x21
 3885 0576 9F       		.byte	0x9f
 3886 0577 00000000 		.4byte	0
 3887 057b 00000000 		.4byte	0
 3888              	.LLST1:
 3889 057f 00000000 		.4byte	.LVL19
 3890 0583 0A000000 		.4byte	.LVL21
 3891 0587 0100     		.2byte	0x1
 3892 0589 50       		.byte	0x50
 3893 058a 0A000000 		.4byte	.LVL21
 3894 058e B2000000 		.4byte	.LVL45
 3895 0592 0100     		.2byte	0x1
 3896 0594 54       		.byte	0x54
 3897 0595 B2000000 		.4byte	.LVL45
 3898 0599 C0000000 		.4byte	.LFE112
 3899 059d 0400     		.2byte	0x4
 3900 059f F3       		.byte	0xf3
 3901 05a0 01       		.uleb128 0x1
 3902 05a1 50       		.byte	0x50
 3903 05a2 9F       		.byte	0x9f
 3904 05a3 00000000 		.4byte	0
 3905 05a7 00000000 		.4byte	0
 3906              	.LLST2:
 3907 05ab 00000000 		.4byte	.LVL19
 3908 05af 14000000 		.4byte	.LVL24
 3909 05b3 0100     		.2byte	0x1
 3910 05b5 51       		.byte	0x51
 3911 05b6 14000000 		.4byte	.LVL24
 3912 05ba 58000000 		.4byte	.LVL34
 3913 05be 0100     		.2byte	0x1
 3914 05c0 55       		.byte	0x55
 3915 05c1 58000000 		.4byte	.LVL34
 3916 05c5 C0000000 		.4byte	.LFE112
 3917 05c9 0400     		.2byte	0x4
 3918 05cb F3       		.byte	0xf3
 3919 05cc 01       		.uleb128 0x1
 3920 05cd 51       		.byte	0x51
 3921 05ce 9F       		.byte	0x9f
 3922 05cf 00000000 		.4byte	0
 3923 05d3 00000000 		.4byte	0
 3924              	.LLST3:
 3925 05d7 00000000 		.4byte	.LVL19
 3926 05db 06000000 		.4byte	.LVL20
 3927 05df 0200     		.2byte	0x2
 3928 05e1 30       		.byte	0x30
 3929 05e2 9F       		.byte	0x9f
 3930 05e3 06000000 		.4byte	.LVL20
 3931 05e7 10000000 		.4byte	.LVL22
 3932 05eb 0100     		.2byte	0x1
 3933 05ed 52       		.byte	0x52
ARM GAS  /tmp/cc7Xux4D.s 			page 70


 3934 05ee 10000000 		.4byte	.LVL22
 3935 05f2 12000000 		.4byte	.LVL23
 3936 05f6 0C00     		.2byte	0xc
 3937 05f8 71       		.byte	0x71
 3938 05f9 06       		.sleb128 6
 3939 05fa 94       		.byte	0x94
 3940 05fb 02       		.byte	0x2
 3941 05fc 0A       		.byte	0xa
 3942 05fd FFFF     		.2byte	0xffff
 3943 05ff 1A       		.byte	0x1a
 3944 0600 72       		.byte	0x72
 3945 0601 00       		.sleb128 0
 3946 0602 21       		.byte	0x21
 3947 0603 9F       		.byte	0x9f
 3948 0604 12000000 		.4byte	.LVL23
 3949 0608 1C000000 		.4byte	.LVL25
 3950 060c 0100     		.2byte	0x1
 3951 060e 52       		.byte	0x52
 3952 060f 1C000000 		.4byte	.LVL25
 3953 0613 24000000 		.4byte	.LVL26
 3954 0617 0100     		.2byte	0x1
 3955 0619 56       		.byte	0x56
 3956 061a 24000000 		.4byte	.LVL26
 3957 061e 2E000000 		.4byte	.LVL27
 3958 0622 1600     		.2byte	0x16
 3959 0624 75       		.byte	0x75
 3960 0625 04       		.sleb128 4
 3961 0626 94       		.byte	0x94
 3962 0627 02       		.byte	0x2
 3963 0628 75       		.byte	0x75
 3964 0629 08       		.sleb128 8
 3965 062a 94       		.byte	0x94
 3966 062b 02       		.byte	0x2
 3967 062c 21       		.byte	0x21
 3968 062d 75       		.byte	0x75
 3969 062e 0A       		.sleb128 10
 3970 062f 94       		.byte	0x94
 3971 0630 02       		.byte	0x2
 3972 0631 21       		.byte	0x21
 3973 0632 0A       		.byte	0xa
 3974 0633 FFFF     		.2byte	0xffff
 3975 0635 1A       		.byte	0x1a
 3976 0636 72       		.byte	0x72
 3977 0637 00       		.sleb128 0
 3978 0638 21       		.byte	0x21
 3979 0639 9F       		.byte	0x9f
 3980 063a 2E000000 		.4byte	.LVL27
 3981 063e 32000000 		.4byte	.LVL28
 3982 0642 0100     		.2byte	0x1
 3983 0644 53       		.byte	0x53
 3984 0645 32000000 		.4byte	.LVL28
 3985 0649 34000000 		.4byte	.LVL29
 3986 064d 0A00     		.2byte	0xa
 3987 064f 71       		.byte	0x71
 3988 0650 00       		.sleb128 0
 3989 0651 0A       		.byte	0xa
 3990 0652 FFFF     		.2byte	0xffff
ARM GAS  /tmp/cc7Xux4D.s 			page 71


 3991 0654 1A       		.byte	0x1a
 3992 0655 73       		.byte	0x73
 3993 0656 00       		.sleb128 0
 3994 0657 21       		.byte	0x21
 3995 0658 9F       		.byte	0x9f
 3996 0659 80000000 		.4byte	.LVL37
 3997 065d 90000000 		.4byte	.LVL39
 3998 0661 0100     		.2byte	0x1
 3999 0663 50       		.byte	0x50
 4000 0664 90000000 		.4byte	.LVL39
 4001 0668 92000000 		.4byte	.LVL40
 4002 066c 0100     		.2byte	0x1
 4003 066e 53       		.byte	0x53
 4004 066f 92000000 		.4byte	.LVL40
 4005 0673 98000000 		.4byte	.LVL41
 4006 0677 3D00     		.2byte	0x3d
 4007 0679 71       		.byte	0x71
 4008 067a 00       		.sleb128 0
 4009 067b 71       		.byte	0x71
 4010 067c 00       		.sleb128 0
 4011 067d F7       		.byte	0xf7
 4012 067e 2C       		.uleb128 0x2c
 4013 067f F7       		.byte	0xf7
 4014 0680 25       		.uleb128 0x25
 4015 0681 75       		.byte	0x75
 4016 0682 00       		.sleb128 0
 4017 0683 F7       		.byte	0xf7
 4018 0684 2C       		.uleb128 0x2c
 4019 0685 F7       		.byte	0xf7
 4020 0686 25       		.uleb128 0x25
 4021 0687 1E       		.byte	0x1e
 4022 0688 08       		.byte	0x8
 4023 0689 20       		.byte	0x20
 4024 068a F7       		.byte	0xf7
 4025 068b 25       		.uleb128 0x25
 4026 068c 25       		.byte	0x25
 4027 068d F7       		.byte	0xf7
 4028 068e 2C       		.uleb128 0x2c
 4029 068f F7       		.byte	0xf7
 4030 0690 00       		.uleb128 0
 4031 0691 35       		.byte	0x35
 4032 0692 25       		.byte	0x25
 4033 0693 08       		.byte	0x8
 4034 0694 64       		.byte	0x64
 4035 0695 1E       		.byte	0x1e
 4036 0696 1C       		.byte	0x1c
 4037 0697 34       		.byte	0x34
 4038 0698 24       		.byte	0x24
 4039 0699 23       		.byte	0x23
 4040 069a 32       		.uleb128 0x32
 4041 069b F7       		.byte	0xf7
 4042 069c 2C       		.uleb128 0x2c
 4043 069d F7       		.byte	0xf7
 4044 069e 25       		.uleb128 0x25
 4045 069f 75       		.byte	0x75
 4046 06a0 00       		.sleb128 0
 4047 06a1 F7       		.byte	0xf7
ARM GAS  /tmp/cc7Xux4D.s 			page 72


 4048 06a2 2C       		.uleb128 0x2c
 4049 06a3 F7       		.byte	0xf7
 4050 06a4 25       		.uleb128 0x25
 4051 06a5 1E       		.byte	0x1e
 4052 06a6 08       		.byte	0x8
 4053 06a7 20       		.byte	0x20
 4054 06a8 F7       		.byte	0xf7
 4055 06a9 25       		.uleb128 0x25
 4056 06aa 25       		.byte	0x25
 4057 06ab F7       		.byte	0xf7
 4058 06ac 2C       		.uleb128 0x2c
 4059 06ad F7       		.byte	0xf7
 4060 06ae 00       		.uleb128 0
 4061 06af 09       		.byte	0x9
 4062 06b0 FB       		.byte	0xfb
 4063 06b1 24       		.byte	0x24
 4064 06b2 70       		.byte	0x70
 4065 06b3 00       		.sleb128 0
 4066 06b4 21       		.byte	0x21
 4067 06b5 9F       		.byte	0x9f
 4068 06b6 98000000 		.4byte	.LVL41
 4069 06ba AA000000 		.4byte	.LVL43
 4070 06be 0100     		.2byte	0x1
 4071 06c0 50       		.byte	0x50
 4072 06c1 AA000000 		.4byte	.LVL43
 4073 06c5 AC000000 		.4byte	.LVL44
 4074 06c9 0100     		.2byte	0x1
 4075 06cb 53       		.byte	0x53
 4076 06cc AC000000 		.4byte	.LVL44
 4077 06d0 C0000000 		.4byte	.LFE112
 4078 06d4 0600     		.2byte	0x6
 4079 06d6 72       		.byte	0x72
 4080 06d7 00       		.sleb128 0
 4081 06d8 70       		.byte	0x70
 4082 06d9 00       		.sleb128 0
 4083 06da 21       		.byte	0x21
 4084 06db 9F       		.byte	0x9f
 4085 06dc 00000000 		.4byte	0
 4086 06e0 00000000 		.4byte	0
 4087              	.LLST4:
 4088 06e4 00000000 		.4byte	.LVL19
 4089 06e8 4E000000 		.4byte	.LVL31
 4090 06ec 0200     		.2byte	0x2
 4091 06ee 30       		.byte	0x30
 4092 06ef 9F       		.byte	0x9f
 4093 06f0 4E000000 		.4byte	.LVL31
 4094 06f4 50000000 		.4byte	.LVL32
 4095 06f8 0100     		.2byte	0x1
 4096 06fa 53       		.byte	0x53
 4097 06fb 50000000 		.4byte	.LVL32
 4098 06ff 52000000 		.4byte	.LVL33
 4099 0703 0200     		.2byte	0x2
 4100 0705 30       		.byte	0x30
 4101 0706 9F       		.byte	0x9f
 4102 0707 52000000 		.4byte	.LVL33
 4103 070b 5E000000 		.4byte	.LVL35
 4104 070f 0100     		.2byte	0x1
ARM GAS  /tmp/cc7Xux4D.s 			page 73


 4105 0711 53       		.byte	0x53
 4106 0712 00000000 		.4byte	0
 4107 0716 00000000 		.4byte	0
 4108              	.LLST5:
 4109 071a 00000000 		.4byte	.LVL19
 4110 071e 6E000000 		.4byte	.LVL36
 4111 0722 0200     		.2byte	0x2
 4112 0724 30       		.byte	0x30
 4113 0725 9F       		.byte	0x9f
 4114 0726 6E000000 		.4byte	.LVL36
 4115 072a C0000000 		.4byte	.LFE112
 4116 072e 0100     		.2byte	0x1
 4117 0730 51       		.byte	0x51
 4118 0731 00000000 		.4byte	0
 4119 0735 00000000 		.4byte	0
 4120              	.LLST6:
 4121 0739 00000000 		.4byte	.LVL19
 4122 073d 80000000 		.4byte	.LVL37
 4123 0741 0200     		.2byte	0x2
 4124 0743 30       		.byte	0x30
 4125 0744 9F       		.byte	0x9f
 4126 0745 80000000 		.4byte	.LVL37
 4127 0749 84000000 		.4byte	.LVL38
 4128 074d 0100     		.2byte	0x1
 4129 074f 53       		.byte	0x53
 4130 0750 84000000 		.4byte	.LVL38
 4131 0754 98000000 		.4byte	.LVL41
 4132 0758 1F00     		.2byte	0x1f
 4133 075a 71       		.byte	0x71
 4134 075b 00       		.sleb128 0
 4135 075c 71       		.byte	0x71
 4136 075d 00       		.sleb128 0
 4137 075e F7       		.byte	0xf7
 4138 075f 2C       		.uleb128 0x2c
 4139 0760 F7       		.byte	0xf7
 4140 0761 25       		.uleb128 0x25
 4141 0762 75       		.byte	0x75
 4142 0763 00       		.sleb128 0
 4143 0764 F7       		.byte	0xf7
 4144 0765 2C       		.uleb128 0x2c
 4145 0766 F7       		.byte	0xf7
 4146 0767 25       		.uleb128 0x25
 4147 0768 1E       		.byte	0x1e
 4148 0769 08       		.byte	0x8
 4149 076a 20       		.byte	0x20
 4150 076b F7       		.byte	0xf7
 4151 076c 25       		.uleb128 0x25
 4152 076d 25       		.byte	0x25
 4153 076e F7       		.byte	0xf7
 4154 076f 2C       		.uleb128 0x2c
 4155 0770 F7       		.byte	0xf7
 4156 0771 00       		.uleb128 0
 4157 0772 35       		.byte	0x35
 4158 0773 25       		.byte	0x25
 4159 0774 08       		.byte	0x8
 4160 0775 64       		.byte	0x64
 4161 0776 1E       		.byte	0x1e
ARM GAS  /tmp/cc7Xux4D.s 			page 74


 4162 0777 1C       		.byte	0x1c
 4163 0778 9F       		.byte	0x9f
 4164 0779 98000000 		.4byte	.LVL41
 4165 077d 9A000000 		.4byte	.LVL42
 4166 0781 0100     		.2byte	0x1
 4167 0783 53       		.byte	0x53
 4168 0784 9A000000 		.4byte	.LVL42
 4169 0788 B2000000 		.4byte	.LVL45
 4170 078c 1F00     		.2byte	0x1f
 4171 078e 71       		.byte	0x71
 4172 078f 00       		.sleb128 0
 4173 0790 71       		.byte	0x71
 4174 0791 00       		.sleb128 0
 4175 0792 F7       		.byte	0xf7
 4176 0793 2C       		.uleb128 0x2c
 4177 0794 F7       		.byte	0xf7
 4178 0795 25       		.uleb128 0x25
 4179 0796 75       		.byte	0x75
 4180 0797 00       		.sleb128 0
 4181 0798 F7       		.byte	0xf7
 4182 0799 2C       		.uleb128 0x2c
 4183 079a F7       		.byte	0xf7
 4184 079b 25       		.uleb128 0x25
 4185 079c 1E       		.byte	0x1e
 4186 079d 08       		.byte	0x8
 4187 079e 20       		.byte	0x20
 4188 079f F7       		.byte	0xf7
 4189 07a0 25       		.uleb128 0x25
 4190 07a1 25       		.byte	0x25
 4191 07a2 F7       		.byte	0xf7
 4192 07a3 2C       		.uleb128 0x2c
 4193 07a4 F7       		.byte	0xf7
 4194 07a5 00       		.uleb128 0
 4195 07a6 35       		.byte	0x35
 4196 07a7 25       		.byte	0x25
 4197 07a8 08       		.byte	0x8
 4198 07a9 64       		.byte	0x64
 4199 07aa 1E       		.byte	0x1e
 4200 07ab 1C       		.byte	0x1c
 4201 07ac 9F       		.byte	0x9f
 4202 07ad B2000000 		.4byte	.LVL45
 4203 07b1 C0000000 		.4byte	.LFE112
 4204 07b5 2000     		.2byte	0x20
 4205 07b7 71       		.byte	0x71
 4206 07b8 00       		.sleb128 0
 4207 07b9 71       		.byte	0x71
 4208 07ba 00       		.sleb128 0
 4209 07bb F7       		.byte	0xf7
 4210 07bc 2C       		.uleb128 0x2c
 4211 07bd F7       		.byte	0xf7
 4212 07be 25       		.uleb128 0x25
 4213 07bf 0C       		.byte	0xc
 4214 07c0 1F85EB51 		.4byte	0x51eb851f
 4215 07c4 F7       		.byte	0xf7
 4216 07c5 25       		.uleb128 0x25
 4217 07c6 1E       		.byte	0x1e
 4218 07c7 08       		.byte	0x8
ARM GAS  /tmp/cc7Xux4D.s 			page 75


 4219 07c8 20       		.byte	0x20
 4220 07c9 F7       		.byte	0xf7
 4221 07ca 25       		.uleb128 0x25
 4222 07cb 25       		.byte	0x25
 4223 07cc F7       		.byte	0xf7
 4224 07cd 2C       		.uleb128 0x2c
 4225 07ce F7       		.byte	0xf7
 4226 07cf 00       		.uleb128 0
 4227 07d0 35       		.byte	0x35
 4228 07d1 25       		.byte	0x25
 4229 07d2 08       		.byte	0x8
 4230 07d3 64       		.byte	0x64
 4231 07d4 1E       		.byte	0x1e
 4232 07d5 1C       		.byte	0x1c
 4233 07d6 9F       		.byte	0x9f
 4234 07d7 00000000 		.4byte	0
 4235 07db 00000000 		.4byte	0
 4236              	.LLST0:
 4237 07df 00000000 		.4byte	.LVL0
 4238 07e3 2E000000 		.4byte	.LVL1
 4239 07e7 0100     		.2byte	0x1
 4240 07e9 50       		.byte	0x50
 4241 07ea 2E000000 		.4byte	.LVL1
 4242 07ee 40000000 		.4byte	.LVL3
 4243 07f2 0400     		.2byte	0x4
 4244 07f4 F3       		.byte	0xf3
 4245 07f5 01       		.uleb128 0x1
 4246 07f6 50       		.byte	0x50
 4247 07f7 9F       		.byte	0x9f
 4248 07f8 40000000 		.4byte	.LVL3
 4249 07fc 44000000 		.4byte	.LVL4
 4250 0800 0100     		.2byte	0x1
 4251 0802 50       		.byte	0x50
 4252 0803 44000000 		.4byte	.LVL4
 4253 0807 54000000 		.4byte	.LVL6
 4254 080b 0400     		.2byte	0x4
 4255 080d F3       		.byte	0xf3
 4256 080e 01       		.uleb128 0x1
 4257 080f 50       		.byte	0x50
 4258 0810 9F       		.byte	0x9f
 4259 0811 54000000 		.4byte	.LVL6
 4260 0815 5A000000 		.4byte	.LVL7
 4261 0819 0100     		.2byte	0x1
 4262 081b 50       		.byte	0x50
 4263 081c 5A000000 		.4byte	.LVL7
 4264 0820 6C000000 		.4byte	.LVL9
 4265 0824 0400     		.2byte	0x4
 4266 0826 F3       		.byte	0xf3
 4267 0827 01       		.uleb128 0x1
 4268 0828 50       		.byte	0x50
 4269 0829 9F       		.byte	0x9f
 4270 082a 6C000000 		.4byte	.LVL9
 4271 082e 72000000 		.4byte	.LVL10
 4272 0832 0100     		.2byte	0x1
 4273 0834 50       		.byte	0x50
 4274 0835 72000000 		.4byte	.LVL10
 4275 0839 84000000 		.4byte	.LVL12
ARM GAS  /tmp/cc7Xux4D.s 			page 76


 4276 083d 0400     		.2byte	0x4
 4277 083f F3       		.byte	0xf3
 4278 0840 01       		.uleb128 0x1
 4279 0841 50       		.byte	0x50
 4280 0842 9F       		.byte	0x9f
 4281 0843 84000000 		.4byte	.LVL12
 4282 0847 8A000000 		.4byte	.LVL13
 4283 084b 0100     		.2byte	0x1
 4284 084d 50       		.byte	0x50
 4285 084e 8A000000 		.4byte	.LVL13
 4286 0852 9C000000 		.4byte	.LVL15
 4287 0856 0400     		.2byte	0x4
 4288 0858 F3       		.byte	0xf3
 4289 0859 01       		.uleb128 0x1
 4290 085a 50       		.byte	0x50
 4291 085b 9F       		.byte	0x9f
 4292 085c 9C000000 		.4byte	.LVL15
 4293 0860 A0000000 		.4byte	.LVL16
 4294 0864 0100     		.2byte	0x1
 4295 0866 50       		.byte	0x50
 4296 0867 A0000000 		.4byte	.LVL16
 4297 086b C8000000 		.4byte	.LFE111
 4298 086f 0400     		.2byte	0x4
 4299 0871 F3       		.byte	0xf3
 4300 0872 01       		.uleb128 0x1
 4301 0873 50       		.byte	0x50
 4302 0874 9F       		.byte	0x9f
 4303 0875 00000000 		.4byte	0
 4304 0879 00000000 		.4byte	0
 4305              		.section	.debug_aranges,"",%progbits
 4306 0000 FC000000 		.4byte	0xfc
 4307 0004 0200     		.2byte	0x2
 4308 0006 00000000 		.4byte	.Ldebug_info0
 4309 000a 04       		.byte	0x4
 4310 000b 00       		.byte	0
 4311 000c 0000     		.2byte	0
 4312 000e 0000     		.2byte	0
 4313 0010 00000000 		.4byte	.LFB111
 4314 0014 C8000000 		.4byte	.LFE111-.LFB111
 4315 0018 00000000 		.4byte	.LFB112
 4316 001c C0000000 		.4byte	.LFE112-.LFB112
 4317 0020 00000000 		.4byte	.LFB113
 4318 0024 14000000 		.4byte	.LFE113-.LFB113
 4319 0028 00000000 		.4byte	.LFB114
 4320 002c 20000000 		.4byte	.LFE114-.LFB114
 4321 0030 00000000 		.4byte	.LFB115
 4322 0034 0C000000 		.4byte	.LFE115-.LFB115
 4323 0038 00000000 		.4byte	.LFB116
 4324 003c 18000000 		.4byte	.LFE116-.LFB116
 4325 0040 00000000 		.4byte	.LFB117
 4326 0044 10000000 		.4byte	.LFE117-.LFB117
 4327 0048 00000000 		.4byte	.LFB118
 4328 004c 14000000 		.4byte	.LFE118-.LFB118
 4329 0050 00000000 		.4byte	.LFB119
 4330 0054 18000000 		.4byte	.LFE119-.LFB119
 4331 0058 00000000 		.4byte	.LFB120
 4332 005c 08000000 		.4byte	.LFE120-.LFB120
ARM GAS  /tmp/cc7Xux4D.s 			page 77


 4333 0060 00000000 		.4byte	.LFB121
 4334 0064 08000000 		.4byte	.LFE121-.LFB121
 4335 0068 00000000 		.4byte	.LFB122
 4336 006c 14000000 		.4byte	.LFE122-.LFB122
 4337 0070 00000000 		.4byte	.LFB123
 4338 0074 18000000 		.4byte	.LFE123-.LFB123
 4339 0078 00000000 		.4byte	.LFB124
 4340 007c 14000000 		.4byte	.LFE124-.LFB124
 4341 0080 00000000 		.4byte	.LFB125
 4342 0084 14000000 		.4byte	.LFE125-.LFB125
 4343 0088 00000000 		.4byte	.LFB126
 4344 008c 18000000 		.4byte	.LFE126-.LFB126
 4345 0090 00000000 		.4byte	.LFB127
 4346 0094 0A000000 		.4byte	.LFE127-.LFB127
 4347 0098 00000000 		.4byte	.LFB128
 4348 009c 18000000 		.4byte	.LFE128-.LFB128
 4349 00a0 00000000 		.4byte	.LFB129
 4350 00a4 10000000 		.4byte	.LFE129-.LFB129
 4351 00a8 00000000 		.4byte	.LFB130
 4352 00ac 18000000 		.4byte	.LFE130-.LFB130
 4353 00b0 00000000 		.4byte	.LFB131
 4354 00b4 18000000 		.4byte	.LFE131-.LFB131
 4355 00b8 00000000 		.4byte	.LFB132
 4356 00bc 14000000 		.4byte	.LFE132-.LFB132
 4357 00c0 00000000 		.4byte	.LFB133
 4358 00c4 18000000 		.4byte	.LFE133-.LFB133
 4359 00c8 00000000 		.4byte	.LFB134
 4360 00cc 12000000 		.4byte	.LFE134-.LFB134
 4361 00d0 00000000 		.4byte	.LFB135
 4362 00d4 3C000000 		.4byte	.LFE135-.LFB135
 4363 00d8 00000000 		.4byte	.LFB136
 4364 00dc 0C000000 		.4byte	.LFE136-.LFB136
 4365 00e0 00000000 		.4byte	.LFB137
 4366 00e4 08000000 		.4byte	.LFE137-.LFB137
 4367 00e8 00000000 		.4byte	.LFB138
 4368 00ec 48000000 		.4byte	.LFE138-.LFB138
 4369 00f0 00000000 		.4byte	.LFB139
 4370 00f4 10000000 		.4byte	.LFE139-.LFB139
 4371 00f8 00000000 		.4byte	0
 4372 00fc 00000000 		.4byte	0
 4373              		.section	.debug_ranges,"",%progbits
 4374              	.Ldebug_ranges0:
 4375 0000 00000000 		.4byte	.LFB111
 4376 0004 C8000000 		.4byte	.LFE111
 4377 0008 00000000 		.4byte	.LFB112
 4378 000c C0000000 		.4byte	.LFE112
 4379 0010 00000000 		.4byte	.LFB113
 4380 0014 14000000 		.4byte	.LFE113
 4381 0018 00000000 		.4byte	.LFB114
 4382 001c 20000000 		.4byte	.LFE114
 4383 0020 00000000 		.4byte	.LFB115
 4384 0024 0C000000 		.4byte	.LFE115
 4385 0028 00000000 		.4byte	.LFB116
 4386 002c 18000000 		.4byte	.LFE116
 4387 0030 00000000 		.4byte	.LFB117
 4388 0034 10000000 		.4byte	.LFE117
 4389 0038 00000000 		.4byte	.LFB118
ARM GAS  /tmp/cc7Xux4D.s 			page 78


 4390 003c 14000000 		.4byte	.LFE118
 4391 0040 00000000 		.4byte	.LFB119
 4392 0044 18000000 		.4byte	.LFE119
 4393 0048 00000000 		.4byte	.LFB120
 4394 004c 08000000 		.4byte	.LFE120
 4395 0050 00000000 		.4byte	.LFB121
 4396 0054 08000000 		.4byte	.LFE121
 4397 0058 00000000 		.4byte	.LFB122
 4398 005c 14000000 		.4byte	.LFE122
 4399 0060 00000000 		.4byte	.LFB123
 4400 0064 18000000 		.4byte	.LFE123
 4401 0068 00000000 		.4byte	.LFB124
 4402 006c 14000000 		.4byte	.LFE124
 4403 0070 00000000 		.4byte	.LFB125
 4404 0074 14000000 		.4byte	.LFE125
 4405 0078 00000000 		.4byte	.LFB126
 4406 007c 18000000 		.4byte	.LFE126
 4407 0080 00000000 		.4byte	.LFB127
 4408 0084 0A000000 		.4byte	.LFE127
 4409 0088 00000000 		.4byte	.LFB128
 4410 008c 18000000 		.4byte	.LFE128
 4411 0090 00000000 		.4byte	.LFB129
 4412 0094 10000000 		.4byte	.LFE129
 4413 0098 00000000 		.4byte	.LFB130
 4414 009c 18000000 		.4byte	.LFE130
 4415 00a0 00000000 		.4byte	.LFB131
 4416 00a4 18000000 		.4byte	.LFE131
 4417 00a8 00000000 		.4byte	.LFB132
 4418 00ac 14000000 		.4byte	.LFE132
 4419 00b0 00000000 		.4byte	.LFB133
 4420 00b4 18000000 		.4byte	.LFE133
 4421 00b8 00000000 		.4byte	.LFB134
 4422 00bc 12000000 		.4byte	.LFE134
 4423 00c0 00000000 		.4byte	.LFB135
 4424 00c4 3C000000 		.4byte	.LFE135
 4425 00c8 00000000 		.4byte	.LFB136
 4426 00cc 0C000000 		.4byte	.LFE136
 4427 00d0 00000000 		.4byte	.LFB137
 4428 00d4 08000000 		.4byte	.LFE137
 4429 00d8 00000000 		.4byte	.LFB138
 4430 00dc 48000000 		.4byte	.LFE138
 4431 00e0 00000000 		.4byte	.LFB139
 4432 00e4 10000000 		.4byte	.LFE139
 4433 00e8 00000000 		.4byte	0
 4434 00ec 00000000 		.4byte	0
 4435              		.section	.debug_line,"",%progbits
 4436              	.Ldebug_line0:
 4437 0000 C8040000 		.section	.debug_str,"MS",%progbits,1
 4437      02007C01 
 4437      00000201 
 4437      FB0E0D00 
 4437      01010101 
 4438              	.LASF99:
 4439 0000 696E7465 		.ascii	"integerdivider\000"
 4439      67657264 
 4439      69766964 
 4439      657200
ARM GAS  /tmp/cc7Xux4D.s 			page 79


 4440              	.LASF46:
 4441 000f 55534152 		.ascii	"USART_CPHA\000"
 4441      545F4350 
 4441      484100
 4442              	.LASF29:
 4443 001a 47545052 		.ascii	"GTPR\000"
 4443      00
 4444              	.LASF62:
 4445 001f 6974706F 		.ascii	"itpos\000"
 4445      7300
 4446              	.LASF80:
 4447 0025 55534152 		.ascii	"USART_ReceiverWakeUpCmd\000"
 4447      545F5265 
 4447      63656976 
 4447      65725761 
 4447      6B655570 
 4448              	.LASF32:
 4449 003d 53595343 		.ascii	"SYSCLK_Frequency\000"
 4449      4C4B5F46 
 4449      72657175 
 4449      656E6379 
 4449      00
 4450              	.LASF88:
 4451 004e 55534152 		.ascii	"USART_SetPrescaler\000"
 4451      545F5365 
 4451      74507265 
 4451      7363616C 
 4451      657200
 4452              	.LASF97:
 4453 0061 55534152 		.ascii	"USART_Init\000"
 4453      545F496E 
 4453      697400
 4454              	.LASF33:
 4455 006c 48434C4B 		.ascii	"HCLK_Frequency\000"
 4455      5F467265 
 4455      7175656E 
 4455      637900
 4456              	.LASF77:
 4457 007b 55534152 		.ascii	"USART_LINBreakDetectLength\000"
 4457      545F4C49 
 4457      4E427265 
 4457      616B4465 
 4457      74656374 
 4458              	.LASF86:
 4459 0096 55534152 		.ascii	"USART_OneBitMethodCmd\000"
 4459      545F4F6E 
 4459      65426974 
 4459      4D657468 
 4459      6F64436D 
 4460              	.LASF18:
 4461 00ac 466C6167 		.ascii	"FlagStatus\000"
 4461      53746174 
 4461      757300
 4462              	.LASF6:
 4463 00b7 5F5F7569 		.ascii	"__uint16_t\000"
 4463      6E743136 
 4463      5F7400
ARM GAS  /tmp/cc7Xux4D.s 			page 80


 4464              	.LASF31:
 4465 00c2 55534152 		.ascii	"USART_TypeDef\000"
 4465      545F5479 
 4465      70654465 
 4465      6600
 4466              	.LASF39:
 4467 00d0 55534152 		.ascii	"USART_StopBits\000"
 4467      545F5374 
 4467      6F704269 
 4467      747300
 4468              	.LASF4:
 4469 00df 73686F72 		.ascii	"short int\000"
 4469      7420696E 
 4469      7400
 4470              	.LASF48:
 4471 00e9 55534152 		.ascii	"USART_ClockInitTypeDef\000"
 4471      545F436C 
 4471      6F636B49 
 4471      6E697454 
 4471      79706544 
 4472              	.LASF90:
 4473 0100 55534152 		.ascii	"USART_Cmd\000"
 4473      545F436D 
 4473      6400
 4474              	.LASF84:
 4475 010a 55534152 		.ascii	"USART_SendData\000"
 4475      545F5365 
 4475      6E644461 
 4475      746100
 4476              	.LASF13:
 4477 0119 75696E74 		.ascii	"uint8_t\000"
 4477      385F7400 
 4478              	.LASF50:
 4479 0121 55534152 		.ascii	"USART_IT\000"
 4479      545F4954 
 4479      00
 4480              	.LASF79:
 4481 012a 55534152 		.ascii	"USART_WakeUp\000"
 4481      545F5761 
 4481      6B655570 
 4481      00
 4482              	.LASF38:
 4483 0137 55534152 		.ascii	"USART_WordLength\000"
 4483      545F576F 
 4483      72644C65 
 4483      6E677468 
 4483      00
 4484              	.LASF61:
 4485 0148 4E657753 		.ascii	"NewState\000"
 4485      74617465 
 4485      00
 4486              	.LASF64:
 4487 0151 55534152 		.ascii	"USART_DMACmd\000"
 4487      545F444D 
 4487      41436D64 
 4487      00
 4488              	.LASF20:
ARM GAS  /tmp/cc7Xux4D.s 			page 81


 4489 015e 44495341 		.ascii	"DISABLE\000"
 4489      424C4500 
 4490              	.LASF2:
 4491 0166 7369676E 		.ascii	"signed char\000"
 4491      65642063 
 4491      68617200 
 4492              	.LASF47:
 4493 0172 55534152 		.ascii	"USART_LastBit\000"
 4493      545F4C61 
 4493      73744269 
 4493      7400
 4494              	.LASF37:
 4495 0180 55534152 		.ascii	"USART_BaudRate\000"
 4495      545F4261 
 4495      75645261 
 4495      746500
 4496              	.LASF68:
 4497 018f 55534152 		.ascii	"USART_IrDAMode\000"
 4497      545F4972 
 4497      44414D6F 
 4497      646500
 4498              	.LASF98:
 4499 019e 61706263 		.ascii	"apbclock\000"
 4499      6C6F636B 
 4499      00
 4500              	.LASF12:
 4501 01a7 6C6F6E67 		.ascii	"long long int\000"
 4501      206C6F6E 
 4501      6720696E 
 4501      7400
 4502              	.LASF104:
 4503 01b5 5243435F 		.ascii	"RCC_APB1PeriphResetCmd\000"
 4503      41504231 
 4503      50657269 
 4503      70685265 
 4503      73657443 
 4504              	.LASF19:
 4505 01cc 49545374 		.ascii	"ITStatus\000"
 4505      61747573 
 4505      00
 4506              	.LASF9:
 4507 01d5 6C6F6E67 		.ascii	"long int\000"
 4507      20696E74 
 4507      00
 4508              	.LASF55:
 4509 01de 55534152 		.ascii	"USART_ClearITPendingBit\000"
 4509      545F436C 
 4509      65617249 
 4509      5450656E 
 4509      64696E67 
 4510              	.LASF72:
 4511 01f6 55534152 		.ascii	"USART_GuardTime\000"
 4511      545F4775 
 4511      61726454 
 4511      696D6500 
 4512              	.LASF76:
 4513 0206 55534152 		.ascii	"USART_LINBreakDetectLengthConfig\000"
ARM GAS  /tmp/cc7Xux4D.s 			page 82


 4513      545F4C49 
 4513      4E427265 
 4513      616B4465 
 4513      74656374 
 4514              	.LASF5:
 4515 0227 5F5F7569 		.ascii	"__uint8_t\000"
 4515      6E74385F 
 4515      7400
 4516              	.LASF57:
 4517 0231 55534152 		.ascii	"USART_FLAG\000"
 4517      545F464C 
 4517      414700
 4518              	.LASF102:
 4519 023c 55534152 		.ascii	"USART_DeInit\000"
 4519      545F4465 
 4519      496E6974 
 4519      00
 4520              	.LASF92:
 4521 0249 55534152 		.ascii	"USART_ClockInitStruct\000"
 4521      545F436C 
 4521      6F636B49 
 4521      6E697453 
 4521      74727563 
 4522              	.LASF85:
 4523 025f 44617461 		.ascii	"Data\000"
 4523      00
 4524              	.LASF94:
 4525 0264 746D7072 		.ascii	"tmpreg\000"
 4525      656700
 4526              	.LASF40:
 4527 026b 55534152 		.ascii	"USART_Parity\000"
 4527      545F5061 
 4527      72697479 
 4527      00
 4528              	.LASF91:
 4529 0278 55534152 		.ascii	"USART_ClockStructInit\000"
 4529      545F436C 
 4529      6F636B53 
 4529      74727563 
 4529      74496E69 
 4530              	.LASF3:
 4531 028e 756E7369 		.ascii	"unsigned char\000"
 4531      676E6564 
 4531      20636861 
 4531      7200
 4532              	.LASF63:
 4533 029c 75736172 		.ascii	"usartxbase\000"
 4533      74786261 
 4533      736500
 4534              	.LASF56:
 4535 02a7 55534152 		.ascii	"USART_ClearFlag\000"
 4535      545F436C 
 4535      65617246 
 4535      6C616700 
 4536              	.LASF81:
 4537 02b7 55534152 		.ascii	"USART_SetAddress\000"
 4537      545F5365 
ARM GAS  /tmp/cc7Xux4D.s 			page 83


 4537      74416464 
 4537      72657373 
 4537      00
 4538              	.LASF0:
 4539 02c8 6C6F6E67 		.ascii	"long long unsigned int\000"
 4539      206C6F6E 
 4539      6720756E 
 4539      7369676E 
 4539      65642069 
 4540              	.LASF16:
 4541 02df 75696E74 		.ascii	"uint32_t\000"
 4541      33325F74 
 4541      00
 4542              	.LASF71:
 4543 02e8 55534152 		.ascii	"USART_SetGuardTime\000"
 4543      545F5365 
 4543      74477561 
 4543      72645469 
 4543      6D6500
 4544              	.LASF1:
 4545 02fb 756E7369 		.ascii	"unsigned int\000"
 4545      676E6564 
 4545      20696E74 
 4545      00
 4546              	.LASF14:
 4547 0308 75696E74 		.ascii	"uint16_t\000"
 4547      31365F74 
 4547      00
 4548              	.LASF11:
 4549 0311 6C6F6E67 		.ascii	"long unsigned int\000"
 4549      20756E73 
 4549      69676E65 
 4549      6420696E 
 4549      7400
 4550              	.LASF74:
 4551 0323 55534152 		.ascii	"USART_SendBreak\000"
 4551      545F5365 
 4551      6E644272 
 4551      65616B00 
 4552              	.LASF43:
 4553 0333 55534152 		.ascii	"USART_InitTypeDef\000"
 4553      545F496E 
 4553      69745479 
 4553      70654465 
 4553      6600
 4554              	.LASF105:
 4555 0345 5243435F 		.ascii	"RCC_APB2PeriphResetCmd\000"
 4555      41504232 
 4555      50657269 
 4555      70685265 
 4555      73657443 
 4556              	.LASF60:
 4557 035c 55534152 		.ascii	"USART_ITConfig\000"
 4557      545F4954 
 4557      436F6E66 
 4557      696700
 4558              	.LASF36:
ARM GAS  /tmp/cc7Xux4D.s 			page 84


 4559 036b 5243435F 		.ascii	"RCC_ClocksTypeDef\000"
 4559      436C6F63 
 4559      6B735479 
 4559      70654465 
 4559      6600
 4560              	.LASF65:
 4561 037d 55534152 		.ascii	"USART_DMAReq\000"
 4561      545F444D 
 4561      41526571 
 4561      00
 4562              	.LASF49:
 4563 038a 55534152 		.ascii	"USARTx\000"
 4563      547800
 4564              	.LASF42:
 4565 0391 55534152 		.ascii	"USART_HardwareFlowControl\000"
 4565      545F4861 
 4565      72647761 
 4565      7265466C 
 4565      6F77436F 
 4566              	.LASF70:
 4567 03ab 55534152 		.ascii	"USART_SmartCardCmd\000"
 4567      545F536D 
 4567      61727443 
 4567      61726443 
 4567      6D6400
 4568              	.LASF41:
 4569 03be 55534152 		.ascii	"USART_Mode\000"
 4569      545F4D6F 
 4569      646500
 4570              	.LASF82:
 4571 03c9 55534152 		.ascii	"USART_Address\000"
 4571      545F4164 
 4571      64726573 
 4571      7300
 4572              	.LASF15:
 4573 03d7 696E7433 		.ascii	"int32_t\000"
 4573      325F7400 
 4574              	.LASF51:
 4575 03df 62697470 		.ascii	"bitpos\000"
 4575      6F7300
 4576              	.LASF87:
 4577 03e6 55534152 		.ascii	"USART_OverSampling8Cmd\000"
 4577      545F4F76 
 4577      65725361 
 4577      6D706C69 
 4577      6E673843 
 4578              	.LASF7:
 4579 03fd 73686F72 		.ascii	"short unsigned int\000"
 4579      7420756E 
 4579      7369676E 
 4579      65642069 
 4579      6E7400
 4580              	.LASF58:
 4581 0410 55534152 		.ascii	"USART_GetITStatus\000"
 4581      545F4765 
 4581      74495453 
 4581      74617475 
ARM GAS  /tmp/cc7Xux4D.s 			page 85


 4581      7300
 4582              	.LASF75:
 4583 0422 55534152 		.ascii	"USART_LINCmd\000"
 4583      545F4C49 
 4583      4E436D64 
 4583      00
 4584              	.LASF67:
 4585 042f 55534152 		.ascii	"USART_IrDAConfig\000"
 4585      545F4972 
 4585      4441436F 
 4585      6E666967 
 4585      00
 4586              	.LASF17:
 4587 0440 52455345 		.ascii	"RESET\000"
 4587      5400
 4588              	.LASF35:
 4589 0446 50434C4B 		.ascii	"PCLK2_Frequency\000"
 4589      325F4672 
 4589      65717565 
 4589      6E637900 
 4590              	.LASF108:
 4591 0456 2F686F6D 		.ascii	"/home/renan/BLDC/bldc-bootloader\000"
 4591      652F7265 
 4591      6E616E2F 
 4591      424C4443 
 4591      2F626C64 
 4592              	.LASF44:
 4593 0477 55534152 		.ascii	"USART_Clock\000"
 4593      545F436C 
 4593      6F636B00 
 4594              	.LASF23:
 4595 0483 52455345 		.ascii	"RESERVED0\000"
 4595      52564544 
 4595      3000
 4596              	.LASF24:
 4597 048d 52455345 		.ascii	"RESERVED1\000"
 4597      52564544 
 4597      3100
 4598              	.LASF25:
 4599 0497 52455345 		.ascii	"RESERVED2\000"
 4599      52564544 
 4599      3200
 4600              	.LASF26:
 4601 04a1 52455345 		.ascii	"RESERVED3\000"
 4601      52564544 
 4601      3300
 4602              	.LASF27:
 4603 04ab 52455345 		.ascii	"RESERVED4\000"
 4603      52564544 
 4603      3400
 4604              	.LASF28:
 4605 04b5 52455345 		.ascii	"RESERVED5\000"
 4605      52564544 
 4605      3500
 4606              	.LASF30:
 4607 04bf 52455345 		.ascii	"RESERVED6\000"
 4607      52564544 
ARM GAS  /tmp/cc7Xux4D.s 			page 86


 4607      3600
 4608              	.LASF66:
 4609 04c9 55534152 		.ascii	"USART_IrDACmd\000"
 4609      545F4972 
 4609      4441436D 
 4609      6400
 4610              	.LASF100:
 4611 04d7 66726163 		.ascii	"fractionaldivider\000"
 4611      74696F6E 
 4611      616C6469 
 4611      76696465 
 4611      7200
 4612              	.LASF22:
 4613 04e9 46756E63 		.ascii	"FunctionalState\000"
 4613      74696F6E 
 4613      616C5374 
 4613      61746500 
 4614              	.LASF69:
 4615 04f9 55534152 		.ascii	"USART_SmartCardNACKCmd\000"
 4615      545F536D 
 4615      61727443 
 4615      6172644E 
 4615      41434B43 
 4616              	.LASF10:
 4617 0510 5F5F7569 		.ascii	"__uint32_t\000"
 4617      6E743332 
 4617      5F7400
 4618              	.LASF34:
 4619 051b 50434C4B 		.ascii	"PCLK1_Frequency\000"
 4619      315F4672 
 4619      65717565 
 4619      6E637900 
 4620              	.LASF59:
 4621 052b 55534152 		.ascii	"USART_GetFlagStatus\000"
 4621      545F4765 
 4621      74466C61 
 4621      67537461 
 4621      74757300 
 4622              	.LASF8:
 4623 053f 5F5F696E 		.ascii	"__int32_t\000"
 4623      7433325F 
 4623      7400
 4624              	.LASF103:
 4625 0549 5243435F 		.ascii	"RCC_GetClocksFreq\000"
 4625      47657443 
 4625      6C6F636B 
 4625      73467265 
 4625      7100
 4626              	.LASF96:
 4627 055b 55534152 		.ascii	"USART_InitStruct\000"
 4627      545F496E 
 4627      69745374 
 4627      72756374 
 4627      00
 4628              	.LASF101:
 4629 056c 5243435F 		.ascii	"RCC_ClocksStatus\000"
 4629      436C6F63 
ARM GAS  /tmp/cc7Xux4D.s 			page 87


 4629      6B735374 
 4629      61747573 
 4629      00
 4630              	.LASF93:
 4631 057d 55534152 		.ascii	"USART_ClockInit\000"
 4631      545F436C 
 4631      6F636B49 
 4631      6E697400 
 4632              	.LASF78:
 4633 058d 55534152 		.ascii	"USART_WakeUpConfig\000"
 4633      545F5761 
 4633      6B655570 
 4633      436F6E66 
 4633      696700
 4634              	.LASF73:
 4635 05a0 55534152 		.ascii	"USART_HalfDuplexCmd\000"
 4635      545F4861 
 4635      6C664475 
 4635      706C6578 
 4635      436D6400 
 4636              	.LASF95:
 4637 05b4 55534152 		.ascii	"USART_StructInit\000"
 4637      545F5374 
 4637      72756374 
 4637      496E6974 
 4637      00
 4638              	.LASF89:
 4639 05c5 55534152 		.ascii	"USART_Prescaler\000"
 4639      545F5072 
 4639      65736361 
 4639      6C657200 
 4640              	.LASF45:
 4641 05d5 55534152 		.ascii	"USART_CPOL\000"
 4641      545F4350 
 4641      4F4C00
 4642              	.LASF52:
 4643 05e0 69746D61 		.ascii	"itmask\000"
 4643      736B00
 4644              	.LASF109:
 4645 05e7 49544D5F 		.ascii	"ITM_RxBuffer\000"
 4645      52784275 
 4645      66666572 
 4645      00
 4646              	.LASF54:
 4647 05f4 62697473 		.ascii	"bitstatus\000"
 4647      74617475 
 4647      7300
 4648              	.LASF107:
 4649 05fe 43686962 		.ascii	"ChibiOS_2.6.6/ext/stdperiph_stm32f4/src/stm32f4xx_u"
 4649      694F535F 
 4649      322E362E 
 4649      362F6578 
 4649      742F7374 
 4650 0631 73617274 		.ascii	"sart.c\000"
 4650      2E6300
 4651              	.LASF83:
 4652 0638 55534152 		.ascii	"USART_ReceiveData\000"
ARM GAS  /tmp/cc7Xux4D.s 			page 88


 4652      545F5265 
 4652      63656976 
 4652      65446174 
 4652      6100
 4653              	.LASF53:
 4654 064a 75736172 		.ascii	"usartreg\000"
 4654      74726567 
 4654      00
 4655              	.LASF21:
 4656 0653 454E4142 		.ascii	"ENABLE\000"
 4656      4C4500
 4657              	.LASF106:
 4658 065a 474E5520 		.ascii	"GNU C99 7.3.1 20180622 (release) [ARM/embedded-7-br"
 4658      43393920 
 4658      372E332E 
 4658      31203230 
 4658      31383036 
 4659 068d 616E6368 		.ascii	"anch revision 261907] -mcpu=cortex-m4 -mfloat-abi=h"
 4659      20726576 
 4659      6973696F 
 4659      6E203236 
 4659      31393037 
 4660 06c0 61726420 		.ascii	"ard -mfpu=fpv4-sp-d16 -mno-thumb-interwork -mthumb "
 4660      2D6D6670 
 4660      753D6670 
 4660      76342D73 
 4660      702D6431 
 4661 06f3 2D676764 		.ascii	"-ggdb -O2 -std=gnu99 -fomit-frame-pointer -falign-f"
 4661      62202D4F 
 4661      32202D73 
 4661      74643D67 
 4661      6E753939 
 4662 0726 756E6374 		.ascii	"unctions=16 -ffunction-sections -fdata-sections -fn"
 4662      696F6E73 
 4662      3D313620 
 4662      2D666675 
 4662      6E637469 
 4663 0759 6F2D636F 		.ascii	"o-common -fsingle-precision-constant\000"
 4663      6D6D6F6E 
 4663      202D6673 
 4663      696E676C 
 4663      652D7072 
 4664              		.ident	"GCC: (GNU Tools for Arm Embedded Processors 7-2018-q3-update) 7.3.1 20180622 (release) [AR
ARM GAS  /tmp/cc7Xux4D.s 			page 89


DEFINED SYMBOLS
                            *ABS*:0000000000000000 stm32f4xx_usart.c
     /tmp/cc7Xux4D.s:18     .text.USART_DeInit:0000000000000000 $t
     /tmp/cc7Xux4D.s:26     .text.USART_DeInit:0000000000000000 USART_DeInit
     /tmp/cc7Xux4D.s:185    .text.USART_DeInit:00000000000000b0 $d
     /tmp/cc7Xux4D.s:195    .text.USART_Init:0000000000000000 $t
     /tmp/cc7Xux4D.s:203    .text.USART_Init:0000000000000000 USART_Init
     /tmp/cc7Xux4D.s:372    .text.USART_Init:00000000000000b4 $d
     /tmp/cc7Xux4D.s:379    .text.USART_StructInit:0000000000000000 $t
     /tmp/cc7Xux4D.s:387    .text.USART_StructInit:0000000000000000 USART_StructInit
     /tmp/cc7Xux4D.s:411    .text.USART_ClockInit:0000000000000000 $t
     /tmp/cc7Xux4D.s:419    .text.USART_ClockInit:0000000000000000 USART_ClockInit
     /tmp/cc7Xux4D.s:463    .text.USART_ClockStructInit:0000000000000000 $t
     /tmp/cc7Xux4D.s:471    .text.USART_ClockStructInit:0000000000000000 USART_ClockStructInit
     /tmp/cc7Xux4D.s:494    .text.USART_Cmd:0000000000000000 $t
     /tmp/cc7Xux4D.s:502    .text.USART_Cmd:0000000000000000 USART_Cmd
     /tmp/cc7Xux4D.s:530    .text.USART_SetPrescaler:0000000000000000 $t
     /tmp/cc7Xux4D.s:538    .text.USART_SetPrescaler:0000000000000000 USART_SetPrescaler
     /tmp/cc7Xux4D.s:561    .text.USART_OverSampling8Cmd:0000000000000000 $t
     /tmp/cc7Xux4D.s:569    .text.USART_OverSampling8Cmd:0000000000000000 USART_OverSampling8Cmd
     /tmp/cc7Xux4D.s:595    .text.USART_OneBitMethodCmd:0000000000000000 $t
     /tmp/cc7Xux4D.s:603    .text.USART_OneBitMethodCmd:0000000000000000 USART_OneBitMethodCmd
     /tmp/cc7Xux4D.s:631    .text.USART_SendData:0000000000000000 $t
     /tmp/cc7Xux4D.s:639    .text.USART_SendData:0000000000000000 USART_SendData
     /tmp/cc7Xux4D.s:657    .text.USART_ReceiveData:0000000000000000 $t
     /tmp/cc7Xux4D.s:665    .text.USART_ReceiveData:0000000000000000 USART_ReceiveData
     /tmp/cc7Xux4D.s:683    .text.USART_SetAddress:0000000000000000 $t
     /tmp/cc7Xux4D.s:691    .text.USART_SetAddress:0000000000000000 USART_SetAddress
     /tmp/cc7Xux4D.s:716    .text.USART_ReceiverWakeUpCmd:0000000000000000 $t
     /tmp/cc7Xux4D.s:724    .text.USART_ReceiverWakeUpCmd:0000000000000000 USART_ReceiverWakeUpCmd
     /tmp/cc7Xux4D.s:752    .text.USART_WakeUpConfig:0000000000000000 $t
     /tmp/cc7Xux4D.s:760    .text.USART_WakeUpConfig:0000000000000000 USART_WakeUpConfig
     /tmp/cc7Xux4D.s:785    .text.USART_LINBreakDetectLengthConfig:0000000000000000 $t
     /tmp/cc7Xux4D.s:793    .text.USART_LINBreakDetectLengthConfig:0000000000000000 USART_LINBreakDetectLengthConfig
     /tmp/cc7Xux4D.s:818    .text.USART_LINCmd:0000000000000000 $t
     /tmp/cc7Xux4D.s:826    .text.USART_LINCmd:0000000000000000 USART_LINCmd
     /tmp/cc7Xux4D.s:854    .text.USART_SendBreak:0000000000000000 $t
     /tmp/cc7Xux4D.s:862    .text.USART_SendBreak:0000000000000000 USART_SendBreak
     /tmp/cc7Xux4D.s:880    .text.USART_HalfDuplexCmd:0000000000000000 $t
     /tmp/cc7Xux4D.s:888    .text.USART_HalfDuplexCmd:0000000000000000 USART_HalfDuplexCmd
     /tmp/cc7Xux4D.s:916    .text.USART_SetGuardTime:0000000000000000 $t
     /tmp/cc7Xux4D.s:924    .text.USART_SetGuardTime:0000000000000000 USART_SetGuardTime
     /tmp/cc7Xux4D.s:947    .text.USART_SmartCardCmd:0000000000000000 $t
     /tmp/cc7Xux4D.s:955    .text.USART_SmartCardCmd:0000000000000000 USART_SmartCardCmd
     /tmp/cc7Xux4D.s:983    .text.USART_SmartCardNACKCmd:0000000000000000 $t
     /tmp/cc7Xux4D.s:991    .text.USART_SmartCardNACKCmd:0000000000000000 USART_SmartCardNACKCmd
     /tmp/cc7Xux4D.s:1019   .text.USART_IrDAConfig:0000000000000000 $t
     /tmp/cc7Xux4D.s:1027   .text.USART_IrDAConfig:0000000000000000 USART_IrDAConfig
     /tmp/cc7Xux4D.s:1052   .text.USART_IrDACmd:0000000000000000 $t
     /tmp/cc7Xux4D.s:1060   .text.USART_IrDACmd:0000000000000000 USART_IrDACmd
     /tmp/cc7Xux4D.s:1088   .text.USART_DMACmd:0000000000000000 $t
     /tmp/cc7Xux4D.s:1096   .text.USART_DMACmd:0000000000000000 USART_DMACmd
     /tmp/cc7Xux4D.s:1125   .text.USART_ITConfig:0000000000000000 $t
     /tmp/cc7Xux4D.s:1133   .text.USART_ITConfig:0000000000000000 USART_ITConfig
     /tmp/cc7Xux4D.s:1213   .text.USART_GetFlagStatus:0000000000000000 $t
     /tmp/cc7Xux4D.s:1221   .text.USART_GetFlagStatus:0000000000000000 USART_GetFlagStatus
     /tmp/cc7Xux4D.s:1243   .text.USART_ClearFlag:0000000000000000 $t
ARM GAS  /tmp/cc7Xux4D.s 			page 90


     /tmp/cc7Xux4D.s:1251   .text.USART_ClearFlag:0000000000000000 USART_ClearFlag
     /tmp/cc7Xux4D.s:1270   .text.USART_GetITStatus:0000000000000000 $t
     /tmp/cc7Xux4D.s:1278   .text.USART_GetITStatus:0000000000000000 USART_GetITStatus
     /tmp/cc7Xux4D.s:1369   .text.USART_ClearITPendingBit:0000000000000000 $t
     /tmp/cc7Xux4D.s:1377   .text.USART_ClearITPendingBit:0000000000000000 USART_ClearITPendingBit

UNDEFINED SYMBOLS
RCC_APB1PeriphResetCmd
RCC_APB2PeriphResetCmd
RCC_GetClocksFreq
