ARM GAS  /tmp/ccstrCE5.s 			page 1


   1              		.cpu cortex-m4
   2              		.eabi_attribute 27, 1
   3              		.eabi_attribute 28, 1
   4              		.eabi_attribute 20, 1
   5              		.eabi_attribute 21, 1
   6              		.eabi_attribute 23, 3
   7              		.eabi_attribute 24, 1
   8              		.eabi_attribute 25, 1
   9              		.eabi_attribute 26, 1
  10              		.eabi_attribute 30, 2
  11              		.eabi_attribute 34, 1
  12              		.eabi_attribute 18, 4
  13              		.file	"stm32f4xx_exti.c"
  14              		.text
  15              	.Ltext0:
  16              		.cfi_sections	.debug_frame
  17              		.section	.text.EXTI_DeInit,"ax",%progbits
  18              		.align	1
  19              		.p2align 4,,15
  20              		.global	EXTI_DeInit
  21              		.syntax unified
  22              		.thumb
  23              		.thumb_func
  24              		.fpu fpv4-sp-d16
  25              		.type	EXTI_DeInit, %function
  26              	EXTI_DeInit:
  27              	.LFB111:
  28              		.file 1 "ChibiOS_2.6.6/ext/stdperiph_stm32f4/src/stm32f4xx_exti.c"
  29              		.loc 1 110 0
  30              		.cfi_startproc
  31              		@ args = 0, pretend = 0, frame = 0
  32              		@ frame_needed = 0, uses_anonymous_args = 0
  33              		@ link register save eliminated.
  34              		.loc 1 111 0
  35 0000 044B     		ldr	r3, .L3
  36              		.loc 1 115 0
  37 0002 0549     		ldr	r1, .L3+4
  38              		.loc 1 111 0
  39 0004 0022     		movs	r2, #0
  40 0006 1A60     		str	r2, [r3]
  41              		.loc 1 112 0
  42 0008 5A60     		str	r2, [r3, #4]
  43              		.loc 1 113 0
  44 000a 9A60     		str	r2, [r3, #8]
  45              		.loc 1 114 0
  46 000c DA60     		str	r2, [r3, #12]
  47              		.loc 1 115 0
  48 000e 5961     		str	r1, [r3, #20]
  49              		.loc 1 116 0
  50 0010 7047     		bx	lr
  51              	.L4:
  52 0012 00BF     		.align	2
  53              	.L3:
  54 0014 003C0140 		.word	1073822720
  55 0018 FFFF7F00 		.word	8388607
  56              		.cfi_endproc
  57              	.LFE111:
ARM GAS  /tmp/ccstrCE5.s 			page 2


  58              		.size	EXTI_DeInit, .-EXTI_DeInit
  59              		.section	.text.EXTI_Init,"ax",%progbits
  60              		.align	1
  61              		.p2align 4,,15
  62              		.global	EXTI_Init
  63              		.syntax unified
  64              		.thumb
  65              		.thumb_func
  66              		.fpu fpv4-sp-d16
  67              		.type	EXTI_Init, %function
  68              	EXTI_Init:
  69              	.LFB112:
  70              		.loc 1 126 0
  71              		.cfi_startproc
  72              		@ args = 0, pretend = 0, frame = 0
  73              		@ frame_needed = 0, uses_anonymous_args = 0
  74              		@ link register save eliminated.
  75              	.LVL0:
  76 0000 0379     		ldrb	r3, [r0, #4]	@ zero_extendqisi2
  77              		.loc 1 137 0
  78 0002 8279     		ldrb	r2, [r0, #6]	@ zero_extendqisi2
  79              		.loc 1 126 0
  80 0004 70B4     		push	{r4, r5, r6}
  81              		.cfi_def_cfa_offset 12
  82              		.cfi_offset 4, -12
  83              		.cfi_offset 5, -8
  84              		.cfi_offset 6, -4
  85 0006 0568     		ldr	r5, [r0]
  86 0008 03F18043 		add	r3, r3, #1073741824
  87 000c 03F59E33 		add	r3, r3, #80896
  88 0010 EC43     		mvns	r4, r5
  89              		.loc 1 137 0
  90 0012 F2B1     		cbz	r2, .L6
  91              		.loc 1 140 0
  92 0014 154A     		ldr	r2, .L11
  93              		.loc 1 152 0
  94 0016 4179     		ldrb	r1, [r0, #5]	@ zero_extendqisi2
  95              		.loc 1 140 0
  96 0018 1668     		ldr	r6, [r2]
  97 001a 2640     		ands	r6, r6, r4
  98 001c 1660     		str	r6, [r2]
  99              		.loc 1 141 0
 100 001e 5668     		ldr	r6, [r2, #4]
 101 0020 3440     		ands	r4, r4, r6
 102 0022 5460     		str	r4, [r2, #4]
 103              	.LVL1:
 104              		.loc 1 145 0
 105 0024 1C68     		ldr	r4, [r3]
 106 0026 2543     		orrs	r5, r5, r4
 107 0028 1D60     		str	r5, [r3]
 108              		.loc 1 148 0
 109 002a 0068     		ldr	r0, [r0]
 110              	.LVL2:
 111 002c 9468     		ldr	r4, [r2, #8]
 112 002e C343     		mvns	r3, r0
 113 0030 1C40     		ands	r4, r4, r3
 114 0032 9460     		str	r4, [r2, #8]
ARM GAS  /tmp/ccstrCE5.s 			page 3


 115              		.loc 1 149 0
 116 0034 D468     		ldr	r4, [r2, #12]
 117              		.loc 1 152 0
 118 0036 1029     		cmp	r1, #16
 119              		.loc 1 149 0
 120 0038 03EA0403 		and	r3, r3, r4
 121 003c D360     		str	r3, [r2, #12]
 122              		.loc 1 152 0
 123 003e 0DD0     		beq	.L10
 124              	.LVL3:
 125              		.loc 1 161 0
 126 0040 01F18043 		add	r3, r1, #1073741824
 127 0044 03F59E33 		add	r3, r3, #80896
 128              		.loc 1 173 0
 129 0048 70BC     		pop	{r4, r5, r6}
 130              		.cfi_remember_state
 131              		.cfi_restore 6
 132              		.cfi_restore 5
 133              		.cfi_restore 4
 134              		.cfi_def_cfa_offset 0
 135              		.loc 1 163 0
 136 004a 1A68     		ldr	r2, [r3]
 137 004c 1043     		orrs	r0, r0, r2
 138 004e 1860     		str	r0, [r3]
 139              		.loc 1 173 0
 140 0050 7047     		bx	lr
 141              	.LVL4:
 142              	.L6:
 143              		.cfi_restore_state
 144              		.loc 1 171 0
 145 0052 1A68     		ldr	r2, [r3]
 146 0054 1440     		ands	r4, r4, r2
 147 0056 1C60     		str	r4, [r3]
 148              		.loc 1 173 0
 149 0058 70BC     		pop	{r4, r5, r6}
 150              		.cfi_remember_state
 151              		.cfi_restore 6
 152              		.cfi_restore 5
 153              		.cfi_restore 4
 154              		.cfi_def_cfa_offset 0
 155 005a 7047     		bx	lr
 156              	.LVL5:
 157              	.L10:
 158              		.cfi_restore_state
 159              		.loc 1 155 0
 160 005c 9368     		ldr	r3, [r2, #8]
 161 005e 0343     		orrs	r3, r3, r0
 162 0060 9360     		str	r3, [r2, #8]
 163              		.loc 1 156 0
 164 0062 D368     		ldr	r3, [r2, #12]
 165 0064 1843     		orrs	r0, r0, r3
 166 0066 D060     		str	r0, [r2, #12]
 167              		.loc 1 173 0
 168 0068 70BC     		pop	{r4, r5, r6}
 169              		.cfi_restore 6
 170              		.cfi_restore 5
 171              		.cfi_restore 4
ARM GAS  /tmp/ccstrCE5.s 			page 4


 172              		.cfi_def_cfa_offset 0
 173 006a 7047     		bx	lr
 174              	.L12:
 175              		.align	2
 176              	.L11:
 177 006c 003C0140 		.word	1073822720
 178              		.cfi_endproc
 179              	.LFE112:
 180              		.size	EXTI_Init, .-EXTI_Init
 181              		.section	.text.EXTI_StructInit,"ax",%progbits
 182              		.align	1
 183              		.p2align 4,,15
 184              		.global	EXTI_StructInit
 185              		.syntax unified
 186              		.thumb
 187              		.thumb_func
 188              		.fpu fpv4-sp-d16
 189              		.type	EXTI_StructInit, %function
 190              	EXTI_StructInit:
 191              	.LFB113:
 192              		.loc 1 182 0
 193              		.cfi_startproc
 194              		@ args = 0, pretend = 0, frame = 0
 195              		@ frame_needed = 0, uses_anonymous_args = 0
 196              		@ link register save eliminated.
 197              	.LVL6:
 198              		.loc 1 183 0
 199 0000 0023     		movs	r3, #0
 200              		.loc 1 185 0
 201 0002 0C22     		movs	r2, #12
 202 0004 4271     		strb	r2, [r0, #5]
 203              		.loc 1 183 0
 204 0006 0360     		str	r3, [r0]
 205              		.loc 1 184 0
 206 0008 0371     		strb	r3, [r0, #4]
 207              		.loc 1 186 0
 208 000a 8371     		strb	r3, [r0, #6]
 209              		.loc 1 187 0
 210 000c 7047     		bx	lr
 211              		.cfi_endproc
 212              	.LFE113:
 213              		.size	EXTI_StructInit, .-EXTI_StructInit
 214 000e 00BF     		.section	.text.EXTI_GenerateSWInterrupt,"ax",%progbits
 215              		.align	1
 216              		.p2align 4,,15
 217              		.global	EXTI_GenerateSWInterrupt
 218              		.syntax unified
 219              		.thumb
 220              		.thumb_func
 221              		.fpu fpv4-sp-d16
 222              		.type	EXTI_GenerateSWInterrupt, %function
 223              	EXTI_GenerateSWInterrupt:
 224              	.LFB114:
 225              		.loc 1 197 0
 226              		.cfi_startproc
 227              		@ args = 0, pretend = 0, frame = 0
 228              		@ frame_needed = 0, uses_anonymous_args = 0
ARM GAS  /tmp/ccstrCE5.s 			page 5


 229              		@ link register save eliminated.
 230              	.LVL7:
 231              		.loc 1 201 0
 232 0000 024A     		ldr	r2, .L15
 233 0002 1369     		ldr	r3, [r2, #16]
 234 0004 1843     		orrs	r0, r0, r3
 235              	.LVL8:
 236 0006 1061     		str	r0, [r2, #16]
 237              		.loc 1 202 0
 238 0008 7047     		bx	lr
 239              	.L16:
 240 000a 00BF     		.align	2
 241              	.L15:
 242 000c 003C0140 		.word	1073822720
 243              		.cfi_endproc
 244              	.LFE114:
 245              		.size	EXTI_GenerateSWInterrupt, .-EXTI_GenerateSWInterrupt
 246              		.section	.text.EXTI_GetFlagStatus,"ax",%progbits
 247              		.align	1
 248              		.p2align 4,,15
 249              		.global	EXTI_GetFlagStatus
 250              		.syntax unified
 251              		.thumb
 252              		.thumb_func
 253              		.fpu fpv4-sp-d16
 254              		.type	EXTI_GetFlagStatus, %function
 255              	EXTI_GetFlagStatus:
 256              	.LFB115:
 257              		.loc 1 227 0
 258              		.cfi_startproc
 259              		@ args = 0, pretend = 0, frame = 0
 260              		@ frame_needed = 0, uses_anonymous_args = 0
 261              		@ link register save eliminated.
 262              	.LVL9:
 263              		.loc 1 232 0
 264 0000 034B     		ldr	r3, .L18
 265 0002 5B69     		ldr	r3, [r3, #20]
 266              	.LVL10:
 267 0004 0342     		tst	r3, r0
 268              		.loc 1 241 0
 269 0006 14BF     		ite	ne
 270 0008 0120     		movne	r0, #1
 271              	.LVL11:
 272 000a 0020     		moveq	r0, #0
 273 000c 7047     		bx	lr
 274              	.L19:
 275 000e 00BF     		.align	2
 276              	.L18:
 277 0010 003C0140 		.word	1073822720
 278              		.cfi_endproc
 279              	.LFE115:
 280              		.size	EXTI_GetFlagStatus, .-EXTI_GetFlagStatus
 281              		.section	.text.EXTI_ClearFlag,"ax",%progbits
 282              		.align	1
 283              		.p2align 4,,15
 284              		.global	EXTI_ClearFlag
 285              		.syntax unified
ARM GAS  /tmp/ccstrCE5.s 			page 6


 286              		.thumb
 287              		.thumb_func
 288              		.fpu fpv4-sp-d16
 289              		.type	EXTI_ClearFlag, %function
 290              	EXTI_ClearFlag:
 291              	.LFB116:
 292              		.loc 1 250 0
 293              		.cfi_startproc
 294              		@ args = 0, pretend = 0, frame = 0
 295              		@ frame_needed = 0, uses_anonymous_args = 0
 296              		@ link register save eliminated.
 297              	.LVL12:
 298              		.loc 1 254 0
 299 0000 014B     		ldr	r3, .L21
 300 0002 5861     		str	r0, [r3, #20]
 301              		.loc 1 255 0
 302 0004 7047     		bx	lr
 303              	.L22:
 304 0006 00BF     		.align	2
 305              	.L21:
 306 0008 003C0140 		.word	1073822720
 307              		.cfi_endproc
 308              	.LFE116:
 309              		.size	EXTI_ClearFlag, .-EXTI_ClearFlag
 310              		.section	.text.EXTI_GetITStatus,"ax",%progbits
 311              		.align	1
 312              		.p2align 4,,15
 313              		.global	EXTI_GetITStatus
 314              		.syntax unified
 315              		.thumb
 316              		.thumb_func
 317              		.fpu fpv4-sp-d16
 318              		.type	EXTI_GetITStatus, %function
 319              	EXTI_GetITStatus:
 320              	.LFB117:
 321              		.loc 1 264 0
 322              		.cfi_startproc
 323              		@ args = 0, pretend = 0, frame = 0
 324              		@ frame_needed = 0, uses_anonymous_args = 0
 325              		@ link register save eliminated.
 326              	.LVL13:
 327              		.loc 1 270 0
 328 0000 054B     		ldr	r3, .L26
 329 0002 1A68     		ldr	r2, [r3]
 330              		.loc 1 271 0
 331 0004 5B69     		ldr	r3, [r3, #20]
 332              	.LVL14:
 333 0006 0340     		ands	r3, r3, r0
 334 0008 04D0     		beq	.L25
 335              		.loc 1 271 0 is_stmt 0 discriminator 1
 336 000a 0242     		tst	r2, r0
 337              		.loc 1 273 0 is_stmt 1 discriminator 1
 338 000c 14BF     		ite	ne
 339 000e 0120     		movne	r0, #1
 340              	.LVL15:
 341 0010 0020     		moveq	r0, #0
 342 0012 7047     		bx	lr
ARM GAS  /tmp/ccstrCE5.s 			page 7


 343              	.LVL16:
 344              	.L25:
 345              		.loc 1 277 0
 346 0014 1846     		mov	r0, r3
 347              	.LVL17:
 348              		.loc 1 280 0
 349 0016 7047     		bx	lr
 350              	.L27:
 351              		.align	2
 352              	.L26:
 353 0018 003C0140 		.word	1073822720
 354              		.cfi_endproc
 355              	.LFE117:
 356              		.size	EXTI_GetITStatus, .-EXTI_GetITStatus
 357              		.section	.text.EXTI_ClearITPendingBit,"ax",%progbits
 358              		.align	1
 359              		.p2align 4,,15
 360              		.global	EXTI_ClearITPendingBit
 361              		.syntax unified
 362              		.thumb
 363              		.thumb_func
 364              		.fpu fpv4-sp-d16
 365              		.type	EXTI_ClearITPendingBit, %function
 366              	EXTI_ClearITPendingBit:
 367              	.LFB120:
 368              		.cfi_startproc
 369              		@ args = 0, pretend = 0, frame = 0
 370              		@ frame_needed = 0, uses_anonymous_args = 0
 371              		@ link register save eliminated.
 372 0000 014B     		ldr	r3, .L29
 373 0002 5861     		str	r0, [r3, #20]
 374 0004 7047     		bx	lr
 375              	.L30:
 376 0006 00BF     		.align	2
 377              	.L29:
 378 0008 003C0140 		.word	1073822720
 379              		.cfi_endproc
 380              	.LFE120:
 381              		.size	EXTI_ClearITPendingBit, .-EXTI_ClearITPendingBit
 382              		.text
 383              	.Letext0:
 384              		.file 2 "/usr/arm-none-eabi/include/machine/_default_types.h"
 385              		.file 3 "/usr/arm-none-eabi/include/sys/_stdint.h"
 386              		.file 4 "ChibiOS_2.6.6/os/hal/platforms/STM32F4xx/stm32f4xx.h"
 387              		.file 5 "ChibiOS_2.6.6/ext/stdperiph_stm32f4/inc/stm32f4xx_exti.h"
 388              		.file 6 "ChibiOS_2.6.6/os/ports/common/ARMCMx/CMSIS/include/core_cm4.h"
 389              		.section	.debug_info,"",%progbits
 390              	.Ldebug_info0:
 391 0000 59030000 		.4byte	0x359
 392 0004 0400     		.2byte	0x4
 393 0006 00000000 		.4byte	.Ldebug_abbrev0
 394 000a 04       		.byte	0x4
 395 000b 01       		.uleb128 0x1
 396 000c 9C010000 		.4byte	.LASF43
 397 0010 0C       		.byte	0xc
 398 0011 01030000 		.4byte	.LASF44
 399 0015 A7030000 		.4byte	.LASF45
ARM GAS  /tmp/ccstrCE5.s 			page 8


 400 0019 00000000 		.4byte	.Ldebug_ranges0+0
 401 001d 00000000 		.4byte	0
 402 0021 00000000 		.4byte	.Ldebug_line0
 403 0025 02       		.uleb128 0x2
 404 0026 01       		.byte	0x1
 405 0027 06       		.byte	0x6
 406 0028 D6030000 		.4byte	.LASF0
 407 002c 02       		.uleb128 0x2
 408 002d 01       		.byte	0x1
 409 002e 08       		.byte	0x8
 410 002f E0000000 		.4byte	.LASF1
 411 0033 02       		.uleb128 0x2
 412 0034 02       		.byte	0x2
 413 0035 05       		.byte	0x5
 414 0036 88030000 		.4byte	.LASF2
 415 003a 02       		.uleb128 0x2
 416 003b 02       		.byte	0x2
 417 003c 07       		.byte	0x7
 418 003d 5E000000 		.4byte	.LASF3
 419 0041 03       		.uleb128 0x3
 420 0042 44000000 		.4byte	.LASF5
 421 0046 02       		.byte	0x2
 422 0047 4D       		.byte	0x4d
 423 0048 4C000000 		.4byte	0x4c
 424 004c 02       		.uleb128 0x2
 425 004d 04       		.byte	0x4
 426 004e 05       		.byte	0x5
 427 004f CD030000 		.4byte	.LASF4
 428 0053 03       		.uleb128 0x3
 429 0054 61010000 		.4byte	.LASF6
 430 0058 02       		.byte	0x2
 431 0059 4F       		.byte	0x4f
 432 005a 5E000000 		.4byte	0x5e
 433 005e 02       		.uleb128 0x2
 434 005f 04       		.byte	0x4
 435 0060 07       		.byte	0x7
 436 0061 08010000 		.4byte	.LASF7
 437 0065 02       		.uleb128 0x2
 438 0066 08       		.byte	0x8
 439 0067 05       		.byte	0x5
 440 0068 52030000 		.4byte	.LASF8
 441 006c 02       		.uleb128 0x2
 442 006d 08       		.byte	0x8
 443 006e 07       		.byte	0x7
 444 006f EA020000 		.4byte	.LASF9
 445 0073 04       		.uleb128 0x4
 446 0074 04       		.byte	0x4
 447 0075 05       		.byte	0x5
 448 0076 696E7400 		.ascii	"int\000"
 449 007a 02       		.uleb128 0x2
 450 007b 04       		.byte	0x4
 451 007c 07       		.byte	0x7
 452 007d C0020000 		.4byte	.LASF10
 453 0081 03       		.uleb128 0x3
 454 0082 4A030000 		.4byte	.LASF11
 455 0086 03       		.byte	0x3
 456 0087 2C       		.byte	0x2c
ARM GAS  /tmp/ccstrCE5.s 			page 9


 457 0088 41000000 		.4byte	0x41
 458 008c 05       		.uleb128 0x5
 459 008d 81000000 		.4byte	0x81
 460 0091 03       		.uleb128 0x3
 461 0092 58010000 		.4byte	.LASF12
 462 0096 03       		.byte	0x3
 463 0097 30       		.byte	0x30
 464 0098 53000000 		.4byte	0x53
 465 009c 05       		.uleb128 0x5
 466 009d 91000000 		.4byte	0x91
 467 00a1 06       		.uleb128 0x6
 468 00a2 46010000 		.4byte	.LASF46
 469 00a6 06       		.byte	0x6
 470 00a7 9806     		.2byte	0x698
 471 00a9 8C000000 		.4byte	0x8c
 472 00ad 07       		.uleb128 0x7
 473 00ae 07       		.byte	0x7
 474 00af 01       		.byte	0x1
 475 00b0 2C000000 		.4byte	0x2c
 476 00b4 04       		.byte	0x4
 477 00b5 F701     		.2byte	0x1f7
 478 00b7 C8000000 		.4byte	0xc8
 479 00bb 08       		.uleb128 0x8
 480 00bc 1A010000 		.4byte	.LASF13
 481 00c0 00       		.byte	0
 482 00c1 09       		.uleb128 0x9
 483 00c2 53455400 		.ascii	"SET\000"
 484 00c6 01       		.byte	0x1
 485 00c7 00       		.byte	0
 486 00c8 0A       		.uleb128 0xa
 487 00c9 EE000000 		.4byte	.LASF14
 488 00cd 04       		.byte	0x4
 489 00ce F701     		.2byte	0x1f7
 490 00d0 AD000000 		.4byte	0xad
 491 00d4 0A       		.uleb128 0xa
 492 00d5 14000000 		.4byte	.LASF15
 493 00d9 04       		.byte	0x4
 494 00da F701     		.2byte	0x1f7
 495 00dc AD000000 		.4byte	0xad
 496 00e0 07       		.uleb128 0x7
 497 00e1 07       		.byte	0x7
 498 00e2 01       		.byte	0x1
 499 00e3 2C000000 		.4byte	0x2c
 500 00e7 04       		.byte	0x4
 501 00e8 F901     		.2byte	0x1f9
 502 00ea FB000000 		.4byte	0xfb
 503 00ee 08       		.uleb128 0x8
 504 00ef 3E010000 		.4byte	.LASF16
 505 00f3 00       		.byte	0
 506 00f4 08       		.uleb128 0x8
 507 00f5 C5000000 		.4byte	.LASF17
 508 00f9 01       		.byte	0x1
 509 00fa 00       		.byte	0
 510 00fb 0A       		.uleb128 0xa
 511 00fc 71000000 		.4byte	.LASF18
 512 0100 04       		.byte	0x4
 513 0101 F901     		.2byte	0x1f9
ARM GAS  /tmp/ccstrCE5.s 			page 10


 514 0103 E0000000 		.4byte	0xe0
 515 0107 0B       		.uleb128 0xb
 516 0108 18       		.byte	0x18
 517 0109 04       		.byte	0x4
 518 010a 3003     		.2byte	0x330
 519 010c 5E010000 		.4byte	0x15e
 520 0110 0C       		.uleb128 0xc
 521 0111 494D5200 		.ascii	"IMR\000"
 522 0115 04       		.byte	0x4
 523 0116 3203     		.2byte	0x332
 524 0118 9C000000 		.4byte	0x9c
 525 011c 00       		.byte	0
 526 011d 0C       		.uleb128 0xc
 527 011e 454D5200 		.ascii	"EMR\000"
 528 0122 04       		.byte	0x4
 529 0123 3303     		.2byte	0x333
 530 0125 9C000000 		.4byte	0x9c
 531 0129 04       		.byte	0x4
 532 012a 0D       		.uleb128 0xd
 533 012b 53010000 		.4byte	.LASF19
 534 012f 04       		.byte	0x4
 535 0130 3403     		.2byte	0x334
 536 0132 9C000000 		.4byte	0x9c
 537 0136 08       		.byte	0x8
 538 0137 0D       		.uleb128 0xd
 539 0138 C8030000 		.4byte	.LASF20
 540 013c 04       		.byte	0x4
 541 013d 3503     		.2byte	0x335
 542 013f 9C000000 		.4byte	0x9c
 543 0143 0C       		.byte	0xc
 544 0144 0D       		.uleb128 0xd
 545 0145 F6030000 		.4byte	.LASF21
 546 0149 04       		.byte	0x4
 547 014a 3603     		.2byte	0x336
 548 014c 9C000000 		.4byte	0x9c
 549 0150 10       		.byte	0x10
 550 0151 0C       		.uleb128 0xc
 551 0152 505200   		.ascii	"PR\000"
 552 0155 04       		.byte	0x4
 553 0156 3703     		.2byte	0x337
 554 0158 9C000000 		.4byte	0x9c
 555 015c 14       		.byte	0x14
 556 015d 00       		.byte	0
 557 015e 0A       		.uleb128 0xa
 558 015f 31010000 		.4byte	.LASF22
 559 0163 04       		.byte	0x4
 560 0164 3803     		.2byte	0x338
 561 0166 07010000 		.4byte	0x107
 562 016a 0E       		.uleb128 0xe
 563 016b 07       		.byte	0x7
 564 016c 01       		.byte	0x1
 565 016d 2C000000 		.4byte	0x2c
 566 0171 05       		.byte	0x5
 567 0172 37       		.byte	0x37
 568 0173 84010000 		.4byte	0x184
 569 0177 08       		.uleb128 0x8
 570 0178 CC000000 		.4byte	.LASF23
ARM GAS  /tmp/ccstrCE5.s 			page 11


 571 017c 00       		.byte	0
 572 017d 08       		.uleb128 0x8
 573 017e 4E000000 		.4byte	.LASF24
 574 0182 04       		.byte	0x4
 575 0183 00       		.byte	0
 576 0184 03       		.uleb128 0x3
 577 0185 20010000 		.4byte	.LASF25
 578 0189 05       		.byte	0x5
 579 018a 3A       		.byte	0x3a
 580 018b 6A010000 		.4byte	0x16a
 581 018f 0E       		.uleb128 0xe
 582 0190 07       		.byte	0x7
 583 0191 01       		.byte	0x1
 584 0192 2C000000 		.4byte	0x2c
 585 0196 05       		.byte	0x5
 586 0197 43       		.byte	0x43
 587 0198 AF010000 		.4byte	0x1af
 588 019c 08       		.uleb128 0x8
 589 019d 6C010000 		.4byte	.LASF26
 590 01a1 08       		.byte	0x8
 591 01a2 08       		.uleb128 0x8
 592 01a3 92030000 		.4byte	.LASF27
 593 01a7 0C       		.byte	0xc
 594 01a8 08       		.uleb128 0x8
 595 01a9 80010000 		.4byte	.LASF28
 596 01ad 10       		.byte	0x10
 597 01ae 00       		.byte	0
 598 01af 03       		.uleb128 0x3
 599 01b0 E2030000 		.4byte	.LASF29
 600 01b4 05       		.byte	0x5
 601 01b5 47       		.byte	0x47
 602 01b6 8F010000 		.4byte	0x18f
 603 01ba 0F       		.uleb128 0xf
 604 01bb 08       		.byte	0x8
 605 01bc 05       		.byte	0x5
 606 01bd 50       		.byte	0x50
 607 01be F3010000 		.4byte	0x1f3
 608 01c2 10       		.uleb128 0x10
 609 01c3 00000000 		.4byte	.LASF30
 610 01c7 05       		.byte	0x5
 611 01c8 52       		.byte	0x52
 612 01c9 91000000 		.4byte	0x91
 613 01cd 00       		.byte	0
 614 01ce 10       		.uleb128 0x10
 615 01cf 0A000000 		.4byte	.LASF31
 616 01d3 05       		.byte	0x5
 617 01d4 55       		.byte	0x55
 618 01d5 84010000 		.4byte	0x184
 619 01d9 04       		.byte	0x4
 620 01da 10       		.uleb128 0x10
 621 01db 37000000 		.4byte	.LASF32
 622 01df 05       		.byte	0x5
 623 01e0 58       		.byte	0x58
 624 01e1 AF010000 		.4byte	0x1af
 625 01e5 05       		.byte	0x5
 626 01e6 10       		.uleb128 0x10
 627 01e7 2A000000 		.4byte	.LASF33
ARM GAS  /tmp/ccstrCE5.s 			page 12


 628 01eb 05       		.byte	0x5
 629 01ec 5B       		.byte	0x5b
 630 01ed FB000000 		.4byte	0xfb
 631 01f1 06       		.byte	0x6
 632 01f2 00       		.byte	0
 633 01f3 03       		.uleb128 0x3
 634 01f4 A4000000 		.4byte	.LASF34
 635 01f8 05       		.byte	0x5
 636 01f9 5D       		.byte	0x5d
 637 01fa BA010000 		.4byte	0x1ba
 638 01fe 11       		.uleb128 0x11
 639 01ff 71030000 		.4byte	.LASF47
 640 0203 01       		.byte	0x1
 641 0204 2001     		.2byte	0x120
 642 0206 17020000 		.4byte	0x217
 643 020a 12       		.uleb128 0x12
 644 020b 00000000 		.4byte	.LASF30
 645 020f 01       		.byte	0x1
 646 0210 2001     		.2byte	0x120
 647 0212 91000000 		.4byte	0x91
 648 0216 00       		.byte	0
 649 0217 13       		.uleb128 0x13
 650 0218 60030000 		.4byte	.LASF37
 651 021c 01       		.byte	0x1
 652 021d 0701     		.2byte	0x107
 653 021f D4000000 		.4byte	0xd4
 654 0223 00000000 		.4byte	.LFB117
 655 0227 1C000000 		.4byte	.LFE117-.LFB117
 656 022b 01       		.uleb128 0x1
 657 022c 9C       		.byte	0x9c
 658 022d 62020000 		.4byte	0x262
 659 0231 14       		.uleb128 0x14
 660 0232 00000000 		.4byte	.LASF30
 661 0236 01       		.byte	0x1
 662 0237 0701     		.2byte	0x107
 663 0239 91000000 		.4byte	0x91
 664 023d 00000000 		.4byte	.LLST5
 665 0241 15       		.uleb128 0x15
 666 0242 81000000 		.4byte	.LASF35
 667 0246 01       		.byte	0x1
 668 0247 0901     		.2byte	0x109
 669 0249 D4000000 		.4byte	0xd4
 670 024d 3A000000 		.4byte	.LLST6
 671 0251 15       		.uleb128 0x15
 672 0252 1D000000 		.4byte	.LASF36
 673 0256 01       		.byte	0x1
 674 0257 0A01     		.2byte	0x10a
 675 0259 91000000 		.4byte	0x91
 676 025d 59000000 		.4byte	.LLST7
 677 0261 00       		.byte	0
 678 0262 16       		.uleb128 0x16
 679 0263 F9000000 		.4byte	.LASF48
 680 0267 01       		.byte	0x1
 681 0268 F9       		.byte	0xf9
 682 0269 01       		.byte	0x1
 683 026a 7A020000 		.4byte	0x27a
 684 026e 17       		.uleb128 0x17
ARM GAS  /tmp/ccstrCE5.s 			page 13


 685 026f 00000000 		.4byte	.LASF30
 686 0273 01       		.byte	0x1
 687 0274 F9       		.byte	0xf9
 688 0275 91000000 		.4byte	0x91
 689 0279 00       		.byte	0
 690 027a 18       		.uleb128 0x18
 691 027b D7020000 		.4byte	.LASF38
 692 027f 01       		.byte	0x1
 693 0280 E2       		.byte	0xe2
 694 0281 C8000000 		.4byte	0xc8
 695 0285 00000000 		.4byte	.LFB115
 696 0289 14000000 		.4byte	.LFE115-.LFB115
 697 028d 01       		.uleb128 0x1
 698 028e 9C       		.byte	0x9c
 699 028f B2020000 		.4byte	0x2b2
 700 0293 19       		.uleb128 0x19
 701 0294 00000000 		.4byte	.LASF30
 702 0298 01       		.byte	0x1
 703 0299 E2       		.byte	0xe2
 704 029a 91000000 		.4byte	0x91
 705 029e AF000000 		.4byte	.LLST3
 706 02a2 1A       		.uleb128 0x1a
 707 02a3 81000000 		.4byte	.LASF35
 708 02a7 01       		.byte	0x1
 709 02a8 E4       		.byte	0xe4
 710 02a9 C8000000 		.4byte	0xc8
 711 02ad D0000000 		.4byte	.LLST4
 712 02b1 00       		.byte	0
 713 02b2 1B       		.uleb128 0x1b
 714 02b3 8B000000 		.4byte	.LASF39
 715 02b7 01       		.byte	0x1
 716 02b8 C4       		.byte	0xc4
 717 02b9 00000000 		.4byte	.LFB114
 718 02bd 10000000 		.4byte	.LFE114-.LFB114
 719 02c1 01       		.uleb128 0x1
 720 02c2 9C       		.byte	0x9c
 721 02c3 D7020000 		.4byte	0x2d7
 722 02c7 19       		.uleb128 0x19
 723 02c8 00000000 		.4byte	.LASF30
 724 02cc 01       		.byte	0x1
 725 02cd C4       		.byte	0xc4
 726 02ce 91000000 		.4byte	0x91
 727 02d2 09010000 		.4byte	.LLST2
 728 02d6 00       		.byte	0
 729 02d7 1B       		.uleb128 0x1b
 730 02d8 3A030000 		.4byte	.LASF40
 731 02dc 01       		.byte	0x1
 732 02dd B5       		.byte	0xb5
 733 02de 00000000 		.4byte	.LFB113
 734 02e2 0E000000 		.4byte	.LFE113-.LFB113
 735 02e6 01       		.uleb128 0x1
 736 02e7 9C       		.byte	0x9c
 737 02e8 FA020000 		.4byte	0x2fa
 738 02ec 1C       		.uleb128 0x1c
 739 02ed B5000000 		.4byte	.LASF41
 740 02f1 01       		.byte	0x1
 741 02f2 B5       		.byte	0xb5
ARM GAS  /tmp/ccstrCE5.s 			page 14


 742 02f3 FA020000 		.4byte	0x2fa
 743 02f7 01       		.uleb128 0x1
 744 02f8 50       		.byte	0x50
 745 02f9 00       		.byte	0
 746 02fa 1D       		.uleb128 0x1d
 747 02fb 04       		.byte	0x4
 748 02fc F3010000 		.4byte	0x1f3
 749 0300 1B       		.uleb128 0x1b
 750 0301 CD020000 		.4byte	.LASF42
 751 0305 01       		.byte	0x1
 752 0306 7D       		.byte	0x7d
 753 0307 00000000 		.4byte	.LFB112
 754 030b 70000000 		.4byte	.LFE112-.LFB112
 755 030f 01       		.uleb128 0x1
 756 0310 9C       		.byte	0x9c
 757 0311 34030000 		.4byte	0x334
 758 0315 19       		.uleb128 0x19
 759 0316 B5000000 		.4byte	.LASF41
 760 031a 01       		.byte	0x1
 761 031b 7D       		.byte	0x7d
 762 031c FA020000 		.4byte	0x2fa
 763 0320 2A010000 		.4byte	.LLST0
 764 0324 1E       		.uleb128 0x1e
 765 0325 746D7000 		.ascii	"tmp\000"
 766 0329 01       		.byte	0x1
 767 032a 7F       		.byte	0x7f
 768 032b 91000000 		.4byte	0x91
 769 032f 64010000 		.4byte	.LLST1
 770 0333 00       		.byte	0
 771 0334 1F       		.uleb128 0x1f
 772 0335 FC030000 		.4byte	.LASF49
 773 0339 01       		.byte	0x1
 774 033a 6D       		.byte	0x6d
 775 033b 00000000 		.4byte	.LFB111
 776 033f 1C000000 		.4byte	.LFE111-.LFB111
 777 0343 01       		.uleb128 0x1
 778 0344 9C       		.byte	0x9c
 779 0345 20       		.uleb128 0x20
 780 0346 62020000 		.4byte	0x262
 781 034a 00000000 		.4byte	.LFB116
 782 034e 0C000000 		.4byte	.LFE116-.LFB116
 783 0352 01       		.uleb128 0x1
 784 0353 9C       		.byte	0x9c
 785 0354 21       		.uleb128 0x21
 786 0355 6E020000 		.4byte	0x26e
 787 0359 01       		.uleb128 0x1
 788 035a 50       		.byte	0x50
 789 035b 00       		.byte	0
 790 035c 00       		.byte	0
 791              		.section	.debug_abbrev,"",%progbits
 792              	.Ldebug_abbrev0:
 793 0000 01       		.uleb128 0x1
 794 0001 11       		.uleb128 0x11
 795 0002 01       		.byte	0x1
 796 0003 25       		.uleb128 0x25
 797 0004 0E       		.uleb128 0xe
 798 0005 13       		.uleb128 0x13
ARM GAS  /tmp/ccstrCE5.s 			page 15


 799 0006 0B       		.uleb128 0xb
 800 0007 03       		.uleb128 0x3
 801 0008 0E       		.uleb128 0xe
 802 0009 1B       		.uleb128 0x1b
 803 000a 0E       		.uleb128 0xe
 804 000b 55       		.uleb128 0x55
 805 000c 17       		.uleb128 0x17
 806 000d 11       		.uleb128 0x11
 807 000e 01       		.uleb128 0x1
 808 000f 10       		.uleb128 0x10
 809 0010 17       		.uleb128 0x17
 810 0011 00       		.byte	0
 811 0012 00       		.byte	0
 812 0013 02       		.uleb128 0x2
 813 0014 24       		.uleb128 0x24
 814 0015 00       		.byte	0
 815 0016 0B       		.uleb128 0xb
 816 0017 0B       		.uleb128 0xb
 817 0018 3E       		.uleb128 0x3e
 818 0019 0B       		.uleb128 0xb
 819 001a 03       		.uleb128 0x3
 820 001b 0E       		.uleb128 0xe
 821 001c 00       		.byte	0
 822 001d 00       		.byte	0
 823 001e 03       		.uleb128 0x3
 824 001f 16       		.uleb128 0x16
 825 0020 00       		.byte	0
 826 0021 03       		.uleb128 0x3
 827 0022 0E       		.uleb128 0xe
 828 0023 3A       		.uleb128 0x3a
 829 0024 0B       		.uleb128 0xb
 830 0025 3B       		.uleb128 0x3b
 831 0026 0B       		.uleb128 0xb
 832 0027 49       		.uleb128 0x49
 833 0028 13       		.uleb128 0x13
 834 0029 00       		.byte	0
 835 002a 00       		.byte	0
 836 002b 04       		.uleb128 0x4
 837 002c 24       		.uleb128 0x24
 838 002d 00       		.byte	0
 839 002e 0B       		.uleb128 0xb
 840 002f 0B       		.uleb128 0xb
 841 0030 3E       		.uleb128 0x3e
 842 0031 0B       		.uleb128 0xb
 843 0032 03       		.uleb128 0x3
 844 0033 08       		.uleb128 0x8
 845 0034 00       		.byte	0
 846 0035 00       		.byte	0
 847 0036 05       		.uleb128 0x5
 848 0037 35       		.uleb128 0x35
 849 0038 00       		.byte	0
 850 0039 49       		.uleb128 0x49
 851 003a 13       		.uleb128 0x13
 852 003b 00       		.byte	0
 853 003c 00       		.byte	0
 854 003d 06       		.uleb128 0x6
 855 003e 34       		.uleb128 0x34
ARM GAS  /tmp/ccstrCE5.s 			page 16


 856 003f 00       		.byte	0
 857 0040 03       		.uleb128 0x3
 858 0041 0E       		.uleb128 0xe
 859 0042 3A       		.uleb128 0x3a
 860 0043 0B       		.uleb128 0xb
 861 0044 3B       		.uleb128 0x3b
 862 0045 05       		.uleb128 0x5
 863 0046 49       		.uleb128 0x49
 864 0047 13       		.uleb128 0x13
 865 0048 3F       		.uleb128 0x3f
 866 0049 19       		.uleb128 0x19
 867 004a 3C       		.uleb128 0x3c
 868 004b 19       		.uleb128 0x19
 869 004c 00       		.byte	0
 870 004d 00       		.byte	0
 871 004e 07       		.uleb128 0x7
 872 004f 04       		.uleb128 0x4
 873 0050 01       		.byte	0x1
 874 0051 3E       		.uleb128 0x3e
 875 0052 0B       		.uleb128 0xb
 876 0053 0B       		.uleb128 0xb
 877 0054 0B       		.uleb128 0xb
 878 0055 49       		.uleb128 0x49
 879 0056 13       		.uleb128 0x13
 880 0057 3A       		.uleb128 0x3a
 881 0058 0B       		.uleb128 0xb
 882 0059 3B       		.uleb128 0x3b
 883 005a 05       		.uleb128 0x5
 884 005b 01       		.uleb128 0x1
 885 005c 13       		.uleb128 0x13
 886 005d 00       		.byte	0
 887 005e 00       		.byte	0
 888 005f 08       		.uleb128 0x8
 889 0060 28       		.uleb128 0x28
 890 0061 00       		.byte	0
 891 0062 03       		.uleb128 0x3
 892 0063 0E       		.uleb128 0xe
 893 0064 1C       		.uleb128 0x1c
 894 0065 0B       		.uleb128 0xb
 895 0066 00       		.byte	0
 896 0067 00       		.byte	0
 897 0068 09       		.uleb128 0x9
 898 0069 28       		.uleb128 0x28
 899 006a 00       		.byte	0
 900 006b 03       		.uleb128 0x3
 901 006c 08       		.uleb128 0x8
 902 006d 1C       		.uleb128 0x1c
 903 006e 0B       		.uleb128 0xb
 904 006f 00       		.byte	0
 905 0070 00       		.byte	0
 906 0071 0A       		.uleb128 0xa
 907 0072 16       		.uleb128 0x16
 908 0073 00       		.byte	0
 909 0074 03       		.uleb128 0x3
 910 0075 0E       		.uleb128 0xe
 911 0076 3A       		.uleb128 0x3a
 912 0077 0B       		.uleb128 0xb
ARM GAS  /tmp/ccstrCE5.s 			page 17


 913 0078 3B       		.uleb128 0x3b
 914 0079 05       		.uleb128 0x5
 915 007a 49       		.uleb128 0x49
 916 007b 13       		.uleb128 0x13
 917 007c 00       		.byte	0
 918 007d 00       		.byte	0
 919 007e 0B       		.uleb128 0xb
 920 007f 13       		.uleb128 0x13
 921 0080 01       		.byte	0x1
 922 0081 0B       		.uleb128 0xb
 923 0082 0B       		.uleb128 0xb
 924 0083 3A       		.uleb128 0x3a
 925 0084 0B       		.uleb128 0xb
 926 0085 3B       		.uleb128 0x3b
 927 0086 05       		.uleb128 0x5
 928 0087 01       		.uleb128 0x1
 929 0088 13       		.uleb128 0x13
 930 0089 00       		.byte	0
 931 008a 00       		.byte	0
 932 008b 0C       		.uleb128 0xc
 933 008c 0D       		.uleb128 0xd
 934 008d 00       		.byte	0
 935 008e 03       		.uleb128 0x3
 936 008f 08       		.uleb128 0x8
 937 0090 3A       		.uleb128 0x3a
 938 0091 0B       		.uleb128 0xb
 939 0092 3B       		.uleb128 0x3b
 940 0093 05       		.uleb128 0x5
 941 0094 49       		.uleb128 0x49
 942 0095 13       		.uleb128 0x13
 943 0096 38       		.uleb128 0x38
 944 0097 0B       		.uleb128 0xb
 945 0098 00       		.byte	0
 946 0099 00       		.byte	0
 947 009a 0D       		.uleb128 0xd
 948 009b 0D       		.uleb128 0xd
 949 009c 00       		.byte	0
 950 009d 03       		.uleb128 0x3
 951 009e 0E       		.uleb128 0xe
 952 009f 3A       		.uleb128 0x3a
 953 00a0 0B       		.uleb128 0xb
 954 00a1 3B       		.uleb128 0x3b
 955 00a2 05       		.uleb128 0x5
 956 00a3 49       		.uleb128 0x49
 957 00a4 13       		.uleb128 0x13
 958 00a5 38       		.uleb128 0x38
 959 00a6 0B       		.uleb128 0xb
 960 00a7 00       		.byte	0
 961 00a8 00       		.byte	0
 962 00a9 0E       		.uleb128 0xe
 963 00aa 04       		.uleb128 0x4
 964 00ab 01       		.byte	0x1
 965 00ac 3E       		.uleb128 0x3e
 966 00ad 0B       		.uleb128 0xb
 967 00ae 0B       		.uleb128 0xb
 968 00af 0B       		.uleb128 0xb
 969 00b0 49       		.uleb128 0x49
ARM GAS  /tmp/ccstrCE5.s 			page 18


 970 00b1 13       		.uleb128 0x13
 971 00b2 3A       		.uleb128 0x3a
 972 00b3 0B       		.uleb128 0xb
 973 00b4 3B       		.uleb128 0x3b
 974 00b5 0B       		.uleb128 0xb
 975 00b6 01       		.uleb128 0x1
 976 00b7 13       		.uleb128 0x13
 977 00b8 00       		.byte	0
 978 00b9 00       		.byte	0
 979 00ba 0F       		.uleb128 0xf
 980 00bb 13       		.uleb128 0x13
 981 00bc 01       		.byte	0x1
 982 00bd 0B       		.uleb128 0xb
 983 00be 0B       		.uleb128 0xb
 984 00bf 3A       		.uleb128 0x3a
 985 00c0 0B       		.uleb128 0xb
 986 00c1 3B       		.uleb128 0x3b
 987 00c2 0B       		.uleb128 0xb
 988 00c3 01       		.uleb128 0x1
 989 00c4 13       		.uleb128 0x13
 990 00c5 00       		.byte	0
 991 00c6 00       		.byte	0
 992 00c7 10       		.uleb128 0x10
 993 00c8 0D       		.uleb128 0xd
 994 00c9 00       		.byte	0
 995 00ca 03       		.uleb128 0x3
 996 00cb 0E       		.uleb128 0xe
 997 00cc 3A       		.uleb128 0x3a
 998 00cd 0B       		.uleb128 0xb
 999 00ce 3B       		.uleb128 0x3b
 1000 00cf 0B       		.uleb128 0xb
 1001 00d0 49       		.uleb128 0x49
 1002 00d1 13       		.uleb128 0x13
 1003 00d2 38       		.uleb128 0x38
 1004 00d3 0B       		.uleb128 0xb
 1005 00d4 00       		.byte	0
 1006 00d5 00       		.byte	0
 1007 00d6 11       		.uleb128 0x11
 1008 00d7 2E       		.uleb128 0x2e
 1009 00d8 01       		.byte	0x1
 1010 00d9 3F       		.uleb128 0x3f
 1011 00da 19       		.uleb128 0x19
 1012 00db 03       		.uleb128 0x3
 1013 00dc 0E       		.uleb128 0xe
 1014 00dd 3A       		.uleb128 0x3a
 1015 00de 0B       		.uleb128 0xb
 1016 00df 3B       		.uleb128 0x3b
 1017 00e0 05       		.uleb128 0x5
 1018 00e1 27       		.uleb128 0x27
 1019 00e2 19       		.uleb128 0x19
 1020 00e3 01       		.uleb128 0x1
 1021 00e4 13       		.uleb128 0x13
 1022 00e5 00       		.byte	0
 1023 00e6 00       		.byte	0
 1024 00e7 12       		.uleb128 0x12
 1025 00e8 05       		.uleb128 0x5
 1026 00e9 00       		.byte	0
ARM GAS  /tmp/ccstrCE5.s 			page 19


 1027 00ea 03       		.uleb128 0x3
 1028 00eb 0E       		.uleb128 0xe
 1029 00ec 3A       		.uleb128 0x3a
 1030 00ed 0B       		.uleb128 0xb
 1031 00ee 3B       		.uleb128 0x3b
 1032 00ef 05       		.uleb128 0x5
 1033 00f0 49       		.uleb128 0x49
 1034 00f1 13       		.uleb128 0x13
 1035 00f2 00       		.byte	0
 1036 00f3 00       		.byte	0
 1037 00f4 13       		.uleb128 0x13
 1038 00f5 2E       		.uleb128 0x2e
 1039 00f6 01       		.byte	0x1
 1040 00f7 3F       		.uleb128 0x3f
 1041 00f8 19       		.uleb128 0x19
 1042 00f9 03       		.uleb128 0x3
 1043 00fa 0E       		.uleb128 0xe
 1044 00fb 3A       		.uleb128 0x3a
 1045 00fc 0B       		.uleb128 0xb
 1046 00fd 3B       		.uleb128 0x3b
 1047 00fe 05       		.uleb128 0x5
 1048 00ff 27       		.uleb128 0x27
 1049 0100 19       		.uleb128 0x19
 1050 0101 49       		.uleb128 0x49
 1051 0102 13       		.uleb128 0x13
 1052 0103 11       		.uleb128 0x11
 1053 0104 01       		.uleb128 0x1
 1054 0105 12       		.uleb128 0x12
 1055 0106 06       		.uleb128 0x6
 1056 0107 40       		.uleb128 0x40
 1057 0108 18       		.uleb128 0x18
 1058 0109 9742     		.uleb128 0x2117
 1059 010b 19       		.uleb128 0x19
 1060 010c 01       		.uleb128 0x1
 1061 010d 13       		.uleb128 0x13
 1062 010e 00       		.byte	0
 1063 010f 00       		.byte	0
 1064 0110 14       		.uleb128 0x14
 1065 0111 05       		.uleb128 0x5
 1066 0112 00       		.byte	0
 1067 0113 03       		.uleb128 0x3
 1068 0114 0E       		.uleb128 0xe
 1069 0115 3A       		.uleb128 0x3a
 1070 0116 0B       		.uleb128 0xb
 1071 0117 3B       		.uleb128 0x3b
 1072 0118 05       		.uleb128 0x5
 1073 0119 49       		.uleb128 0x49
 1074 011a 13       		.uleb128 0x13
 1075 011b 02       		.uleb128 0x2
 1076 011c 17       		.uleb128 0x17
 1077 011d 00       		.byte	0
 1078 011e 00       		.byte	0
 1079 011f 15       		.uleb128 0x15
 1080 0120 34       		.uleb128 0x34
 1081 0121 00       		.byte	0
 1082 0122 03       		.uleb128 0x3
 1083 0123 0E       		.uleb128 0xe
ARM GAS  /tmp/ccstrCE5.s 			page 20


 1084 0124 3A       		.uleb128 0x3a
 1085 0125 0B       		.uleb128 0xb
 1086 0126 3B       		.uleb128 0x3b
 1087 0127 05       		.uleb128 0x5
 1088 0128 49       		.uleb128 0x49
 1089 0129 13       		.uleb128 0x13
 1090 012a 02       		.uleb128 0x2
 1091 012b 17       		.uleb128 0x17
 1092 012c 00       		.byte	0
 1093 012d 00       		.byte	0
 1094 012e 16       		.uleb128 0x16
 1095 012f 2E       		.uleb128 0x2e
 1096 0130 01       		.byte	0x1
 1097 0131 3F       		.uleb128 0x3f
 1098 0132 19       		.uleb128 0x19
 1099 0133 03       		.uleb128 0x3
 1100 0134 0E       		.uleb128 0xe
 1101 0135 3A       		.uleb128 0x3a
 1102 0136 0B       		.uleb128 0xb
 1103 0137 3B       		.uleb128 0x3b
 1104 0138 0B       		.uleb128 0xb
 1105 0139 27       		.uleb128 0x27
 1106 013a 19       		.uleb128 0x19
 1107 013b 20       		.uleb128 0x20
 1108 013c 0B       		.uleb128 0xb
 1109 013d 01       		.uleb128 0x1
 1110 013e 13       		.uleb128 0x13
 1111 013f 00       		.byte	0
 1112 0140 00       		.byte	0
 1113 0141 17       		.uleb128 0x17
 1114 0142 05       		.uleb128 0x5
 1115 0143 00       		.byte	0
 1116 0144 03       		.uleb128 0x3
 1117 0145 0E       		.uleb128 0xe
 1118 0146 3A       		.uleb128 0x3a
 1119 0147 0B       		.uleb128 0xb
 1120 0148 3B       		.uleb128 0x3b
 1121 0149 0B       		.uleb128 0xb
 1122 014a 49       		.uleb128 0x49
 1123 014b 13       		.uleb128 0x13
 1124 014c 00       		.byte	0
 1125 014d 00       		.byte	0
 1126 014e 18       		.uleb128 0x18
 1127 014f 2E       		.uleb128 0x2e
 1128 0150 01       		.byte	0x1
 1129 0151 3F       		.uleb128 0x3f
 1130 0152 19       		.uleb128 0x19
 1131 0153 03       		.uleb128 0x3
 1132 0154 0E       		.uleb128 0xe
 1133 0155 3A       		.uleb128 0x3a
 1134 0156 0B       		.uleb128 0xb
 1135 0157 3B       		.uleb128 0x3b
 1136 0158 0B       		.uleb128 0xb
 1137 0159 27       		.uleb128 0x27
 1138 015a 19       		.uleb128 0x19
 1139 015b 49       		.uleb128 0x49
 1140 015c 13       		.uleb128 0x13
ARM GAS  /tmp/ccstrCE5.s 			page 21


 1141 015d 11       		.uleb128 0x11
 1142 015e 01       		.uleb128 0x1
 1143 015f 12       		.uleb128 0x12
 1144 0160 06       		.uleb128 0x6
 1145 0161 40       		.uleb128 0x40
 1146 0162 18       		.uleb128 0x18
 1147 0163 9742     		.uleb128 0x2117
 1148 0165 19       		.uleb128 0x19
 1149 0166 01       		.uleb128 0x1
 1150 0167 13       		.uleb128 0x13
 1151 0168 00       		.byte	0
 1152 0169 00       		.byte	0
 1153 016a 19       		.uleb128 0x19
 1154 016b 05       		.uleb128 0x5
 1155 016c 00       		.byte	0
 1156 016d 03       		.uleb128 0x3
 1157 016e 0E       		.uleb128 0xe
 1158 016f 3A       		.uleb128 0x3a
 1159 0170 0B       		.uleb128 0xb
 1160 0171 3B       		.uleb128 0x3b
 1161 0172 0B       		.uleb128 0xb
 1162 0173 49       		.uleb128 0x49
 1163 0174 13       		.uleb128 0x13
 1164 0175 02       		.uleb128 0x2
 1165 0176 17       		.uleb128 0x17
 1166 0177 00       		.byte	0
 1167 0178 00       		.byte	0
 1168 0179 1A       		.uleb128 0x1a
 1169 017a 34       		.uleb128 0x34
 1170 017b 00       		.byte	0
 1171 017c 03       		.uleb128 0x3
 1172 017d 0E       		.uleb128 0xe
 1173 017e 3A       		.uleb128 0x3a
 1174 017f 0B       		.uleb128 0xb
 1175 0180 3B       		.uleb128 0x3b
 1176 0181 0B       		.uleb128 0xb
 1177 0182 49       		.uleb128 0x49
 1178 0183 13       		.uleb128 0x13
 1179 0184 02       		.uleb128 0x2
 1180 0185 17       		.uleb128 0x17
 1181 0186 00       		.byte	0
 1182 0187 00       		.byte	0
 1183 0188 1B       		.uleb128 0x1b
 1184 0189 2E       		.uleb128 0x2e
 1185 018a 01       		.byte	0x1
 1186 018b 3F       		.uleb128 0x3f
 1187 018c 19       		.uleb128 0x19
 1188 018d 03       		.uleb128 0x3
 1189 018e 0E       		.uleb128 0xe
 1190 018f 3A       		.uleb128 0x3a
 1191 0190 0B       		.uleb128 0xb
 1192 0191 3B       		.uleb128 0x3b
 1193 0192 0B       		.uleb128 0xb
 1194 0193 27       		.uleb128 0x27
 1195 0194 19       		.uleb128 0x19
 1196 0195 11       		.uleb128 0x11
 1197 0196 01       		.uleb128 0x1
ARM GAS  /tmp/ccstrCE5.s 			page 22


 1198 0197 12       		.uleb128 0x12
 1199 0198 06       		.uleb128 0x6
 1200 0199 40       		.uleb128 0x40
 1201 019a 18       		.uleb128 0x18
 1202 019b 9742     		.uleb128 0x2117
 1203 019d 19       		.uleb128 0x19
 1204 019e 01       		.uleb128 0x1
 1205 019f 13       		.uleb128 0x13
 1206 01a0 00       		.byte	0
 1207 01a1 00       		.byte	0
 1208 01a2 1C       		.uleb128 0x1c
 1209 01a3 05       		.uleb128 0x5
 1210 01a4 00       		.byte	0
 1211 01a5 03       		.uleb128 0x3
 1212 01a6 0E       		.uleb128 0xe
 1213 01a7 3A       		.uleb128 0x3a
 1214 01a8 0B       		.uleb128 0xb
 1215 01a9 3B       		.uleb128 0x3b
 1216 01aa 0B       		.uleb128 0xb
 1217 01ab 49       		.uleb128 0x49
 1218 01ac 13       		.uleb128 0x13
 1219 01ad 02       		.uleb128 0x2
 1220 01ae 18       		.uleb128 0x18
 1221 01af 00       		.byte	0
 1222 01b0 00       		.byte	0
 1223 01b1 1D       		.uleb128 0x1d
 1224 01b2 0F       		.uleb128 0xf
 1225 01b3 00       		.byte	0
 1226 01b4 0B       		.uleb128 0xb
 1227 01b5 0B       		.uleb128 0xb
 1228 01b6 49       		.uleb128 0x49
 1229 01b7 13       		.uleb128 0x13
 1230 01b8 00       		.byte	0
 1231 01b9 00       		.byte	0
 1232 01ba 1E       		.uleb128 0x1e
 1233 01bb 34       		.uleb128 0x34
 1234 01bc 00       		.byte	0
 1235 01bd 03       		.uleb128 0x3
 1236 01be 08       		.uleb128 0x8
 1237 01bf 3A       		.uleb128 0x3a
 1238 01c0 0B       		.uleb128 0xb
 1239 01c1 3B       		.uleb128 0x3b
 1240 01c2 0B       		.uleb128 0xb
 1241 01c3 49       		.uleb128 0x49
 1242 01c4 13       		.uleb128 0x13
 1243 01c5 02       		.uleb128 0x2
 1244 01c6 17       		.uleb128 0x17
 1245 01c7 00       		.byte	0
 1246 01c8 00       		.byte	0
 1247 01c9 1F       		.uleb128 0x1f
 1248 01ca 2E       		.uleb128 0x2e
 1249 01cb 00       		.byte	0
 1250 01cc 3F       		.uleb128 0x3f
 1251 01cd 19       		.uleb128 0x19
 1252 01ce 03       		.uleb128 0x3
 1253 01cf 0E       		.uleb128 0xe
 1254 01d0 3A       		.uleb128 0x3a
ARM GAS  /tmp/ccstrCE5.s 			page 23


 1255 01d1 0B       		.uleb128 0xb
 1256 01d2 3B       		.uleb128 0x3b
 1257 01d3 0B       		.uleb128 0xb
 1258 01d4 27       		.uleb128 0x27
 1259 01d5 19       		.uleb128 0x19
 1260 01d6 11       		.uleb128 0x11
 1261 01d7 01       		.uleb128 0x1
 1262 01d8 12       		.uleb128 0x12
 1263 01d9 06       		.uleb128 0x6
 1264 01da 40       		.uleb128 0x40
 1265 01db 18       		.uleb128 0x18
 1266 01dc 9742     		.uleb128 0x2117
 1267 01de 19       		.uleb128 0x19
 1268 01df 00       		.byte	0
 1269 01e0 00       		.byte	0
 1270 01e1 20       		.uleb128 0x20
 1271 01e2 2E       		.uleb128 0x2e
 1272 01e3 01       		.byte	0x1
 1273 01e4 31       		.uleb128 0x31
 1274 01e5 13       		.uleb128 0x13
 1275 01e6 11       		.uleb128 0x11
 1276 01e7 01       		.uleb128 0x1
 1277 01e8 12       		.uleb128 0x12
 1278 01e9 06       		.uleb128 0x6
 1279 01ea 40       		.uleb128 0x40
 1280 01eb 18       		.uleb128 0x18
 1281 01ec 9742     		.uleb128 0x2117
 1282 01ee 19       		.uleb128 0x19
 1283 01ef 00       		.byte	0
 1284 01f0 00       		.byte	0
 1285 01f1 21       		.uleb128 0x21
 1286 01f2 05       		.uleb128 0x5
 1287 01f3 00       		.byte	0
 1288 01f4 31       		.uleb128 0x31
 1289 01f5 13       		.uleb128 0x13
 1290 01f6 02       		.uleb128 0x2
 1291 01f7 18       		.uleb128 0x18
 1292 01f8 00       		.byte	0
 1293 01f9 00       		.byte	0
 1294 01fa 00       		.byte	0
 1295              		.section	.debug_loc,"",%progbits
 1296              	.Ldebug_loc0:
 1297              	.LLST5:
 1298 0000 00000000 		.4byte	.LVL13
 1299 0004 10000000 		.4byte	.LVL15
 1300 0008 0100     		.2byte	0x1
 1301 000a 50       		.byte	0x50
 1302 000b 10000000 		.4byte	.LVL15
 1303 000f 14000000 		.4byte	.LVL16
 1304 0013 0400     		.2byte	0x4
 1305 0015 F3       		.byte	0xf3
 1306 0016 01       		.uleb128 0x1
 1307 0017 50       		.byte	0x50
 1308 0018 9F       		.byte	0x9f
 1309 0019 14000000 		.4byte	.LVL16
 1310 001d 16000000 		.4byte	.LVL17
 1311 0021 0100     		.2byte	0x1
ARM GAS  /tmp/ccstrCE5.s 			page 24


 1312 0023 50       		.byte	0x50
 1313 0024 16000000 		.4byte	.LVL17
 1314 0028 1C000000 		.4byte	.LFE117
 1315 002c 0400     		.2byte	0x4
 1316 002e F3       		.byte	0xf3
 1317 002f 01       		.uleb128 0x1
 1318 0030 50       		.byte	0x50
 1319 0031 9F       		.byte	0x9f
 1320 0032 00000000 		.4byte	0
 1321 0036 00000000 		.4byte	0
 1322              	.LLST6:
 1323 003a 00000000 		.4byte	.LVL13
 1324 003e 16000000 		.4byte	.LVL17
 1325 0042 0200     		.2byte	0x2
 1326 0044 30       		.byte	0x30
 1327 0045 9F       		.byte	0x9f
 1328 0046 16000000 		.4byte	.LVL17
 1329 004a 1C000000 		.4byte	.LFE117
 1330 004e 0100     		.2byte	0x1
 1331 0050 50       		.byte	0x50
 1332 0051 00000000 		.4byte	0
 1333 0055 00000000 		.4byte	0
 1334              	.LLST7:
 1335 0059 00000000 		.4byte	.LVL13
 1336 005d 06000000 		.4byte	.LVL14
 1337 0061 0200     		.2byte	0x2
 1338 0063 30       		.byte	0x30
 1339 0064 9F       		.byte	0x9f
 1340 0065 06000000 		.4byte	.LVL14
 1341 0069 10000000 		.4byte	.LVL15
 1342 006d 0600     		.2byte	0x6
 1343 006f 72       		.byte	0x72
 1344 0070 00       		.sleb128 0
 1345 0071 70       		.byte	0x70
 1346 0072 00       		.sleb128 0
 1347 0073 1A       		.byte	0x1a
 1348 0074 9F       		.byte	0x9f
 1349 0075 10000000 		.4byte	.LVL15
 1350 0079 14000000 		.4byte	.LVL16
 1351 007d 0700     		.2byte	0x7
 1352 007f 72       		.byte	0x72
 1353 0080 00       		.sleb128 0
 1354 0081 F3       		.byte	0xf3
 1355 0082 01       		.uleb128 0x1
 1356 0083 50       		.byte	0x50
 1357 0084 1A       		.byte	0x1a
 1358 0085 9F       		.byte	0x9f
 1359 0086 14000000 		.4byte	.LVL16
 1360 008a 16000000 		.4byte	.LVL17
 1361 008e 0600     		.2byte	0x6
 1362 0090 72       		.byte	0x72
 1363 0091 00       		.sleb128 0
 1364 0092 70       		.byte	0x70
 1365 0093 00       		.sleb128 0
 1366 0094 1A       		.byte	0x1a
 1367 0095 9F       		.byte	0x9f
 1368 0096 16000000 		.4byte	.LVL17
ARM GAS  /tmp/ccstrCE5.s 			page 25


 1369 009a 1C000000 		.4byte	.LFE117
 1370 009e 0700     		.2byte	0x7
 1371 00a0 72       		.byte	0x72
 1372 00a1 00       		.sleb128 0
 1373 00a2 F3       		.byte	0xf3
 1374 00a3 01       		.uleb128 0x1
 1375 00a4 50       		.byte	0x50
 1376 00a5 1A       		.byte	0x1a
 1377 00a6 9F       		.byte	0x9f
 1378 00a7 00000000 		.4byte	0
 1379 00ab 00000000 		.4byte	0
 1380              	.LLST3:
 1381 00af 00000000 		.4byte	.LVL9
 1382 00b3 0A000000 		.4byte	.LVL11
 1383 00b7 0100     		.2byte	0x1
 1384 00b9 50       		.byte	0x50
 1385 00ba 0A000000 		.4byte	.LVL11
 1386 00be 14000000 		.4byte	.LFE115
 1387 00c2 0400     		.2byte	0x4
 1388 00c4 F3       		.byte	0xf3
 1389 00c5 01       		.uleb128 0x1
 1390 00c6 50       		.byte	0x50
 1391 00c7 9F       		.byte	0x9f
 1392 00c8 00000000 		.4byte	0
 1393 00cc 00000000 		.4byte	0
 1394              	.LLST4:
 1395 00d0 00000000 		.4byte	.LVL9
 1396 00d4 04000000 		.4byte	.LVL10
 1397 00d8 0200     		.2byte	0x2
 1398 00da 30       		.byte	0x30
 1399 00db 9F       		.byte	0x9f
 1400 00dc 04000000 		.4byte	.LVL10
 1401 00e0 0A000000 		.4byte	.LVL11
 1402 00e4 0800     		.2byte	0x8
 1403 00e6 73       		.byte	0x73
 1404 00e7 00       		.sleb128 0
 1405 00e8 70       		.byte	0x70
 1406 00e9 00       		.sleb128 0
 1407 00ea 1A       		.byte	0x1a
 1408 00eb 30       		.byte	0x30
 1409 00ec 2E       		.byte	0x2e
 1410 00ed 9F       		.byte	0x9f
 1411 00ee 0A000000 		.4byte	.LVL11
 1412 00f2 14000000 		.4byte	.LFE115
 1413 00f6 0900     		.2byte	0x9
 1414 00f8 73       		.byte	0x73
 1415 00f9 00       		.sleb128 0
 1416 00fa F3       		.byte	0xf3
 1417 00fb 01       		.uleb128 0x1
 1418 00fc 50       		.byte	0x50
 1419 00fd 1A       		.byte	0x1a
 1420 00fe 30       		.byte	0x30
 1421 00ff 2E       		.byte	0x2e
 1422 0100 9F       		.byte	0x9f
 1423 0101 00000000 		.4byte	0
 1424 0105 00000000 		.4byte	0
 1425              	.LLST2:
ARM GAS  /tmp/ccstrCE5.s 			page 26


 1426 0109 00000000 		.4byte	.LVL7
 1427 010d 06000000 		.4byte	.LVL8
 1428 0111 0100     		.2byte	0x1
 1429 0113 50       		.byte	0x50
 1430 0114 06000000 		.4byte	.LVL8
 1431 0118 10000000 		.4byte	.LFE114
 1432 011c 0400     		.2byte	0x4
 1433 011e F3       		.byte	0xf3
 1434 011f 01       		.uleb128 0x1
 1435 0120 50       		.byte	0x50
 1436 0121 9F       		.byte	0x9f
 1437 0122 00000000 		.4byte	0
 1438 0126 00000000 		.4byte	0
 1439              	.LLST0:
 1440 012a 00000000 		.4byte	.LVL0
 1441 012e 2C000000 		.4byte	.LVL2
 1442 0132 0100     		.2byte	0x1
 1443 0134 50       		.byte	0x50
 1444 0135 2C000000 		.4byte	.LVL2
 1445 0139 52000000 		.4byte	.LVL4
 1446 013d 0400     		.2byte	0x4
 1447 013f F3       		.byte	0xf3
 1448 0140 01       		.uleb128 0x1
 1449 0141 50       		.byte	0x50
 1450 0142 9F       		.byte	0x9f
 1451 0143 52000000 		.4byte	.LVL4
 1452 0147 5C000000 		.4byte	.LVL5
 1453 014b 0100     		.2byte	0x1
 1454 014d 50       		.byte	0x50
 1455 014e 5C000000 		.4byte	.LVL5
 1456 0152 70000000 		.4byte	.LFE112
 1457 0156 0400     		.2byte	0x4
 1458 0158 F3       		.byte	0xf3
 1459 0159 01       		.uleb128 0x1
 1460 015a 50       		.byte	0x50
 1461 015b 9F       		.byte	0x9f
 1462 015c 00000000 		.4byte	0
 1463 0160 00000000 		.4byte	0
 1464              	.LLST1:
 1465 0164 00000000 		.4byte	.LVL0
 1466 0168 24000000 		.4byte	.LVL1
 1467 016c 0600     		.2byte	0x6
 1468 016e 0C       		.byte	0xc
 1469 016f 003C0140 		.4byte	0x40013c00
 1470 0173 9F       		.byte	0x9f
 1471 0174 24000000 		.4byte	.LVL1
 1472 0178 2C000000 		.4byte	.LVL2
 1473 017c 0E00     		.2byte	0xe
 1474 017e 70       		.byte	0x70
 1475 017f 04       		.sleb128 4
 1476 0180 94       		.byte	0x94
 1477 0181 01       		.byte	0x1
 1478 0182 08       		.byte	0x8
 1479 0183 FF       		.byte	0xff
 1480 0184 1A       		.byte	0x1a
 1481 0185 23       		.byte	0x23
 1482 0186 80F88480 		.uleb128 0x40013c00
ARM GAS  /tmp/ccstrCE5.s 			page 27


 1482      04
 1483 018b 9F       		.byte	0x9f
 1484 018c 2C000000 		.4byte	.LVL2
 1485 0190 40000000 		.4byte	.LVL3
 1486 0194 1100     		.2byte	0x11
 1487 0196 F3       		.byte	0xf3
 1488 0197 01       		.uleb128 0x1
 1489 0198 50       		.byte	0x50
 1490 0199 23       		.byte	0x23
 1491 019a 04       		.uleb128 0x4
 1492 019b 94       		.byte	0x94
 1493 019c 01       		.byte	0x1
 1494 019d 08       		.byte	0x8
 1495 019e FF       		.byte	0xff
 1496 019f 1A       		.byte	0x1a
 1497 01a0 23       		.byte	0x23
 1498 01a1 80F88480 		.uleb128 0x40013c00
 1498      04
 1499 01a6 9F       		.byte	0x9f
 1500 01a7 40000000 		.4byte	.LVL3
 1501 01ab 52000000 		.4byte	.LVL4
 1502 01af 0C00     		.2byte	0xc
 1503 01b1 71       		.byte	0x71
 1504 01b2 00       		.sleb128 0
 1505 01b3 08       		.byte	0x8
 1506 01b4 FF       		.byte	0xff
 1507 01b5 1A       		.byte	0x1a
 1508 01b6 23       		.byte	0x23
 1509 01b7 80F88480 		.uleb128 0x40013c00
 1509      04
 1510 01bc 9F       		.byte	0x9f
 1511 01bd 52000000 		.4byte	.LVL4
 1512 01c1 5C000000 		.4byte	.LVL5
 1513 01c5 0E00     		.2byte	0xe
 1514 01c7 70       		.byte	0x70
 1515 01c8 04       		.sleb128 4
 1516 01c9 94       		.byte	0x94
 1517 01ca 01       		.byte	0x1
 1518 01cb 08       		.byte	0x8
 1519 01cc FF       		.byte	0xff
 1520 01cd 1A       		.byte	0x1a
 1521 01ce 23       		.byte	0x23
 1522 01cf 80F88480 		.uleb128 0x40013c00
 1522      04
 1523 01d4 9F       		.byte	0x9f
 1524 01d5 5C000000 		.4byte	.LVL5
 1525 01d9 70000000 		.4byte	.LFE112
 1526 01dd 1100     		.2byte	0x11
 1527 01df F3       		.byte	0xf3
 1528 01e0 01       		.uleb128 0x1
 1529 01e1 50       		.byte	0x50
 1530 01e2 23       		.byte	0x23
 1531 01e3 04       		.uleb128 0x4
 1532 01e4 94       		.byte	0x94
 1533 01e5 01       		.byte	0x1
 1534 01e6 08       		.byte	0x8
 1535 01e7 FF       		.byte	0xff
ARM GAS  /tmp/ccstrCE5.s 			page 28


 1536 01e8 1A       		.byte	0x1a
 1537 01e9 23       		.byte	0x23
 1538 01ea 80F88480 		.uleb128 0x40013c00
 1538      04
 1539 01ef 9F       		.byte	0x9f
 1540 01f0 00000000 		.4byte	0
 1541 01f4 00000000 		.4byte	0
 1542              		.section	.debug_aranges,"",%progbits
 1543 0000 4C000000 		.4byte	0x4c
 1544 0004 0200     		.2byte	0x2
 1545 0006 00000000 		.4byte	.Ldebug_info0
 1546 000a 04       		.byte	0x4
 1547 000b 00       		.byte	0
 1548 000c 0000     		.2byte	0
 1549 000e 0000     		.2byte	0
 1550 0010 00000000 		.4byte	.LFB111
 1551 0014 1C000000 		.4byte	.LFE111-.LFB111
 1552 0018 00000000 		.4byte	.LFB112
 1553 001c 70000000 		.4byte	.LFE112-.LFB112
 1554 0020 00000000 		.4byte	.LFB113
 1555 0024 0E000000 		.4byte	.LFE113-.LFB113
 1556 0028 00000000 		.4byte	.LFB114
 1557 002c 10000000 		.4byte	.LFE114-.LFB114
 1558 0030 00000000 		.4byte	.LFB115
 1559 0034 14000000 		.4byte	.LFE115-.LFB115
 1560 0038 00000000 		.4byte	.LFB116
 1561 003c 0C000000 		.4byte	.LFE116-.LFB116
 1562 0040 00000000 		.4byte	.LFB117
 1563 0044 1C000000 		.4byte	.LFE117-.LFB117
 1564 0048 00000000 		.4byte	0
 1565 004c 00000000 		.4byte	0
 1566              		.section	.debug_ranges,"",%progbits
 1567              	.Ldebug_ranges0:
 1568 0000 00000000 		.4byte	.LFB111
 1569 0004 1C000000 		.4byte	.LFE111
 1570 0008 00000000 		.4byte	.LFB112
 1571 000c 70000000 		.4byte	.LFE112
 1572 0010 00000000 		.4byte	.LFB113
 1573 0014 0E000000 		.4byte	.LFE113
 1574 0018 00000000 		.4byte	.LFB114
 1575 001c 10000000 		.4byte	.LFE114
 1576 0020 00000000 		.4byte	.LFB115
 1577 0024 14000000 		.4byte	.LFE115
 1578 0028 00000000 		.4byte	.LFB116
 1579 002c 0C000000 		.4byte	.LFE116
 1580 0030 00000000 		.4byte	.LFB117
 1581 0034 1C000000 		.4byte	.LFE117
 1582 0038 00000000 		.4byte	0
 1583 003c 00000000 		.4byte	0
 1584              		.section	.debug_line,"",%progbits
 1585              	.Ldebug_line0:
 1586 0000 2F020000 		.section	.debug_str,"MS",%progbits,1
 1586      02006701 
 1586      00000201 
 1586      FB0E0D00 
 1586      01010101 
 1587              	.LASF30:
ARM GAS  /tmp/ccstrCE5.s 			page 29


 1588 0000 45585449 		.ascii	"EXTI_Line\000"
 1588      5F4C696E 
 1588      6500
 1589              	.LASF31:
 1590 000a 45585449 		.ascii	"EXTI_Mode\000"
 1590      5F4D6F64 
 1590      6500
 1591              	.LASF15:
 1592 0014 49545374 		.ascii	"ITStatus\000"
 1592      61747573 
 1592      00
 1593              	.LASF36:
 1594 001d 656E6162 		.ascii	"enablestatus\000"
 1594      6C657374 
 1594      61747573 
 1594      00
 1595              	.LASF33:
 1596 002a 45585449 		.ascii	"EXTI_LineCmd\000"
 1596      5F4C696E 
 1596      65436D64 
 1596      00
 1597              	.LASF32:
 1598 0037 45585449 		.ascii	"EXTI_Trigger\000"
 1598      5F547269 
 1598      67676572 
 1598      00
 1599              	.LASF5:
 1600 0044 5F5F696E 		.ascii	"__int32_t\000"
 1600      7433325F 
 1600      7400
 1601              	.LASF24:
 1602 004e 45585449 		.ascii	"EXTI_Mode_Event\000"
 1602      5F4D6F64 
 1602      655F4576 
 1602      656E7400 
 1603              	.LASF3:
 1604 005e 73686F72 		.ascii	"short unsigned int\000"
 1604      7420756E 
 1604      7369676E 
 1604      65642069 
 1604      6E7400
 1605              	.LASF18:
 1606 0071 46756E63 		.ascii	"FunctionalState\000"
 1606      74696F6E 
 1606      616C5374 
 1606      61746500 
 1607              	.LASF35:
 1608 0081 62697473 		.ascii	"bitstatus\000"
 1608      74617475 
 1608      7300
 1609              	.LASF39:
 1610 008b 45585449 		.ascii	"EXTI_GenerateSWInterrupt\000"
 1610      5F47656E 
 1610      65726174 
 1610      65535749 
 1610      6E746572 
 1611              	.LASF34:
ARM GAS  /tmp/ccstrCE5.s 			page 30


 1612 00a4 45585449 		.ascii	"EXTI_InitTypeDef\000"
 1612      5F496E69 
 1612      74547970 
 1612      65446566 
 1612      00
 1613              	.LASF41:
 1614 00b5 45585449 		.ascii	"EXTI_InitStruct\000"
 1614      5F496E69 
 1614      74537472 
 1614      75637400 
 1615              	.LASF17:
 1616 00c5 454E4142 		.ascii	"ENABLE\000"
 1616      4C4500
 1617              	.LASF23:
 1618 00cc 45585449 		.ascii	"EXTI_Mode_Interrupt\000"
 1618      5F4D6F64 
 1618      655F496E 
 1618      74657272 
 1618      75707400 
 1619              	.LASF1:
 1620 00e0 756E7369 		.ascii	"unsigned char\000"
 1620      676E6564 
 1620      20636861 
 1620      7200
 1621              	.LASF14:
 1622 00ee 466C6167 		.ascii	"FlagStatus\000"
 1622      53746174 
 1622      757300
 1623              	.LASF48:
 1624 00f9 45585449 		.ascii	"EXTI_ClearFlag\000"
 1624      5F436C65 
 1624      6172466C 
 1624      616700
 1625              	.LASF7:
 1626 0108 6C6F6E67 		.ascii	"long unsigned int\000"
 1626      20756E73 
 1626      69676E65 
 1626      6420696E 
 1626      7400
 1627              	.LASF13:
 1628 011a 52455345 		.ascii	"RESET\000"
 1628      5400
 1629              	.LASF25:
 1630 0120 45585449 		.ascii	"EXTIMode_TypeDef\000"
 1630      4D6F6465 
 1630      5F547970 
 1630      65446566 
 1630      00
 1631              	.LASF22:
 1632 0131 45585449 		.ascii	"EXTI_TypeDef\000"
 1632      5F547970 
 1632      65446566 
 1632      00
 1633              	.LASF16:
 1634 013e 44495341 		.ascii	"DISABLE\000"
 1634      424C4500 
 1635              	.LASF46:
ARM GAS  /tmp/ccstrCE5.s 			page 31


 1636 0146 49544D5F 		.ascii	"ITM_RxBuffer\000"
 1636      52784275 
 1636      66666572 
 1636      00
 1637              	.LASF19:
 1638 0153 52545352 		.ascii	"RTSR\000"
 1638      00
 1639              	.LASF12:
 1640 0158 75696E74 		.ascii	"uint32_t\000"
 1640      33325F74 
 1640      00
 1641              	.LASF6:
 1642 0161 5F5F7569 		.ascii	"__uint32_t\000"
 1642      6E743332 
 1642      5F7400
 1643              	.LASF26:
 1644 016c 45585449 		.ascii	"EXTI_Trigger_Rising\000"
 1644      5F547269 
 1644      67676572 
 1644      5F526973 
 1644      696E6700 
 1645              	.LASF28:
 1646 0180 45585449 		.ascii	"EXTI_Trigger_Rising_Falling\000"
 1646      5F547269 
 1646      67676572 
 1646      5F526973 
 1646      696E675F 
 1647              	.LASF43:
 1648 019c 474E5520 		.ascii	"GNU C99 7.3.1 20180622 (release) [ARM/embedded-7-br"
 1648      43393920 
 1648      372E332E 
 1648      31203230 
 1648      31383036 
 1649 01cf 616E6368 		.ascii	"anch revision 261907] -mcpu=cortex-m4 -mfloat-abi=h"
 1649      20726576 
 1649      6973696F 
 1649      6E203236 
 1649      31393037 
 1650 0202 61726420 		.ascii	"ard -mfpu=fpv4-sp-d16 -mno-thumb-interwork -mthumb "
 1650      2D6D6670 
 1650      753D6670 
 1650      76342D73 
 1650      702D6431 
 1651 0235 2D676764 		.ascii	"-ggdb -O2 -std=gnu99 -fomit-frame-pointer -falign-f"
 1651      62202D4F 
 1651      32202D73 
 1651      74643D67 
 1651      6E753939 
 1652 0268 756E6374 		.ascii	"unctions=16 -ffunction-sections -fdata-sections -fn"
 1652      696F6E73 
 1652      3D313620 
 1652      2D666675 
 1652      6E637469 
 1653 029b 6F2D636F 		.ascii	"o-common -fsingle-precision-constant\000"
 1653      6D6D6F6E 
 1653      202D6673 
 1653      696E676C 
ARM GAS  /tmp/ccstrCE5.s 			page 32


 1653      652D7072 
 1654              	.LASF10:
 1655 02c0 756E7369 		.ascii	"unsigned int\000"
 1655      676E6564 
 1655      20696E74 
 1655      00
 1656              	.LASF42:
 1657 02cd 45585449 		.ascii	"EXTI_Init\000"
 1657      5F496E69 
 1657      7400
 1658              	.LASF38:
 1659 02d7 45585449 		.ascii	"EXTI_GetFlagStatus\000"
 1659      5F476574 
 1659      466C6167 
 1659      53746174 
 1659      757300
 1660              	.LASF9:
 1661 02ea 6C6F6E67 		.ascii	"long long unsigned int\000"
 1661      206C6F6E 
 1661      6720756E 
 1661      7369676E 
 1661      65642069 
 1662              	.LASF44:
 1663 0301 43686962 		.ascii	"ChibiOS_2.6.6/ext/stdperiph_stm32f4/src/stm32f4xx_e"
 1663      694F535F 
 1663      322E362E 
 1663      362F6578 
 1663      742F7374 
 1664 0334 7874692E 		.ascii	"xti.c\000"
 1664      6300
 1665              	.LASF40:
 1666 033a 45585449 		.ascii	"EXTI_StructInit\000"
 1666      5F537472 
 1666      75637449 
 1666      6E697400 
 1667              	.LASF11:
 1668 034a 696E7433 		.ascii	"int32_t\000"
 1668      325F7400 
 1669              	.LASF8:
 1670 0352 6C6F6E67 		.ascii	"long long int\000"
 1670      206C6F6E 
 1670      6720696E 
 1670      7400
 1671              	.LASF37:
 1672 0360 45585449 		.ascii	"EXTI_GetITStatus\000"
 1672      5F476574 
 1672      49545374 
 1672      61747573 
 1672      00
 1673              	.LASF47:
 1674 0371 45585449 		.ascii	"EXTI_ClearITPendingBit\000"
 1674      5F436C65 
 1674      61724954 
 1674      50656E64 
 1674      696E6742 
 1675              	.LASF2:
 1676 0388 73686F72 		.ascii	"short int\000"
ARM GAS  /tmp/ccstrCE5.s 			page 33


 1676      7420696E 
 1676      7400
 1677              	.LASF27:
 1678 0392 45585449 		.ascii	"EXTI_Trigger_Falling\000"
 1678      5F547269 
 1678      67676572 
 1678      5F46616C 
 1678      6C696E67 
 1679              	.LASF45:
 1680 03a7 2F686F6D 		.ascii	"/home/renan/BLDC/bldc-bootloader\000"
 1680      652F7265 
 1680      6E616E2F 
 1680      424C4443 
 1680      2F626C64 
 1681              	.LASF20:
 1682 03c8 46545352 		.ascii	"FTSR\000"
 1682      00
 1683              	.LASF4:
 1684 03cd 6C6F6E67 		.ascii	"long int\000"
 1684      20696E74 
 1684      00
 1685              	.LASF0:
 1686 03d6 7369676E 		.ascii	"signed char\000"
 1686      65642063 
 1686      68617200 
 1687              	.LASF29:
 1688 03e2 45585449 		.ascii	"EXTITrigger_TypeDef\000"
 1688      54726967 
 1688      6765725F 
 1688      54797065 
 1688      44656600 
 1689              	.LASF21:
 1690 03f6 53574945 		.ascii	"SWIER\000"
 1690      5200
 1691              	.LASF49:
 1692 03fc 45585449 		.ascii	"EXTI_DeInit\000"
 1692      5F446549 
 1692      6E697400 
 1693              		.ident	"GCC: (GNU Tools for Arm Embedded Processors 7-2018-q3-update) 7.3.1 20180622 (release) [AR
ARM GAS  /tmp/ccstrCE5.s 			page 34


DEFINED SYMBOLS
                            *ABS*:0000000000000000 stm32f4xx_exti.c
     /tmp/ccstrCE5.s:18     .text.EXTI_DeInit:0000000000000000 $t
     /tmp/ccstrCE5.s:26     .text.EXTI_DeInit:0000000000000000 EXTI_DeInit
     /tmp/ccstrCE5.s:54     .text.EXTI_DeInit:0000000000000014 $d
     /tmp/ccstrCE5.s:60     .text.EXTI_Init:0000000000000000 $t
     /tmp/ccstrCE5.s:68     .text.EXTI_Init:0000000000000000 EXTI_Init
     /tmp/ccstrCE5.s:177    .text.EXTI_Init:000000000000006c $d
     /tmp/ccstrCE5.s:182    .text.EXTI_StructInit:0000000000000000 $t
     /tmp/ccstrCE5.s:190    .text.EXTI_StructInit:0000000000000000 EXTI_StructInit
     /tmp/ccstrCE5.s:215    .text.EXTI_GenerateSWInterrupt:0000000000000000 $t
     /tmp/ccstrCE5.s:223    .text.EXTI_GenerateSWInterrupt:0000000000000000 EXTI_GenerateSWInterrupt
     /tmp/ccstrCE5.s:242    .text.EXTI_GenerateSWInterrupt:000000000000000c $d
     /tmp/ccstrCE5.s:247    .text.EXTI_GetFlagStatus:0000000000000000 $t
     /tmp/ccstrCE5.s:255    .text.EXTI_GetFlagStatus:0000000000000000 EXTI_GetFlagStatus
     /tmp/ccstrCE5.s:277    .text.EXTI_GetFlagStatus:0000000000000010 $d
     /tmp/ccstrCE5.s:282    .text.EXTI_ClearFlag:0000000000000000 $t
     /tmp/ccstrCE5.s:290    .text.EXTI_ClearFlag:0000000000000000 EXTI_ClearFlag
     /tmp/ccstrCE5.s:306    .text.EXTI_ClearFlag:0000000000000008 $d
     /tmp/ccstrCE5.s:311    .text.EXTI_GetITStatus:0000000000000000 $t
     /tmp/ccstrCE5.s:319    .text.EXTI_GetITStatus:0000000000000000 EXTI_GetITStatus
     /tmp/ccstrCE5.s:353    .text.EXTI_GetITStatus:0000000000000018 $d
     /tmp/ccstrCE5.s:358    .text.EXTI_ClearITPendingBit:0000000000000000 $t
     /tmp/ccstrCE5.s:366    .text.EXTI_ClearITPendingBit:0000000000000000 EXTI_ClearITPendingBit
     /tmp/ccstrCE5.s:378    .text.EXTI_ClearITPendingBit:0000000000000008 $d

NO UNDEFINED SYMBOLS
