ARM GAS  /tmp/ccWcPBJM.s 			page 1


   1              		.cpu cortex-m4
   2              		.eabi_attribute 27, 1
   3              		.eabi_attribute 28, 1
   4              		.eabi_attribute 20, 1
   5              		.eabi_attribute 21, 1
   6              		.eabi_attribute 23, 3
   7              		.eabi_attribute 24, 1
   8              		.eabi_attribute 25, 1
   9              		.eabi_attribute 26, 1
  10              		.eabi_attribute 30, 2
  11              		.eabi_attribute 34, 1
  12              		.eabi_attribute 18, 4
  13              		.file	"stm32f4xx_i2c.c"
  14              		.text
  15              	.Ltext0:
  16              		.cfi_sections	.debug_frame
  17              		.section	.text.I2C_DeInit,"ax",%progbits
  18              		.align	1
  19              		.p2align 4,,15
  20              		.global	I2C_DeInit
  21              		.syntax unified
  22              		.thumb
  23              		.thumb_func
  24              		.fpu fpv4-sp-d16
  25              		.type	I2C_DeInit, %function
  26              	I2C_DeInit:
  27              	.LFB111:
  28              		.file 1 "ChibiOS_2.6.6/ext/stdperiph_stm32f4/src/stm32f4xx_i2c.c"
  29              		.loc 1 139 0
  30              		.cfi_startproc
  31              		@ args = 0, pretend = 0, frame = 0
  32              		@ frame_needed = 0, uses_anonymous_args = 0
  33              	.LVL0:
  34 0000 08B5     		push	{r3, lr}
  35              		.cfi_def_cfa_offset 8
  36              		.cfi_offset 3, -8
  37              		.cfi_offset 14, -4
  38              		.loc 1 143 0
  39 0002 174B     		ldr	r3, .L10
  40 0004 9842     		cmp	r0, r3
  41 0006 06D0     		beq	.L7
  42              		.loc 1 150 0
  43 0008 164B     		ldr	r3, .L10+4
  44 000a 9842     		cmp	r0, r3
  45 000c 1BD0     		beq	.L8
  46              		.loc 1 159 0
  47 000e 164B     		ldr	r3, .L10+8
  48 0010 9842     		cmp	r0, r3
  49 0012 0CD0     		beq	.L9
  50              		.loc 1 167 0
  51 0014 08BD     		pop	{r3, pc}
  52              	.L7:
  53              		.loc 1 146 0
  54 0016 0121     		movs	r1, #1
  55 0018 4FF40010 		mov	r0, #2097152
  56              	.LVL1:
  57 001c FFF7FEFF 		bl	RCC_APB1PeriphResetCmd
ARM GAS  /tmp/ccWcPBJM.s 			page 2


  58              	.LVL2:
  59              		.loc 1 148 0
  60 0020 0021     		movs	r1, #0
  61 0022 4FF40010 		mov	r0, #2097152
  62              		.loc 1 167 0
  63 0026 BDE80840 		pop	{r3, lr}
  64              		.cfi_remember_state
  65              		.cfi_restore 14
  66              		.cfi_restore 3
  67              		.cfi_def_cfa_offset 0
  68              		.loc 1 148 0
  69 002a FFF7FEBF 		b	RCC_APB1PeriphResetCmd
  70              	.LVL3:
  71              	.L9:
  72              		.cfi_restore_state
  73              		.loc 1 162 0
  74 002e 0121     		movs	r1, #1
  75 0030 4FF40000 		mov	r0, #8388608
  76              	.LVL4:
  77 0034 FFF7FEFF 		bl	RCC_APB1PeriphResetCmd
  78              	.LVL5:
  79              		.loc 1 164 0
  80 0038 0021     		movs	r1, #0
  81 003a 4FF40000 		mov	r0, #8388608
  82              		.loc 1 167 0
  83 003e BDE80840 		pop	{r3, lr}
  84              		.cfi_remember_state
  85              		.cfi_restore 14
  86              		.cfi_restore 3
  87              		.cfi_def_cfa_offset 0
  88              		.loc 1 164 0
  89 0042 FFF7FEBF 		b	RCC_APB1PeriphResetCmd
  90              	.LVL6:
  91              	.L8:
  92              		.cfi_restore_state
  93              		.loc 1 153 0
  94 0046 0121     		movs	r1, #1
  95 0048 4FF48000 		mov	r0, #4194304
  96              	.LVL7:
  97 004c FFF7FEFF 		bl	RCC_APB1PeriphResetCmd
  98              	.LVL8:
  99              		.loc 1 155 0
 100 0050 0021     		movs	r1, #0
 101 0052 4FF48000 		mov	r0, #4194304
 102              		.loc 1 167 0
 103 0056 BDE80840 		pop	{r3, lr}
 104              		.cfi_restore 14
 105              		.cfi_restore 3
 106              		.cfi_def_cfa_offset 0
 107              		.loc 1 155 0
 108 005a FFF7FEBF 		b	RCC_APB1PeriphResetCmd
 109              	.LVL9:
 110              	.L11:
 111 005e 00BF     		.align	2
 112              	.L10:
 113 0060 00540040 		.word	1073763328
 114 0064 00580040 		.word	1073764352
ARM GAS  /tmp/ccWcPBJM.s 			page 3


 115 0068 005C0040 		.word	1073765376
 116              		.cfi_endproc
 117              	.LFE111:
 118              		.size	I2C_DeInit, .-I2C_DeInit
 119              		.section	.text.I2C_Init,"ax",%progbits
 120              		.align	1
 121              		.p2align 4,,15
 122              		.global	I2C_Init
 123              		.syntax unified
 124              		.thumb
 125              		.thumb_func
 126              		.fpu fpv4-sp-d16
 127              		.type	I2C_Init, %function
 128              	I2C_Init:
 129              	.LFB112:
 130              		.loc 1 182 0
 131              		.cfi_startproc
 132              		@ args = 0, pretend = 0, frame = 16
 133              		@ frame_needed = 0, uses_anonymous_args = 0
 134              	.LVL10:
 135 0000 F0B5     		push	{r4, r5, r6, r7, lr}
 136              		.cfi_def_cfa_offset 20
 137              		.cfi_offset 4, -20
 138              		.cfi_offset 5, -16
 139              		.cfi_offset 6, -12
 140              		.cfi_offset 7, -8
 141              		.cfi_offset 14, -4
 142 0002 0546     		mov	r5, r0
 143 0004 85B0     		sub	sp, sp, #20
 144              		.cfi_def_cfa_offset 40
 145              		.loc 1 202 0
 146 0006 6846     		mov	r0, sp
 147              	.LVL11:
 148              		.loc 1 182 0
 149 0008 0E46     		mov	r6, r1
 150              		.loc 1 198 0
 151 000a AC88     		ldrh	r4, [r5, #4]
 152              	.LVL12:
 153              		.loc 1 202 0
 154 000c FFF7FEFF 		bl	RCC_GetClocksFreq
 155              	.LVL13:
 156              		.loc 1 203 0
 157 0010 0298     		ldr	r0, [sp, #8]
 158              		.loc 1 205 0
 159 0012 2C49     		ldr	r1, .L20
 160              		.loc 1 218 0
 161 0014 3368     		ldr	r3, [r6]
 162 0016 DFF8B8C0 		ldr	ip, .L20+12
 163              		.loc 1 205 0
 164 001a A1FB0021 		umull	r2, r1, r1, r0
 165              		.loc 1 200 0
 166 001e 24F03F04 		bic	r4, r4, #63
 167              	.LVL14:
 168 0022 2404     		lsls	r4, r4, #16
 169              		.loc 1 205 0
 170 0024 890C     		lsrs	r1, r1, #18
 171              		.loc 1 200 0
ARM GAS  /tmp/ccWcPBJM.s 			page 4


 172 0026 240C     		lsrs	r4, r4, #16
 173              	.LVL15:
 174              		.loc 1 205 0
 175 0028 8FB2     		uxth	r7, r1
 176              	.LVL16:
 177              		.loc 1 206 0
 178 002a 3C43     		orrs	r4, r4, r7
 179              	.LVL17:
 180              		.loc 1 208 0
 181 002c AC80     		strh	r4, [r5, #4]	@ movhi
 182              		.loc 1 212 0
 183 002e 2A88     		ldrh	r2, [r5]
 184 0030 22F00102 		bic	r2, r2, #1
 185 0034 1204     		lsls	r2, r2, #16
 186 0036 120C     		lsrs	r2, r2, #16
 187              		.loc 1 218 0
 188 0038 6345     		cmp	r3, ip
 189              		.loc 1 212 0
 190 003a 2A80     		strh	r2, [r5]	@ movhi
 191              	.LVL18:
 192              		.loc 1 218 0
 193 003c 1BD8     		bhi	.L13
 194              		.loc 1 221 0
 195 003e 5B00     		lsls	r3, r3, #1
 196 0040 B0FBF3F3 		udiv	r3, r0, r3
 197 0044 9BB2     		uxth	r3, r3
 198              	.LVL19:
 199              		.loc 1 231 0
 200 0046 0137     		adds	r7, r7, #1
 201              	.LVL20:
 202 0048 042B     		cmp	r3, #4
 203 004a 38BF     		it	cc
 204 004c 0423     		movcc	r3, #4
 205              	.LVL21:
 206 004e 2F84     		strh	r7, [r5, #32]	@ movhi
 207              	.LVL22:
 208              	.L14:
 209              		.loc 1 264 0
 210 0050 AB83     		strh	r3, [r5, #28]	@ movhi
 211              		.loc 1 266 0
 212 0052 2A88     		ldrh	r2, [r5]
 213              		.loc 1 276 0
 214 0054 B188     		ldrh	r1, [r6, #4]
 215 0056 7489     		ldrh	r4, [r6, #10]
 216              		.loc 1 272 0
 217 0058 1B4B     		ldr	r3, .L20+4
 218              	.LVL23:
 219              		.loc 1 282 0
 220 005a 3089     		ldrh	r0, [r6, #8]
 221              		.loc 1 266 0
 222 005c 42F00102 		orr	r2, r2, #1
 223 0060 2A80     		strh	r2, [r5]	@ movhi
 224              	.LVL24:
 225              		.loc 1 270 0
 226 0062 2F88     		ldrh	r7, [r5]
 227              	.LVL25:
 228              		.loc 1 282 0
ARM GAS  /tmp/ccWcPBJM.s 			page 5


 229 0064 B289     		ldrh	r2, [r6, #12]
 230              		.loc 1 272 0
 231 0066 3B40     		ands	r3, r3, r7
 232              	.LVL26:
 233              		.loc 1 276 0
 234 0068 2143     		orrs	r1, r1, r4
 235 006a 0B43     		orrs	r3, r3, r1
 236              	.LVL27:
 237              		.loc 1 282 0
 238 006c 0243     		orrs	r2, r2, r0
 239              		.loc 1 278 0
 240 006e 2B80     		strh	r3, [r5]	@ movhi
 241              		.loc 1 282 0
 242 0070 2A81     		strh	r2, [r5, #8]	@ movhi
 243              		.loc 1 283 0
 244 0072 05B0     		add	sp, sp, #20
 245              		.cfi_remember_state
 246              		.cfi_def_cfa_offset 20
 247              		@ sp needed
 248 0074 F0BD     		pop	{r4, r5, r6, r7, pc}
 249              	.LVL28:
 250              	.L13:
 251              		.cfi_restore_state
 252              		.loc 1 238 0
 253 0076 F488     		ldrh	r4, [r6, #6]
 254 0078 4BF6FF72 		movw	r2, #49151
 255 007c 9442     		cmp	r4, r2
 256 007e 1AD0     		beq	.L19
 257              		.loc 1 246 0
 258 0080 03EB8303 		add	r3, r3, r3, lsl #2
 259 0084 03EB8303 		add	r3, r3, r3, lsl #2
 260 0088 B0FBF3F3 		udiv	r3, r0, r3
 261 008c 9BB2     		uxth	r3, r3
 262              	.LVL29:
 263              		.loc 1 248 0
 264 008e 43F48043 		orr	r3, r3, #16384
 265              	.LVL30:
 266              	.L16:
 267              		.loc 1 252 0
 268 0092 C3F30B02 		ubfx	r2, r3, #0, #12
 269 0096 0AB9     		cbnz	r2, .L17
 270              		.loc 1 255 0
 271 0098 43F00103 		orr	r3, r3, #1
 272              	.LVL31:
 273              	.L17:
 274              		.loc 1 260 0
 275 009c 4FF49672 		mov	r2, #300
 276 00a0 0A48     		ldr	r0, .L20+8
 277              	.LVL32:
 278 00a2 02FB01F1 		mul	r1, r2, r1
 279 00a6 A0FB0121 		umull	r2, r1, r0, r1
 280 00aa 8909     		lsrs	r1, r1, #6
 281 00ac 0131     		adds	r1, r1, #1
 282              		.loc 1 258 0
 283 00ae 43F40043 		orr	r3, r3, #32768
 284              	.LVL33:
 285              		.loc 1 260 0
ARM GAS  /tmp/ccWcPBJM.s 			page 6


 286 00b2 2984     		strh	r1, [r5, #32]	@ movhi
 287 00b4 CCE7     		b	.L14
 288              	.LVL34:
 289              	.L19:
 290              		.loc 1 241 0
 291 00b6 03EB4303 		add	r3, r3, r3, lsl #1
 292 00ba B0FBF3F3 		udiv	r3, r0, r3
 293 00be 9BB2     		uxth	r3, r3
 294              	.LVL35:
 295 00c0 E7E7     		b	.L16
 296              	.L21:
 297 00c2 00BF     		.align	2
 298              	.L20:
 299 00c4 83DE1B43 		.word	1125899907
 300 00c8 F5FBFFFF 		.word	-1035
 301 00cc D34D6210 		.word	274877907
 302 00d0 A0860100 		.word	100000
 303              		.cfi_endproc
 304              	.LFE112:
 305              		.size	I2C_Init, .-I2C_Init
 306              		.section	.text.I2C_StructInit,"ax",%progbits
 307              		.align	1
 308              		.p2align 4,,15
 309              		.global	I2C_StructInit
 310              		.syntax unified
 311              		.thumb
 312              		.thumb_func
 313              		.fpu fpv4-sp-d16
 314              		.type	I2C_StructInit, %function
 315              	I2C_StructInit:
 316              	.LFB113:
 317              		.loc 1 291 0
 318              		.cfi_startproc
 319              		@ args = 0, pretend = 0, frame = 0
 320              		@ frame_needed = 0, uses_anonymous_args = 0
 321              		@ link register save eliminated.
 322              	.LVL36:
 323              		.loc 1 294 0
 324 0000 41F28833 		movw	r3, #5000
 325 0004 0449     		ldr	r1, .L23
 326 0006 0360     		str	r3, [r0]
 327              		.loc 1 298 0
 328 0008 0022     		movs	r2, #0
 329              		.loc 1 302 0
 330 000a 4FF48043 		mov	r3, #16384
 331              		.loc 1 298 0
 332 000e C0E90112 		strd	r1, r2, [r0, #4]
 333              		.loc 1 302 0
 334 0012 8381     		strh	r3, [r0, #12]	@ movhi
 335              		.loc 1 305 0
 336 0014 7047     		bx	lr
 337              	.L24:
 338 0016 00BF     		.align	2
 339              	.L23:
 340 0018 0000FFBF 		.word	-1073807360
 341              		.cfi_endproc
 342              	.LFE113:
ARM GAS  /tmp/ccWcPBJM.s 			page 7


 343              		.size	I2C_StructInit, .-I2C_StructInit
 344              		.section	.text.I2C_Cmd,"ax",%progbits
 345              		.align	1
 346              		.p2align 4,,15
 347              		.global	I2C_Cmd
 348              		.syntax unified
 349              		.thumb
 350              		.thumb_func
 351              		.fpu fpv4-sp-d16
 352              		.type	I2C_Cmd, %function
 353              	I2C_Cmd:
 354              	.LFB114:
 355              		.loc 1 315 0
 356              		.cfi_startproc
 357              		@ args = 0, pretend = 0, frame = 0
 358              		@ frame_needed = 0, uses_anonymous_args = 0
 359              		@ link register save eliminated.
 360              	.LVL37:
 361              		.loc 1 322 0
 362 0000 0388     		ldrh	r3, [r0]
 363              		.loc 1 319 0
 364 0002 29B9     		cbnz	r1, .L28
 365              		.loc 1 327 0
 366 0004 23F00103 		bic	r3, r3, #1
 367 0008 1B04     		lsls	r3, r3, #16
 368 000a 1B0C     		lsrs	r3, r3, #16
 369 000c 0380     		strh	r3, [r0]	@ movhi
 370              		.loc 1 329 0
 371 000e 7047     		bx	lr
 372              	.L28:
 373              		.loc 1 322 0
 374 0010 43F00103 		orr	r3, r3, #1
 375 0014 0380     		strh	r3, [r0]	@ movhi
 376 0016 7047     		bx	lr
 377              		.cfi_endproc
 378              	.LFE114:
 379              		.size	I2C_Cmd, .-I2C_Cmd
 380              		.section	.text.I2C_GenerateSTART,"ax",%progbits
 381              		.align	1
 382              		.p2align 4,,15
 383              		.global	I2C_GenerateSTART
 384              		.syntax unified
 385              		.thumb
 386              		.thumb_func
 387              		.fpu fpv4-sp-d16
 388              		.type	I2C_GenerateSTART, %function
 389              	I2C_GenerateSTART:
 390              	.LFB115:
 391              		.loc 1 339 0
 392              		.cfi_startproc
 393              		@ args = 0, pretend = 0, frame = 0
 394              		@ frame_needed = 0, uses_anonymous_args = 0
 395              		@ link register save eliminated.
 396              	.LVL38:
 397              		.loc 1 346 0
 398 0000 0388     		ldrh	r3, [r0]
 399              		.loc 1 343 0
ARM GAS  /tmp/ccWcPBJM.s 			page 8


 400 0002 29B9     		cbnz	r1, .L32
 401              		.loc 1 351 0
 402 0004 23F48073 		bic	r3, r3, #256
 403 0008 1B04     		lsls	r3, r3, #16
 404 000a 1B0C     		lsrs	r3, r3, #16
 405 000c 0380     		strh	r3, [r0]	@ movhi
 406              		.loc 1 353 0
 407 000e 7047     		bx	lr
 408              	.L32:
 409              		.loc 1 346 0
 410 0010 43F48073 		orr	r3, r3, #256
 411 0014 0380     		strh	r3, [r0]	@ movhi
 412 0016 7047     		bx	lr
 413              		.cfi_endproc
 414              	.LFE115:
 415              		.size	I2C_GenerateSTART, .-I2C_GenerateSTART
 416              		.section	.text.I2C_GenerateSTOP,"ax",%progbits
 417              		.align	1
 418              		.p2align 4,,15
 419              		.global	I2C_GenerateSTOP
 420              		.syntax unified
 421              		.thumb
 422              		.thumb_func
 423              		.fpu fpv4-sp-d16
 424              		.type	I2C_GenerateSTOP, %function
 425              	I2C_GenerateSTOP:
 426              	.LFB116:
 427              		.loc 1 363 0
 428              		.cfi_startproc
 429              		@ args = 0, pretend = 0, frame = 0
 430              		@ frame_needed = 0, uses_anonymous_args = 0
 431              		@ link register save eliminated.
 432              	.LVL39:
 433              		.loc 1 370 0
 434 0000 0388     		ldrh	r3, [r0]
 435              		.loc 1 367 0
 436 0002 29B9     		cbnz	r1, .L36
 437              		.loc 1 375 0
 438 0004 23F40073 		bic	r3, r3, #512
 439 0008 1B04     		lsls	r3, r3, #16
 440 000a 1B0C     		lsrs	r3, r3, #16
 441 000c 0380     		strh	r3, [r0]	@ movhi
 442              		.loc 1 377 0
 443 000e 7047     		bx	lr
 444              	.L36:
 445              		.loc 1 370 0
 446 0010 43F40073 		orr	r3, r3, #512
 447 0014 0380     		strh	r3, [r0]	@ movhi
 448 0016 7047     		bx	lr
 449              		.cfi_endproc
 450              	.LFE116:
 451              		.size	I2C_GenerateSTOP, .-I2C_GenerateSTOP
 452              		.section	.text.I2C_Send7bitAddress,"ax",%progbits
 453              		.align	1
 454              		.p2align 4,,15
 455              		.global	I2C_Send7bitAddress
 456              		.syntax unified
ARM GAS  /tmp/ccWcPBJM.s 			page 9


 457              		.thumb
 458              		.thumb_func
 459              		.fpu fpv4-sp-d16
 460              		.type	I2C_Send7bitAddress, %function
 461              	I2C_Send7bitAddress:
 462              	.LFB117:
 463              		.loc 1 391 0
 464              		.cfi_startproc
 465              		@ args = 0, pretend = 0, frame = 0
 466              		@ frame_needed = 0, uses_anonymous_args = 0
 467              		@ link register save eliminated.
 468              	.LVL40:
 469              		.loc 1 396 0
 470 0000 22B9     		cbnz	r2, .L40
 471              		.loc 1 404 0
 472 0002 01F0FE01 		and	r1, r1, #254
 473              	.LVL41:
 474              		.loc 1 407 0
 475 0006 89B2     		uxth	r1, r1
 476              	.LVL42:
 477 0008 0182     		strh	r1, [r0, #16]	@ movhi
 478              		.loc 1 408 0
 479 000a 7047     		bx	lr
 480              	.LVL43:
 481              	.L40:
 482              		.loc 1 399 0
 483 000c 41F00101 		orr	r1, r1, #1
 484              	.LVL44:
 485              		.loc 1 407 0
 486 0010 89B2     		uxth	r1, r1
 487              	.LVL45:
 488 0012 0182     		strh	r1, [r0, #16]	@ movhi
 489              		.loc 1 408 0
 490 0014 7047     		bx	lr
 491              		.cfi_endproc
 492              	.LFE117:
 493              		.size	I2C_Send7bitAddress, .-I2C_Send7bitAddress
 494 0016 00BF     		.section	.text.I2C_AcknowledgeConfig,"ax",%progbits
 495              		.align	1
 496              		.p2align 4,,15
 497              		.global	I2C_AcknowledgeConfig
 498              		.syntax unified
 499              		.thumb
 500              		.thumb_func
 501              		.fpu fpv4-sp-d16
 502              		.type	I2C_AcknowledgeConfig, %function
 503              	I2C_AcknowledgeConfig:
 504              	.LFB118:
 505              		.loc 1 418 0
 506              		.cfi_startproc
 507              		@ args = 0, pretend = 0, frame = 0
 508              		@ frame_needed = 0, uses_anonymous_args = 0
 509              		@ link register save eliminated.
 510              	.LVL46:
 511              		.loc 1 425 0
 512 0000 0388     		ldrh	r3, [r0]
 513              		.loc 1 422 0
ARM GAS  /tmp/ccWcPBJM.s 			page 10


 514 0002 29B9     		cbnz	r1, .L44
 515              		.loc 1 430 0
 516 0004 23F48063 		bic	r3, r3, #1024
 517 0008 1B04     		lsls	r3, r3, #16
 518 000a 1B0C     		lsrs	r3, r3, #16
 519 000c 0380     		strh	r3, [r0]	@ movhi
 520              		.loc 1 432 0
 521 000e 7047     		bx	lr
 522              	.L44:
 523              		.loc 1 425 0
 524 0010 43F48063 		orr	r3, r3, #1024
 525 0014 0380     		strh	r3, [r0]	@ movhi
 526 0016 7047     		bx	lr
 527              		.cfi_endproc
 528              	.LFE118:
 529              		.size	I2C_AcknowledgeConfig, .-I2C_AcknowledgeConfig
 530              		.section	.text.I2C_OwnAddress2Config,"ax",%progbits
 531              		.align	1
 532              		.p2align 4,,15
 533              		.global	I2C_OwnAddress2Config
 534              		.syntax unified
 535              		.thumb
 536              		.thumb_func
 537              		.fpu fpv4-sp-d16
 538              		.type	I2C_OwnAddress2Config, %function
 539              	I2C_OwnAddress2Config:
 540              	.LFB119:
 541              		.loc 1 441 0
 542              		.cfi_startproc
 543              		@ args = 0, pretend = 0, frame = 0
 544              		@ frame_needed = 0, uses_anonymous_args = 0
 545              		@ link register save eliminated.
 546              	.LVL47:
 547              		.loc 1 448 0
 548 0000 8389     		ldrh	r3, [r0, #12]
 549 0002 9BB2     		uxth	r3, r3
 550              	.LVL48:
 551              		.loc 1 454 0
 552 0004 01F0FE01 		and	r1, r1, #254
 553              	.LVL49:
 554              		.loc 1 451 0
 555 0008 23F0FE03 		bic	r3, r3, #254
 556              	.LVL50:
 557              		.loc 1 454 0
 558 000c 0B43     		orrs	r3, r3, r1
 559              	.LVL51:
 560              		.loc 1 457 0
 561 000e 8381     		strh	r3, [r0, #12]	@ movhi
 562              		.loc 1 458 0
 563 0010 7047     		bx	lr
 564              		.cfi_endproc
 565              	.LFE119:
 566              		.size	I2C_OwnAddress2Config, .-I2C_OwnAddress2Config
 567 0012 00BF     		.section	.text.I2C_DualAddressCmd,"ax",%progbits
 568              		.align	1
 569              		.p2align 4,,15
 570              		.global	I2C_DualAddressCmd
ARM GAS  /tmp/ccWcPBJM.s 			page 11


 571              		.syntax unified
 572              		.thumb
 573              		.thumb_func
 574              		.fpu fpv4-sp-d16
 575              		.type	I2C_DualAddressCmd, %function
 576              	I2C_DualAddressCmd:
 577              	.LFB120:
 578              		.loc 1 468 0
 579              		.cfi_startproc
 580              		@ args = 0, pretend = 0, frame = 0
 581              		@ frame_needed = 0, uses_anonymous_args = 0
 582              		@ link register save eliminated.
 583              	.LVL52:
 584              		.loc 1 475 0
 585 0000 8389     		ldrh	r3, [r0, #12]
 586              		.loc 1 472 0
 587 0002 29B9     		cbnz	r1, .L49
 588              		.loc 1 480 0
 589 0004 23F00103 		bic	r3, r3, #1
 590 0008 1B04     		lsls	r3, r3, #16
 591 000a 1B0C     		lsrs	r3, r3, #16
 592 000c 8381     		strh	r3, [r0, #12]	@ movhi
 593              		.loc 1 482 0
 594 000e 7047     		bx	lr
 595              	.L49:
 596              		.loc 1 475 0
 597 0010 43F00103 		orr	r3, r3, #1
 598 0014 8381     		strh	r3, [r0, #12]	@ movhi
 599 0016 7047     		bx	lr
 600              		.cfi_endproc
 601              	.LFE120:
 602              		.size	I2C_DualAddressCmd, .-I2C_DualAddressCmd
 603              		.section	.text.I2C_GeneralCallCmd,"ax",%progbits
 604              		.align	1
 605              		.p2align 4,,15
 606              		.global	I2C_GeneralCallCmd
 607              		.syntax unified
 608              		.thumb
 609              		.thumb_func
 610              		.fpu fpv4-sp-d16
 611              		.type	I2C_GeneralCallCmd, %function
 612              	I2C_GeneralCallCmd:
 613              	.LFB121:
 614              		.loc 1 492 0
 615              		.cfi_startproc
 616              		@ args = 0, pretend = 0, frame = 0
 617              		@ frame_needed = 0, uses_anonymous_args = 0
 618              		@ link register save eliminated.
 619              	.LVL53:
 620              		.loc 1 499 0
 621 0000 0388     		ldrh	r3, [r0]
 622              		.loc 1 496 0
 623 0002 29B9     		cbnz	r1, .L53
 624              		.loc 1 504 0
 625 0004 23F04003 		bic	r3, r3, #64
 626 0008 1B04     		lsls	r3, r3, #16
 627 000a 1B0C     		lsrs	r3, r3, #16
ARM GAS  /tmp/ccWcPBJM.s 			page 12


 628 000c 0380     		strh	r3, [r0]	@ movhi
 629              		.loc 1 506 0
 630 000e 7047     		bx	lr
 631              	.L53:
 632              		.loc 1 499 0
 633 0010 43F04003 		orr	r3, r3, #64
 634 0014 0380     		strh	r3, [r0]	@ movhi
 635 0016 7047     		bx	lr
 636              		.cfi_endproc
 637              	.LFE121:
 638              		.size	I2C_GeneralCallCmd, .-I2C_GeneralCallCmd
 639              		.section	.text.I2C_SoftwareResetCmd,"ax",%progbits
 640              		.align	1
 641              		.p2align 4,,15
 642              		.global	I2C_SoftwareResetCmd
 643              		.syntax unified
 644              		.thumb
 645              		.thumb_func
 646              		.fpu fpv4-sp-d16
 647              		.type	I2C_SoftwareResetCmd, %function
 648              	I2C_SoftwareResetCmd:
 649              	.LFB122:
 650              		.loc 1 518 0
 651              		.cfi_startproc
 652              		@ args = 0, pretend = 0, frame = 0
 653              		@ frame_needed = 0, uses_anonymous_args = 0
 654              		@ link register save eliminated.
 655              	.LVL54:
 656              		.loc 1 525 0
 657 0000 0388     		ldrh	r3, [r0]
 658              		.loc 1 522 0
 659 0002 19B9     		cbnz	r1, .L57
 660              		.loc 1 530 0
 661 0004 C3F30E03 		ubfx	r3, r3, #0, #15
 662 0008 0380     		strh	r3, [r0]	@ movhi
 663              		.loc 1 532 0
 664 000a 7047     		bx	lr
 665              	.L57:
 666              		.loc 1 525 0
 667 000c 43F40043 		orr	r3, r3, #32768
 668 0010 0380     		strh	r3, [r0]	@ movhi
 669 0012 7047     		bx	lr
 670              		.cfi_endproc
 671              	.LFE122:
 672              		.size	I2C_SoftwareResetCmd, .-I2C_SoftwareResetCmd
 673              		.section	.text.I2C_StretchClockCmd,"ax",%progbits
 674              		.align	1
 675              		.p2align 4,,15
 676              		.global	I2C_StretchClockCmd
 677              		.syntax unified
 678              		.thumb
 679              		.thumb_func
 680              		.fpu fpv4-sp-d16
 681              		.type	I2C_StretchClockCmd, %function
 682              	I2C_StretchClockCmd:
 683              	.LFB123:
 684              		.loc 1 542 0
ARM GAS  /tmp/ccWcPBJM.s 			page 13


 685              		.cfi_startproc
 686              		@ args = 0, pretend = 0, frame = 0
 687              		@ frame_needed = 0, uses_anonymous_args = 0
 688              		@ link register save eliminated.
 689              	.LVL55:
 690              		.loc 1 549 0
 691 0000 0388     		ldrh	r3, [r0]
 692              		.loc 1 546 0
 693 0002 29B1     		cbz	r1, .L61
 694              		.loc 1 554 0
 695 0004 23F08003 		bic	r3, r3, #128
 696 0008 1B04     		lsls	r3, r3, #16
 697 000a 1B0C     		lsrs	r3, r3, #16
 698 000c 0380     		strh	r3, [r0]	@ movhi
 699              		.loc 1 556 0
 700 000e 7047     		bx	lr
 701              	.L61:
 702              		.loc 1 549 0
 703 0010 43F08003 		orr	r3, r3, #128
 704 0014 0380     		strh	r3, [r0]	@ movhi
 705 0016 7047     		bx	lr
 706              		.cfi_endproc
 707              	.LFE123:
 708              		.size	I2C_StretchClockCmd, .-I2C_StretchClockCmd
 709              		.section	.text.I2C_FastModeDutyCycleConfig,"ax",%progbits
 710              		.align	1
 711              		.p2align 4,,15
 712              		.global	I2C_FastModeDutyCycleConfig
 713              		.syntax unified
 714              		.thumb
 715              		.thumb_func
 716              		.fpu fpv4-sp-d16
 717              		.type	I2C_FastModeDutyCycleConfig, %function
 718              	I2C_FastModeDutyCycleConfig:
 719              	.LFB124:
 720              		.loc 1 568 0
 721              		.cfi_startproc
 722              		@ args = 0, pretend = 0, frame = 0
 723              		@ frame_needed = 0, uses_anonymous_args = 0
 724              		@ link register save eliminated.
 725              	.LVL56:
 726              		.loc 1 575 0
 727 0000 838B     		ldrh	r3, [r0, #28]
 728              		.loc 1 572 0
 729 0002 B1F5804F 		cmp	r1, #16384
 730              		.loc 1 575 0
 731 0006 1DBF     		ittte	ne
 732 0008 23F48043 		bicne	r3, r3, #16384
 733 000c 1B04     		lslne	r3, r3, #16
 734 000e 1B0C     		lsrne	r3, r3, #16
 735              		.loc 1 580 0
 736 0010 43F48043 		orreq	r3, r3, #16384
 737 0014 8383     		strh	r3, [r0, #28]	@ movhi
 738              		.loc 1 582 0
 739 0016 7047     		bx	lr
 740              		.cfi_endproc
 741              	.LFE124:
ARM GAS  /tmp/ccWcPBJM.s 			page 14


 742              		.size	I2C_FastModeDutyCycleConfig, .-I2C_FastModeDutyCycleConfig
 743              		.section	.text.I2C_NACKPositionConfig,"ax",%progbits
 744              		.align	1
 745              		.p2align 4,,15
 746              		.global	I2C_NACKPositionConfig
 747              		.syntax unified
 748              		.thumb
 749              		.thumb_func
 750              		.fpu fpv4-sp-d16
 751              		.type	I2C_NACKPositionConfig, %function
 752              	I2C_NACKPositionConfig:
 753              	.LFB125:
 754              		.loc 1 606 0
 755              		.cfi_startproc
 756              		@ args = 0, pretend = 0, frame = 0
 757              		@ frame_needed = 0, uses_anonymous_args = 0
 758              		@ link register save eliminated.
 759              	.LVL57:
 760              		.loc 1 615 0
 761 0000 0388     		ldrh	r3, [r0]
 762              		.loc 1 612 0
 763 0002 B1F5006F 		cmp	r1, #2048
 764              		.loc 1 620 0
 765 0006 1BBF     		ittet	ne
 766 0008 23F40063 		bicne	r3, r3, #2048
 767 000c 1B04     		lslne	r3, r3, #16
 768              		.loc 1 615 0
 769 000e 43F40063 		orreq	r3, r3, #2048
 770              		.loc 1 620 0
 771 0012 1B0C     		lsrne	r3, r3, #16
 772 0014 0380     		strh	r3, [r0]	@ movhi
 773              		.loc 1 622 0
 774 0016 7047     		bx	lr
 775              		.cfi_endproc
 776              	.LFE125:
 777              		.size	I2C_NACKPositionConfig, .-I2C_NACKPositionConfig
 778              		.section	.text.I2C_SMBusAlertConfig,"ax",%progbits
 779              		.align	1
 780              		.p2align 4,,15
 781              		.global	I2C_SMBusAlertConfig
 782              		.syntax unified
 783              		.thumb
 784              		.thumb_func
 785              		.fpu fpv4-sp-d16
 786              		.type	I2C_SMBusAlertConfig, %function
 787              	I2C_SMBusAlertConfig:
 788              	.LFB126:
 789              		.loc 1 634 0
 790              		.cfi_startproc
 791              		@ args = 0, pretend = 0, frame = 0
 792              		@ frame_needed = 0, uses_anonymous_args = 0
 793              		@ link register save eliminated.
 794              	.LVL58:
 795              		.loc 1 641 0
 796 0000 0388     		ldrh	r3, [r0]
 797              		.loc 1 638 0
 798 0002 B1F5005F 		cmp	r1, #8192
ARM GAS  /tmp/ccWcPBJM.s 			page 15


 799              		.loc 1 646 0
 800 0006 1BBF     		ittet	ne
 801 0008 23F40053 		bicne	r3, r3, #8192
 802 000c 1B04     		lslne	r3, r3, #16
 803              		.loc 1 641 0
 804 000e 43F40053 		orreq	r3, r3, #8192
 805              		.loc 1 646 0
 806 0012 1B0C     		lsrne	r3, r3, #16
 807 0014 0380     		strh	r3, [r0]	@ movhi
 808              		.loc 1 648 0
 809 0016 7047     		bx	lr
 810              		.cfi_endproc
 811              	.LFE126:
 812              		.size	I2C_SMBusAlertConfig, .-I2C_SMBusAlertConfig
 813              		.section	.text.I2C_ARPCmd,"ax",%progbits
 814              		.align	1
 815              		.p2align 4,,15
 816              		.global	I2C_ARPCmd
 817              		.syntax unified
 818              		.thumb
 819              		.thumb_func
 820              		.fpu fpv4-sp-d16
 821              		.type	I2C_ARPCmd, %function
 822              	I2C_ARPCmd:
 823              	.LFB127:
 824              		.loc 1 658 0
 825              		.cfi_startproc
 826              		@ args = 0, pretend = 0, frame = 0
 827              		@ frame_needed = 0, uses_anonymous_args = 0
 828              		@ link register save eliminated.
 829              	.LVL59:
 830              		.loc 1 665 0
 831 0000 0388     		ldrh	r3, [r0]
 832              		.loc 1 662 0
 833 0002 29B9     		cbnz	r1, .L74
 834              		.loc 1 670 0
 835 0004 23F01003 		bic	r3, r3, #16
 836 0008 1B04     		lsls	r3, r3, #16
 837 000a 1B0C     		lsrs	r3, r3, #16
 838 000c 0380     		strh	r3, [r0]	@ movhi
 839              		.loc 1 672 0
 840 000e 7047     		bx	lr
 841              	.L74:
 842              		.loc 1 665 0
 843 0010 43F01003 		orr	r3, r3, #16
 844 0014 0380     		strh	r3, [r0]	@ movhi
 845 0016 7047     		bx	lr
 846              		.cfi_endproc
 847              	.LFE127:
 848              		.size	I2C_ARPCmd, .-I2C_ARPCmd
 849              		.section	.text.I2C_SendData,"ax",%progbits
 850              		.align	1
 851              		.p2align 4,,15
 852              		.global	I2C_SendData
 853              		.syntax unified
 854              		.thumb
 855              		.thumb_func
ARM GAS  /tmp/ccWcPBJM.s 			page 16


 856              		.fpu fpv4-sp-d16
 857              		.type	I2C_SendData, %function
 858              	I2C_SendData:
 859              	.LFB128:
 860              		.loc 1 696 0
 861              		.cfi_startproc
 862              		@ args = 0, pretend = 0, frame = 0
 863              		@ frame_needed = 0, uses_anonymous_args = 0
 864              		@ link register save eliminated.
 865              	.LVL60:
 866              		.loc 1 700 0
 867 0000 0182     		strh	r1, [r0, #16]	@ movhi
 868              		.loc 1 701 0
 869 0002 7047     		bx	lr
 870              		.cfi_endproc
 871              	.LFE128:
 872              		.size	I2C_SendData, .-I2C_SendData
 873              		.section	.text.I2C_ReceiveData,"ax",%progbits
 874              		.align	1
 875              		.p2align 4,,15
 876              		.global	I2C_ReceiveData
 877              		.syntax unified
 878              		.thumb
 879              		.thumb_func
 880              		.fpu fpv4-sp-d16
 881              		.type	I2C_ReceiveData, %function
 882              	I2C_ReceiveData:
 883              	.LFB129:
 884              		.loc 1 709 0
 885              		.cfi_startproc
 886              		@ args = 0, pretend = 0, frame = 0
 887              		@ frame_needed = 0, uses_anonymous_args = 0
 888              		@ link register save eliminated.
 889              	.LVL61:
 890              		.loc 1 713 0
 891 0000 008A     		ldrh	r0, [r0, #16]
 892              	.LVL62:
 893              		.loc 1 714 0
 894 0002 C0B2     		uxtb	r0, r0
 895 0004 7047     		bx	lr
 896              		.cfi_endproc
 897              	.LFE129:
 898              		.size	I2C_ReceiveData, .-I2C_ReceiveData
 899 0006 00BF     		.section	.text.I2C_TransmitPEC,"ax",%progbits
 900              		.align	1
 901              		.p2align 4,,15
 902              		.global	I2C_TransmitPEC
 903              		.syntax unified
 904              		.thumb
 905              		.thumb_func
 906              		.fpu fpv4-sp-d16
 907              		.type	I2C_TransmitPEC, %function
 908              	I2C_TransmitPEC:
 909              	.LFB130:
 910              		.loc 1 740 0
 911              		.cfi_startproc
 912              		@ args = 0, pretend = 0, frame = 0
ARM GAS  /tmp/ccWcPBJM.s 			page 17


 913              		@ frame_needed = 0, uses_anonymous_args = 0
 914              		@ link register save eliminated.
 915              	.LVL63:
 916              		.loc 1 747 0
 917 0000 0388     		ldrh	r3, [r0]
 918              		.loc 1 744 0
 919 0002 29B9     		cbnz	r1, .L80
 920              		.loc 1 752 0
 921 0004 23F48053 		bic	r3, r3, #4096
 922 0008 1B04     		lsls	r3, r3, #16
 923 000a 1B0C     		lsrs	r3, r3, #16
 924 000c 0380     		strh	r3, [r0]	@ movhi
 925              		.loc 1 754 0
 926 000e 7047     		bx	lr
 927              	.L80:
 928              		.loc 1 747 0
 929 0010 43F48053 		orr	r3, r3, #4096
 930 0014 0380     		strh	r3, [r0]	@ movhi
 931 0016 7047     		bx	lr
 932              		.cfi_endproc
 933              	.LFE130:
 934              		.size	I2C_TransmitPEC, .-I2C_TransmitPEC
 935              		.section	.text.I2C_PECPositionConfig,"ax",%progbits
 936              		.align	1
 937              		.p2align 4,,15
 938              		.global	I2C_PECPositionConfig
 939              		.syntax unified
 940              		.thumb
 941              		.thumb_func
 942              		.fpu fpv4-sp-d16
 943              		.type	I2C_PECPositionConfig, %function
 944              	I2C_PECPositionConfig:
 945              	.LFB145:
 946              		.cfi_startproc
 947              		@ args = 0, pretend = 0, frame = 0
 948              		@ frame_needed = 0, uses_anonymous_args = 0
 949              		@ link register save eliminated.
 950 0000 FFF7FEBF 		b	I2C_NACKPositionConfig
 951              		.cfi_endproc
 952              	.LFE145:
 953              		.size	I2C_PECPositionConfig, .-I2C_PECPositionConfig
 954              		.section	.text.I2C_CalculatePEC,"ax",%progbits
 955              		.align	1
 956              		.p2align 4,,15
 957              		.global	I2C_CalculatePEC
 958              		.syntax unified
 959              		.thumb
 960              		.thumb_func
 961              		.fpu fpv4-sp-d16
 962              		.type	I2C_CalculatePEC, %function
 963              	I2C_CalculatePEC:
 964              	.LFB132:
 965              		.loc 1 795 0
 966              		.cfi_startproc
 967              		@ args = 0, pretend = 0, frame = 0
 968              		@ frame_needed = 0, uses_anonymous_args = 0
 969              		@ link register save eliminated.
ARM GAS  /tmp/ccWcPBJM.s 			page 18


 970              	.LVL64:
 971              		.loc 1 802 0
 972 0000 0388     		ldrh	r3, [r0]
 973              		.loc 1 799 0
 974 0002 29B9     		cbnz	r1, .L85
 975              		.loc 1 807 0
 976 0004 23F02003 		bic	r3, r3, #32
 977 0008 1B04     		lsls	r3, r3, #16
 978 000a 1B0C     		lsrs	r3, r3, #16
 979 000c 0380     		strh	r3, [r0]	@ movhi
 980              		.loc 1 809 0
 981 000e 7047     		bx	lr
 982              	.L85:
 983              		.loc 1 802 0
 984 0010 43F02003 		orr	r3, r3, #32
 985 0014 0380     		strh	r3, [r0]	@ movhi
 986 0016 7047     		bx	lr
 987              		.cfi_endproc
 988              	.LFE132:
 989              		.size	I2C_CalculatePEC, .-I2C_CalculatePEC
 990              		.section	.text.I2C_GetPEC,"ax",%progbits
 991              		.align	1
 992              		.p2align 4,,15
 993              		.global	I2C_GetPEC
 994              		.syntax unified
 995              		.thumb
 996              		.thumb_func
 997              		.fpu fpv4-sp-d16
 998              		.type	I2C_GetPEC, %function
 999              	I2C_GetPEC:
 1000              	.LFB133:
 1001              		.loc 1 817 0
 1002              		.cfi_startproc
 1003              		@ args = 0, pretend = 0, frame = 0
 1004              		@ frame_needed = 0, uses_anonymous_args = 0
 1005              		@ link register save eliminated.
 1006              	.LVL65:
 1007              		.loc 1 821 0
 1008 0000 008B     		ldrh	r0, [r0, #24]
 1009              	.LVL66:
 1010              		.loc 1 822 0
 1011 0002 000A     		lsrs	r0, r0, #8
 1012 0004 7047     		bx	lr
 1013              		.cfi_endproc
 1014              	.LFE133:
 1015              		.size	I2C_GetPEC, .-I2C_GetPEC
 1016 0006 00BF     		.section	.text.I2C_DMACmd,"ax",%progbits
 1017              		.align	1
 1018              		.p2align 4,,15
 1019              		.global	I2C_DMACmd
 1020              		.syntax unified
 1021              		.thumb
 1022              		.thumb_func
 1023              		.fpu fpv4-sp-d16
 1024              		.type	I2C_DMACmd, %function
 1025              	I2C_DMACmd:
 1026              	.LFB134:
ARM GAS  /tmp/ccWcPBJM.s 			page 19


 1027              		.loc 1 850 0
 1028              		.cfi_startproc
 1029              		@ args = 0, pretend = 0, frame = 0
 1030              		@ frame_needed = 0, uses_anonymous_args = 0
 1031              		@ link register save eliminated.
 1032              	.LVL67:
 1033              		.loc 1 857 0
 1034 0000 8388     		ldrh	r3, [r0, #4]
 1035              		.loc 1 854 0
 1036 0002 29B9     		cbnz	r1, .L90
 1037              		.loc 1 862 0
 1038 0004 23F40063 		bic	r3, r3, #2048
 1039 0008 1B04     		lsls	r3, r3, #16
 1040 000a 1B0C     		lsrs	r3, r3, #16
 1041 000c 8380     		strh	r3, [r0, #4]	@ movhi
 1042              		.loc 1 864 0
 1043 000e 7047     		bx	lr
 1044              	.L90:
 1045              		.loc 1 857 0
 1046 0010 43F40063 		orr	r3, r3, #2048
 1047 0014 8380     		strh	r3, [r0, #4]	@ movhi
 1048 0016 7047     		bx	lr
 1049              		.cfi_endproc
 1050              	.LFE134:
 1051              		.size	I2C_DMACmd, .-I2C_DMACmd
 1052              		.section	.text.I2C_DMALastTransferCmd,"ax",%progbits
 1053              		.align	1
 1054              		.p2align 4,,15
 1055              		.global	I2C_DMALastTransferCmd
 1056              		.syntax unified
 1057              		.thumb
 1058              		.thumb_func
 1059              		.fpu fpv4-sp-d16
 1060              		.type	I2C_DMALastTransferCmd, %function
 1061              	I2C_DMALastTransferCmd:
 1062              	.LFB135:
 1063              		.loc 1 874 0
 1064              		.cfi_startproc
 1065              		@ args = 0, pretend = 0, frame = 0
 1066              		@ frame_needed = 0, uses_anonymous_args = 0
 1067              		@ link register save eliminated.
 1068              	.LVL68:
 1069              		.loc 1 881 0
 1070 0000 8388     		ldrh	r3, [r0, #4]
 1071              		.loc 1 878 0
 1072 0002 29B9     		cbnz	r1, .L94
 1073              		.loc 1 886 0
 1074 0004 23F48053 		bic	r3, r3, #4096
 1075 0008 1B04     		lsls	r3, r3, #16
 1076 000a 1B0C     		lsrs	r3, r3, #16
 1077 000c 8380     		strh	r3, [r0, #4]	@ movhi
 1078              		.loc 1 888 0
 1079 000e 7047     		bx	lr
 1080              	.L94:
 1081              		.loc 1 881 0
 1082 0010 43F48053 		orr	r3, r3, #4096
 1083 0014 8380     		strh	r3, [r0, #4]	@ movhi
ARM GAS  /tmp/ccWcPBJM.s 			page 20


 1084 0016 7047     		bx	lr
 1085              		.cfi_endproc
 1086              	.LFE135:
 1087              		.size	I2C_DMALastTransferCmd, .-I2C_DMALastTransferCmd
 1088              		.section	.text.I2C_ReadRegister,"ax",%progbits
 1089              		.align	1
 1090              		.p2align 4,,15
 1091              		.global	I2C_ReadRegister
 1092              		.syntax unified
 1093              		.thumb
 1094              		.thumb_func
 1095              		.fpu fpv4-sp-d16
 1096              		.type	I2C_ReadRegister, %function
 1097              	I2C_ReadRegister:
 1098              	.LFB136:
 1099              		.loc 1 1012 0
 1100              		.cfi_startproc
 1101              		@ args = 0, pretend = 0, frame = 8
 1102              		@ frame_needed = 0, uses_anonymous_args = 0
 1103              		@ link register save eliminated.
 1104              	.LVL69:
 1105 0000 82B0     		sub	sp, sp, #8
 1106              		.cfi_def_cfa_offset 8
 1107              		.loc 1 1013 0
 1108 0002 0023     		movs	r3, #0
 1109 0004 0193     		str	r3, [sp, #4]
 1110              		.loc 1 1019 0
 1111 0006 0190     		str	r0, [sp, #4]
 1112              		.loc 1 1020 0
 1113 0008 019B     		ldr	r3, [sp, #4]
 1114 000a 1944     		add	r1, r1, r3
 1115              	.LVL70:
 1116 000c 0191     		str	r1, [sp, #4]
 1117              		.loc 1 1023 0
 1118 000e 019B     		ldr	r3, [sp, #4]
 1119 0010 1888     		ldrh	r0, [r3]
 1120              	.LVL71:
 1121              		.loc 1 1024 0
 1122 0012 02B0     		add	sp, sp, #8
 1123              		.cfi_def_cfa_offset 0
 1124              		@ sp needed
 1125 0014 7047     		bx	lr
 1126              		.cfi_endproc
 1127              	.LFE136:
 1128              		.size	I2C_ReadRegister, .-I2C_ReadRegister
 1129 0016 00BF     		.section	.text.I2C_ITConfig,"ax",%progbits
 1130              		.align	1
 1131              		.p2align 4,,15
 1132              		.global	I2C_ITConfig
 1133              		.syntax unified
 1134              		.thumb
 1135              		.thumb_func
 1136              		.fpu fpv4-sp-d16
 1137              		.type	I2C_ITConfig, %function
 1138              	I2C_ITConfig:
 1139              	.LFB137:
 1140              		.loc 1 1039 0
ARM GAS  /tmp/ccWcPBJM.s 			page 21


 1141              		.cfi_startproc
 1142              		@ args = 0, pretend = 0, frame = 0
 1143              		@ frame_needed = 0, uses_anonymous_args = 0
 1144              		@ link register save eliminated.
 1145              	.LVL72:
 1146              		.loc 1 1048 0
 1147 0000 8388     		ldrh	r3, [r0, #4]
 1148              		.loc 1 1045 0
 1149 0002 1AB9     		cbnz	r2, .L100
 1150              		.loc 1 1053 0
 1151 0004 23EA0101 		bic	r1, r3, r1
 1152              	.LVL73:
 1153 0008 8180     		strh	r1, [r0, #4]	@ movhi
 1154              		.loc 1 1055 0
 1155 000a 7047     		bx	lr
 1156              	.LVL74:
 1157              	.L100:
 1158              		.loc 1 1048 0
 1159 000c 1943     		orrs	r1, r1, r3
 1160              	.LVL75:
 1161 000e 8180     		strh	r1, [r0, #4]	@ movhi
 1162 0010 7047     		bx	lr
 1163              		.cfi_endproc
 1164              	.LFE137:
 1165              		.size	I2C_ITConfig, .-I2C_ITConfig
 1166              		.section	.text.I2C_CheckEvent,"ax",%progbits
 1167              		.align	1
 1168              		.p2align 4,,15
 1169              		.global	I2C_CheckEvent
 1170              		.syntax unified
 1171              		.thumb
 1172              		.thumb_func
 1173              		.fpu fpv4-sp-d16
 1174              		.type	I2C_CheckEvent, %function
 1175              	I2C_CheckEvent:
 1176              	.LFB138:
 1177              		.loc 1 1098 0
 1178              		.cfi_startproc
 1179              		@ args = 0, pretend = 0, frame = 0
 1180              		@ frame_needed = 0, uses_anonymous_args = 0
 1181              		@ link register save eliminated.
 1182              	.LVL76:
 1183              		.loc 1 1108 0
 1184 0000 838A     		ldrh	r3, [r0, #20]
 1185              	.LVL77:
 1186              		.loc 1 1109 0
 1187 0002 028B     		ldrh	r2, [r0, #24]
 1188              	.LVL78:
 1189              		.loc 1 1116 0
 1190 0004 21F07F40 		bic	r0, r1, #-16777216
 1191              	.LVL79:
 1192              		.loc 1 1113 0
 1193 0008 43EA0243 		orr	r3, r3, r2, lsl #16
 1194              	.LVL80:
 1195              		.loc 1 1116 0
 1196 000c 1840     		ands	r0, r0, r3
 1197              		.loc 1 1128 0
ARM GAS  /tmp/ccWcPBJM.s 			page 22


 1198 000e 401A     		subs	r0, r0, r1
 1199 0010 B0FA80F0 		clz	r0, r0
 1200 0014 4009     		lsrs	r0, r0, #5
 1201 0016 7047     		bx	lr
 1202              		.cfi_endproc
 1203              	.LFE138:
 1204              		.size	I2C_CheckEvent, .-I2C_CheckEvent
 1205              		.section	.text.I2C_GetLastEvent,"ax",%progbits
 1206              		.align	1
 1207              		.p2align 4,,15
 1208              		.global	I2C_GetLastEvent
 1209              		.syntax unified
 1210              		.thumb
 1211              		.thumb_func
 1212              		.fpu fpv4-sp-d16
 1213              		.type	I2C_GetLastEvent, %function
 1214              	I2C_GetLastEvent:
 1215              	.LFB139:
 1216              		.loc 1 1146 0
 1217              		.cfi_startproc
 1218              		@ args = 0, pretend = 0, frame = 0
 1219              		@ frame_needed = 0, uses_anonymous_args = 0
 1220              		@ link register save eliminated.
 1221              	.LVL81:
 1222              		.loc 1 1154 0
 1223 0000 838A     		ldrh	r3, [r0, #20]
 1224              	.LVL82:
 1225              		.loc 1 1155 0
 1226 0002 008B     		ldrh	r0, [r0, #24]
 1227              	.LVL83:
 1228              		.loc 1 1159 0
 1229 0004 43EA0040 		orr	r0, r3, r0, lsl #16
 1230              	.LVL84:
 1231              		.loc 1 1163 0
 1232 0008 20F07F40 		bic	r0, r0, #-16777216
 1233 000c 7047     		bx	lr
 1234              		.cfi_endproc
 1235              	.LFE139:
 1236              		.size	I2C_GetLastEvent, .-I2C_GetLastEvent
 1237 000e 00BF     		.section	.text.I2C_GetFlagStatus,"ax",%progbits
 1238              		.align	1
 1239              		.p2align 4,,15
 1240              		.global	I2C_GetFlagStatus
 1241              		.syntax unified
 1242              		.thumb
 1243              		.thumb_func
 1244              		.fpu fpv4-sp-d16
 1245              		.type	I2C_GetFlagStatus, %function
 1246              	I2C_GetFlagStatus:
 1247              	.LFB140:
 1248              		.loc 1 1201 0
 1249              		.cfi_startproc
 1250              		@ args = 0, pretend = 0, frame = 8
 1251              		@ frame_needed = 0, uses_anonymous_args = 0
 1252              		@ link register save eliminated.
 1253              	.LVL85:
 1254 0000 82B0     		sub	sp, sp, #8
ARM GAS  /tmp/ccWcPBJM.s 			page 23


 1255              		.cfi_def_cfa_offset 8
 1256              		.loc 1 1203 0
 1257 0002 0023     		movs	r3, #0
 1258              		.loc 1 1213 0
 1259 0004 0A0F     		lsrs	r2, r1, #28
 1260              		.loc 1 1203 0
 1261 0006 0093     		str	r3, [sp]
 1262 0008 0193     		str	r3, [sp, #4]
 1263              		.loc 1 1210 0
 1264 000a 0190     		str	r0, [sp, #4]
 1265              		.loc 1 1213 0
 1266 000c 0092     		str	r2, [sp]
 1267              		.loc 1 1218 0
 1268 000e 009B     		ldr	r3, [sp]
 1269              		.loc 1 1216 0
 1270 0010 21F07F41 		bic	r1, r1, #-16777216
 1271              	.LVL86:
 1272              		.loc 1 1218 0
 1273 0014 53B1     		cbz	r3, .L104
 1274              		.loc 1 1221 0
 1275 0016 019B     		ldr	r3, [sp, #4]
 1276 0018 1433     		adds	r3, r3, #20
 1277 001a 0193     		str	r3, [sp, #4]
 1278              	.L105:
 1279              		.loc 1 1231 0
 1280 001c 019B     		ldr	r3, [sp, #4]
 1281 001e 1B68     		ldr	r3, [r3]
 1282              	.LVL87:
 1283 0020 0B42     		tst	r3, r1
 1284              		.loc 1 1244 0
 1285 0022 14BF     		ite	ne
 1286 0024 0120     		movne	r0, #1
 1287              	.LVL88:
 1288 0026 0020     		moveq	r0, #0
 1289 0028 02B0     		add	sp, sp, #8
 1290              		.cfi_remember_state
 1291              		.cfi_def_cfa_offset 0
 1292              		@ sp needed
 1293 002a 7047     		bx	lr
 1294              	.LVL89:
 1295              	.L104:
 1296              		.cfi_restore_state
 1297              		.loc 1 1228 0
 1298 002c 019B     		ldr	r3, [sp, #4]
 1299 002e 1833     		adds	r3, r3, #24
 1300              		.loc 1 1226 0
 1301 0030 090C     		lsrs	r1, r1, #16
 1302              	.LVL90:
 1303              		.loc 1 1228 0
 1304 0032 0193     		str	r3, [sp, #4]
 1305 0034 F2E7     		b	.L105
 1306              		.cfi_endproc
 1307              	.LFE140:
 1308              		.size	I2C_GetFlagStatus, .-I2C_GetFlagStatus
 1309 0036 00BF     		.section	.text.I2C_ClearFlag,"ax",%progbits
 1310              		.align	1
 1311              		.p2align 4,,15
ARM GAS  /tmp/ccWcPBJM.s 			page 24


 1312              		.global	I2C_ClearFlag
 1313              		.syntax unified
 1314              		.thumb
 1315              		.thumb_func
 1316              		.fpu fpv4-sp-d16
 1317              		.type	I2C_ClearFlag, %function
 1318              	I2C_ClearFlag:
 1319              	.LFB141:
 1320              		.loc 1 1278 0
 1321              		.cfi_startproc
 1322              		@ args = 0, pretend = 0, frame = 0
 1323              		@ frame_needed = 0, uses_anonymous_args = 0
 1324              		@ link register save eliminated.
 1325              	.LVL91:
 1326              		.loc 1 1286 0
 1327 0000 C943     		mvns	r1, r1
 1328              	.LVL92:
 1329 0002 89B2     		uxth	r1, r1
 1330              	.LVL93:
 1331 0004 8182     		strh	r1, [r0, #20]	@ movhi
 1332              		.loc 1 1287 0
 1333 0006 7047     		bx	lr
 1334              		.cfi_endproc
 1335              	.LFE141:
 1336              		.size	I2C_ClearFlag, .-I2C_ClearFlag
 1337              		.section	.text.I2C_GetITStatus,"ax",%progbits
 1338              		.align	1
 1339              		.p2align 4,,15
 1340              		.global	I2C_GetITStatus
 1341              		.syntax unified
 1342              		.thumb
 1343              		.thumb_func
 1344              		.fpu fpv4-sp-d16
 1345              		.type	I2C_GetITStatus, %function
 1346              	I2C_GetITStatus:
 1347              	.LFB142:
 1348              		.loc 1 1312 0
 1349              		.cfi_startproc
 1350              		@ args = 0, pretend = 0, frame = 0
 1351              		@ frame_needed = 0, uses_anonymous_args = 0
 1352              		@ link register save eliminated.
 1353              	.LVL94:
 1354              		.loc 1 1321 0
 1355 0000 8388     		ldrh	r3, [r0, #4]
 1356              		.loc 1 1327 0
 1357 0002 808A     		ldrh	r0, [r0, #20]
 1358              	.LVL95:
 1359 0004 0840     		ands	r0, r1, r0
 1360              		.loc 1 1321 0
 1361 0006 9BB2     		uxth	r3, r3
 1362              	.LVL96:
 1363              		.loc 1 1327 0
 1364 0008 06D0     		beq	.L109
 1365              		.loc 1 1321 0 discriminator 1
 1366 000a 03F4E063 		and	r3, r3, #1792
 1367              	.LVL97:
 1368              		.loc 1 1327 0 discriminator 1
ARM GAS  /tmp/ccWcPBJM.s 			page 25


 1369 000e 13EA1143 		ands	r3, r3, r1, lsr #16
 1370              		.loc 1 1330 0 discriminator 1
 1371 0012 14BF     		ite	ne
 1372 0014 0120     		movne	r0, #1
 1373 0016 0020     		moveq	r0, #0
 1374              	.L109:
 1375              	.LVL98:
 1376              		.loc 1 1339 0
 1377 0018 7047     		bx	lr
 1378              		.cfi_endproc
 1379              	.LFE142:
 1380              		.size	I2C_GetITStatus, .-I2C_GetITStatus
 1381 001a 00BF     		.section	.text.I2C_ClearITPendingBit,"ax",%progbits
 1382              		.align	1
 1383              		.p2align 4,,15
 1384              		.global	I2C_ClearITPendingBit
 1385              		.syntax unified
 1386              		.thumb
 1387              		.thumb_func
 1388              		.fpu fpv4-sp-d16
 1389              		.type	I2C_ClearITPendingBit, %function
 1390              	I2C_ClearITPendingBit:
 1391              	.LFB147:
 1392              		.cfi_startproc
 1393              		@ args = 0, pretend = 0, frame = 0
 1394              		@ frame_needed = 0, uses_anonymous_args = 0
 1395              		@ link register save eliminated.
 1396 0000 C943     		mvns	r1, r1
 1397 0002 89B2     		uxth	r1, r1
 1398 0004 8182     		strh	r1, [r0, #20]	@ movhi
 1399 0006 7047     		bx	lr
 1400              		.cfi_endproc
 1401              	.LFE147:
 1402              		.size	I2C_ClearITPendingBit, .-I2C_ClearITPendingBit
 1403              		.text
 1404              	.Letext0:
 1405              		.file 2 "/usr/arm-none-eabi/include/machine/_default_types.h"
 1406              		.file 3 "/usr/arm-none-eabi/include/sys/_stdint.h"
 1407              		.file 4 "ChibiOS_2.6.6/os/hal/platforms/STM32F4xx/stm32f4xx.h"
 1408              		.file 5 "ChibiOS_2.6.6/ext/stdperiph_stm32f4/inc/stm32f4xx_rcc.h"
 1409              		.file 6 "ChibiOS_2.6.6/ext/stdperiph_stm32f4/inc/stm32f4xx_i2c.h"
 1410              		.file 7 "ChibiOS_2.6.6/os/ports/common/ARMCMx/CMSIS/include/core_cm4.h"