ARM GAS  /tmp/ccAz6VKv.s 			page 1


   1              		.cpu cortex-m4
   2              		.eabi_attribute 27, 1
   3              		.eabi_attribute 28, 1
   4              		.eabi_attribute 20, 1
   5              		.eabi_attribute 21, 1
   6              		.eabi_attribute 23, 3
   7              		.eabi_attribute 24, 1
   8              		.eabi_attribute 25, 1
   9              		.eabi_attribute 26, 1
  10              		.eabi_attribute 30, 2
  11              		.eabi_attribute 34, 1
  12              		.eabi_attribute 18, 4
  13              		.file	"stm32f4xx_crc.c"
  14              		.text
  15              	.Ltext0:
  16              		.cfi_sections	.debug_frame
  17              		.section	.text.CRC_ResetDR,"ax",%progbits
  18              		.align	1
  19              		.p2align 4,,15
  20              		.global	CRC_ResetDR
  21              		.syntax unified
  22              		.thumb
  23              		.thumb_func
  24              		.fpu fpv4-sp-d16
  25              		.type	CRC_ResetDR, %function
  26              	CRC_ResetDR:
  27              	.LFB111:
  28              		.file 1 "ChibiOS_2.6.6/ext/stdperiph_stm32f4/src/stm32f4xx_crc.c"
  29              		.loc 1 57 0
  30              		.cfi_startproc
  31              		@ args = 0, pretend = 0, frame = 0
  32              		@ frame_needed = 0, uses_anonymous_args = 0
  33              		@ link register save eliminated.
  34              		.loc 1 59 0
  35 0000 014B     		ldr	r3, .L3
  36 0002 0122     		movs	r2, #1
  37 0004 9A60     		str	r2, [r3, #8]
  38              		.loc 1 60 0
  39 0006 7047     		bx	lr
  40              	.L4:
  41              		.align	2
  42              	.L3:
  43 0008 00300240 		.word	1073885184
  44              		.cfi_endproc
  45              	.LFE111:
  46              		.size	CRC_ResetDR, .-CRC_ResetDR
  47              		.section	.text.CRC_CalcCRC,"ax",%progbits
  48              		.align	1
  49              		.p2align 4,,15
  50              		.global	CRC_CalcCRC
  51              		.syntax unified
  52              		.thumb
  53              		.thumb_func
  54              		.fpu fpv4-sp-d16
  55              		.type	CRC_CalcCRC, %function
  56              	CRC_CalcCRC:
  57              	.LFB112:
ARM GAS  /tmp/ccAz6VKv.s 			page 2


  58              		.loc 1 68 0
  59              		.cfi_startproc
  60              		@ args = 0, pretend = 0, frame = 0
  61              		@ frame_needed = 0, uses_anonymous_args = 0
  62              		@ link register save eliminated.
  63              	.LVL0:
  64              		.loc 1 69 0
  65 0000 014B     		ldr	r3, .L6
  66 0002 1860     		str	r0, [r3]
  67              		.loc 1 71 0
  68 0004 1868     		ldr	r0, [r3]
  69              	.LVL1:
  70              		.loc 1 72 0
  71 0006 7047     		bx	lr
  72              	.L7:
  73              		.align	2
  74              	.L6:
  75 0008 00300240 		.word	1073885184
  76              		.cfi_endproc
  77              	.LFE112:
  78              		.size	CRC_CalcCRC, .-CRC_CalcCRC
  79              		.section	.text.CRC_CalcBlockCRC,"ax",%progbits
  80              		.align	1
  81              		.p2align 4,,15
  82              		.global	CRC_CalcBlockCRC
  83              		.syntax unified
  84              		.thumb
  85              		.thumb_func
  86              		.fpu fpv4-sp-d16
  87              		.type	CRC_CalcBlockCRC, %function
  88              	CRC_CalcBlockCRC:
  89              	.LFB113:
  90              		.loc 1 81 0
  91              		.cfi_startproc
  92              		@ args = 0, pretend = 0, frame = 0
  93              		@ frame_needed = 0, uses_anonymous_args = 0
  94              		@ link register save eliminated.
  95              	.LVL2:
  96              		.loc 1 84 0
  97 0000 41B1     		cbz	r1, .L9
  98 0002 0438     		subs	r0, r0, #4
  99              	.LVL3:
 100              		.loc 1 86 0
 101 0004 054A     		ldr	r2, .L15
 102 0006 00EB8101 		add	r1, r0, r1, lsl #2
 103              	.LVL4:
 104              	.L10:
 105              		.loc 1 86 0 is_stmt 0 discriminator 3
 106 000a 50F8043F 		ldr	r3, [r0, #4]!
 107 000e 1360     		str	r3, [r2]
 108              		.loc 1 84 0 is_stmt 1 discriminator 3
 109 0010 8842     		cmp	r0, r1
 110 0012 FAD1     		bne	.L10
 111              	.L9:
 112              		.loc 1 88 0
 113 0014 014B     		ldr	r3, .L15
 114 0016 1868     		ldr	r0, [r3]
ARM GAS  /tmp/ccAz6VKv.s 			page 3


 115              		.loc 1 89 0
 116 0018 7047     		bx	lr
 117              	.L16:
 118 001a 00BF     		.align	2
 119              	.L15:
 120 001c 00300240 		.word	1073885184
 121              		.cfi_endproc
 122              	.LFE113:
 123              		.size	CRC_CalcBlockCRC, .-CRC_CalcBlockCRC
 124              		.section	.text.CRC_GetCRC,"ax",%progbits
 125              		.align	1
 126              		.p2align 4,,15
 127              		.global	CRC_GetCRC
 128              		.syntax unified
 129              		.thumb
 130              		.thumb_func
 131              		.fpu fpv4-sp-d16
 132              		.type	CRC_GetCRC, %function
 133              	CRC_GetCRC:
 134              	.LFB114:
 135              		.loc 1 97 0
 136              		.cfi_startproc
 137              		@ args = 0, pretend = 0, frame = 0
 138              		@ frame_needed = 0, uses_anonymous_args = 0
 139              		@ link register save eliminated.
 140              		.loc 1 98 0
 141 0000 014B     		ldr	r3, .L18
 142 0002 1868     		ldr	r0, [r3]
 143              		.loc 1 99 0
 144 0004 7047     		bx	lr
 145              	.L19:
 146 0006 00BF     		.align	2
 147              	.L18:
 148 0008 00300240 		.word	1073885184
 149              		.cfi_endproc
 150              	.LFE114:
 151              		.size	CRC_GetCRC, .-CRC_GetCRC
 152              		.section	.text.CRC_SetIDRegister,"ax",%progbits
 153              		.align	1
 154              		.p2align 4,,15
 155              		.global	CRC_SetIDRegister
 156              		.syntax unified
 157              		.thumb
 158              		.thumb_func
 159              		.fpu fpv4-sp-d16
 160              		.type	CRC_SetIDRegister, %function
 161              	CRC_SetIDRegister:
 162              	.LFB115:
 163              		.loc 1 107 0
 164              		.cfi_startproc
 165              		@ args = 0, pretend = 0, frame = 0
 166              		@ frame_needed = 0, uses_anonymous_args = 0
 167              		@ link register save eliminated.
 168              	.LVL5:
 169              		.loc 1 108 0
 170 0000 014B     		ldr	r3, .L21
 171 0002 1871     		strb	r0, [r3, #4]
ARM GAS  /tmp/ccAz6VKv.s 			page 4


 172              		.loc 1 109 0
 173 0004 7047     		bx	lr
 174              	.L22:
 175 0006 00BF     		.align	2
 176              	.L21:
 177 0008 00300240 		.word	1073885184
 178              		.cfi_endproc
 179              	.LFE115:
 180              		.size	CRC_SetIDRegister, .-CRC_SetIDRegister
 181              		.section	.text.CRC_GetIDRegister,"ax",%progbits
 182              		.align	1
 183              		.p2align 4,,15
 184              		.global	CRC_GetIDRegister
 185              		.syntax unified
 186              		.thumb
 187              		.thumb_func
 188              		.fpu fpv4-sp-d16
 189              		.type	CRC_GetIDRegister, %function
 190              	CRC_GetIDRegister:
 191              	.LFB116:
 192              		.loc 1 117 0
 193              		.cfi_startproc
 194              		@ args = 0, pretend = 0, frame = 0
 195              		@ frame_needed = 0, uses_anonymous_args = 0
 196              		@ link register save eliminated.
 197              		.loc 1 118 0
 198 0000 014B     		ldr	r3, .L24
 199 0002 1879     		ldrb	r0, [r3, #4]	@ zero_extendqisi2
 200              		.loc 1 119 0
 201 0004 7047     		bx	lr
 202              	.L25:
 203 0006 00BF     		.align	2
 204              	.L24:
 205 0008 00300240 		.word	1073885184
 206              		.cfi_endproc
 207              	.LFE116:
 208              		.size	CRC_GetIDRegister, .-CRC_GetIDRegister
 209              		.text
 210              	.Letext0:
 211              		.file 2 "/usr/arm-none-eabi/include/machine/_default_types.h"
 212              		.file 3 "/usr/arm-none-eabi/include/sys/_stdint.h"
 213              		.file 4 "ChibiOS_2.6.6/os/hal/platforms/STM32F4xx/stm32f4xx.h"
 214              		.file 5 "ChibiOS_2.6.6/os/ports/common/ARMCMx/CMSIS/include/core_cm4.h"