ARM GAS  /tmp/ccnwjK7J.s 			page 1


   1              		.cpu cortex-m4
   2              		.eabi_attribute 27, 1
   3              		.eabi_attribute 28, 1
   4              		.eabi_attribute 20, 1
   5              		.eabi_attribute 21, 1
   6              		.eabi_attribute 23, 3
   7              		.eabi_attribute 24, 1
   8              		.eabi_attribute 25, 1
   9              		.eabi_attribute 26, 1
  10              		.eabi_attribute 30, 2
  11              		.eabi_attribute 34, 1
  12              		.eabi_attribute 18, 4
  13              		.file	"stm32f4xx_wwdg.c"
  14              		.text
  15              	.Ltext0:
  16              		.cfi_sections	.debug_frame
  17              		.section	.text.WWDG_DeInit,"ax",%progbits
  18              		.align	1
  19              		.p2align 4,,15
  20              		.global	WWDG_DeInit
  21              		.syntax unified
  22              		.thumb
  23              		.thumb_func
  24              		.fpu fpv4-sp-d16
  25              		.type	WWDG_DeInit, %function
  26              	WWDG_DeInit:
  27              	.LFB111:
  28              		.file 1 "ChibiOS_2.6.6/ext/stdperiph_stm32f4/src/stm32f4xx_wwdg.c"
  29              		.loc 1 141 0
  30              		.cfi_startproc
  31              		@ args = 0, pretend = 0, frame = 0
  32              		@ frame_needed = 0, uses_anonymous_args = 0
  33 0000 08B5     		push	{r3, lr}
  34              		.cfi_def_cfa_offset 8
  35              		.cfi_offset 3, -8
  36              		.cfi_offset 14, -4
  37              		.loc 1 142 0
  38 0002 0121     		movs	r1, #1
  39 0004 4FF40060 		mov	r0, #2048
  40 0008 FFF7FEFF 		bl	RCC_APB1PeriphResetCmd
  41              	.LVL0:
  42              		.loc 1 143 0
  43 000c 0021     		movs	r1, #0
  44 000e 4FF40060 		mov	r0, #2048
  45              		.loc 1 144 0
  46 0012 BDE80840 		pop	{r3, lr}
  47              		.cfi_restore 14
  48              		.cfi_restore 3
  49              		.cfi_def_cfa_offset 0
  50              		.loc 1 143 0
  51 0016 FFF7FEBF 		b	RCC_APB1PeriphResetCmd
  52              	.LVL1:
  53              		.cfi_endproc
  54              	.LFE111:
  55              		.size	WWDG_DeInit, .-WWDG_DeInit
  56 001a 00BF     		.section	.text.WWDG_SetPrescaler,"ax",%progbits
  57              		.align	1
ARM GAS  /tmp/ccnwjK7J.s 			page 2


  58              		.p2align 4,,15
  59              		.global	WWDG_SetPrescaler
  60              		.syntax unified
  61              		.thumb
  62              		.thumb_func
  63              		.fpu fpv4-sp-d16
  64              		.type	WWDG_SetPrescaler, %function
  65              	WWDG_SetPrescaler:
  66              	.LFB112:
  67              		.loc 1 157 0
  68              		.cfi_startproc
  69              		@ args = 0, pretend = 0, frame = 0
  70              		@ frame_needed = 0, uses_anonymous_args = 0
  71              		@ link register save eliminated.
  72              	.LVL2:
  73              		.loc 1 162 0
  74 0000 034A     		ldr	r2, .L5
  75 0002 5368     		ldr	r3, [r2, #4]
  76 0004 23F4C073 		bic	r3, r3, #384
  77              	.LVL3:
  78              		.loc 1 164 0
  79 0008 1843     		orrs	r0, r0, r3
  80              	.LVL4:
  81              		.loc 1 166 0
  82 000a 5060     		str	r0, [r2, #4]
  83              		.loc 1 167 0
  84 000c 7047     		bx	lr
  85              	.L6:
  86 000e 00BF     		.align	2
  87              	.L5:
  88 0010 002C0040 		.word	1073753088
  89              		.cfi_endproc
  90              	.LFE112:
  91              		.size	WWDG_SetPrescaler, .-WWDG_SetPrescaler
  92              		.section	.text.WWDG_SetWindowValue,"ax",%progbits
  93              		.align	1
  94              		.p2align 4,,15
  95              		.global	WWDG_SetWindowValue
  96              		.syntax unified
  97              		.thumb
  98              		.thumb_func
  99              		.fpu fpv4-sp-d16
 100              		.type	WWDG_SetWindowValue, %function
 101              	WWDG_SetWindowValue:
 102              	.LFB113:
 103              		.loc 1 176 0
 104              		.cfi_startproc
 105              		@ args = 0, pretend = 0, frame = 8
 106              		@ frame_needed = 0, uses_anonymous_args = 0
 107              		@ link register save eliminated.
 108              	.LVL5:
 109 0000 82B0     		sub	sp, sp, #8
 110              		.cfi_def_cfa_offset 8
 111              		.loc 1 183 0
 112 0002 084A     		ldr	r2, .L9
 113              		.loc 1 177 0
 114 0004 0023     		movs	r3, #0
ARM GAS  /tmp/ccnwjK7J.s 			page 3


 115 0006 0193     		str	r3, [sp, #4]
 116              		.loc 1 183 0
 117 0008 5368     		ldr	r3, [r2, #4]
 118 000a 23F07F03 		bic	r3, r3, #127
 119 000e 0193     		str	r3, [sp, #4]
 120              		.loc 1 186 0
 121 0010 019B     		ldr	r3, [sp, #4]
 122 0012 00F07F00 		and	r0, r0, #127
 123              	.LVL6:
 124 0016 1843     		orrs	r0, r0, r3
 125 0018 0190     		str	r0, [sp, #4]
 126              		.loc 1 189 0
 127 001a 019B     		ldr	r3, [sp, #4]
 128 001c 5360     		str	r3, [r2, #4]
 129              		.loc 1 190 0
 130 001e 02B0     		add	sp, sp, #8
 131              		.cfi_def_cfa_offset 0
 132              		@ sp needed
 133 0020 7047     		bx	lr
 134              	.L10:
 135 0022 00BF     		.align	2
 136              	.L9:
 137 0024 002C0040 		.word	1073753088
 138              		.cfi_endproc
 139              	.LFE113:
 140              		.size	WWDG_SetWindowValue, .-WWDG_SetWindowValue
 141              		.section	.text.WWDG_EnableIT,"ax",%progbits
 142              		.align	1
 143              		.p2align 4,,15
 144              		.global	WWDG_EnableIT
 145              		.syntax unified
 146              		.thumb
 147              		.thumb_func
 148              		.fpu fpv4-sp-d16
 149              		.type	WWDG_EnableIT, %function
 150              	WWDG_EnableIT:
 151              	.LFB114:
 152              		.loc 1 199 0
 153              		.cfi_startproc
 154              		@ args = 0, pretend = 0, frame = 0
 155              		@ frame_needed = 0, uses_anonymous_args = 0
 156              		@ link register save eliminated.
 157              		.loc 1 200 0
 158 0000 014B     		ldr	r3, .L12
 159 0002 0122     		movs	r2, #1
 160 0004 1A60     		str	r2, [r3]
 161              		.loc 1 201 0
 162 0006 7047     		bx	lr
 163              	.L13:
 164              		.align	2
 165              	.L12:
 166 0008 A4800542 		.word	1107656868
 167              		.cfi_endproc
 168              	.LFE114:
 169              		.size	WWDG_EnableIT, .-WWDG_EnableIT
 170              		.section	.text.WWDG_SetCounter,"ax",%progbits
 171              		.align	1
ARM GAS  /tmp/ccnwjK7J.s 			page 4


 172              		.p2align 4,,15
 173              		.global	WWDG_SetCounter
 174              		.syntax unified
 175              		.thumb
 176              		.thumb_func
 177              		.fpu fpv4-sp-d16
 178              		.type	WWDG_SetCounter, %function
 179              	WWDG_SetCounter:
 180              	.LFB115:
 181              		.loc 1 211 0
 182              		.cfi_startproc
 183              		@ args = 0, pretend = 0, frame = 0
 184              		@ frame_needed = 0, uses_anonymous_args = 0
 185              		@ link register save eliminated.
 186              	.LVL7:
 187              		.loc 1 216 0
 188 0000 024B     		ldr	r3, .L15
 189 0002 00F07F00 		and	r0, r0, #127
 190              	.LVL8:
 191 0006 1860     		str	r0, [r3]
 192              		.loc 1 217 0
 193 0008 7047     		bx	lr
 194              	.L16:
 195 000a 00BF     		.align	2
 196              	.L15:
 197 000c 002C0040 		.word	1073753088
 198              		.cfi_endproc
 199              	.LFE115:
 200              		.size	WWDG_SetCounter, .-WWDG_SetCounter
 201              		.section	.text.WWDG_Enable,"ax",%progbits
 202              		.align	1
 203              		.p2align 4,,15
 204              		.global	WWDG_Enable
 205              		.syntax unified
 206              		.thumb
 207              		.thumb_func
 208              		.fpu fpv4-sp-d16
 209              		.type	WWDG_Enable, %function
 210              	WWDG_Enable:
 211              	.LFB116:
 212              		.loc 1 242 0
 213              		.cfi_startproc
 214              		@ args = 0, pretend = 0, frame = 0
 215              		@ frame_needed = 0, uses_anonymous_args = 0
 216              		@ link register save eliminated.
 217              	.LVL9:
 218              		.loc 1 245 0
 219 0000 024B     		ldr	r3, .L18
 220 0002 40F08000 		orr	r0, r0, #128
 221              	.LVL10:
 222 0006 1860     		str	r0, [r3]
 223              		.loc 1 246 0
 224 0008 7047     		bx	lr
 225              	.L19:
 226 000a 00BF     		.align	2
 227              	.L18:
 228 000c 002C0040 		.word	1073753088
ARM GAS  /tmp/ccnwjK7J.s 			page 5


 229              		.cfi_endproc
 230              	.LFE116:
 231              		.size	WWDG_Enable, .-WWDG_Enable
 232              		.section	.text.WWDG_GetFlagStatus,"ax",%progbits
 233              		.align	1
 234              		.p2align 4,,15
 235              		.global	WWDG_GetFlagStatus
 236              		.syntax unified
 237              		.thumb
 238              		.thumb_func
 239              		.fpu fpv4-sp-d16
 240              		.type	WWDG_GetFlagStatus, %function
 241              	WWDG_GetFlagStatus:
 242              	.LFB117:
 243              		.loc 1 269 0
 244              		.cfi_startproc
 245              		@ args = 0, pretend = 0, frame = 0
 246              		@ frame_needed = 0, uses_anonymous_args = 0
 247              		@ link register save eliminated.
 248              	.LVL11:
 249              		.loc 1 272 0
 250 0000 024B     		ldr	r3, .L21
 251 0002 9868     		ldr	r0, [r3, #8]
 252              	.LVL12:
 253              		.loc 1 281 0
 254 0004 0030     		adds	r0, r0, #0
 255 0006 18BF     		it	ne
 256 0008 0120     		movne	r0, #1
 257              	.LVL13:
 258 000a 7047     		bx	lr
 259              	.L22:
 260              		.align	2
 261              	.L21:
 262 000c 002C0040 		.word	1073753088
 263              		.cfi_endproc
 264              	.LFE117:
 265              		.size	WWDG_GetFlagStatus, .-WWDG_GetFlagStatus
 266              		.section	.text.WWDG_ClearFlag,"ax",%progbits
 267              		.align	1
 268              		.p2align 4,,15
 269              		.global	WWDG_ClearFlag
 270              		.syntax unified
 271              		.thumb
 272              		.thumb_func
 273              		.fpu fpv4-sp-d16
 274              		.type	WWDG_ClearFlag, %function
 275              	WWDG_ClearFlag:
 276              	.LFB118:
 277              		.loc 1 289 0
 278              		.cfi_startproc
 279              		@ args = 0, pretend = 0, frame = 0
 280              		@ frame_needed = 0, uses_anonymous_args = 0
 281              		@ link register save eliminated.
 282              		.loc 1 290 0
 283 0000 014B     		ldr	r3, .L24
 284 0002 0022     		movs	r2, #0
 285 0004 9A60     		str	r2, [r3, #8]
ARM GAS  /tmp/ccnwjK7J.s 			page 6


 286              		.loc 1 291 0
 287 0006 7047     		bx	lr
 288              	.L25:
 289              		.align	2
 290              	.L24:
 291 0008 002C0040 		.word	1073753088
 292              		.cfi_endproc
 293              	.LFE118:
 294              		.size	WWDG_ClearFlag, .-WWDG_ClearFlag
 295              		.text
 296              	.Letext0:
 297              		.file 2 "/usr/arm-none-eabi/include/machine/_default_types.h"
 298              		.file 3 "/usr/arm-none-eabi/include/sys/_stdint.h"
 299              		.file 4 "ChibiOS_2.6.6/os/hal/platforms/STM32F4xx/stm32f4xx.h"
 300              		.file 5 "ChibiOS_2.6.6/os/ports/common/ARMCMx/CMSIS/include/core_cm4.h"
 301              		.file 6 "ChibiOS_2.6.6/ext/stdperiph_stm32f4/inc/stm32f4xx_rcc.h"