ARM GAS  /tmp/ccC5AInR.s 			page 1


   1              		.cpu cortex-m4
   2              		.eabi_attribute 27, 1
   3              		.eabi_attribute 28, 1
   4              		.eabi_attribute 20, 1
   5              		.eabi_attribute 21, 1
   6              		.eabi_attribute 23, 3
   7              		.eabi_attribute 24, 1
   8              		.eabi_attribute 25, 1
   9              		.eabi_attribute 26, 1
  10              		.eabi_attribute 30, 2
  11              		.eabi_attribute 34, 1
  12              		.eabi_attribute 18, 4
  13              		.file	"stm32f4xx_iwdg.c"
  14              		.text
  15              	.Ltext0:
  16              		.cfi_sections	.debug_frame
  17              		.section	.text.IWDG_WriteAccessCmd,"ax",%progbits
  18              		.align	1
  19              		.p2align 4,,15
  20              		.global	IWDG_WriteAccessCmd
  21              		.syntax unified
  22              		.thumb
  23              		.thumb_func
  24              		.fpu fpv4-sp-d16
  25              		.type	IWDG_WriteAccessCmd, %function
  26              	IWDG_WriteAccessCmd:
  27              	.LFB111:
  28              		.file 1 "ChibiOS_2.6.6/ext/stdperiph_stm32f4/src/stm32f4xx_iwdg.c"
  29              		.loc 1 136 0
  30              		.cfi_startproc
  31              		@ args = 0, pretend = 0, frame = 0
  32              		@ frame_needed = 0, uses_anonymous_args = 0
  33              		@ link register save eliminated.
  34              	.LVL0:
  35              		.loc 1 139 0
  36 0000 014B     		ldr	r3, .L3
  37 0002 1860     		str	r0, [r3]
  38              		.loc 1 140 0
  39 0004 7047     		bx	lr
  40              	.L4:
  41 0006 00BF     		.align	2
  42              	.L3:
  43 0008 00300040 		.word	1073754112
  44              		.cfi_endproc
  45              	.LFE111:
  46              		.size	IWDG_WriteAccessCmd, .-IWDG_WriteAccessCmd
  47              		.section	.text.IWDG_SetPrescaler,"ax",%progbits
  48              		.align	1
  49              		.p2align 4,,15
  50              		.global	IWDG_SetPrescaler
  51              		.syntax unified
  52              		.thumb
  53              		.thumb_func
  54              		.fpu fpv4-sp-d16
  55              		.type	IWDG_SetPrescaler, %function
  56              	IWDG_SetPrescaler:
  57              	.LFB112:
ARM GAS  /tmp/ccC5AInR.s 			page 2


  58              		.loc 1 156 0
  59              		.cfi_startproc
  60              		@ args = 0, pretend = 0, frame = 0
  61              		@ frame_needed = 0, uses_anonymous_args = 0
  62              		@ link register save eliminated.
  63              	.LVL1:
  64              		.loc 1 159 0
  65 0000 014B     		ldr	r3, .L6
  66 0002 5860     		str	r0, [r3, #4]
  67              		.loc 1 160 0
  68 0004 7047     		bx	lr
  69              	.L7:
  70 0006 00BF     		.align	2
  71              	.L6:
  72 0008 00300040 		.word	1073754112
  73              		.cfi_endproc
  74              	.LFE112:
  75              		.size	IWDG_SetPrescaler, .-IWDG_SetPrescaler
  76              		.section	.text.IWDG_SetReload,"ax",%progbits
  77              		.align	1
  78              		.p2align 4,,15
  79              		.global	IWDG_SetReload
  80              		.syntax unified
  81              		.thumb
  82              		.thumb_func
  83              		.fpu fpv4-sp-d16
  84              		.type	IWDG_SetReload, %function
  85              	IWDG_SetReload:
  86              	.LFB113:
  87              		.loc 1 169 0
  88              		.cfi_startproc
  89              		@ args = 0, pretend = 0, frame = 0
  90              		@ frame_needed = 0, uses_anonymous_args = 0
  91              		@ link register save eliminated.
  92              	.LVL2:
  93              		.loc 1 172 0
  94 0000 014B     		ldr	r3, .L9
  95 0002 9860     		str	r0, [r3, #8]
  96              		.loc 1 173 0
  97 0004 7047     		bx	lr
  98              	.L10:
  99 0006 00BF     		.align	2
 100              	.L9:
 101 0008 00300040 		.word	1073754112
 102              		.cfi_endproc
 103              	.LFE113:
 104              		.size	IWDG_SetReload, .-IWDG_SetReload
 105              		.section	.text.IWDG_ReloadCounter,"ax",%progbits
 106              		.align	1
 107              		.p2align 4,,15
 108              		.global	IWDG_ReloadCounter
 109              		.syntax unified
 110              		.thumb
 111              		.thumb_func
 112              		.fpu fpv4-sp-d16
 113              		.type	IWDG_ReloadCounter, %function
 114              	IWDG_ReloadCounter:
ARM GAS  /tmp/ccC5AInR.s 			page 3


 115              	.LFB114:
 116              		.loc 1 182 0
 117              		.cfi_startproc
 118              		@ args = 0, pretend = 0, frame = 0
 119              		@ frame_needed = 0, uses_anonymous_args = 0
 120              		@ link register save eliminated.
 121              		.loc 1 183 0
 122 0000 024B     		ldr	r3, .L12
 123 0002 4AF6AA22 		movw	r2, #43690
 124 0006 1A60     		str	r2, [r3]
 125              		.loc 1 184 0
 126 0008 7047     		bx	lr
 127              	.L13:
 128 000a 00BF     		.align	2
 129              	.L12:
 130 000c 00300040 		.word	1073754112
 131              		.cfi_endproc
 132              	.LFE114:
 133              		.size	IWDG_ReloadCounter, .-IWDG_ReloadCounter
 134              		.section	.text.IWDG_Enable,"ax",%progbits
 135              		.align	1
 136              		.p2align 4,,15
 137              		.global	IWDG_Enable
 138              		.syntax unified
 139              		.thumb
 140              		.thumb_func
 141              		.fpu fpv4-sp-d16
 142              		.type	IWDG_Enable, %function
 143              	IWDG_Enable:
 144              	.LFB115:
 145              		.loc 1 208 0
 146              		.cfi_startproc
 147              		@ args = 0, pretend = 0, frame = 0
 148              		@ frame_needed = 0, uses_anonymous_args = 0
 149              		@ link register save eliminated.
 150              		.loc 1 209 0
 151 0000 024B     		ldr	r3, .L15
 152 0002 4CF6CC42 		movw	r2, #52428
 153 0006 1A60     		str	r2, [r3]
 154              		.loc 1 210 0
 155 0008 7047     		bx	lr
 156              	.L16:
 157 000a 00BF     		.align	2
 158              	.L15:
 159 000c 00300040 		.word	1073754112
 160              		.cfi_endproc
 161              	.LFE115:
 162              		.size	IWDG_Enable, .-IWDG_Enable
 163              		.section	.text.IWDG_GetFlagStatus,"ax",%progbits
 164              		.align	1
 165              		.p2align 4,,15
 166              		.global	IWDG_GetFlagStatus
 167              		.syntax unified
 168              		.thumb
 169              		.thumb_func
 170              		.fpu fpv4-sp-d16
 171              		.type	IWDG_GetFlagStatus, %function
ARM GAS  /tmp/ccC5AInR.s 			page 4


 172              	IWDG_GetFlagStatus:
 173              	.LFB116:
 174              		.loc 1 237 0
 175              		.cfi_startproc
 176              		@ args = 0, pretend = 0, frame = 0
 177              		@ frame_needed = 0, uses_anonymous_args = 0
 178              		@ link register save eliminated.
 179              	.LVL3:
 180              		.loc 1 241 0
 181 0000 034B     		ldr	r3, .L18
 182 0002 DB68     		ldr	r3, [r3, #12]
 183              	.LVL4:
 184 0004 1842     		tst	r0, r3
 185              		.loc 1 251 0
 186 0006 14BF     		ite	ne
 187 0008 0120     		movne	r0, #1
 188              	.LVL5:
 189 000a 0020     		moveq	r0, #0
 190 000c 7047     		bx	lr
 191              	.L19:
 192 000e 00BF     		.align	2
 193              	.L18:
 194 0010 00300040 		.word	1073754112
 195              		.cfi_endproc
 196              	.LFE116:
 197              		.size	IWDG_GetFlagStatus, .-IWDG_GetFlagStatus
 198              		.text
 199              	.Letext0:
 200              		.file 2 "/usr/arm-none-eabi/include/machine/_default_types.h"
 201              		.file 3 "/usr/arm-none-eabi/include/sys/_stdint.h"
 202              		.file 4 "ChibiOS_2.6.6/os/hal/platforms/STM32F4xx/stm32f4xx.h"
 203              		.file 5 "ChibiOS_2.6.6/os/ports/common/ARMCMx/CMSIS/include/core_cm4.h"
 204              		.section	.debug_info,"",%progbits
 205              	.Ldebug_info0:
 206 0000 03020000 		.4byte	0x203
 207 0004 0400     		.2byte	0x4
 208 0006 00000000 		.4byte	.Ldebug_abbrev0
 209 000a 04       		.byte	0x4
 210 000b 01       		.uleb128 0x1
 211 000c FF000000 		.4byte	.LASF28
 212 0010 0C       		.byte	0xc
 213 0011 E2020000 		.4byte	.LASF29
 214 0015 83020000 		.4byte	.LASF30
 215 0019 00000000 		.4byte	.Ldebug_ranges0+0
 216 001d 00000000 		.4byte	0
 217 0021 00000000 		.4byte	.Ldebug_line0
 218 0025 02       		.uleb128 0x2
 219 0026 01       		.byte	0x1
 220 0027 06       		.byte	0x6
 221 0028 B6020000 		.4byte	.LASF0
 222 002c 03       		.uleb128 0x3
 223 002d 00000000 		.4byte	.LASF3
 224 0031 02       		.byte	0x2
 225 0032 2B       		.byte	0x2b
 226 0033 37000000 		.4byte	0x37
 227 0037 02       		.uleb128 0x2
 228 0038 01       		.byte	0x1
ARM GAS  /tmp/ccC5AInR.s 			page 5


 229 0039 08       		.byte	0x8
 230 003a 52000000 		.4byte	.LASF1
 231 003e 02       		.uleb128 0x2
 232 003f 02       		.byte	0x2
 233 0040 05       		.byte	0x5
 234 0041 65020000 		.4byte	.LASF2
 235 0045 03       		.uleb128 0x3
 236 0046 6F020000 		.4byte	.LASF4
 237 004a 02       		.byte	0x2
 238 004b 39       		.byte	0x39
 239 004c 50000000 		.4byte	0x50
 240 0050 02       		.uleb128 0x2
 241 0051 02       		.byte	0x2
 242 0052 07       		.byte	0x7
 243 0053 C2020000 		.4byte	.LASF5
 244 0057 03       		.uleb128 0x3
 245 0058 1D000000 		.4byte	.LASF6
 246 005c 02       		.byte	0x2
 247 005d 4D       		.byte	0x4d
 248 005e 62000000 		.4byte	0x62
 249 0062 02       		.uleb128 0x2
 250 0063 04       		.byte	0x4
 251 0064 05       		.byte	0x5
 252 0065 AD020000 		.4byte	.LASF7
 253 0069 03       		.uleb128 0x3
 254 006a E1000000 		.4byte	.LASF8
 255 006e 02       		.byte	0x2
 256 006f 4F       		.byte	0x4f
 257 0070 74000000 		.4byte	0x74
 258 0074 02       		.uleb128 0x2
 259 0075 04       		.byte	0x4
 260 0076 07       		.byte	0x7
 261 0077 8D000000 		.4byte	.LASF9
 262 007b 02       		.uleb128 0x2
 263 007c 08       		.byte	0x8
 264 007d 05       		.byte	0x5
 265 007e 57020000 		.4byte	.LASF10
 266 0082 02       		.uleb128 0x2
 267 0083 08       		.byte	0x8
 268 0084 07       		.byte	0x7
 269 0085 30020000 		.4byte	.LASF11
 270 0089 04       		.uleb128 0x4
 271 008a 04       		.byte	0x4
 272 008b 05       		.byte	0x5
 273 008c 696E7400 		.ascii	"int\000"
 274 0090 02       		.uleb128 0x2
 275 0091 04       		.byte	0x4
 276 0092 07       		.byte	0x7
 277 0093 23020000 		.4byte	.LASF12
 278 0097 03       		.uleb128 0x3
 279 0098 47020000 		.4byte	.LASF13
 280 009c 03       		.byte	0x3
 281 009d 18       		.byte	0x18
 282 009e 2C000000 		.4byte	0x2c
 283 00a2 03       		.uleb128 0x3
 284 00a3 7A020000 		.4byte	.LASF14
 285 00a7 03       		.byte	0x3
ARM GAS  /tmp/ccC5AInR.s 			page 6


 286 00a8 24       		.byte	0x24
 287 00a9 45000000 		.4byte	0x45
 288 00ad 03       		.uleb128 0x3
 289 00ae 4F020000 		.4byte	.LASF15
 290 00b2 03       		.byte	0x3
 291 00b3 2C       		.byte	0x2c
 292 00b4 57000000 		.4byte	0x57
 293 00b8 05       		.uleb128 0x5
 294 00b9 AD000000 		.4byte	0xad
 295 00bd 03       		.uleb128 0x3
 296 00be A4020000 		.4byte	.LASF16
 297 00c2 03       		.byte	0x3
 298 00c3 30       		.byte	0x30
 299 00c4 69000000 		.4byte	0x69
 300 00c8 05       		.uleb128 0x5
 301 00c9 BD000000 		.4byte	0xbd
 302 00cd 06       		.uleb128 0x6
 303 00ce B9000000 		.4byte	.LASF31
 304 00d2 05       		.byte	0x5
 305 00d3 9806     		.2byte	0x698
 306 00d5 B8000000 		.4byte	0xb8
 307 00d9 07       		.uleb128 0x7
 308 00da 07       		.byte	0x7
 309 00db 01       		.byte	0x1
 310 00dc 37000000 		.4byte	0x37
 311 00e0 04       		.byte	0x4
 312 00e1 F701     		.2byte	0x1f7
 313 00e3 F4000000 		.4byte	0xf4
 314 00e7 08       		.uleb128 0x8
 315 00e8 B3000000 		.4byte	.LASF17
 316 00ec 00       		.byte	0
 317 00ed 09       		.uleb128 0x9
 318 00ee 53455400 		.ascii	"SET\000"
 319 00f2 01       		.byte	0x1
 320 00f3 00       		.byte	0
 321 00f4 0A       		.uleb128 0xa
 322 00f5 82000000 		.4byte	.LASF18
 323 00f9 04       		.byte	0x4
 324 00fa F701     		.2byte	0x1f7
 325 00fc D9000000 		.4byte	0xd9
 326 0100 0B       		.uleb128 0xb
 327 0101 10       		.byte	0x10
 328 0102 04       		.byte	0x4
 329 0103 1204     		.2byte	0x412
 330 0105 3B010000 		.4byte	0x13b
 331 0109 0C       		.uleb128 0xc
 332 010a 4B5200   		.ascii	"KR\000"
 333 010d 04       		.byte	0x4
 334 010e 1404     		.2byte	0x414
 335 0110 C8000000 		.4byte	0xc8
 336 0114 00       		.byte	0
 337 0115 0C       		.uleb128 0xc
 338 0116 505200   		.ascii	"PR\000"
 339 0119 04       		.byte	0x4
 340 011a 1504     		.2byte	0x415
 341 011c C8000000 		.4byte	0xc8
 342 0120 04       		.byte	0x4
ARM GAS  /tmp/ccC5AInR.s 			page 7


 343 0121 0C       		.uleb128 0xc
 344 0122 524C5200 		.ascii	"RLR\000"
 345 0126 04       		.byte	0x4
 346 0127 1604     		.2byte	0x416
 347 0129 C8000000 		.4byte	0xc8
 348 012d 08       		.byte	0x8
 349 012e 0C       		.uleb128 0xc
 350 012f 535200   		.ascii	"SR\000"
 351 0132 04       		.byte	0x4
 352 0133 1704     		.2byte	0x417
 353 0135 C8000000 		.4byte	0xc8
 354 0139 0C       		.byte	0xc
 355 013a 00       		.byte	0
 356 013b 0A       		.uleb128 0xa
 357 013c D5020000 		.4byte	.LASF19
 358 0140 04       		.byte	0x4
 359 0141 1804     		.2byte	0x418
 360 0143 00010000 		.4byte	0x100
 361 0147 0D       		.uleb128 0xd
 362 0148 EC000000 		.4byte	.LASF32
 363 014c 01       		.byte	0x1
 364 014d EC       		.byte	0xec
 365 014e F4000000 		.4byte	0xf4
 366 0152 00000000 		.4byte	.LFB116
 367 0156 14000000 		.4byte	.LFE116-.LFB116
 368 015a 01       		.uleb128 0x1
 369 015b 9C       		.byte	0x9c
 370 015c 7F010000 		.4byte	0x17f
 371 0160 0E       		.uleb128 0xe
 372 0161 C6000000 		.4byte	.LASF22
 373 0165 01       		.byte	0x1
 374 0166 EC       		.byte	0xec
 375 0167 A2000000 		.4byte	0xa2
 376 016b 00000000 		.4byte	.LLST0
 377 016f 0F       		.uleb128 0xf
 378 0170 36000000 		.4byte	.LASF33
 379 0174 01       		.byte	0x1
 380 0175 EE       		.byte	0xee
 381 0176 F4000000 		.4byte	0xf4
 382 017a 21000000 		.4byte	.LLST1
 383 017e 00       		.byte	0
 384 017f 10       		.uleb128 0x10
 385 0180 11000000 		.4byte	.LASF20
 386 0184 01       		.byte	0x1
 387 0185 CF       		.byte	0xcf
 388 0186 00000000 		.4byte	.LFB115
 389 018a 10000000 		.4byte	.LFE115-.LFB115
 390 018e 01       		.uleb128 0x1
 391 018f 9C       		.byte	0x9c
 392 0190 10       		.uleb128 0x10
 393 0191 6F000000 		.4byte	.LASF21
 394 0195 01       		.byte	0x1
 395 0196 B5       		.byte	0xb5
 396 0197 00000000 		.4byte	.LFB114
 397 019b 10000000 		.4byte	.LFE114-.LFB114
 398 019f 01       		.uleb128 0x1
 399 01a0 9C       		.byte	0x9c
ARM GAS  /tmp/ccC5AInR.s 			page 8


 400 01a1 11       		.uleb128 0x11
 401 01a2 60000000 		.4byte	.LASF24
 402 01a6 01       		.byte	0x1
 403 01a7 A8       		.byte	0xa8
 404 01a8 00000000 		.4byte	.LFB113
 405 01ac 0C000000 		.4byte	.LFE113-.LFB113
 406 01b0 01       		.uleb128 0x1
 407 01b1 9C       		.byte	0x9c
 408 01b2 C4010000 		.4byte	0x1c4
 409 01b6 12       		.uleb128 0x12
 410 01b7 0A000000 		.4byte	.LASF23
 411 01bb 01       		.byte	0x1
 412 01bc A8       		.byte	0xa8
 413 01bd A2000000 		.4byte	0xa2
 414 01c1 01       		.uleb128 0x1
 415 01c2 50       		.byte	0x50
 416 01c3 00       		.byte	0
 417 01c4 11       		.uleb128 0x11
 418 01c5 40000000 		.4byte	.LASF25
 419 01c9 01       		.byte	0x1
 420 01ca 9B       		.byte	0x9b
 421 01cb 00000000 		.4byte	.LFB112
 422 01cf 0C000000 		.4byte	.LFE112-.LFB112
 423 01d3 01       		.uleb128 0x1
 424 01d4 9C       		.byte	0x9c
 425 01d5 E7010000 		.4byte	0x1e7
 426 01d9 12       		.uleb128 0x12
 427 01da 27000000 		.4byte	.LASF26
 428 01de 01       		.byte	0x1
 429 01df 9B       		.byte	0x9b
 430 01e0 97000000 		.4byte	0x97
 431 01e4 01       		.uleb128 0x1
 432 01e5 50       		.byte	0x50
 433 01e6 00       		.byte	0
 434 01e7 13       		.uleb128 0x13
 435 01e8 9F000000 		.4byte	.LASF34
 436 01ec 01       		.byte	0x1
 437 01ed 87       		.byte	0x87
 438 01ee 00000000 		.4byte	.LFB111
 439 01f2 0C000000 		.4byte	.LFE111-.LFB111
 440 01f6 01       		.uleb128 0x1
 441 01f7 9C       		.byte	0x9c
 442 01f8 12       		.uleb128 0x12
 443 01f9 D0000000 		.4byte	.LASF27
 444 01fd 01       		.byte	0x1
 445 01fe 87       		.byte	0x87
 446 01ff A2000000 		.4byte	0xa2
 447 0203 01       		.uleb128 0x1
 448 0204 50       		.byte	0x50
 449 0205 00       		.byte	0
 450 0206 00       		.byte	0
 451              		.section	.debug_abbrev,"",%progbits
 452              	.Ldebug_abbrev0:
 453 0000 01       		.uleb128 0x1
 454 0001 11       		.uleb128 0x11
 455 0002 01       		.byte	0x1
 456 0003 25       		.uleb128 0x25
ARM GAS  /tmp/ccC5AInR.s 			page 9


 457 0004 0E       		.uleb128 0xe
 458 0005 13       		.uleb128 0x13
 459 0006 0B       		.uleb128 0xb
 460 0007 03       		.uleb128 0x3
 461 0008 0E       		.uleb128 0xe
 462 0009 1B       		.uleb128 0x1b
 463 000a 0E       		.uleb128 0xe
 464 000b 55       		.uleb128 0x55
 465 000c 17       		.uleb128 0x17
 466 000d 11       		.uleb128 0x11
 467 000e 01       		.uleb128 0x1
 468 000f 10       		.uleb128 0x10
 469 0010 17       		.uleb128 0x17
 470 0011 00       		.byte	0
 471 0012 00       		.byte	0
 472 0013 02       		.uleb128 0x2
 473 0014 24       		.uleb128 0x24
 474 0015 00       		.byte	0
 475 0016 0B       		.uleb128 0xb
 476 0017 0B       		.uleb128 0xb
 477 0018 3E       		.uleb128 0x3e
 478 0019 0B       		.uleb128 0xb
 479 001a 03       		.uleb128 0x3
 480 001b 0E       		.uleb128 0xe
 481 001c 00       		.byte	0
 482 001d 00       		.byte	0
 483 001e 03       		.uleb128 0x3
 484 001f 16       		.uleb128 0x16
 485 0020 00       		.byte	0
 486 0021 03       		.uleb128 0x3
 487 0022 0E       		.uleb128 0xe
 488 0023 3A       		.uleb128 0x3a
 489 0024 0B       		.uleb128 0xb
 490 0025 3B       		.uleb128 0x3b
 491 0026 0B       		.uleb128 0xb
 492 0027 49       		.uleb128 0x49
 493 0028 13       		.uleb128 0x13
 494 0029 00       		.byte	0
 495 002a 00       		.byte	0
 496 002b 04       		.uleb128 0x4
 497 002c 24       		.uleb128 0x24
 498 002d 00       		.byte	0
 499 002e 0B       		.uleb128 0xb
 500 002f 0B       		.uleb128 0xb
 501 0030 3E       		.uleb128 0x3e
 502 0031 0B       		.uleb128 0xb
 503 0032 03       		.uleb128 0x3
 504 0033 08       		.uleb128 0x8
 505 0034 00       		.byte	0
 506 0035 00       		.byte	0
 507 0036 05       		.uleb128 0x5
 508 0037 35       		.uleb128 0x35
 509 0038 00       		.byte	0
 510 0039 49       		.uleb128 0x49
 511 003a 13       		.uleb128 0x13
 512 003b 00       		.byte	0
 513 003c 00       		.byte	0
ARM GAS  /tmp/ccC5AInR.s 			page 10


 514 003d 06       		.uleb128 0x6
 515 003e 34       		.uleb128 0x34
 516 003f 00       		.byte	0
 517 0040 03       		.uleb128 0x3
 518 0041 0E       		.uleb128 0xe
 519 0042 3A       		.uleb128 0x3a
 520 0043 0B       		.uleb128 0xb
 521 0044 3B       		.uleb128 0x3b
 522 0045 05       		.uleb128 0x5
 523 0046 49       		.uleb128 0x49
 524 0047 13       		.uleb128 0x13
 525 0048 3F       		.uleb128 0x3f
 526 0049 19       		.uleb128 0x19
 527 004a 3C       		.uleb128 0x3c
 528 004b 19       		.uleb128 0x19
 529 004c 00       		.byte	0
 530 004d 00       		.byte	0
 531 004e 07       		.uleb128 0x7
 532 004f 04       		.uleb128 0x4
 533 0050 01       		.byte	0x1
 534 0051 3E       		.uleb128 0x3e
 535 0052 0B       		.uleb128 0xb
 536 0053 0B       		.uleb128 0xb
 537 0054 0B       		.uleb128 0xb
 538 0055 49       		.uleb128 0x49
 539 0056 13       		.uleb128 0x13
 540 0057 3A       		.uleb128 0x3a
 541 0058 0B       		.uleb128 0xb
 542 0059 3B       		.uleb128 0x3b
 543 005a 05       		.uleb128 0x5
 544 005b 01       		.uleb128 0x1
 545 005c 13       		.uleb128 0x13
 546 005d 00       		.byte	0
 547 005e 00       		.byte	0
 548 005f 08       		.uleb128 0x8
 549 0060 28       		.uleb128 0x28
 550 0061 00       		.byte	0
 551 0062 03       		.uleb128 0x3
 552 0063 0E       		.uleb128 0xe
 553 0064 1C       		.uleb128 0x1c
 554 0065 0B       		.uleb128 0xb
 555 0066 00       		.byte	0
 556 0067 00       		.byte	0
 557 0068 09       		.uleb128 0x9
 558 0069 28       		.uleb128 0x28
 559 006a 00       		.byte	0
 560 006b 03       		.uleb128 0x3
 561 006c 08       		.uleb128 0x8
 562 006d 1C       		.uleb128 0x1c
 563 006e 0B       		.uleb128 0xb
 564 006f 00       		.byte	0
 565 0070 00       		.byte	0
 566 0071 0A       		.uleb128 0xa
 567 0072 16       		.uleb128 0x16
 568 0073 00       		.byte	0
 569 0074 03       		.uleb128 0x3
 570 0075 0E       		.uleb128 0xe
ARM GAS  /tmp/ccC5AInR.s 			page 11


 571 0076 3A       		.uleb128 0x3a
 572 0077 0B       		.uleb128 0xb
 573 0078 3B       		.uleb128 0x3b
 574 0079 05       		.uleb128 0x5
 575 007a 49       		.uleb128 0x49
 576 007b 13       		.uleb128 0x13
 577 007c 00       		.byte	0
 578 007d 00       		.byte	0
 579 007e 0B       		.uleb128 0xb
 580 007f 13       		.uleb128 0x13
 581 0080 01       		.byte	0x1
 582 0081 0B       		.uleb128 0xb
 583 0082 0B       		.uleb128 0xb
 584 0083 3A       		.uleb128 0x3a
 585 0084 0B       		.uleb128 0xb
 586 0085 3B       		.uleb128 0x3b
 587 0086 05       		.uleb128 0x5
 588 0087 01       		.uleb128 0x1
 589 0088 13       		.uleb128 0x13
 590 0089 00       		.byte	0
 591 008a 00       		.byte	0
 592 008b 0C       		.uleb128 0xc
 593 008c 0D       		.uleb128 0xd
 594 008d 00       		.byte	0
 595 008e 03       		.uleb128 0x3
 596 008f 08       		.uleb128 0x8
 597 0090 3A       		.uleb128 0x3a
 598 0091 0B       		.uleb128 0xb
 599 0092 3B       		.uleb128 0x3b
 600 0093 05       		.uleb128 0x5
 601 0094 49       		.uleb128 0x49
 602 0095 13       		.uleb128 0x13
 603 0096 38       		.uleb128 0x38
 604 0097 0B       		.uleb128 0xb
 605 0098 00       		.byte	0
 606 0099 00       		.byte	0
 607 009a 0D       		.uleb128 0xd
 608 009b 2E       		.uleb128 0x2e
 609 009c 01       		.byte	0x1
 610 009d 3F       		.uleb128 0x3f
 611 009e 19       		.uleb128 0x19
 612 009f 03       		.uleb128 0x3
 613 00a0 0E       		.uleb128 0xe
 614 00a1 3A       		.uleb128 0x3a
 615 00a2 0B       		.uleb128 0xb
 616 00a3 3B       		.uleb128 0x3b
 617 00a4 0B       		.uleb128 0xb
 618 00a5 27       		.uleb128 0x27
 619 00a6 19       		.uleb128 0x19
 620 00a7 49       		.uleb128 0x49
 621 00a8 13       		.uleb128 0x13
 622 00a9 11       		.uleb128 0x11
 623 00aa 01       		.uleb128 0x1
 624 00ab 12       		.uleb128 0x12
 625 00ac 06       		.uleb128 0x6
 626 00ad 40       		.uleb128 0x40
 627 00ae 18       		.uleb128 0x18
ARM GAS  /tmp/ccC5AInR.s 			page 12


 628 00af 9742     		.uleb128 0x2117
 629 00b1 19       		.uleb128 0x19
 630 00b2 01       		.uleb128 0x1
 631 00b3 13       		.uleb128 0x13
 632 00b4 00       		.byte	0
 633 00b5 00       		.byte	0
 634 00b6 0E       		.uleb128 0xe
 635 00b7 05       		.uleb128 0x5
 636 00b8 00       		.byte	0
 637 00b9 03       		.uleb128 0x3
 638 00ba 0E       		.uleb128 0xe
 639 00bb 3A       		.uleb128 0x3a
 640 00bc 0B       		.uleb128 0xb
 641 00bd 3B       		.uleb128 0x3b
 642 00be 0B       		.uleb128 0xb
 643 00bf 49       		.uleb128 0x49
 644 00c0 13       		.uleb128 0x13
 645 00c1 02       		.uleb128 0x2
 646 00c2 17       		.uleb128 0x17
 647 00c3 00       		.byte	0
 648 00c4 00       		.byte	0
 649 00c5 0F       		.uleb128 0xf
 650 00c6 34       		.uleb128 0x34
 651 00c7 00       		.byte	0
 652 00c8 03       		.uleb128 0x3
 653 00c9 0E       		.uleb128 0xe
 654 00ca 3A       		.uleb128 0x3a
 655 00cb 0B       		.uleb128 0xb
 656 00cc 3B       		.uleb128 0x3b
 657 00cd 0B       		.uleb128 0xb
 658 00ce 49       		.uleb128 0x49
 659 00cf 13       		.uleb128 0x13
 660 00d0 02       		.uleb128 0x2
 661 00d1 17       		.uleb128 0x17
 662 00d2 00       		.byte	0
 663 00d3 00       		.byte	0
 664 00d4 10       		.uleb128 0x10
 665 00d5 2E       		.uleb128 0x2e
 666 00d6 00       		.byte	0
 667 00d7 3F       		.uleb128 0x3f
 668 00d8 19       		.uleb128 0x19
 669 00d9 03       		.uleb128 0x3
 670 00da 0E       		.uleb128 0xe
 671 00db 3A       		.uleb128 0x3a
 672 00dc 0B       		.uleb128 0xb
 673 00dd 3B       		.uleb128 0x3b
 674 00de 0B       		.uleb128 0xb
 675 00df 27       		.uleb128 0x27
 676 00e0 19       		.uleb128 0x19
 677 00e1 11       		.uleb128 0x11
 678 00e2 01       		.uleb128 0x1
 679 00e3 12       		.uleb128 0x12
 680 00e4 06       		.uleb128 0x6
 681 00e5 40       		.uleb128 0x40
 682 00e6 18       		.uleb128 0x18
 683 00e7 9742     		.uleb128 0x2117
 684 00e9 19       		.uleb128 0x19
ARM GAS  /tmp/ccC5AInR.s 			page 13


 685 00ea 00       		.byte	0
 686 00eb 00       		.byte	0
 687 00ec 11       		.uleb128 0x11
 688 00ed 2E       		.uleb128 0x2e
 689 00ee 01       		.byte	0x1
 690 00ef 3F       		.uleb128 0x3f
 691 00f0 19       		.uleb128 0x19
 692 00f1 03       		.uleb128 0x3
 693 00f2 0E       		.uleb128 0xe
 694 00f3 3A       		.uleb128 0x3a
 695 00f4 0B       		.uleb128 0xb
 696 00f5 3B       		.uleb128 0x3b
 697 00f6 0B       		.uleb128 0xb
 698 00f7 27       		.uleb128 0x27
 699 00f8 19       		.uleb128 0x19
 700 00f9 11       		.uleb128 0x11
 701 00fa 01       		.uleb128 0x1
 702 00fb 12       		.uleb128 0x12
 703 00fc 06       		.uleb128 0x6
 704 00fd 40       		.uleb128 0x40
 705 00fe 18       		.uleb128 0x18
 706 00ff 9742     		.uleb128 0x2117
 707 0101 19       		.uleb128 0x19
 708 0102 01       		.uleb128 0x1
 709 0103 13       		.uleb128 0x13
 710 0104 00       		.byte	0
 711 0105 00       		.byte	0
 712 0106 12       		.uleb128 0x12
 713 0107 05       		.uleb128 0x5
 714 0108 00       		.byte	0
 715 0109 03       		.uleb128 0x3
 716 010a 0E       		.uleb128 0xe
 717 010b 3A       		.uleb128 0x3a
 718 010c 0B       		.uleb128 0xb
 719 010d 3B       		.uleb128 0x3b
 720 010e 0B       		.uleb128 0xb
 721 010f 49       		.uleb128 0x49
 722 0110 13       		.uleb128 0x13
 723 0111 02       		.uleb128 0x2
 724 0112 18       		.uleb128 0x18
 725 0113 00       		.byte	0
 726 0114 00       		.byte	0
 727 0115 13       		.uleb128 0x13
 728 0116 2E       		.uleb128 0x2e
 729 0117 01       		.byte	0x1
 730 0118 3F       		.uleb128 0x3f
 731 0119 19       		.uleb128 0x19
 732 011a 03       		.uleb128 0x3
 733 011b 0E       		.uleb128 0xe
 734 011c 3A       		.uleb128 0x3a
 735 011d 0B       		.uleb128 0xb
 736 011e 3B       		.uleb128 0x3b
 737 011f 0B       		.uleb128 0xb
 738 0120 27       		.uleb128 0x27
 739 0121 19       		.uleb128 0x19
 740 0122 11       		.uleb128 0x11
 741 0123 01       		.uleb128 0x1
ARM GAS  /tmp/ccC5AInR.s 			page 14


 742 0124 12       		.uleb128 0x12
 743 0125 06       		.uleb128 0x6
 744 0126 40       		.uleb128 0x40
 745 0127 18       		.uleb128 0x18
 746 0128 9742     		.uleb128 0x2117
 747 012a 19       		.uleb128 0x19
 748 012b 00       		.byte	0
 749 012c 00       		.byte	0
 750 012d 00       		.byte	0
 751              		.section	.debug_loc,"",%progbits
 752              	.Ldebug_loc0:
 753              	.LLST0:
 754 0000 00000000 		.4byte	.LVL3
 755 0004 0A000000 		.4byte	.LVL5
 756 0008 0100     		.2byte	0x1
 757 000a 50       		.byte	0x50
 758 000b 0A000000 		.4byte	.LVL5
 759 000f 14000000 		.4byte	.LFE116
 760 0013 0400     		.2byte	0x4
 761 0015 F3       		.byte	0xf3
 762 0016 01       		.uleb128 0x1
 763 0017 50       		.byte	0x50
 764 0018 9F       		.byte	0x9f
 765 0019 00000000 		.4byte	0
 766 001d 00000000 		.4byte	0
 767              	.LLST1:
 768 0021 00000000 		.4byte	.LVL3
 769 0025 04000000 		.4byte	.LVL4
 770 0029 0200     		.2byte	0x2
 771 002b 30       		.byte	0x30
 772 002c 9F       		.byte	0x9f
 773 002d 04000000 		.4byte	.LVL4
 774 0031 0A000000 		.4byte	.LVL5
 775 0035 0C00     		.2byte	0xc
 776 0037 70       		.byte	0x70
 777 0038 00       		.sleb128 0
 778 0039 0A       		.byte	0xa
 779 003a FFFF     		.2byte	0xffff
 780 003c 1A       		.byte	0x1a
 781 003d 73       		.byte	0x73
 782 003e 00       		.sleb128 0
 783 003f 1A       		.byte	0x1a
 784 0040 30       		.byte	0x30
 785 0041 2E       		.byte	0x2e
 786 0042 9F       		.byte	0x9f
 787 0043 0A000000 		.4byte	.LVL5
 788 0047 14000000 		.4byte	.LFE116
 789 004b 0D00     		.2byte	0xd
 790 004d F3       		.byte	0xf3
 791 004e 01       		.uleb128 0x1
 792 004f 50       		.byte	0x50
 793 0050 0A       		.byte	0xa
 794 0051 FFFF     		.2byte	0xffff
 795 0053 1A       		.byte	0x1a
 796 0054 73       		.byte	0x73
 797 0055 00       		.sleb128 0
 798 0056 1A       		.byte	0x1a
ARM GAS  /tmp/ccC5AInR.s 			page 15


 799 0057 30       		.byte	0x30
 800 0058 2E       		.byte	0x2e
 801 0059 9F       		.byte	0x9f
 802 005a 00000000 		.4byte	0
 803 005e 00000000 		.4byte	0
 804              		.section	.debug_aranges,"",%progbits
 805 0000 44000000 		.4byte	0x44
 806 0004 0200     		.2byte	0x2
 807 0006 00000000 		.4byte	.Ldebug_info0
 808 000a 04       		.byte	0x4
 809 000b 00       		.byte	0
 810 000c 0000     		.2byte	0
 811 000e 0000     		.2byte	0
 812 0010 00000000 		.4byte	.LFB111
 813 0014 0C000000 		.4byte	.LFE111-.LFB111
 814 0018 00000000 		.4byte	.LFB112
 815 001c 0C000000 		.4byte	.LFE112-.LFB112
 816 0020 00000000 		.4byte	.LFB113
 817 0024 0C000000 		.4byte	.LFE113-.LFB113
 818 0028 00000000 		.4byte	.LFB114
 819 002c 10000000 		.4byte	.LFE114-.LFB114
 820 0030 00000000 		.4byte	.LFB115
 821 0034 10000000 		.4byte	.LFE115-.LFB115
 822 0038 00000000 		.4byte	.LFB116
 823 003c 14000000 		.4byte	.LFE116-.LFB116
 824 0040 00000000 		.4byte	0
 825 0044 00000000 		.4byte	0
 826              		.section	.debug_ranges,"",%progbits
 827              	.Ldebug_ranges0:
 828 0000 00000000 		.4byte	.LFB111
 829 0004 0C000000 		.4byte	.LFE111
 830 0008 00000000 		.4byte	.LFB112
 831 000c 0C000000 		.4byte	.LFE112
 832 0010 00000000 		.4byte	.LFB113
 833 0014 0C000000 		.4byte	.LFE113
 834 0018 00000000 		.4byte	.LFB114
 835 001c 10000000 		.4byte	.LFE114
 836 0020 00000000 		.4byte	.LFB115
 837 0024 10000000 		.4byte	.LFE115
 838 0028 00000000 		.4byte	.LFB116
 839 002c 14000000 		.4byte	.LFE116
 840 0030 00000000 		.4byte	0
 841 0034 00000000 		.4byte	0
 842              		.section	.debug_line,"",%progbits
 843              	.Ldebug_line0:
 844 0000 9F010000 		.section	.debug_str,"MS",%progbits,1
 844      02002B01 
 844      00000201 
 844      FB0E0D00 
 844      01010101 
 845              	.LASF3:
 846 0000 5F5F7569 		.ascii	"__uint8_t\000"
 846      6E74385F 
 846      7400
 847              	.LASF23:
 848 000a 52656C6F 		.ascii	"Reload\000"
 848      616400
ARM GAS  /tmp/ccC5AInR.s 			page 16


 849              	.LASF20:
 850 0011 49574447 		.ascii	"IWDG_Enable\000"
 850      5F456E61 
 850      626C6500 
 851              	.LASF6:
 852 001d 5F5F696E 		.ascii	"__int32_t\000"
 852      7433325F 
 852      7400
 853              	.LASF26:
 854 0027 49574447 		.ascii	"IWDG_Prescaler\000"
 854      5F507265 
 854      7363616C 
 854      657200
 855              	.LASF33:
 856 0036 62697473 		.ascii	"bitstatus\000"
 856      74617475 
 856      7300
 857              	.LASF25:
 858 0040 49574447 		.ascii	"IWDG_SetPrescaler\000"
 858      5F536574 
 858      50726573 
 858      63616C65 
 858      7200
 859              	.LASF1:
 860 0052 756E7369 		.ascii	"unsigned char\000"
 860      676E6564 
 860      20636861 
 860      7200
 861              	.LASF24:
 862 0060 49574447 		.ascii	"IWDG_SetReload\000"
 862      5F536574 
 862      52656C6F 
 862      616400
 863              	.LASF21:
 864 006f 49574447 		.ascii	"IWDG_ReloadCounter\000"
 864      5F52656C 
 864      6F616443 
 864      6F756E74 
 864      657200
 865              	.LASF18:
 866 0082 466C6167 		.ascii	"FlagStatus\000"
 866      53746174 
 866      757300
 867              	.LASF9:
 868 008d 6C6F6E67 		.ascii	"long unsigned int\000"
 868      20756E73 
 868      69676E65 
 868      6420696E 
 868      7400
 869              	.LASF34:
 870 009f 49574447 		.ascii	"IWDG_WriteAccessCmd\000"
 870      5F577269 
 870      74654163 
 870      63657373 
 870      436D6400 
 871              	.LASF17:
 872 00b3 52455345 		.ascii	"RESET\000"
ARM GAS  /tmp/ccC5AInR.s 			page 17


 872      5400
 873              	.LASF31:
 874 00b9 49544D5F 		.ascii	"ITM_RxBuffer\000"
 874      52784275 
 874      66666572 
 874      00
 875              	.LASF22:
 876 00c6 49574447 		.ascii	"IWDG_FLAG\000"
 876      5F464C41 
 876      4700
 877              	.LASF27:
 878 00d0 49574447 		.ascii	"IWDG_WriteAccess\000"
 878      5F577269 
 878      74654163 
 878      63657373 
 878      00
 879              	.LASF8:
 880 00e1 5F5F7569 		.ascii	"__uint32_t\000"
 880      6E743332 
 880      5F7400
 881              	.LASF32:
 882 00ec 49574447 		.ascii	"IWDG_GetFlagStatus\000"
 882      5F476574 
 882      466C6167 
 882      53746174 
 882      757300
 883              	.LASF28:
 884 00ff 474E5520 		.ascii	"GNU C99 7.3.1 20180622 (release) [ARM/embedded-7-br"
 884      43393920 
 884      372E332E 
 884      31203230 
 884      31383036 
 885 0132 616E6368 		.ascii	"anch revision 261907] -mcpu=cortex-m4 -mfloat-abi=h"
 885      20726576 
 885      6973696F 
 885      6E203236 
 885      31393037 
 886 0165 61726420 		.ascii	"ard -mfpu=fpv4-sp-d16 -mno-thumb-interwork -mthumb "
 886      2D6D6670 
 886      753D6670 
 886      76342D73 
 886      702D6431 
 887 0198 2D676764 		.ascii	"-ggdb -O2 -std=gnu99 -fomit-frame-pointer -falign-f"
 887      62202D4F 
 887      32202D73 
 887      74643D67 
 887      6E753939 
 888 01cb 756E6374 		.ascii	"unctions=16 -ffunction-sections -fdata-sections -fn"
 888      696F6E73 
 888      3D313620 
 888      2D666675 
 888      6E637469 
 889 01fe 6F2D636F 		.ascii	"o-common -fsingle-precision-constant\000"
 889      6D6D6F6E 
 889      202D6673 
 889      696E676C 
 889      652D7072 
ARM GAS  /tmp/ccC5AInR.s 			page 18


 890              	.LASF12:
 891 0223 756E7369 		.ascii	"unsigned int\000"
 891      676E6564 
 891      20696E74 
 891      00
 892              	.LASF11:
 893 0230 6C6F6E67 		.ascii	"long long unsigned int\000"
 893      206C6F6E 
 893      6720756E 
 893      7369676E 
 893      65642069 
 894              	.LASF13:
 895 0247 75696E74 		.ascii	"uint8_t\000"
 895      385F7400 
 896              	.LASF15:
 897 024f 696E7433 		.ascii	"int32_t\000"
 897      325F7400 
 898              	.LASF10:
 899 0257 6C6F6E67 		.ascii	"long long int\000"
 899      206C6F6E 
 899      6720696E 
 899      7400
 900              	.LASF2:
 901 0265 73686F72 		.ascii	"short int\000"
 901      7420696E 
 901      7400
 902              	.LASF4:
 903 026f 5F5F7569 		.ascii	"__uint16_t\000"
 903      6E743136 
 903      5F7400
 904              	.LASF14:
 905 027a 75696E74 		.ascii	"uint16_t\000"
 905      31365F74 
 905      00
 906              	.LASF30:
 907 0283 2F686F6D 		.ascii	"/home/renan/BLDC/bldc-bootloader\000"
 907      652F7265 
 907      6E616E2F 
 907      424C4443 
 907      2F626C64 
 908              	.LASF16:
 909 02a4 75696E74 		.ascii	"uint32_t\000"
 909      33325F74 
 909      00
 910              	.LASF7:
 911 02ad 6C6F6E67 		.ascii	"long int\000"
 911      20696E74 
 911      00
 912              	.LASF0:
 913 02b6 7369676E 		.ascii	"signed char\000"
 913      65642063 
 913      68617200 
 914              	.LASF5:
 915 02c2 73686F72 		.ascii	"short unsigned int\000"
 915      7420756E 
 915      7369676E 
 915      65642069 
ARM GAS  /tmp/ccC5AInR.s 			page 19


 915      6E7400
 916              	.LASF19:
 917 02d5 49574447 		.ascii	"IWDG_TypeDef\000"
 917      5F547970 
 917      65446566 
 917      00
 918              	.LASF29:
 919 02e2 43686962 		.ascii	"ChibiOS_2.6.6/ext/stdperiph_stm32f4/src/stm32f4xx_i"
 919      694F535F 
 919      322E362E 
 919      362F6578 
 919      742F7374 
 920 0315 7764672E 		.ascii	"wdg.c\000"
 920      6300
 921              		.ident	"GCC: (GNU Tools for Arm Embedded Processors 7-2018-q3-update) 7.3.1 20180622 (release) [AR
ARM GAS  /tmp/ccC5AInR.s 			page 20


DEFINED SYMBOLS
                            *ABS*:0000000000000000 stm32f4xx_iwdg.c
     /tmp/ccC5AInR.s:18     .text.IWDG_WriteAccessCmd:0000000000000000 $t
     /tmp/ccC5AInR.s:26     .text.IWDG_WriteAccessCmd:0000000000000000 IWDG_WriteAccessCmd
     /tmp/ccC5AInR.s:43     .text.IWDG_WriteAccessCmd:0000000000000008 $d
     /tmp/ccC5AInR.s:48     .text.IWDG_SetPrescaler:0000000000000000 $t
     /tmp/ccC5AInR.s:56     .text.IWDG_SetPrescaler:0000000000000000 IWDG_SetPrescaler
     /tmp/ccC5AInR.s:72     .text.IWDG_SetPrescaler:0000000000000008 $d
     /tmp/ccC5AInR.s:77     .text.IWDG_SetReload:0000000000000000 $t
     /tmp/ccC5AInR.s:85     .text.IWDG_SetReload:0000000000000000 IWDG_SetReload
     /tmp/ccC5AInR.s:101    .text.IWDG_SetReload:0000000000000008 $d
     /tmp/ccC5AInR.s:106    .text.IWDG_ReloadCounter:0000000000000000 $t
     /tmp/ccC5AInR.s:114    .text.IWDG_ReloadCounter:0000000000000000 IWDG_ReloadCounter
     /tmp/ccC5AInR.s:130    .text.IWDG_ReloadCounter:000000000000000c $d
     /tmp/ccC5AInR.s:135    .text.IWDG_Enable:0000000000000000 $t
     /tmp/ccC5AInR.s:143    .text.IWDG_Enable:0000000000000000 IWDG_Enable
     /tmp/ccC5AInR.s:159    .text.IWDG_Enable:000000000000000c $d
     /tmp/ccC5AInR.s:164    .text.IWDG_GetFlagStatus:0000000000000000 $t
     /tmp/ccC5AInR.s:172    .text.IWDG_GetFlagStatus:0000000000000000 IWDG_GetFlagStatus
     /tmp/ccC5AInR.s:194    .text.IWDG_GetFlagStatus:0000000000000010 $d

NO UNDEFINED SYMBOLS
