ARM GAS  /tmp/cc65ENol.s 			page 1


   1              		.cpu cortex-m4
   2              		.eabi_attribute 27, 1
   3              		.eabi_attribute 28, 1
   4              		.eabi_attribute 20, 1
   5              		.eabi_attribute 21, 1
   6              		.eabi_attribute 23, 3
   7              		.eabi_attribute 24, 1
   8              		.eabi_attribute 25, 1
   9              		.eabi_attribute 26, 1
  10              		.eabi_attribute 30, 2
  11              		.eabi_attribute 34, 1
  12              		.eabi_attribute 18, 4
  13              		.file	"stm32f4xx_rtc.c"
  14              		.text
  15              	.Ltext0:
  16              		.cfi_sections	.debug_frame
  17              		.section	.text.RTC_StructInit,"ax",%progbits
  18              		.align	1
  19              		.p2align 4,,15
  20              		.global	RTC_StructInit
  21              		.syntax unified
  22              		.thumb
  23              		.thumb_func
  24              		.fpu fpv4-sp-d16
  25              		.type	RTC_StructInit, %function
  26              	RTC_StructInit:
  27              	.LFB113:
  28              		.file 1 "ChibiOS_2.6.6/ext/stdperiph_stm32f4/src/stm32f4xx_rtc.c"
  29              		.loc 1 502 0
  30              		.cfi_startproc
  31              		@ args = 0, pretend = 0, frame = 0
  32              		@ frame_needed = 0, uses_anonymous_args = 0
  33              		@ link register save eliminated.
  34              	.LVL0:
  35              		.loc 1 510 0
  36 0000 0021     		movs	r1, #0
  37 0002 7F22     		movs	r2, #127
  38 0004 FF23     		movs	r3, #255
  39 0006 80E80E00 		stm	r0, {r1, r2, r3}
  40              		.loc 1 511 0
  41 000a 7047     		bx	lr
  42              		.cfi_endproc
  43              	.LFE113:
  44              		.size	RTC_StructInit, .-RTC_StructInit
  45              		.section	.text.RTC_WriteProtectionCmd,"ax",%progbits
  46              		.align	1
  47              		.p2align 4,,15
  48              		.global	RTC_WriteProtectionCmd
  49              		.syntax unified
  50              		.thumb
  51              		.thumb_func
  52              		.fpu fpv4-sp-d16
  53              		.type	RTC_WriteProtectionCmd, %function
  54              	RTC_WriteProtectionCmd:
  55              	.LFB114:
  56              		.loc 1 524 0
  57              		.cfi_startproc
ARM GAS  /tmp/cc65ENol.s 			page 2


  58              		@ args = 0, pretend = 0, frame = 0
  59              		@ frame_needed = 0, uses_anonymous_args = 0
  60              		@ link register save eliminated.
  61              	.LVL1:
  62              		.loc 1 531 0
  63 0000 044B     		ldr	r3, .L7
  64              		.loc 1 528 0
  65 0002 20B9     		cbnz	r0, .L6
  66              		.loc 1 536 0
  67 0004 CA21     		movs	r1, #202
  68              		.loc 1 537 0
  69 0006 5322     		movs	r2, #83
  70              		.loc 1 536 0
  71 0008 5962     		str	r1, [r3, #36]
  72              		.loc 1 537 0
  73 000a 5A62     		str	r2, [r3, #36]
  74              		.loc 1 539 0
  75 000c 7047     		bx	lr
  76              	.L6:
  77              		.loc 1 531 0
  78 000e FF22     		movs	r2, #255
  79 0010 5A62     		str	r2, [r3, #36]
  80 0012 7047     		bx	lr
  81              	.L8:
  82              		.align	2
  83              	.L7:
  84 0014 00280040 		.word	1073752064
  85              		.cfi_endproc
  86              	.LFE114:
  87              		.size	RTC_WriteProtectionCmd, .-RTC_WriteProtectionCmd
  88              		.section	.text.RTC_EnterInitMode,"ax",%progbits
  89              		.align	1
  90              		.p2align 4,,15
  91              		.global	RTC_EnterInitMode
  92              		.syntax unified
  93              		.thumb
  94              		.thumb_func
  95              		.fpu fpv4-sp-d16
  96              		.type	RTC_EnterInitMode, %function
  97              	RTC_EnterInitMode:
  98              	.LFB115:
  99              		.loc 1 551 0
 100              		.cfi_startproc
 101              		@ args = 0, pretend = 0, frame = 8
 102              		@ frame_needed = 0, uses_anonymous_args = 0
 103              		@ link register save eliminated.
 104 0000 82B0     		sub	sp, sp, #8
 105              		.cfi_def_cfa_offset 8
 106              		.loc 1 552 0
 107 0002 0023     		movs	r3, #0
 108              		.loc 1 557 0
 109 0004 0E49     		ldr	r1, .L21
 110              		.loc 1 552 0
 111 0006 0193     		str	r3, [sp, #4]
 112              	.LVL2:
 113              		.loc 1 557 0
 114 0008 CB68     		ldr	r3, [r1, #12]
ARM GAS  /tmp/cc65ENol.s 			page 3


 115 000a 5B06     		lsls	r3, r3, #25
 116 000c 14D4     		bmi	.L13
 117              		.loc 1 560 0
 118 000e 4FF0FF33 		mov	r3, #-1
 119 0012 CB60     		str	r3, [r1, #12]
 120 0014 00E0     		b	.L12
 121              	.LVL3:
 122              	.L20:
 123              		.loc 1 567 0 discriminator 1
 124 0016 4AB9     		cbnz	r2, .L11
 125              	.LVL4:
 126              	.L12:
 127              		.loc 1 565 0 discriminator 2
 128 0018 CA68     		ldr	r2, [r1, #12]
 129              		.loc 1 566 0 discriminator 2
 130 001a 019B     		ldr	r3, [sp, #4]
 131 001c 0133     		adds	r3, r3, #1
 132 001e 0193     		str	r3, [sp, #4]
 133              		.loc 1 567 0 discriminator 2
 134 0020 019B     		ldr	r3, [sp, #4]
 135 0022 B3F5803F 		cmp	r3, #65536
 136              		.loc 1 565 0 discriminator 2
 137 0026 02F04002 		and	r2, r2, #64
 138              	.LVL5:
 139              		.loc 1 567 0 discriminator 2
 140 002a F4D1     		bne	.L20
 141              	.L11:
 142              	.LBB80:
 143              	.LBB81:
 144              		.loc 1 569 0
 145 002c 044B     		ldr	r3, .L21
 146 002e D868     		ldr	r0, [r3, #12]
 147              		.loc 1 575 0
 148 0030 C0F38010 		ubfx	r0, r0, #6, #1
 149              	.LVL6:
 150              	.LBE81:
 151              	.LBE80:
 152              		.loc 1 584 0
 153 0034 02B0     		add	sp, sp, #8
 154              		.cfi_remember_state
 155              		.cfi_def_cfa_offset 0
 156              		@ sp needed
 157 0036 7047     		bx	lr
 158              	.LVL7:
 159              	.L13:
 160              		.cfi_restore_state
 161              		.loc 1 580 0
 162 0038 0120     		movs	r0, #1
 163              	.LVL8:
 164              		.loc 1 584 0
 165 003a 02B0     		add	sp, sp, #8
 166              		.cfi_def_cfa_offset 0
 167              		@ sp needed
 168 003c 7047     		bx	lr
 169              	.L22:
 170 003e 00BF     		.align	2
 171              	.L21:
ARM GAS  /tmp/cc65ENol.s 			page 4


 172 0040 00280040 		.word	1073752064
 173              		.cfi_endproc
 174              	.LFE115:
 175              		.size	RTC_EnterInitMode, .-RTC_EnterInitMode
 176              		.section	.text.RTC_Init,"ax",%progbits
 177              		.align	1
 178              		.p2align 4,,15
 179              		.global	RTC_Init
 180              		.syntax unified
 181              		.thumb
 182              		.thumb_func
 183              		.fpu fpv4-sp-d16
 184              		.type	RTC_Init, %function
 185              	RTC_Init:
 186              	.LFB112:
 187              		.loc 1 456 0
 188              		.cfi_startproc
 189              		@ args = 0, pretend = 0, frame = 0
 190              		@ frame_needed = 0, uses_anonymous_args = 0
 191              	.LVL9:
 192 0000 38B5     		push	{r3, r4, r5, lr}
 193              		.cfi_def_cfa_offset 16
 194              		.cfi_offset 3, -16
 195              		.cfi_offset 4, -12
 196              		.cfi_offset 5, -8
 197              		.cfi_offset 14, -4
 198              		.loc 1 465 0
 199 0002 104C     		ldr	r4, .L29
 200 0004 CA22     		movs	r2, #202
 201              		.loc 1 466 0
 202 0006 5323     		movs	r3, #83
 203              		.loc 1 465 0
 204 0008 6262     		str	r2, [r4, #36]
 205              		.loc 1 466 0
 206 000a 6362     		str	r3, [r4, #36]
 207              		.loc 1 456 0
 208 000c 0546     		mov	r5, r0
 209              		.loc 1 469 0
 210 000e FFF7FEFF 		bl	RTC_EnterInitMode
 211              	.LVL10:
 212 0012 98B1     		cbz	r0, .L24
 213              		.loc 1 476 0
 214 0014 A368     		ldr	r3, [r4, #8]
 215 0016 23F04003 		bic	r3, r3, #64
 216 001a A360     		str	r3, [r4, #8]
 217              		.loc 1 478 0
 218 001c A368     		ldr	r3, [r4, #8]
 219 001e 2A68     		ldr	r2, [r5]
 220 0020 1343     		orrs	r3, r3, r2
 221 0022 A360     		str	r3, [r4, #8]
 222              		.loc 1 481 0
 223 0024 AB68     		ldr	r3, [r5, #8]
 224 0026 2361     		str	r3, [r4, #16]
 225              		.loc 1 482 0
 226 0028 2369     		ldr	r3, [r4, #16]
 227 002a 6A68     		ldr	r2, [r5, #4]
 228 002c 43EA0243 		orr	r3, r3, r2, lsl #16
ARM GAS  /tmp/cc65ENol.s 			page 5


 229 0030 2361     		str	r3, [r4, #16]
 230              	.LBB82:
 231              	.LBB83:
 232              		.loc 1 598 0
 233 0032 E368     		ldr	r3, [r4, #12]
 234 0034 23F08003 		bic	r3, r3, #128
 235 0038 E360     		str	r3, [r4, #12]
 236              	.LVL11:
 237              	.LBE83:
 238              	.LBE82:
 239              		.loc 1 487 0
 240 003a 0120     		movs	r0, #1
 241              	.LVL12:
 242              	.L24:
 243              		.loc 1 490 0
 244 003c 014B     		ldr	r3, .L29
 245 003e FF22     		movs	r2, #255
 246 0040 5A62     		str	r2, [r3, #36]
 247              		.loc 1 493 0
 248 0042 38BD     		pop	{r3, r4, r5, pc}
 249              	.LVL13:
 250              	.L30:
 251              		.align	2
 252              	.L29:
 253 0044 00280040 		.word	1073752064
 254              		.cfi_endproc
 255              	.LFE112:
 256              		.size	RTC_Init, .-RTC_Init
 257              		.section	.text.RTC_ExitInitMode,"ax",%progbits
 258              		.align	1
 259              		.p2align 4,,15
 260              		.global	RTC_ExitInitMode
 261              		.syntax unified
 262              		.thumb
 263              		.thumb_func
 264              		.fpu fpv4-sp-d16
 265              		.type	RTC_ExitInitMode, %function
 266              	RTC_ExitInitMode:
 267              	.LFB116:
 268              		.loc 1 596 0
 269              		.cfi_startproc
 270              		@ args = 0, pretend = 0, frame = 0
 271              		@ frame_needed = 0, uses_anonymous_args = 0
 272              		@ link register save eliminated.
 273              		.loc 1 598 0
 274 0000 024A     		ldr	r2, .L32
 275 0002 D368     		ldr	r3, [r2, #12]
 276 0004 23F08003 		bic	r3, r3, #128
 277 0008 D360     		str	r3, [r2, #12]
 278              		.loc 1 599 0
 279 000a 7047     		bx	lr
 280              	.L33:
 281              		.align	2
 282              	.L32:
 283 000c 00280040 		.word	1073752064
 284              		.cfi_endproc
 285              	.LFE116:
ARM GAS  /tmp/cc65ENol.s 			page 6


 286              		.size	RTC_ExitInitMode, .-RTC_ExitInitMode
 287              		.section	.text.RTC_WaitForSynchro,"ax",%progbits
 288              		.align	1
 289              		.p2align 4,,15
 290              		.global	RTC_WaitForSynchro
 291              		.syntax unified
 292              		.thumb
 293              		.thumb_func
 294              		.fpu fpv4-sp-d16
 295              		.type	RTC_WaitForSynchro, %function
 296              	RTC_WaitForSynchro:
 297              	.LFB117:
 298              		.loc 1 618 0
 299              		.cfi_startproc
 300              		@ args = 0, pretend = 0, frame = 8
 301              		@ frame_needed = 0, uses_anonymous_args = 0
 302              		@ link register save eliminated.
 303              		.loc 1 624 0
 304 0000 0F49     		ldr	r1, .L44
 305              		.loc 1 618 0
 306 0002 82B0     		sub	sp, sp, #8
 307              		.cfi_def_cfa_offset 8
 308              		.loc 1 625 0
 309 0004 5323     		movs	r3, #83
 310              		.loc 1 619 0
 311 0006 0020     		movs	r0, #0
 312              		.loc 1 624 0
 313 0008 CA22     		movs	r2, #202
 314              		.loc 1 619 0
 315 000a 0190     		str	r0, [sp, #4]
 316              	.LVL14:
 317              		.loc 1 624 0
 318 000c 4A62     		str	r2, [r1, #36]
 319              		.loc 1 625 0
 320 000e 4B62     		str	r3, [r1, #36]
 321              		.loc 1 628 0
 322 0010 CB68     		ldr	r3, [r1, #12]
 323 0012 23F0A003 		bic	r3, r3, #160
 324 0016 CB60     		str	r3, [r1, #12]
 325 0018 00E0     		b	.L36
 326              	.LVL15:
 327              	.L43:
 328              		.loc 1 635 0 discriminator 1
 329 001a 4AB9     		cbnz	r2, .L35
 330              	.LVL16:
 331              	.L36:
 332              		.loc 1 633 0 discriminator 2
 333 001c CA68     		ldr	r2, [r1, #12]
 334              		.loc 1 634 0 discriminator 2
 335 001e 019B     		ldr	r3, [sp, #4]
 336 0020 0133     		adds	r3, r3, #1
 337 0022 0193     		str	r3, [sp, #4]
 338              		.loc 1 635 0 discriminator 2
 339 0024 019B     		ldr	r3, [sp, #4]
 340 0026 B3F5003F 		cmp	r3, #131072
 341              		.loc 1 633 0 discriminator 2
 342 002a 02F02002 		and	r2, r2, #32
ARM GAS  /tmp/cc65ENol.s 			page 7


 343              	.LVL17:
 344              		.loc 1 635 0 discriminator 2
 345 002e F4D1     		bne	.L43
 346              	.L35:
 347              		.loc 1 637 0
 348 0030 034B     		ldr	r3, .L44
 349 0032 D868     		ldr	r0, [r3, #12]
 350              	.LVL18:
 351              		.loc 1 647 0
 352 0034 FF22     		movs	r2, #255
 353              	.LVL19:
 354              		.loc 1 650 0
 355 0036 C0F34010 		ubfx	r0, r0, #5, #1
 356              	.LVL20:
 357              		.loc 1 647 0
 358 003a 5A62     		str	r2, [r3, #36]
 359              		.loc 1 650 0
 360 003c 02B0     		add	sp, sp, #8
 361              		.cfi_def_cfa_offset 0
 362              		@ sp needed
 363 003e 7047     		bx	lr
 364              	.L45:
 365              		.align	2
 366              	.L44:
 367 0040 00280040 		.word	1073752064
 368              		.cfi_endproc
 369              	.LFE117:
 370              		.size	RTC_WaitForSynchro, .-RTC_WaitForSynchro
 371              		.section	.text.RTC_DeInit,"ax",%progbits
 372              		.align	1
 373              		.p2align 4,,15
 374              		.global	RTC_DeInit
 375              		.syntax unified
 376              		.thumb
 377              		.thumb_func
 378              		.fpu fpv4-sp-d16
 379              		.type	RTC_DeInit, %function
 380              	RTC_DeInit:
 381              	.LFB111:
 382              		.loc 1 374 0
 383              		.cfi_startproc
 384              		@ args = 0, pretend = 0, frame = 8
 385              		@ frame_needed = 0, uses_anonymous_args = 0
 386 0000 30B5     		push	{r4, r5, lr}
 387              		.cfi_def_cfa_offset 12
 388              		.cfi_offset 4, -12
 389              		.cfi_offset 5, -8
 390              		.cfi_offset 14, -4
 391              		.loc 1 380 0
 392 0002 204C     		ldr	r4, .L63
 393              		.loc 1 374 0
 394 0004 83B0     		sub	sp, sp, #12
 395              		.cfi_def_cfa_offset 24
 396              		.loc 1 375 0
 397 0006 0025     		movs	r5, #0
 398              		.loc 1 380 0
 399 0008 CA22     		movs	r2, #202
ARM GAS  /tmp/cc65ENol.s 			page 8


 400              		.loc 1 381 0
 401 000a 5323     		movs	r3, #83
 402              		.loc 1 375 0
 403 000c 0195     		str	r5, [sp, #4]
 404              	.LVL21:
 405              		.loc 1 380 0
 406 000e 6262     		str	r2, [r4, #36]
 407              		.loc 1 381 0
 408 0010 6362     		str	r3, [r4, #36]
 409              		.loc 1 384 0
 410 0012 FFF7FEFF 		bl	RTC_EnterInitMode
 411              	.LVL22:
 412 0016 B8B1     		cbz	r0, .L51
 413              		.loc 1 392 0
 414 0018 42F20113 		movw	r3, #8449
 415              		.loc 1 391 0
 416 001c 2560     		str	r5, [r4]
 417              		.loc 1 392 0
 418 001e 6360     		str	r3, [r4, #4]
 419              		.loc 1 394 0
 420 0020 A368     		ldr	r3, [r4, #8]
 421 0022 03F00703 		and	r3, r3, #7
 422 0026 A360     		str	r3, [r4, #8]
 423 0028 00E0     		b	.L50
 424              	.LVL23:
 425              	.L61:
 426              		.loc 1 401 0 discriminator 1
 427 002a 4AB9     		cbnz	r2, .L49
 428              	.LVL24:
 429              	.L50:
 430              		.loc 1 399 0 discriminator 2
 431 002c E268     		ldr	r2, [r4, #12]
 432              		.loc 1 400 0 discriminator 2
 433 002e 019B     		ldr	r3, [sp, #4]
 434 0030 0133     		adds	r3, r3, #1
 435 0032 0193     		str	r3, [sp, #4]
 436              		.loc 1 401 0 discriminator 2
 437 0034 019B     		ldr	r3, [sp, #4]
 438 0036 B3F5803F 		cmp	r3, #65536
 439              		.loc 1 399 0 discriminator 2
 440 003a 02F00402 		and	r2, r2, #4
 441              	.LVL25:
 442              		.loc 1 401 0 discriminator 2
 443 003e F4D1     		bne	.L61
 444              	.L49:
 445              		.loc 1 403 0
 446 0040 104B     		ldr	r3, .L63
 447 0042 DA68     		ldr	r2, [r3, #12]
 448              	.LVL26:
 449 0044 5207     		lsls	r2, r2, #29
 450 0046 05D4     		bmi	.L62
 451              	.L51:
 452              		.loc 1 386 0
 453 0048 0020     		movs	r0, #0
 454              	.L48:
 455              	.LVL27:
 456              		.loc 1 439 0
ARM GAS  /tmp/cc65ENol.s 			page 9


 457 004a 0E4B     		ldr	r3, .L63
 458 004c FF22     		movs	r2, #255
 459 004e 5A62     		str	r2, [r3, #36]
 460              		.loc 1 442 0
 461 0050 03B0     		add	sp, sp, #12
 462              		.cfi_remember_state
 463              		.cfi_def_cfa_offset 12
 464              		@ sp needed
 465 0052 30BD     		pop	{r4, r5, pc}
 466              	.LVL28:
 467              	.L62:
 468              		.cfi_restore_state
 469              		.loc 1 410 0
 470 0054 0022     		movs	r2, #0
 471              		.loc 1 411 0
 472 0056 4FF6FF70 		movw	r0, #65535
 473              		.loc 1 412 0
 474 005a 0B49     		ldr	r1, .L63+4
 475              		.loc 1 410 0
 476 005c 9C68     		ldr	r4, [r3, #8]
 477 005e 9A60     		str	r2, [r3, #8]
 478              		.loc 1 411 0
 479 0060 5861     		str	r0, [r3, #20]
 480              		.loc 1 412 0
 481 0062 1961     		str	r1, [r3, #16]
 482              		.loc 1 413 0
 483 0064 9A61     		str	r2, [r3, #24]
 484              		.loc 1 414 0
 485 0066 DA61     		str	r2, [r3, #28]
 486              		.loc 1 415 0
 487 0068 1A62     		str	r2, [r3, #32]
 488              		.loc 1 416 0
 489 006a DA62     		str	r2, [r3, #44]
 490              		.loc 1 417 0
 491 006c DA63     		str	r2, [r3, #60]
 492              		.loc 1 418 0
 493 006e 5A64     		str	r2, [r3, #68]
 494              		.loc 1 419 0
 495 0070 9A64     		str	r2, [r3, #72]
 496              		.loc 1 422 0
 497 0072 DA60     		str	r2, [r3, #12]
 498              		.loc 1 425 0
 499 0074 1A64     		str	r2, [r3, #64]
 500              		.loc 1 427 0
 501 0076 FFF7FEFF 		bl	RTC_WaitForSynchro
 502              	.LVL29:
 503              		.loc 1 386 0
 504 007a 0030     		adds	r0, r0, #0
 505 007c 18BF     		it	ne
 506 007e 0120     		movne	r0, #1
 507 0080 E3E7     		b	.L48
 508              	.L64:
 509 0082 00BF     		.align	2
 510              	.L63:
 511 0084 00280040 		.word	1073752064
 512 0088 FF007F00 		.word	8323327
 513              		.cfi_endproc
ARM GAS  /tmp/cc65ENol.s 			page 10


 514              	.LFE111:
 515              		.size	RTC_DeInit, .-RTC_DeInit
 516              		.section	.text.RTC_RefClockCmd,"ax",%progbits
 517              		.align	1
 518              		.p2align 4,,15
 519              		.global	RTC_RefClockCmd
 520              		.syntax unified
 521              		.thumb
 522              		.thumb_func
 523              		.fpu fpv4-sp-d16
 524              		.type	RTC_RefClockCmd, %function
 525              	RTC_RefClockCmd:
 526              	.LFB118:
 527              		.loc 1 661 0
 528              		.cfi_startproc
 529              		@ args = 0, pretend = 0, frame = 0
 530              		@ frame_needed = 0, uses_anonymous_args = 0
 531              	.LVL30:
 532 0000 38B5     		push	{r3, r4, r5, lr}
 533              		.cfi_def_cfa_offset 16
 534              		.cfi_offset 3, -16
 535              		.cfi_offset 4, -12
 536              		.cfi_offset 5, -8
 537              		.cfi_offset 14, -4
 538              		.loc 1 668 0
 539 0002 0E4C     		ldr	r4, .L74
 540 0004 CA22     		movs	r2, #202
 541              		.loc 1 669 0
 542 0006 5323     		movs	r3, #83
 543              		.loc 1 668 0
 544 0008 6262     		str	r2, [r4, #36]
 545              		.loc 1 669 0
 546 000a 6362     		str	r3, [r4, #36]
 547              		.loc 1 661 0
 548 000c 0546     		mov	r5, r0
 549              		.loc 1 672 0
 550 000e FFF7FEFF 		bl	RTC_EnterInitMode
 551              	.LVL31:
 552 0012 50B1     		cbz	r0, .L66
 553              		.loc 1 681 0
 554 0014 A368     		ldr	r3, [r4, #8]
 555              		.loc 1 678 0
 556 0016 65B9     		cbnz	r5, .L73
 557              		.loc 1 686 0
 558 0018 23F01003 		bic	r3, r3, #16
 559 001c A360     		str	r3, [r4, #8]
 560              	.L68:
 561              	.LBB84:
 562              	.LBB85:
 563              		.loc 1 598 0
 564 001e 074A     		ldr	r2, .L74
 565 0020 D368     		ldr	r3, [r2, #12]
 566 0022 23F08003 		bic	r3, r3, #128
 567 0026 D360     		str	r3, [r2, #12]
 568              	.LVL32:
 569              	.LBE85:
 570              	.LBE84:
ARM GAS  /tmp/cc65ENol.s 			page 11


 571              		.loc 1 691 0
 572 0028 0120     		movs	r0, #1
 573              	.LVL33:
 574              	.L66:
 575              		.loc 1 695 0
 576 002a 044B     		ldr	r3, .L74
 577 002c FF22     		movs	r2, #255
 578 002e 5A62     		str	r2, [r3, #36]
 579              		.loc 1 698 0
 580 0030 38BD     		pop	{r3, r4, r5, pc}
 581              	.LVL34:
 582              	.L73:
 583              		.loc 1 681 0
 584 0032 43F01003 		orr	r3, r3, #16
 585 0036 A360     		str	r3, [r4, #8]
 586 0038 F1E7     		b	.L68
 587              	.L75:
 588 003a 00BF     		.align	2
 589              	.L74:
 590 003c 00280040 		.word	1073752064
 591              		.cfi_endproc
 592              	.LFE118:
 593              		.size	RTC_RefClockCmd, .-RTC_RefClockCmd
 594              		.section	.text.RTC_BypassShadowCmd,"ax",%progbits
 595              		.align	1
 596              		.p2align 4,,15
 597              		.global	RTC_BypassShadowCmd
 598              		.syntax unified
 599              		.thumb
 600              		.thumb_func
 601              		.fpu fpv4-sp-d16
 602              		.type	RTC_BypassShadowCmd, %function
 603              	RTC_BypassShadowCmd:
 604              	.LFB119:
 605              		.loc 1 709 0
 606              		.cfi_startproc
 607              		@ args = 0, pretend = 0, frame = 0
 608              		@ frame_needed = 0, uses_anonymous_args = 0
 609              		@ link register save eliminated.
 610              	.LVL35:
 611              		.loc 1 714 0
 612 0000 0A4B     		ldr	r3, .L80
 613              		.loc 1 715 0
 614 0002 5322     		movs	r2, #83
 615              		.loc 1 714 0
 616 0004 CA21     		movs	r1, #202
 617 0006 5962     		str	r1, [r3, #36]
 618              		.loc 1 715 0
 619 0008 5A62     		str	r2, [r3, #36]
 620              		.loc 1 720 0
 621 000a 9A68     		ldr	r2, [r3, #8]
 622              		.loc 1 717 0
 623 000c 30B9     		cbnz	r0, .L79
 624              		.loc 1 725 0
 625 000e 02F0DF02 		and	r2, r2, #223
 626 0012 9A60     		str	r2, [r3, #8]
 627              		.loc 1 729 0
ARM GAS  /tmp/cc65ENol.s 			page 12


 628 0014 054B     		ldr	r3, .L80
 629 0016 FF22     		movs	r2, #255
 630 0018 5A62     		str	r2, [r3, #36]
 631              		.loc 1 730 0
 632 001a 7047     		bx	lr
 633              	.L79:
 634              		.loc 1 720 0
 635 001c 42F02002 		orr	r2, r2, #32
 636 0020 9A60     		str	r2, [r3, #8]
 637              		.loc 1 729 0
 638 0022 024B     		ldr	r3, .L80
 639 0024 FF22     		movs	r2, #255
 640 0026 5A62     		str	r2, [r3, #36]
 641              		.loc 1 730 0
 642 0028 7047     		bx	lr
 643              	.L81:
 644 002a 00BF     		.align	2
 645              	.L80:
 646 002c 00280040 		.word	1073752064
 647              		.cfi_endproc
 648              	.LFE119:
 649              		.size	RTC_BypassShadowCmd, .-RTC_BypassShadowCmd
 650              		.section	.text.RTC_SetTime,"ax",%progbits
 651              		.align	1
 652              		.p2align 4,,15
 653              		.global	RTC_SetTime
 654              		.syntax unified
 655              		.thumb
 656              		.thumb_func
 657              		.fpu fpv4-sp-d16
 658              		.type	RTC_SetTime, %function
 659              	RTC_SetTime:
 660              	.LFB120:
 661              		.loc 1 764 0
 662              		.cfi_startproc
 663              		@ args = 0, pretend = 0, frame = 0
 664              		@ frame_needed = 0, uses_anonymous_args = 0
 665              	.LVL36:
 666 0000 38B5     		push	{r3, r4, r5, lr}
 667              		.cfi_def_cfa_offset 16
 668              		.cfi_offset 3, -16
 669              		.cfi_offset 4, -12
 670              		.cfi_offset 5, -8
 671              		.cfi_offset 14, -4
 672              		.loc 1 773 0
 673 0002 384B     		ldr	r3, .L110
 674 0004 9C68     		ldr	r4, [r3, #8]
 675              		.loc 1 771 0
 676 0006 0028     		cmp	r0, #0
 677 0008 35D1     		bne	.L83
 678              		.loc 1 773 0
 679 000a 14F04004 		ands	r4, r4, #64
 680 000e 5AD1     		bne	.L84
 681              		.loc 1 780 0
 682 0010 CC70     		strb	r4, [r1, #3]
 683              	.L85:
 684              		.loc 1 813 0
ARM GAS  /tmp/cc65ENol.s 			page 13


 685 0012 0A78     		ldrb	r2, [r1]	@ zero_extendqisi2
 686              	.LVL37:
 687              	.LBB86:
 688              	.LBB87:
 689              		.loc 1 2726 0
 690 0014 092A     		cmp	r2, #9
 691 0016 63D9     		bls	.L108
 692              		.loc 1 2724 0
 693 0018 0023     		movs	r3, #0
 694              	.LVL38:
 695              	.L88:
 696              		.loc 1 2729 0
 697 001a 0A3A     		subs	r2, r2, #10
 698              	.LVL39:
 699 001c D2B2     		uxtb	r2, r2
 700              		.loc 1 2728 0
 701 001e 0133     		adds	r3, r3, #1
 702              	.LVL40:
 703              		.loc 1 2726 0
 704 0020 092A     		cmp	r2, #9
 705              		.loc 1 2728 0
 706 0022 DBB2     		uxtb	r3, r3
 707              	.LVL41:
 708              		.loc 1 2726 0
 709 0024 F9D8     		bhi	.L88
 710 0026 1B01     		lsls	r3, r3, #4
 711              	.LVL42:
 712 0028 D8B2     		uxtb	r0, r3
 713              	.LVL43:
 714              	.L95:
 715              	.LBE87:
 716              	.LBE86:
 717              		.loc 1 814 0
 718 002a 4B78     		ldrb	r3, [r1, #1]	@ zero_extendqisi2
 719              	.LVL44:
 720              		.loc 1 813 0
 721 002c 0243     		orrs	r2, r2, r0
 722              	.LBB89:
 723              	.LBB90:
 724              		.loc 1 2726 0
 725 002e 092B     		cmp	r3, #9
 726              	.LBE90:
 727              	.LBE89:
 728              		.loc 1 813 0
 729 0030 4FEA0242 		lsl	r2, r2, #16
 730              	.LBB92:
 731              	.LBB91:
 732              		.loc 1 2724 0
 733 0034 4FF00000 		mov	r0, #0
 734              		.loc 1 2726 0
 735 0038 07D9     		bls	.L89
 736              	.LVL45:
 737              	.L90:
 738              		.loc 1 2729 0
 739 003a 0A3B     		subs	r3, r3, #10
 740              	.LVL46:
 741 003c DBB2     		uxtb	r3, r3
ARM GAS  /tmp/cc65ENol.s 			page 14


 742              		.loc 1 2728 0
 743 003e 0130     		adds	r0, r0, #1
 744              	.LVL47:
 745              		.loc 1 2726 0
 746 0040 092B     		cmp	r3, #9
 747              		.loc 1 2728 0
 748 0042 C0B2     		uxtb	r0, r0
 749              	.LVL48:
 750              		.loc 1 2726 0
 751 0044 F9D8     		bhi	.L90
 752 0046 0001     		lsls	r0, r0, #4
 753              	.LVL49:
 754 0048 C0B2     		uxtb	r0, r0
 755              	.L89:
 756              	.LVL50:
 757              	.LBE91:
 758              	.LBE92:
 759              		.loc 1 815 0
 760 004a 8978     		ldrb	r1, [r1, #2]	@ zero_extendqisi2
 761              	.LVL51:
 762              		.loc 1 814 0
 763 004c 0343     		orrs	r3, r3, r0
 764              	.LBB93:
 765              	.LBB94:
 766              		.loc 1 2726 0
 767 004e 0929     		cmp	r1, #9
 768              	.LBE94:
 769              	.LBE93:
 770              		.loc 1 814 0
 771 0050 4FEA0323 		lsl	r3, r3, #8
 772              	.LBB96:
 773              	.LBB95:
 774              		.loc 1 2724 0
 775 0054 4FF00000 		mov	r0, #0
 776              		.loc 1 2726 0
 777 0058 07D9     		bls	.L91
 778              	.LVL52:
 779              	.L92:
 780              		.loc 1 2729 0
 781 005a 0A39     		subs	r1, r1, #10
 782              	.LVL53:
 783 005c C9B2     		uxtb	r1, r1
 784              		.loc 1 2728 0
 785 005e 0130     		adds	r0, r0, #1
 786              	.LVL54:
 787              		.loc 1 2726 0
 788 0060 0929     		cmp	r1, #9
 789              		.loc 1 2728 0
 790 0062 C0B2     		uxtb	r0, r0
 791              	.LVL55:
 792              		.loc 1 2726 0
 793 0064 F9D8     		bhi	.L92
 794 0066 0001     		lsls	r0, r0, #4
 795              	.LVL56:
 796 0068 C0B2     		uxtb	r0, r0
 797              	.L91:
 798              	.LVL57:
ARM GAS  /tmp/cc65ENol.s 			page 15


 799              	.LBE95:
 800              	.LBE96:
 801              		.loc 1 813 0
 802 006a 1443     		orrs	r4, r4, r2
 803 006c 2343     		orrs	r3, r3, r4
 804              		.loc 1 815 0
 805 006e 0143     		orrs	r1, r1, r0
 806              		.loc 1 813 0
 807 0070 43EA0104 		orr	r4, r3, r1
 808              	.LVL58:
 809 0074 0BE0     		b	.L94
 810              	.LVL59:
 811              	.L83:
 812              		.loc 1 788 0
 813 0076 14F04004 		ands	r4, r4, #64
 814 007a 21D1     		bne	.L86
 815              		.loc 1 796 0
 816 007c CC70     		strb	r4, [r1, #3]
 817              	.L87:
 818              		.loc 1 807 0
 819 007e 4A78     		ldrb	r2, [r1, #1]	@ zero_extendqisi2
 820              		.loc 1 806 0
 821 0080 0878     		ldrb	r0, [r1]	@ zero_extendqisi2
 822              	.LVL60:
 823              		.loc 1 808 0
 824 0082 8B78     		ldrb	r3, [r1, #2]	@ zero_extendqisi2
 825              		.loc 1 807 0
 826 0084 1102     		lsls	r1, r2, #8
 827              	.LVL61:
 828              		.loc 1 806 0
 829 0086 41EA0041 		orr	r1, r1, r0, lsl #16
 830              		.loc 1 807 0
 831 008a 1943     		orrs	r1, r1, r3
 832              		.loc 1 806 0
 833 008c 0C43     		orrs	r4, r4, r1
 834              	.LVL62:
 835              	.L94:
 836              		.loc 1 820 0
 837 008e 154D     		ldr	r5, .L110
 838 0090 CA22     		movs	r2, #202
 839              		.loc 1 821 0
 840 0092 5323     		movs	r3, #83
 841              		.loc 1 820 0
 842 0094 6A62     		str	r2, [r5, #36]
 843              		.loc 1 821 0
 844 0096 6B62     		str	r3, [r5, #36]
 845              		.loc 1 824 0
 846 0098 FFF7FEFF 		bl	RTC_EnterInitMode
 847              	.LVL63:
 848 009c 60B1     		cbz	r0, .L93
 849              		.loc 1 831 0
 850 009e 04F07F34 		and	r4, r4, #2139062143
 851              	.LVL64:
 852 00a2 24F0FE44 		bic	r4, r4, #2130706432
 853 00a6 2C60     		str	r4, [r5]
 854              	.LBB97:
 855              	.LBB98:
ARM GAS  /tmp/cc65ENol.s 			page 16


 856              		.loc 1 598 0
 857 00a8 EB68     		ldr	r3, [r5, #12]
 858 00aa 23F08003 		bic	r3, r3, #128
 859 00ae EB60     		str	r3, [r5, #12]
 860              	.LBE98:
 861              	.LBE97:
 862              		.loc 1 837 0
 863 00b0 AB68     		ldr	r3, [r5, #8]
 864 00b2 9B06     		lsls	r3, r3, #26
 865 00b4 0AD5     		bpl	.L109
 866              		.loc 1 850 0
 867 00b6 0120     		movs	r0, #1
 868              	.L93:
 869              	.LVL65:
 870              		.loc 1 854 0
 871 00b8 0A4B     		ldr	r3, .L110
 872 00ba FF22     		movs	r2, #255
 873 00bc 5A62     		str	r2, [r3, #36]
 874              		.loc 1 857 0
 875 00be 38BD     		pop	{r3, r4, r5, pc}
 876              	.LVL66:
 877              	.L86:
 878 00c0 CC78     		ldrb	r4, [r1, #3]	@ zero_extendqisi2
 879 00c2 2404     		lsls	r4, r4, #16
 880 00c4 DBE7     		b	.L87
 881              	.L84:
 882 00c6 CC78     		ldrb	r4, [r1, #3]	@ zero_extendqisi2
 883 00c8 2404     		lsls	r4, r4, #16
 884 00ca A2E7     		b	.L85
 885              	.LVL67:
 886              	.L109:
 887              		.loc 1 839 0
 888 00cc FFF7FEFF 		bl	RTC_WaitForSynchro
 889              	.LVL68:
 890              		.loc 1 854 0
 891 00d0 044B     		ldr	r3, .L110
 892              		.loc 1 826 0
 893 00d2 0030     		adds	r0, r0, #0
 894              		.loc 1 854 0
 895 00d4 4FF0FF02 		mov	r2, #255
 896              		.loc 1 826 0
 897 00d8 18BF     		it	ne
 898 00da 0120     		movne	r0, #1
 899              	.LVL69:
 900              		.loc 1 854 0
 901 00dc 5A62     		str	r2, [r3, #36]
 902              		.loc 1 857 0
 903 00de 38BD     		pop	{r3, r4, r5, pc}
 904              	.LVL70:
 905              	.L108:
 906              	.LBB99:
 907              	.LBB88:
 908              		.loc 1 2726 0
 909 00e0 0020     		movs	r0, #0
 910              	.LVL71:
 911 00e2 A2E7     		b	.L95
 912              	.L111:
ARM GAS  /tmp/cc65ENol.s 			page 17


 913              		.align	2
 914              	.L110:
 915 00e4 00280040 		.word	1073752064
 916              	.LBE88:
 917              	.LBE99:
 918              		.cfi_endproc
 919              	.LFE120:
 920              		.size	RTC_SetTime, .-RTC_SetTime
 921              		.section	.text.RTC_TimeStructInit,"ax",%progbits
 922              		.align	1
 923              		.p2align 4,,15
 924              		.global	RTC_TimeStructInit
 925              		.syntax unified
 926              		.thumb
 927              		.thumb_func
 928              		.fpu fpv4-sp-d16
 929              		.type	RTC_TimeStructInit, %function
 930              	RTC_TimeStructInit:
 931              	.LFB121:
 932              		.loc 1 867 0
 933              		.cfi_startproc
 934              		@ args = 0, pretend = 0, frame = 0
 935              		@ frame_needed = 0, uses_anonymous_args = 0
 936              		@ link register save eliminated.
 937              	.LVL72:
 938              		.loc 1 869 0
 939 0000 0023     		movs	r3, #0
 940 0002 C370     		strb	r3, [r0, #3]
 941              		.loc 1 870 0
 942 0004 0370     		strb	r3, [r0]
 943              		.loc 1 871 0
 944 0006 4370     		strb	r3, [r0, #1]
 945              		.loc 1 872 0
 946 0008 8370     		strb	r3, [r0, #2]
 947              		.loc 1 873 0
 948 000a 7047     		bx	lr
 949              		.cfi_endproc
 950              	.LFE121:
 951              		.size	RTC_TimeStructInit, .-RTC_TimeStructInit
 952              		.section	.text.RTC_GetTime,"ax",%progbits
 953              		.align	1
 954              		.p2align 4,,15
 955              		.global	RTC_GetTime
 956              		.syntax unified
 957              		.thumb
 958              		.thumb_func
 959              		.fpu fpv4-sp-d16
 960              		.type	RTC_GetTime, %function
 961              	RTC_GetTime:
 962              	.LFB122:
 963              		.loc 1 886 0
 964              		.cfi_startproc
 965              		@ args = 0, pretend = 0, frame = 0
 966              		@ frame_needed = 0, uses_anonymous_args = 0
 967              		@ link register save eliminated.
 968              	.LVL73:
 969              		.loc 1 893 0
ARM GAS  /tmp/cc65ENol.s 			page 18


 970 0000 164B     		ldr	r3, .L116
 971 0002 1B68     		ldr	r3, [r3]
 972 0004 03F07F33 		and	r3, r3, #2139062143
 973 0008 23F0FE43 		bic	r3, r3, #2130706432
 974              	.LVL74:
 975              		.loc 1 896 0
 976 000c 1A0C     		lsrs	r2, r3, #16
 977              		.loc 1 886 0
 978 000e 70B4     		push	{r4, r5, r6}
 979              		.cfi_def_cfa_offset 12
 980              		.cfi_offset 4, -12
 981              		.cfi_offset 5, -8
 982              		.cfi_offset 6, -4
 983              		.loc 1 897 0
 984 0010 C3F30624 		ubfx	r4, r3, #8, #7
 985              		.loc 1 899 0
 986 0014 02F04006 		and	r6, r2, #64
 987              		.loc 1 896 0
 988 0018 02F03F05 		and	r5, r2, #63
 989              		.loc 1 898 0
 990 001c DBB2     		uxtb	r3, r3
 991              	.LVL75:
 992              		.loc 1 899 0
 993 001e CE70     		strb	r6, [r1, #3]
 994              		.loc 1 896 0
 995 0020 0D70     		strb	r5, [r1]
 996              		.loc 1 897 0
 997 0022 4C70     		strb	r4, [r1, #1]
 998              		.loc 1 898 0
 999 0024 8B70     		strb	r3, [r1, #2]
 1000              		.loc 1 902 0
 1001 0026 B8B9     		cbnz	r0, .L113
 1002              	.LBB100:
 1003              	.LBB101:
 1004              		.loc 1 2743 0
 1005 0028 2009     		lsrs	r0, r4, #4
 1006              	.LVL76:
 1007 002a 00EB8006 		add	r6, r0, r0, lsl #2
 1008              	.LBE101:
 1009              	.LBE100:
 1010              	.LBB104:
 1011              	.LBB105:
 1012 002e 2D09     		lsrs	r5, r5, #4
 1013              	.LBE105:
 1014              	.LBE104:
 1015              	.LBB108:
 1016              	.LBB109:
 1017 0030 1809     		lsrs	r0, r3, #4
 1018              	.LBE109:
 1019              	.LBE108:
 1020              	.LBB112:
 1021              	.LBB106:
 1022 0032 05EB8505 		add	r5, r5, r5, lsl #2
 1023              		.loc 1 2744 0
 1024 0036 02F00F02 		and	r2, r2, #15
 1025              	.LBE106:
 1026              	.LBE112:
ARM GAS  /tmp/cc65ENol.s 			page 19


 1027              	.LBB113:
 1028              	.LBB102:
 1029 003a 04F00F04 		and	r4, r4, #15
 1030              	.LBE102:
 1031              	.LBE113:
 1032              	.LBB114:
 1033              	.LBB110:
 1034              		.loc 1 2743 0
 1035 003e 00EB8000 		add	r0, r0, r0, lsl #2
 1036              		.loc 1 2744 0
 1037 0042 03F00F03 		and	r3, r3, #15
 1038              	.LBE110:
 1039              	.LBE114:
 1040              	.LBB115:
 1041              	.LBB107:
 1042 0046 02EB4502 		add	r2, r2, r5, lsl #1
 1043              	.LBE107:
 1044              	.LBE115:
 1045              	.LBB116:
 1046              	.LBB103:
 1047 004a 04EB4604 		add	r4, r4, r6, lsl #1
 1048              	.LBE103:
 1049              	.LBE116:
 1050              	.LBB117:
 1051              	.LBB111:
 1052 004e 03EB4003 		add	r3, r3, r0, lsl #1
 1053              	.LBE111:
 1054              	.LBE117:
 1055              		.loc 1 905 0
 1056 0052 0A70     		strb	r2, [r1]
 1057              		.loc 1 906 0
 1058 0054 4C70     		strb	r4, [r1, #1]
 1059              		.loc 1 907 0
 1060 0056 8B70     		strb	r3, [r1, #2]
 1061              	.L113:
 1062              		.loc 1 909 0
 1063 0058 70BC     		pop	{r4, r5, r6}
 1064              		.cfi_restore 6
 1065              		.cfi_restore 5
 1066              		.cfi_restore 4
 1067              		.cfi_def_cfa_offset 0
 1068 005a 7047     		bx	lr
 1069              	.L117:
 1070              		.align	2
 1071              	.L116:
 1072 005c 00280040 		.word	1073752064
 1073              		.cfi_endproc
 1074              	.LFE122:
 1075              		.size	RTC_GetTime, .-RTC_GetTime
 1076              		.section	.text.RTC_GetSubSecond,"ax",%progbits
 1077              		.align	1
 1078              		.p2align 4,,15
 1079              		.global	RTC_GetSubSecond
 1080              		.syntax unified
 1081              		.thumb
 1082              		.thumb_func
 1083              		.fpu fpv4-sp-d16
ARM GAS  /tmp/cc65ENol.s 			page 20


 1084              		.type	RTC_GetSubSecond, %function
 1085              	RTC_GetSubSecond:
 1086              	.LFB123:
 1087              		.loc 1 919 0
 1088              		.cfi_startproc
 1089              		@ args = 0, pretend = 0, frame = 0
 1090              		@ frame_needed = 0, uses_anonymous_args = 0
 1091              		@ link register save eliminated.
 1092              	.LVL77:
 1093              		.loc 1 923 0
 1094 0000 014B     		ldr	r3, .L119
 1095 0002 986A     		ldr	r0, [r3, #40]
 1096              	.LVL78:
 1097              		.loc 1 926 0
 1098 0004 5B68     		ldr	r3, [r3, #4]
 1099              		.loc 1 929 0
 1100 0006 7047     		bx	lr
 1101              	.L120:
 1102              		.align	2
 1103              	.L119:
 1104 0008 00280040 		.word	1073752064
 1105              		.cfi_endproc
 1106              	.LFE123:
 1107              		.size	RTC_GetSubSecond, .-RTC_GetSubSecond
 1108              		.section	.text.RTC_SetDate,"ax",%progbits
 1109              		.align	1
 1110              		.p2align 4,,15
 1111              		.global	RTC_SetDate
 1112              		.syntax unified
 1113              		.thumb
 1114              		.thumb_func
 1115              		.fpu fpv4-sp-d16
 1116              		.type	RTC_SetDate, %function
 1117              	RTC_SetDate:
 1118              	.LFB124:
 1119              		.loc 1 944 0
 1120              		.cfi_startproc
 1121              		@ args = 0, pretend = 0, frame = 0
 1122              		@ frame_needed = 0, uses_anonymous_args = 0
 1123              	.LVL79:
 1124 0000 70B5     		push	{r4, r5, r6, lr}
 1125              		.cfi_def_cfa_offset 16
 1126              		.cfi_offset 4, -16
 1127              		.cfi_offset 5, -12
 1128              		.cfi_offset 6, -8
 1129              		.cfi_offset 14, -4
 1130 0002 0E78     		ldrb	r6, [r1]	@ zero_extendqisi2
 1131 0004 CB78     		ldrb	r3, [r1, #3]	@ zero_extendqisi2
 1132 0006 4C78     		ldrb	r4, [r1, #1]	@ zero_extendqisi2
 1133 0008 8D78     		ldrb	r5, [r1, #2]	@ zero_extendqisi2
 1134 000a 7603     		lsls	r6, r6, #13
 1135              		.loc 1 951 0
 1136 000c 0028     		cmp	r0, #0
 1137 000e 4ED1     		bne	.L122
 1138              		.loc 1 951 0 is_stmt 0 discriminator 1
 1139 0010 E206     		lsls	r2, r4, #27
 1140 0012 04D5     		bpl	.L123
ARM GAS  /tmp/cc65ENol.s 			page 21


 1141              		.loc 1 953 0 is_stmt 1
 1142 0014 24F01004 		bic	r4, r4, #16
 1143 0018 0A34     		adds	r4, r4, #10
 1144 001a E4B2     		uxtb	r4, r4
 1145 001c 4C70     		strb	r4, [r1, #1]
 1146              	.L123:
 1147              	.LVL80:
 1148              	.LBB118:
 1149              	.LBB119:
 1150              		.loc 1 2726 0
 1151 001e 092B     		cmp	r3, #9
 1152              		.loc 1 2724 0
 1153 0020 4FF00002 		mov	r2, #0
 1154              		.loc 1 2726 0
 1155 0024 07D9     		bls	.L130
 1156              	.LVL81:
 1157              	.L124:
 1158              		.loc 1 2729 0
 1159 0026 0A3B     		subs	r3, r3, #10
 1160              	.LVL82:
 1161 0028 DBB2     		uxtb	r3, r3
 1162              		.loc 1 2728 0
 1163 002a 0132     		adds	r2, r2, #1
 1164              	.LVL83:
 1165              		.loc 1 2726 0
 1166 002c 092B     		cmp	r3, #9
 1167              		.loc 1 2728 0
 1168 002e D2B2     		uxtb	r2, r2
 1169              	.LVL84:
 1170              		.loc 1 2726 0
 1171 0030 F9D8     		bhi	.L124
 1172 0032 1201     		lsls	r2, r2, #4
 1173              	.LVL85:
 1174 0034 D2B2     		uxtb	r2, r2
 1175              	.LVL86:
 1176              	.L130:
 1177              	.LBE119:
 1178              	.LBE118:
 1179              		.loc 1 981 0
 1180 0036 1343     		orrs	r3, r3, r2
 1181              	.LBB120:
 1182              	.LBB121:
 1183              		.loc 1 2726 0
 1184 0038 092C     		cmp	r4, #9
 1185              	.LBE121:
 1186              	.LBE120:
 1187              		.loc 1 981 0
 1188 003a 4FEA0342 		lsl	r2, r3, #16
 1189              	.LVL87:
 1190              	.LBB123:
 1191              	.LBB122:
 1192              		.loc 1 2724 0
 1193 003e 4FF00001 		mov	r1, #0
 1194              	.LVL88:
 1195              		.loc 1 2726 0
 1196 0042 07D9     		bls	.L125
 1197              	.LVL89:
ARM GAS  /tmp/cc65ENol.s 			page 22


 1198              	.L126:
 1199              		.loc 1 2729 0
 1200 0044 0A3C     		subs	r4, r4, #10
 1201              	.LVL90:
 1202 0046 E4B2     		uxtb	r4, r4
 1203              		.loc 1 2728 0
 1204 0048 0131     		adds	r1, r1, #1
 1205              	.LVL91:
 1206              		.loc 1 2726 0
 1207 004a 092C     		cmp	r4, #9
 1208              		.loc 1 2728 0
 1209 004c C9B2     		uxtb	r1, r1
 1210              	.LVL92:
 1211              		.loc 1 2726 0
 1212 004e F9D8     		bhi	.L126
 1213 0050 0901     		lsls	r1, r1, #4
 1214              	.LVL93:
 1215 0052 C9B2     		uxtb	r1, r1
 1216              	.LVL94:
 1217              	.L125:
 1218              	.LBE122:
 1219              	.LBE123:
 1220              		.loc 1 982 0
 1221 0054 0C43     		orrs	r4, r4, r1
 1222              	.LBB124:
 1223              	.LBB125:
 1224              		.loc 1 2726 0
 1225 0056 092D     		cmp	r5, #9
 1226              	.LBE125:
 1227              	.LBE124:
 1228              		.loc 1 982 0
 1229 0058 4FEA0421 		lsl	r1, r4, #8
 1230              	.LVL95:
 1231              	.LBB127:
 1232              	.LBB126:
 1233              		.loc 1 2724 0
 1234 005c 4FF00000 		mov	r0, #0
 1235              	.LVL96:
 1236              		.loc 1 2726 0
 1237 0060 07D9     		bls	.L127
 1238              	.LVL97:
 1239              	.L128:
 1240              		.loc 1 2729 0
 1241 0062 0A3D     		subs	r5, r5, #10
 1242              	.LVL98:
 1243 0064 EDB2     		uxtb	r5, r5
 1244              		.loc 1 2728 0
 1245 0066 0130     		adds	r0, r0, #1
 1246              	.LVL99:
 1247              		.loc 1 2726 0
 1248 0068 092D     		cmp	r5, #9
 1249              		.loc 1 2728 0
 1250 006a C0B2     		uxtb	r0, r0
 1251              	.LVL100:
 1252              		.loc 1 2726 0
 1253 006c F9D8     		bhi	.L128
 1254 006e 0001     		lsls	r0, r0, #4
ARM GAS  /tmp/cc65ENol.s 			page 23


 1255              	.LVL101:
 1256 0070 C0B2     		uxtb	r0, r0
 1257              	.LVL102:
 1258              	.L127:
 1259              	.LBE126:
 1260              	.LBE127:
 1261              		.loc 1 981 0
 1262 0072 3243     		orrs	r2, r2, r6
 1263 0074 42EA0104 		orr	r4, r2, r1
 1264              		.loc 1 983 0
 1265 0078 0543     		orrs	r5, r5, r0
 1266              		.loc 1 981 0
 1267 007a 2543     		orrs	r5, r5, r4
 1268              	.LVL103:
 1269              	.L131:
 1270              		.loc 1 988 0
 1271 007c 144C     		ldr	r4, .L148
 1272 007e CA22     		movs	r2, #202
 1273              		.loc 1 989 0
 1274 0080 5323     		movs	r3, #83
 1275              		.loc 1 988 0
 1276 0082 6262     		str	r2, [r4, #36]
 1277              		.loc 1 989 0
 1278 0084 6362     		str	r3, [r4, #36]
 1279              		.loc 1 992 0
 1280 0086 FFF7FEFF 		bl	RTC_EnterInitMode
 1281              	.LVL104:
 1282 008a 60B1     		cbz	r0, .L129
 1283              		.loc 1 999 0
 1284 008c 25F07F45 		bic	r5, r5, #-16777216
 1285              	.LVL105:
 1286 0090 25F0C005 		bic	r5, r5, #192
 1287 0094 6560     		str	r5, [r4, #4]
 1288              	.LBB128:
 1289              	.LBB129:
 1290              		.loc 1 598 0
 1291 0096 E368     		ldr	r3, [r4, #12]
 1292 0098 23F08003 		bic	r3, r3, #128
 1293 009c E360     		str	r3, [r4, #12]
 1294              	.LBE129:
 1295              	.LBE128:
 1296              		.loc 1 1005 0
 1297 009e A368     		ldr	r3, [r4, #8]
 1298 00a0 9B06     		lsls	r3, r3, #26
 1299 00a2 0AD5     		bpl	.L147
 1300              		.loc 1 1018 0
 1301 00a4 0120     		movs	r0, #1
 1302              	.L129:
 1303              	.LVL106:
 1304              		.loc 1 1022 0
 1305 00a6 0A4B     		ldr	r3, .L148
 1306 00a8 FF22     		movs	r2, #255
 1307 00aa 5A62     		str	r2, [r3, #36]
 1308              		.loc 1 1025 0
 1309 00ac 70BD     		pop	{r4, r5, r6, pc}
 1310              	.LVL107:
 1311              	.L122:
ARM GAS  /tmp/cc65ENol.s 			page 24


 1312              		.loc 1 974 0
 1313 00ae 46EA0343 		orr	r3, r6, r3, lsl #16
 1314 00b2 1D43     		orrs	r5, r5, r3
 1315 00b4 45EA0425 		orr	r5, r5, r4, lsl #8
 1316              	.LVL108:
 1317 00b8 E0E7     		b	.L131
 1318              	.LVL109:
 1319              	.L147:
 1320              		.loc 1 1007 0
 1321 00ba FFF7FEFF 		bl	RTC_WaitForSynchro
 1322              	.LVL110:
 1323              		.loc 1 1022 0
 1324 00be 044B     		ldr	r3, .L148
 1325              		.loc 1 994 0
 1326 00c0 0030     		adds	r0, r0, #0
 1327              		.loc 1 1022 0
 1328 00c2 4FF0FF02 		mov	r2, #255
 1329              		.loc 1 994 0
 1330 00c6 18BF     		it	ne
 1331 00c8 0120     		movne	r0, #1
 1332              	.LVL111:
 1333              		.loc 1 1022 0
 1334 00ca 5A62     		str	r2, [r3, #36]
 1335              		.loc 1 1025 0
 1336 00cc 70BD     		pop	{r4, r5, r6, pc}
 1337              	.L149:
 1338 00ce 00BF     		.align	2
 1339              	.L148:
 1340 00d0 00280040 		.word	1073752064
 1341              		.cfi_endproc
 1342              	.LFE124:
 1343              		.size	RTC_SetDate, .-RTC_SetDate
 1344              		.section	.text.RTC_DateStructInit,"ax",%progbits
 1345              		.align	1
 1346              		.p2align 4,,15
 1347              		.global	RTC_DateStructInit
 1348              		.syntax unified
 1349              		.thumb
 1350              		.thumb_func
 1351              		.fpu fpv4-sp-d16
 1352              		.type	RTC_DateStructInit, %function
 1353              	RTC_DateStructInit:
 1354              	.LFB125:
 1355              		.loc 1 1035 0
 1356              		.cfi_startproc
 1357              		@ args = 0, pretend = 0, frame = 0
 1358              		@ frame_needed = 0, uses_anonymous_args = 0
 1359              		@ link register save eliminated.
 1360              	.LVL112:
 1361              		.loc 1 1037 0
 1362 0000 0123     		movs	r3, #1
 1363              		.loc 1 1040 0
 1364 0002 0022     		movs	r2, #0
 1365 0004 C270     		strb	r2, [r0, #3]
 1366              		.loc 1 1037 0
 1367 0006 0370     		strb	r3, [r0]
 1368              		.loc 1 1038 0
ARM GAS  /tmp/cc65ENol.s 			page 25


 1369 0008 8370     		strb	r3, [r0, #2]
 1370              		.loc 1 1039 0
 1371 000a 4370     		strb	r3, [r0, #1]
 1372              		.loc 1 1041 0
 1373 000c 7047     		bx	lr
 1374              		.cfi_endproc
 1375              	.LFE125:
 1376              		.size	RTC_DateStructInit, .-RTC_DateStructInit
 1377 000e 00BF     		.section	.text.RTC_GetDate,"ax",%progbits
 1378              		.align	1
 1379              		.p2align 4,,15
 1380              		.global	RTC_GetDate
 1381              		.syntax unified
 1382              		.thumb
 1383              		.thumb_func
 1384              		.fpu fpv4-sp-d16
 1385              		.type	RTC_GetDate, %function
 1386              	RTC_GetDate:
 1387              	.LFB126:
 1388              		.loc 1 1054 0
 1389              		.cfi_startproc
 1390              		@ args = 0, pretend = 0, frame = 0
 1391              		@ frame_needed = 0, uses_anonymous_args = 0
 1392              		@ link register save eliminated.
 1393              	.LVL113:
 1394              		.loc 1 1061 0
 1395 0000 164B     		ldr	r3, .L154
 1396 0002 5B68     		ldr	r3, [r3, #4]
 1397 0004 23F07F43 		bic	r3, r3, #-16777216
 1398 0008 23F0C003 		bic	r3, r3, #192
 1399              	.LVL114:
 1400              		.loc 1 1054 0
 1401 000c 70B4     		push	{r4, r5, r6}
 1402              		.cfi_def_cfa_offset 12
 1403              		.cfi_offset 4, -12
 1404              		.cfi_offset 5, -8
 1405              		.cfi_offset 6, -4
 1406              		.loc 1 1065 0
 1407 000e C3F30725 		ubfx	r5, r3, #8, #8
 1408              		.loc 1 1067 0
 1409 0012 C3F34236 		ubfx	r6, r3, #13, #3
 1410              		.loc 1 1064 0
 1411 0016 1A0C     		lsrs	r2, r3, #16
 1412              		.loc 1 1065 0
 1413 0018 05F01F04 		and	r4, r5, #31
 1414              		.loc 1 1066 0
 1415 001c DBB2     		uxtb	r3, r3
 1416              	.LVL115:
 1417              		.loc 1 1067 0
 1418 001e 0E70     		strb	r6, [r1]
 1419              		.loc 1 1065 0
 1420 0020 4C70     		strb	r4, [r1, #1]
 1421              		.loc 1 1064 0
 1422 0022 CA70     		strb	r2, [r1, #3]
 1423              		.loc 1 1066 0
 1424 0024 8B70     		strb	r3, [r1, #2]
 1425              		.loc 1 1070 0
ARM GAS  /tmp/cc65ENol.s 			page 26


 1426 0026 B8B9     		cbnz	r0, .L151
 1427              	.LBB130:
 1428              	.LBB131:
 1429              		.loc 1 2743 0
 1430 0028 2409     		lsrs	r4, r4, #4
 1431 002a A000     		lsls	r0, r4, #2
 1432              	.LVL116:
 1433              	.LBE131:
 1434              	.LBE130:
 1435              	.LBB135:
 1436              	.LBB136:
 1437 002c 1609     		lsrs	r6, r2, #4
 1438              	.LBE136:
 1439              	.LBE135:
 1440              	.LBB139:
 1441              	.LBB132:
 1442 002e 0444     		add	r4, r4, r0
 1443              	.LBE132:
 1444              	.LBE139:
 1445              	.LBB140:
 1446              	.LBB141:
 1447 0030 1809     		lsrs	r0, r3, #4
 1448              	.LBE141:
 1449              	.LBE140:
 1450              	.LBB144:
 1451              	.LBB133:
 1452              		.loc 1 2744 0
 1453 0032 05F00F05 		and	r5, r5, #15
 1454              	.LBE133:
 1455              	.LBE144:
 1456              	.LBB145:
 1457              	.LBB137:
 1458              		.loc 1 2743 0
 1459 0036 06EB8606 		add	r6, r6, r6, lsl #2
 1460              		.loc 1 2744 0
 1461 003a 02F00F02 		and	r2, r2, #15
 1462              	.LBE137:
 1463              	.LBE145:
 1464              	.LBB146:
 1465              	.LBB142:
 1466              		.loc 1 2743 0
 1467 003e 00EB8000 		add	r0, r0, r0, lsl #2
 1468              		.loc 1 2744 0
 1469 0042 03F00F03 		and	r3, r3, #15
 1470              	.LBE142:
 1471              	.LBE146:
 1472              	.LBB147:
 1473              	.LBB134:
 1474 0046 05EB4404 		add	r4, r5, r4, lsl #1
 1475              	.LBE134:
 1476              	.LBE147:
 1477              	.LBB148:
 1478              	.LBB138:
 1479 004a 02EB4602 		add	r2, r2, r6, lsl #1
 1480              	.LBE138:
 1481              	.LBE148:
 1482              	.LBB149:
ARM GAS  /tmp/cc65ENol.s 			page 27


 1483              	.LBB143:
 1484 004e 03EB4003 		add	r3, r3, r0, lsl #1
 1485              	.LBE143:
 1486              	.LBE149:
 1487              		.loc 1 1074 0
 1488 0052 4C70     		strb	r4, [r1, #1]
 1489              		.loc 1 1073 0
 1490 0054 CA70     		strb	r2, [r1, #3]
 1491              		.loc 1 1075 0
 1492 0056 8B70     		strb	r3, [r1, #2]
 1493              	.L151:
 1494              		.loc 1 1077 0
 1495 0058 70BC     		pop	{r4, r5, r6}
 1496              		.cfi_restore 6
 1497              		.cfi_restore 5
 1498              		.cfi_restore 4
 1499              		.cfi_def_cfa_offset 0
 1500 005a 7047     		bx	lr
 1501              	.L155:
 1502              		.align	2
 1503              	.L154:
 1504 005c 00280040 		.word	1073752064
 1505              		.cfi_endproc
 1506              	.LFE126:
 1507              		.size	RTC_GetDate, .-RTC_GetDate
 1508              		.section	.text.RTC_SetAlarm,"ax",%progbits
 1509              		.align	1
 1510              		.p2align 4,,15
 1511              		.global	RTC_SetAlarm
 1512              		.syntax unified
 1513              		.thumb
 1514              		.thumb_func
 1515              		.fpu fpv4-sp-d16
 1516              		.type	RTC_SetAlarm, %function
 1517              	RTC_SetAlarm:
 1518              	.LFB127:
 1519              		.loc 1 1114 0
 1520              		.cfi_startproc
 1521              		@ args = 0, pretend = 0, frame = 0
 1522              		@ frame_needed = 0, uses_anonymous_args = 0
 1523              		@ link register save eliminated.
 1524              	.LVL117:
 1525 0000 F0B4     		push	{r4, r5, r6, r7}
 1526              		.cfi_def_cfa_offset 16
 1527              		.cfi_offset 4, -16
 1528              		.cfi_offset 5, -12
 1529              		.cfi_offset 6, -8
 1530              		.cfi_offset 7, -4
 1531              		.loc 1 1125 0
 1532 0002 3E4B     		ldr	r3, .L184
 1533              		.loc 1 1123 0
 1534 0004 0028     		cmp	r0, #0
 1535 0006 4AD1     		bne	.L157
 1536              		.loc 1 1125 0
 1537 0008 9E68     		ldr	r6, [r3, #8]
 1538 000a 16F04006 		ands	r6, r6, #64
 1539 000e 6DD1     		bne	.L158
ARM GAS  /tmp/cc65ENol.s 			page 28


 1540              		.loc 1 1132 0
 1541 0010 D670     		strb	r6, [r2, #3]
 1542              	.L159:
 1543              		.loc 1 1189 0
 1544 0012 1378     		ldrb	r3, [r2]	@ zero_extendqisi2
 1545              	.LVL118:
 1546              	.LBB150:
 1547              	.LBB151:
 1548              		.loc 1 2726 0
 1549 0014 092B     		cmp	r3, #9
 1550 0016 6CD9     		bls	.L183
 1551              		.loc 1 2724 0
 1552 0018 0020     		movs	r0, #0
 1553              	.LVL119:
 1554              	.L162:
 1555              		.loc 1 2729 0
 1556 001a 0A3B     		subs	r3, r3, #10
 1557              	.LVL120:
 1558 001c DBB2     		uxtb	r3, r3
 1559              		.loc 1 2728 0
 1560 001e 0130     		adds	r0, r0, #1
 1561              	.LVL121:
 1562              		.loc 1 2726 0
 1563 0020 092B     		cmp	r3, #9
 1564              		.loc 1 2728 0
 1565 0022 C0B2     		uxtb	r0, r0
 1566              	.LVL122:
 1567              		.loc 1 2726 0
 1568 0024 F9D8     		bhi	.L162
 1569 0026 0001     		lsls	r0, r0, #4
 1570              	.LVL123:
 1571 0028 C4B2     		uxtb	r4, r0
 1572              	.L172:
 1573              	.LVL124:
 1574              	.LBE151:
 1575              	.LBE150:
 1576              		.loc 1 1190 0
 1577 002a 5078     		ldrb	r0, [r2, #1]	@ zero_extendqisi2
 1578              	.LVL125:
 1579              		.loc 1 1189 0
 1580 002c 2343     		orrs	r3, r3, r4
 1581              	.LBB153:
 1582              	.LBB154:
 1583              		.loc 1 2726 0
 1584 002e 0928     		cmp	r0, #9
 1585              	.LBE154:
 1586              	.LBE153:
 1587              		.loc 1 1189 0
 1588 0030 4FEA0343 		lsl	r3, r3, #16
 1589              	.LBB156:
 1590              	.LBB155:
 1591              		.loc 1 2724 0
 1592 0034 4FF00004 		mov	r4, #0
 1593              		.loc 1 2726 0
 1594 0038 07D9     		bls	.L163
 1595              	.LVL126:
 1596              	.L164:
ARM GAS  /tmp/cc65ENol.s 			page 29


 1597              		.loc 1 2729 0
 1598 003a 0A38     		subs	r0, r0, #10
 1599              	.LVL127:
 1600 003c C0B2     		uxtb	r0, r0
 1601              		.loc 1 2728 0
 1602 003e 0134     		adds	r4, r4, #1
 1603              	.LVL128:
 1604              		.loc 1 2726 0
 1605 0040 0928     		cmp	r0, #9
 1606              		.loc 1 2728 0
 1607 0042 E4B2     		uxtb	r4, r4
 1608              	.LVL129:
 1609              		.loc 1 2726 0
 1610 0044 F9D8     		bhi	.L164
 1611 0046 2401     		lsls	r4, r4, #4
 1612              	.LVL130:
 1613 0048 E4B2     		uxtb	r4, r4
 1614              	.L163:
 1615              	.LVL131:
 1616              	.LBE155:
 1617              	.LBE156:
 1618              		.loc 1 1191 0
 1619 004a 9578     		ldrb	r5, [r2, #2]	@ zero_extendqisi2
 1620              	.LVL132:
 1621              		.loc 1 1190 0
 1622 004c 2043     		orrs	r0, r0, r4
 1623              	.LBB157:
 1624              	.LBB158:
 1625              		.loc 1 2726 0
 1626 004e 092D     		cmp	r5, #9
 1627              	.LBE158:
 1628              	.LBE157:
 1629              		.loc 1 1190 0
 1630 0050 4FEA0024 		lsl	r4, r0, #8
 1631              	.LBB161:
 1632              	.LBB159:
 1633              		.loc 1 2726 0
 1634 0054 4FD9     		bls	.L174
 1635              		.loc 1 2724 0
 1636 0056 0020     		movs	r0, #0
 1637              	.LVL133:
 1638              	.L166:
 1639              		.loc 1 2729 0
 1640 0058 0A3D     		subs	r5, r5, #10
 1641              	.LVL134:
 1642 005a EDB2     		uxtb	r5, r5
 1643              		.loc 1 2728 0
 1644 005c 0130     		adds	r0, r0, #1
 1645              	.LVL135:
 1646              		.loc 1 2726 0
 1647 005e 092D     		cmp	r5, #9
 1648              		.loc 1 2728 0
 1649 0060 C0B2     		uxtb	r0, r0
 1650              	.LVL136:
 1651              		.loc 1 2726 0
 1652 0062 F9D8     		bhi	.L166
 1653 0064 0001     		lsls	r0, r0, #4
ARM GAS  /tmp/cc65ENol.s 			page 30


 1654              	.LVL137:
 1655 0066 C7B2     		uxtb	r7, r0
 1656              	.L165:
 1657              	.LVL138:
 1658              	.LBE159:
 1659              	.LBE161:
 1660              		.loc 1 1193 0
 1661 0068 107B     		ldrb	r0, [r2, #12]	@ zero_extendqisi2
 1662              	.LVL139:
 1663              	.LBB162:
 1664              	.LBB163:
 1665              		.loc 1 2726 0
 1666 006a 0928     		cmp	r0, #9
 1667              	.LBE163:
 1668              	.LBE162:
 1669              		.loc 1 1191 0
 1670 006c 45EA0705 		orr	r5, r5, r7
 1671              	.LBB165:
 1672              	.LBB164:
 1673              		.loc 1 2724 0
 1674 0070 4FF00007 		mov	r7, #0
 1675              		.loc 1 2726 0
 1676 0074 07D9     		bls	.L167
 1677              	.LVL140:
 1678              	.L168:
 1679              		.loc 1 2729 0
 1680 0076 0A38     		subs	r0, r0, #10
 1681              	.LVL141:
 1682 0078 C0B2     		uxtb	r0, r0
 1683              		.loc 1 2728 0
 1684 007a 0137     		adds	r7, r7, #1
 1685              	.LVL142:
 1686              		.loc 1 2726 0
 1687 007c 0928     		cmp	r0, #9
 1688              		.loc 1 2728 0
 1689 007e FFB2     		uxtb	r7, r7
 1690              	.LVL143:
 1691              		.loc 1 2726 0
 1692 0080 F9D8     		bhi	.L168
 1693 0082 3F01     		lsls	r7, r7, #4
 1694              	.LVL144:
 1695 0084 FFB2     		uxtb	r7, r7
 1696              	.L167:
 1697              	.LVL145:
 1698              	.LBE164:
 1699              	.LBE165:
 1700              		.loc 1 1189 0
 1701 0086 D2E9012C 		ldrd	r2, ip, [r2, #4]
 1702              	.LVL146:
 1703 008a 4CEA0202 		orr	r2, ip, r2
 1704 008e 1643     		orrs	r6, r6, r2
 1705 0090 3343     		orrs	r3, r3, r6
 1706 0092 1C43     		orrs	r4, r4, r3
 1707              		.loc 1 1193 0
 1708 0094 0743     		orrs	r7, r7, r0
 1709              		.loc 1 1189 0
 1710 0096 2543     		orrs	r5, r5, r4
ARM GAS  /tmp/cc65ENol.s 			page 31


 1711 0098 45EA0765 		orr	r5, r5, r7, lsl #24
 1712              	.LVL147:
 1713 009c 13E0     		b	.L171
 1714              	.LVL148:
 1715              	.L157:
 1716              		.loc 1 1149 0
 1717 009e 9868     		ldr	r0, [r3, #8]
 1718              	.LVL149:
 1719 00a0 10F04000 		ands	r0, r0, #64
 1720 00a4 1FD1     		bne	.L160
 1721              		.loc 1 1157 0
 1722 00a6 D070     		strb	r0, [r2, #3]
 1723              	.L161:
 1724              		.loc 1 1179 0
 1725 00a8 D2E90153 		ldrd	r5, r3, [r2, #4]
 1726              		.loc 1 1181 0
 1727 00ac 9678     		ldrb	r6, [r2, #2]	@ zero_extendqisi2
 1728              		.loc 1 1179 0
 1729 00ae 1478     		ldrb	r4, [r2]	@ zero_extendqisi2
 1730              		.loc 1 1183 0
 1731 00b0 177B     		ldrb	r7, [r2, #12]	@ zero_extendqisi2
 1732              		.loc 1 1179 0
 1733 00b2 1D43     		orrs	r5, r5, r3
 1734 00b4 3543     		orrs	r5, r5, r6
 1735              		.loc 1 1180 0
 1736 00b6 5378     		ldrb	r3, [r2, #1]	@ zero_extendqisi2
 1737              		.loc 1 1179 0
 1738 00b8 45EA0445 		orr	r5, r5, r4, lsl #16
 1739 00bc 45EA0325 		orr	r5, r5, r3, lsl #8
 1740 00c0 45EA0765 		orr	r5, r5, r7, lsl #24
 1741 00c4 0543     		orrs	r5, r5, r0
 1742              	.LVL150:
 1743              	.L171:
 1744              		.loc 1 1199 0
 1745 00c6 0D4B     		ldr	r3, .L184
 1746              		.loc 1 1200 0
 1747 00c8 5322     		movs	r2, #83
 1748              		.loc 1 1203 0
 1749 00ca B1F5807F 		cmp	r1, #256
 1750              		.loc 1 1199 0
 1751 00ce 4FF0CA00 		mov	r0, #202
 1752 00d2 5862     		str	r0, [r3, #36]
 1753              		.loc 1 1200 0
 1754 00d4 5A62     		str	r2, [r3, #36]
 1755              		.loc 1 1205 0
 1756 00d6 0CBF     		ite	eq
 1757 00d8 DD61     		streq	r5, [r3, #28]
 1758              		.loc 1 1209 0
 1759 00da 1D62     		strne	r5, [r3, #32]
 1760              		.loc 1 1213 0
 1761 00dc 074B     		ldr	r3, .L184
 1762 00de FF22     		movs	r2, #255
 1763 00e0 5A62     		str	r2, [r3, #36]
 1764              		.loc 1 1214 0
 1765 00e2 F0BC     		pop	{r4, r5, r6, r7}
 1766              		.cfi_remember_state
 1767              		.cfi_restore 7
ARM GAS  /tmp/cc65ENol.s 			page 32


 1768              		.cfi_restore 6
 1769              		.cfi_restore 5
 1770              		.cfi_restore 4
 1771              		.cfi_def_cfa_offset 0
 1772              	.LVL151:
 1773 00e4 7047     		bx	lr
 1774              	.LVL152:
 1775              	.L160:
 1776              		.cfi_restore_state
 1777 00e6 D578     		ldrb	r5, [r2, #3]	@ zero_extendqisi2
 1778 00e8 2804     		lsls	r0, r5, #16
 1779 00ea DDE7     		b	.L161
 1780              	.LVL153:
 1781              	.L158:
 1782 00ec D678     		ldrb	r6, [r2, #3]	@ zero_extendqisi2
 1783 00ee 3604     		lsls	r6, r6, #16
 1784 00f0 8FE7     		b	.L159
 1785              	.LVL154:
 1786              	.L183:
 1787              	.LBB166:
 1788              	.LBB152:
 1789              		.loc 1 2726 0
 1790 00f2 0024     		movs	r4, #0
 1791 00f4 99E7     		b	.L172
 1792              	.LVL155:
 1793              	.L174:
 1794              	.LBE152:
 1795              	.LBE166:
 1796              	.LBB167:
 1797              	.LBB160:
 1798 00f6 0027     		movs	r7, #0
 1799 00f8 B6E7     		b	.L165
 1800              	.L185:
 1801 00fa 00BF     		.align	2
 1802              	.L184:
 1803 00fc 00280040 		.word	1073752064
 1804              	.LBE160:
 1805              	.LBE167:
 1806              		.cfi_endproc
 1807              	.LFE127:
 1808              		.size	RTC_SetAlarm, .-RTC_SetAlarm
 1809              		.section	.text.RTC_AlarmStructInit,"ax",%progbits
 1810              		.align	1
 1811              		.p2align 4,,15
 1812              		.global	RTC_AlarmStructInit
 1813              		.syntax unified
 1814              		.thumb
 1815              		.thumb_func
 1816              		.fpu fpv4-sp-d16
 1817              		.type	RTC_AlarmStructInit, %function
 1818              	RTC_AlarmStructInit:
 1819              	.LFB128:
 1820              		.loc 1 1225 0
 1821              		.cfi_startproc
 1822              		@ args = 0, pretend = 0, frame = 0
 1823              		@ frame_needed = 0, uses_anonymous_args = 0
 1824              		@ link register save eliminated.
ARM GAS  /tmp/cc65ENol.s 			page 33


 1825              	.LVL156:
 1826              		.loc 1 1228 0
 1827 0000 0023     		movs	r3, #0
 1828              		.loc 1 1233 0
 1829 0002 0122     		movs	r2, #1
 1830 0004 0273     		strb	r2, [r0, #12]
 1831              		.loc 1 1227 0
 1832 0006 C0E90033 		strd	r3, r3, [r0]
 1833              		.loc 1 1237 0
 1834 000a 8360     		str	r3, [r0, #8]
 1835              		.loc 1 1238 0
 1836 000c 7047     		bx	lr
 1837              		.cfi_endproc
 1838              	.LFE128:
 1839              		.size	RTC_AlarmStructInit, .-RTC_AlarmStructInit
 1840 000e 00BF     		.section	.text.RTC_GetAlarm,"ax",%progbits
 1841              		.align	1
 1842              		.p2align 4,,15
 1843              		.global	RTC_GetAlarm
 1844              		.syntax unified
 1845              		.thumb
 1846              		.thumb_func
 1847              		.fpu fpv4-sp-d16
 1848              		.type	RTC_GetAlarm, %function
 1849              	RTC_GetAlarm:
 1850              	.LFB129:
 1851              		.loc 1 1255 0
 1852              		.cfi_startproc
 1853              		@ args = 0, pretend = 0, frame = 0
 1854              		@ frame_needed = 0, uses_anonymous_args = 0
 1855              	.LVL157:
 1856              		.loc 1 1265 0
 1857 0000 254B     		ldr	r3, .L192
 1858              		.loc 1 1263 0
 1859 0002 B1F5807F 		cmp	r1, #256
 1860              		.loc 1 1265 0
 1861 0006 0CBF     		ite	eq
 1862 0008 DB69     		ldreq	r3, [r3, #28]
 1863              	.LVL158:
 1864              		.loc 1 1269 0
 1865 000a 1B6A     		ldrne	r3, [r3, #32]
 1866              	.LVL159:
 1867              		.loc 1 1255 0
 1868 000c 2DE9F047 		push	{r4, r5, r6, r7, r8, r9, r10, lr}
 1869              		.cfi_def_cfa_offset 32
 1870              		.cfi_offset 4, -32
 1871              		.cfi_offset 5, -28
 1872              		.cfi_offset 6, -24
 1873              		.cfi_offset 7, -20
 1874              		.cfi_offset 8, -16
 1875              		.cfi_offset 9, -12
 1876              		.cfi_offset 10, -8
 1877              		.cfi_offset 14, -4
 1878              		.loc 1 1273 0
 1879 0010 C3F30741 		ubfx	r1, r3, #16, #8
 1880              	.LVL160:
 1881              		.loc 1 1275 0
ARM GAS  /tmp/cc65ENol.s 			page 34


 1882 0014 C3F3072C 		ubfx	ip, r3, #8, #8
 1883              		.loc 1 1277 0
 1884 0018 DFB2     		uxtb	r7, r3
 1885              		.loc 1 1280 0
 1886 001a 1E0E     		lsrs	r6, r3, #24
 1887              		.loc 1 1281 0
 1888 001c 03F08049 		and	r9, r3, #1073741824
 1889              		.loc 1 1273 0
 1890 0020 01F03F05 		and	r5, r1, #63
 1891              		.loc 1 1279 0
 1892 0024 01F0400A 		and	r10, r1, #64
 1893              		.loc 1 1275 0
 1894 0028 0CF07F04 		and	r4, ip, #127
 1895              		.loc 1 1277 0
 1896 002c 07F07F08 		and	r8, r7, #127
 1897              		.loc 1 1280 0
 1898 0030 06F03F0E 		and	lr, r6, #63
 1899              		.loc 1 1282 0
 1900 0034 03F08033 		and	r3, r3, #-2139062144
 1901              	.LVL161:
 1902              		.loc 1 1273 0
 1903 0038 1570     		strb	r5, [r2]
 1904              		.loc 1 1279 0
 1905 003a 82F803A0 		strb	r10, [r2, #3]
 1906              		.loc 1 1275 0
 1907 003e 5470     		strb	r4, [r2, #1]
 1908              		.loc 1 1277 0
 1909 0040 82F80280 		strb	r8, [r2, #2]
 1910              		.loc 1 1280 0
 1911 0044 82F80CE0 		strb	lr, [r2, #12]
 1912              		.loc 1 1282 0
 1913 0048 C2E90139 		strd	r3, r9, [r2, #4]
 1914              		.loc 1 1284 0
 1915 004c 08BB     		cbnz	r0, .L187
 1916              	.LBB168:
 1917              	.LBB169:
 1918              		.loc 1 2743 0
 1919 004e 2D09     		lsrs	r5, r5, #4
 1920              	.LBE169:
 1921              	.LBE168:
 1922              	.LBB173:
 1923              	.LBB174:
 1924 0050 2409     		lsrs	r4, r4, #4
 1925              	.LBE174:
 1926              	.LBE173:
 1927              	.LBB178:
 1928              	.LBB179:
 1929 0052 4FEA1810 		lsr	r0, r8, #4
 1930              	.LVL162:
 1931              	.LBE179:
 1932              	.LBE178:
 1933              	.LBB183:
 1934              	.LBB184:
 1935 0056 4FEA1E13 		lsr	r3, lr, #4
 1936              	.LBE184:
 1937              	.LBE183:
 1938              	.LBB188:
ARM GAS  /tmp/cc65ENol.s 			page 35


 1939              	.LBB170:
 1940 005a 05EB8505 		add	r5, r5, r5, lsl #2
 1941              	.LBE170:
 1942              	.LBE188:
 1943              	.LBB189:
 1944              	.LBB175:
 1945 005e 04EB8404 		add	r4, r4, r4, lsl #2
 1946              	.LBE175:
 1947              	.LBE189:
 1948              	.LBB190:
 1949              	.LBB180:
 1950 0062 00EB8000 		add	r0, r0, r0, lsl #2
 1951              	.LBE180:
 1952              	.LBE190:
 1953              	.LBB191:
 1954              	.LBB185:
 1955 0066 03EB8303 		add	r3, r3, r3, lsl #2
 1956              	.LBE185:
 1957              	.LBE191:
 1958              	.LBB192:
 1959              	.LBB171:
 1960              		.loc 1 2744 0
 1961 006a 01F00F01 		and	r1, r1, #15
 1962              	.LBE171:
 1963              	.LBE192:
 1964              	.LBB193:
 1965              	.LBB176:
 1966 006e 0CF00F0C 		and	ip, ip, #15
 1967              	.LBE176:
 1968              	.LBE193:
 1969              	.LBB194:
 1970              	.LBB181:
 1971 0072 07F00F07 		and	r7, r7, #15
 1972              	.LBE181:
 1973              	.LBE194:
 1974              	.LBB195:
 1975              	.LBB186:
 1976 0076 06F00F06 		and	r6, r6, #15
 1977              	.LBE186:
 1978              	.LBE195:
 1979              	.LBB196:
 1980              	.LBB172:
 1981 007a 01EB4501 		add	r1, r1, r5, lsl #1
 1982              	.LBE172:
 1983              	.LBE196:
 1984              	.LBB197:
 1985              	.LBB177:
 1986 007e 0CEB4404 		add	r4, ip, r4, lsl #1
 1987              	.LBE177:
 1988              	.LBE197:
 1989              	.LBB198:
 1990              	.LBB182:
 1991 0082 07EB4000 		add	r0, r7, r0, lsl #1
 1992              	.LBE182:
 1993              	.LBE198:
 1994              	.LBB199:
 1995              	.LBB187:
ARM GAS  /tmp/cc65ENol.s 			page 36


 1996 0086 06EB4303 		add	r3, r6, r3, lsl #1
 1997              	.LBE187:
 1998              	.LBE199:
 1999              		.loc 1 1286 0
 2000 008a 1170     		strb	r1, [r2]
 2001              		.loc 1 1288 0
 2002 008c 5470     		strb	r4, [r2, #1]
 2003              		.loc 1 1290 0
 2004 008e 9070     		strb	r0, [r2, #2]
 2005              		.loc 1 1292 0
 2006 0090 1373     		strb	r3, [r2, #12]
 2007              	.L187:
 2008              		.loc 1 1294 0
 2009 0092 BDE8F087 		pop	{r4, r5, r6, r7, r8, r9, r10, pc}
 2010              	.L193:
 2011 0096 00BF     		.align	2
 2012              	.L192:
 2013 0098 00280040 		.word	1073752064
 2014              		.cfi_endproc
 2015              	.LFE129:
 2016              		.size	RTC_GetAlarm, .-RTC_GetAlarm
 2017              		.section	.text.RTC_AlarmCmd,"ax",%progbits
 2018              		.align	1
 2019              		.p2align 4,,15
 2020              		.global	RTC_AlarmCmd
 2021              		.syntax unified
 2022              		.thumb
 2023              		.thumb_func
 2024              		.fpu fpv4-sp-d16
 2025              		.type	RTC_AlarmCmd, %function
 2026              	RTC_AlarmCmd:
 2027              	.LFB130:
 2028              		.loc 1 1309 0
 2029              		.cfi_startproc
 2030              		@ args = 0, pretend = 0, frame = 8
 2031              		@ frame_needed = 0, uses_anonymous_args = 0
 2032              		@ link register save eliminated.
 2033              	.LVL163:
 2034 0000 30B4     		push	{r4, r5}
 2035              		.cfi_def_cfa_offset 8
 2036              		.cfi_offset 4, -8
 2037              		.cfi_offset 5, -4
 2038              		.loc 1 1319 0
 2039 0002 154B     		ldr	r3, .L207
 2040              		.loc 1 1309 0
 2041 0004 82B0     		sub	sp, sp, #8
 2042              		.cfi_def_cfa_offset 16
 2043              		.loc 1 1320 0
 2044 0006 5322     		movs	r2, #83
 2045              		.loc 1 1310 0
 2046 0008 0025     		movs	r5, #0
 2047              		.loc 1 1319 0
 2048 000a CA24     		movs	r4, #202
 2049              		.loc 1 1310 0
 2050 000c 0195     		str	r5, [sp, #4]
 2051              	.LVL164:
 2052              		.loc 1 1319 0
ARM GAS  /tmp/cc65ENol.s 			page 37


 2053 000e 5C62     		str	r4, [r3, #36]
 2054              		.loc 1 1320 0
 2055 0010 5A62     		str	r2, [r3, #36]
 2056              		.loc 1 1325 0
 2057 0012 9A68     		ldr	r2, [r3, #8]
 2058              		.loc 1 1323 0
 2059 0014 E1B9     		cbnz	r1, .L205
 2060              		.loc 1 1332 0
 2061 0016 22EA0002 		bic	r2, r2, r0
 2062 001a 9A60     		str	r2, [r3, #8]
 2063              		.loc 1 1337 0
 2064 001c 000A     		lsrs	r0, r0, #8
 2065              	.LVL165:
 2066 001e 1946     		mov	r1, r3
 2067              	.LVL166:
 2068 0020 00E0     		b	.L198
 2069              	.LVL167:
 2070              	.L206:
 2071              		.loc 1 1339 0 discriminator 1
 2072 0022 4AB9     		cbnz	r2, .L197
 2073              	.LVL168:
 2074              	.L198:
 2075              		.loc 1 1337 0 discriminator 2
 2076 0024 CA68     		ldr	r2, [r1, #12]
 2077              		.loc 1 1338 0 discriminator 2
 2078 0026 019B     		ldr	r3, [sp, #4]
 2079 0028 0133     		adds	r3, r3, #1
 2080 002a 0193     		str	r3, [sp, #4]
 2081              		.loc 1 1339 0 discriminator 2
 2082 002c 019B     		ldr	r3, [sp, #4]
 2083 002e B3F5803F 		cmp	r3, #65536
 2084              		.loc 1 1337 0 discriminator 2
 2085 0032 02EA0002 		and	r2, r2, r0
 2086              	.LVL169:
 2087              		.loc 1 1339 0 discriminator 2
 2088 0036 F4D1     		bne	.L206
 2089              	.L197:
 2090              		.loc 1 1341 0
 2091 0038 074B     		ldr	r3, .L207
 2092 003a DB68     		ldr	r3, [r3, #12]
 2093 003c 1842     		tst	r0, r3
 2094              		.loc 1 1327 0
 2095 003e 14BF     		ite	ne
 2096 0040 0120     		movne	r0, #1
 2097 0042 0020     		moveq	r0, #0
 2098              	.LVL170:
 2099              	.L196:
 2100              		.loc 1 1352 0
 2101 0044 044B     		ldr	r3, .L207
 2102 0046 FF22     		movs	r2, #255
 2103 0048 5A62     		str	r2, [r3, #36]
 2104              		.loc 1 1355 0
 2105 004a 02B0     		add	sp, sp, #8
 2106              		.cfi_remember_state
 2107              		.cfi_def_cfa_offset 8
 2108              		@ sp needed
 2109 004c 30BC     		pop	{r4, r5}
ARM GAS  /tmp/cc65ENol.s 			page 38


 2110              		.cfi_restore 5
 2111              		.cfi_restore 4
 2112              		.cfi_def_cfa_offset 0
 2113 004e 7047     		bx	lr
 2114              	.LVL171:
 2115              	.L205:
 2116              		.cfi_restore_state
 2117              		.loc 1 1325 0
 2118 0050 1043     		orrs	r0, r0, r2
 2119              	.LVL172:
 2120 0052 9860     		str	r0, [r3, #8]
 2121              	.LVL173:
 2122              		.loc 1 1327 0
 2123 0054 0120     		movs	r0, #1
 2124 0056 F5E7     		b	.L196
 2125              	.L208:
 2126              		.align	2
 2127              	.L207:
 2128 0058 00280040 		.word	1073752064
 2129              		.cfi_endproc
 2130              	.LFE130:
 2131              		.size	RTC_AlarmCmd, .-RTC_AlarmCmd
 2132              		.section	.text.RTC_AlarmSubSecondConfig,"ax",%progbits
 2133              		.align	1
 2134              		.p2align 4,,15
 2135              		.global	RTC_AlarmSubSecondConfig
 2136              		.syntax unified
 2137              		.thumb
 2138              		.thumb_func
 2139              		.fpu fpv4-sp-d16
 2140              		.type	RTC_AlarmSubSecondConfig, %function
 2141              	RTC_AlarmSubSecondConfig:
 2142              	.LFB131:
 2143              		.loc 1 1403 0
 2144              		.cfi_startproc
 2145              		@ args = 0, pretend = 0, frame = 0
 2146              		@ frame_needed = 0, uses_anonymous_args = 0
 2147              		@ link register save eliminated.
 2148              	.LVL174:
 2149 0000 30B4     		push	{r4, r5}
 2150              		.cfi_def_cfa_offset 8
 2151              		.cfi_offset 4, -8
 2152              		.cfi_offset 5, -4
 2153              		.loc 1 1412 0
 2154 0002 084B     		ldr	r3, .L213
 2155              		.loc 1 1416 0
 2156 0004 0A43     		orrs	r2, r2, r1
 2157              	.LVL175:
 2158              		.loc 1 1412 0
 2159 0006 CA25     		movs	r5, #202
 2160              		.loc 1 1413 0
 2161 0008 5324     		movs	r4, #83
 2162              		.loc 1 1418 0
 2163 000a B0F5807F 		cmp	r0, #256
 2164              		.loc 1 1412 0
 2165 000e 5D62     		str	r5, [r3, #36]
 2166              		.loc 1 1413 0
ARM GAS  /tmp/cc65ENol.s 			page 39


 2167 0010 5C62     		str	r4, [r3, #36]
 2168              		.loc 1 1421 0
 2169 0012 0CBF     		ite	eq
 2170 0014 5A64     		streq	r2, [r3, #68]
 2171              		.loc 1 1426 0
 2172 0016 9A64     		strne	r2, [r3, #72]
 2173              		.loc 1 1430 0
 2174 0018 024B     		ldr	r3, .L213
 2175 001a FF22     		movs	r2, #255
 2176              	.LVL176:
 2177 001c 5A62     		str	r2, [r3, #36]
 2178              		.loc 1 1432 0
 2179 001e 30BC     		pop	{r4, r5}
 2180              		.cfi_restore 5
 2181              		.cfi_restore 4
 2182              		.cfi_def_cfa_offset 0
 2183 0020 7047     		bx	lr
 2184              	.L214:
 2185 0022 00BF     		.align	2
 2186              	.L213:
 2187 0024 00280040 		.word	1073752064
 2188              		.cfi_endproc
 2189              	.LFE131:
 2190              		.size	RTC_AlarmSubSecondConfig, .-RTC_AlarmSubSecondConfig
 2191              		.section	.text.RTC_GetAlarmSubSecond,"ax",%progbits
 2192              		.align	1
 2193              		.p2align 4,,15
 2194              		.global	RTC_GetAlarmSubSecond
 2195              		.syntax unified
 2196              		.thumb
 2197              		.thumb_func
 2198              		.fpu fpv4-sp-d16
 2199              		.type	RTC_GetAlarmSubSecond, %function
 2200              	RTC_GetAlarmSubSecond:
 2201              	.LFB132:
 2202              		.loc 1 1444 0
 2203              		.cfi_startproc
 2204              		@ args = 0, pretend = 0, frame = 0
 2205              		@ frame_needed = 0, uses_anonymous_args = 0
 2206              		@ link register save eliminated.
 2207              	.LVL177:
 2208              		.loc 1 1450 0
 2209 0000 044B     		ldr	r3, .L218
 2210              		.loc 1 1448 0
 2211 0002 B0F5807F 		cmp	r0, #256
 2212              		.loc 1 1450 0
 2213 0006 0CBF     		ite	eq
 2214 0008 586C     		ldreq	r0, [r3, #68]
 2215              	.LVL178:
 2216              		.loc 1 1454 0
 2217 000a 986C     		ldrne	r0, [r3, #72]
 2218 000c C0F30E00 		ubfx	r0, r0, #0, #15
 2219              	.LVL179:
 2220              		.loc 1 1458 0
 2221 0010 7047     		bx	lr
 2222              	.L219:
 2223 0012 00BF     		.align	2
ARM GAS  /tmp/cc65ENol.s 			page 40


 2224              	.L218:
 2225 0014 00280040 		.word	1073752064
 2226              		.cfi_endproc
 2227              	.LFE132:
 2228              		.size	RTC_GetAlarmSubSecond, .-RTC_GetAlarmSubSecond
 2229              		.section	.text.RTC_WakeUpClockConfig,"ax",%progbits
 2230              		.align	1
 2231              		.p2align 4,,15
 2232              		.global	RTC_WakeUpClockConfig
 2233              		.syntax unified
 2234              		.thumb
 2235              		.thumb_func
 2236              		.fpu fpv4-sp-d16
 2237              		.type	RTC_WakeUpClockConfig, %function
 2238              	RTC_WakeUpClockConfig:
 2239              	.LFB133:
 2240              		.loc 1 1493 0
 2241              		.cfi_startproc
 2242              		@ args = 0, pretend = 0, frame = 0
 2243              		@ frame_needed = 0, uses_anonymous_args = 0
 2244              		@ link register save eliminated.
 2245              	.LVL180:
 2246              		.loc 1 1498 0
 2247 0000 074B     		ldr	r3, .L221
 2248 0002 CA21     		movs	r1, #202
 2249              		.loc 1 1499 0
 2250 0004 5322     		movs	r2, #83
 2251              		.loc 1 1498 0
 2252 0006 5962     		str	r1, [r3, #36]
 2253              		.loc 1 1499 0
 2254 0008 5A62     		str	r2, [r3, #36]
 2255              		.loc 1 1502 0
 2256 000a 9A68     		ldr	r2, [r3, #8]
 2257 000c 22F00702 		bic	r2, r2, #7
 2258 0010 9A60     		str	r2, [r3, #8]
 2259              		.loc 1 1505 0
 2260 0012 9A68     		ldr	r2, [r3, #8]
 2261              		.loc 1 1508 0
 2262 0014 FF21     		movs	r1, #255
 2263              		.loc 1 1505 0
 2264 0016 1043     		orrs	r0, r0, r2
 2265              	.LVL181:
 2266 0018 9860     		str	r0, [r3, #8]
 2267              		.loc 1 1508 0
 2268 001a 5962     		str	r1, [r3, #36]
 2269              		.loc 1 1509 0
 2270 001c 7047     		bx	lr
 2271              	.L222:
 2272 001e 00BF     		.align	2
 2273              	.L221:
 2274 0020 00280040 		.word	1073752064
 2275              		.cfi_endproc
 2276              	.LFE133:
 2277              		.size	RTC_WakeUpClockConfig, .-RTC_WakeUpClockConfig
 2278              		.section	.text.RTC_SetWakeUpCounter,"ax",%progbits
 2279              		.align	1
 2280              		.p2align 4,,15
ARM GAS  /tmp/cc65ENol.s 			page 41


 2281              		.global	RTC_SetWakeUpCounter
 2282              		.syntax unified
 2283              		.thumb
 2284              		.thumb_func
 2285              		.fpu fpv4-sp-d16
 2286              		.type	RTC_SetWakeUpCounter, %function
 2287              	RTC_SetWakeUpCounter:
 2288              	.LFB134:
 2289              		.loc 1 1520 0
 2290              		.cfi_startproc
 2291              		@ args = 0, pretend = 0, frame = 0
 2292              		@ frame_needed = 0, uses_anonymous_args = 0
 2293              		@ link register save eliminated.
 2294              	.LVL182:
 2295              		.loc 1 1525 0
 2296 0000 054B     		ldr	r3, .L225
 2297              		.loc 1 1520 0
 2298 0002 10B4     		push	{r4}
 2299              		.cfi_def_cfa_offset 4
 2300              		.cfi_offset 4, -4
 2301              		.loc 1 1526 0
 2302 0004 5321     		movs	r1, #83
 2303              		.loc 1 1525 0
 2304 0006 CA24     		movs	r4, #202
 2305              		.loc 1 1532 0
 2306 0008 FF22     		movs	r2, #255
 2307              		.loc 1 1525 0
 2308 000a 5C62     		str	r4, [r3, #36]
 2309              		.loc 1 1526 0
 2310 000c 5962     		str	r1, [r3, #36]
 2311              		.loc 1 1533 0
 2312 000e 5DF8044B 		ldr	r4, [sp], #4
 2313              		.cfi_restore 4
 2314              		.cfi_def_cfa_offset 0
 2315              		.loc 1 1529 0
 2316 0012 5861     		str	r0, [r3, #20]
 2317              		.loc 1 1532 0
 2318 0014 5A62     		str	r2, [r3, #36]
 2319              		.loc 1 1533 0
 2320 0016 7047     		bx	lr
 2321              	.L226:
 2322              		.align	2
 2323              	.L225:
 2324 0018 00280040 		.word	1073752064
 2325              		.cfi_endproc
 2326              	.LFE134:
 2327              		.size	RTC_SetWakeUpCounter, .-RTC_SetWakeUpCounter
 2328              		.section	.text.RTC_GetWakeUpCounter,"ax",%progbits
 2329              		.align	1
 2330              		.p2align 4,,15
 2331              		.global	RTC_GetWakeUpCounter
 2332              		.syntax unified
 2333              		.thumb
 2334              		.thumb_func
 2335              		.fpu fpv4-sp-d16
 2336              		.type	RTC_GetWakeUpCounter, %function
 2337              	RTC_GetWakeUpCounter:
ARM GAS  /tmp/cc65ENol.s 			page 42


 2338              	.LFB135:
 2339              		.loc 1 1541 0
 2340              		.cfi_startproc
 2341              		@ args = 0, pretend = 0, frame = 0
 2342              		@ frame_needed = 0, uses_anonymous_args = 0
 2343              		@ link register save eliminated.
 2344              		.loc 1 1543 0
 2345 0000 014B     		ldr	r3, .L228
 2346 0002 5869     		ldr	r0, [r3, #20]
 2347              		.loc 1 1544 0
 2348 0004 80B2     		uxth	r0, r0
 2349 0006 7047     		bx	lr
 2350              	.L229:
 2351              		.align	2
 2352              	.L228:
 2353 0008 00280040 		.word	1073752064
 2354              		.cfi_endproc
 2355              	.LFE135:
 2356              		.size	RTC_GetWakeUpCounter, .-RTC_GetWakeUpCounter
 2357              		.section	.text.RTC_WakeUpCmd,"ax",%progbits
 2358              		.align	1
 2359              		.p2align 4,,15
 2360              		.global	RTC_WakeUpCmd
 2361              		.syntax unified
 2362              		.thumb
 2363              		.thumb_func
 2364              		.fpu fpv4-sp-d16
 2365              		.type	RTC_WakeUpCmd, %function
 2366              	RTC_WakeUpCmd:
 2367              	.LFB136:
 2368              		.loc 1 1553 0
 2369              		.cfi_startproc
 2370              		@ args = 0, pretend = 0, frame = 8
 2371              		@ frame_needed = 0, uses_anonymous_args = 0
 2372              		@ link register save eliminated.
 2373              	.LVL183:
 2374 0000 10B4     		push	{r4}
 2375              		.cfi_def_cfa_offset 4
 2376              		.cfi_offset 4, -4
 2377              		.loc 1 1562 0
 2378 0002 154B     		ldr	r3, .L243
 2379              		.loc 1 1553 0
 2380 0004 83B0     		sub	sp, sp, #12
 2381              		.cfi_def_cfa_offset 16
 2382              		.loc 1 1563 0
 2383 0006 5322     		movs	r2, #83
 2384              		.loc 1 1554 0
 2385 0008 0024     		movs	r4, #0
 2386              		.loc 1 1562 0
 2387 000a CA21     		movs	r1, #202
 2388              		.loc 1 1554 0
 2389 000c 0194     		str	r4, [sp, #4]
 2390              	.LVL184:
 2391              		.loc 1 1562 0
 2392 000e 5962     		str	r1, [r3, #36]
 2393              		.loc 1 1563 0
 2394 0010 5A62     		str	r2, [r3, #36]
ARM GAS  /tmp/cc65ENol.s 			page 43


 2395              		.loc 1 1568 0
 2396 0012 9A68     		ldr	r2, [r3, #8]
 2397              		.loc 1 1565 0
 2398 0014 D0B9     		cbnz	r0, .L241
 2399              		.loc 1 1574 0
 2400 0016 22F48062 		bic	r2, r2, #1024
 2401 001a 9A60     		str	r2, [r3, #8]
 2402              		.loc 1 1578 0
 2403 001c 1946     		mov	r1, r3
 2404 001e 00E0     		b	.L234
 2405              	.LVL185:
 2406              	.L242:
 2407              		.loc 1 1580 0 discriminator 1
 2408 0020 4AB9     		cbnz	r2, .L233
 2409              	.LVL186:
 2410              	.L234:
 2411              		.loc 1 1578 0 discriminator 2
 2412 0022 CA68     		ldr	r2, [r1, #12]
 2413              		.loc 1 1579 0 discriminator 2
 2414 0024 019B     		ldr	r3, [sp, #4]
 2415 0026 0133     		adds	r3, r3, #1
 2416 0028 0193     		str	r3, [sp, #4]
 2417              		.loc 1 1580 0 discriminator 2
 2418 002a 019B     		ldr	r3, [sp, #4]
 2419 002c B3F5803F 		cmp	r3, #65536
 2420              		.loc 1 1578 0 discriminator 2
 2421 0030 02F00402 		and	r2, r2, #4
 2422              	.LVL187:
 2423              		.loc 1 1580 0 discriminator 2
 2424 0034 F4D1     		bne	.L242
 2425              	.L233:
 2426              		.loc 1 1582 0
 2427 0036 084B     		ldr	r3, .L243
 2428 0038 D868     		ldr	r0, [r3, #12]
 2429              	.LVL188:
 2430              		.loc 1 1569 0
 2431 003a C0F38000 		ubfx	r0, r0, #2, #1
 2432              	.LVL189:
 2433              	.L232:
 2434              		.loc 1 1593 0
 2435 003e 064B     		ldr	r3, .L243
 2436 0040 FF22     		movs	r2, #255
 2437 0042 5A62     		str	r2, [r3, #36]
 2438              		.loc 1 1596 0
 2439 0044 03B0     		add	sp, sp, #12
 2440              		.cfi_remember_state
 2441              		.cfi_def_cfa_offset 4
 2442              		@ sp needed
 2443 0046 5DF8044B 		ldr	r4, [sp], #4
 2444              		.cfi_restore 4
 2445              		.cfi_def_cfa_offset 0
 2446 004a 7047     		bx	lr
 2447              	.LVL190:
 2448              	.L241:
 2449              		.cfi_restore_state
 2450              		.loc 1 1568 0
 2451 004c 42F48062 		orr	r2, r2, #1024
ARM GAS  /tmp/cc65ENol.s 			page 44


 2452 0050 9A60     		str	r2, [r3, #8]
 2453              	.LVL191:
 2454              		.loc 1 1569 0
 2455 0052 0120     		movs	r0, #1
 2456              	.LVL192:
 2457 0054 F3E7     		b	.L232
 2458              	.L244:
 2459 0056 00BF     		.align	2
 2460              	.L243:
 2461 0058 00280040 		.word	1073752064
 2462              		.cfi_endproc
 2463              	.LFE136:
 2464              		.size	RTC_WakeUpCmd, .-RTC_WakeUpCmd
 2465              		.section	.text.RTC_DayLightSavingConfig,"ax",%progbits
 2466              		.align	1
 2467              		.p2align 4,,15
 2468              		.global	RTC_DayLightSavingConfig
 2469              		.syntax unified
 2470              		.thumb
 2471              		.thumb_func
 2472              		.fpu fpv4-sp-d16
 2473              		.type	RTC_DayLightSavingConfig, %function
 2474              	RTC_DayLightSavingConfig:
 2475              	.LFB137:
 2476              		.loc 1 1630 0
 2477              		.cfi_startproc
 2478              		@ args = 0, pretend = 0, frame = 0
 2479              		@ frame_needed = 0, uses_anonymous_args = 0
 2480              		@ link register save eliminated.
 2481              	.LVL193:
 2482              		.loc 1 1636 0
 2483 0000 094B     		ldr	r3, .L247
 2484              		.loc 1 1630 0
 2485 0002 10B4     		push	{r4}
 2486              		.cfi_def_cfa_offset 4
 2487              		.cfi_offset 4, -4
 2488              		.loc 1 1637 0
 2489 0004 5322     		movs	r2, #83
 2490              		.loc 1 1636 0
 2491 0006 CA24     		movs	r4, #202
 2492 0008 5C62     		str	r4, [r3, #36]
 2493              		.loc 1 1637 0
 2494 000a 5A62     		str	r2, [r3, #36]
 2495              		.loc 1 1640 0
 2496 000c 9A68     		ldr	r2, [r3, #8]
 2497              		.loc 1 1647 0
 2498 000e 5DF8044B 		ldr	r4, [sp], #4
 2499              		.cfi_restore 4
 2500              		.cfi_def_cfa_offset 0
 2501              		.loc 1 1640 0
 2502 0012 22F48022 		bic	r2, r2, #262144
 2503 0016 9A60     		str	r2, [r3, #8]
 2504              		.loc 1 1643 0
 2505 0018 9A68     		ldr	r2, [r3, #8]
 2506 001a 1143     		orrs	r1, r1, r2
 2507              	.LVL194:
 2508 001c 0143     		orrs	r1, r1, r0
ARM GAS  /tmp/cc65ENol.s 			page 45


 2509              		.loc 1 1646 0
 2510 001e FF22     		movs	r2, #255
 2511              		.loc 1 1643 0
 2512 0020 9960     		str	r1, [r3, #8]
 2513              		.loc 1 1646 0
 2514 0022 5A62     		str	r2, [r3, #36]
 2515              		.loc 1 1647 0
 2516 0024 7047     		bx	lr
 2517              	.L248:
 2518 0026 00BF     		.align	2
 2519              	.L247:
 2520 0028 00280040 		.word	1073752064
 2521              		.cfi_endproc
 2522              	.LFE137:
 2523              		.size	RTC_DayLightSavingConfig, .-RTC_DayLightSavingConfig
 2524              		.section	.text.RTC_GetStoreOperation,"ax",%progbits
 2525              		.align	1
 2526              		.p2align 4,,15
 2527              		.global	RTC_GetStoreOperation
 2528              		.syntax unified
 2529              		.thumb
 2530              		.thumb_func
 2531              		.fpu fpv4-sp-d16
 2532              		.type	RTC_GetStoreOperation, %function
 2533              	RTC_GetStoreOperation:
 2534              	.LFB138:
 2535              		.loc 1 1657 0
 2536              		.cfi_startproc
 2537              		@ args = 0, pretend = 0, frame = 0
 2538              		@ frame_needed = 0, uses_anonymous_args = 0
 2539              		@ link register save eliminated.
 2540              		.loc 1 1658 0
 2541 0000 024B     		ldr	r3, .L250
 2542 0002 9868     		ldr	r0, [r3, #8]
 2543              		.loc 1 1659 0
 2544 0004 00F48020 		and	r0, r0, #262144
 2545 0008 7047     		bx	lr
 2546              	.L251:
 2547 000a 00BF     		.align	2
 2548              	.L250:
 2549 000c 00280040 		.word	1073752064
 2550              		.cfi_endproc
 2551              	.LFE138:
 2552              		.size	RTC_GetStoreOperation, .-RTC_GetStoreOperation
 2553              		.section	.text.RTC_OutputConfig,"ax",%progbits
 2554              		.align	1
 2555              		.p2align 4,,15
 2556              		.global	RTC_OutputConfig
 2557              		.syntax unified
 2558              		.thumb
 2559              		.thumb_func
 2560              		.fpu fpv4-sp-d16
 2561              		.type	RTC_OutputConfig, %function
 2562              	RTC_OutputConfig:
 2563              	.LFB139:
 2564              		.loc 1 1696 0
 2565              		.cfi_startproc
ARM GAS  /tmp/cc65ENol.s 			page 46


 2566              		@ args = 0, pretend = 0, frame = 0
 2567              		@ frame_needed = 0, uses_anonymous_args = 0
 2568              		@ link register save eliminated.
 2569              	.LVL195:
 2570              		.loc 1 1702 0
 2571 0000 094B     		ldr	r3, .L254
 2572              		.loc 1 1696 0
 2573 0002 10B4     		push	{r4}
 2574              		.cfi_def_cfa_offset 4
 2575              		.cfi_offset 4, -4
 2576              		.loc 1 1703 0
 2577 0004 5322     		movs	r2, #83
 2578              		.loc 1 1702 0
 2579 0006 CA24     		movs	r4, #202
 2580 0008 5C62     		str	r4, [r3, #36]
 2581              		.loc 1 1703 0
 2582 000a 5A62     		str	r2, [r3, #36]
 2583              		.loc 1 1706 0
 2584 000c 9A68     		ldr	r2, [r3, #8]
 2585              		.loc 1 1713 0
 2586 000e 5DF8044B 		ldr	r4, [sp], #4
 2587              		.cfi_restore 4
 2588              		.cfi_def_cfa_offset 0
 2589              		.loc 1 1706 0
 2590 0012 22F4E002 		bic	r2, r2, #7340032
 2591 0016 9A60     		str	r2, [r3, #8]
 2592              		.loc 1 1709 0
 2593 0018 9A68     		ldr	r2, [r3, #8]
 2594 001a 1143     		orrs	r1, r1, r2
 2595              	.LVL196:
 2596 001c 0143     		orrs	r1, r1, r0
 2597              		.loc 1 1712 0
 2598 001e FF22     		movs	r2, #255
 2599              		.loc 1 1709 0
 2600 0020 9960     		str	r1, [r3, #8]
 2601              		.loc 1 1712 0
 2602 0022 5A62     		str	r2, [r3, #36]
 2603              		.loc 1 1713 0
 2604 0024 7047     		bx	lr
 2605              	.L255:
 2606 0026 00BF     		.align	2
 2607              	.L254:
 2608 0028 00280040 		.word	1073752064
 2609              		.cfi_endproc
 2610              	.LFE139:
 2611              		.size	RTC_OutputConfig, .-RTC_OutputConfig
 2612              		.section	.text.RTC_CoarseCalibConfig,"ax",%progbits
 2613              		.align	1
 2614              		.p2align 4,,15
 2615              		.global	RTC_CoarseCalibConfig
 2616              		.syntax unified
 2617              		.thumb
 2618              		.thumb_func
 2619              		.fpu fpv4-sp-d16
 2620              		.type	RTC_CoarseCalibConfig, %function
 2621              	RTC_CoarseCalibConfig:
 2622              	.LFB140:
ARM GAS  /tmp/cc65ENol.s 			page 47


 2623              		.loc 1 1750 0
 2624              		.cfi_startproc
 2625              		@ args = 0, pretend = 0, frame = 0
 2626              		@ frame_needed = 0, uses_anonymous_args = 0
 2627              	.LVL197:
 2628 0000 70B5     		push	{r4, r5, r6, lr}
 2629              		.cfi_def_cfa_offset 16
 2630              		.cfi_offset 4, -16
 2631              		.cfi_offset 5, -12
 2632              		.cfi_offset 6, -8
 2633              		.cfi_offset 14, -4
 2634              		.loc 1 1758 0
 2635 0002 0A4C     		ldr	r4, .L262
 2636 0004 CA22     		movs	r2, #202
 2637              		.loc 1 1759 0
 2638 0006 5323     		movs	r3, #83
 2639              		.loc 1 1758 0
 2640 0008 6262     		str	r2, [r4, #36]
 2641              		.loc 1 1759 0
 2642 000a 6362     		str	r3, [r4, #36]
 2643              		.loc 1 1750 0
 2644 000c 0546     		mov	r5, r0
 2645 000e 0E46     		mov	r6, r1
 2646              		.loc 1 1762 0
 2647 0010 FFF7FEFF 		bl	RTC_EnterInitMode
 2648              	.LVL198:
 2649 0014 30B1     		cbz	r0, .L257
 2650              		.loc 1 1769 0
 2651 0016 3543     		orrs	r5, r5, r6
 2652              	.LVL199:
 2653 0018 A561     		str	r5, [r4, #24]
 2654              	.LBB200:
 2655              	.LBB201:
 2656              		.loc 1 598 0
 2657 001a E368     		ldr	r3, [r4, #12]
 2658 001c 23F08003 		bic	r3, r3, #128
 2659 0020 E360     		str	r3, [r4, #12]
 2660              	.LVL200:
 2661              	.LBE201:
 2662              	.LBE200:
 2663              		.loc 1 1773 0
 2664 0022 0120     		movs	r0, #1
 2665              	.LVL201:
 2666              	.L257:
 2667              		.loc 1 1777 0
 2668 0024 014B     		ldr	r3, .L262
 2669 0026 FF22     		movs	r2, #255
 2670 0028 5A62     		str	r2, [r3, #36]
 2671              		.loc 1 1780 0
 2672 002a 70BD     		pop	{r4, r5, r6, pc}
 2673              	.LVL202:
 2674              	.L263:
 2675              		.align	2
 2676              	.L262:
 2677 002c 00280040 		.word	1073752064
 2678              		.cfi_endproc
 2679              	.LFE140:
ARM GAS  /tmp/cc65ENol.s 			page 48


 2680              		.size	RTC_CoarseCalibConfig, .-RTC_CoarseCalibConfig
 2681              		.section	.text.RTC_CoarseCalibCmd,"ax",%progbits
 2682              		.align	1
 2683              		.p2align 4,,15
 2684              		.global	RTC_CoarseCalibCmd
 2685              		.syntax unified
 2686              		.thumb
 2687              		.thumb_func
 2688              		.fpu fpv4-sp-d16
 2689              		.type	RTC_CoarseCalibCmd, %function
 2690              	RTC_CoarseCalibCmd:
 2691              	.LFB141:
 2692              		.loc 1 1791 0
 2693              		.cfi_startproc
 2694              		@ args = 0, pretend = 0, frame = 0
 2695              		@ frame_needed = 0, uses_anonymous_args = 0
 2696              	.LVL203:
 2697 0000 38B5     		push	{r3, r4, r5, lr}
 2698              		.cfi_def_cfa_offset 16
 2699              		.cfi_offset 3, -16
 2700              		.cfi_offset 4, -12
 2701              		.cfi_offset 5, -8
 2702              		.cfi_offset 14, -4
 2703              		.loc 1 1798 0
 2704 0002 0E4C     		ldr	r4, .L273
 2705 0004 CA22     		movs	r2, #202
 2706              		.loc 1 1799 0
 2707 0006 5323     		movs	r3, #83
 2708              		.loc 1 1798 0
 2709 0008 6262     		str	r2, [r4, #36]
 2710              		.loc 1 1799 0
 2711 000a 6362     		str	r3, [r4, #36]
 2712              		.loc 1 1791 0
 2713 000c 0546     		mov	r5, r0
 2714              		.loc 1 1802 0
 2715 000e FFF7FEFF 		bl	RTC_EnterInitMode
 2716              	.LVL204:
 2717 0012 50B1     		cbz	r0, .L265
 2718              		.loc 1 1811 0
 2719 0014 A368     		ldr	r3, [r4, #8]
 2720              		.loc 1 1808 0
 2721 0016 65B9     		cbnz	r5, .L272
 2722              		.loc 1 1816 0
 2723 0018 23F08003 		bic	r3, r3, #128
 2724 001c A360     		str	r3, [r4, #8]
 2725              	.L267:
 2726              	.LBB202:
 2727              	.LBB203:
 2728              		.loc 1 598 0
 2729 001e 074A     		ldr	r2, .L273
 2730 0020 D368     		ldr	r3, [r2, #12]
 2731 0022 23F08003 		bic	r3, r3, #128
 2732 0026 D360     		str	r3, [r2, #12]
 2733              	.LVL205:
 2734              	.LBE203:
 2735              	.LBE202:
 2736              		.loc 1 1821 0
ARM GAS  /tmp/cc65ENol.s 			page 49


 2737 0028 0120     		movs	r0, #1
 2738              	.LVL206:
 2739              	.L265:
 2740              		.loc 1 1825 0
 2741 002a 044B     		ldr	r3, .L273
 2742 002c FF22     		movs	r2, #255
 2743 002e 5A62     		str	r2, [r3, #36]
 2744              		.loc 1 1828 0
 2745 0030 38BD     		pop	{r3, r4, r5, pc}
 2746              	.LVL207:
 2747              	.L272:
 2748              		.loc 1 1811 0
 2749 0032 43F08003 		orr	r3, r3, #128
 2750 0036 A360     		str	r3, [r4, #8]
 2751 0038 F1E7     		b	.L267
 2752              	.L274:
 2753 003a 00BF     		.align	2
 2754              	.L273:
 2755 003c 00280040 		.word	1073752064
 2756              		.cfi_endproc
 2757              	.LFE141:
 2758              		.size	RTC_CoarseCalibCmd, .-RTC_CoarseCalibCmd
 2759              		.section	.text.RTC_CalibOutputCmd,"ax",%progbits
 2760              		.align	1
 2761              		.p2align 4,,15
 2762              		.global	RTC_CalibOutputCmd
 2763              		.syntax unified
 2764              		.thumb
 2765              		.thumb_func
 2766              		.fpu fpv4-sp-d16
 2767              		.type	RTC_CalibOutputCmd, %function
 2768              	RTC_CalibOutputCmd:
 2769              	.LFB142:
 2770              		.loc 1 1837 0
 2771              		.cfi_startproc
 2772              		@ args = 0, pretend = 0, frame = 0
 2773              		@ frame_needed = 0, uses_anonymous_args = 0
 2774              		@ link register save eliminated.
 2775              	.LVL208:
 2776              		.loc 1 1842 0
 2777 0000 0A4B     		ldr	r3, .L279
 2778              		.loc 1 1843 0
 2779 0002 5322     		movs	r2, #83
 2780              		.loc 1 1842 0
 2781 0004 CA21     		movs	r1, #202
 2782 0006 5962     		str	r1, [r3, #36]
 2783              		.loc 1 1843 0
 2784 0008 5A62     		str	r2, [r3, #36]
 2785              		.loc 1 1848 0
 2786 000a 9A68     		ldr	r2, [r3, #8]
 2787              		.loc 1 1845 0
 2788 000c 30B9     		cbnz	r0, .L278
 2789              		.loc 1 1853 0
 2790 000e 22F40002 		bic	r2, r2, #8388608
 2791 0012 9A60     		str	r2, [r3, #8]
 2792              		.loc 1 1857 0
 2793 0014 054B     		ldr	r3, .L279
ARM GAS  /tmp/cc65ENol.s 			page 50


 2794 0016 FF22     		movs	r2, #255
 2795 0018 5A62     		str	r2, [r3, #36]
 2796              		.loc 1 1858 0
 2797 001a 7047     		bx	lr
 2798              	.L278:
 2799              		.loc 1 1848 0
 2800 001c 42F40002 		orr	r2, r2, #8388608
 2801 0020 9A60     		str	r2, [r3, #8]
 2802              		.loc 1 1857 0
 2803 0022 024B     		ldr	r3, .L279
 2804 0024 FF22     		movs	r2, #255
 2805 0026 5A62     		str	r2, [r3, #36]
 2806              		.loc 1 1858 0
 2807 0028 7047     		bx	lr
 2808              	.L280:
 2809 002a 00BF     		.align	2
 2810              	.L279:
 2811 002c 00280040 		.word	1073752064
 2812              		.cfi_endproc
 2813              	.LFE142:
 2814              		.size	RTC_CalibOutputCmd, .-RTC_CalibOutputCmd
 2815              		.section	.text.RTC_CalibOutputConfig,"ax",%progbits
 2816              		.align	1
 2817              		.p2align 4,,15
 2818              		.global	RTC_CalibOutputConfig
 2819              		.syntax unified
 2820              		.thumb
 2821              		.thumb_func
 2822              		.fpu fpv4-sp-d16
 2823              		.type	RTC_CalibOutputConfig, %function
 2824              	RTC_CalibOutputConfig:
 2825              	.LFB143:
 2826              		.loc 1 1869 0
 2827              		.cfi_startproc
 2828              		@ args = 0, pretend = 0, frame = 0
 2829              		@ frame_needed = 0, uses_anonymous_args = 0
 2830              		@ link register save eliminated.
 2831              	.LVL209:
 2832              		.loc 1 1874 0
 2833 0000 074B     		ldr	r3, .L282
 2834 0002 CA21     		movs	r1, #202
 2835              		.loc 1 1875 0
 2836 0004 5322     		movs	r2, #83
 2837              		.loc 1 1874 0
 2838 0006 5962     		str	r1, [r3, #36]
 2839              		.loc 1 1875 0
 2840 0008 5A62     		str	r2, [r3, #36]
 2841              		.loc 1 1878 0
 2842 000a 9A68     		ldr	r2, [r3, #8]
 2843 000c 22F40022 		bic	r2, r2, #524288
 2844 0010 9A60     		str	r2, [r3, #8]
 2845              		.loc 1 1881 0
 2846 0012 9A68     		ldr	r2, [r3, #8]
 2847              		.loc 1 1884 0
 2848 0014 FF21     		movs	r1, #255
 2849              		.loc 1 1881 0
 2850 0016 1043     		orrs	r0, r0, r2
ARM GAS  /tmp/cc65ENol.s 			page 51


 2851              	.LVL210:
 2852 0018 9860     		str	r0, [r3, #8]
 2853              		.loc 1 1884 0
 2854 001a 5962     		str	r1, [r3, #36]
 2855              		.loc 1 1885 0
 2856 001c 7047     		bx	lr
 2857              	.L283:
 2858 001e 00BF     		.align	2
 2859              	.L282:
 2860 0020 00280040 		.word	1073752064
 2861              		.cfi_endproc
 2862              	.LFE143:
 2863              		.size	RTC_CalibOutputConfig, .-RTC_CalibOutputConfig
 2864              		.section	.text.RTC_SmoothCalibConfig,"ax",%progbits
 2865              		.align	1
 2866              		.p2align 4,,15
 2867              		.global	RTC_SmoothCalibConfig
 2868              		.syntax unified
 2869              		.thumb
 2870              		.thumb_func
 2871              		.fpu fpv4-sp-d16
 2872              		.type	RTC_SmoothCalibConfig, %function
 2873              	RTC_SmoothCalibConfig:
 2874              	.LFB144:
 2875              		.loc 1 1907 0
 2876              		.cfi_startproc
 2877              		@ args = 0, pretend = 0, frame = 0
 2878              		@ frame_needed = 0, uses_anonymous_args = 0
 2879              		@ link register save eliminated.
 2880              	.LVL211:
 2881 0000 30B4     		push	{r4, r5}
 2882              		.cfi_def_cfa_offset 8
 2883              		.cfi_offset 4, -8
 2884              		.cfi_offset 5, -4
 2885              		.loc 1 1917 0
 2886 0002 114D     		ldr	r5, .L301
 2887 0004 CA24     		movs	r4, #202
 2888              		.loc 1 1918 0
 2889 0006 5323     		movs	r3, #83
 2890              		.loc 1 1917 0
 2891 0008 6C62     		str	r4, [r5, #36]
 2892              		.loc 1 1918 0
 2893 000a 6B62     		str	r3, [r5, #36]
 2894              		.loc 1 1921 0
 2895 000c EB68     		ldr	r3, [r5, #12]
 2896 000e DC03     		lsls	r4, r3, #15
 2897 0010 0AD5     		bpl	.L285
 2898              		.loc 1 1924 0
 2899 0012 EB68     		ldr	r3, [r5, #12]
 2900 0014 DB03     		lsls	r3, r3, #15
 2901 0016 07D5     		bpl	.L285
 2902 0018 4FF40033 		mov	r3, #131072
 2903 001c 01E0     		b	.L286
 2904              	.LVL212:
 2905              	.L300:
 2906              		.loc 1 1924 0 is_stmt 0 discriminator 1
 2907 001e 013B     		subs	r3, r3, #1
ARM GAS  /tmp/cc65ENol.s 			page 52


 2908              	.LVL213:
 2909 0020 02D0     		beq	.L285
 2910              	.LVL214:
 2911              	.L286:
 2912              		.loc 1 1924 0
 2913 0022 EC68     		ldr	r4, [r5, #12]
 2914 0024 E403     		lsls	r4, r4, #15
 2915 0026 FAD4     		bmi	.L300
 2916              	.LVL215:
 2917              	.L285:
 2918              		.loc 1 1931 0 is_stmt 1
 2919 0028 074B     		ldr	r3, .L301
 2920 002a DC68     		ldr	r4, [r3, #12]
 2921 002c E403     		lsls	r4, r4, #15
 2922 002e 08D4     		bmi	.L288
 2923              		.loc 1 1934 0
 2924 0030 1143     		orrs	r1, r1, r2
 2925              	.LVL216:
 2926 0032 0843     		orrs	r0, r0, r1
 2927              	.LVL217:
 2928 0034 D863     		str	r0, [r3, #60]
 2929              	.LVL218:
 2930              		.loc 1 1936 0
 2931 0036 0120     		movs	r0, #1
 2932              	.LVL219:
 2933              	.L287:
 2934              		.loc 1 1944 0
 2935 0038 034B     		ldr	r3, .L301
 2936 003a FF22     		movs	r2, #255
 2937              	.LVL220:
 2938 003c 5A62     		str	r2, [r3, #36]
 2939              		.loc 1 1947 0
 2940 003e 30BC     		pop	{r4, r5}
 2941              		.cfi_remember_state
 2942              		.cfi_restore 5
 2943              		.cfi_restore 4
 2944              		.cfi_def_cfa_offset 0
 2945 0040 7047     		bx	lr
 2946              	.LVL221:
 2947              	.L288:
 2948              		.cfi_restore_state
 2949              		.loc 1 1940 0
 2950 0042 0020     		movs	r0, #0
 2951              	.LVL222:
 2952 0044 F8E7     		b	.L287
 2953              	.L302:
 2954 0046 00BF     		.align	2
 2955              	.L301:
 2956 0048 00280040 		.word	1073752064
 2957              		.cfi_endproc
 2958              	.LFE144:
 2959              		.size	RTC_SmoothCalibConfig, .-RTC_SmoothCalibConfig
 2960              		.section	.text.RTC_TimeStampCmd,"ax",%progbits
 2961              		.align	1
 2962              		.p2align 4,,15
 2963              		.global	RTC_TimeStampCmd
 2964              		.syntax unified
ARM GAS  /tmp/cc65ENol.s 			page 53


 2965              		.thumb
 2966              		.thumb_func
 2967              		.fpu fpv4-sp-d16
 2968              		.type	RTC_TimeStampCmd, %function
 2969              	RTC_TimeStampCmd:
 2970              	.LFB145:
 2971              		.loc 1 1981 0
 2972              		.cfi_startproc
 2973              		@ args = 0, pretend = 0, frame = 0
 2974              		@ frame_needed = 0, uses_anonymous_args = 0
 2975              		@ link register save eliminated.
 2976              	.LVL223:
 2977              		.loc 1 1989 0
 2978 0000 0B4B     		ldr	r3, .L308
 2979 0002 9B68     		ldr	r3, [r3, #8]
 2980 0004 23F40063 		bic	r3, r3, #2048
 2981              		.loc 1 1981 0
 2982 0008 10B4     		push	{r4}
 2983              		.cfi_def_cfa_offset 4
 2984              		.cfi_offset 4, -4
 2985              		.loc 1 1989 0
 2986 000a 23F00803 		bic	r3, r3, #8
 2987              	.LVL224:
 2988              		.loc 1 1992 0
 2989 000e 59B9     		cbnz	r1, .L307
 2990              		.loc 1 1998 0
 2991 0010 0343     		orrs	r3, r3, r0
 2992              	.LVL225:
 2993              	.L305:
 2994              		.loc 1 2002 0
 2995 0012 074A     		ldr	r2, .L308
 2996 0014 CA24     		movs	r4, #202
 2997              		.loc 1 2003 0
 2998 0016 5320     		movs	r0, #83
 2999              	.LVL226:
 3000              		.loc 1 2009 0
 3001 0018 FF21     		movs	r1, #255
 3002              	.LVL227:
 3003              		.loc 1 2002 0
 3004 001a 5462     		str	r4, [r2, #36]
 3005              		.loc 1 2003 0
 3006 001c 5062     		str	r0, [r2, #36]
 3007              		.loc 1 2010 0
 3008 001e 5DF8044B 		ldr	r4, [sp], #4
 3009              		.cfi_remember_state
 3010              		.cfi_restore 4
 3011              		.cfi_def_cfa_offset 0
 3012              		.loc 1 2006 0
 3013 0022 9360     		str	r3, [r2, #8]
 3014              		.loc 1 2009 0
 3015 0024 5162     		str	r1, [r2, #36]
 3016              		.loc 1 2010 0
 3017 0026 7047     		bx	lr
 3018              	.LVL228:
 3019              	.L307:
 3020              		.cfi_restore_state
 3021 0028 43F40063 		orr	r3, r3, #2048
ARM GAS  /tmp/cc65ENol.s 			page 54


 3022              	.LVL229:
 3023              		.loc 1 1994 0
 3024 002c 0343     		orrs	r3, r3, r0
 3025              	.LVL230:
 3026 002e F0E7     		b	.L305
 3027              	.L309:
 3028              		.align	2
 3029              	.L308:
 3030 0030 00280040 		.word	1073752064
 3031              		.cfi_endproc
 3032              	.LFE145:
 3033              		.size	RTC_TimeStampCmd, .-RTC_TimeStampCmd
 3034              		.section	.text.RTC_GetTimeStamp,"ax",%progbits
 3035              		.align	1
 3036              		.p2align 4,,15
 3037              		.global	RTC_GetTimeStamp
 3038              		.syntax unified
 3039              		.thumb
 3040              		.thumb_func
 3041              		.fpu fpv4-sp-d16
 3042              		.type	RTC_GetTimeStamp, %function
 3043              	RTC_GetTimeStamp:
 3044              	.LFB146:
 3045              		.loc 1 2026 0
 3046              		.cfi_startproc
 3047              		@ args = 0, pretend = 0, frame = 0
 3048              		@ frame_needed = 0, uses_anonymous_args = 0
 3049              	.LVL231:
 3050              		.loc 1 2033 0
 3051 0000 2D4B     		ldr	r3, .L313
 3052              		.loc 1 2026 0
 3053 0002 2DE9F043 		push	{r4, r5, r6, r7, r8, r9, lr}
 3054              		.cfi_def_cfa_offset 28
 3055              		.cfi_offset 4, -28
 3056              		.cfi_offset 5, -24
 3057              		.cfi_offset 6, -20
 3058              		.cfi_offset 7, -16
 3059              		.cfi_offset 8, -12
 3060              		.cfi_offset 9, -8
 3061              		.cfi_offset 14, -4
 3062              		.loc 1 2033 0
 3063 0006 1C6B     		ldr	r4, [r3, #48]
 3064              		.loc 1 2034 0
 3065 0008 5B6B     		ldr	r3, [r3, #52]
 3066              		.loc 1 2033 0
 3067 000a 04F07F34 		and	r4, r4, #2139062143
 3068 000e 24F0FE44 		bic	r4, r4, #2130706432
 3069              	.LVL232:
 3070              		.loc 1 2034 0
 3071 0012 23F07F43 		bic	r3, r3, #-16777216
 3072 0016 23F0C003 		bic	r3, r3, #192
 3073              	.LVL233:
 3074              		.loc 1 2037 0
 3075 001a 260C     		lsrs	r6, r4, #16
 3076              		.loc 1 2044 0
 3077 001c C3F3072E 		ubfx	lr, r3, #8, #8
 3078              		.loc 1 2040 0
ARM GAS  /tmp/cc65ENol.s 			page 55


 3079 0020 06F04007 		and	r7, r6, #64
 3080 0024 CF70     		strb	r7, [r1, #3]
 3081              		.loc 1 2038 0
 3082 0026 C4F3062C 		ubfx	ip, r4, #8, #7
 3083              		.loc 1 2045 0
 3084 002a DFB2     		uxtb	r7, r3
 3085              		.loc 1 2037 0
 3086 002c 06F03F08 		and	r8, r6, #63
 3087              		.loc 1 2039 0
 3088 0030 E4B2     		uxtb	r4, r4
 3089              	.LVL234:
 3090              		.loc 1 2043 0
 3091 0032 4FF00009 		mov	r9, #0
 3092              		.loc 1 2044 0
 3093 0036 0EF01F05 		and	r5, lr, #31
 3094              		.loc 1 2046 0
 3095 003a C3F34233 		ubfx	r3, r3, #13, #3
 3096              	.LVL235:
 3097              		.loc 1 2037 0
 3098 003e 81F80080 		strb	r8, [r1]
 3099              		.loc 1 2038 0
 3100 0042 81F801C0 		strb	ip, [r1, #1]
 3101              		.loc 1 2039 0
 3102 0046 8C70     		strb	r4, [r1, #2]
 3103              		.loc 1 2043 0
 3104 0048 82F80390 		strb	r9, [r2, #3]
 3105              		.loc 1 2044 0
 3106 004c 5570     		strb	r5, [r2, #1]
 3107              		.loc 1 2045 0
 3108 004e 9770     		strb	r7, [r2, #2]
 3109              		.loc 1 2046 0
 3110 0050 1370     		strb	r3, [r2]
 3111              		.loc 1 2049 0
 3112 0052 70BB     		cbnz	r0, .L310
 3113              	.LBB204:
 3114              	.LBB205:
 3115              		.loc 1 2743 0
 3116 0054 2D09     		lsrs	r5, r5, #4
 3117              	.LBE205:
 3118              	.LBE204:
 3119              	.LBB208:
 3120              	.LBB209:
 3121 0056 4FEA1810 		lsr	r0, r8, #4
 3122              	.LVL236:
 3123              	.LBE209:
 3124              	.LBE208:
 3125              	.LBB213:
 3126              	.LBB206:
 3127 005a 4FEA8508 		lsl	r8, r5, #2
 3128 005e 4544     		add	r5, r5, r8
 3129              		.loc 1 2744 0
 3130 0060 0EF00F0E 		and	lr, lr, #15
 3131              	.LBE206:
 3132              	.LBE213:
 3133              	.LBB214:
 3134              	.LBB210:
 3135              		.loc 1 2743 0
ARM GAS  /tmp/cc65ENol.s 			page 56


 3136 0064 00EB8000 		add	r0, r0, r0, lsl #2
 3137              	.LBE210:
 3138              	.LBE214:
 3139              	.LBB215:
 3140              	.LBB216:
 3141 0068 4FEA1C19 		lsr	r9, ip, #4
 3142              	.LBE216:
 3143              	.LBE215:
 3144              	.LBB219:
 3145              	.LBB220:
 3146 006c 4FEA1418 		lsr	r8, r4, #4
 3147              	.LBE220:
 3148              	.LBE219:
 3149              	.LBB223:
 3150              	.LBB207:
 3151              		.loc 1 2744 0
 3152 0070 0EEB450E 		add	lr, lr, r5, lsl #1
 3153              	.LBE207:
 3154              	.LBE223:
 3155              	.LBB224:
 3156              	.LBB211:
 3157 0074 06F00F06 		and	r6, r6, #15
 3158              	.LBE211:
 3159              	.LBE224:
 3160              	.LBB225:
 3161              	.LBB226:
 3162              		.loc 1 2743 0
 3163 0078 3D09     		lsrs	r5, r7, #4
 3164              	.LBE226:
 3165              	.LBE225:
 3166              	.LBB229:
 3167              	.LBB212:
 3168              		.loc 1 2744 0
 3169 007a 06EB4006 		add	r6, r6, r0, lsl #1
 3170              	.LBE212:
 3171              	.LBE229:
 3172              	.LBB230:
 3173              	.LBB217:
 3174              		.loc 1 2743 0
 3175 007e 09EB8909 		add	r9, r9, r9, lsl #2
 3176              		.loc 1 2744 0
 3177 0082 0CF00F0C 		and	ip, ip, #15
 3178              	.LBE217:
 3179              	.LBE230:
 3180              	.LBB231:
 3181              	.LBB221:
 3182              		.loc 1 2743 0
 3183 0086 08EB8808 		add	r8, r8, r8, lsl #2
 3184              		.loc 1 2744 0
 3185 008a 04F00F04 		and	r4, r4, #15
 3186              	.LBE221:
 3187              	.LBE231:
 3188              	.LBB232:
 3189              	.LBB227:
 3190              		.loc 1 2743 0
 3191 008e 05EB8505 		add	r5, r5, r5, lsl #2
 3192              		.loc 1 2744 0
ARM GAS  /tmp/cc65ENol.s 			page 57


 3193 0092 07F00F00 		and	r0, r7, #15
 3194              	.LBE227:
 3195              	.LBE232:
 3196              	.LBB233:
 3197              	.LBB218:
 3198 0096 0CEB490C 		add	ip, ip, r9, lsl #1
 3199              	.LBE218:
 3200              	.LBE233:
 3201              	.LBB234:
 3202              	.LBB222:
 3203 009a 04EB4804 		add	r4, r4, r8, lsl #1
 3204              	.LBE222:
 3205              	.LBE234:
 3206              	.LBB235:
 3207              	.LBB228:
 3208 009e 00EB4500 		add	r0, r0, r5, lsl #1
 3209              	.LBE228:
 3210              	.LBE235:
 3211              		.loc 1 2052 0
 3212 00a2 0E70     		strb	r6, [r1]
 3213              		.loc 1 2053 0
 3214 00a4 81F801C0 		strb	ip, [r1, #1]
 3215              		.loc 1 2054 0
 3216 00a8 8C70     		strb	r4, [r1, #2]
 3217              		.loc 1 2057 0
 3218 00aa 82F801E0 		strb	lr, [r2, #1]
 3219              		.loc 1 2059 0
 3220 00ae 1370     		strb	r3, [r2]
 3221              		.loc 1 2058 0
 3222 00b0 9070     		strb	r0, [r2, #2]
 3223              	.L310:
 3224              		.loc 1 2061 0
 3225 00b2 BDE8F083 		pop	{r4, r5, r6, r7, r8, r9, pc}
 3226              	.L314:
 3227 00b6 00BF     		.align	2
 3228              	.L313:
 3229 00b8 00280040 		.word	1073752064
 3230              		.cfi_endproc
 3231              	.LFE146:
 3232              		.size	RTC_GetTimeStamp, .-RTC_GetTimeStamp
 3233              		.section	.text.RTC_GetTimeStampSubSecond,"ax",%progbits
 3234              		.align	1
 3235              		.p2align 4,,15
 3236              		.global	RTC_GetTimeStampSubSecond
 3237              		.syntax unified
 3238              		.thumb
 3239              		.thumb_func
 3240              		.fpu fpv4-sp-d16
 3241              		.type	RTC_GetTimeStampSubSecond, %function
 3242              	RTC_GetTimeStampSubSecond:
 3243              	.LFB147:
 3244              		.loc 1 2069 0
 3245              		.cfi_startproc
 3246              		@ args = 0, pretend = 0, frame = 0
 3247              		@ frame_needed = 0, uses_anonymous_args = 0
 3248              		@ link register save eliminated.
 3249              		.loc 1 2071 0
ARM GAS  /tmp/cc65ENol.s 			page 58


 3250 0000 014B     		ldr	r3, .L316
 3251 0002 986B     		ldr	r0, [r3, #56]
 3252              		.loc 1 2072 0
 3253 0004 7047     		bx	lr
 3254              	.L317:
 3255 0006 00BF     		.align	2
 3256              	.L316:
 3257 0008 00280040 		.word	1073752064
 3258              		.cfi_endproc
 3259              	.LFE147:
 3260              		.size	RTC_GetTimeStampSubSecond, .-RTC_GetTimeStampSubSecond
 3261              		.section	.text.RTC_TamperTriggerConfig,"ax",%progbits
 3262              		.align	1
 3263              		.p2align 4,,15
 3264              		.global	RTC_TamperTriggerConfig
 3265              		.syntax unified
 3266              		.thumb
 3267              		.thumb_func
 3268              		.fpu fpv4-sp-d16
 3269              		.type	RTC_TamperTriggerConfig, %function
 3270              	RTC_TamperTriggerConfig:
 3271              	.LFB148:
 3272              		.loc 1 2104 0
 3273              		.cfi_startproc
 3274              		@ args = 0, pretend = 0, frame = 0
 3275              		@ frame_needed = 0, uses_anonymous_args = 0
 3276              		@ link register save eliminated.
 3277              	.LVL237:
 3278              		.loc 1 2112 0
 3279 0000 054A     		ldr	r2, .L322
 3280 0002 4000     		lsls	r0, r0, #1
 3281              	.LVL238:
 3282 0004 136C     		ldr	r3, [r2, #64]
 3283              		.loc 1 2109 0
 3284 0006 11B1     		cbz	r1, .L321
 3285              		.loc 1 2117 0
 3286 0008 1843     		orrs	r0, r0, r3
 3287 000a 1064     		str	r0, [r2, #64]
 3288              		.loc 1 2119 0
 3289 000c 7047     		bx	lr
 3290              	.L321:
 3291              		.loc 1 2112 0
 3292 000e 23EA0000 		bic	r0, r3, r0
 3293 0012 1064     		str	r0, [r2, #64]
 3294 0014 7047     		bx	lr
 3295              	.L323:
 3296 0016 00BF     		.align	2
 3297              	.L322:
 3298 0018 00280040 		.word	1073752064
 3299              		.cfi_endproc
 3300              	.LFE148:
 3301              		.size	RTC_TamperTriggerConfig, .-RTC_TamperTriggerConfig
 3302              		.section	.text.RTC_TamperCmd,"ax",%progbits
 3303              		.align	1
 3304              		.p2align 4,,15
 3305              		.global	RTC_TamperCmd
 3306              		.syntax unified
ARM GAS  /tmp/cc65ENol.s 			page 59


 3307              		.thumb
 3308              		.thumb_func
 3309              		.fpu fpv4-sp-d16
 3310              		.type	RTC_TamperCmd, %function
 3311              	RTC_TamperCmd:
 3312              	.LFB149:
 3313              		.loc 1 2130 0
 3314              		.cfi_startproc
 3315              		@ args = 0, pretend = 0, frame = 0
 3316              		@ frame_needed = 0, uses_anonymous_args = 0
 3317              		@ link register save eliminated.
 3318              	.LVL239:
 3319              		.loc 1 2138 0
 3320 0000 044A     		ldr	r2, .L328
 3321 0002 136C     		ldr	r3, [r2, #64]
 3322              		.loc 1 2135 0
 3323 0004 19B9     		cbnz	r1, .L327
 3324              		.loc 1 2143 0
 3325 0006 23EA0000 		bic	r0, r3, r0
 3326              	.LVL240:
 3327 000a 1064     		str	r0, [r2, #64]
 3328              		.loc 1 2145 0
 3329 000c 7047     		bx	lr
 3330              	.LVL241:
 3331              	.L327:
 3332              		.loc 1 2138 0
 3333 000e 1843     		orrs	r0, r0, r3
 3334              	.LVL242:
 3335 0010 1064     		str	r0, [r2, #64]
 3336 0012 7047     		bx	lr
 3337              	.L329:
 3338              		.align	2
 3339              	.L328:
 3340 0014 00280040 		.word	1073752064
 3341              		.cfi_endproc
 3342              	.LFE149:
 3343              		.size	RTC_TamperCmd, .-RTC_TamperCmd
 3344              		.section	.text.RTC_TamperFilterConfig,"ax",%progbits
 3345              		.align	1
 3346              		.p2align 4,,15
 3347              		.global	RTC_TamperFilterConfig
 3348              		.syntax unified
 3349              		.thumb
 3350              		.thumb_func
 3351              		.fpu fpv4-sp-d16
 3352              		.type	RTC_TamperFilterConfig, %function
 3353              	RTC_TamperFilterConfig:
 3354              	.LFB150:
 3355              		.loc 1 2161 0
 3356              		.cfi_startproc
 3357              		@ args = 0, pretend = 0, frame = 0
 3358              		@ frame_needed = 0, uses_anonymous_args = 0
 3359              		@ link register save eliminated.
 3360              	.LVL243:
 3361              		.loc 1 2166 0
 3362 0000 044B     		ldr	r3, .L331
 3363 0002 1A6C     		ldr	r2, [r3, #64]
ARM GAS  /tmp/cc65ENol.s 			page 60


 3364 0004 22F4C052 		bic	r2, r2, #6144
 3365 0008 1A64     		str	r2, [r3, #64]
 3366              		.loc 1 2169 0
 3367 000a 1A6C     		ldr	r2, [r3, #64]
 3368 000c 1043     		orrs	r0, r0, r2
 3369              	.LVL244:
 3370 000e 1864     		str	r0, [r3, #64]
 3371              		.loc 1 2170 0
 3372 0010 7047     		bx	lr
 3373              	.L332:
 3374 0012 00BF     		.align	2
 3375              	.L331:
 3376 0014 00280040 		.word	1073752064
 3377              		.cfi_endproc
 3378              	.LFE150:
 3379              		.size	RTC_TamperFilterConfig, .-RTC_TamperFilterConfig
 3380              		.section	.text.RTC_TamperSamplingFreqConfig,"ax",%progbits
 3381              		.align	1
 3382              		.p2align 4,,15
 3383              		.global	RTC_TamperSamplingFreqConfig
 3384              		.syntax unified
 3385              		.thumb
 3386              		.thumb_func
 3387              		.fpu fpv4-sp-d16
 3388              		.type	RTC_TamperSamplingFreqConfig, %function
 3389              	RTC_TamperSamplingFreqConfig:
 3390              	.LFB151:
 3391              		.loc 1 2195 0
 3392              		.cfi_startproc
 3393              		@ args = 0, pretend = 0, frame = 0
 3394              		@ frame_needed = 0, uses_anonymous_args = 0
 3395              		@ link register save eliminated.
 3396              	.LVL245:
 3397              		.loc 1 2200 0
 3398 0000 044B     		ldr	r3, .L334
 3399 0002 1A6C     		ldr	r2, [r3, #64]
 3400 0004 22F4E062 		bic	r2, r2, #1792
 3401 0008 1A64     		str	r2, [r3, #64]
 3402              		.loc 1 2203 0
 3403 000a 1A6C     		ldr	r2, [r3, #64]
 3404 000c 1043     		orrs	r0, r0, r2
 3405              	.LVL246:
 3406 000e 1864     		str	r0, [r3, #64]
 3407              		.loc 1 2204 0
 3408 0010 7047     		bx	lr
 3409              	.L335:
 3410 0012 00BF     		.align	2
 3411              	.L334:
 3412 0014 00280040 		.word	1073752064
 3413              		.cfi_endproc
 3414              	.LFE151:
 3415              		.size	RTC_TamperSamplingFreqConfig, .-RTC_TamperSamplingFreqConfig
 3416              		.section	.text.RTC_TamperPinsPrechargeDuration,"ax",%progbits
 3417              		.align	1
 3418              		.p2align 4,,15
 3419              		.global	RTC_TamperPinsPrechargeDuration
 3420              		.syntax unified
ARM GAS  /tmp/cc65ENol.s 			page 61


 3421              		.thumb
 3422              		.thumb_func
 3423              		.fpu fpv4-sp-d16
 3424              		.type	RTC_TamperPinsPrechargeDuration, %function
 3425              	RTC_TamperPinsPrechargeDuration:
 3426              	.LFB152:
 3427              		.loc 1 2218 0
 3428              		.cfi_startproc
 3429              		@ args = 0, pretend = 0, frame = 0
 3430              		@ frame_needed = 0, uses_anonymous_args = 0
 3431              		@ link register save eliminated.
 3432              	.LVL247:
 3433              		.loc 1 2223 0
 3434 0000 044B     		ldr	r3, .L337
 3435 0002 1A6C     		ldr	r2, [r3, #64]
 3436 0004 22F4C042 		bic	r2, r2, #24576
 3437 0008 1A64     		str	r2, [r3, #64]
 3438              		.loc 1 2226 0
 3439 000a 1A6C     		ldr	r2, [r3, #64]
 3440 000c 1043     		orrs	r0, r0, r2
 3441              	.LVL248:
 3442 000e 1864     		str	r0, [r3, #64]
 3443              		.loc 1 2227 0
 3444 0010 7047     		bx	lr
 3445              	.L338:
 3446 0012 00BF     		.align	2
 3447              	.L337:
 3448 0014 00280040 		.word	1073752064
 3449              		.cfi_endproc
 3450              	.LFE152:
 3451              		.size	RTC_TamperPinsPrechargeDuration, .-RTC_TamperPinsPrechargeDuration
 3452              		.section	.text.RTC_TimeStampOnTamperDetectionCmd,"ax",%progbits
 3453              		.align	1
 3454              		.p2align 4,,15
 3455              		.global	RTC_TimeStampOnTamperDetectionCmd
 3456              		.syntax unified
 3457              		.thumb
 3458              		.thumb_func
 3459              		.fpu fpv4-sp-d16
 3460              		.type	RTC_TimeStampOnTamperDetectionCmd, %function
 3461              	RTC_TimeStampOnTamperDetectionCmd:
 3462              	.LFB153:
 3463              		.loc 1 2238 0
 3464              		.cfi_startproc
 3465              		@ args = 0, pretend = 0, frame = 0
 3466              		@ frame_needed = 0, uses_anonymous_args = 0
 3467              		@ link register save eliminated.
 3468              	.LVL249:
 3469              		.loc 1 2245 0
 3470 0000 054A     		ldr	r2, .L343
 3471 0002 136C     		ldr	r3, [r2, #64]
 3472              		.loc 1 2242 0
 3473 0004 18B9     		cbnz	r0, .L342
 3474              		.loc 1 2250 0
 3475 0006 23F08003 		bic	r3, r3, #128
 3476 000a 1364     		str	r3, [r2, #64]
 3477              		.loc 1 2252 0
ARM GAS  /tmp/cc65ENol.s 			page 62


 3478 000c 7047     		bx	lr
 3479              	.L342:
 3480              		.loc 1 2245 0
 3481 000e 43F08003 		orr	r3, r3, #128
 3482 0012 1364     		str	r3, [r2, #64]
 3483 0014 7047     		bx	lr
 3484              	.L344:
 3485 0016 00BF     		.align	2
 3486              	.L343:
 3487 0018 00280040 		.word	1073752064
 3488              		.cfi_endproc
 3489              	.LFE153:
 3490              		.size	RTC_TimeStampOnTamperDetectionCmd, .-RTC_TimeStampOnTamperDetectionCmd
 3491              		.section	.text.RTC_TamperPullUpCmd,"ax",%progbits
 3492              		.align	1
 3493              		.p2align 4,,15
 3494              		.global	RTC_TamperPullUpCmd
 3495              		.syntax unified
 3496              		.thumb
 3497              		.thumb_func
 3498              		.fpu fpv4-sp-d16
 3499              		.type	RTC_TamperPullUpCmd, %function
 3500              	RTC_TamperPullUpCmd:
 3501              	.LFB154:
 3502              		.loc 1 2261 0
 3503              		.cfi_startproc
 3504              		@ args = 0, pretend = 0, frame = 0
 3505              		@ frame_needed = 0, uses_anonymous_args = 0
 3506              		@ link register save eliminated.
 3507              	.LVL250:
 3508              		.loc 1 2268 0
 3509 0000 054A     		ldr	r2, .L349
 3510 0002 136C     		ldr	r3, [r2, #64]
 3511              		.loc 1 2265 0
 3512 0004 18B9     		cbnz	r0, .L348
 3513              		.loc 1 2273 0
 3514 0006 43F40043 		orr	r3, r3, #32768
 3515 000a 1364     		str	r3, [r2, #64]
 3516              		.loc 1 2275 0
 3517 000c 7047     		bx	lr
 3518              	.L348:
 3519              		.loc 1 2268 0
 3520 000e 23F40043 		bic	r3, r3, #32768
 3521 0012 1364     		str	r3, [r2, #64]
 3522 0014 7047     		bx	lr
 3523              	.L350:
 3524 0016 00BF     		.align	2
 3525              	.L349:
 3526 0018 00280040 		.word	1073752064
 3527              		.cfi_endproc
 3528              	.LFE154:
 3529              		.size	RTC_TamperPullUpCmd, .-RTC_TamperPullUpCmd
 3530              		.section	.text.RTC_WriteBackupRegister,"ax",%progbits
 3531              		.align	1
 3532              		.p2align 4,,15
 3533              		.global	RTC_WriteBackupRegister
 3534              		.syntax unified
ARM GAS  /tmp/cc65ENol.s 			page 63


 3535              		.thumb
 3536              		.thumb_func
 3537              		.fpu fpv4-sp-d16
 3538              		.type	RTC_WriteBackupRegister, %function
 3539              	RTC_WriteBackupRegister:
 3540              	.LFB155:
 3541              		.loc 1 2302 0
 3542              		.cfi_startproc
 3543              		@ args = 0, pretend = 0, frame = 8
 3544              		@ frame_needed = 0, uses_anonymous_args = 0
 3545              		@ link register save eliminated.
 3546              	.LVL251:
 3547 0000 82B0     		sub	sp, sp, #8
 3548              		.cfi_def_cfa_offset 8
 3549              		.loc 1 2303 0
 3550 0002 0022     		movs	r2, #0
 3551              		.loc 1 2308 0
 3552 0004 054B     		ldr	r3, .L353
 3553              		.loc 1 2303 0
 3554 0006 0192     		str	r2, [sp, #4]
 3555              		.loc 1 2308 0
 3556 0008 0193     		str	r3, [sp, #4]
 3557              		.loc 1 2309 0
 3558 000a 019B     		ldr	r3, [sp, #4]
 3559 000c 03EB8000 		add	r0, r3, r0, lsl #2
 3560              	.LVL252:
 3561 0010 0190     		str	r0, [sp, #4]
 3562              		.loc 1 2312 0
 3563 0012 019B     		ldr	r3, [sp, #4]
 3564 0014 1960     		str	r1, [r3]
 3565              		.loc 1 2313 0
 3566 0016 02B0     		add	sp, sp, #8
 3567              		.cfi_def_cfa_offset 0
 3568              		@ sp needed
 3569 0018 7047     		bx	lr
 3570              	.L354:
 3571 001a 00BF     		.align	2
 3572              	.L353:
 3573 001c 50280040 		.word	1073752144
 3574              		.cfi_endproc
 3575              	.LFE155:
 3576              		.size	RTC_WriteBackupRegister, .-RTC_WriteBackupRegister
 3577              		.section	.text.RTC_ReadBackupRegister,"ax",%progbits
 3578              		.align	1
 3579              		.p2align 4,,15
 3580              		.global	RTC_ReadBackupRegister
 3581              		.syntax unified
 3582              		.thumb
 3583              		.thumb_func
 3584              		.fpu fpv4-sp-d16
 3585              		.type	RTC_ReadBackupRegister, %function
 3586              	RTC_ReadBackupRegister:
 3587              	.LFB156:
 3588              		.loc 1 2323 0
 3589              		.cfi_startproc
 3590              		@ args = 0, pretend = 0, frame = 8
 3591              		@ frame_needed = 0, uses_anonymous_args = 0
ARM GAS  /tmp/cc65ENol.s 			page 64


 3592              		@ link register save eliminated.
 3593              	.LVL253:
 3594 0000 82B0     		sub	sp, sp, #8
 3595              		.cfi_def_cfa_offset 8
 3596              		.loc 1 2324 0
 3597 0002 0022     		movs	r2, #0
 3598              		.loc 1 2329 0
 3599 0004 054B     		ldr	r3, .L357
 3600              		.loc 1 2324 0
 3601 0006 0192     		str	r2, [sp, #4]
 3602              		.loc 1 2329 0
 3603 0008 0193     		str	r3, [sp, #4]
 3604              		.loc 1 2330 0
 3605 000a 019B     		ldr	r3, [sp, #4]
 3606 000c 03EB8000 		add	r0, r3, r0, lsl #2
 3607              	.LVL254:
 3608 0010 0190     		str	r0, [sp, #4]
 3609              		.loc 1 2333 0
 3610 0012 019B     		ldr	r3, [sp, #4]
 3611 0014 1868     		ldr	r0, [r3]
 3612              		.loc 1 2334 0
 3613 0016 02B0     		add	sp, sp, #8
 3614              		.cfi_def_cfa_offset 0
 3615              		@ sp needed
 3616 0018 7047     		bx	lr
 3617              	.L358:
 3618 001a 00BF     		.align	2
 3619              	.L357:
 3620 001c 50280040 		.word	1073752144
 3621              		.cfi_endproc
 3622              	.LFE156:
 3623              		.size	RTC_ReadBackupRegister, .-RTC_ReadBackupRegister
 3624              		.section	.text.RTC_TamperPinSelection,"ax",%progbits
 3625              		.align	1
 3626              		.p2align 4,,15
 3627              		.global	RTC_TamperPinSelection
 3628              		.syntax unified
 3629              		.thumb
 3630              		.thumb_func
 3631              		.fpu fpv4-sp-d16
 3632              		.type	RTC_TamperPinSelection, %function
 3633              	RTC_TamperPinSelection:
 3634              	.LFB157:
 3635              		.loc 1 2363 0
 3636              		.cfi_startproc
 3637              		@ args = 0, pretend = 0, frame = 0
 3638              		@ frame_needed = 0, uses_anonymous_args = 0
 3639              		@ link register save eliminated.
 3640              	.LVL255:
 3641              		.loc 1 2367 0
 3642 0000 044B     		ldr	r3, .L360
 3643 0002 1A6C     		ldr	r2, [r3, #64]
 3644 0004 22F48032 		bic	r2, r2, #65536
 3645 0008 1A64     		str	r2, [r3, #64]
 3646              		.loc 1 2368 0
 3647 000a 1A6C     		ldr	r2, [r3, #64]
 3648 000c 1043     		orrs	r0, r0, r2
ARM GAS  /tmp/cc65ENol.s 			page 65


 3649              	.LVL256:
 3650 000e 1864     		str	r0, [r3, #64]
 3651              		.loc 1 2369 0
 3652 0010 7047     		bx	lr
 3653              	.L361:
 3654 0012 00BF     		.align	2
 3655              	.L360:
 3656 0014 00280040 		.word	1073752064
 3657              		.cfi_endproc
 3658              	.LFE157:
 3659              		.size	RTC_TamperPinSelection, .-RTC_TamperPinSelection
 3660              		.section	.text.RTC_TimeStampPinSelection,"ax",%progbits
 3661              		.align	1
 3662              		.p2align 4,,15
 3663              		.global	RTC_TimeStampPinSelection
 3664              		.syntax unified
 3665              		.thumb
 3666              		.thumb_func
 3667              		.fpu fpv4-sp-d16
 3668              		.type	RTC_TimeStampPinSelection, %function
 3669              	RTC_TimeStampPinSelection:
 3670              	.LFB158:
 3671              		.loc 1 2380 0
 3672              		.cfi_startproc
 3673              		@ args = 0, pretend = 0, frame = 0
 3674              		@ frame_needed = 0, uses_anonymous_args = 0
 3675              		@ link register save eliminated.
 3676              	.LVL257:
 3677              		.loc 1 2384 0
 3678 0000 044B     		ldr	r3, .L363
 3679 0002 1A6C     		ldr	r2, [r3, #64]
 3680 0004 22F40032 		bic	r2, r2, #131072
 3681 0008 1A64     		str	r2, [r3, #64]
 3682              		.loc 1 2385 0
 3683 000a 1A6C     		ldr	r2, [r3, #64]
 3684 000c 1043     		orrs	r0, r0, r2
 3685              	.LVL258:
 3686 000e 1864     		str	r0, [r3, #64]
 3687              		.loc 1 2386 0
 3688 0010 7047     		bx	lr
 3689              	.L364:
 3690 0012 00BF     		.align	2
 3691              	.L363:
 3692 0014 00280040 		.word	1073752064
 3693              		.cfi_endproc
 3694              	.LFE158:
 3695              		.size	RTC_TimeStampPinSelection, .-RTC_TimeStampPinSelection
 3696              		.section	.text.RTC_OutputTypeConfig,"ax",%progbits
 3697              		.align	1
 3698              		.p2align 4,,15
 3699              		.global	RTC_OutputTypeConfig
 3700              		.syntax unified
 3701              		.thumb
 3702              		.thumb_func
 3703              		.fpu fpv4-sp-d16
 3704              		.type	RTC_OutputTypeConfig, %function
 3705              	RTC_OutputTypeConfig:
ARM GAS  /tmp/cc65ENol.s 			page 66


 3706              	.LFB159:
 3707              		.loc 1 2399 0
 3708              		.cfi_startproc
 3709              		@ args = 0, pretend = 0, frame = 0
 3710              		@ frame_needed = 0, uses_anonymous_args = 0
 3711              		@ link register save eliminated.
 3712              	.LVL259:
 3713              		.loc 1 2403 0
 3714 0000 044B     		ldr	r3, .L366
 3715 0002 1A6C     		ldr	r2, [r3, #64]
 3716 0004 22F48022 		bic	r2, r2, #262144
 3717 0008 1A64     		str	r2, [r3, #64]
 3718              		.loc 1 2404 0
 3719 000a 1A6C     		ldr	r2, [r3, #64]
 3720 000c 1043     		orrs	r0, r0, r2
 3721              	.LVL260:
 3722 000e 1864     		str	r0, [r3, #64]
 3723              		.loc 1 2405 0
 3724 0010 7047     		bx	lr
 3725              	.L367:
 3726 0012 00BF     		.align	2
 3727              	.L366:
 3728 0014 00280040 		.word	1073752064
 3729              		.cfi_endproc
 3730              	.LFE159:
 3731              		.size	RTC_OutputTypeConfig, .-RTC_OutputTypeConfig
 3732              		.section	.text.RTC_SynchroShiftConfig,"ax",%progbits
 3733              		.align	1
 3734              		.p2align 4,,15
 3735              		.global	RTC_SynchroShiftConfig
 3736              		.syntax unified
 3737              		.thumb
 3738              		.thumb_func
 3739              		.fpu fpv4-sp-d16
 3740              		.type	RTC_SynchroShiftConfig, %function
 3741              	RTC_SynchroShiftConfig:
 3742              	.LFB160:
 3743              		.loc 1 2437 0
 3744              		.cfi_startproc
 3745              		@ args = 0, pretend = 0, frame = 0
 3746              		@ frame_needed = 0, uses_anonymous_args = 0
 3747              	.LVL261:
 3748 0000 10B5     		push	{r4, lr}
 3749              		.cfi_def_cfa_offset 8
 3750              		.cfi_offset 4, -8
 3751              		.cfi_offset 14, -4
 3752              		.loc 1 2446 0
 3753 0002 184C     		ldr	r4, .L387
 3754 0004 CA22     		movs	r2, #202
 3755              		.loc 1 2447 0
 3756 0006 5323     		movs	r3, #83
 3757              		.loc 1 2446 0
 3758 0008 6262     		str	r2, [r4, #36]
 3759              		.loc 1 2447 0
 3760 000a 6362     		str	r3, [r4, #36]
 3761              		.loc 1 2450 0
 3762 000c E368     		ldr	r3, [r4, #12]
ARM GAS  /tmp/cc65ENol.s 			page 67


 3763 000e 1A07     		lsls	r2, r3, #28
 3764 0010 0AD5     		bpl	.L369
 3765              		.loc 1 2453 0
 3766 0012 E368     		ldr	r3, [r4, #12]
 3767 0014 1B07     		lsls	r3, r3, #28
 3768 0016 07D5     		bpl	.L369
 3769 0018 4FF48053 		mov	r3, #4096
 3770 001c 01E0     		b	.L370
 3771              	.LVL262:
 3772              	.L385:
 3773              		.loc 1 2453 0 is_stmt 0 discriminator 1
 3774 001e 013B     		subs	r3, r3, #1
 3775              	.LVL263:
 3776 0020 02D0     		beq	.L369
 3777              	.LVL264:
 3778              	.L370:
 3779              		.loc 1 2453 0
 3780 0022 E268     		ldr	r2, [r4, #12]
 3781 0024 1207     		lsls	r2, r2, #28
 3782 0026 FAD4     		bmi	.L385
 3783              	.LVL265:
 3784              	.L369:
 3785              		.loc 1 2460 0 is_stmt 1
 3786 0028 0E4A     		ldr	r2, .L387
 3787 002a D368     		ldr	r3, [r2, #12]
 3788 002c 13F00803 		ands	r3, r3, #8
 3789 0030 07D1     		bne	.L372
 3790              		.loc 1 2463 0
 3791 0032 9468     		ldr	r4, [r2, #8]
 3792 0034 E406     		lsls	r4, r4, #27
 3793 0036 09D5     		bpl	.L386
 3794              		.loc 1 2484 0
 3795 0038 1846     		mov	r0, r3
 3796              	.LVL266:
 3797              		.loc 1 2488 0
 3798 003a 0A4B     		ldr	r3, .L387
 3799 003c FF22     		movs	r2, #255
 3800 003e 5A62     		str	r2, [r3, #36]
 3801              		.loc 1 2491 0
 3802 0040 10BD     		pop	{r4, pc}
 3803              	.LVL267:
 3804              	.L372:
 3805              		.loc 1 2488 0
 3806 0042 084B     		ldr	r3, .L387
 3807 0044 FF22     		movs	r2, #255
 3808              		.loc 1 2484 0
 3809 0046 0020     		movs	r0, #0
 3810              	.LVL268:
 3811              		.loc 1 2488 0
 3812 0048 5A62     		str	r2, [r3, #36]
 3813              		.loc 1 2491 0
 3814 004a 10BD     		pop	{r4, pc}
 3815              	.LVL269:
 3816              	.L386:
 3817              		.loc 1 2466 0
 3818 004c 0143     		orrs	r1, r1, r0
 3819              	.LVL270:
ARM GAS  /tmp/cc65ENol.s 			page 68


 3820 004e D162     		str	r1, [r2, #44]
 3821              		.loc 1 2468 0
 3822 0050 FFF7FEFF 		bl	RTC_WaitForSynchro
 3823              	.LVL271:
 3824              		.loc 1 2488 0
 3825 0054 034B     		ldr	r3, .L387
 3826              		.loc 1 2479 0
 3827 0056 0030     		adds	r0, r0, #0
 3828              		.loc 1 2488 0
 3829 0058 4FF0FF02 		mov	r2, #255
 3830              		.loc 1 2479 0
 3831 005c 18BF     		it	ne
 3832 005e 0120     		movne	r0, #1
 3833              	.LVL272:
 3834              		.loc 1 2488 0
 3835 0060 5A62     		str	r2, [r3, #36]
 3836              		.loc 1 2491 0
 3837 0062 10BD     		pop	{r4, pc}
 3838              	.L388:
 3839              		.align	2
 3840              	.L387:
 3841 0064 00280040 		.word	1073752064
 3842              		.cfi_endproc
 3843              	.LFE160:
 3844              		.size	RTC_SynchroShiftConfig, .-RTC_SynchroShiftConfig
 3845              		.section	.text.RTC_ITConfig,"ax",%progbits
 3846              		.align	1
 3847              		.p2align 4,,15
 3848              		.global	RTC_ITConfig
 3849              		.syntax unified
 3850              		.thumb
 3851              		.thumb_func
 3852              		.fpu fpv4-sp-d16
 3853              		.type	RTC_ITConfig, %function
 3854              	RTC_ITConfig:
 3855              	.LFB161:
 3856              		.loc 1 2556 0
 3857              		.cfi_startproc
 3858              		@ args = 0, pretend = 0, frame = 0
 3859              		@ frame_needed = 0, uses_anonymous_args = 0
 3860              		@ link register save eliminated.
 3861              	.LVL273:
 3862              		.loc 1 2562 0
 3863 0000 0F4B     		ldr	r3, .L394
 3864              		.loc 1 2556 0
 3865 0002 10B4     		push	{r4}
 3866              		.cfi_def_cfa_offset 4
 3867              		.cfi_offset 4, -4
 3868              		.loc 1 2563 0
 3869 0004 5322     		movs	r2, #83
 3870              		.loc 1 2562 0
 3871 0006 CA24     		movs	r4, #202
 3872 0008 5C62     		str	r4, [r3, #36]
 3873              		.loc 1 2563 0
 3874 000a 5A62     		str	r2, [r3, #36]
 3875 000c 20F00404 		bic	r4, r0, #4
 3876              		.loc 1 2568 0
ARM GAS  /tmp/cc65ENol.s 			page 69


 3877 0010 9A68     		ldr	r2, [r3, #8]
 3878 0012 00F00400 		and	r0, r0, #4
 3879              	.LVL274:
 3880              		.loc 1 2565 0
 3881 0016 61B9     		cbnz	r1, .L393
 3882              		.loc 1 2575 0
 3883 0018 22EA0402 		bic	r2, r2, r4
 3884 001c 9A60     		str	r2, [r3, #8]
 3885              		.loc 1 2577 0
 3886 001e 1A6C     		ldr	r2, [r3, #64]
 3887 0020 22EA0000 		bic	r0, r2, r0
 3888 0024 1864     		str	r0, [r3, #64]
 3889              	.L391:
 3890              		.loc 1 2580 0
 3891 0026 064B     		ldr	r3, .L394
 3892              		.loc 1 2581 0
 3893 0028 5DF8044B 		ldr	r4, [sp], #4
 3894              		.cfi_remember_state
 3895              		.cfi_restore 4
 3896              		.cfi_def_cfa_offset 0
 3897              		.loc 1 2580 0
 3898 002c FF22     		movs	r2, #255
 3899 002e 5A62     		str	r2, [r3, #36]
 3900              		.loc 1 2581 0
 3901 0030 7047     		bx	lr
 3902              	.L393:
 3903              		.cfi_restore_state
 3904              		.loc 1 2568 0
 3905 0032 2243     		orrs	r2, r2, r4
 3906 0034 9A60     		str	r2, [r3, #8]
 3907              		.loc 1 2570 0
 3908 0036 1A6C     		ldr	r2, [r3, #64]
 3909 0038 1043     		orrs	r0, r0, r2
 3910 003a 1864     		str	r0, [r3, #64]
 3911 003c F3E7     		b	.L391
 3912              	.L395:
 3913 003e 00BF     		.align	2
 3914              	.L394:
 3915 0040 00280040 		.word	1073752064
 3916              		.cfi_endproc
 3917              	.LFE161:
 3918              		.size	RTC_ITConfig, .-RTC_ITConfig
 3919              		.section	.text.RTC_GetFlagStatus,"ax",%progbits
 3920              		.align	1
 3921              		.p2align 4,,15
 3922              		.global	RTC_GetFlagStatus
 3923              		.syntax unified
 3924              		.thumb
 3925              		.thumb_func
 3926              		.fpu fpv4-sp-d16
 3927              		.type	RTC_GetFlagStatus, %function
 3928              	RTC_GetFlagStatus:
 3929              	.LFB162:
 3930              		.loc 1 2604 0
 3931              		.cfi_startproc
 3932              		@ args = 0, pretend = 0, frame = 0
 3933              		@ frame_needed = 0, uses_anonymous_args = 0
ARM GAS  /tmp/cc65ENol.s 			page 70


 3934              		@ link register save eliminated.
 3935              	.LVL275:
 3936              		.loc 1 2612 0
 3937 0000 044B     		ldr	r3, .L397
 3938 0002 054A     		ldr	r2, .L397+4
 3939 0004 DB68     		ldr	r3, [r3, #12]
 3940              	.LVL276:
 3941 0006 1340     		ands	r3, r3, r2
 3942              	.LVL277:
 3943              		.loc 1 2615 0
 3944 0008 0342     		tst	r3, r0
 3945              		.loc 1 2624 0
 3946 000a 14BF     		ite	ne
 3947 000c 0120     		movne	r0, #1
 3948              	.LVL278:
 3949 000e 0020     		moveq	r0, #0
 3950 0010 7047     		bx	lr
 3951              	.L398:
 3952 0012 00BF     		.align	2
 3953              	.L397:
 3954 0014 00280040 		.word	1073752064
 3955 0018 7F3F0100 		.word	81791
 3956              		.cfi_endproc
 3957              	.LFE162:
 3958              		.size	RTC_GetFlagStatus, .-RTC_GetFlagStatus
 3959              		.section	.text.RTC_ClearFlag,"ax",%progbits
 3960              		.align	1
 3961              		.p2align 4,,15
 3962              		.global	RTC_ClearFlag
 3963              		.syntax unified
 3964              		.thumb
 3965              		.thumb_func
 3966              		.fpu fpv4-sp-d16
 3967              		.type	RTC_ClearFlag, %function
 3968              	RTC_ClearFlag:
 3969              	.LFB163:
 3970              		.loc 1 2640 0
 3971              		.cfi_startproc
 3972              		@ args = 0, pretend = 0, frame = 0
 3973              		@ frame_needed = 0, uses_anonymous_args = 0
 3974              		@ link register save eliminated.
 3975              	.LVL279:
 3976              		.loc 1 2645 0
 3977 0000 054A     		ldr	r2, .L400
 3978 0002 D368     		ldr	r3, [r2, #12]
 3979 0004 80B2     		uxth	r0, r0
 3980              	.LVL280:
 3981 0006 40F08000 		orr	r0, r0, #128
 3982 000a 03F08003 		and	r3, r3, #128
 3983 000e 63EA0003 		orn	r3, r3, r0
 3984 0012 D360     		str	r3, [r2, #12]
 3985              		.loc 1 2646 0
 3986 0014 7047     		bx	lr
 3987              	.L401:
 3988 0016 00BF     		.align	2
 3989              	.L400:
 3990 0018 00280040 		.word	1073752064
ARM GAS  /tmp/cc65ENol.s 			page 71


 3991              		.cfi_endproc
 3992              	.LFE163:
 3993              		.size	RTC_ClearFlag, .-RTC_ClearFlag
 3994              		.section	.text.RTC_GetITStatus,"ax",%progbits
 3995              		.align	1
 3996              		.p2align 4,,15
 3997              		.global	RTC_GetITStatus
 3998              		.syntax unified
 3999              		.thumb
 4000              		.thumb_func
 4001              		.fpu fpv4-sp-d16
 4002              		.type	RTC_GetITStatus, %function
 4003              	RTC_GetITStatus:
 4004              	.LFB164:
 4005              		.loc 1 2660 0
 4006              		.cfi_startproc
 4007              		@ args = 0, pretend = 0, frame = 0
 4008              		@ frame_needed = 0, uses_anonymous_args = 0
 4009              		@ link register save eliminated.
 4010              	.LVL281:
 4011              		.loc 1 2668 0
 4012 0000 0949     		ldr	r1, .L405
 4013 0002 0B6C     		ldr	r3, [r1, #64]
 4014              	.LVL282:
 4015              		.loc 1 2671 0
 4016 0004 8A68     		ldr	r2, [r1, #8]
 4017              		.loc 1 2674 0
 4018 0006 C968     		ldr	r1, [r1, #12]
 4019              	.LVL283:
 4020              		.loc 1 2668 0
 4021 0008 03F00403 		and	r3, r3, #4
 4022              	.LVL284:
 4023              		.loc 1 2671 0
 4024 000c 03EAD033 		and	r3, r3, r0, lsr #15
 4025 0010 0240     		ands	r2, r2, r0
 4026              		.loc 1 2677 0
 4027 0012 1343     		orrs	r3, r3, r2
 4028 0014 06D0     		beq	.L404
 4029              		.loc 1 2677 0 is_stmt 0 discriminator 1
 4030 0016 89B2     		uxth	r1, r1
 4031              	.LVL285:
 4032 0018 11EA1013 		ands	r3, r1, r0, lsr #4
 4033              		.loc 1 2679 0 is_stmt 1 discriminator 1
 4034 001c 14BF     		ite	ne
 4035 001e 0120     		movne	r0, #1
 4036              	.LVL286:
 4037 0020 0020     		moveq	r0, #0
 4038 0022 7047     		bx	lr
 4039              	.LVL287:
 4040              	.L404:
 4041              		.loc 1 2683 0
 4042 0024 1846     		mov	r0, r3
 4043              	.LVL288:
 4044              		.loc 1 2686 0
 4045 0026 7047     		bx	lr
 4046              	.L406:
 4047              		.align	2
ARM GAS  /tmp/cc65ENol.s 			page 72


 4048              	.L405:
 4049 0028 00280040 		.word	1073752064
 4050              		.cfi_endproc
 4051              	.LFE164:
 4052              		.size	RTC_GetITStatus, .-RTC_GetITStatus
 4053              		.section	.text.RTC_ClearITPendingBit,"ax",%progbits
 4054              		.align	1
 4055              		.p2align 4,,15
 4056              		.global	RTC_ClearITPendingBit
 4057              		.syntax unified
 4058              		.thumb
 4059              		.thumb_func
 4060              		.fpu fpv4-sp-d16
 4061              		.type	RTC_ClearITPendingBit, %function
 4062              	RTC_ClearITPendingBit:
 4063              	.LFB165:
 4064              		.loc 1 2700 0
 4065              		.cfi_startproc
 4066              		@ args = 0, pretend = 0, frame = 0
 4067              		@ frame_needed = 0, uses_anonymous_args = 0
 4068              		@ link register save eliminated.
 4069              	.LVL289:
 4070              		.loc 1 2710 0
 4071 0000 054A     		ldr	r2, .L408
 4072 0002 D368     		ldr	r3, [r2, #12]
 4073 0004 C0F30F10 		ubfx	r0, r0, #4, #16
 4074              	.LVL290:
 4075 0008 40F08000 		orr	r0, r0, #128
 4076 000c 03F08003 		and	r3, r3, #128
 4077 0010 63EA0003 		orn	r3, r3, r0
 4078 0014 D360     		str	r3, [r2, #12]
 4079              		.loc 1 2711 0
 4080 0016 7047     		bx	lr
 4081              	.L409:
 4082              		.align	2
 4083              	.L408:
 4084 0018 00280040 		.word	1073752064
 4085              		.cfi_endproc
 4086              	.LFE165:
 4087              		.size	RTC_ClearITPendingBit, .-RTC_ClearITPendingBit
 4088              		.text
 4089              	.Letext0:
 4090              		.file 2 "/usr/arm-none-eabi/include/machine/_default_types.h"
 4091              		.file 3 "/usr/arm-none-eabi/include/sys/_stdint.h"
 4092              		.file 4 "ChibiOS_2.6.6/os/hal/platforms/STM32F4xx/stm32f4xx.h"
 4093              		.file 5 "ChibiOS_2.6.6/ext/stdperiph_stm32f4/inc/stm32f4xx_rtc.h"
 4094              		.file 6 "ChibiOS_2.6.6/os/ports/common/ARMCMx/CMSIS/include/core_cm4.h"