ARM GAS  /tmp/ccrGbg5F.s 			page 1


   1              		.cpu cortex-m4
   2              		.eabi_attribute 27, 1
   3              		.eabi_attribute 28, 1
   4              		.eabi_attribute 20, 1
   5              		.eabi_attribute 21, 1
   6              		.eabi_attribute 23, 3
   7              		.eabi_attribute 24, 1
   8              		.eabi_attribute 25, 1
   9              		.eabi_attribute 26, 1
  10              		.eabi_attribute 30, 2
  11              		.eabi_attribute 34, 1
  12              		.eabi_attribute 18, 4
  13              		.file	"stm32f4xx_sdio.c"
  14              		.text
  15              	.Ltext0:
  16              		.cfi_sections	.debug_frame
  17              		.section	.text.SDIO_DeInit,"ax",%progbits
  18              		.align	1
  19              		.p2align 4,,15
  20              		.global	SDIO_DeInit
  21              		.syntax unified
  22              		.thumb
  23              		.thumb_func
  24              		.fpu fpv4-sp-d16
  25              		.type	SDIO_DeInit, %function
  26              	SDIO_DeInit:
  27              	.LFB111:
  28              		.file 1 "ChibiOS_2.6.6/ext/stdperiph_stm32f4/src/stm32f4xx_sdio.c"
  29              		.loc 1 266 0
  30              		.cfi_startproc
  31              		@ args = 0, pretend = 0, frame = 0
  32              		@ frame_needed = 0, uses_anonymous_args = 0
  33 0000 08B5     		push	{r3, lr}
  34              		.cfi_def_cfa_offset 8
  35              		.cfi_offset 3, -8
  36              		.cfi_offset 14, -4
  37              		.loc 1 267 0
  38 0002 0121     		movs	r1, #1
  39 0004 4FF40060 		mov	r0, #2048
  40 0008 FFF7FEFF 		bl	RCC_APB2PeriphResetCmd
  41              	.LVL0:
  42              		.loc 1 268 0
  43 000c 0021     		movs	r1, #0
  44 000e 4FF40060 		mov	r0, #2048
  45              		.loc 1 269 0
  46 0012 BDE80840 		pop	{r3, lr}
  47              		.cfi_restore 14
  48              		.cfi_restore 3
  49              		.cfi_def_cfa_offset 0
  50              		.loc 1 268 0
  51 0016 FFF7FEBF 		b	RCC_APB2PeriphResetCmd
  52              	.LVL1:
  53              		.cfi_endproc
  54              	.LFE111:
  55              		.size	SDIO_DeInit, .-SDIO_DeInit
  56 001a 00BF     		.section	.text.SDIO_Init,"ax",%progbits
  57              		.align	1
ARM GAS  /tmp/ccrGbg5F.s 			page 2


  58              		.p2align 4,,15
  59              		.global	SDIO_Init
  60              		.syntax unified
  61              		.thumb
  62              		.thumb_func
  63              		.fpu fpv4-sp-d16
  64              		.type	SDIO_Init, %function
  65              	SDIO_Init:
  66              	.LFB112:
  67              		.loc 1 279 0
  68              		.cfi_startproc
  69              		@ args = 0, pretend = 0, frame = 0
  70              		@ frame_needed = 0, uses_anonymous_args = 0
  71              		@ link register save eliminated.
  72              	.LVL2:
  73              		.loc 1 291 0
  74 0000 0A49     		ldr	r1, .L6
  75              		.loc 1 279 0
  76 0002 70B4     		push	{r4, r5, r6}
  77              		.cfi_def_cfa_offset 12
  78              		.cfi_offset 4, -12
  79              		.cfi_offset 5, -8
  80              		.cfi_offset 6, -4
  81              		.loc 1 291 0
  82 0004 4A68     		ldr	r2, [r1, #4]
  83              	.LVL3:
  84 0006 C668     		ldr	r6, [r0, #12]
  85 0008 0568     		ldr	r5, [r0]
  86 000a D0E90143 		ldrd	r4, r3, [r0, #4]
  87              		.loc 1 294 0
  88 000e 22F4FD42 		bic	r2, r2, #32384
  89              	.LVL4:
  90 0012 22F07F02 		bic	r2, r2, #127
  91 0016 2343     		orrs	r3, r3, r4
  92 0018 1343     		orrs	r3, r3, r2
  93 001a 0469     		ldr	r4, [r0, #16]
  94              		.loc 1 302 0
  95 001c 027D     		ldrb	r2, [r0, #20]	@ zero_extendqisi2
  96 001e 3343     		orrs	r3, r3, r6
  97 0020 2B43     		orrs	r3, r3, r5
  98 0022 2343     		orrs	r3, r3, r4
  99 0024 1343     		orrs	r3, r3, r2
 100              	.LVL5:
 101              		.loc 1 307 0
 102 0026 4B60     		str	r3, [r1, #4]
 103              		.loc 1 308 0
 104 0028 70BC     		pop	{r4, r5, r6}
 105              		.cfi_restore 6
 106              		.cfi_restore 5
 107              		.cfi_restore 4
 108              		.cfi_def_cfa_offset 0
 109 002a 7047     		bx	lr
 110              	.L7:
 111              		.align	2
 112              	.L6:
 113 002c 002C0140 		.word	1073818624
 114              		.cfi_endproc
ARM GAS  /tmp/ccrGbg5F.s 			page 3


 115              	.LFE112:
 116              		.size	SDIO_Init, .-SDIO_Init
 117              		.section	.text.SDIO_StructInit,"ax",%progbits
 118              		.align	1
 119              		.p2align 4,,15
 120              		.global	SDIO_StructInit
 121              		.syntax unified
 122              		.thumb
 123              		.thumb_func
 124              		.fpu fpv4-sp-d16
 125              		.type	SDIO_StructInit, %function
 126              	SDIO_StructInit:
 127              	.LFB113:
 128              		.loc 1 317 0
 129              		.cfi_startproc
 130              		@ args = 0, pretend = 0, frame = 0
 131              		@ frame_needed = 0, uses_anonymous_args = 0
 132              		@ link register save eliminated.
 133              	.LVL6:
 134              		.loc 1 319 0
 135 0000 0023     		movs	r3, #0
 136 0002 0375     		strb	r3, [r0, #20]
 137              		.loc 1 321 0
 138 0004 C0E90033 		strd	r3, r3, [r0]
 139              		.loc 1 323 0
 140 0008 C0E90233 		strd	r3, r3, [r0, #8]
 141              		.loc 1 324 0
 142 000c 0361     		str	r3, [r0, #16]
 143              		.loc 1 325 0
 144 000e 7047     		bx	lr
 145              		.cfi_endproc
 146              	.LFE113:
 147              		.size	SDIO_StructInit, .-SDIO_StructInit
 148              		.section	.text.SDIO_ClockCmd,"ax",%progbits
 149              		.align	1
 150              		.p2align 4,,15
 151              		.global	SDIO_ClockCmd
 152              		.syntax unified
 153              		.thumb
 154              		.thumb_func
 155              		.fpu fpv4-sp-d16
 156              		.type	SDIO_ClockCmd, %function
 157              	SDIO_ClockCmd:
 158              	.LFB114:
 159              		.loc 1 334 0
 160              		.cfi_startproc
 161              		@ args = 0, pretend = 0, frame = 0
 162              		@ frame_needed = 0, uses_anonymous_args = 0
 163              		@ link register save eliminated.
 164              	.LVL7:
 165              		.loc 1 338 0
 166 0000 014B     		ldr	r3, .L10
 167 0002 1860     		str	r0, [r3]
 168              		.loc 1 339 0
 169 0004 7047     		bx	lr
 170              	.L11:
 171 0006 00BF     		.align	2
ARM GAS  /tmp/ccrGbg5F.s 			page 4


 172              	.L10:
 173 0008 A0802542 		.word	1109754016
 174              		.cfi_endproc
 175              	.LFE114:
 176              		.size	SDIO_ClockCmd, .-SDIO_ClockCmd
 177              		.section	.text.SDIO_SetPowerState,"ax",%progbits
 178              		.align	1
 179              		.p2align 4,,15
 180              		.global	SDIO_SetPowerState
 181              		.syntax unified
 182              		.thumb
 183              		.thumb_func
 184              		.fpu fpv4-sp-d16
 185              		.type	SDIO_SetPowerState, %function
 186              	SDIO_SetPowerState:
 187              	.LFB115:
 188              		.loc 1 350 0
 189              		.cfi_startproc
 190              		@ args = 0, pretend = 0, frame = 0
 191              		@ frame_needed = 0, uses_anonymous_args = 0
 192              		@ link register save eliminated.
 193              	.LVL8:
 194              		.loc 1 354 0
 195 0000 014B     		ldr	r3, .L13
 196 0002 1860     		str	r0, [r3]
 197              		.loc 1 355 0
 198 0004 7047     		bx	lr
 199              	.L14:
 200 0006 00BF     		.align	2
 201              	.L13:
 202 0008 002C0140 		.word	1073818624
 203              		.cfi_endproc
 204              	.LFE115:
 205              		.size	SDIO_SetPowerState, .-SDIO_SetPowerState
 206              		.section	.text.SDIO_GetPowerState,"ax",%progbits
 207              		.align	1
 208              		.p2align 4,,15
 209              		.global	SDIO_GetPowerState
 210              		.syntax unified
 211              		.thumb
 212              		.thumb_func
 213              		.fpu fpv4-sp-d16
 214              		.type	SDIO_GetPowerState, %function
 215              	SDIO_GetPowerState:
 216              	.LFB116:
 217              		.loc 1 367 0
 218              		.cfi_startproc
 219              		@ args = 0, pretend = 0, frame = 0
 220              		@ frame_needed = 0, uses_anonymous_args = 0
 221              		@ link register save eliminated.
 222              		.loc 1 368 0
 223 0000 024B     		ldr	r3, .L16
 224 0002 1868     		ldr	r0, [r3]
 225              		.loc 1 369 0
 226 0004 00F00300 		and	r0, r0, #3
 227 0008 7047     		bx	lr
 228              	.L17:
ARM GAS  /tmp/ccrGbg5F.s 			page 5


 229 000a 00BF     		.align	2
 230              	.L16:
 231 000c 002C0140 		.word	1073818624
 232              		.cfi_endproc
 233              	.LFE116:
 234              		.size	SDIO_GetPowerState, .-SDIO_GetPowerState
 235              		.section	.text.SDIO_SendCommand,"ax",%progbits
 236              		.align	1
 237              		.p2align 4,,15
 238              		.global	SDIO_SendCommand
 239              		.syntax unified
 240              		.thumb
 241              		.thumb_func
 242              		.fpu fpv4-sp-d16
 243              		.type	SDIO_SendCommand, %function
 244              	SDIO_SendCommand:
 245              	.LFB117:
 246              		.loc 1 399 0
 247              		.cfi_startproc
 248              		@ args = 0, pretend = 0, frame = 0
 249              		@ frame_needed = 0, uses_anonymous_args = 0
 250              		@ link register save eliminated.
 251              	.LVL9:
 252              		.loc 1 410 0
 253 0000 0949     		ldr	r1, .L20
 254 0002 0368     		ldr	r3, [r0]
 255              		.loc 1 399 0
 256 0004 30B4     		push	{r4, r5}
 257              		.cfi_def_cfa_offset 8
 258              		.cfi_offset 4, -8
 259              		.cfi_offset 5, -4
 260              		.loc 1 410 0
 261 0006 8B60     		str	r3, [r1, #8]
 262              		.loc 1 421 0
 263 0008 D0E90135 		ldrd	r3, r5, [r0, #4]
 264              		.loc 1 414 0
 265 000c CA68     		ldr	r2, [r1, #12]
 266              	.LVL10:
 267              		.loc 1 421 0
 268 000e D0E90340 		ldrd	r4, r0, [r0, #12]
 269              	.LVL11:
 270              		.loc 1 416 0
 271 0012 22F4FF62 		bic	r2, r2, #2040
 272              	.LVL12:
 273              		.loc 1 421 0
 274 0016 2B43     		orrs	r3, r3, r5
 275              		.loc 1 416 0
 276 0018 22F00702 		bic	r2, r2, #7
 277 001c 1343     		orrs	r3, r3, r2
 278 001e 2343     		orrs	r3, r3, r4
 279              		.loc 1 421 0
 280 0020 0343     		orrs	r3, r3, r0
 281              	.LVL13:
 282              		.loc 1 425 0
 283 0022 CB60     		str	r3, [r1, #12]
 284              		.loc 1 426 0
 285 0024 30BC     		pop	{r4, r5}
ARM GAS  /tmp/ccrGbg5F.s 			page 6


 286              		.cfi_restore 5
 287              		.cfi_restore 4
 288              		.cfi_def_cfa_offset 0
 289 0026 7047     		bx	lr
 290              	.L21:
 291              		.align	2
 292              	.L20:
 293 0028 002C0140 		.word	1073818624
 294              		.cfi_endproc
 295              	.LFE117:
 296              		.size	SDIO_SendCommand, .-SDIO_SendCommand
 297              		.section	.text.SDIO_CmdStructInit,"ax",%progbits
 298              		.align	1
 299              		.p2align 4,,15
 300              		.global	SDIO_CmdStructInit
 301              		.syntax unified
 302              		.thumb
 303              		.thumb_func
 304              		.fpu fpv4-sp-d16
 305              		.type	SDIO_CmdStructInit, %function
 306              	SDIO_CmdStructInit:
 307              	.LFB118:
 308              		.loc 1 435 0
 309              		.cfi_startproc
 310              		@ args = 0, pretend = 0, frame = 0
 311              		@ frame_needed = 0, uses_anonymous_args = 0
 312              		@ link register save eliminated.
 313              	.LVL14:
 314              		.loc 1 437 0
 315 0000 0023     		movs	r3, #0
 316              		.loc 1 438 0
 317 0002 C0E90033 		strd	r3, r3, [r0]
 318              		.loc 1 440 0
 319 0006 C0E90233 		strd	r3, r3, [r0, #8]
 320              		.loc 1 441 0
 321 000a 0361     		str	r3, [r0, #16]
 322              		.loc 1 442 0
 323 000c 7047     		bx	lr
 324              		.cfi_endproc
 325              	.LFE118:
 326              		.size	SDIO_CmdStructInit, .-SDIO_CmdStructInit
 327 000e 00BF     		.section	.text.SDIO_GetCommandResponse,"ax",%progbits
 328              		.align	1
 329              		.p2align 4,,15
 330              		.global	SDIO_GetCommandResponse
 331              		.syntax unified
 332              		.thumb
 333              		.thumb_func
 334              		.fpu fpv4-sp-d16
 335              		.type	SDIO_GetCommandResponse, %function
 336              	SDIO_GetCommandResponse:
 337              	.LFB119:
 338              		.loc 1 450 0
 339              		.cfi_startproc
 340              		@ args = 0, pretend = 0, frame = 0
 341              		@ frame_needed = 0, uses_anonymous_args = 0
 342              		@ link register save eliminated.
ARM GAS  /tmp/ccrGbg5F.s 			page 7


 343              		.loc 1 451 0
 344 0000 014B     		ldr	r3, .L24
 345 0002 1869     		ldr	r0, [r3, #16]
 346              		.loc 1 452 0
 347 0004 C0B2     		uxtb	r0, r0
 348 0006 7047     		bx	lr
 349              	.L25:
 350              		.align	2
 351              	.L24:
 352 0008 002C0140 		.word	1073818624
 353              		.cfi_endproc
 354              	.LFE119:
 355              		.size	SDIO_GetCommandResponse, .-SDIO_GetCommandResponse
 356              		.section	.text.SDIO_GetResponse,"ax",%progbits
 357              		.align	1
 358              		.p2align 4,,15
 359              		.global	SDIO_GetResponse
 360              		.syntax unified
 361              		.thumb
 362              		.thumb_func
 363              		.fpu fpv4-sp-d16
 364              		.type	SDIO_GetResponse, %function
 365              	SDIO_GetResponse:
 366              	.LFB120:
 367              		.loc 1 465 0
 368              		.cfi_startproc
 369              		@ args = 0, pretend = 0, frame = 8
 370              		@ frame_needed = 0, uses_anonymous_args = 0
 371              		@ link register save eliminated.
 372              	.LVL15:
 373              		.loc 1 471 0
 374 0000 044B     		ldr	r3, .L28
 375              		.loc 1 465 0
 376 0002 82B0     		sub	sp, sp, #8
 377              		.cfi_def_cfa_offset 8
 378              		.loc 1 471 0
 379 0004 0344     		add	r3, r3, r0
 380              		.loc 1 466 0
 381 0006 0022     		movs	r2, #0
 382 0008 0192     		str	r2, [sp, #4]
 383              		.loc 1 471 0
 384 000a 0193     		str	r3, [sp, #4]
 385              		.loc 1 473 0
 386 000c 019B     		ldr	r3, [sp, #4]
 387 000e 1868     		ldr	r0, [r3]
 388              	.LVL16:
 389              		.loc 1 474 0
 390 0010 02B0     		add	sp, sp, #8
 391              		.cfi_def_cfa_offset 0
 392              		@ sp needed
 393 0012 7047     		bx	lr
 394              	.L29:
 395              		.align	2
 396              	.L28:
 397 0014 142C0140 		.word	1073818644
 398              		.cfi_endproc
 399              	.LFE120:
ARM GAS  /tmp/ccrGbg5F.s 			page 8


 400              		.size	SDIO_GetResponse, .-SDIO_GetResponse
 401              		.section	.text.SDIO_DataConfig,"ax",%progbits
 402              		.align	1
 403              		.p2align 4,,15
 404              		.global	SDIO_DataConfig
 405              		.syntax unified
 406              		.thumb
 407              		.thumb_func
 408              		.fpu fpv4-sp-d16
 409              		.type	SDIO_DataConfig, %function
 410              	SDIO_DataConfig:
 411              	.LFB121:
 412              		.loc 1 503 0
 413              		.cfi_startproc
 414              		@ args = 0, pretend = 0, frame = 0
 415              		@ frame_needed = 0, uses_anonymous_args = 0
 416              		@ link register save eliminated.
 417              	.LVL17:
 418              		.loc 1 515 0
 419 0000 094A     		ldr	r2, .L32
 420 0002 0368     		ldr	r3, [r0]
 421              		.loc 1 503 0
 422 0004 30B4     		push	{r4, r5}
 423              		.cfi_def_cfa_offset 8
 424              		.cfi_offset 4, -8
 425              		.cfi_offset 5, -4
 426              		.loc 1 515 0
 427 0006 5362     		str	r3, [r2, #36]
 428              		.loc 1 519 0
 429 0008 4368     		ldr	r3, [r0, #4]
 430 000a 9362     		str	r3, [r2, #40]
 431              		.loc 1 530 0
 432 000c D0E90235 		ldrd	r3, r5, [r0, #8]
 433              		.loc 1 523 0
 434 0010 D16A     		ldr	r1, [r2, #44]
 435              	.LVL18:
 436              		.loc 1 530 0
 437 0012 D0E90440 		ldrd	r4, r0, [r0, #16]
 438              	.LVL19:
 439 0016 2B43     		orrs	r3, r3, r5
 440              		.loc 1 525 0
 441 0018 21F0F701 		bic	r1, r1, #247
 442              	.LVL20:
 443 001c 0B43     		orrs	r3, r3, r1
 444 001e 2343     		orrs	r3, r3, r4
 445              		.loc 1 530 0
 446 0020 0343     		orrs	r3, r3, r0
 447              	.LVL21:
 448              		.loc 1 534 0
 449 0022 D362     		str	r3, [r2, #44]
 450              		.loc 1 535 0
 451 0024 30BC     		pop	{r4, r5}
 452              		.cfi_restore 5
 453              		.cfi_restore 4
 454              		.cfi_def_cfa_offset 0
 455 0026 7047     		bx	lr
 456              	.L33:
ARM GAS  /tmp/ccrGbg5F.s 			page 9


 457              		.align	2
 458              	.L32:
 459 0028 002C0140 		.word	1073818624
 460              		.cfi_endproc
 461              	.LFE121:
 462              		.size	SDIO_DataConfig, .-SDIO_DataConfig
 463              		.section	.text.SDIO_DataStructInit,"ax",%progbits
 464              		.align	1
 465              		.p2align 4,,15
 466              		.global	SDIO_DataStructInit
 467              		.syntax unified
 468              		.thumb
 469              		.thumb_func
 470              		.fpu fpv4-sp-d16
 471              		.type	SDIO_DataStructInit, %function
 472              	SDIO_DataStructInit:
 473              	.LFB122:
 474              		.loc 1 544 0
 475              		.cfi_startproc
 476              		@ args = 0, pretend = 0, frame = 0
 477              		@ frame_needed = 0, uses_anonymous_args = 0
 478              		@ link register save eliminated.
 479              	.LVL22:
 480              		.loc 1 547 0
 481 0000 0023     		movs	r3, #0
 482 0002 4FF0FF32 		mov	r2, #-1
 483 0006 C0E90023 		strd	r2, r3, [r0]
 484              		.loc 1 549 0
 485 000a C0E90233 		strd	r3, r3, [r0, #8]
 486              		.loc 1 551 0
 487 000e C0E90433 		strd	r3, r3, [r0, #16]
 488              		.loc 1 552 0
 489 0012 7047     		bx	lr
 490              		.cfi_endproc
 491              	.LFE122:
 492              		.size	SDIO_DataStructInit, .-SDIO_DataStructInit
 493              		.section	.text.SDIO_GetDataCounter,"ax",%progbits
 494              		.align	1
 495              		.p2align 4,,15
 496              		.global	SDIO_GetDataCounter
 497              		.syntax unified
 498              		.thumb
 499              		.thumb_func
 500              		.fpu fpv4-sp-d16
 501              		.type	SDIO_GetDataCounter, %function
 502              	SDIO_GetDataCounter:
 503              	.LFB123:
 504              		.loc 1 560 0
 505              		.cfi_startproc
 506              		@ args = 0, pretend = 0, frame = 0
 507              		@ frame_needed = 0, uses_anonymous_args = 0
 508              		@ link register save eliminated.
 509              		.loc 1 561 0
 510 0000 014B     		ldr	r3, .L36
 511 0002 186B     		ldr	r0, [r3, #48]
 512              		.loc 1 562 0
 513 0004 7047     		bx	lr
ARM GAS  /tmp/ccrGbg5F.s 			page 10


 514              	.L37:
 515 0006 00BF     		.align	2
 516              	.L36:
 517 0008 002C0140 		.word	1073818624
 518              		.cfi_endproc
 519              	.LFE123:
 520              		.size	SDIO_GetDataCounter, .-SDIO_GetDataCounter
 521              		.section	.text.SDIO_ReadData,"ax",%progbits
 522              		.align	1
 523              		.p2align 4,,15
 524              		.global	SDIO_ReadData
 525              		.syntax unified
 526              		.thumb
 527              		.thumb_func
 528              		.fpu fpv4-sp-d16
 529              		.type	SDIO_ReadData, %function
 530              	SDIO_ReadData:
 531              	.LFB124:
 532              		.loc 1 570 0
 533              		.cfi_startproc
 534              		@ args = 0, pretend = 0, frame = 0
 535              		@ frame_needed = 0, uses_anonymous_args = 0
 536              		@ link register save eliminated.
 537              		.loc 1 571 0
 538 0000 014B     		ldr	r3, .L39
 539 0002 D3F88000 		ldr	r0, [r3, #128]
 540              		.loc 1 572 0
 541 0006 7047     		bx	lr
 542              	.L40:
 543              		.align	2
 544              	.L39:
 545 0008 002C0140 		.word	1073818624
 546              		.cfi_endproc
 547              	.LFE124:
 548              		.size	SDIO_ReadData, .-SDIO_ReadData
 549              		.section	.text.SDIO_WriteData,"ax",%progbits
 550              		.align	1
 551              		.p2align 4,,15
 552              		.global	SDIO_WriteData
 553              		.syntax unified
 554              		.thumb
 555              		.thumb_func
 556              		.fpu fpv4-sp-d16
 557              		.type	SDIO_WriteData, %function
 558              	SDIO_WriteData:
 559              	.LFB125:
 560              		.loc 1 580 0
 561              		.cfi_startproc
 562              		@ args = 0, pretend = 0, frame = 0
 563              		@ frame_needed = 0, uses_anonymous_args = 0
 564              		@ link register save eliminated.
 565              	.LVL23:
 566              		.loc 1 581 0
 567 0000 014B     		ldr	r3, .L42
 568 0002 C3F88000 		str	r0, [r3, #128]
 569              		.loc 1 582 0
 570 0006 7047     		bx	lr
ARM GAS  /tmp/ccrGbg5F.s 			page 11


 571              	.L43:
 572              		.align	2
 573              	.L42:
 574 0008 002C0140 		.word	1073818624
 575              		.cfi_endproc
 576              	.LFE125:
 577              		.size	SDIO_WriteData, .-SDIO_WriteData
 578              		.section	.text.SDIO_GetFIFOCount,"ax",%progbits
 579              		.align	1
 580              		.p2align 4,,15
 581              		.global	SDIO_GetFIFOCount
 582              		.syntax unified
 583              		.thumb
 584              		.thumb_func
 585              		.fpu fpv4-sp-d16
 586              		.type	SDIO_GetFIFOCount, %function
 587              	SDIO_GetFIFOCount:
 588              	.LFB126:
 589              		.loc 1 590 0
 590              		.cfi_startproc
 591              		@ args = 0, pretend = 0, frame = 0
 592              		@ frame_needed = 0, uses_anonymous_args = 0
 593              		@ link register save eliminated.
 594              		.loc 1 591 0
 595 0000 014B     		ldr	r3, .L45
 596 0002 986C     		ldr	r0, [r3, #72]
 597              		.loc 1 592 0
 598 0004 7047     		bx	lr
 599              	.L46:
 600 0006 00BF     		.align	2
 601              	.L45:
 602 0008 002C0140 		.word	1073818624
 603              		.cfi_endproc
 604              	.LFE126:
 605              		.size	SDIO_GetFIFOCount, .-SDIO_GetFIFOCount
 606              		.section	.text.SDIO_StartSDIOReadWait,"ax",%progbits
 607              		.align	1
 608              		.p2align 4,,15
 609              		.global	SDIO_StartSDIOReadWait
 610              		.syntax unified
 611              		.thumb
 612              		.thumb_func
 613              		.fpu fpv4-sp-d16
 614              		.type	SDIO_StartSDIOReadWait, %function
 615              	SDIO_StartSDIOReadWait:
 616              	.LFB127:
 617              		.loc 1 619 0
 618              		.cfi_startproc
 619              		@ args = 0, pretend = 0, frame = 0
 620              		@ frame_needed = 0, uses_anonymous_args = 0
 621              		@ link register save eliminated.
 622              	.LVL24:
 623              		.loc 1 623 0
 624 0000 014B     		ldr	r3, .L48
 625 0002 1860     		str	r0, [r3]
 626              		.loc 1 624 0
 627 0004 7047     		bx	lr
ARM GAS  /tmp/ccrGbg5F.s 			page 12


 628              	.L49:
 629 0006 00BF     		.align	2
 630              	.L48:
 631 0008 A0852542 		.word	1109755296
 632              		.cfi_endproc
 633              	.LFE127:
 634              		.size	SDIO_StartSDIOReadWait, .-SDIO_StartSDIOReadWait
 635              		.section	.text.SDIO_StopSDIOReadWait,"ax",%progbits
 636              		.align	1
 637              		.p2align 4,,15
 638              		.global	SDIO_StopSDIOReadWait
 639              		.syntax unified
 640              		.thumb
 641              		.thumb_func
 642              		.fpu fpv4-sp-d16
 643              		.type	SDIO_StopSDIOReadWait, %function
 644              	SDIO_StopSDIOReadWait:
 645              	.LFB128:
 646              		.loc 1 633 0
 647              		.cfi_startproc
 648              		@ args = 0, pretend = 0, frame = 0
 649              		@ frame_needed = 0, uses_anonymous_args = 0
 650              		@ link register save eliminated.
 651              	.LVL25:
 652              		.loc 1 637 0
 653 0000 014B     		ldr	r3, .L51
 654 0002 1860     		str	r0, [r3]
 655              		.loc 1 638 0
 656 0004 7047     		bx	lr
 657              	.L52:
 658 0006 00BF     		.align	2
 659              	.L51:
 660 0008 A4852542 		.word	1109755300
 661              		.cfi_endproc
 662              	.LFE128:
 663              		.size	SDIO_StopSDIOReadWait, .-SDIO_StopSDIOReadWait
 664              		.section	.text.SDIO_SetSDIOReadWaitMode,"ax",%progbits
 665              		.align	1
 666              		.p2align 4,,15
 667              		.global	SDIO_SetSDIOReadWaitMode
 668              		.syntax unified
 669              		.thumb
 670              		.thumb_func
 671              		.fpu fpv4-sp-d16
 672              		.type	SDIO_SetSDIOReadWaitMode, %function
 673              	SDIO_SetSDIOReadWaitMode:
 674              	.LFB129:
 675              		.loc 1 649 0
 676              		.cfi_startproc
 677              		@ args = 0, pretend = 0, frame = 0
 678              		@ frame_needed = 0, uses_anonymous_args = 0
 679              		@ link register save eliminated.
 680              	.LVL26:
 681              		.loc 1 653 0
 682 0000 014B     		ldr	r3, .L54
 683 0002 1860     		str	r0, [r3]
 684              		.loc 1 654 0
ARM GAS  /tmp/ccrGbg5F.s 			page 13


 685 0004 7047     		bx	lr
 686              	.L55:
 687 0006 00BF     		.align	2
 688              	.L54:
 689 0008 A8852542 		.word	1109755304
 690              		.cfi_endproc
 691              	.LFE129:
 692              		.size	SDIO_SetSDIOReadWaitMode, .-SDIO_SetSDIOReadWaitMode
 693              		.section	.text.SDIO_SetSDIOOperation,"ax",%progbits
 694              		.align	1
 695              		.p2align 4,,15
 696              		.global	SDIO_SetSDIOOperation
 697              		.syntax unified
 698              		.thumb
 699              		.thumb_func
 700              		.fpu fpv4-sp-d16
 701              		.type	SDIO_SetSDIOOperation, %function
 702              	SDIO_SetSDIOOperation:
 703              	.LFB130:
 704              		.loc 1 663 0
 705              		.cfi_startproc
 706              		@ args = 0, pretend = 0, frame = 0
 707              		@ frame_needed = 0, uses_anonymous_args = 0
 708              		@ link register save eliminated.
 709              	.LVL27:
 710              		.loc 1 667 0
 711 0000 014B     		ldr	r3, .L57
 712 0002 1860     		str	r0, [r3]
 713              		.loc 1 668 0
 714 0004 7047     		bx	lr
 715              	.L58:
 716 0006 00BF     		.align	2
 717              	.L57:
 718 0008 AC852542 		.word	1109755308
 719              		.cfi_endproc
 720              	.LFE130:
 721              		.size	SDIO_SetSDIOOperation, .-SDIO_SetSDIOOperation
 722              		.section	.text.SDIO_SendSDIOSuspendCmd,"ax",%progbits
 723              		.align	1
 724              		.p2align 4,,15
 725              		.global	SDIO_SendSDIOSuspendCmd
 726              		.syntax unified
 727              		.thumb
 728              		.thumb_func
 729              		.fpu fpv4-sp-d16
 730              		.type	SDIO_SendSDIOSuspendCmd, %function
 731              	SDIO_SendSDIOSuspendCmd:
 732              	.LFB131:
 733              		.loc 1 677 0
 734              		.cfi_startproc
 735              		@ args = 0, pretend = 0, frame = 0
 736              		@ frame_needed = 0, uses_anonymous_args = 0
 737              		@ link register save eliminated.
 738              	.LVL28:
 739              		.loc 1 681 0
 740 0000 014B     		ldr	r3, .L60
 741 0002 1860     		str	r0, [r3]
ARM GAS  /tmp/ccrGbg5F.s 			page 14


 742              		.loc 1 682 0
 743 0004 7047     		bx	lr
 744              	.L61:
 745 0006 00BF     		.align	2
 746              	.L60:
 747 0008 AC812542 		.word	1109754284
 748              		.cfi_endproc
 749              	.LFE131:
 750              		.size	SDIO_SendSDIOSuspendCmd, .-SDIO_SendSDIOSuspendCmd
 751              		.section	.text.SDIO_CommandCompletionCmd,"ax",%progbits
 752              		.align	1
 753              		.p2align 4,,15
 754              		.global	SDIO_CommandCompletionCmd
 755              		.syntax unified
 756              		.thumb
 757              		.thumb_func
 758              		.fpu fpv4-sp-d16
 759              		.type	SDIO_CommandCompletionCmd, %function
 760              	SDIO_CommandCompletionCmd:
 761              	.LFB132:
 762              		.loc 1 709 0
 763              		.cfi_startproc
 764              		@ args = 0, pretend = 0, frame = 0
 765              		@ frame_needed = 0, uses_anonymous_args = 0
 766              		@ link register save eliminated.
 767              	.LVL29:
 768              		.loc 1 713 0
 769 0000 014B     		ldr	r3, .L63
 770 0002 1860     		str	r0, [r3]
 771              		.loc 1 714 0
 772 0004 7047     		bx	lr
 773              	.L64:
 774 0006 00BF     		.align	2
 775              	.L63:
 776 0008 B0812542 		.word	1109754288
 777              		.cfi_endproc
 778              	.LFE132:
 779              		.size	SDIO_CommandCompletionCmd, .-SDIO_CommandCompletionCmd
 780              		.section	.text.SDIO_CEATAITCmd,"ax",%progbits
 781              		.align	1
 782              		.p2align 4,,15
 783              		.global	SDIO_CEATAITCmd
 784              		.syntax unified
 785              		.thumb
 786              		.thumb_func
 787              		.fpu fpv4-sp-d16
 788              		.type	SDIO_CEATAITCmd, %function
 789              	SDIO_CEATAITCmd:
 790              	.LFB133:
 791              		.loc 1 723 0
 792              		.cfi_startproc
 793              		@ args = 0, pretend = 0, frame = 0
 794              		@ frame_needed = 0, uses_anonymous_args = 0
 795              		@ link register save eliminated.
 796              	.LVL30:
 797              		.loc 1 727 0
 798 0000 C043     		mvns	r0, r0
ARM GAS  /tmp/ccrGbg5F.s 			page 15


 799              	.LVL31:
 800 0002 024B     		ldr	r3, .L66
 801 0004 00F00100 		and	r0, r0, #1
 802 0008 1860     		str	r0, [r3]
 803              		.loc 1 728 0
 804 000a 7047     		bx	lr
 805              	.L67:
 806              		.align	2
 807              	.L66:
 808 000c B4812542 		.word	1109754292
 809              		.cfi_endproc
 810              	.LFE133:
 811              		.size	SDIO_CEATAITCmd, .-SDIO_CEATAITCmd
 812              		.section	.text.SDIO_SendCEATACmd,"ax",%progbits
 813              		.align	1
 814              		.p2align 4,,15
 815              		.global	SDIO_SendCEATACmd
 816              		.syntax unified
 817              		.thumb
 818              		.thumb_func
 819              		.fpu fpv4-sp-d16
 820              		.type	SDIO_SendCEATACmd, %function
 821              	SDIO_SendCEATACmd:
 822              	.LFB134:
 823              		.loc 1 737 0
 824              		.cfi_startproc
 825              		@ args = 0, pretend = 0, frame = 0
 826              		@ frame_needed = 0, uses_anonymous_args = 0
 827              		@ link register save eliminated.
 828              	.LVL32:
 829              		.loc 1 741 0
 830 0000 014B     		ldr	r3, .L69
 831 0002 1860     		str	r0, [r3]
 832              		.loc 1 742 0
 833 0004 7047     		bx	lr
 834              	.L70:
 835 0006 00BF     		.align	2
 836              	.L69:
 837 0008 B8812542 		.word	1109754296
 838              		.cfi_endproc
 839              	.LFE134:
 840              		.size	SDIO_SendCEATACmd, .-SDIO_SendCEATACmd
 841              		.section	.text.SDIO_DMACmd,"ax",%progbits
 842              		.align	1
 843              		.p2align 4,,15
 844              		.global	SDIO_DMACmd
 845              		.syntax unified
 846              		.thumb
 847              		.thumb_func
 848              		.fpu fpv4-sp-d16
 849              		.type	SDIO_DMACmd, %function
 850              	SDIO_DMACmd:
 851              	.LFB135:
 852              		.loc 1 769 0
 853              		.cfi_startproc
 854              		@ args = 0, pretend = 0, frame = 0
 855              		@ frame_needed = 0, uses_anonymous_args = 0
ARM GAS  /tmp/ccrGbg5F.s 			page 16


 856              		@ link register save eliminated.
 857              	.LVL33:
 858              		.loc 1 773 0
 859 0000 014B     		ldr	r3, .L72
 860 0002 1860     		str	r0, [r3]
 861              		.loc 1 774 0
 862 0004 7047     		bx	lr
 863              	.L73:
 864 0006 00BF     		.align	2
 865              	.L72:
 866 0008 8C852542 		.word	1109755276
 867              		.cfi_endproc
 868              	.LFE135:
 869              		.size	SDIO_DMACmd, .-SDIO_DMACmd
 870              		.section	.text.SDIO_ITConfig,"ax",%progbits
 871              		.align	1
 872              		.p2align 4,,15
 873              		.global	SDIO_ITConfig
 874              		.syntax unified
 875              		.thumb
 876              		.thumb_func
 877              		.fpu fpv4-sp-d16
 878              		.type	SDIO_ITConfig, %function
 879              	SDIO_ITConfig:
 880              	.LFB136:
 881              		.loc 1 827 0
 882              		.cfi_startproc
 883              		@ args = 0, pretend = 0, frame = 0
 884              		@ frame_needed = 0, uses_anonymous_args = 0
 885              		@ link register save eliminated.
 886              	.LVL34:
 887              		.loc 1 835 0
 888 0000 044A     		ldr	r2, .L78
 889 0002 D36B     		ldr	r3, [r2, #60]
 890              		.loc 1 832 0
 891 0004 19B9     		cbnz	r1, .L77
 892              		.loc 1 840 0
 893 0006 23EA0000 		bic	r0, r3, r0
 894              	.LVL35:
 895 000a D063     		str	r0, [r2, #60]
 896              		.loc 1 842 0
 897 000c 7047     		bx	lr
 898              	.LVL36:
 899              	.L77:
 900              		.loc 1 835 0
 901 000e 1843     		orrs	r0, r0, r3
 902              	.LVL37:
 903 0010 D063     		str	r0, [r2, #60]
 904 0012 7047     		bx	lr
 905              	.L79:
 906              		.align	2
 907              	.L78:
 908 0014 002C0140 		.word	1073818624
 909              		.cfi_endproc
 910              	.LFE136:
 911              		.size	SDIO_ITConfig, .-SDIO_ITConfig
 912              		.section	.text.SDIO_GetFlagStatus,"ax",%progbits
ARM GAS  /tmp/ccrGbg5F.s 			page 17


 913              		.align	1
 914              		.p2align 4,,15
 915              		.global	SDIO_GetFlagStatus
 916              		.syntax unified
 917              		.thumb
 918              		.thumb_func
 919              		.fpu fpv4-sp-d16
 920              		.type	SDIO_GetFlagStatus, %function
 921              	SDIO_GetFlagStatus:
 922              	.LFB137:
 923              		.loc 1 875 0
 924              		.cfi_startproc
 925              		@ args = 0, pretend = 0, frame = 0
 926              		@ frame_needed = 0, uses_anonymous_args = 0
 927              		@ link register save eliminated.
 928              	.LVL38:
 929              		.loc 1 881 0
 930 0000 034B     		ldr	r3, .L81
 931 0002 5B6B     		ldr	r3, [r3, #52]
 932              	.LVL39:
 933 0004 0342     		tst	r3, r0
 934              		.loc 1 890 0
 935 0006 14BF     		ite	ne
 936 0008 0120     		movne	r0, #1
 937              	.LVL40:
 938 000a 0020     		moveq	r0, #0
 939 000c 7047     		bx	lr
 940              	.L82:
 941 000e 00BF     		.align	2
 942              	.L81:
 943 0010 002C0140 		.word	1073818624
 944              		.cfi_endproc
 945              	.LFE137:
 946              		.size	SDIO_GetFlagStatus, .-SDIO_GetFlagStatus
 947              		.section	.text.SDIO_ClearFlag,"ax",%progbits
 948              		.align	1
 949              		.p2align 4,,15
 950              		.global	SDIO_ClearFlag
 951              		.syntax unified
 952              		.thumb
 953              		.thumb_func
 954              		.fpu fpv4-sp-d16
 955              		.type	SDIO_ClearFlag, %function
 956              	SDIO_ClearFlag:
 957              	.LFB138:
 958              		.loc 1 912 0
 959              		.cfi_startproc
 960              		@ args = 0, pretend = 0, frame = 0
 961              		@ frame_needed = 0, uses_anonymous_args = 0
 962              		@ link register save eliminated.
 963              	.LVL41:
 964              		.loc 1 916 0
 965 0000 014B     		ldr	r3, .L84
 966 0002 9863     		str	r0, [r3, #56]
 967              		.loc 1 917 0
 968 0004 7047     		bx	lr
 969              	.L85:
ARM GAS  /tmp/ccrGbg5F.s 			page 18


 970 0006 00BF     		.align	2
 971              	.L84:
 972 0008 002C0140 		.word	1073818624
 973              		.cfi_endproc
 974              	.LFE138:
 975              		.size	SDIO_ClearFlag, .-SDIO_ClearFlag
 976              		.section	.text.SDIO_GetITStatus,"ax",%progbits
 977              		.align	1
 978              		.p2align 4,,15
 979              		.global	SDIO_GetITStatus
 980              		.syntax unified
 981              		.thumb
 982              		.thumb_func
 983              		.fpu fpv4-sp-d16
 984              		.type	SDIO_GetITStatus, %function
 985              	SDIO_GetITStatus:
 986              	.LFB144:
 987              		.cfi_startproc
 988              		@ args = 0, pretend = 0, frame = 0
 989              		@ frame_needed = 0, uses_anonymous_args = 0
 990              		@ link register save eliminated.
 991 0000 FFF7FEBF 		b	SDIO_GetFlagStatus
 992              		.cfi_endproc
 993              	.LFE144:
 994              		.size	SDIO_GetITStatus, .-SDIO_GetITStatus
 995              		.section	.text.SDIO_ClearITPendingBit,"ax",%progbits
 996              		.align	1
 997              		.p2align 4,,15
 998              		.global	SDIO_ClearITPendingBit
 999              		.syntax unified
 1000              		.thumb
 1001              		.thumb_func
 1002              		.fpu fpv4-sp-d16
 1003              		.type	SDIO_ClearITPendingBit, %function
 1004              	SDIO_ClearITPendingBit:
 1005              	.LFB142:
 1006              		.cfi_startproc
 1007              		@ args = 0, pretend = 0, frame = 0
 1008              		@ frame_needed = 0, uses_anonymous_args = 0
 1009              		@ link register save eliminated.
 1010 0000 014B     		ldr	r3, .L88
 1011 0002 9863     		str	r0, [r3, #56]
 1012 0004 7047     		bx	lr
 1013              	.L89:
 1014 0006 00BF     		.align	2
 1015              	.L88:
 1016 0008 002C0140 		.word	1073818624
 1017              		.cfi_endproc
 1018              	.LFE142:
 1019              		.size	SDIO_ClearITPendingBit, .-SDIO_ClearITPendingBit
 1020              		.text
 1021              	.Letext0:
 1022              		.file 2 "/usr/arm-none-eabi/include/machine/_default_types.h"
 1023              		.file 3 "/usr/arm-none-eabi/include/sys/_stdint.h"
 1024              		.file 4 "ChibiOS_2.6.6/os/hal/platforms/STM32F4xx/stm32f4xx.h"
 1025              		.file 5 "ChibiOS_2.6.6/ext/stdperiph_stm32f4/inc/stm32f4xx_sdio.h"
 1026              		.file 6 "ChibiOS_2.6.6/os/ports/common/ARMCMx/CMSIS/include/core_cm4.h"
ARM GAS  /tmp/ccrGbg5F.s 			page 19


 1027              		.file 7 "ChibiOS_2.6.6/ext/stdperiph_stm32f4/inc/stm32f4xx_rcc.h"