ARM GAS  /tmp/ccC5AInR.s 			page 1


   1              		.cpu cortex-m4
   2              		.eabi_attribute 27, 1
   3              		.eabi_attribute 28, 1
   4              		.eabi_attribute 20, 1
   5              		.eabi_attribute 21, 1
   6              		.eabi_attribute 23, 3
   7              		.eabi_attribute 24, 1
   8              		.eabi_attribute 25, 1
   9              		.eabi_attribute 26, 1
  10              		.eabi_attribute 30, 2
  11              		.eabi_attribute 34, 1
  12              		.eabi_attribute 18, 4
  13              		.file	"stm32f4xx_iwdg.c"
  14              		.text
  15              	.Ltext0:
  16              		.cfi_sections	.debug_frame
  17              		.section	.text.IWDG_WriteAccessCmd,"ax",%progbits
  18              		.align	1
  19              		.p2align 4,,15
  20              		.global	IWDG_WriteAccessCmd
  21              		.syntax unified
  22              		.thumb
  23              		.thumb_func
  24              		.fpu fpv4-sp-d16
  25              		.type	IWDG_WriteAccessCmd, %function
  26              	IWDG_WriteAccessCmd:
  27              	.LFB111:
  28              		.file 1 "ChibiOS_2.6.6/ext/stdperiph_stm32f4/src/stm32f4xx_iwdg.c"
  29              		.loc 1 136 0
  30              		.cfi_startproc
  31              		@ args = 0, pretend = 0, frame = 0
  32              		@ frame_needed = 0, uses_anonymous_args = 0
  33              		@ link register save eliminated.
  34              	.LVL0:
  35              		.loc 1 139 0
  36 0000 014B     		ldr	r3, .L3
  37 0002 1860     		str	r0, [r3]
  38              		.loc 1 140 0
  39 0004 7047     		bx	lr
  40              	.L4:
  41 0006 00BF     		.align	2
  42              	.L3:
  43 0008 00300040 		.word	1073754112
  44              		.cfi_endproc
  45              	.LFE111:
  46              		.size	IWDG_WriteAccessCmd, .-IWDG_WriteAccessCmd
  47              		.section	.text.IWDG_SetPrescaler,"ax",%progbits
  48              		.align	1
  49              		.p2align 4,,15
  50              		.global	IWDG_SetPrescaler
  51              		.syntax unified
  52              		.thumb
  53              		.thumb_func
  54              		.fpu fpv4-sp-d16
  55              		.type	IWDG_SetPrescaler, %function
  56              	IWDG_SetPrescaler:
  57              	.LFB112:
ARM GAS  /tmp/ccC5AInR.s 			page 2


  58              		.loc 1 156 0
  59              		.cfi_startproc
  60              		@ args = 0, pretend = 0, frame = 0
  61              		@ frame_needed = 0, uses_anonymous_args = 0
  62              		@ link register save eliminated.
  63              	.LVL1:
  64              		.loc 1 159 0
  65 0000 014B     		ldr	r3, .L6
  66 0002 5860     		str	r0, [r3, #4]
  67              		.loc 1 160 0
  68 0004 7047     		bx	lr
  69              	.L7:
  70 0006 00BF     		.align	2
  71              	.L6:
  72 0008 00300040 		.word	1073754112
  73              		.cfi_endproc
  74              	.LFE112:
  75              		.size	IWDG_SetPrescaler, .-IWDG_SetPrescaler
  76              		.section	.text.IWDG_SetReload,"ax",%progbits
  77              		.align	1
  78              		.p2align 4,,15
  79              		.global	IWDG_SetReload
  80              		.syntax unified
  81              		.thumb
  82              		.thumb_func
  83              		.fpu fpv4-sp-d16
  84              		.type	IWDG_SetReload, %function
  85              	IWDG_SetReload:
  86              	.LFB113:
  87              		.loc 1 169 0
  88              		.cfi_startproc
  89              		@ args = 0, pretend = 0, frame = 0
  90              		@ frame_needed = 0, uses_anonymous_args = 0
  91              		@ link register save eliminated.
  92              	.LVL2:
  93              		.loc 1 172 0
  94 0000 014B     		ldr	r3, .L9
  95 0002 9860     		str	r0, [r3, #8]
  96              		.loc 1 173 0
  97 0004 7047     		bx	lr
  98              	.L10:
  99 0006 00BF     		.align	2
 100              	.L9:
 101 0008 00300040 		.word	1073754112
 102              		.cfi_endproc
 103              	.LFE113:
 104              		.size	IWDG_SetReload, .-IWDG_SetReload
 105              		.section	.text.IWDG_ReloadCounter,"ax",%progbits
 106              		.align	1
 107              		.p2align 4,,15
 108              		.global	IWDG_ReloadCounter
 109              		.syntax unified
 110              		.thumb
 111              		.thumb_func
 112              		.fpu fpv4-sp-d16
 113              		.type	IWDG_ReloadCounter, %function
 114              	IWDG_ReloadCounter:
ARM GAS  /tmp/ccC5AInR.s 			page 3


 115              	.LFB114:
 116              		.loc 1 182 0
 117              		.cfi_startproc
 118              		@ args = 0, pretend = 0, frame = 0
 119              		@ frame_needed = 0, uses_anonymous_args = 0
 120              		@ link register save eliminated.
 121              		.loc 1 183 0
 122 0000 024B     		ldr	r3, .L12
 123 0002 4AF6AA22 		movw	r2, #43690
 124 0006 1A60     		str	r2, [r3]
 125              		.loc 1 184 0
 126 0008 7047     		bx	lr
 127              	.L13:
 128 000a 00BF     		.align	2
 129              	.L12:
 130 000c 00300040 		.word	1073754112
 131              		.cfi_endproc
 132              	.LFE114:
 133              		.size	IWDG_ReloadCounter, .-IWDG_ReloadCounter
 134              		.section	.text.IWDG_Enable,"ax",%progbits
 135              		.align	1
 136              		.p2align 4,,15
 137              		.global	IWDG_Enable
 138              		.syntax unified
 139              		.thumb
 140              		.thumb_func
 141              		.fpu fpv4-sp-d16
 142              		.type	IWDG_Enable, %function
 143              	IWDG_Enable:
 144              	.LFB115:
 145              		.loc 1 208 0
 146              		.cfi_startproc
 147              		@ args = 0, pretend = 0, frame = 0
 148              		@ frame_needed = 0, uses_anonymous_args = 0
 149              		@ link register save eliminated.
 150              		.loc 1 209 0
 151 0000 024B     		ldr	r3, .L15
 152 0002 4CF6CC42 		movw	r2, #52428
 153 0006 1A60     		str	r2, [r3]
 154              		.loc 1 210 0
 155 0008 7047     		bx	lr
 156              	.L16:
 157 000a 00BF     		.align	2
 158              	.L15:
 159 000c 00300040 		.word	1073754112
 160              		.cfi_endproc
 161              	.LFE115:
 162              		.size	IWDG_Enable, .-IWDG_Enable
 163              		.section	.text.IWDG_GetFlagStatus,"ax",%progbits
 164              		.align	1
 165              		.p2align 4,,15
 166              		.global	IWDG_GetFlagStatus
 167              		.syntax unified
 168              		.thumb
 169              		.thumb_func
 170              		.fpu fpv4-sp-d16
 171              		.type	IWDG_GetFlagStatus, %function
ARM GAS  /tmp/ccC5AInR.s 			page 4


 172              	IWDG_GetFlagStatus:
 173              	.LFB116:
 174              		.loc 1 237 0
 175              		.cfi_startproc
 176              		@ args = 0, pretend = 0, frame = 0
 177              		@ frame_needed = 0, uses_anonymous_args = 0
 178              		@ link register save eliminated.
 179              	.LVL3:
 180              		.loc 1 241 0
 181 0000 034B     		ldr	r3, .L18
 182 0002 DB68     		ldr	r3, [r3, #12]
 183              	.LVL4:
 184 0004 1842     		tst	r0, r3
 185              		.loc 1 251 0
 186 0006 14BF     		ite	ne
 187 0008 0120     		movne	r0, #1
 188              	.LVL5:
 189 000a 0020     		moveq	r0, #0
 190 000c 7047     		bx	lr
 191              	.L19:
 192 000e 00BF     		.align	2
 193              	.L18:
 194 0010 00300040 		.word	1073754112
 195              		.cfi_endproc
 196              	.LFE116:
 197              		.size	IWDG_GetFlagStatus, .-IWDG_GetFlagStatus
 198              		.text
 199              	.Letext0:
 200              		.file 2 "/usr/arm-none-eabi/include/machine/_default_types.h"
 201              		.file 3 "/usr/arm-none-eabi/include/sys/_stdint.h"
 202              		.file 4 "ChibiOS_2.6.6/os/hal/platforms/STM32F4xx/stm32f4xx.h"
 203              		.file 5 "ChibiOS_2.6.6/os/ports/common/ARMCMx/CMSIS/include/core_cm4.h"