ARM GAS  /tmp/ccnwjK7J.s 			page 1


   1              		.cpu cortex-m4
   2              		.eabi_attribute 27, 1
   3              		.eabi_attribute 28, 1
   4              		.eabi_attribute 20, 1
   5              		.eabi_attribute 21, 1
   6              		.eabi_attribute 23, 3
   7              		.eabi_attribute 24, 1
   8              		.eabi_attribute 25, 1
   9              		.eabi_attribute 26, 1
  10              		.eabi_attribute 30, 2
  11              		.eabi_attribute 34, 1
  12              		.eabi_attribute 18, 4
  13              		.file	"stm32f4xx_wwdg.c"
  14              		.text
  15              	.Ltext0:
  16              		.cfi_sections	.debug_frame
  17              		.section	.text.WWDG_DeInit,"ax",%progbits
  18              		.align	1
  19              		.p2align 4,,15
  20              		.global	WWDG_DeInit
  21              		.syntax unified
  22              		.thumb
  23              		.thumb_func
  24              		.fpu fpv4-sp-d16
  25              		.type	WWDG_DeInit, %function
  26              	WWDG_DeInit:
  27              	.LFB111:
  28              		.file 1 "ChibiOS_2.6.6/ext/stdperiph_stm32f4/src/stm32f4xx_wwdg.c"
  29              		.loc 1 141 0
  30              		.cfi_startproc
  31              		@ args = 0, pretend = 0, frame = 0
  32              		@ frame_needed = 0, uses_anonymous_args = 0
  33 0000 08B5     		push	{r3, lr}
  34              		.cfi_def_cfa_offset 8
  35              		.cfi_offset 3, -8
  36              		.cfi_offset 14, -4
  37              		.loc 1 142 0
  38 0002 0121     		movs	r1, #1
  39 0004 4FF40060 		mov	r0, #2048
  40 0008 FFF7FEFF 		bl	RCC_APB1PeriphResetCmd
  41              	.LVL0:
  42              		.loc 1 143 0
  43 000c 0021     		movs	r1, #0
  44 000e 4FF40060 		mov	r0, #2048
  45              		.loc 1 144 0
  46 0012 BDE80840 		pop	{r3, lr}
  47              		.cfi_restore 14
  48              		.cfi_restore 3
  49              		.cfi_def_cfa_offset 0
  50              		.loc 1 143 0
  51 0016 FFF7FEBF 		b	RCC_APB1PeriphResetCmd
  52              	.LVL1:
  53              		.cfi_endproc
  54              	.LFE111:
  55              		.size	WWDG_DeInit, .-WWDG_DeInit
  56 001a 00BF     		.section	.text.WWDG_SetPrescaler,"ax",%progbits
  57              		.align	1
ARM GAS  /tmp/ccnwjK7J.s 			page 2


  58              		.p2align 4,,15
  59              		.global	WWDG_SetPrescaler
  60              		.syntax unified
  61              		.thumb
  62              		.thumb_func
  63              		.fpu fpv4-sp-d16
  64              		.type	WWDG_SetPrescaler, %function
  65              	WWDG_SetPrescaler:
  66              	.LFB112:
  67              		.loc 1 157 0
  68              		.cfi_startproc
  69              		@ args = 0, pretend = 0, frame = 0
  70              		@ frame_needed = 0, uses_anonymous_args = 0
  71              		@ link register save eliminated.
  72              	.LVL2:
  73              		.loc 1 162 0
  74 0000 034A     		ldr	r2, .L5
  75 0002 5368     		ldr	r3, [r2, #4]
  76 0004 23F4C073 		bic	r3, r3, #384
  77              	.LVL3:
  78              		.loc 1 164 0
  79 0008 1843     		orrs	r0, r0, r3
  80              	.LVL4:
  81              		.loc 1 166 0
  82 000a 5060     		str	r0, [r2, #4]
  83              		.loc 1 167 0
  84 000c 7047     		bx	lr
  85              	.L6:
  86 000e 00BF     		.align	2
  87              	.L5:
  88 0010 002C0040 		.word	1073753088
  89              		.cfi_endproc
  90              	.LFE112:
  91              		.size	WWDG_SetPrescaler, .-WWDG_SetPrescaler
  92              		.section	.text.WWDG_SetWindowValue,"ax",%progbits
  93              		.align	1
  94              		.p2align 4,,15
  95              		.global	WWDG_SetWindowValue
  96              		.syntax unified
  97              		.thumb
  98              		.thumb_func
  99              		.fpu fpv4-sp-d16
 100              		.type	WWDG_SetWindowValue, %function
 101              	WWDG_SetWindowValue:
 102              	.LFB113:
 103              		.loc 1 176 0
 104              		.cfi_startproc
 105              		@ args = 0, pretend = 0, frame = 8
 106              		@ frame_needed = 0, uses_anonymous_args = 0
 107              		@ link register save eliminated.
 108              	.LVL5:
 109 0000 82B0     		sub	sp, sp, #8
 110              		.cfi_def_cfa_offset 8
 111              		.loc 1 183 0
 112 0002 084A     		ldr	r2, .L9
 113              		.loc 1 177 0
 114 0004 0023     		movs	r3, #0
ARM GAS  /tmp/ccnwjK7J.s 			page 3


 115 0006 0193     		str	r3, [sp, #4]
 116              		.loc 1 183 0
 117 0008 5368     		ldr	r3, [r2, #4]
 118 000a 23F07F03 		bic	r3, r3, #127
 119 000e 0193     		str	r3, [sp, #4]
 120              		.loc 1 186 0
 121 0010 019B     		ldr	r3, [sp, #4]
 122 0012 00F07F00 		and	r0, r0, #127
 123              	.LVL6:
 124 0016 1843     		orrs	r0, r0, r3
 125 0018 0190     		str	r0, [sp, #4]
 126              		.loc 1 189 0
 127 001a 019B     		ldr	r3, [sp, #4]
 128 001c 5360     		str	r3, [r2, #4]
 129              		.loc 1 190 0
 130 001e 02B0     		add	sp, sp, #8
 131              		.cfi_def_cfa_offset 0
 132              		@ sp needed
 133 0020 7047     		bx	lr
 134              	.L10:
 135 0022 00BF     		.align	2
 136              	.L9:
 137 0024 002C0040 		.word	1073753088
 138              		.cfi_endproc
 139              	.LFE113:
 140              		.size	WWDG_SetWindowValue, .-WWDG_SetWindowValue
 141              		.section	.text.WWDG_EnableIT,"ax",%progbits
 142              		.align	1
 143              		.p2align 4,,15
 144              		.global	WWDG_EnableIT
 145              		.syntax unified
 146              		.thumb
 147              		.thumb_func
 148              		.fpu fpv4-sp-d16
 149              		.type	WWDG_EnableIT, %function
 150              	WWDG_EnableIT:
 151              	.LFB114:
 152              		.loc 1 199 0
 153              		.cfi_startproc
 154              		@ args = 0, pretend = 0, frame = 0
 155              		@ frame_needed = 0, uses_anonymous_args = 0
 156              		@ link register save eliminated.
 157              		.loc 1 200 0
 158 0000 014B     		ldr	r3, .L12
 159 0002 0122     		movs	r2, #1
 160 0004 1A60     		str	r2, [r3]
 161              		.loc 1 201 0
 162 0006 7047     		bx	lr
 163              	.L13:
 164              		.align	2
 165              	.L12:
 166 0008 A4800542 		.word	1107656868
 167              		.cfi_endproc
 168              	.LFE114:
 169              		.size	WWDG_EnableIT, .-WWDG_EnableIT
 170              		.section	.text.WWDG_SetCounter,"ax",%progbits
 171              		.align	1
ARM GAS  /tmp/ccnwjK7J.s 			page 4


 172              		.p2align 4,,15
 173              		.global	WWDG_SetCounter
 174              		.syntax unified
 175              		.thumb
 176              		.thumb_func
 177              		.fpu fpv4-sp-d16
 178              		.type	WWDG_SetCounter, %function
 179              	WWDG_SetCounter:
 180              	.LFB115:
 181              		.loc 1 211 0
 182              		.cfi_startproc
 183              		@ args = 0, pretend = 0, frame = 0
 184              		@ frame_needed = 0, uses_anonymous_args = 0
 185              		@ link register save eliminated.
 186              	.LVL7:
 187              		.loc 1 216 0
 188 0000 024B     		ldr	r3, .L15
 189 0002 00F07F00 		and	r0, r0, #127
 190              	.LVL8:
 191 0006 1860     		str	r0, [r3]
 192              		.loc 1 217 0
 193 0008 7047     		bx	lr
 194              	.L16:
 195 000a 00BF     		.align	2
 196              	.L15:
 197 000c 002C0040 		.word	1073753088
 198              		.cfi_endproc
 199              	.LFE115:
 200              		.size	WWDG_SetCounter, .-WWDG_SetCounter
 201              		.section	.text.WWDG_Enable,"ax",%progbits
 202              		.align	1
 203              		.p2align 4,,15
 204              		.global	WWDG_Enable
 205              		.syntax unified
 206              		.thumb
 207              		.thumb_func
 208              		.fpu fpv4-sp-d16
 209              		.type	WWDG_Enable, %function
 210              	WWDG_Enable:
 211              	.LFB116:
 212              		.loc 1 242 0
 213              		.cfi_startproc
 214              		@ args = 0, pretend = 0, frame = 0
 215              		@ frame_needed = 0, uses_anonymous_args = 0
 216              		@ link register save eliminated.
 217              	.LVL9:
 218              		.loc 1 245 0
 219 0000 024B     		ldr	r3, .L18
 220 0002 40F08000 		orr	r0, r0, #128
 221              	.LVL10:
 222 0006 1860     		str	r0, [r3]
 223              		.loc 1 246 0
 224 0008 7047     		bx	lr
 225              	.L19:
 226 000a 00BF     		.align	2
 227              	.L18:
 228 000c 002C0040 		.word	1073753088
ARM GAS  /tmp/ccnwjK7J.s 			page 5


 229              		.cfi_endproc
 230              	.LFE116:
 231              		.size	WWDG_Enable, .-WWDG_Enable
 232              		.section	.text.WWDG_GetFlagStatus,"ax",%progbits
 233              		.align	1
 234              		.p2align 4,,15
 235              		.global	WWDG_GetFlagStatus
 236              		.syntax unified
 237              		.thumb
 238              		.thumb_func
 239              		.fpu fpv4-sp-d16
 240              		.type	WWDG_GetFlagStatus, %function
 241              	WWDG_GetFlagStatus:
 242              	.LFB117:
 243              		.loc 1 269 0
 244              		.cfi_startproc
 245              		@ args = 0, pretend = 0, frame = 0
 246              		@ frame_needed = 0, uses_anonymous_args = 0
 247              		@ link register save eliminated.
 248              	.LVL11:
 249              		.loc 1 272 0
 250 0000 024B     		ldr	r3, .L21
 251 0002 9868     		ldr	r0, [r3, #8]
 252              	.LVL12:
 253              		.loc 1 281 0
 254 0004 0030     		adds	r0, r0, #0
 255 0006 18BF     		it	ne
 256 0008 0120     		movne	r0, #1
 257              	.LVL13:
 258 000a 7047     		bx	lr
 259              	.L22:
 260              		.align	2
 261              	.L21:
 262 000c 002C0040 		.word	1073753088
 263              		.cfi_endproc
 264              	.LFE117:
 265              		.size	WWDG_GetFlagStatus, .-WWDG_GetFlagStatus
 266              		.section	.text.WWDG_ClearFlag,"ax",%progbits
 267              		.align	1
 268              		.p2align 4,,15
 269              		.global	WWDG_ClearFlag
 270              		.syntax unified
 271              		.thumb
 272              		.thumb_func
 273              		.fpu fpv4-sp-d16
 274              		.type	WWDG_ClearFlag, %function
 275              	WWDG_ClearFlag:
 276              	.LFB118:
 277              		.loc 1 289 0
 278              		.cfi_startproc
 279              		@ args = 0, pretend = 0, frame = 0
 280              		@ frame_needed = 0, uses_anonymous_args = 0
 281              		@ link register save eliminated.
 282              		.loc 1 290 0
 283 0000 014B     		ldr	r3, .L24
 284 0002 0022     		movs	r2, #0
 285 0004 9A60     		str	r2, [r3, #8]
ARM GAS  /tmp/ccnwjK7J.s 			page 6


 286              		.loc 1 291 0
 287 0006 7047     		bx	lr
 288              	.L25:
 289              		.align	2
 290              	.L24:
 291 0008 002C0040 		.word	1073753088
 292              		.cfi_endproc
 293              	.LFE118:
 294              		.size	WWDG_ClearFlag, .-WWDG_ClearFlag
 295              		.text
 296              	.Letext0:
 297              		.file 2 "/usr/arm-none-eabi/include/machine/_default_types.h"
 298              		.file 3 "/usr/arm-none-eabi/include/sys/_stdint.h"
 299              		.file 4 "ChibiOS_2.6.6/os/hal/platforms/STM32F4xx/stm32f4xx.h"
 300              		.file 5 "ChibiOS_2.6.6/os/ports/common/ARMCMx/CMSIS/include/core_cm4.h"
 301              		.file 6 "ChibiOS_2.6.6/ext/stdperiph_stm32f4/inc/stm32f4xx_rcc.h"
 302              		.section	.debug_info,"",%progbits
 303              	.Ldebug_info0:
 304 0000 8E020000 		.4byte	0x28e
 305 0004 0400     		.2byte	0x4
 306 0006 00000000 		.4byte	.Ldebug_abbrev0
 307 000a 04       		.byte	0x4
 308 000b 01       		.uleb128 0x1
 309 000c 2A010000 		.4byte	.LASF32
 310 0010 0C       		.byte	0xc
 311 0011 0E000000 		.4byte	.LASF33
 312 0015 FE020000 		.4byte	.LASF34
 313 0019 00000000 		.4byte	.Ldebug_ranges0+0
 314 001d 00000000 		.4byte	0
 315 0021 00000000 		.4byte	.Ldebug_line0
 316 0025 02       		.uleb128 0x2
 317 0026 01       		.byte	0x1
 318 0027 06       		.byte	0x6
 319 0028 31030000 		.4byte	.LASF0
 320 002c 03       		.uleb128 0x3
 321 002d 47000000 		.4byte	.LASF4
 322 0031 02       		.byte	0x2
 323 0032 2B       		.byte	0x2b
 324 0033 37000000 		.4byte	0x37
 325 0037 02       		.uleb128 0x2
 326 0038 01       		.byte	0x1
 327 0039 08       		.byte	0x8
 328 003a B9000000 		.4byte	.LASF1
 329 003e 02       		.uleb128 0x2
 330 003f 02       		.byte	0x2
 331 0040 05       		.byte	0x5
 332 0041 BE020000 		.4byte	.LASF2
 333 0045 02       		.uleb128 0x2
 334 0046 02       		.byte	0x2
 335 0047 07       		.byte	0x7
 336 0048 69000000 		.4byte	.LASF3
 337 004c 03       		.uleb128 0x3
 338 004d 5F000000 		.4byte	.LASF5
 339 0051 02       		.byte	0x2
 340 0052 4D       		.byte	0x4d
 341 0053 57000000 		.4byte	0x57
 342 0057 02       		.uleb128 0x2
ARM GAS  /tmp/ccnwjK7J.s 			page 7


 343 0058 04       		.byte	0x4
 344 0059 05       		.byte	0x5
 345 005a 28030000 		.4byte	.LASF6
 346 005e 03       		.uleb128 0x3
 347 005f FE000000 		.4byte	.LASF7
 348 0063 02       		.byte	0x2
 349 0064 4F       		.byte	0x4f
 350 0065 69000000 		.4byte	0x69
 351 0069 02       		.uleb128 0x2
 352 006a 04       		.byte	0x4
 353 006b 07       		.byte	0x7
 354 006c DE000000 		.4byte	.LASF8
 355 0070 02       		.uleb128 0x2
 356 0071 08       		.byte	0x8
 357 0072 05       		.byte	0x5
 358 0073 00000000 		.4byte	.LASF9
 359 0077 02       		.uleb128 0x2
 360 0078 08       		.byte	0x8
 361 0079 07       		.byte	0x7
 362 007a 5B020000 		.4byte	.LASF10
 363 007e 04       		.uleb128 0x4
 364 007f 04       		.byte	0x4
 365 0080 05       		.byte	0x5
 366 0081 696E7400 		.ascii	"int\000"
 367 0085 02       		.uleb128 0x2
 368 0086 04       		.byte	0x4
 369 0087 07       		.byte	0x7
 370 0088 4E020000 		.4byte	.LASF11
 371 008c 03       		.uleb128 0x3
 372 008d 7C000000 		.4byte	.LASF12
 373 0091 03       		.byte	0x3
 374 0092 18       		.byte	0x18
 375 0093 2C000000 		.4byte	0x2c
 376 0097 03       		.uleb128 0x3
 377 0098 97020000 		.4byte	.LASF13
 378 009c 03       		.byte	0x3
 379 009d 2C       		.byte	0x2c
 380 009e 4C000000 		.4byte	0x4c
 381 00a2 05       		.uleb128 0x5
 382 00a3 97000000 		.4byte	0x97
 383 00a7 03       		.uleb128 0x3
 384 00a8 1F030000 		.4byte	.LASF14
 385 00ac 03       		.byte	0x3
 386 00ad 30       		.byte	0x30
 387 00ae 5E000000 		.4byte	0x5e
 388 00b2 05       		.uleb128 0x5
 389 00b3 A7000000 		.4byte	0xa7
 390 00b7 06       		.uleb128 0x6
 391 00b8 1D010000 		.4byte	.LASF35
 392 00bc 05       		.byte	0x5
 393 00bd 9806     		.2byte	0x698
 394 00bf A2000000 		.4byte	0xa2
 395 00c3 07       		.uleb128 0x7
 396 00c4 07       		.byte	0x7
 397 00c5 01       		.byte	0x1
 398 00c6 37000000 		.4byte	0x37
 399 00ca 04       		.byte	0x4
ARM GAS  /tmp/ccnwjK7J.s 			page 8


 400 00cb F701     		.2byte	0x1f7
 401 00cd DE000000 		.4byte	0xde
 402 00d1 08       		.uleb128 0x8
 403 00d2 F0000000 		.4byte	.LASF15
 404 00d6 00       		.byte	0
 405 00d7 09       		.uleb128 0x9
 406 00d8 53455400 		.ascii	"SET\000"
 407 00dc 01       		.byte	0x1
 408 00dd 00       		.byte	0
 409 00de 0A       		.uleb128 0xa
 410 00df 9B000000 		.4byte	.LASF16
 411 00e3 04       		.byte	0x4
 412 00e4 F701     		.2byte	0x1f7
 413 00e6 C3000000 		.4byte	0xc3
 414 00ea 07       		.uleb128 0x7
 415 00eb 07       		.byte	0x7
 416 00ec 01       		.byte	0x1
 417 00ed 37000000 		.4byte	0x37
 418 00f1 04       		.byte	0x4
 419 00f2 F901     		.2byte	0x1f9
 420 00f4 05010000 		.4byte	0x105
 421 00f8 08       		.uleb128 0x8
 422 00f9 F6000000 		.4byte	.LASF17
 423 00fd 00       		.byte	0
 424 00fe 08       		.uleb128 0x8
 425 00ff B2000000 		.4byte	.LASF18
 426 0103 01       		.byte	0x1
 427 0104 00       		.byte	0
 428 0105 0B       		.uleb128 0xb
 429 0106 0C       		.byte	0xc
 430 0107 04       		.byte	0x4
 431 0108 3F05     		.2byte	0x53f
 432 010a 34010000 		.4byte	0x134
 433 010e 0C       		.uleb128 0xc
 434 010f 435200   		.ascii	"CR\000"
 435 0112 04       		.byte	0x4
 436 0113 4105     		.2byte	0x541
 437 0115 B2000000 		.4byte	0xb2
 438 0119 00       		.byte	0
 439 011a 0C       		.uleb128 0xc
 440 011b 43465200 		.ascii	"CFR\000"
 441 011f 04       		.byte	0x4
 442 0120 4205     		.2byte	0x542
 443 0122 B2000000 		.4byte	0xb2
 444 0126 04       		.byte	0x4
 445 0127 0C       		.uleb128 0xc
 446 0128 535200   		.ascii	"SR\000"
 447 012b 04       		.byte	0x4
 448 012c 4305     		.2byte	0x543
 449 012e B2000000 		.4byte	0xb2
 450 0132 08       		.byte	0x8
 451 0133 00       		.byte	0
 452 0134 0A       		.uleb128 0xa
 453 0135 84000000 		.4byte	.LASF19
 454 0139 04       		.byte	0x4
 455 013a 4405     		.2byte	0x544
 456 013c 05010000 		.4byte	0x105
ARM GAS  /tmp/ccnwjK7J.s 			page 9


 457 0140 0D       		.uleb128 0xd
 458 0141 CF020000 		.4byte	.LASF23
 459 0145 01       		.byte	0x1
 460 0146 2001     		.2byte	0x120
 461 0148 00000000 		.4byte	.LFB118
 462 014c 0C000000 		.4byte	.LFE118-.LFB118
 463 0150 01       		.uleb128 0x1
 464 0151 9C       		.byte	0x9c
 465 0152 0E       		.uleb128 0xe
 466 0153 72020000 		.4byte	.LASF36
 467 0157 01       		.byte	0x1
 468 0158 0C01     		.2byte	0x10c
 469 015a DE000000 		.4byte	0xde
 470 015e 00000000 		.4byte	.LFB117
 471 0162 10000000 		.4byte	.LFE117-.LFB117
 472 0166 01       		.uleb128 0x1
 473 0167 9C       		.byte	0x9c
 474 0168 7D010000 		.4byte	0x17d
 475 016c 0F       		.uleb128 0xf
 476 016d 91000000 		.4byte	.LASF27
 477 0171 01       		.byte	0x1
 478 0172 0E01     		.2byte	0x10e
 479 0174 DE000000 		.4byte	0xde
 480 0178 00000000 		.4byte	.LLST5
 481 017c 00       		.byte	0
 482 017d 10       		.uleb128 0x10
 483 017e A6000000 		.4byte	.LASF20
 484 0182 01       		.byte	0x1
 485 0183 F1       		.byte	0xf1
 486 0184 00000000 		.4byte	.LFB116
 487 0188 10000000 		.4byte	.LFE116-.LFB116
 488 018c 01       		.uleb128 0x1
 489 018d 9C       		.byte	0x9c
 490 018e A2010000 		.4byte	0x1a2
 491 0192 11       		.uleb128 0x11
 492 0193 15010000 		.4byte	.LASF22
 493 0197 01       		.byte	0x1
 494 0198 F1       		.byte	0xf1
 495 0199 8C000000 		.4byte	0x8c
 496 019d 23000000 		.4byte	.LLST4
 497 01a1 00       		.byte	0
 498 01a2 10       		.uleb128 0x10
 499 01a3 AE020000 		.4byte	.LASF21
 500 01a7 01       		.byte	0x1
 501 01a8 D2       		.byte	0xd2
 502 01a9 00000000 		.4byte	.LFB115
 503 01ad 10000000 		.4byte	.LFE115-.LFB115
 504 01b1 01       		.uleb128 0x1
 505 01b2 9C       		.byte	0x9c
 506 01b3 C7010000 		.4byte	0x1c7
 507 01b7 11       		.uleb128 0x11
 508 01b8 15010000 		.4byte	.LASF22
 509 01bc 01       		.byte	0x1
 510 01bd D2       		.byte	0xd2
 511 01be 8C000000 		.4byte	0x8c
 512 01c2 44000000 		.4byte	.LLST3
 513 01c6 00       		.byte	0
ARM GAS  /tmp/ccnwjK7J.s 			page 10


 514 01c7 12       		.uleb128 0x12
 515 01c8 51000000 		.4byte	.LASF24
 516 01cc 01       		.byte	0x1
 517 01cd C6       		.byte	0xc6
 518 01ce 00000000 		.4byte	.LFB114
 519 01d2 0C000000 		.4byte	.LFE114-.LFB114
 520 01d6 01       		.uleb128 0x1
 521 01d7 9C       		.byte	0x9c
 522 01d8 10       		.uleb128 0x10
 523 01d9 DE020000 		.4byte	.LASF25
 524 01dd 01       		.byte	0x1
 525 01de AF       		.byte	0xaf
 526 01df 00000000 		.4byte	.LFB113
 527 01e3 28000000 		.4byte	.LFE113-.LFB113
 528 01e7 01       		.uleb128 0x1
 529 01e8 9C       		.byte	0x9c
 530 01e9 0B020000 		.4byte	0x20b
 531 01ed 11       		.uleb128 0x11
 532 01ee 09010000 		.4byte	.LASF26
 533 01f2 01       		.byte	0x1
 534 01f3 AF       		.byte	0xaf
 535 01f4 8C000000 		.4byte	0x8c
 536 01f8 65000000 		.4byte	.LLST2
 537 01fc 13       		.uleb128 0x13
 538 01fd C8020000 		.4byte	.LASF28
 539 0201 01       		.byte	0x1
 540 0202 B1       		.byte	0xb1
 541 0203 B2000000 		.4byte	0xb2
 542 0207 02       		.uleb128 0x2
 543 0208 91       		.byte	0x91
 544 0209 7C       		.sleb128 -4
 545 020a 00       		.byte	0
 546 020b 10       		.uleb128 0x10
 547 020c 85020000 		.4byte	.LASF29
 548 0210 01       		.byte	0x1
 549 0211 9C       		.byte	0x9c
 550 0212 00000000 		.4byte	.LFB112
 551 0216 14000000 		.4byte	.LFE112-.LFB112
 552 021a 01       		.uleb128 0x1
 553 021b 9C       		.byte	0x9c
 554 021c 3F020000 		.4byte	0x23f
 555 0220 11       		.uleb128 0x11
 556 0221 9F020000 		.4byte	.LASF30
 557 0225 01       		.byte	0x1
 558 0226 9C       		.byte	0x9c
 559 0227 A7000000 		.4byte	0xa7
 560 022b 86000000 		.4byte	.LLST0
 561 022f 14       		.uleb128 0x14
 562 0230 C8020000 		.4byte	.LASF28
 563 0234 01       		.byte	0x1
 564 0235 9E       		.byte	0x9e
 565 0236 A7000000 		.4byte	0xa7
 566 023a A7000000 		.4byte	.LLST1
 567 023e 00       		.byte	0
 568 023f 10       		.uleb128 0x10
 569 0240 F2020000 		.4byte	.LASF31
 570 0244 01       		.byte	0x1
ARM GAS  /tmp/ccnwjK7J.s 			page 11


 571 0245 8C       		.byte	0x8c
 572 0246 00000000 		.4byte	.LFB111
 573 024a 1A000000 		.4byte	.LFE111-.LFB111
 574 024e 01       		.uleb128 0x1
 575 024f 9C       		.byte	0x9c
 576 0250 85020000 		.4byte	0x285
 577 0254 15       		.uleb128 0x15
 578 0255 0C000000 		.4byte	.LVL0
 579 0259 85020000 		.4byte	0x285
 580 025d 6E020000 		.4byte	0x26e
 581 0261 16       		.uleb128 0x16
 582 0262 01       		.uleb128 0x1
 583 0263 50       		.byte	0x50
 584 0264 03       		.uleb128 0x3
 585 0265 0A       		.byte	0xa
 586 0266 0008     		.2byte	0x800
 587 0268 16       		.uleb128 0x16
 588 0269 01       		.uleb128 0x1
 589 026a 51       		.byte	0x51
 590 026b 01       		.uleb128 0x1
 591 026c 31       		.byte	0x31
 592 026d 00       		.byte	0
 593 026e 17       		.uleb128 0x17
 594 026f 1A000000 		.4byte	.LVL1
 595 0273 85020000 		.4byte	0x285
 596 0277 16       		.uleb128 0x16
 597 0278 01       		.uleb128 0x1
 598 0279 50       		.byte	0x50
 599 027a 03       		.uleb128 0x3
 600 027b 0A       		.byte	0xa
 601 027c 0008     		.2byte	0x800
 602 027e 16       		.uleb128 0x16
 603 027f 01       		.uleb128 0x1
 604 0280 51       		.byte	0x51
 605 0281 01       		.uleb128 0x1
 606 0282 30       		.byte	0x30
 607 0283 00       		.byte	0
 608 0284 00       		.byte	0
 609 0285 18       		.uleb128 0x18
 610 0286 C7000000 		.4byte	.LASF37
 611 028a C7000000 		.4byte	.LASF37
 612 028e 06       		.byte	0x6
 613 028f E601     		.2byte	0x1e6
 614 0291 00       		.byte	0
 615              		.section	.debug_abbrev,"",%progbits
 616              	.Ldebug_abbrev0:
 617 0000 01       		.uleb128 0x1
 618 0001 11       		.uleb128 0x11
 619 0002 01       		.byte	0x1
 620 0003 25       		.uleb128 0x25
 621 0004 0E       		.uleb128 0xe
 622 0005 13       		.uleb128 0x13
 623 0006 0B       		.uleb128 0xb
 624 0007 03       		.uleb128 0x3
 625 0008 0E       		.uleb128 0xe
 626 0009 1B       		.uleb128 0x1b
 627 000a 0E       		.uleb128 0xe
ARM GAS  /tmp/ccnwjK7J.s 			page 12


 628 000b 55       		.uleb128 0x55
 629 000c 17       		.uleb128 0x17
 630 000d 11       		.uleb128 0x11
 631 000e 01       		.uleb128 0x1
 632 000f 10       		.uleb128 0x10
 633 0010 17       		.uleb128 0x17
 634 0011 00       		.byte	0
 635 0012 00       		.byte	0
 636 0013 02       		.uleb128 0x2
 637 0014 24       		.uleb128 0x24
 638 0015 00       		.byte	0
 639 0016 0B       		.uleb128 0xb
 640 0017 0B       		.uleb128 0xb
 641 0018 3E       		.uleb128 0x3e
 642 0019 0B       		.uleb128 0xb
 643 001a 03       		.uleb128 0x3
 644 001b 0E       		.uleb128 0xe
 645 001c 00       		.byte	0
 646 001d 00       		.byte	0
 647 001e 03       		.uleb128 0x3
 648 001f 16       		.uleb128 0x16
 649 0020 00       		.byte	0
 650 0021 03       		.uleb128 0x3
 651 0022 0E       		.uleb128 0xe
 652 0023 3A       		.uleb128 0x3a
 653 0024 0B       		.uleb128 0xb
 654 0025 3B       		.uleb128 0x3b
 655 0026 0B       		.uleb128 0xb
 656 0027 49       		.uleb128 0x49
 657 0028 13       		.uleb128 0x13
 658 0029 00       		.byte	0
 659 002a 00       		.byte	0
 660 002b 04       		.uleb128 0x4
 661 002c 24       		.uleb128 0x24
 662 002d 00       		.byte	0
 663 002e 0B       		.uleb128 0xb
 664 002f 0B       		.uleb128 0xb
 665 0030 3E       		.uleb128 0x3e
 666 0031 0B       		.uleb128 0xb
 667 0032 03       		.uleb128 0x3
 668 0033 08       		.uleb128 0x8
 669 0034 00       		.byte	0
 670 0035 00       		.byte	0
 671 0036 05       		.uleb128 0x5
 672 0037 35       		.uleb128 0x35
 673 0038 00       		.byte	0
 674 0039 49       		.uleb128 0x49
 675 003a 13       		.uleb128 0x13
 676 003b 00       		.byte	0
 677 003c 00       		.byte	0
 678 003d 06       		.uleb128 0x6
 679 003e 34       		.uleb128 0x34
 680 003f 00       		.byte	0
 681 0040 03       		.uleb128 0x3
 682 0041 0E       		.uleb128 0xe
 683 0042 3A       		.uleb128 0x3a
 684 0043 0B       		.uleb128 0xb
ARM GAS  /tmp/ccnwjK7J.s 			page 13


 685 0044 3B       		.uleb128 0x3b
 686 0045 05       		.uleb128 0x5
 687 0046 49       		.uleb128 0x49
 688 0047 13       		.uleb128 0x13
 689 0048 3F       		.uleb128 0x3f
 690 0049 19       		.uleb128 0x19
 691 004a 3C       		.uleb128 0x3c
 692 004b 19       		.uleb128 0x19
 693 004c 00       		.byte	0
 694 004d 00       		.byte	0
 695 004e 07       		.uleb128 0x7
 696 004f 04       		.uleb128 0x4
 697 0050 01       		.byte	0x1
 698 0051 3E       		.uleb128 0x3e
 699 0052 0B       		.uleb128 0xb
 700 0053 0B       		.uleb128 0xb
 701 0054 0B       		.uleb128 0xb
 702 0055 49       		.uleb128 0x49
 703 0056 13       		.uleb128 0x13
 704 0057 3A       		.uleb128 0x3a
 705 0058 0B       		.uleb128 0xb
 706 0059 3B       		.uleb128 0x3b
 707 005a 05       		.uleb128 0x5
 708 005b 01       		.uleb128 0x1
 709 005c 13       		.uleb128 0x13
 710 005d 00       		.byte	0
 711 005e 00       		.byte	0
 712 005f 08       		.uleb128 0x8
 713 0060 28       		.uleb128 0x28
 714 0061 00       		.byte	0
 715 0062 03       		.uleb128 0x3
 716 0063 0E       		.uleb128 0xe
 717 0064 1C       		.uleb128 0x1c
 718 0065 0B       		.uleb128 0xb
 719 0066 00       		.byte	0
 720 0067 00       		.byte	0
 721 0068 09       		.uleb128 0x9
 722 0069 28       		.uleb128 0x28
 723 006a 00       		.byte	0
 724 006b 03       		.uleb128 0x3
 725 006c 08       		.uleb128 0x8
 726 006d 1C       		.uleb128 0x1c
 727 006e 0B       		.uleb128 0xb
 728 006f 00       		.byte	0
 729 0070 00       		.byte	0
 730 0071 0A       		.uleb128 0xa
 731 0072 16       		.uleb128 0x16
 732 0073 00       		.byte	0
 733 0074 03       		.uleb128 0x3
 734 0075 0E       		.uleb128 0xe
 735 0076 3A       		.uleb128 0x3a
 736 0077 0B       		.uleb128 0xb
 737 0078 3B       		.uleb128 0x3b
 738 0079 05       		.uleb128 0x5
 739 007a 49       		.uleb128 0x49
 740 007b 13       		.uleb128 0x13
 741 007c 00       		.byte	0
ARM GAS  /tmp/ccnwjK7J.s 			page 14


 742 007d 00       		.byte	0
 743 007e 0B       		.uleb128 0xb
 744 007f 13       		.uleb128 0x13
 745 0080 01       		.byte	0x1
 746 0081 0B       		.uleb128 0xb
 747 0082 0B       		.uleb128 0xb
 748 0083 3A       		.uleb128 0x3a
 749 0084 0B       		.uleb128 0xb
 750 0085 3B       		.uleb128 0x3b
 751 0086 05       		.uleb128 0x5
 752 0087 01       		.uleb128 0x1
 753 0088 13       		.uleb128 0x13
 754 0089 00       		.byte	0
 755 008a 00       		.byte	0
 756 008b 0C       		.uleb128 0xc
 757 008c 0D       		.uleb128 0xd
 758 008d 00       		.byte	0
 759 008e 03       		.uleb128 0x3
 760 008f 08       		.uleb128 0x8
 761 0090 3A       		.uleb128 0x3a
 762 0091 0B       		.uleb128 0xb
 763 0092 3B       		.uleb128 0x3b
 764 0093 05       		.uleb128 0x5
 765 0094 49       		.uleb128 0x49
 766 0095 13       		.uleb128 0x13
 767 0096 38       		.uleb128 0x38
 768 0097 0B       		.uleb128 0xb
 769 0098 00       		.byte	0
 770 0099 00       		.byte	0
 771 009a 0D       		.uleb128 0xd
 772 009b 2E       		.uleb128 0x2e
 773 009c 00       		.byte	0
 774 009d 3F       		.uleb128 0x3f
 775 009e 19       		.uleb128 0x19
 776 009f 03       		.uleb128 0x3
 777 00a0 0E       		.uleb128 0xe
 778 00a1 3A       		.uleb128 0x3a
 779 00a2 0B       		.uleb128 0xb
 780 00a3 3B       		.uleb128 0x3b
 781 00a4 05       		.uleb128 0x5
 782 00a5 27       		.uleb128 0x27
 783 00a6 19       		.uleb128 0x19
 784 00a7 11       		.uleb128 0x11
 785 00a8 01       		.uleb128 0x1
 786 00a9 12       		.uleb128 0x12
 787 00aa 06       		.uleb128 0x6
 788 00ab 40       		.uleb128 0x40
 789 00ac 18       		.uleb128 0x18
 790 00ad 9742     		.uleb128 0x2117
 791 00af 19       		.uleb128 0x19
 792 00b0 00       		.byte	0
 793 00b1 00       		.byte	0
 794 00b2 0E       		.uleb128 0xe
 795 00b3 2E       		.uleb128 0x2e
 796 00b4 01       		.byte	0x1
 797 00b5 3F       		.uleb128 0x3f
 798 00b6 19       		.uleb128 0x19
ARM GAS  /tmp/ccnwjK7J.s 			page 15


 799 00b7 03       		.uleb128 0x3
 800 00b8 0E       		.uleb128 0xe
 801 00b9 3A       		.uleb128 0x3a
 802 00ba 0B       		.uleb128 0xb
 803 00bb 3B       		.uleb128 0x3b
 804 00bc 05       		.uleb128 0x5
 805 00bd 27       		.uleb128 0x27
 806 00be 19       		.uleb128 0x19
 807 00bf 49       		.uleb128 0x49
 808 00c0 13       		.uleb128 0x13
 809 00c1 11       		.uleb128 0x11
 810 00c2 01       		.uleb128 0x1
 811 00c3 12       		.uleb128 0x12
 812 00c4 06       		.uleb128 0x6
 813 00c5 40       		.uleb128 0x40
 814 00c6 18       		.uleb128 0x18
 815 00c7 9742     		.uleb128 0x2117
 816 00c9 19       		.uleb128 0x19
 817 00ca 01       		.uleb128 0x1
 818 00cb 13       		.uleb128 0x13
 819 00cc 00       		.byte	0
 820 00cd 00       		.byte	0
 821 00ce 0F       		.uleb128 0xf
 822 00cf 34       		.uleb128 0x34
 823 00d0 00       		.byte	0
 824 00d1 03       		.uleb128 0x3
 825 00d2 0E       		.uleb128 0xe
 826 00d3 3A       		.uleb128 0x3a
 827 00d4 0B       		.uleb128 0xb
 828 00d5 3B       		.uleb128 0x3b
 829 00d6 05       		.uleb128 0x5
 830 00d7 49       		.uleb128 0x49
 831 00d8 13       		.uleb128 0x13
 832 00d9 02       		.uleb128 0x2
 833 00da 17       		.uleb128 0x17
 834 00db 00       		.byte	0
 835 00dc 00       		.byte	0
 836 00dd 10       		.uleb128 0x10
 837 00de 2E       		.uleb128 0x2e
 838 00df 01       		.byte	0x1
 839 00e0 3F       		.uleb128 0x3f
 840 00e1 19       		.uleb128 0x19
 841 00e2 03       		.uleb128 0x3
 842 00e3 0E       		.uleb128 0xe
 843 00e4 3A       		.uleb128 0x3a
 844 00e5 0B       		.uleb128 0xb
 845 00e6 3B       		.uleb128 0x3b
 846 00e7 0B       		.uleb128 0xb
 847 00e8 27       		.uleb128 0x27
 848 00e9 19       		.uleb128 0x19
 849 00ea 11       		.uleb128 0x11
 850 00eb 01       		.uleb128 0x1
 851 00ec 12       		.uleb128 0x12
 852 00ed 06       		.uleb128 0x6
 853 00ee 40       		.uleb128 0x40
 854 00ef 18       		.uleb128 0x18
 855 00f0 9742     		.uleb128 0x2117
ARM GAS  /tmp/ccnwjK7J.s 			page 16


 856 00f2 19       		.uleb128 0x19
 857 00f3 01       		.uleb128 0x1
 858 00f4 13       		.uleb128 0x13
 859 00f5 00       		.byte	0
 860 00f6 00       		.byte	0
 861 00f7 11       		.uleb128 0x11
 862 00f8 05       		.uleb128 0x5
 863 00f9 00       		.byte	0
 864 00fa 03       		.uleb128 0x3
 865 00fb 0E       		.uleb128 0xe
 866 00fc 3A       		.uleb128 0x3a
 867 00fd 0B       		.uleb128 0xb
 868 00fe 3B       		.uleb128 0x3b
 869 00ff 0B       		.uleb128 0xb
 870 0100 49       		.uleb128 0x49
 871 0101 13       		.uleb128 0x13
 872 0102 02       		.uleb128 0x2
 873 0103 17       		.uleb128 0x17
 874 0104 00       		.byte	0
 875 0105 00       		.byte	0
 876 0106 12       		.uleb128 0x12
 877 0107 2E       		.uleb128 0x2e
 878 0108 00       		.byte	0
 879 0109 3F       		.uleb128 0x3f
 880 010a 19       		.uleb128 0x19
 881 010b 03       		.uleb128 0x3
 882 010c 0E       		.uleb128 0xe
 883 010d 3A       		.uleb128 0x3a
 884 010e 0B       		.uleb128 0xb
 885 010f 3B       		.uleb128 0x3b
 886 0110 0B       		.uleb128 0xb
 887 0111 27       		.uleb128 0x27
 888 0112 19       		.uleb128 0x19
 889 0113 11       		.uleb128 0x11
 890 0114 01       		.uleb128 0x1
 891 0115 12       		.uleb128 0x12
 892 0116 06       		.uleb128 0x6
 893 0117 40       		.uleb128 0x40
 894 0118 18       		.uleb128 0x18
 895 0119 9742     		.uleb128 0x2117
 896 011b 19       		.uleb128 0x19
 897 011c 00       		.byte	0
 898 011d 00       		.byte	0
 899 011e 13       		.uleb128 0x13
 900 011f 34       		.uleb128 0x34
 901 0120 00       		.byte	0
 902 0121 03       		.uleb128 0x3
 903 0122 0E       		.uleb128 0xe
 904 0123 3A       		.uleb128 0x3a
 905 0124 0B       		.uleb128 0xb
 906 0125 3B       		.uleb128 0x3b
 907 0126 0B       		.uleb128 0xb
 908 0127 49       		.uleb128 0x49
 909 0128 13       		.uleb128 0x13
 910 0129 02       		.uleb128 0x2
 911 012a 18       		.uleb128 0x18
 912 012b 00       		.byte	0
ARM GAS  /tmp/ccnwjK7J.s 			page 17


 913 012c 00       		.byte	0
 914 012d 14       		.uleb128 0x14
 915 012e 34       		.uleb128 0x34
 916 012f 00       		.byte	0
 917 0130 03       		.uleb128 0x3
 918 0131 0E       		.uleb128 0xe
 919 0132 3A       		.uleb128 0x3a
 920 0133 0B       		.uleb128 0xb
 921 0134 3B       		.uleb128 0x3b
 922 0135 0B       		.uleb128 0xb
 923 0136 49       		.uleb128 0x49
 924 0137 13       		.uleb128 0x13
 925 0138 02       		.uleb128 0x2
 926 0139 17       		.uleb128 0x17
 927 013a 00       		.byte	0
 928 013b 00       		.byte	0
 929 013c 15       		.uleb128 0x15
 930 013d 898201   		.uleb128 0x4109
 931 0140 01       		.byte	0x1
 932 0141 11       		.uleb128 0x11
 933 0142 01       		.uleb128 0x1
 934 0143 31       		.uleb128 0x31
 935 0144 13       		.uleb128 0x13
 936 0145 01       		.uleb128 0x1
 937 0146 13       		.uleb128 0x13
 938 0147 00       		.byte	0
 939 0148 00       		.byte	0
 940 0149 16       		.uleb128 0x16
 941 014a 8A8201   		.uleb128 0x410a
 942 014d 00       		.byte	0
 943 014e 02       		.uleb128 0x2
 944 014f 18       		.uleb128 0x18
 945 0150 9142     		.uleb128 0x2111
 946 0152 18       		.uleb128 0x18
 947 0153 00       		.byte	0
 948 0154 00       		.byte	0
 949 0155 17       		.uleb128 0x17
 950 0156 898201   		.uleb128 0x4109
 951 0159 01       		.byte	0x1
 952 015a 11       		.uleb128 0x11
 953 015b 01       		.uleb128 0x1
 954 015c 9542     		.uleb128 0x2115
 955 015e 19       		.uleb128 0x19
 956 015f 31       		.uleb128 0x31
 957 0160 13       		.uleb128 0x13
 958 0161 00       		.byte	0
 959 0162 00       		.byte	0
 960 0163 18       		.uleb128 0x18
 961 0164 2E       		.uleb128 0x2e
 962 0165 00       		.byte	0
 963 0166 3F       		.uleb128 0x3f
 964 0167 19       		.uleb128 0x19
 965 0168 3C       		.uleb128 0x3c
 966 0169 19       		.uleb128 0x19
 967 016a 6E       		.uleb128 0x6e
 968 016b 0E       		.uleb128 0xe
 969 016c 03       		.uleb128 0x3
ARM GAS  /tmp/ccnwjK7J.s 			page 18


 970 016d 0E       		.uleb128 0xe
 971 016e 3A       		.uleb128 0x3a
 972 016f 0B       		.uleb128 0xb
 973 0170 3B       		.uleb128 0x3b
 974 0171 05       		.uleb128 0x5
 975 0172 00       		.byte	0
 976 0173 00       		.byte	0
 977 0174 00       		.byte	0
 978              		.section	.debug_loc,"",%progbits
 979              	.Ldebug_loc0:
 980              	.LLST5:
 981 0000 00000000 		.4byte	.LVL11
 982 0004 04000000 		.4byte	.LVL12
 983 0008 0200     		.2byte	0x2
 984 000a 30       		.byte	0x30
 985 000b 9F       		.byte	0x9f
 986 000c 04000000 		.4byte	.LVL12
 987 0010 0A000000 		.4byte	.LVL13
 988 0014 0500     		.2byte	0x5
 989 0016 70       		.byte	0x70
 990 0017 00       		.sleb128 0
 991 0018 30       		.byte	0x30
 992 0019 2E       		.byte	0x2e
 993 001a 9F       		.byte	0x9f
 994 001b 00000000 		.4byte	0
 995 001f 00000000 		.4byte	0
 996              	.LLST4:
 997 0023 00000000 		.4byte	.LVL9
 998 0027 06000000 		.4byte	.LVL10
 999 002b 0100     		.2byte	0x1
 1000 002d 50       		.byte	0x50
 1001 002e 06000000 		.4byte	.LVL10
 1002 0032 10000000 		.4byte	.LFE116
 1003 0036 0400     		.2byte	0x4
 1004 0038 F3       		.byte	0xf3
 1005 0039 01       		.uleb128 0x1
 1006 003a 50       		.byte	0x50
 1007 003b 9F       		.byte	0x9f
 1008 003c 00000000 		.4byte	0
 1009 0040 00000000 		.4byte	0
 1010              	.LLST3:
 1011 0044 00000000 		.4byte	.LVL7
 1012 0048 06000000 		.4byte	.LVL8
 1013 004c 0100     		.2byte	0x1
 1014 004e 50       		.byte	0x50
 1015 004f 06000000 		.4byte	.LVL8
 1016 0053 10000000 		.4byte	.LFE115
 1017 0057 0400     		.2byte	0x4
 1018 0059 F3       		.byte	0xf3
 1019 005a 01       		.uleb128 0x1
 1020 005b 50       		.byte	0x50
 1021 005c 9F       		.byte	0x9f
 1022 005d 00000000 		.4byte	0
 1023 0061 00000000 		.4byte	0
 1024              	.LLST2:
 1025 0065 00000000 		.4byte	.LVL5
 1026 0069 16000000 		.4byte	.LVL6
ARM GAS  /tmp/ccnwjK7J.s 			page 19


 1027 006d 0100     		.2byte	0x1
 1028 006f 50       		.byte	0x50
 1029 0070 16000000 		.4byte	.LVL6
 1030 0074 28000000 		.4byte	.LFE113
 1031 0078 0400     		.2byte	0x4
 1032 007a F3       		.byte	0xf3
 1033 007b 01       		.uleb128 0x1
 1034 007c 50       		.byte	0x50
 1035 007d 9F       		.byte	0x9f
 1036 007e 00000000 		.4byte	0
 1037 0082 00000000 		.4byte	0
 1038              	.LLST0:
 1039 0086 00000000 		.4byte	.LVL2
 1040 008a 0A000000 		.4byte	.LVL4
 1041 008e 0100     		.2byte	0x1
 1042 0090 50       		.byte	0x50
 1043 0091 0A000000 		.4byte	.LVL4
 1044 0095 14000000 		.4byte	.LFE112
 1045 0099 0400     		.2byte	0x4
 1046 009b F3       		.byte	0xf3
 1047 009c 01       		.uleb128 0x1
 1048 009d 50       		.byte	0x50
 1049 009e 9F       		.byte	0x9f
 1050 009f 00000000 		.4byte	0
 1051 00a3 00000000 		.4byte	0
 1052              	.LLST1:
 1053 00a7 00000000 		.4byte	.LVL2
 1054 00ab 08000000 		.4byte	.LVL3
 1055 00af 0200     		.2byte	0x2
 1056 00b1 30       		.byte	0x30
 1057 00b2 9F       		.byte	0x9f
 1058 00b3 08000000 		.4byte	.LVL3
 1059 00b7 0A000000 		.4byte	.LVL4
 1060 00bb 0100     		.2byte	0x1
 1061 00bd 53       		.byte	0x53
 1062 00be 0A000000 		.4byte	.LVL4
 1063 00c2 14000000 		.4byte	.LFE112
 1064 00c6 0100     		.2byte	0x1
 1065 00c8 50       		.byte	0x50
 1066 00c9 00000000 		.4byte	0
 1067 00cd 00000000 		.4byte	0
 1068              		.section	.debug_aranges,"",%progbits
 1069 0000 54000000 		.4byte	0x54
 1070 0004 0200     		.2byte	0x2
 1071 0006 00000000 		.4byte	.Ldebug_info0
 1072 000a 04       		.byte	0x4
 1073 000b 00       		.byte	0
 1074 000c 0000     		.2byte	0
 1075 000e 0000     		.2byte	0
 1076 0010 00000000 		.4byte	.LFB111
 1077 0014 1A000000 		.4byte	.LFE111-.LFB111
 1078 0018 00000000 		.4byte	.LFB112
 1079 001c 14000000 		.4byte	.LFE112-.LFB112
 1080 0020 00000000 		.4byte	.LFB113
 1081 0024 28000000 		.4byte	.LFE113-.LFB113
 1082 0028 00000000 		.4byte	.LFB114
 1083 002c 0C000000 		.4byte	.LFE114-.LFB114
ARM GAS  /tmp/ccnwjK7J.s 			page 20


 1084 0030 00000000 		.4byte	.LFB115
 1085 0034 10000000 		.4byte	.LFE115-.LFB115
 1086 0038 00000000 		.4byte	.LFB116
 1087 003c 10000000 		.4byte	.LFE116-.LFB116
 1088 0040 00000000 		.4byte	.LFB117
 1089 0044 10000000 		.4byte	.LFE117-.LFB117
 1090 0048 00000000 		.4byte	.LFB118
 1091 004c 0C000000 		.4byte	.LFE118-.LFB118
 1092 0050 00000000 		.4byte	0
 1093 0054 00000000 		.4byte	0
 1094              		.section	.debug_ranges,"",%progbits
 1095              	.Ldebug_ranges0:
 1096 0000 00000000 		.4byte	.LFB111
 1097 0004 1A000000 		.4byte	.LFE111
 1098 0008 00000000 		.4byte	.LFB112
 1099 000c 14000000 		.4byte	.LFE112
 1100 0010 00000000 		.4byte	.LFB113
 1101 0014 28000000 		.4byte	.LFE113
 1102 0018 00000000 		.4byte	.LFB114
 1103 001c 0C000000 		.4byte	.LFE114
 1104 0020 00000000 		.4byte	.LFB115
 1105 0024 10000000 		.4byte	.LFE115
 1106 0028 00000000 		.4byte	.LFB116
 1107 002c 10000000 		.4byte	.LFE116
 1108 0030 00000000 		.4byte	.LFB117
 1109 0034 10000000 		.4byte	.LFE117
 1110 0038 00000000 		.4byte	.LFB118
 1111 003c 0C000000 		.4byte	.LFE118
 1112 0040 00000000 		.4byte	0
 1113 0044 00000000 		.4byte	0
 1114              		.section	.debug_line,"",%progbits
 1115              	.Ldebug_line0:
 1116 0000 08020000 		.section	.debug_str,"MS",%progbits,1
 1116      02006601 
 1116      00000201 
 1116      FB0E0D00 
 1116      01010101 
 1117              	.LASF9:
 1118 0000 6C6F6E67 		.ascii	"long long int\000"
 1118      206C6F6E 
 1118      6720696E 
 1118      7400
 1119              	.LASF33:
 1120 000e 43686962 		.ascii	"ChibiOS_2.6.6/ext/stdperiph_stm32f4/src/stm32f4xx_w"
 1120      694F535F 
 1120      322E362E 
 1120      362F6578 
 1120      742F7374 
 1121 0041 7764672E 		.ascii	"wdg.c\000"
 1121      6300
 1122              	.LASF4:
 1123 0047 5F5F7569 		.ascii	"__uint8_t\000"
 1123      6E74385F 
 1123      7400
 1124              	.LASF24:
 1125 0051 57574447 		.ascii	"WWDG_EnableIT\000"
 1125      5F456E61 
ARM GAS  /tmp/ccnwjK7J.s 			page 21


 1125      626C6549 
 1125      5400
 1126              	.LASF5:
 1127 005f 5F5F696E 		.ascii	"__int32_t\000"
 1127      7433325F 
 1127      7400
 1128              	.LASF3:
 1129 0069 73686F72 		.ascii	"short unsigned int\000"
 1129      7420756E 
 1129      7369676E 
 1129      65642069 
 1129      6E7400
 1130              	.LASF12:
 1131 007c 75696E74 		.ascii	"uint8_t\000"
 1131      385F7400 
 1132              	.LASF19:
 1133 0084 57574447 		.ascii	"WWDG_TypeDef\000"
 1133      5F547970 
 1133      65446566 
 1133      00
 1134              	.LASF27:
 1135 0091 62697473 		.ascii	"bitstatus\000"
 1135      74617475 
 1135      7300
 1136              	.LASF16:
 1137 009b 466C6167 		.ascii	"FlagStatus\000"
 1137      53746174 
 1137      757300
 1138              	.LASF20:
 1139 00a6 57574447 		.ascii	"WWDG_Enable\000"
 1139      5F456E61 
 1139      626C6500 
 1140              	.LASF18:
 1141 00b2 454E4142 		.ascii	"ENABLE\000"
 1141      4C4500
 1142              	.LASF1:
 1143 00b9 756E7369 		.ascii	"unsigned char\000"
 1143      676E6564 
 1143      20636861 
 1143      7200
 1144              	.LASF37:
 1145 00c7 5243435F 		.ascii	"RCC_APB1PeriphResetCmd\000"
 1145      41504231 
 1145      50657269 
 1145      70685265 
 1145      73657443 
 1146              	.LASF8:
 1147 00de 6C6F6E67 		.ascii	"long unsigned int\000"
 1147      20756E73 
 1147      69676E65 
 1147      6420696E 
 1147      7400
 1148              	.LASF15:
 1149 00f0 52455345 		.ascii	"RESET\000"
 1149      5400
 1150              	.LASF17:
 1151 00f6 44495341 		.ascii	"DISABLE\000"
ARM GAS  /tmp/ccnwjK7J.s 			page 22


 1151      424C4500 
 1152              	.LASF7:
 1153 00fe 5F5F7569 		.ascii	"__uint32_t\000"
 1153      6E743332 
 1153      5F7400
 1154              	.LASF26:
 1155 0109 57696E64 		.ascii	"WindowValue\000"
 1155      6F775661 
 1155      6C756500 
 1156              	.LASF22:
 1157 0115 436F756E 		.ascii	"Counter\000"
 1157      74657200 
 1158              	.LASF35:
 1159 011d 49544D5F 		.ascii	"ITM_RxBuffer\000"
 1159      52784275 
 1159      66666572 
 1159      00
 1160              	.LASF32:
 1161 012a 474E5520 		.ascii	"GNU C99 7.3.1 20180622 (release) [ARM/embedded-7-br"
 1161      43393920 
 1161      372E332E 
 1161      31203230 
 1161      31383036 
 1162 015d 616E6368 		.ascii	"anch revision 261907] -mcpu=cortex-m4 -mfloat-abi=h"
 1162      20726576 
 1162      6973696F 
 1162      6E203236 
 1162      31393037 
 1163 0190 61726420 		.ascii	"ard -mfpu=fpv4-sp-d16 -mno-thumb-interwork -mthumb "
 1163      2D6D6670 
 1163      753D6670 
 1163      76342D73 
 1163      702D6431 
 1164 01c3 2D676764 		.ascii	"-ggdb -O2 -std=gnu99 -fomit-frame-pointer -falign-f"
 1164      62202D4F 
 1164      32202D73 
 1164      74643D67 
 1164      6E753939 
 1165 01f6 756E6374 		.ascii	"unctions=16 -ffunction-sections -fdata-sections -fn"
 1165      696F6E73 
 1165      3D313620 
 1165      2D666675 
 1165      6E637469 
 1166 0229 6F2D636F 		.ascii	"o-common -fsingle-precision-constant\000"
 1166      6D6D6F6E 
 1166      202D6673 
 1166      696E676C 
 1166      652D7072 
 1167              	.LASF11:
 1168 024e 756E7369 		.ascii	"unsigned int\000"
 1168      676E6564 
 1168      20696E74 
 1168      00
 1169              	.LASF10:
 1170 025b 6C6F6E67 		.ascii	"long long unsigned int\000"
 1170      206C6F6E 
 1170      6720756E 
ARM GAS  /tmp/ccnwjK7J.s 			page 23


 1170      7369676E 
 1170      65642069 
 1171              	.LASF36:
 1172 0272 57574447 		.ascii	"WWDG_GetFlagStatus\000"
 1172      5F476574 
 1172      466C6167 
 1172      53746174 
 1172      757300
 1173              	.LASF29:
 1174 0285 57574447 		.ascii	"WWDG_SetPrescaler\000"
 1174      5F536574 
 1174      50726573 
 1174      63616C65 
 1174      7200
 1175              	.LASF13:
 1176 0297 696E7433 		.ascii	"int32_t\000"
 1176      325F7400 
 1177              	.LASF30:
 1178 029f 57574447 		.ascii	"WWDG_Prescaler\000"
 1178      5F507265 
 1178      7363616C 
 1178      657200
 1179              	.LASF21:
 1180 02ae 57574447 		.ascii	"WWDG_SetCounter\000"
 1180      5F536574 
 1180      436F756E 
 1180      74657200 
 1181              	.LASF2:
 1182 02be 73686F72 		.ascii	"short int\000"
 1182      7420696E 
 1182      7400
 1183              	.LASF28:
 1184 02c8 746D7072 		.ascii	"tmpreg\000"
 1184      656700
 1185              	.LASF23:
 1186 02cf 57574447 		.ascii	"WWDG_ClearFlag\000"
 1186      5F436C65 
 1186      6172466C 
 1186      616700
 1187              	.LASF25:
 1188 02de 57574447 		.ascii	"WWDG_SetWindowValue\000"
 1188      5F536574 
 1188      57696E64 
 1188      6F775661 
 1188      6C756500 
 1189              	.LASF31:
 1190 02f2 57574447 		.ascii	"WWDG_DeInit\000"
 1190      5F446549 
 1190      6E697400 
 1191              	.LASF34:
 1192 02fe 2F686F6D 		.ascii	"/home/renan/BLDC/bldc-bootloader\000"
 1192      652F7265 
 1192      6E616E2F 
 1192      424C4443 
 1192      2F626C64 
 1193              	.LASF14:
 1194 031f 75696E74 		.ascii	"uint32_t\000"
ARM GAS  /tmp/ccnwjK7J.s 			page 24


 1194      33325F74 
 1194      00
 1195              	.LASF6:
 1196 0328 6C6F6E67 		.ascii	"long int\000"
 1196      20696E74 
 1196      00
 1197              	.LASF0:
 1198 0331 7369676E 		.ascii	"signed char\000"
 1198      65642063 
 1198      68617200 
 1199              		.ident	"GCC: (GNU Tools for Arm Embedded Processors 7-2018-q3-update) 7.3.1 20180622 (release) [AR
ARM GAS  /tmp/ccnwjK7J.s 			page 25


DEFINED SYMBOLS
                            *ABS*:0000000000000000 stm32f4xx_wwdg.c
     /tmp/ccnwjK7J.s:18     .text.WWDG_DeInit:0000000000000000 $t
     /tmp/ccnwjK7J.s:26     .text.WWDG_DeInit:0000000000000000 WWDG_DeInit
     /tmp/ccnwjK7J.s:57     .text.WWDG_SetPrescaler:0000000000000000 $t
     /tmp/ccnwjK7J.s:65     .text.WWDG_SetPrescaler:0000000000000000 WWDG_SetPrescaler
     /tmp/ccnwjK7J.s:88     .text.WWDG_SetPrescaler:0000000000000010 $d
     /tmp/ccnwjK7J.s:93     .text.WWDG_SetWindowValue:0000000000000000 $t
     /tmp/ccnwjK7J.s:101    .text.WWDG_SetWindowValue:0000000000000000 WWDG_SetWindowValue
     /tmp/ccnwjK7J.s:137    .text.WWDG_SetWindowValue:0000000000000024 $d
     /tmp/ccnwjK7J.s:142    .text.WWDG_EnableIT:0000000000000000 $t
     /tmp/ccnwjK7J.s:150    .text.WWDG_EnableIT:0000000000000000 WWDG_EnableIT
     /tmp/ccnwjK7J.s:166    .text.WWDG_EnableIT:0000000000000008 $d
     /tmp/ccnwjK7J.s:171    .text.WWDG_SetCounter:0000000000000000 $t
     /tmp/ccnwjK7J.s:179    .text.WWDG_SetCounter:0000000000000000 WWDG_SetCounter
     /tmp/ccnwjK7J.s:197    .text.WWDG_SetCounter:000000000000000c $d
     /tmp/ccnwjK7J.s:202    .text.WWDG_Enable:0000000000000000 $t
     /tmp/ccnwjK7J.s:210    .text.WWDG_Enable:0000000000000000 WWDG_Enable
     /tmp/ccnwjK7J.s:228    .text.WWDG_Enable:000000000000000c $d
     /tmp/ccnwjK7J.s:233    .text.WWDG_GetFlagStatus:0000000000000000 $t
     /tmp/ccnwjK7J.s:241    .text.WWDG_GetFlagStatus:0000000000000000 WWDG_GetFlagStatus
     /tmp/ccnwjK7J.s:262    .text.WWDG_GetFlagStatus:000000000000000c $d
     /tmp/ccnwjK7J.s:267    .text.WWDG_ClearFlag:0000000000000000 $t
     /tmp/ccnwjK7J.s:275    .text.WWDG_ClearFlag:0000000000000000 WWDG_ClearFlag
     /tmp/ccnwjK7J.s:291    .text.WWDG_ClearFlag:0000000000000008 $d

UNDEFINED SYMBOLS
RCC_APB1PeriphResetCmd
