ARM GAS  /tmp/cc7Xux4D.s 			page 1


   1              		.cpu cortex-m4
   2              		.eabi_attribute 27, 1
   3              		.eabi_attribute 28, 1
   4              		.eabi_attribute 20, 1
   5              		.eabi_attribute 21, 1
   6              		.eabi_attribute 23, 3
   7              		.eabi_attribute 24, 1
   8              		.eabi_attribute 25, 1
   9              		.eabi_attribute 26, 1
  10              		.eabi_attribute 30, 2
  11              		.eabi_attribute 34, 1
  12              		.eabi_attribute 18, 4
  13              		.file	"stm32f4xx_usart.c"
  14              		.text
  15              	.Ltext0:
  16              		.cfi_sections	.debug_frame
  17              		.section	.text.USART_DeInit,"ax",%progbits
  18              		.align	1
  19              		.p2align 4,,15
  20              		.global	USART_DeInit
  21              		.syntax unified
  22              		.thumb
  23              		.thumb_func
  24              		.fpu fpv4-sp-d16
  25              		.type	USART_DeInit, %function
  26              	USART_DeInit:
  27              	.LFB111:
  28              		.file 1 "ChibiOS_2.6.6/ext/stdperiph_stm32f4/src/stm32f4xx_usart.c"
  29              		.loc 1 185 0
  30              		.cfi_startproc
  31              		@ args = 0, pretend = 0, frame = 0
  32              		@ frame_needed = 0, uses_anonymous_args = 0
  33              	.LVL0:
  34 0000 08B5     		push	{r3, lr}
  35              		.cfi_def_cfa_offset 8
  36              		.cfi_offset 3, -8
  37              		.cfi_offset 14, -4
  38              		.loc 1 189 0
  39 0002 2B4B     		ldr	r3, .L16
  40 0004 9842     		cmp	r0, r3
  41 0006 1BD0     		beq	.L10
  42              		.loc 1 194 0
  43 0008 2A4B     		ldr	r3, .L16+4
  44 000a 9842     		cmp	r0, r3
  45 000c 22D0     		beq	.L11
  46              		.loc 1 199 0
  47 000e 2A4B     		ldr	r3, .L16+8
  48 0010 9842     		cmp	r0, r3
  49 0012 2BD0     		beq	.L12
  50              		.loc 1 204 0
  51 0014 294B     		ldr	r3, .L16+12
  52 0016 9842     		cmp	r0, r3
  53 0018 34D0     		beq	.L13
  54              		.loc 1 209 0
  55 001a 294B     		ldr	r3, .L16+16
  56 001c 9842     		cmp	r0, r3
  57 001e 03D0     		beq	.L14
ARM GAS  /tmp/cc7Xux4D.s 			page 2


  58              		.loc 1 216 0
  59 0020 284B     		ldr	r3, .L16+20
  60 0022 9842     		cmp	r0, r3
  61 0024 3AD0     		beq	.L15
  62              		.loc 1 222 0
  63 0026 08BD     		pop	{r3, pc}
  64              	.L14:
  65              		.loc 1 211 0
  66 0028 0121     		movs	r1, #1
  67 002a 4FF48010 		mov	r0, #1048576
  68              	.LVL1:
  69 002e FFF7FEFF 		bl	RCC_APB1PeriphResetCmd
  70              	.LVL2:
  71              		.loc 1 212 0
  72 0032 0021     		movs	r1, #0
  73 0034 4FF48010 		mov	r0, #1048576
  74              		.loc 1 222 0
  75 0038 BDE80840 		pop	{r3, lr}
  76              		.cfi_remember_state
  77              		.cfi_restore 14
  78              		.cfi_restore 3
  79              		.cfi_def_cfa_offset 0
  80              		.loc 1 212 0
  81 003c FFF7FEBF 		b	RCC_APB1PeriphResetCmd
  82              	.LVL3:
  83              	.L10:
  84              		.cfi_restore_state
  85              		.loc 1 191 0
  86 0040 0121     		movs	r1, #1
  87 0042 1020     		movs	r0, #16
  88              	.LVL4:
  89 0044 FFF7FEFF 		bl	RCC_APB2PeriphResetCmd
  90              	.LVL5:
  91              		.loc 1 192 0
  92 0048 0021     		movs	r1, #0
  93 004a 1020     		movs	r0, #16
  94              		.loc 1 222 0
  95 004c BDE80840 		pop	{r3, lr}
  96              		.cfi_remember_state
  97              		.cfi_restore 14
  98              		.cfi_restore 3
  99              		.cfi_def_cfa_offset 0
 100              		.loc 1 192 0
 101 0050 FFF7FEBF 		b	RCC_APB2PeriphResetCmd
 102              	.LVL6:
 103              	.L11:
 104              		.cfi_restore_state
 105              		.loc 1 196 0
 106 0054 0121     		movs	r1, #1
 107 0056 4FF40030 		mov	r0, #131072
 108              	.LVL7:
 109 005a FFF7FEFF 		bl	RCC_APB1PeriphResetCmd
 110              	.LVL8:
 111              		.loc 1 197 0
 112 005e 0021     		movs	r1, #0
 113 0060 4FF40030 		mov	r0, #131072
 114              		.loc 1 222 0
ARM GAS  /tmp/cc7Xux4D.s 			page 3


 115 0064 BDE80840 		pop	{r3, lr}
 116              		.cfi_remember_state
 117              		.cfi_restore 14
 118              		.cfi_restore 3
 119              		.cfi_def_cfa_offset 0
 120              		.loc 1 197 0
 121 0068 FFF7FEBF 		b	RCC_APB1PeriphResetCmd
 122              	.LVL9:
 123              	.L12:
 124              		.cfi_restore_state
 125              		.loc 1 201 0
 126 006c 0121     		movs	r1, #1
 127 006e 4FF48020 		mov	r0, #262144
 128              	.LVL10:
 129 0072 FFF7FEFF 		bl	RCC_APB1PeriphResetCmd
 130              	.LVL11:
 131              		.loc 1 202 0
 132 0076 0021     		movs	r1, #0
 133 0078 4FF48020 		mov	r0, #262144
 134              		.loc 1 222 0
 135 007c BDE80840 		pop	{r3, lr}
 136              		.cfi_remember_state
 137              		.cfi_restore 14
 138              		.cfi_restore 3
 139              		.cfi_def_cfa_offset 0
 140              		.loc 1 202 0
 141 0080 FFF7FEBF 		b	RCC_APB1PeriphResetCmd
 142              	.LVL12:
 143              	.L13:
 144              		.cfi_restore_state
 145              		.loc 1 206 0
 146 0084 0121     		movs	r1, #1
 147 0086 4FF40020 		mov	r0, #524288
 148              	.LVL13:
 149 008a FFF7FEFF 		bl	RCC_APB1PeriphResetCmd
 150              	.LVL14:
 151              		.loc 1 207 0
 152 008e 0021     		movs	r1, #0
 153 0090 4FF40020 		mov	r0, #524288
 154              		.loc 1 222 0
 155 0094 BDE80840 		pop	{r3, lr}
 156              		.cfi_remember_state
 157              		.cfi_restore 14
 158              		.cfi_restore 3
 159              		.cfi_def_cfa_offset 0
 160              		.loc 1 207 0
 161 0098 FFF7FEBF 		b	RCC_APB1PeriphResetCmd
 162              	.LVL15:
 163              	.L15:
 164              		.cfi_restore_state
 165              		.loc 1 218 0
 166 009c 0121     		movs	r1, #1
 167 009e 2020     		movs	r0, #32
 168              	.LVL16:
 169 00a0 FFF7FEFF 		bl	RCC_APB2PeriphResetCmd
 170              	.LVL17:
 171              		.loc 1 219 0
ARM GAS  /tmp/cc7Xux4D.s 			page 4


 172 00a4 0021     		movs	r1, #0
 173 00a6 2020     		movs	r0, #32
 174              		.loc 1 222 0
 175 00a8 BDE80840 		pop	{r3, lr}
 176              		.cfi_restore 14
 177              		.cfi_restore 3
 178              		.cfi_def_cfa_offset 0
 179              		.loc 1 219 0
 180 00ac FFF7FEBF 		b	RCC_APB2PeriphResetCmd
 181              	.LVL18:
 182              	.L17:
 183              		.align	2
 184              	.L16:
 185 00b0 00100140 		.word	1073811456
 186 00b4 00440040 		.word	1073759232
 187 00b8 00480040 		.word	1073760256
 188 00bc 004C0040 		.word	1073761280
 189 00c0 00500040 		.word	1073762304
 190 00c4 00140140 		.word	1073812480
 191              		.cfi_endproc
 192              	.LFE111:
 193              		.size	USART_DeInit, .-USART_DeInit
 194              		.section	.text.USART_Init,"ax",%progbits
 195              		.align	1
 196              		.p2align 4,,15
 197              		.global	USART_Init
 198              		.syntax unified
 199              		.thumb
 200              		.thumb_func
 201              		.fpu fpv4-sp-d16
 202              		.type	USART_Init, %function
 203              	USART_Init:
 204              	.LFB112:
 205              		.loc 1 234 0
 206              		.cfi_startproc
 207              		@ args = 0, pretend = 0, frame = 16
 208              		@ frame_needed = 0, uses_anonymous_args = 0
 209              	.LVL19:
 210              		.loc 1 256 0
 211 0000 028A     		ldrh	r2, [r0, #16]
 212              		.loc 1 234 0
 213 0002 F0B5     		push	{r4, r5, r6, r7, lr}
 214              		.cfi_def_cfa_offset 20
 215              		.cfi_offset 4, -20
 216              		.cfi_offset 5, -16
 217              		.cfi_offset 6, -12
 218              		.cfi_offset 7, -8
 219              		.cfi_offset 14, -4
 220              		.loc 1 256 0
 221 0004 92B2     		uxth	r2, r2
 222              	.LVL20:
 223              		.loc 1 234 0
 224 0006 0446     		mov	r4, r0
 225              		.loc 1 263 0
 226 0008 C888     		ldrh	r0, [r1, #6]
 227              	.LVL21:
 228              		.loc 1 234 0
ARM GAS  /tmp/cc7Xux4D.s 			page 5


 229 000a 0D46     		mov	r5, r1
 230              		.loc 1 259 0
 231 000c 22F44052 		bic	r2, r2, #12288
 232              	.LVL22:
 233              		.loc 1 266 0
 234 0010 0243     		orrs	r2, r2, r0
 235              	.LVL23:
 236              		.loc 1 250 0
 237 0012 8989     		ldrh	r1, [r1, #12]
 238              	.LVL24:
 239              		.loc 1 278 0
 240 0014 AB88     		ldrh	r3, [r5, #4]
 241 0016 2F89     		ldrh	r7, [r5, #8]
 242              		.loc 1 266 0
 243 0018 2282     		strh	r2, [r4, #16]	@ movhi
 244              		.loc 1 269 0
 245 001a A689     		ldrh	r6, [r4, #12]
 246              	.LVL25:
 247              		.loc 1 278 0
 248 001c 6889     		ldrh	r0, [r5, #10]
 249              		.loc 1 272 0
 250 001e 254A     		ldr	r2, .L28
 251              		.loc 1 278 0
 252 0020 3B43     		orrs	r3, r3, r7
 253              		.loc 1 272 0
 254 0022 3240     		ands	r2, r2, r6
 255              	.LVL26:
 256              		.loc 1 278 0
 257 0024 0343     		orrs	r3, r3, r0
 258              		.loc 1 282 0
 259 0026 1343     		orrs	r3, r3, r2
 260 0028 A381     		strh	r3, [r4, #12]	@ movhi
 261              		.loc 1 285 0
 262 002a A38A     		ldrh	r3, [r4, #20]
 263 002c 9BB2     		uxth	r3, r3
 264              	.LVL27:
 265              		.loc 1 288 0
 266 002e 23F44073 		bic	r3, r3, #768
 267              	.LVL28:
 268              		.loc 1 295 0
 269 0032 0B43     		orrs	r3, r3, r1
 270              	.LVL29:
 271              		.loc 1 234 0
 272 0034 85B0     		sub	sp, sp, #20
 273              		.cfi_def_cfa_offset 40
 274              		.loc 1 295 0
 275 0036 A382     		strh	r3, [r4, #20]	@ movhi
 276              		.loc 1 299 0
 277 0038 6846     		mov	r0, sp
 278 003a FFF7FEFF 		bl	RCC_GetClocksFreq
 279              	.LVL30:
 280              		.loc 1 301 0
 281 003e 1E4B     		ldr	r3, .L28+4
 282 0040 9C42     		cmp	r4, r3
 283 0042 05D0     		beq	.L19
 284              		.loc 1 301 0 is_stmt 0 discriminator 1
 285 0044 03F58063 		add	r3, r3, #1024
ARM GAS  /tmp/cc7Xux4D.s 			page 6


 286 0048 9C42     		cmp	r4, r3
 287 004a 01D0     		beq	.L19
 288              		.loc 1 307 0 is_stmt 1
 289 004c 029B     		ldr	r3, [sp, #8]
 290              	.LVL31:
 291 004e 00E0     		b	.L21
 292              	.LVL32:
 293              	.L19:
 294              		.loc 1 303 0
 295 0050 039B     		ldr	r3, [sp, #12]
 296              	.LVL33:
 297              	.L21:
 298              		.loc 1 311 0
 299 0052 A289     		ldrh	r2, [r4, #12]
 300 0054 2968     		ldr	r1, [r5]
 301              		.loc 1 321 0
 302 0056 194D     		ldr	r5, .L28+8
 303              	.LVL34:
 304              		.loc 1 311 0
 305 0058 1004     		lsls	r0, r2, #16
 306 005a 03EB8303 		add	r3, r3, r3, lsl #2
 307              	.LVL35:
 308              		.loc 1 327 0
 309 005e A289     		ldrh	r2, [r4, #12]
 310 0060 03EB8303 		add	r3, r3, r3, lsl #2
 311              		.loc 1 314 0
 312 0064 4CBF     		ite	mi
 313 0066 4900     		lslmi	r1, r1, #1
 314              		.loc 1 319 0
 315 0068 8900     		lslpl	r1, r1, #2
 316 006a B3FBF1F1 		udiv	r1, r3, r1
 317              	.LVL36:
 318              		.loc 1 321 0
 319 006e A5FB0130 		umull	r3, r0, r5, r1
 320 0072 4009     		lsrs	r0, r0, #5
 321 0074 6423     		movs	r3, #100
 322              		.loc 1 327 0
 323 0076 1204     		lsls	r2, r2, #16
 324 0078 03FB1013 		mls	r3, r3, r0, r1
 325              		.loc 1 321 0
 326 007c 4FEA0010 		lsl	r0, r0, #4
 327              	.LVL37:
 328              		.loc 1 327 0
 329 0080 0AD4     		bmi	.L27
 330              		.loc 1 333 0
 331 0082 1B01     		lsls	r3, r3, #4
 332              	.LVL38:
 333 0084 3233     		adds	r3, r3, #50
 334 0086 A5FB0323 		umull	r2, r3, r5, r3
 335 008a C3F34313 		ubfx	r3, r3, #5, #4
 336 008e 0343     		orrs	r3, r3, r0
 337              	.LVL39:
 338              		.loc 1 337 0
 339 0090 9BB2     		uxth	r3, r3
 340              	.LVL40:
 341 0092 2381     		strh	r3, [r4, #8]	@ movhi
 342              		.loc 1 338 0
ARM GAS  /tmp/cc7Xux4D.s 			page 7


 343 0094 05B0     		add	sp, sp, #20
 344              		.cfi_remember_state
 345              		.cfi_def_cfa_offset 20
 346              		@ sp needed
 347 0096 F0BD     		pop	{r4, r5, r6, r7, pc}
 348              	.LVL41:
 349              	.L27:
 350              		.cfi_restore_state
 351              		.loc 1 329 0
 352 0098 DB00     		lsls	r3, r3, #3
 353              	.LVL42:
 354 009a 03F13202 		add	r2, r3, #50
 355 009e A5FB0223 		umull	r2, r3, r5, r2
 356 00a2 C3F34212 		ubfx	r2, r3, #5, #3
 357 00a6 42EA0003 		orr	r3, r2, r0
 358              	.LVL43:
 359              		.loc 1 337 0
 360 00aa 9BB2     		uxth	r3, r3
 361              	.LVL44:
 362 00ac 2381     		strh	r3, [r4, #8]	@ movhi
 363              		.loc 1 338 0
 364 00ae 05B0     		add	sp, sp, #20
 365              		.cfi_def_cfa_offset 20
 366              		@ sp needed
 367 00b0 F0BD     		pop	{r4, r5, r6, r7, pc}
 368              	.LVL45:
 369              	.L29:
 370 00b2 00BF     		.align	2
 371              	.L28:
 372 00b4 F3E9FFFF 		.word	-5645
 373 00b8 00100140 		.word	1073811456
 374 00bc 1F85EB51 		.word	1374389535
 375              		.cfi_endproc
 376              	.LFE112:
 377              		.size	USART_Init, .-USART_Init
 378              		.section	.text.USART_StructInit,"ax",%progbits
 379              		.align	1
 380              		.p2align 4,,15
 381              		.global	USART_StructInit
 382              		.syntax unified
 383              		.thumb
 384              		.thumb_func
 385              		.fpu fpv4-sp-d16
 386              		.type	USART_StructInit, %function
 387              	USART_StructInit:
 388              	.LFB113:
 389              		.loc 1 347 0
 390              		.cfi_startproc
 391              		@ args = 0, pretend = 0, frame = 0
 392              		@ frame_needed = 0, uses_anonymous_args = 0
 393              		@ link register save eliminated.
 394              	.LVL46:
 395              		.loc 1 349 0
 396 0000 0023     		movs	r3, #0
 397 0002 4FF41651 		mov	r1, #9600
 398              		.loc 1 351 0
 399 0006 4FF44022 		mov	r2, #786432
ARM GAS  /tmp/cc7Xux4D.s 			page 8


 400              		.loc 1 349 0
 401 000a 0160     		str	r1, [r0]
 402 000c C0E90132 		strd	r3, r2, [r0, #4]
 403              		.loc 1 353 0
 404 0010 8381     		strh	r3, [r0, #12]	@ movhi
 405              		.loc 1 355 0
 406 0012 7047     		bx	lr
 407              		.cfi_endproc
 408              	.LFE113:
 409              		.size	USART_StructInit, .-USART_StructInit
 410              		.section	.text.USART_ClockInit,"ax",%progbits
 411              		.align	1
 412              		.p2align 4,,15
 413              		.global	USART_ClockInit
 414              		.syntax unified
 415              		.thumb
 416              		.thumb_func
 417              		.fpu fpv4-sp-d16
 418              		.type	USART_ClockInit, %function
 419              	USART_ClockInit:
 420              	.LFB114:
 421              		.loc 1 367 0
 422              		.cfi_startproc
 423              		@ args = 0, pretend = 0, frame = 0
 424              		@ frame_needed = 0, uses_anonymous_args = 0
 425              		@ link register save eliminated.
 426              	.LVL47:
 427 0000 30B4     		push	{r4, r5}
 428              		.cfi_def_cfa_offset 8
 429              		.cfi_offset 4, -8
 430              		.cfi_offset 5, -4
 431              		.loc 1 386 0
 432 0002 0B88     		ldrh	r3, [r1]
 433 0004 4D88     		ldrh	r5, [r1, #2]
 434 0006 8C88     		ldrh	r4, [r1, #4]
 435              		.loc 1 377 0
 436 0008 028A     		ldrh	r2, [r0, #16]
 437              		.loc 1 386 0
 438 000a C988     		ldrh	r1, [r1, #6]
 439              	.LVL48:
 440 000c 2B43     		orrs	r3, r3, r5
 441 000e 2343     		orrs	r3, r3, r4
 442              		.loc 1 377 0
 443 0010 92B2     		uxth	r2, r2
 444              	.LVL49:
 445              		.loc 1 386 0
 446 0012 0B43     		orrs	r3, r3, r1
 447              		.loc 1 379 0
 448 0014 22F47062 		bic	r2, r2, #3840
 449              	.LVL50:
 450              		.loc 1 388 0
 451 0018 1343     		orrs	r3, r3, r2
 452 001a 0382     		strh	r3, [r0, #16]	@ movhi
 453              		.loc 1 389 0
 454 001c 30BC     		pop	{r4, r5}
 455              		.cfi_restore 5
 456              		.cfi_restore 4
ARM GAS  /tmp/cc7Xux4D.s 			page 9


 457              		.cfi_def_cfa_offset 0
 458 001e 7047     		bx	lr
 459              		.cfi_endproc
 460              	.LFE114:
 461              		.size	USART_ClockInit, .-USART_ClockInit
 462              		.section	.text.USART_ClockStructInit,"ax",%progbits
 463              		.align	1
 464              		.p2align 4,,15
 465              		.global	USART_ClockStructInit
 466              		.syntax unified
 467              		.thumb
 468              		.thumb_func
 469              		.fpu fpv4-sp-d16
 470              		.type	USART_ClockStructInit, %function
 471              	USART_ClockStructInit:
 472              	.LFB115:
 473              		.loc 1 398 0
 474              		.cfi_startproc
 475              		@ args = 0, pretend = 0, frame = 0
 476              		@ frame_needed = 0, uses_anonymous_args = 0
 477              		@ link register save eliminated.
 478              	.LVL51:
 479              		.loc 1 400 0
 480 0000 0023     		movs	r3, #0
 481 0002 0380     		strh	r3, [r0]	@ movhi
 482              		.loc 1 401 0
 483 0004 4380     		strh	r3, [r0, #2]	@ movhi
 484              		.loc 1 402 0
 485 0006 8380     		strh	r3, [r0, #4]	@ movhi
 486              		.loc 1 403 0
 487 0008 C380     		strh	r3, [r0, #6]	@ movhi
 488              		.loc 1 404 0
 489 000a 7047     		bx	lr
 490              		.cfi_endproc
 491              	.LFE115:
 492              		.size	USART_ClockStructInit, .-USART_ClockStructInit
 493              		.section	.text.USART_Cmd,"ax",%progbits
 494              		.align	1
 495              		.p2align 4,,15
 496              		.global	USART_Cmd
 497              		.syntax unified
 498              		.thumb
 499              		.thumb_func
 500              		.fpu fpv4-sp-d16
 501              		.type	USART_Cmd, %function
 502              	USART_Cmd:
 503              	.LFB116:
 504              		.loc 1 415 0
 505              		.cfi_startproc
 506              		@ args = 0, pretend = 0, frame = 0
 507              		@ frame_needed = 0, uses_anonymous_args = 0
 508              		@ link register save eliminated.
 509              	.LVL52:
 510              		.loc 1 423 0
 511 0000 8389     		ldrh	r3, [r0, #12]
 512              		.loc 1 420 0
 513 0002 29B9     		cbnz	r1, .L37
ARM GAS  /tmp/cc7Xux4D.s 			page 10


 514              		.loc 1 428 0
 515 0004 23F40053 		bic	r3, r3, #8192
 516 0008 1B04     		lsls	r3, r3, #16
 517 000a 1B0C     		lsrs	r3, r3, #16
 518 000c 8381     		strh	r3, [r0, #12]	@ movhi
 519              		.loc 1 430 0
 520 000e 7047     		bx	lr
 521              	.L37:
 522              		.loc 1 423 0
 523 0010 43F40053 		orr	r3, r3, #8192
 524 0014 8381     		strh	r3, [r0, #12]	@ movhi
 525 0016 7047     		bx	lr
 526              		.cfi_endproc
 527              	.LFE116:
 528              		.size	USART_Cmd, .-USART_Cmd
 529              		.section	.text.USART_SetPrescaler,"ax",%progbits
 530              		.align	1
 531              		.p2align 4,,15
 532              		.global	USART_SetPrescaler
 533              		.syntax unified
 534              		.thumb
 535              		.thumb_func
 536              		.fpu fpv4-sp-d16
 537              		.type	USART_SetPrescaler, %function
 538              	USART_SetPrescaler:
 539              	.LFB117:
 540              		.loc 1 441 0
 541              		.cfi_startproc
 542              		@ args = 0, pretend = 0, frame = 0
 543              		@ frame_needed = 0, uses_anonymous_args = 0
 544              		@ link register save eliminated.
 545              	.LVL53:
 546              		.loc 1 446 0
 547 0000 038B     		ldrh	r3, [r0, #24]
 548 0002 03F47F43 		and	r3, r3, #65280
 549 0006 0383     		strh	r3, [r0, #24]	@ movhi
 550              		.loc 1 448 0
 551 0008 038B     		ldrh	r3, [r0, #24]
 552 000a 1943     		orrs	r1, r1, r3
 553              	.LVL54:
 554 000c 0183     		strh	r1, [r0, #24]	@ movhi
 555              		.loc 1 449 0
 556 000e 7047     		bx	lr
 557              		.cfi_endproc
 558              	.LFE117:
 559              		.size	USART_SetPrescaler, .-USART_SetPrescaler
 560              		.section	.text.USART_OverSampling8Cmd,"ax",%progbits
 561              		.align	1
 562              		.p2align 4,,15
 563              		.global	USART_OverSampling8Cmd
 564              		.syntax unified
 565              		.thumb
 566              		.thumb_func
 567              		.fpu fpv4-sp-d16
 568              		.type	USART_OverSampling8Cmd, %function
 569              	USART_OverSampling8Cmd:
 570              	.LFB118:
ARM GAS  /tmp/cc7Xux4D.s 			page 11


 571              		.loc 1 462 0
 572              		.cfi_startproc
 573              		@ args = 0, pretend = 0, frame = 0
 574              		@ frame_needed = 0, uses_anonymous_args = 0
 575              		@ link register save eliminated.
 576              	.LVL55:
 577              		.loc 1 470 0
 578 0000 8389     		ldrh	r3, [r0, #12]
 579              		.loc 1 467 0
 580 0002 19B9     		cbnz	r1, .L42
 581              		.loc 1 475 0
 582 0004 C3F30E03 		ubfx	r3, r3, #0, #15
 583 0008 8381     		strh	r3, [r0, #12]	@ movhi
 584              		.loc 1 477 0
 585 000a 7047     		bx	lr
 586              	.L42:
 587              		.loc 1 470 0
 588 000c 43F40043 		orr	r3, r3, #32768
 589 0010 8381     		strh	r3, [r0, #12]	@ movhi
 590 0012 7047     		bx	lr
 591              		.cfi_endproc
 592              	.LFE118:
 593              		.size	USART_OverSampling8Cmd, .-USART_OverSampling8Cmd
 594              		.section	.text.USART_OneBitMethodCmd,"ax",%progbits
 595              		.align	1
 596              		.p2align 4,,15
 597              		.global	USART_OneBitMethodCmd
 598              		.syntax unified
 599              		.thumb
 600              		.thumb_func
 601              		.fpu fpv4-sp-d16
 602              		.type	USART_OneBitMethodCmd, %function
 603              	USART_OneBitMethodCmd:
 604              	.LFB119:
 605              		.loc 1 488 0
 606              		.cfi_startproc
 607              		@ args = 0, pretend = 0, frame = 0
 608              		@ frame_needed = 0, uses_anonymous_args = 0
 609              		@ link register save eliminated.
 610              	.LVL56:
 611              		.loc 1 496 0
 612 0000 838A     		ldrh	r3, [r0, #20]
 613              		.loc 1 493 0
 614 0002 29B9     		cbnz	r1, .L46
 615              		.loc 1 501 0
 616 0004 23F40063 		bic	r3, r3, #2048
 617 0008 1B04     		lsls	r3, r3, #16
 618 000a 1B0C     		lsrs	r3, r3, #16
 619 000c 8382     		strh	r3, [r0, #20]	@ movhi
 620              		.loc 1 503 0
 621 000e 7047     		bx	lr
 622              	.L46:
 623              		.loc 1 496 0
 624 0010 43F40063 		orr	r3, r3, #2048
 625 0014 8382     		strh	r3, [r0, #20]	@ movhi
 626 0016 7047     		bx	lr
 627              		.cfi_endproc
ARM GAS  /tmp/cc7Xux4D.s 			page 12


 628              	.LFE119:
 629              		.size	USART_OneBitMethodCmd, .-USART_OneBitMethodCmd
 630              		.section	.text.USART_SendData,"ax",%progbits
 631              		.align	1
 632              		.p2align 4,,15
 633              		.global	USART_SendData
 634              		.syntax unified
 635              		.thumb
 636              		.thumb_func
 637              		.fpu fpv4-sp-d16
 638              		.type	USART_SendData, %function
 639              	USART_SendData:
 640              	.LFB120:
 641              		.loc 1 545 0
 642              		.cfi_startproc
 643              		@ args = 0, pretend = 0, frame = 0
 644              		@ frame_needed = 0, uses_anonymous_args = 0
 645              		@ link register save eliminated.
 646              	.LVL57:
 647              		.loc 1 551 0
 648 0000 C1F30801 		ubfx	r1, r1, #0, #9
 649              	.LVL58:
 650 0004 8180     		strh	r1, [r0, #4]	@ movhi
 651              		.loc 1 552 0
 652 0006 7047     		bx	lr
 653              		.cfi_endproc
 654              	.LFE120:
 655              		.size	USART_SendData, .-USART_SendData
 656              		.section	.text.USART_ReceiveData,"ax",%progbits
 657              		.align	1
 658              		.p2align 4,,15
 659              		.global	USART_ReceiveData
 660              		.syntax unified
 661              		.thumb
 662              		.thumb_func
 663              		.fpu fpv4-sp-d16
 664              		.type	USART_ReceiveData, %function
 665              	USART_ReceiveData:
 666              	.LFB121:
 667              		.loc 1 561 0
 668              		.cfi_startproc
 669              		@ args = 0, pretend = 0, frame = 0
 670              		@ frame_needed = 0, uses_anonymous_args = 0
 671              		@ link register save eliminated.
 672              	.LVL59:
 673              		.loc 1 566 0
 674 0000 8088     		ldrh	r0, [r0, #4]
 675              	.LVL60:
 676              		.loc 1 567 0
 677 0002 C0F30800 		ubfx	r0, r0, #0, #9
 678 0006 7047     		bx	lr
 679              		.cfi_endproc
 680              	.LFE121:
 681              		.size	USART_ReceiveData, .-USART_ReceiveData
 682              		.section	.text.USART_SetAddress,"ax",%progbits
 683              		.align	1
 684              		.p2align 4,,15
ARM GAS  /tmp/cc7Xux4D.s 			page 13


 685              		.global	USART_SetAddress
 686              		.syntax unified
 687              		.thumb
 688              		.thumb_func
 689              		.fpu fpv4-sp-d16
 690              		.type	USART_SetAddress, %function
 691              	USART_SetAddress:
 692              	.LFB122:
 693              		.loc 1 612 0
 694              		.cfi_startproc
 695              		@ args = 0, pretend = 0, frame = 0
 696              		@ frame_needed = 0, uses_anonymous_args = 0
 697              		@ link register save eliminated.
 698              	.LVL61:
 699              		.loc 1 618 0
 700 0000 038A     		ldrh	r3, [r0, #16]
 701 0002 23F00F03 		bic	r3, r3, #15
 702 0006 1B04     		lsls	r3, r3, #16
 703 0008 1B0C     		lsrs	r3, r3, #16
 704 000a 0382     		strh	r3, [r0, #16]	@ movhi
 705              		.loc 1 620 0
 706 000c 038A     		ldrh	r3, [r0, #16]
 707 000e 1943     		orrs	r1, r1, r3
 708              	.LVL62:
 709 0010 0182     		strh	r1, [r0, #16]	@ movhi
 710              		.loc 1 621 0
 711 0012 7047     		bx	lr
 712              		.cfi_endproc
 713              	.LFE122:
 714              		.size	USART_SetAddress, .-USART_SetAddress
 715              		.section	.text.USART_ReceiverWakeUpCmd,"ax",%progbits
 716              		.align	1
 717              		.p2align 4,,15
 718              		.global	USART_ReceiverWakeUpCmd
 719              		.syntax unified
 720              		.thumb
 721              		.thumb_func
 722              		.fpu fpv4-sp-d16
 723              		.type	USART_ReceiverWakeUpCmd, %function
 724              	USART_ReceiverWakeUpCmd:
 725              	.LFB123:
 726              		.loc 1 632 0
 727              		.cfi_startproc
 728              		@ args = 0, pretend = 0, frame = 0
 729              		@ frame_needed = 0, uses_anonymous_args = 0
 730              		@ link register save eliminated.
 731              	.LVL63:
 732              		.loc 1 640 0
 733 0000 8389     		ldrh	r3, [r0, #12]
 734              		.loc 1 637 0
 735 0002 29B9     		cbnz	r1, .L53
 736              		.loc 1 645 0
 737 0004 23F00203 		bic	r3, r3, #2
 738 0008 1B04     		lsls	r3, r3, #16
 739 000a 1B0C     		lsrs	r3, r3, #16
 740 000c 8381     		strh	r3, [r0, #12]	@ movhi
 741              		.loc 1 647 0
ARM GAS  /tmp/cc7Xux4D.s 			page 14


 742 000e 7047     		bx	lr
 743              	.L53:
 744              		.loc 1 640 0
 745 0010 43F00203 		orr	r3, r3, #2
 746 0014 8381     		strh	r3, [r0, #12]	@ movhi
 747 0016 7047     		bx	lr
 748              		.cfi_endproc
 749              	.LFE123:
 750              		.size	USART_ReceiverWakeUpCmd, .-USART_ReceiverWakeUpCmd
 751              		.section	.text.USART_WakeUpConfig,"ax",%progbits
 752              		.align	1
 753              		.p2align 4,,15
 754              		.global	USART_WakeUpConfig
 755              		.syntax unified
 756              		.thumb
 757              		.thumb_func
 758              		.fpu fpv4-sp-d16
 759              		.type	USART_WakeUpConfig, %function
 760              	USART_WakeUpConfig:
 761              	.LFB124:
 762              		.loc 1 659 0
 763              		.cfi_startproc
 764              		@ args = 0, pretend = 0, frame = 0
 765              		@ frame_needed = 0, uses_anonymous_args = 0
 766              		@ link register save eliminated.
 767              	.LVL64:
 768              		.loc 1 664 0
 769 0000 8389     		ldrh	r3, [r0, #12]
 770 0002 23F40063 		bic	r3, r3, #2048
 771 0006 1B04     		lsls	r3, r3, #16
 772 0008 1B0C     		lsrs	r3, r3, #16
 773 000a 8381     		strh	r3, [r0, #12]	@ movhi
 774              		.loc 1 665 0
 775 000c 8389     		ldrh	r3, [r0, #12]
 776 000e 1943     		orrs	r1, r1, r3
 777              	.LVL65:
 778 0010 8181     		strh	r1, [r0, #12]	@ movhi
 779              		.loc 1 666 0
 780 0012 7047     		bx	lr
 781              		.cfi_endproc
 782              	.LFE124:
 783              		.size	USART_WakeUpConfig, .-USART_WakeUpConfig
 784              		.section	.text.USART_LINBreakDetectLengthConfig,"ax",%progbits
 785              		.align	1
 786              		.p2align 4,,15
 787              		.global	USART_LINBreakDetectLengthConfig
 788              		.syntax unified
 789              		.thumb
 790              		.thumb_func
 791              		.fpu fpv4-sp-d16
 792              		.type	USART_LINBreakDetectLengthConfig, %function
 793              	USART_LINBreakDetectLengthConfig:
 794              	.LFB125:
 795              		.loc 1 728 0
 796              		.cfi_startproc
 797              		@ args = 0, pretend = 0, frame = 0
 798              		@ frame_needed = 0, uses_anonymous_args = 0
ARM GAS  /tmp/cc7Xux4D.s 			page 15


 799              		@ link register save eliminated.
 800              	.LVL66:
 801              		.loc 1 733 0
 802 0000 038A     		ldrh	r3, [r0, #16]
 803 0002 23F02003 		bic	r3, r3, #32
 804 0006 1B04     		lsls	r3, r3, #16
 805 0008 1B0C     		lsrs	r3, r3, #16
 806 000a 0382     		strh	r3, [r0, #16]	@ movhi
 807              		.loc 1 734 0
 808 000c 038A     		ldrh	r3, [r0, #16]
 809 000e 1943     		orrs	r1, r1, r3
 810              	.LVL67:
 811 0010 0182     		strh	r1, [r0, #16]	@ movhi
 812              		.loc 1 735 0
 813 0012 7047     		bx	lr
 814              		.cfi_endproc
 815              	.LFE125:
 816              		.size	USART_LINBreakDetectLengthConfig, .-USART_LINBreakDetectLengthConfig
 817              		.section	.text.USART_LINCmd,"ax",%progbits
 818              		.align	1
 819              		.p2align 4,,15
 820              		.global	USART_LINCmd
 821              		.syntax unified
 822              		.thumb
 823              		.thumb_func
 824              		.fpu fpv4-sp-d16
 825              		.type	USART_LINCmd, %function
 826              	USART_LINCmd:
 827              	.LFB126:
 828              		.loc 1 746 0
 829              		.cfi_startproc
 830              		@ args = 0, pretend = 0, frame = 0
 831              		@ frame_needed = 0, uses_anonymous_args = 0
 832              		@ link register save eliminated.
 833              	.LVL68:
 834              		.loc 1 754 0
 835 0000 038A     		ldrh	r3, [r0, #16]
 836              		.loc 1 751 0
 837 0002 29B9     		cbnz	r1, .L59
 838              		.loc 1 759 0
 839 0004 23F48043 		bic	r3, r3, #16384
 840 0008 1B04     		lsls	r3, r3, #16
 841 000a 1B0C     		lsrs	r3, r3, #16
 842 000c 0382     		strh	r3, [r0, #16]	@ movhi
 843              		.loc 1 761 0
 844 000e 7047     		bx	lr
 845              	.L59:
 846              		.loc 1 754 0
 847 0010 43F48043 		orr	r3, r3, #16384
 848 0014 0382     		strh	r3, [r0, #16]	@ movhi
 849 0016 7047     		bx	lr
 850              		.cfi_endproc
 851              	.LFE126:
 852              		.size	USART_LINCmd, .-USART_LINCmd
 853              		.section	.text.USART_SendBreak,"ax",%progbits
 854              		.align	1
 855              		.p2align 4,,15
ARM GAS  /tmp/cc7Xux4D.s 			page 16


 856              		.global	USART_SendBreak
 857              		.syntax unified
 858              		.thumb
 859              		.thumb_func
 860              		.fpu fpv4-sp-d16
 861              		.type	USART_SendBreak, %function
 862              	USART_SendBreak:
 863              	.LFB127:
 864              		.loc 1 770 0
 865              		.cfi_startproc
 866              		@ args = 0, pretend = 0, frame = 0
 867              		@ frame_needed = 0, uses_anonymous_args = 0
 868              		@ link register save eliminated.
 869              	.LVL69:
 870              		.loc 1 775 0
 871 0000 8389     		ldrh	r3, [r0, #12]
 872 0002 43F00103 		orr	r3, r3, #1
 873 0006 8381     		strh	r3, [r0, #12]	@ movhi
 874              		.loc 1 776 0
 875 0008 7047     		bx	lr
 876              		.cfi_endproc
 877              	.LFE127:
 878              		.size	USART_SendBreak, .-USART_SendBreak
 879 000a 00BF     		.section	.text.USART_HalfDuplexCmd,"ax",%progbits
 880              		.align	1
 881              		.p2align 4,,15
 882              		.global	USART_HalfDuplexCmd
 883              		.syntax unified
 884              		.thumb
 885              		.thumb_func
 886              		.fpu fpv4-sp-d16
 887              		.type	USART_HalfDuplexCmd, %function
 888              	USART_HalfDuplexCmd:
 889              	.LFB128:
 890              		.loc 1 823 0
 891              		.cfi_startproc
 892              		@ args = 0, pretend = 0, frame = 0
 893              		@ frame_needed = 0, uses_anonymous_args = 0
 894              		@ link register save eliminated.
 895              	.LVL70:
 896              		.loc 1 831 0
 897 0000 838A     		ldrh	r3, [r0, #20]
 898              		.loc 1 828 0
 899 0002 29B9     		cbnz	r1, .L64
 900              		.loc 1 836 0
 901 0004 23F00803 		bic	r3, r3, #8
 902 0008 1B04     		lsls	r3, r3, #16
 903 000a 1B0C     		lsrs	r3, r3, #16
 904 000c 8382     		strh	r3, [r0, #20]	@ movhi
 905              		.loc 1 838 0
 906 000e 7047     		bx	lr
 907              	.L64:
 908              		.loc 1 831 0
 909 0010 43F00803 		orr	r3, r3, #8
 910 0014 8382     		strh	r3, [r0, #20]	@ movhi
 911 0016 7047     		bx	lr
 912              		.cfi_endproc
ARM GAS  /tmp/cc7Xux4D.s 			page 17


 913              	.LFE128:
 914              		.size	USART_HalfDuplexCmd, .-USART_HalfDuplexCmd
 915              		.section	.text.USART_SetGuardTime,"ax",%progbits
 916              		.align	1
 917              		.p2align 4,,15
 918              		.global	USART_SetGuardTime
 919              		.syntax unified
 920              		.thumb
 921              		.thumb_func
 922              		.fpu fpv4-sp-d16
 923              		.type	USART_SetGuardTime, %function
 924              	USART_SetGuardTime:
 925              	.LFB129:
 926              		.loc 1 908 0
 927              		.cfi_startproc
 928              		@ args = 0, pretend = 0, frame = 0
 929              		@ frame_needed = 0, uses_anonymous_args = 0
 930              		@ link register save eliminated.
 931              	.LVL71:
 932              		.loc 1 913 0
 933 0000 038B     		ldrh	r3, [r0, #24]
 934 0002 DBB2     		uxtb	r3, r3
 935 0004 0383     		strh	r3, [r0, #24]	@ movhi
 936              		.loc 1 915 0
 937 0006 038B     		ldrh	r3, [r0, #24]
 938 0008 43EA0121 		orr	r1, r3, r1, lsl #8
 939              	.LVL72:
 940 000c 0183     		strh	r1, [r0, #24]	@ movhi
 941              		.loc 1 916 0
 942 000e 7047     		bx	lr
 943              		.cfi_endproc
 944              	.LFE129:
 945              		.size	USART_SetGuardTime, .-USART_SetGuardTime
 946              		.section	.text.USART_SmartCardCmd,"ax",%progbits
 947              		.align	1
 948              		.p2align 4,,15
 949              		.global	USART_SmartCardCmd
 950              		.syntax unified
 951              		.thumb
 952              		.thumb_func
 953              		.fpu fpv4-sp-d16
 954              		.type	USART_SmartCardCmd, %function
 955              	USART_SmartCardCmd:
 956              	.LFB130:
 957              		.loc 1 927 0
 958              		.cfi_startproc
 959              		@ args = 0, pretend = 0, frame = 0
 960              		@ frame_needed = 0, uses_anonymous_args = 0
 961              		@ link register save eliminated.
 962              	.LVL73:
 963              		.loc 1 934 0
 964 0000 838A     		ldrh	r3, [r0, #20]
 965              		.loc 1 931 0
 966 0002 29B9     		cbnz	r1, .L69
 967              		.loc 1 939 0
 968 0004 23F02003 		bic	r3, r3, #32
 969 0008 1B04     		lsls	r3, r3, #16
ARM GAS  /tmp/cc7Xux4D.s 			page 18


 970 000a 1B0C     		lsrs	r3, r3, #16
 971 000c 8382     		strh	r3, [r0, #20]	@ movhi
 972              		.loc 1 941 0
 973 000e 7047     		bx	lr
 974              	.L69:
 975              		.loc 1 934 0
 976 0010 43F02003 		orr	r3, r3, #32
 977 0014 8382     		strh	r3, [r0, #20]	@ movhi
 978 0016 7047     		bx	lr
 979              		.cfi_endproc
 980              	.LFE130:
 981              		.size	USART_SmartCardCmd, .-USART_SmartCardCmd
 982              		.section	.text.USART_SmartCardNACKCmd,"ax",%progbits
 983              		.align	1
 984              		.p2align 4,,15
 985              		.global	USART_SmartCardNACKCmd
 986              		.syntax unified
 987              		.thumb
 988              		.thumb_func
 989              		.fpu fpv4-sp-d16
 990              		.type	USART_SmartCardNACKCmd, %function
 991              	USART_SmartCardNACKCmd:
 992              	.LFB131:
 993              		.loc 1 952 0
 994              		.cfi_startproc
 995              		@ args = 0, pretend = 0, frame = 0
 996              		@ frame_needed = 0, uses_anonymous_args = 0
 997              		@ link register save eliminated.
 998              	.LVL74:
 999              		.loc 1 959 0
 1000 0000 838A     		ldrh	r3, [r0, #20]
 1001              		.loc 1 956 0
 1002 0002 29B9     		cbnz	r1, .L73
 1003              		.loc 1 964 0
 1004 0004 23F01003 		bic	r3, r3, #16
 1005 0008 1B04     		lsls	r3, r3, #16
 1006 000a 1B0C     		lsrs	r3, r3, #16
 1007 000c 8382     		strh	r3, [r0, #20]	@ movhi
 1008              		.loc 1 966 0
 1009 000e 7047     		bx	lr
 1010              	.L73:
 1011              		.loc 1 959 0
 1012 0010 43F01003 		orr	r3, r3, #16
 1013 0014 8382     		strh	r3, [r0, #20]	@ movhi
 1014 0016 7047     		bx	lr
 1015              		.cfi_endproc
 1016              	.LFE131:
 1017              		.size	USART_SmartCardNACKCmd, .-USART_SmartCardNACKCmd
 1018              		.section	.text.USART_IrDAConfig,"ax",%progbits
 1019              		.align	1
 1020              		.p2align 4,,15
 1021              		.global	USART_IrDAConfig
 1022              		.syntax unified
 1023              		.thumb
 1024              		.thumb_func
 1025              		.fpu fpv4-sp-d16
 1026              		.type	USART_IrDAConfig, %function
ARM GAS  /tmp/cc7Xux4D.s 			page 19


 1027              	USART_IrDAConfig:
 1028              	.LFB132:
 1029              		.loc 1 1023 0
 1030              		.cfi_startproc
 1031              		@ args = 0, pretend = 0, frame = 0
 1032              		@ frame_needed = 0, uses_anonymous_args = 0
 1033              		@ link register save eliminated.
 1034              	.LVL75:
 1035              		.loc 1 1028 0
 1036 0000 838A     		ldrh	r3, [r0, #20]
 1037 0002 23F00403 		bic	r3, r3, #4
 1038 0006 1B04     		lsls	r3, r3, #16
 1039 0008 1B0C     		lsrs	r3, r3, #16
 1040 000a 8382     		strh	r3, [r0, #20]	@ movhi
 1041              		.loc 1 1029 0
 1042 000c 838A     		ldrh	r3, [r0, #20]
 1043 000e 1943     		orrs	r1, r1, r3
 1044              	.LVL76:
 1045 0010 8182     		strh	r1, [r0, #20]	@ movhi
 1046              		.loc 1 1030 0
 1047 0012 7047     		bx	lr
 1048              		.cfi_endproc
 1049              	.LFE132:
 1050              		.size	USART_IrDAConfig, .-USART_IrDAConfig
 1051              		.section	.text.USART_IrDACmd,"ax",%progbits
 1052              		.align	1
 1053              		.p2align 4,,15
 1054              		.global	USART_IrDACmd
 1055              		.syntax unified
 1056              		.thumb
 1057              		.thumb_func
 1058              		.fpu fpv4-sp-d16
 1059              		.type	USART_IrDACmd, %function
 1060              	USART_IrDACmd:
 1061              	.LFB133:
 1062              		.loc 1 1041 0
 1063              		.cfi_startproc
 1064              		@ args = 0, pretend = 0, frame = 0
 1065              		@ frame_needed = 0, uses_anonymous_args = 0
 1066              		@ link register save eliminated.
 1067              	.LVL77:
 1068              		.loc 1 1049 0
 1069 0000 838A     		ldrh	r3, [r0, #20]
 1070              		.loc 1 1046 0
 1071 0002 29B9     		cbnz	r1, .L78
 1072              		.loc 1 1054 0
 1073 0004 23F00203 		bic	r3, r3, #2
 1074 0008 1B04     		lsls	r3, r3, #16
 1075 000a 1B0C     		lsrs	r3, r3, #16
 1076 000c 8382     		strh	r3, [r0, #20]	@ movhi
 1077              		.loc 1 1056 0
 1078 000e 7047     		bx	lr
 1079              	.L78:
 1080              		.loc 1 1049 0
 1081 0010 43F00203 		orr	r3, r3, #2
 1082 0014 8382     		strh	r3, [r0, #20]	@ movhi
 1083 0016 7047     		bx	lr
ARM GAS  /tmp/cc7Xux4D.s 			page 20


 1084              		.cfi_endproc
 1085              	.LFE133:
 1086              		.size	USART_IrDACmd, .-USART_IrDACmd
 1087              		.section	.text.USART_DMACmd,"ax",%progbits
 1088              		.align	1
 1089              		.p2align 4,,15
 1090              		.global	USART_DMACmd
 1091              		.syntax unified
 1092              		.thumb
 1093              		.thumb_func
 1094              		.fpu fpv4-sp-d16
 1095              		.type	USART_DMACmd, %function
 1096              	USART_DMACmd:
 1097              	.LFB134:
 1098              		.loc 1 1087 0
 1099              		.cfi_startproc
 1100              		@ args = 0, pretend = 0, frame = 0
 1101              		@ frame_needed = 0, uses_anonymous_args = 0
 1102              		@ link register save eliminated.
 1103              	.LVL78:
 1104              		.loc 1 1097 0
 1105 0000 838A     		ldrh	r3, [r0, #20]
 1106              		.loc 1 1093 0
 1107 0002 1AB9     		cbnz	r2, .L82
 1108              		.loc 1 1103 0
 1109 0004 23EA0101 		bic	r1, r3, r1
 1110              	.LVL79:
 1111 0008 8182     		strh	r1, [r0, #20]	@ movhi
 1112              		.loc 1 1105 0
 1113 000a 7047     		bx	lr
 1114              	.LVL80:
 1115              	.L82:
 1116              		.loc 1 1097 0
 1117 000c 1943     		orrs	r1, r1, r3
 1118              	.LVL81:
 1119 000e 8182     		strh	r1, [r0, #20]	@ movhi
 1120 0010 7047     		bx	lr
 1121              		.cfi_endproc
 1122              	.LFE134:
 1123              		.size	USART_DMACmd, .-USART_DMACmd
 1124              		.section	.text.USART_ITConfig,"ax",%progbits
 1125              		.align	1
 1126              		.p2align 4,,15
 1127              		.global	USART_ITConfig
 1128              		.syntax unified
 1129              		.thumb
 1130              		.thumb_func
 1131              		.fpu fpv4-sp-d16
 1132              		.type	USART_ITConfig, %function
 1133              	USART_ITConfig:
 1134              	.LFB135:
 1135              		.loc 1 1215 0
 1136              		.cfi_startproc
 1137              		@ args = 0, pretend = 0, frame = 0
 1138              		@ frame_needed = 0, uses_anonymous_args = 0
 1139              		@ link register save eliminated.
 1140              	.LVL82:
ARM GAS  /tmp/cc7Xux4D.s 			page 21


 1141 0000 10B4     		push	{r4}
 1142              		.cfi_def_cfa_offset 4
 1143              		.cfi_offset 4, -4
 1144              		.loc 1 1235 0
 1145 0002 01F01F04 		and	r4, r1, #31
 1146              		.loc 1 1232 0
 1147 0006 C1F34211 		ubfx	r1, r1, #5, #3
 1148              	.LVL83:
 1149              		.loc 1 1236 0
 1150 000a 0123     		movs	r3, #1
 1151              	.LVL84:
 1152              		.loc 1 1238 0
 1153 000c 0129     		cmp	r1, #1
 1154              		.loc 1 1236 0
 1155 000e 03FA04F3 		lsl	r3, r3, r4
 1156              	.LVL85:
 1157              		.loc 1 1238 0
 1158 0012 11D0     		beq	.L90
 1159              		.loc 1 1242 0
 1160 0014 0229     		cmp	r1, #2
 1161              		.loc 1 1244 0
 1162 0016 0CBF     		ite	eq
 1163 0018 1030     		addeq	r0, r0, #16
 1164              	.LVL86:
 1165              		.loc 1 1248 0
 1166 001a 1430     		addne	r0, r0, #20
 1167              	.LVL87:
 1168              	.L85:
 1169              		.loc 1 1250 0
 1170 001c 32B9     		cbnz	r2, .L91
 1171              		.loc 1 1256 0
 1172 001e 0268     		ldr	r2, [r0]
 1173              	.LVL88:
 1174              		.loc 1 1258 0
 1175 0020 5DF8044B 		ldr	r4, [sp], #4
 1176              		.cfi_remember_state
 1177              		.cfi_restore 4
 1178              		.cfi_def_cfa_offset 0
 1179              		.loc 1 1256 0
 1180 0024 22EA0303 		bic	r3, r2, r3
 1181              	.LVL89:
 1182 0028 0360     		str	r3, [r0]
 1183              		.loc 1 1258 0
 1184 002a 7047     		bx	lr
 1185              	.LVL90:
 1186              	.L91:
 1187              		.cfi_restore_state
 1188              		.loc 1 1252 0
 1189 002c 0268     		ldr	r2, [r0]
 1190              	.LVL91:
 1191              		.loc 1 1258 0
 1192 002e 5DF8044B 		ldr	r4, [sp], #4
 1193              		.cfi_remember_state
 1194              		.cfi_restore 4
 1195              		.cfi_def_cfa_offset 0
 1196              		.loc 1 1252 0
 1197 0032 1343     		orrs	r3, r3, r2
ARM GAS  /tmp/cc7Xux4D.s 			page 22


 1198              	.LVL92:
 1199 0034 0360     		str	r3, [r0]
 1200              		.loc 1 1258 0
 1201 0036 7047     		bx	lr
 1202              	.LVL93:
 1203              	.L90:
 1204              		.cfi_restore_state
 1205              		.loc 1 1240 0
 1206 0038 0C30     		adds	r0, r0, #12
 1207              	.LVL94:
 1208 003a EFE7     		b	.L85
 1209              		.cfi_endproc
 1210              	.LFE135:
 1211              		.size	USART_ITConfig, .-USART_ITConfig
 1212              		.section	.text.USART_GetFlagStatus,"ax",%progbits
 1213              		.align	1
 1214              		.p2align 4,,15
 1215              		.global	USART_GetFlagStatus
 1216              		.syntax unified
 1217              		.thumb
 1218              		.thumb_func
 1219              		.fpu fpv4-sp-d16
 1220              		.type	USART_GetFlagStatus, %function
 1221              	USART_GetFlagStatus:
 1222              	.LFB136:
 1223              		.loc 1 1279 0
 1224              		.cfi_startproc
 1225              		@ args = 0, pretend = 0, frame = 0
 1226              		@ frame_needed = 0, uses_anonymous_args = 0
 1227              		@ link register save eliminated.
 1228              	.LVL95:
 1229              		.loc 1 1291 0
 1230 0000 0388     		ldrh	r3, [r0]
 1231              	.LVL96:
 1232 0002 1942     		tst	r1, r3
 1233              		.loc 1 1300 0
 1234 0004 14BF     		ite	ne
 1235 0006 0120     		movne	r0, #1
 1236              	.LVL97:
 1237 0008 0020     		moveq	r0, #0
 1238 000a 7047     		bx	lr
 1239              		.cfi_endproc
 1240              	.LFE136:
 1241              		.size	USART_GetFlagStatus, .-USART_GetFlagStatus
 1242              		.section	.text.USART_ClearFlag,"ax",%progbits
 1243              		.align	1
 1244              		.p2align 4,,15
 1245              		.global	USART_ClearFlag
 1246              		.syntax unified
 1247              		.thumb
 1248              		.thumb_func
 1249              		.fpu fpv4-sp-d16
 1250              		.type	USART_ClearFlag, %function
 1251              	USART_ClearFlag:
 1252              	.LFB137:
 1253              		.loc 1 1328 0
 1254              		.cfi_startproc
ARM GAS  /tmp/cc7Xux4D.s 			page 23


 1255              		@ args = 0, pretend = 0, frame = 0
 1256              		@ frame_needed = 0, uses_anonymous_args = 0
 1257              		@ link register save eliminated.
 1258              	.LVL98:
 1259              		.loc 1 1339 0
 1260 0000 C943     		mvns	r1, r1
 1261              	.LVL99:
 1262 0002 89B2     		uxth	r1, r1
 1263 0004 0180     		strh	r1, [r0]	@ movhi
 1264              		.loc 1 1340 0
 1265 0006 7047     		bx	lr
 1266              		.cfi_endproc
 1267              	.LFE137:
 1268              		.size	USART_ClearFlag, .-USART_ClearFlag
 1269              		.section	.text.USART_GetITStatus,"ax",%progbits
 1270              		.align	1
 1271              		.p2align 4,,15
 1272              		.global	USART_GetITStatus
 1273              		.syntax unified
 1274              		.thumb
 1275              		.thumb_func
 1276              		.fpu fpv4-sp-d16
 1277              		.type	USART_GetITStatus, %function
 1278              	USART_GetITStatus:
 1279              	.LFB138:
 1280              		.loc 1 1362 0
 1281              		.cfi_startproc
 1282              		@ args = 0, pretend = 0, frame = 0
 1283              		@ frame_needed = 0, uses_anonymous_args = 0
 1284              		@ link register save eliminated.
 1285              	.LVL100:
 1286              		.loc 1 1376 0
 1287 0000 C1F34212 		ubfx	r2, r1, #5, #3
 1288              	.LVL101:
 1289              		.loc 1 1362 0
 1290 0004 10B4     		push	{r4}
 1291              		.cfi_def_cfa_offset 4
 1292              		.cfi_offset 4, -4
 1293              		.loc 1 1379 0
 1294 0006 0123     		movs	r3, #1
 1295              		.loc 1 1378 0
 1296 0008 01F01F04 		and	r4, r1, #31
 1297              	.LVL102:
 1298              		.loc 1 1381 0
 1299 000c 012A     		cmp	r2, #1
 1300              		.loc 1 1379 0
 1301 000e 03FA04F3 		lsl	r3, r3, r4
 1302              	.LVL103:
 1303              		.loc 1 1381 0
 1304 0012 16D0     		beq	.L101
 1305              		.loc 1 1385 0
 1306 0014 022A     		cmp	r2, #2
 1307              		.loc 1 1387 0
 1308 0016 0CBF     		ite	eq
 1309 0018 028A     		ldrheq	r2, [r0, #16]
 1310              	.LVL104:
 1311              		.loc 1 1391 0
ARM GAS  /tmp/cc7Xux4D.s 			page 24


 1312 001a 828A     		ldrhne	r2, [r0, #20]
 1313 001c 1340     		ands	r3, r3, r2
 1314              	.LVL105:
 1315              	.L96:
 1316              		.loc 1 1396 0
 1317 001e 0288     		ldrh	r2, [r0]
 1318 0020 92B2     		uxth	r2, r2
 1319              	.LVL106:
 1320              		.loc 1 1397 0
 1321 0022 53B1     		cbz	r3, .L99
 1322              		.loc 1 1395 0 discriminator 1
 1323 0024 0123     		movs	r3, #1
 1324              	.LVL107:
 1325              		.loc 1 1394 0 discriminator 1
 1326 0026 090A     		lsrs	r1, r1, #8
 1327              	.LVL108:
 1328              		.loc 1 1395 0 discriminator 1
 1329 0028 03FA01F1 		lsl	r1, r3, r1
 1330              		.loc 1 1397 0 discriminator 1
 1331 002c 0A42     		tst	r2, r1
 1332              		.loc 1 1399 0 discriminator 1
 1333 002e 14BF     		ite	ne
 1334 0030 1846     		movne	r0, r3
 1335              	.LVL109:
 1336 0032 0020     		moveq	r0, #0
 1337              	.LVL110:
 1338              		.loc 1 1407 0 discriminator 1
 1339 0034 5DF8044B 		ldr	r4, [sp], #4
 1340              		.cfi_remember_state
 1341              		.cfi_restore 4
 1342              		.cfi_def_cfa_offset 0
 1343 0038 7047     		bx	lr
 1344              	.LVL111:
 1345              	.L99:
 1346              		.cfi_restore_state
 1347              		.loc 1 1403 0
 1348 003a 1846     		mov	r0, r3
 1349              	.LVL112:
 1350              		.loc 1 1407 0
 1351 003c 5DF8044B 		ldr	r4, [sp], #4
 1352              		.cfi_remember_state
 1353              		.cfi_restore 4
 1354              		.cfi_def_cfa_offset 0
 1355 0040 7047     		bx	lr
 1356              	.LVL113:
 1357              	.L101:
 1358              		.cfi_restore_state
 1359              		.loc 1 1383 0
 1360 0042 8289     		ldrh	r2, [r0, #12]
 1361              	.LVL114:
 1362 0044 1340     		ands	r3, r3, r2
 1363              	.LVL115:
 1364 0046 EAE7     		b	.L96
 1365              		.cfi_endproc
 1366              	.LFE138:
 1367              		.size	USART_GetITStatus, .-USART_GetITStatus
 1368              		.section	.text.USART_ClearITPendingBit,"ax",%progbits
ARM GAS  /tmp/cc7Xux4D.s 			page 25


 1369              		.align	1
 1370              		.p2align 4,,15
 1371              		.global	USART_ClearITPendingBit
 1372              		.syntax unified
 1373              		.thumb
 1374              		.thumb_func
 1375              		.fpu fpv4-sp-d16
 1376              		.type	USART_ClearITPendingBit, %function
 1377              	USART_ClearITPendingBit:
 1378              	.LFB139:
 1379              		.loc 1 1436 0
 1380              		.cfi_startproc
 1381              		@ args = 0, pretend = 0, frame = 0
 1382              		@ frame_needed = 0, uses_anonymous_args = 0
 1383              		@ link register save eliminated.
 1384              	.LVL116:
 1385              		.loc 1 1449 0
 1386 0000 090A     		lsrs	r1, r1, #8
 1387              	.LVL117:
 1388 0002 0123     		movs	r3, #1
 1389 0004 03FA01F1 		lsl	r1, r3, r1
 1390              		.loc 1 1450 0
 1391 0008 C943     		mvns	r1, r1
 1392 000a 89B2     		uxth	r1, r1
 1393 000c 0180     		strh	r1, [r0]	@ movhi
 1394              		.loc 1 1451 0
 1395 000e 7047     		bx	lr
 1396              		.cfi_endproc
 1397              	.LFE139:
 1398              		.size	USART_ClearITPendingBit, .-USART_ClearITPendingBit
 1399              		.text
 1400              	.Letext0:
 1401              		.file 2 "/usr/arm-none-eabi/include/machine/_default_types.h"
 1402              		.file 3 "/usr/arm-none-eabi/include/sys/_stdint.h"
 1403              		.file 4 "ChibiOS_2.6.6/os/hal/platforms/STM32F4xx/stm32f4xx.h"
 1404              		.file 5 "ChibiOS_2.6.6/ext/stdperiph_stm32f4/inc/stm32f4xx_rcc.h"
 1405              		.file 6 "ChibiOS_2.6.6/ext/stdperiph_stm32f4/inc/stm32f4xx_usart.h"
 1406              		.file 7 "ChibiOS_2.6.6/os/ports/common/ARMCMx/CMSIS/include/core_cm4.h"