ARM GAS  /tmp/cchU3bra.s 			page 1


   1              		.cpu cortex-m4
   2              		.eabi_attribute 27, 1
   3              		.eabi_attribute 28, 1
   4              		.eabi_attribute 20, 1
   5              		.eabi_attribute 21, 1
   6              		.eabi_attribute 23, 3
   7              		.eabi_attribute 24, 1
   8              		.eabi_attribute 25, 1
   9              		.eabi_attribute 26, 1
  10              		.eabi_attribute 30, 2
  11              		.eabi_attribute 34, 1
  12              		.eabi_attribute 18, 4
  13              		.file	"stm32f4xx_hash_md5.c"
  14              		.text
  15              	.Ltext0:
  16              		.cfi_sections	.debug_frame
  17              		.section	.text.HASH_MD5,"ax",%progbits
  18              		.align	1
  19              		.p2align 4,,15
  20              		.global	HASH_MD5
  21              		.syntax unified
  22              		.thumb
  23              		.thumb_func
  24              		.fpu fpv4-sp-d16
  25              		.type	HASH_MD5, %function
  26              	HASH_MD5:
  27              	.LFB111:
  28              		.file 1 "ChibiOS_2.6.6/ext/stdperiph_stm32f4/src/stm32f4xx_hash_md5.c"
  29              		.loc 1 94 0
  30              		.cfi_startproc
  31              		@ args = 0, pretend = 0, frame = 48
  32              		@ frame_needed = 0, uses_anonymous_args = 0
  33              	.LVL0:
  34 0000 F0B5     		push	{r4, r5, r6, r7, lr}
  35              		.cfi_def_cfa_offset 20
  36              		.cfi_offset 4, -20
  37              		.cfi_offset 5, -16
  38              		.cfi_offset 6, -12
  39              		.cfi_offset 7, -8
  40              		.cfi_offset 14, -4
  41              		.loc 1 107 0
  42 0002 01F00303 		and	r3, r1, #3
  43              		.loc 1 94 0
  44 0006 8DB0     		sub	sp, sp, #52
  45              		.cfi_def_cfa_offset 72
  46              		.loc 1 107 0
  47 0008 DB00     		lsls	r3, r3, #3
  48              		.loc 1 97 0
  49 000a 0024     		movs	r4, #0
  50              		.loc 1 94 0
  51 000c 0D46     		mov	r5, r1
  52              		.loc 1 97 0
  53 000e ADF80640 		strh	r4, [sp, #6]	@ movhi
  54              	.LVL1:
  55              		.loc 1 94 0
  56 0012 0746     		mov	r7, r0
  57 0014 1646     		mov	r6, r2
ARM GAS  /tmp/cchU3bra.s 			page 2


  58              		.loc 1 99 0
  59 0016 0294     		str	r4, [sp, #8]
  60              	.LVL2:
  61              		.loc 1 107 0
  62 0018 ADF80630 		strh	r3, [sp, #6]	@ movhi
  63              		.loc 1 110 0
  64 001c FFF7FEFF 		bl	HASH_DeInit
  65              	.LVL3:
  66              		.loc 1 113 0
  67 0020 8022     		movs	r2, #128
  68              		.loc 1 115 0
  69 0022 2023     		movs	r3, #32
  70              		.loc 1 116 0
  71 0024 03A8     		add	r0, sp, #12
  72              		.loc 1 114 0
  73 0026 0494     		str	r4, [sp, #16]
  74              		.loc 1 113 0
  75 0028 0392     		str	r2, [sp, #12]
  76              		.loc 1 115 0
  77 002a 0593     		str	r3, [sp, #20]
  78              		.loc 1 116 0
  79 002c FFF7FEFF 		bl	HASH_Init
  80              	.LVL4:
  81              		.loc 1 119 0
  82 0030 BDF80600 		ldrh	r0, [sp, #6]
  83 0034 FFF7FEFF 		bl	HASH_SetLastWordValidBitsNbr
  84              	.LVL5:
  85              		.loc 1 122 0
  86 0038 3DB1     		cbz	r5, .L2
  87              		.loc 1 102 0
  88 003a 3C46     		mov	r4, r7
  89              	.LVL6:
  90              	.L3:
  91              		.loc 1 124 0 discriminator 3
  92 003c 54F8040B 		ldr	r0, [r4], #4
  93              	.LVL7:
  94 0040 FFF7FEFF 		bl	HASH_DataIn
  95              	.LVL8:
  96              		.loc 1 122 0 discriminator 3
  97 0044 E31B     		subs	r3, r4, r7
  98 0046 AB42     		cmp	r3, r5
  99 0048 F8D3     		bcc	.L3
 100              	.LVL9:
 101              	.L2:
 102              		.loc 1 129 0
 103 004a FFF7FEFF 		bl	HASH_StartDigest
 104              	.LVL10:
 105 004e 00E0     		b	.L5
 106              	.LVL11:
 107              	.L16:
 108              		.loc 1 136 0 discriminator 1
 109 0050 68B1     		cbz	r0, .L6
 110              	.LVL12:
 111              	.L5:
 112              		.loc 1 134 0 discriminator 2
 113 0052 0820     		movs	r0, #8
 114 0054 FFF7FEFF 		bl	HASH_GetFlagStatus
ARM GAS  /tmp/cchU3bra.s 			page 3


 115              	.LVL13:
 116              		.loc 1 135 0 discriminator 2
 117 0058 029B     		ldr	r3, [sp, #8]
 118 005a 0133     		adds	r3, r3, #1
 119 005c 0293     		str	r3, [sp, #8]
 120              		.loc 1 136 0 discriminator 2
 121 005e 029B     		ldr	r3, [sp, #8]
 122 0060 B3F5803F 		cmp	r3, #65536
 123 0064 F4D1     		bne	.L16
 124              		.loc 1 138 0
 125 0066 10B1     		cbz	r0, .L6
 126              		.loc 1 140 0
 127 0068 0020     		movs	r0, #0
 128              	.LVL14:
 129              		.loc 1 155 0
 130 006a 0DB0     		add	sp, sp, #52
 131              		.cfi_remember_state
 132              		.cfi_def_cfa_offset 20
 133              		@ sp needed
 134 006c F0BD     		pop	{r4, r5, r6, r7, pc}
 135              	.LVL15:
 136              	.L6:
 137              		.cfi_restore_state
 138              		.loc 1 145 0
 139 006e 07A8     		add	r0, sp, #28
 140              	.LVL16:
 141 0070 FFF7FEFF 		bl	HASH_GetDigest
 142              	.LVL17:
 143              	.LBB18:
 144              	.LBB19:
 145              		.file 2 "ChibiOS_2.6.6/os/ports/common/ARMCMx/CMSIS/include/core_cmInstr.h"
 146              		.loc 2 369 0
 147 0074 079B     		ldr	r3, [sp, #28]
 148              		.syntax unified
 149              	@ 369 "ChibiOS_2.6.6/os/ports/common/ARMCMx/CMSIS/include/core_cmInstr.h" 1
 150 0076 1BBA     		rev r3, r3
 151              	@ 0 "" 2
 152              	.LVL18:
 153              		.thumb
 154              		.syntax unified
 155              	.LBE19:
 156              	.LBE18:
 157              		.loc 1 146 0
 158 0078 3360     		str	r3, [r6]
 159              	.LVL19:
 160              	.LBB20:
 161              	.LBB21:
 162              		.loc 2 369 0
 163 007a 089B     		ldr	r3, [sp, #32]
 164              		.syntax unified
 165              	@ 369 "ChibiOS_2.6.6/os/ports/common/ARMCMx/CMSIS/include/core_cmInstr.h" 1
 166 007c 1BBA     		rev r3, r3
 167              	@ 0 "" 2
 168              	.LVL20:
 169              		.thumb
 170              		.syntax unified
 171              	.LBE21:
ARM GAS  /tmp/cchU3bra.s 			page 4


 172              	.LBE20:
 173              		.loc 1 148 0
 174 007e 7360     		str	r3, [r6, #4]
 175              	.LVL21:
 176              	.LBB22:
 177              	.LBB23:
 178              		.loc 2 369 0
 179 0080 099B     		ldr	r3, [sp, #36]
 180              		.syntax unified
 181              	@ 369 "ChibiOS_2.6.6/os/ports/common/ARMCMx/CMSIS/include/core_cmInstr.h" 1
 182 0082 1BBA     		rev r3, r3
 183              	@ 0 "" 2
 184              	.LVL22:
 185              		.thumb
 186              		.syntax unified
 187              	.LBE23:
 188              	.LBE22:
 189              		.loc 1 150 0
 190 0084 B360     		str	r3, [r6, #8]
 191              	.LVL23:
 192              	.LBB24:
 193              	.LBB25:
 194              		.loc 2 369 0
 195 0086 0A9B     		ldr	r3, [sp, #40]
 196              		.syntax unified
 197              	@ 369 "ChibiOS_2.6.6/os/ports/common/ARMCMx/CMSIS/include/core_cmInstr.h" 1
 198 0088 1BBA     		rev r3, r3
 199              	@ 0 "" 2
 200              	.LVL24:
 201              		.thumb
 202              		.syntax unified
 203              	.LBE25:
 204              	.LBE24:
 205              		.loc 1 101 0
 206 008a 0120     		movs	r0, #1
 207              		.loc 1 152 0
 208 008c F360     		str	r3, [r6, #12]
 209              	.LVL25:
 210              		.loc 1 155 0
 211 008e 0DB0     		add	sp, sp, #52
 212              		.cfi_def_cfa_offset 20
 213              		@ sp needed
 214 0090 F0BD     		pop	{r4, r5, r6, r7, pc}
 215              		.cfi_endproc
 216              	.LFE111:
 217              		.size	HASH_MD5, .-HASH_MD5
 218 0092 00BF     		.section	.text.HMAC_MD5,"ax",%progbits
 219              		.align	1
 220              		.p2align 4,,15
 221              		.global	HMAC_MD5
 222              		.syntax unified
 223              		.thumb
 224              		.thumb_func
 225              		.fpu fpv4-sp-d16
 226              		.type	HMAC_MD5, %function
 227              	HMAC_MD5:
 228              	.LFB112:
ARM GAS  /tmp/cchU3bra.s 			page 5


 229              		.loc 1 170 0
 230              		.cfi_startproc
 231              		@ args = 4, pretend = 0, frame = 48
 232              		@ frame_needed = 0, uses_anonymous_args = 0
 233              	.LVL26:
 234 0000 2DE9F041 		push	{r4, r5, r6, r7, r8, lr}
 235              		.cfi_def_cfa_offset 24
 236              		.cfi_offset 4, -24
 237              		.cfi_offset 5, -20
 238              		.cfi_offset 6, -16
 239              		.cfi_offset 7, -12
 240              		.cfi_offset 8, -8
 241              		.cfi_offset 14, -4
 242 0004 0D46     		mov	r5, r1
 243 0006 8CB0     		sub	sp, sp, #48
 244              		.cfi_def_cfa_offset 72
 245              		.loc 1 184 0
 246 0008 03F00301 		and	r1, r3, #3
 247              	.LVL27:
 248              		.loc 1 170 0
 249 000c 1F46     		mov	r7, r3
 250              		.loc 1 187 0
 251 000e 05F00303 		and	r3, r5, #3
 252              	.LVL28:
 253              		.loc 1 173 0
 254 0012 0024     		movs	r4, #0
 255              		.loc 1 187 0
 256 0014 DB00     		lsls	r3, r3, #3
 257              		.loc 1 184 0
 258 0016 C900     		lsls	r1, r1, #3
 259              		.loc 1 173 0
 260 0018 ADF80440 		strh	r4, [sp, #4]	@ movhi
 261              		.loc 1 170 0
 262 001c 9046     		mov	r8, r2
 263              		.loc 1 174 0
 264 001e ADF80640 		strh	r4, [sp, #6]	@ movhi
 265              	.LVL29:
 266              		.loc 1 170 0
 267 0022 0646     		mov	r6, r0
 268              		.loc 1 176 0
 269 0024 0294     		str	r4, [sp, #8]
 270              	.LVL30:
 271              		.loc 1 184 0
 272 0026 ADF80410 		strh	r1, [sp, #4]	@ movhi
 273              		.loc 1 187 0
 274 002a ADF80630 		strh	r3, [sp, #6]	@ movhi
 275              		.loc 1 190 0
 276 002e FFF7FEFF 		bl	HASH_DeInit
 277              	.LVL31:
 278              		.loc 1 193 0
 279 0032 8023     		movs	r3, #128
 280              		.loc 1 194 0
 281 0034 4022     		movs	r2, #64
 282              		.loc 1 193 0
 283 0036 0393     		str	r3, [sp, #12]
 284              		.loc 1 196 0
 285 0038 9542     		cmp	r5, r2
ARM GAS  /tmp/cchU3bra.s 			page 6


 286              		.loc 1 195 0
 287 003a 4FF02003 		mov	r3, #32
 288 003e CDE90423 		strd	r2, r3, [sp, #16]
 289              		.loc 1 196 0
 290 0042 24D9     		bls	.L18
 291              		.loc 1 199 0
 292 0044 4FF48033 		mov	r3, #65536
 293              		.loc 1 206 0
 294 0048 03A8     		add	r0, sp, #12
 295              		.loc 1 199 0
 296 004a 0693     		str	r3, [sp, #24]
 297              		.loc 1 206 0
 298 004c FFF7FEFF 		bl	HASH_Init
 299              	.LVL32:
 300              		.loc 1 209 0
 301 0050 BDF80600 		ldrh	r0, [sp, #6]
 302 0054 FFF7FEFF 		bl	HASH_SetLastWordValidBitsNbr
 303              	.LVL33:
 304              	.L19:
 305              		.loc 1 170 0 discriminator 3
 306 0058 3446     		mov	r4, r6
 307              	.LVL34:
 308              	.L21:
 309              		.loc 1 214 0 discriminator 3
 310 005a 54F8040B 		ldr	r0, [r4], #4
 311              	.LVL35:
 312 005e FFF7FEFF 		bl	HASH_DataIn
 313              	.LVL36:
 314              		.loc 1 212 0 discriminator 3
 315 0062 A31B     		subs	r3, r4, r6
 316 0064 AB42     		cmp	r3, r5
 317 0066 F8D3     		bcc	.L21
 318              	.LVL37:
 319              	.L20:
 320              		.loc 1 219 0
 321 0068 FFF7FEFF 		bl	HASH_StartDigest
 322              	.LVL38:
 323 006c 00E0     		b	.L23
 324              	.LVL39:
 325              	.L56:
 326              		.loc 1 226 0 discriminator 1
 327 006e C8B1     		cbz	r0, .L24
 328              	.LVL40:
 329              	.L23:
 330              		.loc 1 224 0 discriminator 2
 331 0070 0820     		movs	r0, #8
 332 0072 FFF7FEFF 		bl	HASH_GetFlagStatus
 333              	.LVL41:
 334              		.loc 1 225 0 discriminator 2
 335 0076 029B     		ldr	r3, [sp, #8]
 336 0078 0133     		adds	r3, r3, #1
 337 007a 0293     		str	r3, [sp, #8]
 338              		.loc 1 226 0 discriminator 2
 339 007c 029B     		ldr	r3, [sp, #8]
 340 007e B3F5803F 		cmp	r3, #65536
 341 0082 F4D1     		bne	.L56
 342              		.loc 1 228 0
ARM GAS  /tmp/cchU3bra.s 			page 7


 343 0084 70B1     		cbz	r0, .L24
 344              	.LVL42:
 345              	.L31:
 346              		.loc 1 230 0
 347 0086 0020     		movs	r0, #0
 348              	.LVL43:
 349              	.L25:
 350              		.loc 1 302 0
 351 0088 0CB0     		add	sp, sp, #48
 352              		.cfi_remember_state
 353              		.cfi_def_cfa_offset 24
 354              		@ sp needed
 355 008a BDE8F081 		pop	{r4, r5, r6, r7, r8, pc}
 356              	.LVL44:
 357              	.L18:
 358              		.cfi_restore_state
 359              		.loc 1 206 0
 360 008e 03A8     		add	r0, sp, #12
 361              		.loc 1 204 0
 362 0090 0694     		str	r4, [sp, #24]
 363              		.loc 1 206 0
 364 0092 FFF7FEFF 		bl	HASH_Init
 365              	.LVL45:
 366              		.loc 1 209 0
 367 0096 BDF80600 		ldrh	r0, [sp, #6]
 368 009a FFF7FEFF 		bl	HASH_SetLastWordValidBitsNbr
 369              	.LVL46:
 370              		.loc 1 212 0
 371 009e 002D     		cmp	r5, #0
 372 00a0 DAD1     		bne	.L19
 373 00a2 E1E7     		b	.L20
 374              	.LVL47:
 375              	.L24:
 376              		.loc 1 235 0
 377 00a4 BDF80400 		ldrh	r0, [sp, #4]
 378              	.LVL48:
 379 00a8 FFF7FEFF 		bl	HASH_SetLastWordValidBitsNbr
 380              	.LVL49:
 381              		.loc 1 238 0
 382 00ac 47B1     		cbz	r7, .L26
 383              		.loc 1 180 0
 384 00ae 4446     		mov	r4, r8
 385              	.LVL50:
 386              	.L27:
 387              		.loc 1 240 0 discriminator 3
 388 00b0 54F8040B 		ldr	r0, [r4], #4
 389              	.LVL51:
 390 00b4 FFF7FEFF 		bl	HASH_DataIn
 391              	.LVL52:
 392              		.loc 1 238 0 discriminator 3
 393 00b8 A4EB0803 		sub	r3, r4, r8
 394 00bc BB42     		cmp	r3, r7
 395 00be F7D3     		bcc	.L27
 396              	.LVL53:
 397              	.L26:
 398              		.loc 1 245 0
 399 00c0 FFF7FEFF 		bl	HASH_StartDigest
ARM GAS  /tmp/cchU3bra.s 			page 8


 400              	.LVL54:
 401              		.loc 1 248 0
 402 00c4 0023     		movs	r3, #0
 403 00c6 0293     		str	r3, [sp, #8]
 404 00c8 00E0     		b	.L29
 405              	.LVL55:
 406              	.L57:
 407              		.loc 1 253 0 discriminator 1
 408 00ca 58B1     		cbz	r0, .L30
 409              	.LVL56:
 410              	.L29:
 411              		.loc 1 251 0 discriminator 2
 412 00cc 0820     		movs	r0, #8
 413 00ce FFF7FEFF 		bl	HASH_GetFlagStatus
 414              	.LVL57:
 415              		.loc 1 252 0 discriminator 2
 416 00d2 029B     		ldr	r3, [sp, #8]
 417 00d4 0133     		adds	r3, r3, #1
 418 00d6 0293     		str	r3, [sp, #8]
 419              		.loc 1 253 0 discriminator 2
 420 00d8 029B     		ldr	r3, [sp, #8]
 421 00da B3F5803F 		cmp	r3, #65536
 422 00de F4D1     		bne	.L57
 423              		.loc 1 255 0
 424 00e0 0028     		cmp	r0, #0
 425 00e2 D0D1     		bne	.L31
 426              	.L30:
 427              		.loc 1 262 0
 428 00e4 BDF80600 		ldrh	r0, [sp, #6]
 429              	.LVL58:
 430 00e8 FFF7FEFF 		bl	HASH_SetLastWordValidBitsNbr
 431              	.LVL59:
 432              		.loc 1 266 0
 433 00ec 3DB1     		cbz	r5, .L32
 434              		.loc 1 265 0
 435 00ee 3446     		mov	r4, r6
 436              	.LVL60:
 437              	.L33:
 438              		.loc 1 268 0 discriminator 3
 439 00f0 54F8040B 		ldr	r0, [r4], #4
 440              	.LVL61:
 441 00f4 FFF7FEFF 		bl	HASH_DataIn
 442              	.LVL62:
 443              		.loc 1 266 0 discriminator 3
 444 00f8 A31B     		subs	r3, r4, r6
 445 00fa AB42     		cmp	r3, r5
 446 00fc F8D3     		bcc	.L33
 447              	.LVL63:
 448              	.L32:
 449              		.loc 1 273 0
 450 00fe FFF7FEFF 		bl	HASH_StartDigest
 451              	.LVL64:
 452              		.loc 1 276 0
 453 0102 0023     		movs	r3, #0
 454 0104 0293     		str	r3, [sp, #8]
 455 0106 00E0     		b	.L35
 456              	.LVL65:
ARM GAS  /tmp/cchU3bra.s 			page 9


 457              	.L58:
 458              		.loc 1 281 0 discriminator 1
 459 0108 58B1     		cbz	r0, .L36
 460              	.LVL66:
 461              	.L35:
 462              		.loc 1 279 0 discriminator 2
 463 010a 0820     		movs	r0, #8
 464 010c FFF7FEFF 		bl	HASH_GetFlagStatus
 465              	.LVL67:
 466              		.loc 1 280 0 discriminator 2
 467 0110 029B     		ldr	r3, [sp, #8]
 468 0112 0133     		adds	r3, r3, #1
 469 0114 0293     		str	r3, [sp, #8]
 470              		.loc 1 281 0 discriminator 2
 471 0116 029B     		ldr	r3, [sp, #8]
 472 0118 B3F5803F 		cmp	r3, #65536
 473 011c F4D1     		bne	.L58
 474              		.loc 1 283 0
 475 011e 0028     		cmp	r0, #0
 476 0120 B1D1     		bne	.L31
 477              	.L36:
 478              		.loc 1 290 0
 479 0122 07A8     		add	r0, sp, #28
 480              	.LVL68:
 481 0124 FFF7FEFF 		bl	HASH_GetDigest
 482              	.LVL69:
 483              	.LBB26:
 484              	.LBB27:
 485              		.loc 2 369 0
 486 0128 079B     		ldr	r3, [sp, #28]
 487              		.syntax unified
 488              	@ 369 "ChibiOS_2.6.6/os/ports/common/ARMCMx/CMSIS/include/core_cmInstr.h" 1
 489 012a 1BBA     		rev r3, r3
 490              	@ 0 "" 2
 491              	.LVL70:
 492              		.thumb
 493              		.syntax unified
 494              	.LBE27:
 495              	.LBE26:
 496              		.loc 1 291 0
 497 012c 129A     		ldr	r2, [sp, #72]
 498 012e 1360     		str	r3, [r2]
 499              	.LVL71:
 500              	.LBB28:
 501              	.LBB29:
 502              		.loc 2 369 0
 503 0130 089B     		ldr	r3, [sp, #32]
 504              		.syntax unified
 505              	@ 369 "ChibiOS_2.6.6/os/ports/common/ARMCMx/CMSIS/include/core_cmInstr.h" 1
 506 0132 1BBA     		rev r3, r3
 507              	@ 0 "" 2
 508              	.LVL72:
 509              		.thumb
 510              		.syntax unified
 511              	.LBE29:
 512              	.LBE28:
 513              		.loc 1 293 0
ARM GAS  /tmp/cchU3bra.s 			page 10


 514 0134 5360     		str	r3, [r2, #4]
 515              	.LVL73:
 516              	.LBB30:
 517              	.LBB31:
 518              		.loc 2 369 0
 519 0136 099B     		ldr	r3, [sp, #36]
 520              		.syntax unified
 521              	@ 369 "ChibiOS_2.6.6/os/ports/common/ARMCMx/CMSIS/include/core_cmInstr.h" 1
 522 0138 1BBA     		rev r3, r3
 523              	@ 0 "" 2
 524              	.LVL74:
 525              		.thumb
 526              		.syntax unified
 527              	.LBE31:
 528              	.LBE30:
 529              		.loc 1 295 0
 530 013a 9360     		str	r3, [r2, #8]
 531              	.LVL75:
 532              	.LBB32:
 533              	.LBB33:
 534              		.loc 2 369 0
 535 013c 0A9B     		ldr	r3, [sp, #40]
 536              		.syntax unified
 537              	@ 369 "ChibiOS_2.6.6/os/ports/common/ARMCMx/CMSIS/include/core_cmInstr.h" 1
 538 013e 1BBA     		rev r3, r3
 539              	@ 0 "" 2
 540              	.LVL76:
 541              		.thumb
 542              		.syntax unified
 543              	.LBE33:
 544              	.LBE32:
 545              		.loc 1 178 0
 546 0140 0120     		movs	r0, #1
 547              		.loc 1 297 0
 548 0142 D360     		str	r3, [r2, #12]
 549 0144 A0E7     		b	.L25
 550              		.cfi_endproc
 551              	.LFE112:
 552              		.size	HMAC_MD5, .-HMAC_MD5
 553 0146 00BF     		.text
 554              	.Letext0:
 555              		.file 3 "/usr/arm-none-eabi/include/machine/_default_types.h"
 556              		.file 4 "/usr/arm-none-eabi/include/sys/_stdint.h"
 557              		.file 5 "ChibiOS_2.6.6/os/hal/platforms/STM32F4xx/stm32f4xx.h"
 558              		.file 6 "ChibiOS_2.6.6/ext/stdperiph_stm32f4/inc/stm32f4xx_hash.h"
 559              		.file 7 "ChibiOS_2.6.6/os/ports/common/ARMCMx/CMSIS/include/core_cm4.h"