ARM GAS  /tmp/ccHl477X.s 			page 1


   1              		.cpu cortex-m4
   2              		.eabi_attribute 27, 1
   3              		.eabi_attribute 28, 1
   4              		.eabi_attribute 20, 1
   5              		.eabi_attribute 21, 1
   6              		.eabi_attribute 23, 3
   7              		.eabi_attribute 24, 1
   8              		.eabi_attribute 25, 1
   9              		.eabi_attribute 26, 1
  10              		.eabi_attribute 30, 2
  11              		.eabi_attribute 34, 1
  12              		.eabi_attribute 18, 4
  13              		.file	"stm32f4xx_adc.c"
  14              		.text
  15              	.Ltext0:
  16              		.cfi_sections	.debug_frame
  17              		.section	.text.ADC_DeInit,"ax",%progbits
  18              		.align	1
  19              		.p2align 4,,15
  20              		.global	ADC_DeInit
  21              		.syntax unified
  22              		.thumb
  23              		.thumb_func
  24              		.fpu fpv4-sp-d16
  25              		.type	ADC_DeInit, %function
  26              	ADC_DeInit:
  27              	.LFB111:
  28              		.file 1 "ChibiOS_2.6.6/ext/stdperiph_stm32f4/src/stm32f4xx_adc.c"
  29              		.loc 1 213 0
  30              		.cfi_startproc
  31              		@ args = 0, pretend = 0, frame = 0
  32              		@ frame_needed = 0, uses_anonymous_args = 0
  33 0000 08B5     		push	{r3, lr}
  34              		.cfi_def_cfa_offset 8
  35              		.cfi_offset 3, -8
  36              		.cfi_offset 14, -4
  37              		.loc 1 215 0
  38 0002 0121     		movs	r1, #1
  39 0004 4FF48070 		mov	r0, #256
  40 0008 FFF7FEFF 		bl	RCC_APB2PeriphResetCmd
  41              	.LVL0:
  42              		.loc 1 218 0
  43 000c 0021     		movs	r1, #0
  44 000e 4FF48070 		mov	r0, #256
  45              		.loc 1 219 0
  46 0012 BDE80840 		pop	{r3, lr}
  47              		.cfi_restore 14
  48              		.cfi_restore 3
  49              		.cfi_def_cfa_offset 0
  50              		.loc 1 218 0
  51 0016 FFF7FEBF 		b	RCC_APB2PeriphResetCmd
  52              	.LVL1:
  53              		.cfi_endproc
  54              	.LFE111:
  55              		.size	ADC_DeInit, .-ADC_DeInit
  56 001a 00BF     		.section	.text.ADC_Init,"ax",%progbits
  57              		.align	1
ARM GAS  /tmp/ccHl477X.s 			page 2


  58              		.p2align 4,,15
  59              		.global	ADC_Init
  60              		.syntax unified
  61              		.thumb
  62              		.thumb_func
  63              		.fpu fpv4-sp-d16
  64              		.type	ADC_Init, %function
  65              	ADC_Init:
  66              	.LFB112:
  67              		.loc 1 235 0
  68              		.cfi_startproc
  69              		@ args = 0, pretend = 0, frame = 0
  70              		@ frame_needed = 0, uses_anonymous_args = 0
  71              		@ link register save eliminated.
  72              	.LVL2:
  73              		.loc 1 250 0
  74 0000 4268     		ldr	r2, [r0, #4]
  75              	.LVL3:
  76 0002 0B69     		ldr	r3, [r1, #16]
  77              		.loc 1 235 0
  78 0004 70B4     		push	{r4, r5, r6}
  79              		.cfi_def_cfa_offset 12
  80              		.cfi_offset 4, -12
  81              		.cfi_offset 5, -8
  82              		.cfi_offset 6, -4
  83              		.loc 1 253 0
  84 0006 22F04072 		bic	r2, r2, #50331648
  85              	.LVL4:
  86              		.loc 1 258 0
  87 000a 0E79     		ldrb	r6, [r1, #4]	@ zero_extendqisi2
  88 000c 0D68     		ldr	r5, [r1]
  89 000e 8C68     		ldr	r4, [r1, #8]
  90              		.loc 1 253 0
  91 0010 22F48072 		bic	r2, r2, #256
  92 0014 42EA0622 		orr	r2, r2, r6, lsl #8
  93              		.loc 1 258 0
  94 0018 2A43     		orrs	r2, r2, r5
  95              	.LVL5:
  96              		.loc 1 261 0
  97 001a 4260     		str	r2, [r0, #4]
  98 001c CE68     		ldr	r6, [r1, #12]
  99              		.loc 1 264 0
 100 001e 8568     		ldr	r5, [r0, #8]
 101              	.LVL6:
 102              		.loc 1 267 0
 103 0020 094A     		ldr	r2, .L6
 104 0022 3343     		orrs	r3, r3, r6
 105 0024 2A40     		ands	r2, r2, r5
 106              	.LVL7:
 107 0026 2343     		orrs	r3, r3, r4
 108              		.loc 1 278 0
 109 0028 4C79     		ldrb	r4, [r1, #5]	@ zero_extendqisi2
 110 002a 1343     		orrs	r3, r3, r2
 111              		.loc 1 275 0
 112 002c 43EA4403 		orr	r3, r3, r4, lsl #1
 113              	.LVL8:
 114              		.loc 1 281 0
ARM GAS  /tmp/ccHl477X.s 			page 3


 115 0030 8360     		str	r3, [r0, #8]
 116              		.loc 1 291 0
 117 0032 0A7D     		ldrb	r2, [r1, #20]	@ zero_extendqisi2
 118              		.loc 1 284 0
 119 0034 C36A     		ldr	r3, [r0, #44]
 120              	.LVL9:
 121              		.loc 1 291 0
 122 0036 013A     		subs	r2, r2, #1
 123              		.loc 1 292 0
 124 0038 D2B2     		uxtb	r2, r2
 125              		.loc 1 287 0
 126 003a 23F47003 		bic	r3, r3, #15728640
 127              	.LVL10:
 128              		.loc 1 292 0
 129 003e 43EA0253 		orr	r3, r3, r2, lsl #20
 130              	.LVL11:
 131              		.loc 1 295 0
 132 0042 C362     		str	r3, [r0, #44]
 133              	.LVL12:
 134              		.loc 1 296 0
 135 0044 70BC     		pop	{r4, r5, r6}
 136              		.cfi_restore 6
 137              		.cfi_restore 5
 138              		.cfi_restore 4
 139              		.cfi_def_cfa_offset 0
 140 0046 7047     		bx	lr
 141              	.L7:
 142              		.align	2
 143              	.L6:
 144 0048 FDF7FFC0 		.word	-1056966659
 145              		.cfi_endproc
 146              	.LFE112:
 147              		.size	ADC_Init, .-ADC_Init
 148              		.section	.text.ADC_StructInit,"ax",%progbits
 149              		.align	1
 150              		.p2align 4,,15
 151              		.global	ADC_StructInit
 152              		.syntax unified
 153              		.thumb
 154              		.thumb_func
 155              		.fpu fpv4-sp-d16
 156              		.type	ADC_StructInit, %function
 157              	ADC_StructInit:
 158              	.LFB113:
 159              		.loc 1 310 0
 160              		.cfi_startproc
 161              		@ args = 0, pretend = 0, frame = 0
 162              		@ frame_needed = 0, uses_anonymous_args = 0
 163              		@ link register save eliminated.
 164              	.LVL13:
 165              		.loc 1 312 0
 166 0000 0023     		movs	r3, #0
 167              		.loc 1 330 0
 168 0002 0122     		movs	r2, #1
 169 0004 0275     		strb	r2, [r0, #20]
 170              		.loc 1 312 0
 171 0006 0360     		str	r3, [r0]
ARM GAS  /tmp/ccHl477X.s 			page 4


 172              		.loc 1 315 0
 173 0008 0371     		strb	r3, [r0, #4]
 174              		.loc 1 318 0
 175 000a 4371     		strb	r3, [r0, #5]
 176              		.loc 1 324 0
 177 000c C0E90233 		strd	r3, r3, [r0, #8]
 178              		.loc 1 327 0
 179 0010 0361     		str	r3, [r0, #16]
 180              		.loc 1 331 0
 181 0012 7047     		bx	lr
 182              		.cfi_endproc
 183              	.LFE113:
 184              		.size	ADC_StructInit, .-ADC_StructInit
 185              		.section	.text.ADC_CommonInit,"ax",%progbits
 186              		.align	1
 187              		.p2align 4,,15
 188              		.global	ADC_CommonInit
 189              		.syntax unified
 190              		.thumb
 191              		.thumb_func
 192              		.fpu fpv4-sp-d16
 193              		.type	ADC_CommonInit, %function
 194              	ADC_CommonInit:
 195              	.LFB114:
 196              		.loc 1 341 0
 197              		.cfi_startproc
 198              		@ args = 0, pretend = 0, frame = 0
 199              		@ frame_needed = 0, uses_anonymous_args = 0
 200              		@ link register save eliminated.
 201              	.LVL14:
 202              		.loc 1 350 0
 203 0000 0749     		ldr	r1, .L11
 204              		.loc 1 353 0
 205 0002 084A     		ldr	r2, .L11+4
 206              		.loc 1 341 0
 207 0004 30B4     		push	{r4, r5}
 208              		.cfi_def_cfa_offset 8
 209              		.cfi_offset 4, -8
 210              		.cfi_offset 5, -4
 211              		.loc 1 361 0
 212 0006 D0E90035 		ldrd	r3, r5, [r0]
 213              		.loc 1 350 0
 214 000a 4C68     		ldr	r4, [r1, #4]
 215              	.LVL15:
 216              		.loc 1 353 0
 217 000c 2240     		ands	r2, r2, r4
 218              	.LVL16:
 219              		.loc 1 361 0
 220 000e D0E90240 		ldrd	r4, r0, [r0, #8]
 221              	.LVL17:
 222 0012 2B43     		orrs	r3, r3, r5
 223 0014 1343     		orrs	r3, r3, r2
 224 0016 2343     		orrs	r3, r3, r4
 225 0018 0343     		orrs	r3, r3, r0
 226              	.LVL18:
 227              		.loc 1 367 0
 228 001a 4B60     		str	r3, [r1, #4]
ARM GAS  /tmp/ccHl477X.s 			page 5


 229              		.loc 1 368 0
 230 001c 30BC     		pop	{r4, r5}
 231              		.cfi_restore 5
 232              		.cfi_restore 4
 233              		.cfi_def_cfa_offset 0
 234 001e 7047     		bx	lr
 235              	.L12:
 236              		.align	2
 237              	.L11:
 238 0020 00230140 		.word	1073816320
 239 0024 E030FCFF 		.word	-249632
 240              		.cfi_endproc
 241              	.LFE114:
 242              		.size	ADC_CommonInit, .-ADC_CommonInit
 243              		.section	.text.ADC_CommonStructInit,"ax",%progbits
 244              		.align	1
 245              		.p2align 4,,15
 246              		.global	ADC_CommonStructInit
 247              		.syntax unified
 248              		.thumb
 249              		.thumb_func
 250              		.fpu fpv4-sp-d16
 251              		.type	ADC_CommonStructInit, %function
 252              	ADC_CommonStructInit:
 253              	.LFB115:
 254              		.loc 1 377 0
 255              		.cfi_startproc
 256              		@ args = 0, pretend = 0, frame = 0
 257              		@ frame_needed = 0, uses_anonymous_args = 0
 258              		@ link register save eliminated.
 259              	.LVL19:
 260              		.loc 1 379 0
 261 0000 0023     		movs	r3, #0
 262              		.loc 1 382 0
 263 0002 C0E90033 		strd	r3, r3, [r0]
 264              		.loc 1 388 0
 265 0006 C0E90233 		strd	r3, r3, [r0, #8]
 266              		.loc 1 389 0
 267 000a 7047     		bx	lr
 268              		.cfi_endproc
 269              	.LFE115:
 270              		.size	ADC_CommonStructInit, .-ADC_CommonStructInit
 271              		.section	.text.ADC_Cmd,"ax",%progbits
 272              		.align	1
 273              		.p2align 4,,15
 274              		.global	ADC_Cmd
 275              		.syntax unified
 276              		.thumb
 277              		.thumb_func
 278              		.fpu fpv4-sp-d16
 279              		.type	ADC_Cmd, %function
 280              	ADC_Cmd:
 281              	.LFB116:
 282              		.loc 1 399 0
 283              		.cfi_startproc
 284              		@ args = 0, pretend = 0, frame = 0
 285              		@ frame_needed = 0, uses_anonymous_args = 0
ARM GAS  /tmp/ccHl477X.s 			page 6


 286              		@ link register save eliminated.
 287              	.LVL20:
 288              		.loc 1 406 0
 289 0000 8368     		ldr	r3, [r0, #8]
 290              		.loc 1 403 0
 291 0002 19B9     		cbnz	r1, .L17
 292              		.loc 1 411 0
 293 0004 23F00103 		bic	r3, r3, #1
 294 0008 8360     		str	r3, [r0, #8]
 295              		.loc 1 413 0
 296 000a 7047     		bx	lr
 297              	.L17:
 298              		.loc 1 406 0
 299 000c 43F00103 		orr	r3, r3, #1
 300 0010 8360     		str	r3, [r0, #8]
 301 0012 7047     		bx	lr
 302              		.cfi_endproc
 303              	.LFE116:
 304              		.size	ADC_Cmd, .-ADC_Cmd
 305              		.section	.text.ADC_AnalogWatchdogCmd,"ax",%progbits
 306              		.align	1
 307              		.p2align 4,,15
 308              		.global	ADC_AnalogWatchdogCmd
 309              		.syntax unified
 310              		.thumb
 311              		.thumb_func
 312              		.fpu fpv4-sp-d16
 313              		.type	ADC_AnalogWatchdogCmd, %function
 314              	ADC_AnalogWatchdogCmd:
 315              	.LFB117:
 316              		.loc 1 457 0
 317              		.cfi_startproc
 318              		@ args = 0, pretend = 0, frame = 0
 319              		@ frame_needed = 0, uses_anonymous_args = 0
 320              		@ link register save eliminated.
 321              	.LVL21:
 322              		.loc 1 464 0
 323 0000 4368     		ldr	r3, [r0, #4]
 324              	.LVL22:
 325              		.loc 1 467 0
 326 0002 23F44003 		bic	r3, r3, #12582912
 327              	.LVL23:
 328 0006 23F40073 		bic	r3, r3, #512
 329              	.LVL24:
 330              		.loc 1 470 0
 331 000a 1943     		orrs	r1, r1, r3
 332              	.LVL25:
 333              		.loc 1 473 0
 334 000c 4160     		str	r1, [r0, #4]
 335              		.loc 1 474 0
 336 000e 7047     		bx	lr
 337              		.cfi_endproc
 338              	.LFE117:
 339              		.size	ADC_AnalogWatchdogCmd, .-ADC_AnalogWatchdogCmd
 340              		.section	.text.ADC_AnalogWatchdogThresholdsConfig,"ax",%progbits
 341              		.align	1
 342              		.p2align 4,,15
ARM GAS  /tmp/ccHl477X.s 			page 7


 343              		.global	ADC_AnalogWatchdogThresholdsConfig
 344              		.syntax unified
 345              		.thumb
 346              		.thumb_func
 347              		.fpu fpv4-sp-d16
 348              		.type	ADC_AnalogWatchdogThresholdsConfig, %function
 349              	ADC_AnalogWatchdogThresholdsConfig:
 350              	.LFB118:
 351              		.loc 1 487 0
 352              		.cfi_startproc
 353              		@ args = 0, pretend = 0, frame = 0
 354              		@ frame_needed = 0, uses_anonymous_args = 0
 355              		@ link register save eliminated.
 356              	.LVL26:
 357              		.loc 1 494 0
 358 0000 4162     		str	r1, [r0, #36]
 359              		.loc 1 497 0
 360 0002 8262     		str	r2, [r0, #40]
 361              		.loc 1 498 0
 362 0004 7047     		bx	lr
 363              		.cfi_endproc
 364              	.LFE118:
 365              		.size	ADC_AnalogWatchdogThresholdsConfig, .-ADC_AnalogWatchdogThresholdsConfig
 366 0006 00BF     		.section	.text.ADC_AnalogWatchdogSingleChannelConfig,"ax",%progbits
 367              		.align	1
 368              		.p2align 4,,15
 369              		.global	ADC_AnalogWatchdogSingleChannelConfig
 370              		.syntax unified
 371              		.thumb
 372              		.thumb_func
 373              		.fpu fpv4-sp-d16
 374              		.type	ADC_AnalogWatchdogSingleChannelConfig, %function
 375              	ADC_AnalogWatchdogSingleChannelConfig:
 376              	.LFB119:
 377              		.loc 1 527 0
 378              		.cfi_startproc
 379              		@ args = 0, pretend = 0, frame = 0
 380              		@ frame_needed = 0, uses_anonymous_args = 0
 381              		@ link register save eliminated.
 382              	.LVL27:
 383              		.loc 1 534 0
 384 0000 4368     		ldr	r3, [r0, #4]
 385              	.LVL28:
 386              		.loc 1 537 0
 387 0002 23F01F03 		bic	r3, r3, #31
 388              	.LVL29:
 389              		.loc 1 540 0
 390 0006 1943     		orrs	r1, r1, r3
 391              	.LVL30:
 392              		.loc 1 543 0
 393 0008 4160     		str	r1, [r0, #4]
 394              		.loc 1 544 0
 395 000a 7047     		bx	lr
 396              		.cfi_endproc
 397              	.LFE119:
 398              		.size	ADC_AnalogWatchdogSingleChannelConfig, .-ADC_AnalogWatchdogSingleChannelConfig
 399              		.section	.text.ADC_TempSensorVrefintCmd,"ax",%progbits
ARM GAS  /tmp/ccHl477X.s 			page 8


 400              		.align	1
 401              		.p2align 4,,15
 402              		.global	ADC_TempSensorVrefintCmd
 403              		.syntax unified
 404              		.thumb
 405              		.thumb_func
 406              		.fpu fpv4-sp-d16
 407              		.type	ADC_TempSensorVrefintCmd, %function
 408              	ADC_TempSensorVrefintCmd:
 409              	.LFB120:
 410              		.loc 1 592 0
 411              		.cfi_startproc
 412              		@ args = 0, pretend = 0, frame = 0
 413              		@ frame_needed = 0, uses_anonymous_args = 0
 414              		@ link register save eliminated.
 415              	.LVL31:
 416              		.loc 1 598 0
 417 0000 054A     		ldr	r2, .L25
 418 0002 5368     		ldr	r3, [r2, #4]
 419              		.loc 1 595 0
 420 0004 18B9     		cbnz	r0, .L24
 421              		.loc 1 603 0
 422 0006 23F40003 		bic	r3, r3, #8388608
 423 000a 5360     		str	r3, [r2, #4]
 424              		.loc 1 605 0
 425 000c 7047     		bx	lr
 426              	.L24:
 427              		.loc 1 598 0
 428 000e 43F40003 		orr	r3, r3, #8388608
 429 0012 5360     		str	r3, [r2, #4]
 430 0014 7047     		bx	lr
 431              	.L26:
 432 0016 00BF     		.align	2
 433              	.L25:
 434 0018 00230140 		.word	1073816320
 435              		.cfi_endproc
 436              	.LFE120:
 437              		.size	ADC_TempSensorVrefintCmd, .-ADC_TempSensorVrefintCmd
 438              		.section	.text.ADC_VBATCmd,"ax",%progbits
 439              		.align	1
 440              		.p2align 4,,15
 441              		.global	ADC_VBATCmd
 442              		.syntax unified
 443              		.thumb
 444              		.thumb_func
 445              		.fpu fpv4-sp-d16
 446              		.type	ADC_VBATCmd, %function
 447              	ADC_VBATCmd:
 448              	.LFB121:
 449              		.loc 1 614 0
 450              		.cfi_startproc
 451              		@ args = 0, pretend = 0, frame = 0
 452              		@ frame_needed = 0, uses_anonymous_args = 0
 453              		@ link register save eliminated.
 454              	.LVL32:
 455              		.loc 1 620 0
 456 0000 054A     		ldr	r2, .L31
ARM GAS  /tmp/ccHl477X.s 			page 9


 457 0002 5368     		ldr	r3, [r2, #4]
 458              		.loc 1 617 0
 459 0004 18B9     		cbnz	r0, .L30
 460              		.loc 1 625 0
 461 0006 23F48003 		bic	r3, r3, #4194304
 462 000a 5360     		str	r3, [r2, #4]
 463              		.loc 1 627 0
 464 000c 7047     		bx	lr
 465              	.L30:
 466              		.loc 1 620 0
 467 000e 43F48003 		orr	r3, r3, #4194304
 468 0012 5360     		str	r3, [r2, #4]
 469 0014 7047     		bx	lr
 470              	.L32:
 471 0016 00BF     		.align	2
 472              	.L31:
 473 0018 00230140 		.word	1073816320
 474              		.cfi_endproc
 475              	.LFE121:
 476              		.size	ADC_VBATCmd, .-ADC_VBATCmd
 477              		.section	.text.ADC_RegularChannelConfig,"ax",%progbits
 478              		.align	1
 479              		.p2align 4,,15
 480              		.global	ADC_RegularChannelConfig
 481              		.syntax unified
 482              		.thumb
 483              		.thumb_func
 484              		.fpu fpv4-sp-d16
 485              		.type	ADC_RegularChannelConfig, %function
 486              	ADC_RegularChannelConfig:
 487              	.LFB122:
 488              		.loc 1 715 0
 489              		.cfi_startproc
 490              		@ args = 0, pretend = 0, frame = 0
 491              		@ frame_needed = 0, uses_anonymous_args = 0
 492              		@ link register save eliminated.
 493              	.LVL33:
 494              		.loc 1 724 0
 495 0000 0929     		cmp	r1, #9
 496              		.loc 1 715 0
 497 0002 70B4     		push	{r4, r5, r6}
 498              		.cfi_def_cfa_offset 12
 499              		.cfi_offset 4, -12
 500              		.cfi_offset 5, -8
 501              		.cfi_offset 6, -4
 502              		.loc 1 724 0
 503 0004 1CD9     		bls	.L34
 504              		.loc 1 730 0
 505 0006 A1F10A04 		sub	r4, r1, #10
 506 000a 04EB4404 		add	r4, r4, r4, lsl #1
 507              		.loc 1 727 0
 508 000e C568     		ldr	r5, [r0, #12]
 509              	.LVL34:
 510              		.loc 1 730 0
 511 0010 0726     		movs	r6, #7
 512 0012 A640     		lsls	r6, r6, r4
 513              	.LVL35:
ARM GAS  /tmp/ccHl477X.s 			page 10


 514              		.loc 1 736 0
 515 0014 A340     		lsls	r3, r3, r4
 516              	.LVL36:
 517              		.loc 1 733 0
 518 0016 25EA0604 		bic	r4, r5, r6
 519              	.LVL37:
 520              		.loc 1 739 0
 521 001a 2343     		orrs	r3, r3, r4
 522              	.LVL38:
 523              		.loc 1 765 0
 524 001c 062A     		cmp	r2, #6
 525              		.loc 1 742 0
 526 001e C360     		str	r3, [r0, #12]
 527              		.loc 1 765 0
 528 0020 1AD9     		bls	.L40
 529              	.L36:
 530              		.loc 1 786 0
 531 0022 0C2A     		cmp	r2, #12
 532 0024 25D9     		bls	.L41
 533              		.loc 1 813 0
 534 0026 0D3A     		subs	r2, r2, #13
 535              	.LVL39:
 536 0028 02EB8202 		add	r2, r2, r2, lsl #2
 537              		.loc 1 810 0
 538 002c C36A     		ldr	r3, [r0, #44]
 539              	.LVL40:
 540              		.loc 1 813 0
 541 002e 1F24     		movs	r4, #31
 542 0030 9440     		lsls	r4, r4, r2
 543              	.LVL41:
 544              		.loc 1 819 0
 545 0032 9140     		lsls	r1, r1, r2
 546              	.LVL42:
 547              		.loc 1 816 0
 548 0034 23EA0402 		bic	r2, r3, r4
 549              	.LVL43:
 550              		.loc 1 822 0
 551 0038 1143     		orrs	r1, r1, r2
 552              	.LVL44:
 553              		.loc 1 825 0
 554 003a C162     		str	r1, [r0, #44]
 555              		.loc 1 827 0
 556 003c 70BC     		pop	{r4, r5, r6}
 557              		.cfi_remember_state
 558              		.cfi_restore 6
 559              		.cfi_restore 5
 560              		.cfi_restore 4
 561              		.cfi_def_cfa_offset 0
 562 003e 7047     		bx	lr
 563              	.LVL45:
 564              	.L34:
 565              		.cfi_restore_state
 566              		.loc 1 750 0
 567 0040 01EB4106 		add	r6, r1, r1, lsl #1
 568              		.loc 1 747 0
 569 0044 0469     		ldr	r4, [r0, #16]
 570              	.LVL46:
ARM GAS  /tmp/ccHl477X.s 			page 11


 571              		.loc 1 750 0
 572 0046 0725     		movs	r5, #7
 573 0048 B540     		lsls	r5, r5, r6
 574              	.LVL47:
 575              		.loc 1 756 0
 576 004a B340     		lsls	r3, r3, r6
 577              	.LVL48:
 578              		.loc 1 753 0
 579 004c 24EA0504 		bic	r4, r4, r5
 580              	.LVL49:
 581              		.loc 1 759 0
 582 0050 2343     		orrs	r3, r3, r4
 583              	.LVL50:
 584              		.loc 1 765 0
 585 0052 062A     		cmp	r2, #6
 586              		.loc 1 762 0
 587 0054 0361     		str	r3, [r0, #16]
 588              		.loc 1 765 0
 589 0056 E4D8     		bhi	.L36
 590              	.L40:
 591              		.loc 1 771 0
 592 0058 013A     		subs	r2, r2, #1
 593              	.LVL51:
 594 005a 02EB8202 		add	r2, r2, r2, lsl #2
 595              		.loc 1 768 0
 596 005e 436B     		ldr	r3, [r0, #52]
 597              	.LVL52:
 598              		.loc 1 771 0
 599 0060 1F24     		movs	r4, #31
 600 0062 9440     		lsls	r4, r4, r2
 601              	.LVL53:
 602              		.loc 1 777 0
 603 0064 9140     		lsls	r1, r1, r2
 604              	.LVL54:
 605              		.loc 1 774 0
 606 0066 23EA0402 		bic	r2, r3, r4
 607              	.LVL55:
 608              		.loc 1 780 0
 609 006a 1143     		orrs	r1, r1, r2
 610              	.LVL56:
 611              		.loc 1 783 0
 612 006c 4163     		str	r1, [r0, #52]
 613              		.loc 1 827 0
 614 006e 70BC     		pop	{r4, r5, r6}
 615              		.cfi_remember_state
 616              		.cfi_restore 6
 617              		.cfi_restore 5
 618              		.cfi_restore 4
 619              		.cfi_def_cfa_offset 0
 620 0070 7047     		bx	lr
 621              	.LVL57:
 622              	.L41:
 623              		.cfi_restore_state
 624              		.loc 1 792 0
 625 0072 073A     		subs	r2, r2, #7
 626              	.LVL58:
 627 0074 02EB8202 		add	r2, r2, r2, lsl #2
ARM GAS  /tmp/ccHl477X.s 			page 12


 628              		.loc 1 789 0
 629 0078 036B     		ldr	r3, [r0, #48]
 630              	.LVL59:
 631              		.loc 1 792 0
 632 007a 1F24     		movs	r4, #31
 633 007c 9440     		lsls	r4, r4, r2
 634              	.LVL60:
 635              		.loc 1 798 0
 636 007e 9140     		lsls	r1, r1, r2
 637              	.LVL61:
 638              		.loc 1 795 0
 639 0080 23EA0402 		bic	r2, r3, r4
 640              	.LVL62:
 641              		.loc 1 801 0
 642 0084 1143     		orrs	r1, r1, r2
 643              	.LVL63:
 644              		.loc 1 804 0
 645 0086 0163     		str	r1, [r0, #48]
 646              		.loc 1 827 0
 647 0088 70BC     		pop	{r4, r5, r6}
 648              		.cfi_restore 6
 649              		.cfi_restore 5
 650              		.cfi_restore 4
 651              		.cfi_def_cfa_offset 0
 652 008a 7047     		bx	lr
 653              		.cfi_endproc
 654              	.LFE122:
 655              		.size	ADC_RegularChannelConfig, .-ADC_RegularChannelConfig
 656              		.section	.text.ADC_SoftwareStartConv,"ax",%progbits
 657              		.align	1
 658              		.p2align 4,,15
 659              		.global	ADC_SoftwareStartConv
 660              		.syntax unified
 661              		.thumb
 662              		.thumb_func
 663              		.fpu fpv4-sp-d16
 664              		.type	ADC_SoftwareStartConv, %function
 665              	ADC_SoftwareStartConv:
 666              	.LFB123:
 667              		.loc 1 835 0
 668              		.cfi_startproc
 669              		@ args = 0, pretend = 0, frame = 0
 670              		@ frame_needed = 0, uses_anonymous_args = 0
 671              		@ link register save eliminated.
 672              	.LVL64:
 673              		.loc 1 840 0
 674 0000 8368     		ldr	r3, [r0, #8]
 675 0002 43F08043 		orr	r3, r3, #1073741824
 676 0006 8360     		str	r3, [r0, #8]
 677              		.loc 1 841 0
 678 0008 7047     		bx	lr
 679              		.cfi_endproc
 680              	.LFE123:
 681              		.size	ADC_SoftwareStartConv, .-ADC_SoftwareStartConv
 682 000a 00BF     		.section	.text.ADC_GetSoftwareStartConvStatus,"ax",%progbits
 683              		.align	1
 684              		.p2align 4,,15
ARM GAS  /tmp/ccHl477X.s 			page 13


 685              		.global	ADC_GetSoftwareStartConvStatus
 686              		.syntax unified
 687              		.thumb
 688              		.thumb_func
 689              		.fpu fpv4-sp-d16
 690              		.type	ADC_GetSoftwareStartConvStatus, %function
 691              	ADC_GetSoftwareStartConvStatus:
 692              	.LFB124:
 693              		.loc 1 849 0
 694              		.cfi_startproc
 695              		@ args = 0, pretend = 0, frame = 0
 696              		@ frame_needed = 0, uses_anonymous_args = 0
 697              		@ link register save eliminated.
 698              	.LVL65:
 699              		.loc 1 855 0
 700 0000 8068     		ldr	r0, [r0, #8]
 701              	.LVL66:
 702              		.loc 1 868 0
 703 0002 C0F38050 		ubfx	r0, r0, #22, #1
 704              	.LVL67:
 705 0006 7047     		bx	lr
 706              		.cfi_endproc
 707              	.LFE124:
 708              		.size	ADC_GetSoftwareStartConvStatus, .-ADC_GetSoftwareStartConvStatus
 709              		.section	.text.ADC_EOCOnEachRegularChannelCmd,"ax",%progbits
 710              		.align	1
 711              		.p2align 4,,15
 712              		.global	ADC_EOCOnEachRegularChannelCmd
 713              		.syntax unified
 714              		.thumb
 715              		.thumb_func
 716              		.fpu fpv4-sp-d16
 717              		.type	ADC_EOCOnEachRegularChannelCmd, %function
 718              	ADC_EOCOnEachRegularChannelCmd:
 719              	.LFB125:
 720              		.loc 1 879 0
 721              		.cfi_startproc
 722              		@ args = 0, pretend = 0, frame = 0
 723              		@ frame_needed = 0, uses_anonymous_args = 0
 724              		@ link register save eliminated.
 725              	.LVL68:
 726              		.loc 1 887 0
 727 0000 8368     		ldr	r3, [r0, #8]
 728              		.loc 1 884 0
 729 0002 19B9     		cbnz	r1, .L47
 730              		.loc 1 892 0
 731 0004 23F48063 		bic	r3, r3, #1024
 732 0008 8360     		str	r3, [r0, #8]
 733              		.loc 1 894 0
 734 000a 7047     		bx	lr
 735              	.L47:
 736              		.loc 1 887 0
 737 000c 43F48063 		orr	r3, r3, #1024
 738 0010 8360     		str	r3, [r0, #8]
 739 0012 7047     		bx	lr
 740              		.cfi_endproc
 741              	.LFE125:
ARM GAS  /tmp/ccHl477X.s 			page 14


 742              		.size	ADC_EOCOnEachRegularChannelCmd, .-ADC_EOCOnEachRegularChannelCmd
 743              		.section	.text.ADC_ContinuousModeCmd,"ax",%progbits
 744              		.align	1
 745              		.p2align 4,,15
 746              		.global	ADC_ContinuousModeCmd
 747              		.syntax unified
 748              		.thumb
 749              		.thumb_func
 750              		.fpu fpv4-sp-d16
 751              		.type	ADC_ContinuousModeCmd, %function
 752              	ADC_ContinuousModeCmd:
 753              	.LFB126:
 754              		.loc 1 904 0
 755              		.cfi_startproc
 756              		@ args = 0, pretend = 0, frame = 0
 757              		@ frame_needed = 0, uses_anonymous_args = 0
 758              		@ link register save eliminated.
 759              	.LVL69:
 760              		.loc 1 912 0
 761 0000 8368     		ldr	r3, [r0, #8]
 762              		.loc 1 909 0
 763 0002 19B9     		cbnz	r1, .L51
 764              		.loc 1 917 0
 765 0004 23F00203 		bic	r3, r3, #2
 766 0008 8360     		str	r3, [r0, #8]
 767              		.loc 1 919 0
 768 000a 7047     		bx	lr
 769              	.L51:
 770              		.loc 1 912 0
 771 000c 43F00203 		orr	r3, r3, #2
 772 0010 8360     		str	r3, [r0, #8]
 773 0012 7047     		bx	lr
 774              		.cfi_endproc
 775              	.LFE126:
 776              		.size	ADC_ContinuousModeCmd, .-ADC_ContinuousModeCmd
 777              		.section	.text.ADC_DiscModeChannelCountConfig,"ax",%progbits
 778              		.align	1
 779              		.p2align 4,,15
 780              		.global	ADC_DiscModeChannelCountConfig
 781              		.syntax unified
 782              		.thumb
 783              		.thumb_func
 784              		.fpu fpv4-sp-d16
 785              		.type	ADC_DiscModeChannelCountConfig, %function
 786              	ADC_DiscModeChannelCountConfig:
 787              	.LFB127:
 788              		.loc 1 930 0
 789              		.cfi_startproc
 790              		@ args = 0, pretend = 0, frame = 0
 791              		@ frame_needed = 0, uses_anonymous_args = 0
 792              		@ link register save eliminated.
 793              	.LVL70:
 794              		.loc 1 945 0
 795 0000 4B1E     		subs	r3, r1, #1
 796              		.loc 1 939 0
 797 0002 4168     		ldr	r1, [r0, #4]
 798              	.LVL71:
ARM GAS  /tmp/ccHl477X.s 			page 15


 799              		.loc 1 942 0
 800 0004 21F46041 		bic	r1, r1, #57344
 801              	.LVL72:
 802              		.loc 1 946 0
 803 0008 41EA4331 		orr	r1, r1, r3, lsl #13
 804              	.LVL73:
 805              		.loc 1 949 0
 806 000c 4160     		str	r1, [r0, #4]
 807              		.loc 1 950 0
 808 000e 7047     		bx	lr
 809              		.cfi_endproc
 810              	.LFE127:
 811              		.size	ADC_DiscModeChannelCountConfig, .-ADC_DiscModeChannelCountConfig
 812              		.section	.text.ADC_DiscModeCmd,"ax",%progbits
 813              		.align	1
 814              		.p2align 4,,15
 815              		.global	ADC_DiscModeCmd
 816              		.syntax unified
 817              		.thumb
 818              		.thumb_func
 819              		.fpu fpv4-sp-d16
 820              		.type	ADC_DiscModeCmd, %function
 821              	ADC_DiscModeCmd:
 822              	.LFB128:
 823              		.loc 1 962 0
 824              		.cfi_startproc
 825              		@ args = 0, pretend = 0, frame = 0
 826              		@ frame_needed = 0, uses_anonymous_args = 0
 827              		@ link register save eliminated.
 828              	.LVL74:
 829              		.loc 1 970 0
 830 0000 4368     		ldr	r3, [r0, #4]
 831              		.loc 1 967 0
 832 0002 19B9     		cbnz	r1, .L56
 833              		.loc 1 975 0
 834 0004 23F40063 		bic	r3, r3, #2048
 835 0008 4360     		str	r3, [r0, #4]
 836              		.loc 1 977 0
 837 000a 7047     		bx	lr
 838              	.L56:
 839              		.loc 1 970 0
 840 000c 43F40063 		orr	r3, r3, #2048
 841 0010 4360     		str	r3, [r0, #4]
 842 0012 7047     		bx	lr
 843              		.cfi_endproc
 844              	.LFE128:
 845              		.size	ADC_DiscModeCmd, .-ADC_DiscModeCmd
 846              		.section	.text.ADC_GetConversionValue,"ax",%progbits
 847              		.align	1
 848              		.p2align 4,,15
 849              		.global	ADC_GetConversionValue
 850              		.syntax unified
 851              		.thumb
 852              		.thumb_func
 853              		.fpu fpv4-sp-d16
 854              		.type	ADC_GetConversionValue, %function
 855              	ADC_GetConversionValue:
ARM GAS  /tmp/ccHl477X.s 			page 16


 856              	.LFB129:
 857              		.loc 1 985 0
 858              		.cfi_startproc
 859              		@ args = 0, pretend = 0, frame = 0
 860              		@ frame_needed = 0, uses_anonymous_args = 0
 861              		@ link register save eliminated.
 862              	.LVL75:
 863              		.loc 1 990 0
 864 0000 C06C     		ldr	r0, [r0, #76]
 865              	.LVL76:
 866              		.loc 1 991 0
 867 0002 80B2     		uxth	r0, r0
 868 0004 7047     		bx	lr
 869              		.cfi_endproc
 870              	.LFE129:
 871              		.size	ADC_GetConversionValue, .-ADC_GetConversionValue
 872 0006 00BF     		.section	.text.ADC_GetMultiModeConversionValue,"ax",%progbits
 873              		.align	1
 874              		.p2align 4,,15
 875              		.global	ADC_GetMultiModeConversionValue
 876              		.syntax unified
 877              		.thumb
 878              		.thumb_func
 879              		.fpu fpv4-sp-d16
 880              		.type	ADC_GetMultiModeConversionValue, %function
 881              	ADC_GetMultiModeConversionValue:
 882              	.LFB130:
 883              		.loc 1 1006 0
 884              		.cfi_startproc
 885              		@ args = 0, pretend = 0, frame = 0
 886              		@ frame_needed = 0, uses_anonymous_args = 0
 887              		@ link register save eliminated.
 888              		.loc 1 1008 0
 889 0000 014B     		ldr	r3, .L59
 890 0002 1868     		ldr	r0, [r3]
 891              		.loc 1 1009 0
 892 0004 7047     		bx	lr
 893              	.L60:
 894 0006 00BF     		.align	2
 895              	.L59:
 896 0008 08230140 		.word	1073816328
 897              		.cfi_endproc
 898              	.LFE130:
 899              		.size	ADC_GetMultiModeConversionValue, .-ADC_GetMultiModeConversionValue
 900              		.section	.text.ADC_DMACmd,"ax",%progbits
 901              		.align	1
 902              		.p2align 4,,15
 903              		.global	ADC_DMACmd
 904              		.syntax unified
 905              		.thumb
 906              		.thumb_func
 907              		.fpu fpv4-sp-d16
 908              		.type	ADC_DMACmd, %function
 909              	ADC_DMACmd:
 910              	.LFB131:
 911              		.loc 1 1055 0
 912              		.cfi_startproc
ARM GAS  /tmp/ccHl477X.s 			page 17


 913              		@ args = 0, pretend = 0, frame = 0
 914              		@ frame_needed = 0, uses_anonymous_args = 0
 915              		@ link register save eliminated.
 916              	.LVL77:
 917              		.loc 1 1062 0
 918 0000 8368     		ldr	r3, [r0, #8]
 919              		.loc 1 1059 0
 920 0002 19B9     		cbnz	r1, .L64
 921              		.loc 1 1067 0
 922 0004 23F48073 		bic	r3, r3, #256
 923 0008 8360     		str	r3, [r0, #8]
 924              		.loc 1 1069 0
 925 000a 7047     		bx	lr
 926              	.L64:
 927              		.loc 1 1062 0
 928 000c 43F48073 		orr	r3, r3, #256
 929 0010 8360     		str	r3, [r0, #8]
 930 0012 7047     		bx	lr
 931              		.cfi_endproc
 932              	.LFE131:
 933              		.size	ADC_DMACmd, .-ADC_DMACmd
 934              		.section	.text.ADC_DMARequestAfterLastTransferCmd,"ax",%progbits
 935              		.align	1
 936              		.p2align 4,,15
 937              		.global	ADC_DMARequestAfterLastTransferCmd
 938              		.syntax unified
 939              		.thumb
 940              		.thumb_func
 941              		.fpu fpv4-sp-d16
 942              		.type	ADC_DMARequestAfterLastTransferCmd, %function
 943              	ADC_DMARequestAfterLastTransferCmd:
 944              	.LFB132:
 945              		.loc 1 1079 0
 946              		.cfi_startproc
 947              		@ args = 0, pretend = 0, frame = 0
 948              		@ frame_needed = 0, uses_anonymous_args = 0
 949              		@ link register save eliminated.
 950              	.LVL78:
 951              		.loc 1 1086 0
 952 0000 8368     		ldr	r3, [r0, #8]
 953              		.loc 1 1083 0
 954 0002 19B9     		cbnz	r1, .L68
 955              		.loc 1 1091 0
 956 0004 23F40073 		bic	r3, r3, #512
 957 0008 8360     		str	r3, [r0, #8]
 958              		.loc 1 1093 0
 959 000a 7047     		bx	lr
 960              	.L68:
 961              		.loc 1 1086 0
 962 000c 43F40073 		orr	r3, r3, #512
 963 0010 8360     		str	r3, [r0, #8]
 964 0012 7047     		bx	lr
 965              		.cfi_endproc
 966              	.LFE132:
 967              		.size	ADC_DMARequestAfterLastTransferCmd, .-ADC_DMARequestAfterLastTransferCmd
 968              		.section	.text.ADC_MultiModeDMARequestAfterLastTransferCmd,"ax",%progbits
 969              		.align	1
ARM GAS  /tmp/ccHl477X.s 			page 18


 970              		.p2align 4,,15
 971              		.global	ADC_MultiModeDMARequestAfterLastTransferCmd
 972              		.syntax unified
 973              		.thumb
 974              		.thumb_func
 975              		.fpu fpv4-sp-d16
 976              		.type	ADC_MultiModeDMARequestAfterLastTransferCmd, %function
 977              	ADC_MultiModeDMARequestAfterLastTransferCmd:
 978              	.LFB133:
 979              		.loc 1 1106 0
 980              		.cfi_startproc
 981              		@ args = 0, pretend = 0, frame = 0
 982              		@ frame_needed = 0, uses_anonymous_args = 0
 983              		@ link register save eliminated.
 984              	.LVL79:
 985              		.loc 1 1112 0
 986 0000 054A     		ldr	r2, .L73
 987 0002 5368     		ldr	r3, [r2, #4]
 988              		.loc 1 1109 0
 989 0004 18B9     		cbnz	r0, .L72
 990              		.loc 1 1117 0
 991 0006 23F40053 		bic	r3, r3, #8192
 992 000a 5360     		str	r3, [r2, #4]
 993              		.loc 1 1119 0
 994 000c 7047     		bx	lr
 995              	.L72:
 996              		.loc 1 1112 0
 997 000e 43F40053 		orr	r3, r3, #8192
 998 0012 5360     		str	r3, [r2, #4]
 999 0014 7047     		bx	lr
 1000              	.L74:
 1001 0016 00BF     		.align	2
 1002              	.L73:
 1003 0018 00230140 		.word	1073816320
 1004              		.cfi_endproc
 1005              	.LFE133:
 1006              		.size	ADC_MultiModeDMARequestAfterLastTransferCmd, .-ADC_MultiModeDMARequestAfterLastTransferCmd
 1007              		.section	.text.ADC_InjectedChannelConfig,"ax",%progbits
 1008              		.align	1
 1009              		.p2align 4,,15
 1010              		.global	ADC_InjectedChannelConfig
 1011              		.syntax unified
 1012              		.thumb
 1013              		.thumb_func
 1014              		.fpu fpv4-sp-d16
 1015              		.type	ADC_InjectedChannelConfig, %function
 1016              	ADC_InjectedChannelConfig:
 1017              	.LFB134:
 1018              		.loc 1 1193 0
 1019              		.cfi_startproc
 1020              		@ args = 0, pretend = 0, frame = 0
 1021              		@ frame_needed = 0, uses_anonymous_args = 0
 1022              		@ link register save eliminated.
 1023              	.LVL80:
 1024              		.loc 1 1201 0
 1025 0000 0929     		cmp	r1, #9
 1026              		.loc 1 1193 0
ARM GAS  /tmp/ccHl477X.s 			page 19


 1027 0002 70B4     		push	{r4, r5, r6}
 1028              		.cfi_def_cfa_offset 12
 1029              		.cfi_offset 4, -12
 1030              		.cfi_offset 5, -8
 1031              		.cfi_offset 6, -4
 1032              		.loc 1 1201 0
 1033 0004 1AD8     		bhi	.L79
 1034              		.loc 1 1221 0
 1035 0006 01EB4106 		add	r6, r1, r1, lsl #1
 1036              		.loc 1 1219 0
 1037 000a 0469     		ldr	r4, [r0, #16]
 1038              	.LVL81:
 1039              		.loc 1 1221 0
 1040 000c 0725     		movs	r5, #7
 1041 000e B540     		lsls	r5, r5, r6
 1042              	.LVL82:
 1043              		.loc 1 1225 0
 1044 0010 B340     		lsls	r3, r3, r6
 1045              	.LVL83:
 1046              		.loc 1 1223 0
 1047 0012 24EA0504 		bic	r4, r4, r5
 1048              	.LVL84:
 1049              		.loc 1 1227 0
 1050 0016 2343     		orrs	r3, r3, r4
 1051              	.LVL85:
 1052              		.loc 1 1229 0
 1053 0018 0361     		str	r3, [r0, #16]
 1054              	.L77:
 1055              		.loc 1 1233 0
 1056 001a 836B     		ldr	r3, [r0, #56]
 1057              	.LVL86:
 1058              		.loc 1 1237 0
 1059 001c 0232     		adds	r2, r2, #2
 1060              	.LVL87:
 1061              		.loc 1 1235 0
 1062 001e C3F30154 		ubfx	r4, r3, #20, #2
 1063              		.loc 1 1237 0
 1064 0022 121B     		subs	r2, r2, r4
 1065 0024 D2B2     		uxtb	r2, r2
 1066 0026 02EB8202 		add	r2, r2, r2, lsl #2
 1067              	.LVL88:
 1068 002a 1F24     		movs	r4, #31
 1069 002c 9440     		lsls	r4, r4, r2
 1070              	.LVL89:
 1071              		.loc 1 1239 0
 1072 002e 23EA0403 		bic	r3, r3, r4
 1073              	.LVL90:
 1074              		.loc 1 1241 0
 1075 0032 9140     		lsls	r1, r1, r2
 1076              	.LVL91:
 1077              		.loc 1 1243 0
 1078 0034 1943     		orrs	r1, r1, r3
 1079              	.LVL92:
 1080              		.loc 1 1245 0
 1081 0036 8163     		str	r1, [r0, #56]
 1082              		.loc 1 1246 0
 1083 0038 70BC     		pop	{r4, r5, r6}
ARM GAS  /tmp/ccHl477X.s 			page 20


 1084              		.cfi_remember_state
 1085              		.cfi_restore 6
 1086              		.cfi_restore 5
 1087              		.cfi_restore 4
 1088              		.cfi_def_cfa_offset 0
 1089 003a 7047     		bx	lr
 1090              	.LVL93:
 1091              	.L79:
 1092              		.cfi_restore_state
 1093              		.loc 1 1206 0
 1094 003c A1F10A04 		sub	r4, r1, #10
 1095 0040 04EB4404 		add	r4, r4, r4, lsl #1
 1096              		.loc 1 1204 0
 1097 0044 C568     		ldr	r5, [r0, #12]
 1098              	.LVL94:
 1099              		.loc 1 1206 0
 1100 0046 0726     		movs	r6, #7
 1101 0048 A640     		lsls	r6, r6, r4
 1102              	.LVL95:
 1103              		.loc 1 1210 0
 1104 004a A340     		lsls	r3, r3, r4
 1105              	.LVL96:
 1106              		.loc 1 1208 0
 1107 004c 25EA0604 		bic	r4, r5, r6
 1108              	.LVL97:
 1109              		.loc 1 1212 0
 1110 0050 2343     		orrs	r3, r3, r4
 1111              	.LVL98:
 1112              		.loc 1 1214 0
 1113 0052 C360     		str	r3, [r0, #12]
 1114 0054 E1E7     		b	.L77
 1115              		.cfi_endproc
 1116              	.LFE134:
 1117              		.size	ADC_InjectedChannelConfig, .-ADC_InjectedChannelConfig
 1118 0056 00BF     		.section	.text.ADC_InjectedSequencerLengthConfig,"ax",%progbits
 1119              		.align	1
 1120              		.p2align 4,,15
 1121              		.global	ADC_InjectedSequencerLengthConfig
 1122              		.syntax unified
 1123              		.thumb
 1124              		.thumb_func
 1125              		.fpu fpv4-sp-d16
 1126              		.type	ADC_InjectedSequencerLengthConfig, %function
 1127              	ADC_InjectedSequencerLengthConfig:
 1128              	.LFB135:
 1129              		.loc 1 1256 0
 1130              		.cfi_startproc
 1131              		@ args = 0, pretend = 0, frame = 0
 1132              		@ frame_needed = 0, uses_anonymous_args = 0
 1133              		@ link register save eliminated.
 1134              	.LVL99:
 1135              		.loc 1 1270 0
 1136 0000 4B1E     		subs	r3, r1, #1
 1137              		.loc 1 1264 0
 1138 0002 816B     		ldr	r1, [r0, #56]
 1139              	.LVL100:
 1140              		.loc 1 1267 0
ARM GAS  /tmp/ccHl477X.s 			page 21


 1141 0004 21F44011 		bic	r1, r1, #3145728
 1142              	.LVL101:
 1143              		.loc 1 1271 0
 1144 0008 41EA0351 		orr	r1, r1, r3, lsl #20
 1145              	.LVL102:
 1146              		.loc 1 1274 0
 1147 000c 8163     		str	r1, [r0, #56]
 1148              		.loc 1 1275 0
 1149 000e 7047     		bx	lr
 1150              		.cfi_endproc
 1151              	.LFE135:
 1152              		.size	ADC_InjectedSequencerLengthConfig, .-ADC_InjectedSequencerLengthConfig
 1153              		.section	.text.ADC_SetInjectedOffset,"ax",%progbits
 1154              		.align	1
 1155              		.p2align 4,,15
 1156              		.global	ADC_SetInjectedOffset
 1157              		.syntax unified
 1158              		.thumb
 1159              		.thumb_func
 1160              		.fpu fpv4-sp-d16
 1161              		.type	ADC_SetInjectedOffset, %function
 1162              	ADC_SetInjectedOffset:
 1163              	.LFB136:
 1164              		.loc 1 1291 0
 1165              		.cfi_startproc
 1166              		@ args = 0, pretend = 0, frame = 8
 1167              		@ frame_needed = 0, uses_anonymous_args = 0
 1168              		@ link register save eliminated.
 1169              	.LVL103:
 1170 0000 82B0     		sub	sp, sp, #8
 1171              		.cfi_def_cfa_offset 8
 1172              		.loc 1 1292 0
 1173 0002 0023     		movs	r3, #0
 1174 0004 0193     		str	r3, [sp, #4]
 1175              		.loc 1 1298 0
 1176 0006 0190     		str	r0, [sp, #4]
 1177              		.loc 1 1299 0
 1178 0008 019B     		ldr	r3, [sp, #4]
 1179 000a 1944     		add	r1, r1, r3
 1180              	.LVL104:
 1181 000c 0191     		str	r1, [sp, #4]
 1182              		.loc 1 1302 0
 1183 000e 019B     		ldr	r3, [sp, #4]
 1184 0010 1A60     		str	r2, [r3]
 1185              		.loc 1 1303 0
 1186 0012 02B0     		add	sp, sp, #8
 1187              		.cfi_def_cfa_offset 0
 1188              		@ sp needed
 1189 0014 7047     		bx	lr
 1190              		.cfi_endproc
 1191              	.LFE136:
 1192              		.size	ADC_SetInjectedOffset, .-ADC_SetInjectedOffset
 1193 0016 00BF     		.section	.text.ADC_ExternalTrigInjectedConvConfig,"ax",%progbits
 1194              		.align	1
 1195              		.p2align 4,,15
 1196              		.global	ADC_ExternalTrigInjectedConvConfig
 1197              		.syntax unified
ARM GAS  /tmp/ccHl477X.s 			page 22


 1198              		.thumb
 1199              		.thumb_func
 1200              		.fpu fpv4-sp-d16
 1201              		.type	ADC_ExternalTrigInjectedConvConfig, %function
 1202              	ADC_ExternalTrigInjectedConvConfig:
 1203              	.LFB137:
 1204              		.loc 1 1329 0
 1205              		.cfi_startproc
 1206              		@ args = 0, pretend = 0, frame = 0
 1207              		@ frame_needed = 0, uses_anonymous_args = 0
 1208              		@ link register save eliminated.
 1209              	.LVL105:
 1210              		.loc 1 1336 0
 1211 0000 8368     		ldr	r3, [r0, #8]
 1212              	.LVL106:
 1213              		.loc 1 1339 0
 1214 0002 23F47023 		bic	r3, r3, #983040
 1215              	.LVL107:
 1216              		.loc 1 1342 0
 1217 0006 1943     		orrs	r1, r1, r3
 1218              	.LVL108:
 1219              		.loc 1 1345 0
 1220 0008 8160     		str	r1, [r0, #8]
 1221              		.loc 1 1346 0
 1222 000a 7047     		bx	lr
 1223              		.cfi_endproc
 1224              	.LFE137:
 1225              		.size	ADC_ExternalTrigInjectedConvConfig, .-ADC_ExternalTrigInjectedConvConfig
 1226              		.section	.text.ADC_ExternalTrigInjectedConvEdgeConfig,"ax",%progbits
 1227              		.align	1
 1228              		.p2align 4,,15
 1229              		.global	ADC_ExternalTrigInjectedConvEdgeConfig
 1230              		.syntax unified
 1231              		.thumb
 1232              		.thumb_func
 1233              		.fpu fpv4-sp-d16
 1234              		.type	ADC_ExternalTrigInjectedConvEdgeConfig, %function
 1235              	ADC_ExternalTrigInjectedConvEdgeConfig:
 1236              	.LFB138:
 1237              		.loc 1 1363 0
 1238              		.cfi_startproc
 1239              		@ args = 0, pretend = 0, frame = 0
 1240              		@ frame_needed = 0, uses_anonymous_args = 0
 1241              		@ link register save eliminated.
 1242              	.LVL109:
 1243              		.loc 1 1369 0
 1244 0000 8368     		ldr	r3, [r0, #8]
 1245              	.LVL110:
 1246              		.loc 1 1371 0
 1247 0002 23F44013 		bic	r3, r3, #3145728
 1248              	.LVL111:
 1249              		.loc 1 1373 0
 1250 0006 1943     		orrs	r1, r1, r3
 1251              	.LVL112:
 1252              		.loc 1 1375 0
 1253 0008 8160     		str	r1, [r0, #8]
 1254              		.loc 1 1376 0
ARM GAS  /tmp/ccHl477X.s 			page 23


 1255 000a 7047     		bx	lr
 1256              		.cfi_endproc
 1257              	.LFE138:
 1258              		.size	ADC_ExternalTrigInjectedConvEdgeConfig, .-ADC_ExternalTrigInjectedConvEdgeConfig
 1259              		.section	.text.ADC_SoftwareStartInjectedConv,"ax",%progbits
 1260              		.align	1
 1261              		.p2align 4,,15
 1262              		.global	ADC_SoftwareStartInjectedConv
 1263              		.syntax unified
 1264              		.thumb
 1265              		.thumb_func
 1266              		.fpu fpv4-sp-d16
 1267              		.type	ADC_SoftwareStartInjectedConv, %function
 1268              	ADC_SoftwareStartInjectedConv:
 1269              	.LFB139:
 1270              		.loc 1 1384 0
 1271              		.cfi_startproc
 1272              		@ args = 0, pretend = 0, frame = 0
 1273              		@ frame_needed = 0, uses_anonymous_args = 0
 1274              		@ link register save eliminated.
 1275              	.LVL113:
 1276              		.loc 1 1388 0
 1277 0000 8368     		ldr	r3, [r0, #8]
 1278 0002 43F48003 		orr	r3, r3, #4194304
 1279 0006 8360     		str	r3, [r0, #8]
 1280              		.loc 1 1389 0
 1281 0008 7047     		bx	lr
 1282              		.cfi_endproc
 1283              	.LFE139:
 1284              		.size	ADC_SoftwareStartInjectedConv, .-ADC_SoftwareStartInjectedConv
 1285 000a 00BF     		.section	.text.ADC_GetSoftwareStartInjectedConvCmdStatus,"ax",%progbits
 1286              		.align	1
 1287              		.p2align 4,,15
 1288              		.global	ADC_GetSoftwareStartInjectedConvCmdStatus
 1289              		.syntax unified
 1290              		.thumb
 1291              		.thumb_func
 1292              		.fpu fpv4-sp-d16
 1293              		.type	ADC_GetSoftwareStartInjectedConvCmdStatus, %function
 1294              	ADC_GetSoftwareStartInjectedConvCmdStatus:
 1295              	.LFB150:
 1296              		.cfi_startproc
 1297              		@ args = 0, pretend = 0, frame = 0
 1298              		@ frame_needed = 0, uses_anonymous_args = 0
 1299              		@ link register save eliminated.
 1300 0000 FFF7FEBF 		b	ADC_GetSoftwareStartConvStatus
 1301              		.cfi_endproc
 1302              	.LFE150:
 1303              		.size	ADC_GetSoftwareStartInjectedConvCmdStatus, .-ADC_GetSoftwareStartInjectedConvCmdStatus
 1304              		.section	.text.ADC_AutoInjectedConvCmd,"ax",%progbits
 1305              		.align	1
 1306              		.p2align 4,,15
 1307              		.global	ADC_AutoInjectedConvCmd
 1308              		.syntax unified
 1309              		.thumb
 1310              		.thumb_func
 1311              		.fpu fpv4-sp-d16
ARM GAS  /tmp/ccHl477X.s 			page 24


 1312              		.type	ADC_AutoInjectedConvCmd, %function
 1313              	ADC_AutoInjectedConvCmd:
 1314              	.LFB141:
 1315              		.loc 1 1426 0
 1316              		.cfi_startproc
 1317              		@ args = 0, pretend = 0, frame = 0
 1318              		@ frame_needed = 0, uses_anonymous_args = 0
 1319              		@ link register save eliminated.
 1320              	.LVL114:
 1321              		.loc 1 1433 0
 1322 0000 4368     		ldr	r3, [r0, #4]
 1323              		.loc 1 1430 0
 1324 0002 19B9     		cbnz	r1, .L90
 1325              		.loc 1 1438 0
 1326 0004 23F48063 		bic	r3, r3, #1024
 1327 0008 4360     		str	r3, [r0, #4]
 1328              		.loc 1 1440 0
 1329 000a 7047     		bx	lr
 1330              	.L90:
 1331              		.loc 1 1433 0
 1332 000c 43F48063 		orr	r3, r3, #1024
 1333 0010 4360     		str	r3, [r0, #4]
 1334 0012 7047     		bx	lr
 1335              		.cfi_endproc
 1336              	.LFE141:
 1337              		.size	ADC_AutoInjectedConvCmd, .-ADC_AutoInjectedConvCmd
 1338              		.section	.text.ADC_InjectedDiscModeCmd,"ax",%progbits
 1339              		.align	1
 1340              		.p2align 4,,15
 1341              		.global	ADC_InjectedDiscModeCmd
 1342              		.syntax unified
 1343              		.thumb
 1344              		.thumb_func
 1345              		.fpu fpv4-sp-d16
 1346              		.type	ADC_InjectedDiscModeCmd, %function
 1347              	ADC_InjectedDiscModeCmd:
 1348              	.LFB142:
 1349              		.loc 1 1452 0
 1350              		.cfi_startproc
 1351              		@ args = 0, pretend = 0, frame = 0
 1352              		@ frame_needed = 0, uses_anonymous_args = 0
 1353              		@ link register save eliminated.
 1354              	.LVL115:
 1355              		.loc 1 1459 0
 1356 0000 4368     		ldr	r3, [r0, #4]
 1357              		.loc 1 1456 0
 1358 0002 19B9     		cbnz	r1, .L94
 1359              		.loc 1 1464 0
 1360 0004 23F48053 		bic	r3, r3, #4096
 1361 0008 4360     		str	r3, [r0, #4]
 1362              		.loc 1 1466 0
 1363 000a 7047     		bx	lr
 1364              	.L94:
 1365              		.loc 1 1459 0
 1366 000c 43F48053 		orr	r3, r3, #4096
 1367 0010 4360     		str	r3, [r0, #4]
 1368 0012 7047     		bx	lr
ARM GAS  /tmp/ccHl477X.s 			page 25


 1369              		.cfi_endproc
 1370              	.LFE142:
 1371              		.size	ADC_InjectedDiscModeCmd, .-ADC_InjectedDiscModeCmd
 1372              		.section	.text.ADC_GetInjectedConversionValue,"ax",%progbits
 1373              		.align	1
 1374              		.p2align 4,,15
 1375              		.global	ADC_GetInjectedConversionValue
 1376              		.syntax unified
 1377              		.thumb
 1378              		.thumb_func
 1379              		.fpu fpv4-sp-d16
 1380              		.type	ADC_GetInjectedConversionValue, %function
 1381              	ADC_GetInjectedConversionValue:
 1382              	.LFB143:
 1383              		.loc 1 1480 0
 1384              		.cfi_startproc
 1385              		@ args = 0, pretend = 0, frame = 8
 1386              		@ frame_needed = 0, uses_anonymous_args = 0
 1387              		@ link register save eliminated.
 1388              	.LVL116:
 1389 0000 82B0     		sub	sp, sp, #8
 1390              		.cfi_def_cfa_offset 8
 1391              		.loc 1 1481 0
 1392 0002 0023     		movs	r3, #0
 1393 0004 0193     		str	r3, [sp, #4]
 1394              		.loc 1 1487 0
 1395 0006 0190     		str	r0, [sp, #4]
 1396              		.loc 1 1488 0
 1397 0008 019B     		ldr	r3, [sp, #4]
 1398 000a 2833     		adds	r3, r3, #40
 1399 000c 1944     		add	r1, r1, r3
 1400              	.LVL117:
 1401 000e 0191     		str	r1, [sp, #4]
 1402              		.loc 1 1491 0
 1403 0010 019B     		ldr	r3, [sp, #4]
 1404 0012 1868     		ldr	r0, [r3]
 1405              	.LVL118:
 1406              		.loc 1 1492 0
 1407 0014 80B2     		uxth	r0, r0
 1408 0016 02B0     		add	sp, sp, #8
 1409              		.cfi_def_cfa_offset 0
 1410              		@ sp needed
 1411 0018 7047     		bx	lr
 1412              		.cfi_endproc
 1413              	.LFE143:
 1414              		.size	ADC_GetInjectedConversionValue, .-ADC_GetInjectedConversionValue
 1415 001a 00BF     		.section	.text.ADC_ITConfig,"ax",%progbits
 1416              		.align	1
 1417              		.p2align 4,,15
 1418              		.global	ADC_ITConfig
 1419              		.syntax unified
 1420              		.thumb
 1421              		.thumb_func
 1422              		.fpu fpv4-sp-d16
 1423              		.type	ADC_ITConfig, %function
 1424              	ADC_ITConfig:
 1425              	.LFB144:
ARM GAS  /tmp/ccHl477X.s 			page 26


 1426              		.loc 1 1588 0
 1427              		.cfi_startproc
 1428              		@ args = 0, pretend = 0, frame = 0
 1429              		@ frame_needed = 0, uses_anonymous_args = 0
 1430              		@ link register save eliminated.
 1431              	.LVL119:
 1432              		.loc 1 1596 0
 1433 0000 C9B2     		uxtb	r1, r1
 1434              	.LVL120:
 1435              		.loc 1 1597 0
 1436 0002 0123     		movs	r3, #1
 1437 0004 8B40     		lsls	r3, r3, r1
 1438              	.LVL121:
 1439              		.loc 1 1602 0
 1440 0006 4168     		ldr	r1, [r0, #4]
 1441              		.loc 1 1599 0
 1442 0008 1AB9     		cbnz	r2, .L100
 1443              		.loc 1 1607 0
 1444 000a 21EA0303 		bic	r3, r1, r3
 1445              	.LVL122:
 1446 000e 4360     		str	r3, [r0, #4]
 1447              		.loc 1 1609 0
 1448 0010 7047     		bx	lr
 1449              	.LVL123:
 1450              	.L100:
 1451              		.loc 1 1602 0
 1452 0012 0B43     		orrs	r3, r3, r1
 1453              	.LVL124:
 1454 0014 4360     		str	r3, [r0, #4]
 1455 0016 7047     		bx	lr
 1456              		.cfi_endproc
 1457              	.LFE144:
 1458              		.size	ADC_ITConfig, .-ADC_ITConfig
 1459              		.section	.text.ADC_GetFlagStatus,"ax",%progbits
 1460              		.align	1
 1461              		.p2align 4,,15
 1462              		.global	ADC_GetFlagStatus
 1463              		.syntax unified
 1464              		.thumb
 1465              		.thumb_func
 1466              		.fpu fpv4-sp-d16
 1467              		.type	ADC_GetFlagStatus, %function
 1468              	ADC_GetFlagStatus:
 1469              	.LFB145:
 1470              		.loc 1 1625 0
 1471              		.cfi_startproc
 1472              		@ args = 0, pretend = 0, frame = 0
 1473              		@ frame_needed = 0, uses_anonymous_args = 0
 1474              		@ link register save eliminated.
 1475              	.LVL125:
 1476              		.loc 1 1632 0
 1477 0000 0368     		ldr	r3, [r0]
 1478              	.LVL126:
 1479 0002 1942     		tst	r1, r3
 1480              		.loc 1 1644 0
 1481 0004 14BF     		ite	ne
 1482 0006 0120     		movne	r0, #1
ARM GAS  /tmp/ccHl477X.s 			page 27


 1483              	.LVL127:
 1484 0008 0020     		moveq	r0, #0
 1485 000a 7047     		bx	lr
 1486              		.cfi_endproc
 1487              	.LFE145:
 1488              		.size	ADC_GetFlagStatus, .-ADC_GetFlagStatus
 1489              		.section	.text.ADC_ClearFlag,"ax",%progbits
 1490              		.align	1
 1491              		.p2align 4,,15
 1492              		.global	ADC_ClearFlag
 1493              		.syntax unified
 1494              		.thumb
 1495              		.thumb_func
 1496              		.fpu fpv4-sp-d16
 1497              		.type	ADC_ClearFlag, %function
 1498              	ADC_ClearFlag:
 1499              	.LFB146:
 1500              		.loc 1 1660 0
 1501              		.cfi_startproc
 1502              		@ args = 0, pretend = 0, frame = 0
 1503              		@ frame_needed = 0, uses_anonymous_args = 0
 1504              		@ link register save eliminated.
 1505              	.LVL128:
 1506              		.loc 1 1666 0
 1507 0000 C943     		mvns	r1, r1
 1508              	.LVL129:
 1509 0002 0160     		str	r1, [r0]
 1510              		.loc 1 1667 0
 1511 0004 7047     		bx	lr
 1512              		.cfi_endproc
 1513              	.LFE146:
 1514              		.size	ADC_ClearFlag, .-ADC_ClearFlag
 1515 0006 00BF     		.section	.text.ADC_GetITStatus,"ax",%progbits
 1516              		.align	1
 1517              		.p2align 4,,15
 1518              		.global	ADC_GetITStatus
 1519              		.syntax unified
 1520              		.thumb
 1521              		.thumb_func
 1522              		.fpu fpv4-sp-d16
 1523              		.type	ADC_GetITStatus, %function
 1524              	ADC_GetITStatus:
 1525              	.LFB147:
 1526              		.loc 1 1681 0
 1527              		.cfi_startproc
 1528              		@ args = 0, pretend = 0, frame = 0
 1529              		@ frame_needed = 0, uses_anonymous_args = 0
 1530              		@ link register save eliminated.
 1531              	.LVL130:
 1532              		.loc 1 1693 0
 1533 0000 4268     		ldr	r2, [r0, #4]
 1534              	.LVL131:
 1535              		.loc 1 1696 0
 1536 0002 0068     		ldr	r0, [r0]
 1537              	.LVL132:
 1538 0004 10EA1120 		ands	r0, r0, r1, lsr #8
 1539 0008 07D0     		beq	.L104
ARM GAS  /tmp/ccHl477X.s 			page 28


 1540              		.loc 1 1693 0 discriminator 1
 1541 000a 0123     		movs	r3, #1
 1542 000c C9B2     		uxtb	r1, r1
 1543              	.LVL133:
 1544 000e 03FA01F1 		lsl	r1, r3, r1
 1545              	.LVL134:
 1546              		.loc 1 1696 0 discriminator 1
 1547 0012 1142     		tst	r1, r2
 1548              		.loc 1 1699 0 discriminator 1
 1549 0014 14BF     		ite	ne
 1550 0016 1846     		movne	r0, r3
 1551 0018 0020     		moveq	r0, #0
 1552              	.L104:
 1553              	.LVL135:
 1554              		.loc 1 1708 0
 1555 001a 7047     		bx	lr
 1556              		.cfi_endproc
 1557              	.LFE147:
 1558              		.size	ADC_GetITStatus, .-ADC_GetITStatus
 1559              		.section	.text.ADC_ClearITPendingBit,"ax",%progbits
 1560              		.align	1
 1561              		.p2align 4,,15
 1562              		.global	ADC_ClearITPendingBit
 1563              		.syntax unified
 1564              		.thumb
 1565              		.thumb_func
 1566              		.fpu fpv4-sp-d16
 1567              		.type	ADC_ClearITPendingBit, %function
 1568              	ADC_ClearITPendingBit:
 1569              	.LFB148:
 1570              		.loc 1 1722 0
 1571              		.cfi_startproc
 1572              		@ args = 0, pretend = 0, frame = 0
 1573              		@ frame_needed = 0, uses_anonymous_args = 0
 1574              		@ link register save eliminated.
 1575              	.LVL136:
 1576              		.loc 1 1730 0
 1577 0000 6FEA1121 		mvn	r1, r1, lsr #8
 1578              	.LVL137:
 1579 0004 0160     		str	r1, [r0]
 1580              		.loc 1 1731 0
 1581 0006 7047     		bx	lr
 1582              		.cfi_endproc
 1583              	.LFE148:
 1584              		.size	ADC_ClearITPendingBit, .-ADC_ClearITPendingBit
 1585              		.text
 1586              	.Letext0:
 1587              		.file 2 "/usr/arm-none-eabi/include/machine/_default_types.h"
 1588              		.file 3 "/usr/arm-none-eabi/include/sys/_stdint.h"
 1589              		.file 4 "ChibiOS_2.6.6/os/hal/platforms/STM32F4xx/stm32f4xx.h"
 1590              		.file 5 "ChibiOS_2.6.6/ext/stdperiph_stm32f4/inc/stm32f4xx_adc.h"
 1591              		.file 6 "ChibiOS_2.6.6/os/ports/common/ARMCMx/CMSIS/include/core_cm4.h"
 1592              		.file 7 "ChibiOS_2.6.6/ext/stdperiph_stm32f4/inc/stm32f4xx_rcc.h"
 1593              		.section	.debug_info,"",%progbits
 1594              	.Ldebug_info0:
 1595 0000 700C0000 		.4byte	0xc70
 1596 0004 0400     		.2byte	0x4
ARM GAS  /tmp/ccHl477X.s 			page 29


 1597 0006 00000000 		.4byte	.Ldebug_abbrev0
 1598 000a 04       		.byte	0x4
 1599 000b 01       		.uleb128 0x1
 1600 000c 5B000000 		.4byte	.LASF113
 1601 0010 0C       		.byte	0xc
 1602 0011 C1020000 		.4byte	.LASF114
 1603 0015 70040000 		.4byte	.LASF115
 1604 0019 00000000 		.4byte	.Ldebug_ranges0+0
 1605 001d 00000000 		.4byte	0
 1606 0021 00000000 		.4byte	.Ldebug_line0
 1607 0025 02       		.uleb128 0x2
 1608 0026 01       		.byte	0x1
 1609 0027 06       		.byte	0x6
 1610 0028 E1010000 		.4byte	.LASF0
 1611 002c 03       		.uleb128 0x3
 1612 002d 46000000 		.4byte	.LASF3
 1613 0031 02       		.byte	0x2
 1614 0032 2B       		.byte	0x2b
 1615 0033 37000000 		.4byte	0x37
 1616 0037 02       		.uleb128 0x2
 1617 0038 01       		.byte	0x1
 1618 0039 08       		.byte	0x8
 1619 003a 8E060000 		.4byte	.LASF1
 1620 003e 02       		.uleb128 0x2
 1621 003f 02       		.byte	0x2
 1622 0040 05       		.byte	0x5
 1623 0041 9C060000 		.4byte	.LASF2
 1624 0045 03       		.uleb128 0x3
 1625 0046 6F070000 		.4byte	.LASF4
 1626 004a 02       		.byte	0x2
 1627 004b 39       		.byte	0x39
 1628 004c 50000000 		.4byte	0x50
 1629 0050 02       		.uleb128 0x2
 1630 0051 02       		.byte	0x2
 1631 0052 07       		.byte	0x7
 1632 0053 2F040000 		.4byte	.LASF5
 1633 0057 03       		.uleb128 0x3
 1634 0058 96070000 		.4byte	.LASF6
 1635 005c 02       		.byte	0x2
 1636 005d 4D       		.byte	0x4d
 1637 005e 62000000 		.4byte	0x62
 1638 0062 02       		.uleb128 0x2
 1639 0063 04       		.byte	0x4
 1640 0064 05       		.byte	0x5
 1641 0065 85020000 		.4byte	.LASF7
 1642 0069 03       		.uleb128 0x3
 1643 006a 1D030000 		.4byte	.LASF8
 1644 006e 02       		.byte	0x2
 1645 006f 4F       		.byte	0x4f
 1646 0070 74000000 		.4byte	0x74
 1647 0074 02       		.uleb128 0x2
 1648 0075 04       		.byte	0x4
 1649 0076 07       		.byte	0x7
 1650 0077 D4030000 		.4byte	.LASF9
 1651 007b 02       		.uleb128 0x2
 1652 007c 08       		.byte	0x8
 1653 007d 05       		.byte	0x5
ARM GAS  /tmp/ccHl477X.s 			page 30


 1654 007e D3010000 		.4byte	.LASF10
 1655 0082 02       		.uleb128 0x2
 1656 0083 08       		.byte	0x8
 1657 0084 07       		.byte	0x7
 1658 0085 90010000 		.4byte	.LASF11
 1659 0089 04       		.uleb128 0x4
 1660 008a 04       		.byte	0x4
 1661 008b 05       		.byte	0x5
 1662 008c 696E7400 		.ascii	"int\000"
 1663 0090 02       		.uleb128 0x2
 1664 0091 04       		.byte	0x4
 1665 0092 07       		.byte	0x7
 1666 0093 BA030000 		.4byte	.LASF12
 1667 0097 03       		.uleb128 0x3
 1668 0098 1F080000 		.4byte	.LASF13
 1669 009c 03       		.byte	0x3
 1670 009d 18       		.byte	0x18
 1671 009e 2C000000 		.4byte	0x2c
 1672 00a2 03       		.uleb128 0x3
 1673 00a3 F9020000 		.4byte	.LASF14
 1674 00a7 03       		.byte	0x3
 1675 00a8 24       		.byte	0x24
 1676 00a9 45000000 		.4byte	0x45
 1677 00ad 03       		.uleb128 0x3
 1678 00ae 86060000 		.4byte	.LASF15
 1679 00b2 03       		.byte	0x3
 1680 00b3 2C       		.byte	0x2c
 1681 00b4 57000000 		.4byte	0x57
 1682 00b8 05       		.uleb128 0x5
 1683 00b9 AD000000 		.4byte	0xad
 1684 00bd 03       		.uleb128 0x3
 1685 00be 18070000 		.4byte	.LASF16
 1686 00c2 03       		.byte	0x3
 1687 00c3 30       		.byte	0x30
 1688 00c4 69000000 		.4byte	0x69
 1689 00c8 05       		.uleb128 0x5
 1690 00c9 BD000000 		.4byte	0xbd
 1691 00cd 06       		.uleb128 0x6
 1692 00ce C1010000 		.4byte	.LASF116
 1693 00d2 06       		.byte	0x6
 1694 00d3 9806     		.2byte	0x698
 1695 00d5 B8000000 		.4byte	0xb8
 1696 00d9 07       		.uleb128 0x7
 1697 00da 07       		.byte	0x7
 1698 00db 01       		.byte	0x1
 1699 00dc 37000000 		.4byte	0x37
 1700 00e0 04       		.byte	0x4
 1701 00e1 F701     		.2byte	0x1f7
 1702 00e3 F4000000 		.4byte	0xf4
 1703 00e7 08       		.uleb128 0x8
 1704 00e8 0A060000 		.4byte	.LASF17
 1705 00ec 00       		.byte	0
 1706 00ed 09       		.uleb128 0x9
 1707 00ee 53455400 		.ascii	"SET\000"
 1708 00f2 01       		.byte	0x1
 1709 00f3 00       		.byte	0
 1710 00f4 0A       		.uleb128 0xa
ARM GAS  /tmp/ccHl477X.s 			page 31


 1711 00f5 25000000 		.4byte	.LASF18
 1712 00f9 04       		.byte	0x4
 1713 00fa F701     		.2byte	0x1f7
 1714 00fc D9000000 		.4byte	0xd9
 1715 0100 0A       		.uleb128 0xa
 1716 0101 99030000 		.4byte	.LASF19
 1717 0105 04       		.byte	0x4
 1718 0106 F701     		.2byte	0x1f7
 1719 0108 D9000000 		.4byte	0xd9
 1720 010c 07       		.uleb128 0x7
 1721 010d 07       		.byte	0x7
 1722 010e 01       		.byte	0x1
 1723 010f 37000000 		.4byte	0x37
 1724 0113 04       		.byte	0x4
 1725 0114 F901     		.2byte	0x1f9
 1726 0116 27010000 		.4byte	0x127
 1727 011a 08       		.uleb128 0x8
 1728 011b 88010000 		.4byte	.LASF20
 1729 011f 00       		.byte	0
 1730 0120 08       		.uleb128 0x8
 1731 0121 BA020000 		.4byte	.LASF21
 1732 0125 01       		.byte	0x1
 1733 0126 00       		.byte	0
 1734 0127 0A       		.uleb128 0xa
 1735 0128 89030000 		.4byte	.LASF22
 1736 012c 04       		.byte	0x4
 1737 012d F901     		.2byte	0x1f9
 1738 012f 0C010000 		.4byte	0x10c
 1739 0133 0B       		.uleb128 0xb
 1740 0134 50       		.byte	0x50
 1741 0135 04       		.byte	0x4
 1742 0136 0A02     		.2byte	0x20a
 1743 0138 3F020000 		.4byte	0x23f
 1744 013c 0C       		.uleb128 0xc
 1745 013d 535200   		.ascii	"SR\000"
 1746 0140 04       		.byte	0x4
 1747 0141 0C02     		.2byte	0x20c
 1748 0143 C8000000 		.4byte	0xc8
 1749 0147 00       		.byte	0
 1750 0148 0C       		.uleb128 0xc
 1751 0149 43523100 		.ascii	"CR1\000"
 1752 014d 04       		.byte	0x4
 1753 014e 0D02     		.2byte	0x20d
 1754 0150 C8000000 		.4byte	0xc8
 1755 0154 04       		.byte	0x4
 1756 0155 0C       		.uleb128 0xc
 1757 0156 43523200 		.ascii	"CR2\000"
 1758 015a 04       		.byte	0x4
 1759 015b 0E02     		.2byte	0x20e
 1760 015d C8000000 		.4byte	0xc8
 1761 0161 08       		.byte	0x8
 1762 0162 0D       		.uleb128 0xd
 1763 0163 8B050000 		.4byte	.LASF23
 1764 0167 04       		.byte	0x4
 1765 0168 0F02     		.2byte	0x20f
 1766 016a C8000000 		.4byte	0xc8
 1767 016e 0C       		.byte	0xc
ARM GAS  /tmp/ccHl477X.s 			page 32


 1768 016f 0D       		.uleb128 0xd
 1769 0170 50000000 		.4byte	.LASF24
 1770 0174 04       		.byte	0x4
 1771 0175 1002     		.2byte	0x210
 1772 0177 C8000000 		.4byte	0xc8
 1773 017b 10       		.byte	0x10
 1774 017c 0D       		.uleb128 0xd
 1775 017d A7010000 		.4byte	.LASF25
 1776 0181 04       		.byte	0x4
 1777 0182 1102     		.2byte	0x211
 1778 0184 C8000000 		.4byte	0xc8
 1779 0188 14       		.byte	0x14
 1780 0189 0D       		.uleb128 0xd
 1781 018a E6040000 		.4byte	.LASF26
 1782 018e 04       		.byte	0x4
 1783 018f 1202     		.2byte	0x212
 1784 0191 C8000000 		.4byte	0xc8
 1785 0195 18       		.byte	0x18
 1786 0196 0D       		.uleb128 0xd
 1787 0197 EC040000 		.4byte	.LASF27
 1788 019b 04       		.byte	0x4
 1789 019c 1302     		.2byte	0x213
 1790 019e C8000000 		.4byte	0xc8
 1791 01a2 1C       		.byte	0x1c
 1792 01a3 0D       		.uleb128 0xd
 1793 01a4 F2060000 		.4byte	.LASF28
 1794 01a8 04       		.byte	0x4
 1795 01a9 1402     		.2byte	0x214
 1796 01ab C8000000 		.4byte	0xc8
 1797 01af 20       		.byte	0x20
 1798 01b0 0C       		.uleb128 0xc
 1799 01b1 48545200 		.ascii	"HTR\000"
 1800 01b5 04       		.byte	0x4
 1801 01b6 1502     		.2byte	0x215
 1802 01b8 C8000000 		.4byte	0xc8
 1803 01bc 24       		.byte	0x24
 1804 01bd 0C       		.uleb128 0xc
 1805 01be 4C545200 		.ascii	"LTR\000"
 1806 01c2 04       		.byte	0x4
 1807 01c3 1602     		.2byte	0x216
 1808 01c5 C8000000 		.4byte	0xc8
 1809 01c9 28       		.byte	0x28
 1810 01ca 0D       		.uleb128 0xd
 1811 01cb CD050000 		.4byte	.LASF29
 1812 01cf 04       		.byte	0x4
 1813 01d0 1702     		.2byte	0x217
 1814 01d2 C8000000 		.4byte	0xc8
 1815 01d6 2C       		.byte	0x2c
 1816 01d7 0D       		.uleb128 0xd
 1817 01d8 D2050000 		.4byte	.LASF30
 1818 01dc 04       		.byte	0x4
 1819 01dd 1802     		.2byte	0x218
 1820 01df C8000000 		.4byte	0xc8
 1821 01e3 30       		.byte	0x30
 1822 01e4 0D       		.uleb128 0xd
 1823 01e5 D7050000 		.4byte	.LASF31
 1824 01e9 04       		.byte	0x4
ARM GAS  /tmp/ccHl477X.s 			page 33


 1825 01ea 1902     		.2byte	0x219
 1826 01ec C8000000 		.4byte	0xc8
 1827 01f0 34       		.byte	0x34
 1828 01f1 0D       		.uleb128 0xd
 1829 01f2 CE010000 		.4byte	.LASF32
 1830 01f6 04       		.byte	0x4
 1831 01f7 1A02     		.2byte	0x21a
 1832 01f9 C8000000 		.4byte	0xc8
 1833 01fd 38       		.byte	0x38
 1834 01fe 0D       		.uleb128 0xd
 1835 01ff 39080000 		.4byte	.LASF33
 1836 0203 04       		.byte	0x4
 1837 0204 1B02     		.2byte	0x21b
 1838 0206 C8000000 		.4byte	0xc8
 1839 020a 3C       		.byte	0x3c
 1840 020b 0D       		.uleb128 0xd
 1841 020c 3E080000 		.4byte	.LASF34
 1842 0210 04       		.byte	0x4
 1843 0211 1C02     		.2byte	0x21c
 1844 0213 C8000000 		.4byte	0xc8
 1845 0217 40       		.byte	0x40
 1846 0218 0D       		.uleb128 0xd
 1847 0219 43080000 		.4byte	.LASF35
 1848 021d 04       		.byte	0x4
 1849 021e 1D02     		.2byte	0x21d
 1850 0220 C8000000 		.4byte	0xc8
 1851 0224 44       		.byte	0x44
 1852 0225 0D       		.uleb128 0xd
 1853 0226 48080000 		.4byte	.LASF36
 1854 022a 04       		.byte	0x4
 1855 022b 1E02     		.2byte	0x21e
 1856 022d C8000000 		.4byte	0xc8
 1857 0231 48       		.byte	0x48
 1858 0232 0C       		.uleb128 0xc
 1859 0233 445200   		.ascii	"DR\000"
 1860 0236 04       		.byte	0x4
 1861 0237 1F02     		.2byte	0x21f
 1862 0239 C8000000 		.4byte	0xc8
 1863 023d 4C       		.byte	0x4c
 1864 023e 00       		.byte	0
 1865 023f 0A       		.uleb128 0xa
 1866 0240 02030000 		.4byte	.LASF37
 1867 0244 04       		.byte	0x4
 1868 0245 2002     		.2byte	0x220
 1869 0247 33010000 		.4byte	0x133
 1870 024b 0B       		.uleb128 0xb
 1871 024c 0C       		.byte	0xc
 1872 024d 04       		.byte	0x4
 1873 024e 2202     		.2byte	0x222
 1874 0250 7C020000 		.4byte	0x27c
 1875 0254 0C       		.uleb128 0xc
 1876 0255 43535200 		.ascii	"CSR\000"
 1877 0259 04       		.byte	0x4
 1878 025a 2402     		.2byte	0x224
 1879 025c C8000000 		.4byte	0xc8
 1880 0260 00       		.byte	0
 1881 0261 0C       		.uleb128 0xc
ARM GAS  /tmp/ccHl477X.s 			page 34


 1882 0262 43435200 		.ascii	"CCR\000"
 1883 0266 04       		.byte	0x4
 1884 0267 2502     		.2byte	0x225
 1885 0269 C8000000 		.4byte	0xc8
 1886 026d 04       		.byte	0x4
 1887 026e 0C       		.uleb128 0xc
 1888 026f 43445200 		.ascii	"CDR\000"
 1889 0273 04       		.byte	0x4
 1890 0274 2602     		.2byte	0x226
 1891 0276 C8000000 		.4byte	0xc8
 1892 027a 08       		.byte	0x8
 1893 027b 00       		.byte	0
 1894 027c 0A       		.uleb128 0xa
 1895 027d 4B050000 		.4byte	.LASF38
 1896 0281 04       		.byte	0x4
 1897 0282 2802     		.2byte	0x228
 1898 0284 4B020000 		.4byte	0x24b
 1899 0288 0E       		.uleb128 0xe
 1900 0289 18       		.byte	0x18
 1901 028a 05       		.byte	0x5
 1902 028b 35       		.byte	0x35
 1903 028c E5020000 		.4byte	0x2e5
 1904 0290 0F       		.uleb128 0xf
 1905 0291 57080000 		.4byte	.LASF39
 1906 0295 05       		.byte	0x5
 1907 0296 37       		.byte	0x37
 1908 0297 BD000000 		.4byte	0xbd
 1909 029b 00       		.byte	0
 1910 029c 0F       		.uleb128 0xf
 1911 029d E1060000 		.4byte	.LASF40
 1912 02a1 05       		.byte	0x5
 1913 02a2 39       		.byte	0x39
 1914 02a3 27010000 		.4byte	0x127
 1915 02a7 04       		.byte	0x4
 1916 02a8 0F       		.uleb128 0xf
 1917 02a9 6E020000 		.4byte	.LASF41
 1918 02ad 05       		.byte	0x5
 1919 02ae 3D       		.byte	0x3d
 1920 02af 27010000 		.4byte	0x127
 1921 02b3 05       		.byte	0x5
 1922 02b4 0F       		.uleb128 0xf
 1923 02b5 C8060000 		.4byte	.LASF42
 1924 02b9 05       		.byte	0x5
 1925 02ba 40       		.byte	0x40
 1926 02bb BD000000 		.4byte	0xbd
 1927 02bf 08       		.byte	0x8
 1928 02c0 0F       		.uleb128 0xf
 1929 02c1 10000000 		.4byte	.LASF43
 1930 02c5 05       		.byte	0x5
 1931 02c6 44       		.byte	0x44
 1932 02c7 BD000000 		.4byte	0xbd
 1933 02cb 0C       		.byte	0xc
 1934 02cc 0F       		.uleb128 0xf
 1935 02cd 21070000 		.4byte	.LASF44
 1936 02d1 05       		.byte	0x5
 1937 02d2 48       		.byte	0x48
 1938 02d3 BD000000 		.4byte	0xbd
ARM GAS  /tmp/ccHl477X.s 			page 35


 1939 02d7 10       		.byte	0x10
 1940 02d8 0F       		.uleb128 0xf
 1941 02d9 AD010000 		.4byte	.LASF45
 1942 02dd 05       		.byte	0x5
 1943 02de 4B       		.byte	0x4b
 1944 02df 97000000 		.4byte	0x97
 1945 02e3 14       		.byte	0x14
 1946 02e4 00       		.byte	0
 1947 02e5 03       		.uleb128 0x3
 1948 02e6 F8060000 		.4byte	.LASF46
 1949 02ea 05       		.byte	0x5
 1950 02eb 4F       		.byte	0x4f
 1951 02ec 88020000 		.4byte	0x288
 1952 02f0 0E       		.uleb128 0xe
 1953 02f1 10       		.byte	0x10
 1954 02f2 05       		.byte	0x5
 1955 02f3 54       		.byte	0x54
 1956 02f4 29030000 		.4byte	0x329
 1957 02f8 0F       		.uleb128 0xf
 1958 02f9 66070000 		.4byte	.LASF47
 1959 02fd 05       		.byte	0x5
 1960 02fe 56       		.byte	0x56
 1961 02ff BD000000 		.4byte	0xbd
 1962 0303 00       		.byte	0
 1963 0304 0F       		.uleb128 0xf
 1964 0305 BC080000 		.4byte	.LASF48
 1965 0309 05       		.byte	0x5
 1966 030a 59       		.byte	0x59
 1967 030b BD000000 		.4byte	0xbd
 1968 030f 04       		.byte	0x4
 1969 0310 0F       		.uleb128 0xf
 1970 0311 FF030000 		.4byte	.LASF49
 1971 0315 05       		.byte	0x5
 1972 0316 5C       		.byte	0x5c
 1973 0317 BD000000 		.4byte	0xbd
 1974 031b 08       		.byte	0x8
 1975 031c 0F       		.uleb128 0xf
 1976 031d 9B080000 		.4byte	.LASF50
 1977 0321 05       		.byte	0x5
 1978 0322 60       		.byte	0x60
 1979 0323 BD000000 		.4byte	0xbd
 1980 0327 0C       		.byte	0xc
 1981 0328 00       		.byte	0
 1982 0329 03       		.uleb128 0x3
 1983 032a 30000000 		.4byte	.LASF51
 1984 032e 05       		.byte	0x5
 1985 032f 64       		.byte	0x64
 1986 0330 F0020000 		.4byte	0x2f0
 1987 0334 10       		.uleb128 0x10
 1988 0335 E3050000 		.4byte	.LASF57
 1989 0339 01       		.byte	0x1
 1990 033a B906     		.2byte	0x6b9
 1991 033c 00000000 		.4byte	.LFB148
 1992 0340 08000000 		.4byte	.LFE148-.LFB148
 1993 0344 01       		.uleb128 0x1
 1994 0345 9C       		.byte	0x9c
 1995 0346 79030000 		.4byte	0x379
ARM GAS  /tmp/ccHl477X.s 			page 36


 1996 034a 11       		.uleb128 0x11
 1997 034b 56000000 		.4byte	.LASF52
 1998 034f 01       		.byte	0x1
 1999 0350 B906     		.2byte	0x6b9
 2000 0352 79030000 		.4byte	0x379
 2001 0356 01       		.uleb128 0x1
 2002 0357 50       		.byte	0x50
 2003 0358 12       		.uleb128 0x12
 2004 0359 09000000 		.4byte	.LASF53
 2005 035d 01       		.byte	0x1
 2006 035e B906     		.2byte	0x6b9
 2007 0360 A2000000 		.4byte	0xa2
 2008 0364 00000000 		.4byte	.LLST45
 2009 0368 13       		.uleb128 0x13
 2010 0369 DC050000 		.4byte	.LASF54
 2011 036d 01       		.byte	0x1
 2012 036e BB06     		.2byte	0x6bb
 2013 0370 97000000 		.4byte	0x97
 2014 0374 21000000 		.4byte	.LLST46
 2015 0378 00       		.byte	0
 2016 0379 14       		.uleb128 0x14
 2017 037a 04       		.byte	0x4
 2018 037b 3F020000 		.4byte	0x23f
 2019 037f 15       		.uleb128 0x15
 2020 0380 08070000 		.4byte	.LASF60
 2021 0384 01       		.byte	0x1
 2022 0385 9006     		.2byte	0x690
 2023 0387 00010000 		.4byte	0x100
 2024 038b 00000000 		.4byte	.LFB147
 2025 038f 1C000000 		.4byte	.LFE147-.LFB147
 2026 0393 01       		.uleb128 0x1
 2027 0394 9C       		.byte	0x9c
 2028 0395 EA030000 		.4byte	0x3ea
 2029 0399 12       		.uleb128 0x12
 2030 039a 56000000 		.4byte	.LASF52
 2031 039e 01       		.byte	0x1
 2032 039f 9006     		.2byte	0x690
 2033 03a1 79030000 		.4byte	0x379
 2034 03a5 48000000 		.4byte	.LLST40
 2035 03a9 12       		.uleb128 0x12
 2036 03aa 09000000 		.4byte	.LASF53
 2037 03ae 01       		.byte	0x1
 2038 03af 9006     		.2byte	0x690
 2039 03b1 A2000000 		.4byte	0xa2
 2040 03b5 69000000 		.4byte	.LLST41
 2041 03b9 13       		.uleb128 0x13
 2042 03ba 4D080000 		.4byte	.LASF55
 2043 03be 01       		.byte	0x1
 2044 03bf 9206     		.2byte	0x692
 2045 03c1 00010000 		.4byte	0x100
 2046 03c5 8A000000 		.4byte	.LLST42
 2047 03c9 13       		.uleb128 0x13
 2048 03ca DC050000 		.4byte	.LASF54
 2049 03ce 01       		.byte	0x1
 2050 03cf 9306     		.2byte	0x693
 2051 03d1 BD000000 		.4byte	0xbd
 2052 03d5 A9000000 		.4byte	.LLST43
ARM GAS  /tmp/ccHl477X.s 			page 37


 2053 03d9 13       		.uleb128 0x13
 2054 03da 89070000 		.4byte	.LASF56
 2055 03de 01       		.byte	0x1
 2056 03df 9306     		.2byte	0x693
 2057 03e1 BD000000 		.4byte	0xbd
 2058 03e5 D8000000 		.4byte	.LLST44
 2059 03e9 00       		.byte	0
 2060 03ea 10       		.uleb128 0x10
 2061 03eb D8040000 		.4byte	.LASF58
 2062 03ef 01       		.byte	0x1
 2063 03f0 7B06     		.2byte	0x67b
 2064 03f2 00000000 		.4byte	.LFB146
 2065 03f6 06000000 		.4byte	.LFE146-.LFB146
 2066 03fa 01       		.uleb128 0x1
 2067 03fb 9C       		.byte	0x9c
 2068 03fc 1F040000 		.4byte	0x41f
 2069 0400 11       		.uleb128 0x11
 2070 0401 56000000 		.4byte	.LASF52
 2071 0405 01       		.byte	0x1
 2072 0406 7B06     		.2byte	0x67b
 2073 0408 79030000 		.4byte	0x379
 2074 040c 01       		.uleb128 0x1
 2075 040d 50       		.byte	0x50
 2076 040e 12       		.uleb128 0x12
 2077 040f 8E020000 		.4byte	.LASF59
 2078 0413 01       		.byte	0x1
 2079 0414 7B06     		.2byte	0x67b
 2080 0416 97000000 		.4byte	0x97
 2081 041a 17010000 		.4byte	.LLST39
 2082 041e 00       		.byte	0
 2083 041f 15       		.uleb128 0x15
 2084 0420 27080000 		.4byte	.LASF61
 2085 0424 01       		.byte	0x1
 2086 0425 5806     		.2byte	0x658
 2087 0427 F4000000 		.4byte	0xf4
 2088 042b 00000000 		.4byte	.LFB145
 2089 042f 0C000000 		.4byte	.LFE145-.LFB145
 2090 0433 01       		.uleb128 0x1
 2091 0434 9C       		.byte	0x9c
 2092 0435 68040000 		.4byte	0x468
 2093 0439 12       		.uleb128 0x12
 2094 043a 56000000 		.4byte	.LASF52
 2095 043e 01       		.byte	0x1
 2096 043f 5806     		.2byte	0x658
 2097 0441 79030000 		.4byte	0x379
 2098 0445 38010000 		.4byte	.LLST37
 2099 0449 11       		.uleb128 0x11
 2100 044a 8E020000 		.4byte	.LASF59
 2101 044e 01       		.byte	0x1
 2102 044f 5806     		.2byte	0x658
 2103 0451 97000000 		.4byte	0x97
 2104 0455 01       		.uleb128 0x1
 2105 0456 51       		.byte	0x51
 2106 0457 13       		.uleb128 0x13
 2107 0458 4D080000 		.4byte	.LASF55
 2108 045c 01       		.byte	0x1
 2109 045d 5A06     		.2byte	0x65a
ARM GAS  /tmp/ccHl477X.s 			page 38


 2110 045f F4000000 		.4byte	0xf4
 2111 0463 59010000 		.4byte	.LLST38
 2112 0467 00       		.byte	0
 2113 0468 10       		.uleb128 0x10
 2114 0469 C7030000 		.4byte	.LASF62
 2115 046d 01       		.byte	0x1
 2116 046e 3306     		.2byte	0x633
 2117 0470 00000000 		.4byte	.LFB144
 2118 0474 18000000 		.4byte	.LFE144-.LFB144
 2119 0478 01       		.uleb128 0x1
 2120 0479 9C       		.byte	0x9c
 2121 047a BB040000 		.4byte	0x4bb
 2122 047e 11       		.uleb128 0x11
 2123 047f 56000000 		.4byte	.LASF52
 2124 0483 01       		.byte	0x1
 2125 0484 3306     		.2byte	0x633
 2126 0486 79030000 		.4byte	0x379
 2127 048a 01       		.uleb128 0x1
 2128 048b 50       		.byte	0x50
 2129 048c 12       		.uleb128 0x12
 2130 048d 09000000 		.4byte	.LASF53
 2131 0491 01       		.byte	0x1
 2132 0492 3306     		.2byte	0x633
 2133 0494 A2000000 		.4byte	0xa2
 2134 0498 82010000 		.4byte	.LLST35
 2135 049c 11       		.uleb128 0x11
 2136 049d 00000000 		.4byte	.LASF63
 2137 04a1 01       		.byte	0x1
 2138 04a2 3306     		.2byte	0x633
 2139 04a4 27010000 		.4byte	0x127
 2140 04a8 01       		.uleb128 0x1
 2141 04a9 52       		.byte	0x52
 2142 04aa 13       		.uleb128 0x13
 2143 04ab DC050000 		.4byte	.LASF54
 2144 04af 01       		.byte	0x1
 2145 04b0 3506     		.2byte	0x635
 2146 04b2 BD000000 		.4byte	0xbd
 2147 04b6 A3010000 		.4byte	.LLST36
 2148 04ba 00       		.byte	0
 2149 04bb 15       		.uleb128 0x15
 2150 04bc 66080000 		.4byte	.LASF64
 2151 04c0 01       		.byte	0x1
 2152 04c1 C705     		.2byte	0x5c7
 2153 04c3 A2000000 		.4byte	0xa2
 2154 04c7 00000000 		.4byte	.LFB143
 2155 04cb 1A000000 		.4byte	.LFE143-.LFB143
 2156 04cf 01       		.uleb128 0x1
 2157 04d0 9C       		.byte	0x9c
 2158 04d1 05050000 		.4byte	0x505
 2159 04d5 12       		.uleb128 0x12
 2160 04d6 56000000 		.4byte	.LASF52
 2161 04da 01       		.byte	0x1
 2162 04db C705     		.2byte	0x5c7
 2163 04dd 79030000 		.4byte	0x379
 2164 04e1 FE010000 		.4byte	.LLST33
 2165 04e5 12       		.uleb128 0x12
 2166 04e6 10060000 		.4byte	.LASF65
ARM GAS  /tmp/ccHl477X.s 			page 39


 2167 04ea 01       		.byte	0x1
 2168 04eb C705     		.2byte	0x5c7
 2169 04ed 97000000 		.4byte	0x97
 2170 04f1 1F020000 		.4byte	.LLST34
 2171 04f5 16       		.uleb128 0x16
 2172 04f6 746D7000 		.ascii	"tmp\000"
 2173 04fa 01       		.byte	0x1
 2174 04fb C905     		.2byte	0x5c9
 2175 04fd C8000000 		.4byte	0xc8
 2176 0501 02       		.uleb128 0x2
 2177 0502 91       		.byte	0x91
 2178 0503 7C       		.sleb128 -4
 2179 0504 00       		.byte	0
 2180 0505 10       		.uleb128 0x10
 2181 0506 A2030000 		.4byte	.LASF66
 2182 050a 01       		.byte	0x1
 2183 050b AB05     		.2byte	0x5ab
 2184 050d 00000000 		.4byte	.LFB142
 2185 0511 14000000 		.4byte	.LFE142-.LFB142
 2186 0515 01       		.uleb128 0x1
 2187 0516 9C       		.byte	0x9c
 2188 0517 38050000 		.4byte	0x538
 2189 051b 11       		.uleb128 0x11
 2190 051c 56000000 		.4byte	.LASF52
 2191 0520 01       		.byte	0x1
 2192 0521 AB05     		.2byte	0x5ab
 2193 0523 79030000 		.4byte	0x379
 2194 0527 01       		.uleb128 0x1
 2195 0528 50       		.byte	0x50
 2196 0529 11       		.uleb128 0x11
 2197 052a 00000000 		.4byte	.LASF63
 2198 052e 01       		.byte	0x1
 2199 052f AB05     		.2byte	0x5ab
 2200 0531 27010000 		.4byte	0x127
 2201 0535 01       		.uleb128 0x1
 2202 0536 51       		.byte	0x51
 2203 0537 00       		.byte	0
 2204 0538 10       		.uleb128 0x10
 2205 0539 2F070000 		.4byte	.LASF67
 2206 053d 01       		.byte	0x1
 2207 053e 9105     		.2byte	0x591
 2208 0540 00000000 		.4byte	.LFB141
 2209 0544 14000000 		.4byte	.LFE141-.LFB141
 2210 0548 01       		.uleb128 0x1
 2211 0549 9C       		.byte	0x9c
 2212 054a 6B050000 		.4byte	0x56b
 2213 054e 11       		.uleb128 0x11
 2214 054f 56000000 		.4byte	.LASF52
 2215 0553 01       		.byte	0x1
 2216 0554 9105     		.2byte	0x591
 2217 0556 79030000 		.4byte	0x379
 2218 055a 01       		.uleb128 0x1
 2219 055b 50       		.byte	0x50
 2220 055c 11       		.uleb128 0x11
 2221 055d 00000000 		.4byte	.LASF63
 2222 0561 01       		.byte	0x1
 2223 0562 9105     		.2byte	0x591
ARM GAS  /tmp/ccHl477X.s 			page 40


 2224 0564 27010000 		.4byte	0x127
 2225 0568 01       		.uleb128 0x1
 2226 0569 51       		.byte	0x51
 2227 056a 00       		.byte	0
 2228 056b 17       		.uleb128 0x17
 2229 056c 24060000 		.4byte	.LASF117
 2230 0570 01       		.byte	0x1
 2231 0571 7405     		.2byte	0x574
 2232 0573 F4000000 		.4byte	0xf4
 2233 0577 94050000 		.4byte	0x594
 2234 057b 18       		.uleb128 0x18
 2235 057c 56000000 		.4byte	.LASF52
 2236 0580 01       		.byte	0x1
 2237 0581 7405     		.2byte	0x574
 2238 0583 79030000 		.4byte	0x379
 2239 0587 19       		.uleb128 0x19
 2240 0588 4D080000 		.4byte	.LASF55
 2241 058c 01       		.byte	0x1
 2242 058d 7605     		.2byte	0x576
 2243 058f F4000000 		.4byte	0xf4
 2244 0593 00       		.byte	0
 2245 0594 10       		.uleb128 0x10
 2246 0595 11040000 		.4byte	.LASF68
 2247 0599 01       		.byte	0x1
 2248 059a 6705     		.2byte	0x567
 2249 059c 00000000 		.4byte	.LFB139
 2250 05a0 0A000000 		.4byte	.LFE139-.LFB139
 2251 05a4 01       		.uleb128 0x1
 2252 05a5 9C       		.byte	0x9c
 2253 05a6 B9050000 		.4byte	0x5b9
 2254 05aa 11       		.uleb128 0x11
 2255 05ab 56000000 		.4byte	.LASF52
 2256 05af 01       		.byte	0x1
 2257 05b0 6705     		.2byte	0x567
 2258 05b2 79030000 		.4byte	0x379
 2259 05b6 01       		.uleb128 0x1
 2260 05b7 50       		.byte	0x50
 2261 05b8 00       		.byte	0
 2262 05b9 10       		.uleb128 0x10
 2263 05ba F2040000 		.4byte	.LASF69
 2264 05be 01       		.byte	0x1
 2265 05bf 5205     		.2byte	0x552
 2266 05c1 00000000 		.4byte	.LFB138
 2267 05c5 0C000000 		.4byte	.LFE138-.LFB138
 2268 05c9 01       		.uleb128 0x1
 2269 05ca 9C       		.byte	0x9c
 2270 05cb FE050000 		.4byte	0x5fe
 2271 05cf 11       		.uleb128 0x11
 2272 05d0 56000000 		.4byte	.LASF52
 2273 05d4 01       		.byte	0x1
 2274 05d5 5205     		.2byte	0x552
 2275 05d7 79030000 		.4byte	0x379
 2276 05db 01       		.uleb128 0x1
 2277 05dc 50       		.byte	0x50
 2278 05dd 12       		.uleb128 0x12
 2279 05de 10020000 		.4byte	.LASF70
 2280 05e2 01       		.byte	0x1
ARM GAS  /tmp/ccHl477X.s 			page 41


 2281 05e3 5205     		.2byte	0x552
 2282 05e5 BD000000 		.4byte	0xbd
 2283 05e9 40020000 		.4byte	.LLST31
 2284 05ed 13       		.uleb128 0x13
 2285 05ee 48020000 		.4byte	.LASF71
 2286 05f2 01       		.byte	0x1
 2287 05f3 5405     		.2byte	0x554
 2288 05f5 BD000000 		.4byte	0xbd
 2289 05f9 61020000 		.4byte	.LLST32
 2290 05fd 00       		.byte	0
 2291 05fe 10       		.uleb128 0x10
 2292 05ff 4E060000 		.4byte	.LASF72
 2293 0603 01       		.byte	0x1
 2294 0604 3005     		.2byte	0x530
 2295 0606 00000000 		.4byte	.LFB137
 2296 060a 0C000000 		.4byte	.LFE137-.LFB137
 2297 060e 01       		.uleb128 0x1
 2298 060f 9C       		.byte	0x9c
 2299 0610 43060000 		.4byte	0x643
 2300 0614 11       		.uleb128 0x11
 2301 0615 56000000 		.4byte	.LASF52
 2302 0619 01       		.byte	0x1
 2303 061a 3005     		.2byte	0x530
 2304 061c 79030000 		.4byte	0x379
 2305 0620 01       		.uleb128 0x1
 2306 0621 50       		.byte	0x50
 2307 0622 12       		.uleb128 0x12
 2308 0623 5E050000 		.4byte	.LASF73
 2309 0627 01       		.byte	0x1
 2310 0628 3005     		.2byte	0x530
 2311 062a BD000000 		.4byte	0xbd
 2312 062e 8B020000 		.4byte	.LLST29
 2313 0632 13       		.uleb128 0x13
 2314 0633 48020000 		.4byte	.LASF71
 2315 0637 01       		.byte	0x1
 2316 0638 3205     		.2byte	0x532
 2317 063a BD000000 		.4byte	0xbd
 2318 063e AC020000 		.4byte	.LLST30
 2319 0642 00       		.byte	0
 2320 0643 10       		.uleb128 0x10
 2321 0644 B7050000 		.4byte	.LASF74
 2322 0648 01       		.byte	0x1
 2323 0649 0A05     		.2byte	0x50a
 2324 064b 00000000 		.4byte	.LFB136
 2325 064f 16000000 		.4byte	.LFE136-.LFB136
 2326 0653 01       		.uleb128 0x1
 2327 0654 9C       		.byte	0x9c
 2328 0655 95060000 		.4byte	0x695
 2329 0659 11       		.uleb128 0x11
 2330 065a 56000000 		.4byte	.LASF52
 2331 065e 01       		.byte	0x1
 2332 065f 0A05     		.2byte	0x50a
 2333 0661 79030000 		.4byte	0x379
 2334 0665 01       		.uleb128 0x1
 2335 0666 50       		.byte	0x50
 2336 0667 12       		.uleb128 0x12
 2337 0668 10060000 		.4byte	.LASF65
ARM GAS  /tmp/ccHl477X.s 			page 42


 2338 066c 01       		.byte	0x1
 2339 066d 0A05     		.2byte	0x50a
 2340 066f 97000000 		.4byte	0x97
 2341 0673 D6020000 		.4byte	.LLST28
 2342 0677 11       		.uleb128 0x11
 2343 0678 18080000 		.4byte	.LASF75
 2344 067c 01       		.byte	0x1
 2345 067d 0A05     		.2byte	0x50a
 2346 067f A2000000 		.4byte	0xa2
 2347 0683 01       		.uleb128 0x1
 2348 0684 52       		.byte	0x52
 2349 0685 16       		.uleb128 0x16
 2350 0686 746D7000 		.ascii	"tmp\000"
 2351 068a 01       		.byte	0x1
 2352 068b 0C05     		.2byte	0x50c
 2353 068d C8000000 		.4byte	0xc8
 2354 0691 02       		.uleb128 0x2
 2355 0692 91       		.byte	0x91
 2356 0693 7C       		.sleb128 -4
 2357 0694 00       		.byte	0
 2358 0695 10       		.uleb128 0x10
 2359 0696 A6060000 		.4byte	.LASF76
 2360 069a 01       		.byte	0x1
 2361 069b E704     		.2byte	0x4e7
 2362 069d 00000000 		.4byte	.LFB135
 2363 06a1 10000000 		.4byte	.LFE135-.LFB135
 2364 06a5 01       		.uleb128 0x1
 2365 06a6 9C       		.byte	0x9c
 2366 06a7 EA060000 		.4byte	0x6ea
 2367 06ab 11       		.uleb128 0x11
 2368 06ac 56000000 		.4byte	.LASF52
 2369 06b0 01       		.byte	0x1
 2370 06b1 E704     		.2byte	0x4e7
 2371 06b3 79030000 		.4byte	0x379
 2372 06b7 01       		.uleb128 0x1
 2373 06b8 50       		.byte	0x50
 2374 06b9 12       		.uleb128 0x12
 2375 06ba EB070000 		.4byte	.LASF77
 2376 06be 01       		.byte	0x1
 2377 06bf E704     		.2byte	0x4e7
 2378 06c1 97000000 		.4byte	0x97
 2379 06c5 F7020000 		.4byte	.LLST25
 2380 06c9 13       		.uleb128 0x13
 2381 06ca 9F040000 		.4byte	.LASF78
 2382 06ce 01       		.byte	0x1
 2383 06cf E904     		.2byte	0x4e9
 2384 06d1 BD000000 		.4byte	0xbd
 2385 06d5 18030000 		.4byte	.LLST26
 2386 06d9 13       		.uleb128 0x13
 2387 06da A7040000 		.4byte	.LASF79
 2388 06de 01       		.byte	0x1
 2389 06df EA04     		.2byte	0x4ea
 2390 06e1 BD000000 		.4byte	0xbd
 2391 06e5 37030000 		.4byte	.LLST27
 2392 06e9 00       		.byte	0
 2393 06ea 10       		.uleb128 0x10
 2394 06eb 2E020000 		.4byte	.LASF80
ARM GAS  /tmp/ccHl477X.s 			page 43


 2395 06ef 01       		.byte	0x1
 2396 06f0 A804     		.2byte	0x4a8
 2397 06f2 00000000 		.4byte	.LFB134
 2398 06f6 56000000 		.4byte	.LFE134-.LFB134
 2399 06fa 01       		.uleb128 0x1
 2400 06fb 9C       		.byte	0x9c
 2401 06fc 6F070000 		.4byte	0x76f
 2402 0700 11       		.uleb128 0x11
 2403 0701 56000000 		.4byte	.LASF52
 2404 0705 01       		.byte	0x1
 2405 0706 A804     		.2byte	0x4a8
 2406 0708 79030000 		.4byte	0x379
 2407 070c 01       		.uleb128 0x1
 2408 070d 50       		.byte	0x50
 2409 070e 12       		.uleb128 0x12
 2410 070f FE050000 		.4byte	.LASF81
 2411 0713 01       		.byte	0x1
 2412 0714 A804     		.2byte	0x4a8
 2413 0716 97000000 		.4byte	0x97
 2414 071a 5E030000 		.4byte	.LLST19
 2415 071e 12       		.uleb128 0x12
 2416 071f F9050000 		.4byte	.LASF82
 2417 0723 01       		.byte	0x1
 2418 0724 A804     		.2byte	0x4a8
 2419 0726 97000000 		.4byte	0x97
 2420 072a 8A030000 		.4byte	.LLST20
 2421 072e 12       		.uleb128 0x12
 2422 072f 91050000 		.4byte	.LASF83
 2423 0733 01       		.byte	0x1
 2424 0734 A804     		.2byte	0x4a8
 2425 0736 97000000 		.4byte	0x97
 2426 073a B6030000 		.4byte	.LLST21
 2427 073e 13       		.uleb128 0x13
 2428 073f 9F040000 		.4byte	.LASF78
 2429 0743 01       		.byte	0x1
 2430 0744 AA04     		.2byte	0x4aa
 2431 0746 BD000000 		.4byte	0xbd
 2432 074a F0030000 		.4byte	.LLST22
 2433 074e 13       		.uleb128 0x13
 2434 074f A7040000 		.4byte	.LASF79
 2435 0753 01       		.byte	0x1
 2436 0754 AA04     		.2byte	0x4aa
 2437 0756 BD000000 		.4byte	0xbd
 2438 075a 52040000 		.4byte	.LLST23
 2439 075e 13       		.uleb128 0x13
 2440 075f AF040000 		.4byte	.LASF84
 2441 0763 01       		.byte	0x1
 2442 0764 AA04     		.2byte	0x4aa
 2443 0766 BD000000 		.4byte	0xbd
 2444 076a D3040000 		.4byte	.LLST24
 2445 076e 00       		.byte	0
 2446 076f 10       		.uleb128 0x10
 2447 0770 BF070000 		.4byte	.LASF85
 2448 0774 01       		.byte	0x1
 2449 0775 5104     		.2byte	0x451
 2450 0777 00000000 		.4byte	.LFB133
 2451 077b 1C000000 		.4byte	.LFE133-.LFB133
ARM GAS  /tmp/ccHl477X.s 			page 44


 2452 077f 01       		.uleb128 0x1
 2453 0780 9C       		.byte	0x9c
 2454 0781 94070000 		.4byte	0x794
 2455 0785 11       		.uleb128 0x11
 2456 0786 00000000 		.4byte	.LASF63
 2457 078a 01       		.byte	0x1
 2458 078b 5104     		.2byte	0x451
 2459 078d 27010000 		.4byte	0x127
 2460 0791 01       		.uleb128 0x1
 2461 0792 50       		.byte	0x50
 2462 0793 00       		.byte	0
 2463 0794 10       		.uleb128 0x10
 2464 0795 97020000 		.4byte	.LASF86
 2465 0799 01       		.byte	0x1
 2466 079a 3604     		.2byte	0x436
 2467 079c 00000000 		.4byte	.LFB132
 2468 07a0 14000000 		.4byte	.LFE132-.LFB132
 2469 07a4 01       		.uleb128 0x1
 2470 07a5 9C       		.byte	0x9c
 2471 07a6 C7070000 		.4byte	0x7c7
 2472 07aa 11       		.uleb128 0x11
 2473 07ab 56000000 		.4byte	.LASF52
 2474 07af 01       		.byte	0x1
 2475 07b0 3604     		.2byte	0x436
 2476 07b2 79030000 		.4byte	0x379
 2477 07b6 01       		.uleb128 0x1
 2478 07b7 50       		.byte	0x50
 2479 07b8 11       		.uleb128 0x11
 2480 07b9 00000000 		.4byte	.LASF63
 2481 07bd 01       		.byte	0x1
 2482 07be 3604     		.2byte	0x436
 2483 07c0 27010000 		.4byte	0x127
 2484 07c4 01       		.uleb128 0x1
 2485 07c5 51       		.byte	0x51
 2486 07c6 00       		.byte	0
 2487 07c7 10       		.uleb128 0x10
 2488 07c8 40050000 		.4byte	.LASF87
 2489 07cc 01       		.byte	0x1
 2490 07cd 1E04     		.2byte	0x41e
 2491 07cf 00000000 		.4byte	.LFB131
 2492 07d3 14000000 		.4byte	.LFE131-.LFB131
 2493 07d7 01       		.uleb128 0x1
 2494 07d8 9C       		.byte	0x9c
 2495 07d9 FA070000 		.4byte	0x7fa
 2496 07dd 11       		.uleb128 0x11
 2497 07de 56000000 		.4byte	.LASF52
 2498 07e2 01       		.byte	0x1
 2499 07e3 1E04     		.2byte	0x41e
 2500 07e5 79030000 		.4byte	0x379
 2501 07e9 01       		.uleb128 0x1
 2502 07ea 50       		.byte	0x50
 2503 07eb 11       		.uleb128 0x11
 2504 07ec 00000000 		.4byte	.LASF63
 2505 07f0 01       		.byte	0x1
 2506 07f1 1E04     		.2byte	0x41e
 2507 07f3 27010000 		.4byte	0x127
 2508 07f7 01       		.uleb128 0x1
ARM GAS  /tmp/ccHl477X.s 			page 45


 2509 07f8 51       		.byte	0x51
 2510 07f9 00       		.byte	0
 2511 07fa 1A       		.uleb128 0x1a
 2512 07fb 20050000 		.4byte	.LASF118
 2513 07ff 01       		.byte	0x1
 2514 0800 ED03     		.2byte	0x3ed
 2515 0802 BD000000 		.4byte	0xbd
 2516 0806 00000000 		.4byte	.LFB130
 2517 080a 0C000000 		.4byte	.LFE130-.LFB130
 2518 080e 01       		.uleb128 0x1
 2519 080f 9C       		.byte	0x9c
 2520 0810 15       		.uleb128 0x15
 2521 0811 4F020000 		.4byte	.LASF88
 2522 0815 01       		.byte	0x1
 2523 0816 D803     		.2byte	0x3d8
 2524 0818 A2000000 		.4byte	0xa2
 2525 081c 00000000 		.4byte	.LFB129
 2526 0820 06000000 		.4byte	.LFE129-.LFB129
 2527 0824 01       		.uleb128 0x1
 2528 0825 9C       		.byte	0x9c
 2529 0826 3B080000 		.4byte	0x83b
 2530 082a 12       		.uleb128 0x12
 2531 082b 56000000 		.4byte	.LASF52
 2532 082f 01       		.byte	0x1
 2533 0830 D803     		.2byte	0x3d8
 2534 0832 79030000 		.4byte	0x379
 2535 0836 04050000 		.4byte	.LLST18
 2536 083a 00       		.byte	0
 2537 083b 10       		.uleb128 0x10
 2538 083c F2070000 		.4byte	.LASF89
 2539 0840 01       		.byte	0x1
 2540 0841 C103     		.2byte	0x3c1
 2541 0843 00000000 		.4byte	.LFB128
 2542 0847 14000000 		.4byte	.LFE128-.LFB128
 2543 084b 01       		.uleb128 0x1
 2544 084c 9C       		.byte	0x9c
 2545 084d 6E080000 		.4byte	0x86e
 2546 0851 11       		.uleb128 0x11
 2547 0852 56000000 		.4byte	.LASF52
 2548 0856 01       		.byte	0x1
 2549 0857 C103     		.2byte	0x3c1
 2550 0859 79030000 		.4byte	0x379
 2551 085d 01       		.uleb128 0x1
 2552 085e 50       		.byte	0x50
 2553 085f 11       		.uleb128 0x11
 2554 0860 00000000 		.4byte	.LASF63
 2555 0864 01       		.byte	0x1
 2556 0865 C103     		.2byte	0x3c1
 2557 0867 27010000 		.4byte	0x127
 2558 086b 01       		.uleb128 0x1
 2559 086c 51       		.byte	0x51
 2560 086d 00       		.byte	0
 2561 086e 10       		.uleb128 0x10
 2562 086f 28030000 		.4byte	.LASF90
 2563 0873 01       		.byte	0x1
 2564 0874 A103     		.2byte	0x3a1
 2565 0876 00000000 		.4byte	.LFB127
ARM GAS  /tmp/ccHl477X.s 			page 46


 2566 087a 10000000 		.4byte	.LFE127-.LFB127
 2567 087e 01       		.uleb128 0x1
 2568 087f 9C       		.byte	0x9c
 2569 0880 C3080000 		.4byte	0x8c3
 2570 0884 11       		.uleb128 0x11
 2571 0885 56000000 		.4byte	.LASF52
 2572 0889 01       		.byte	0x1
 2573 088a A103     		.2byte	0x3a1
 2574 088c 79030000 		.4byte	0x379
 2575 0890 01       		.uleb128 0x1
 2576 0891 50       		.byte	0x50
 2577 0892 12       		.uleb128 0x12
 2578 0893 19050000 		.4byte	.LASF91
 2579 0897 01       		.byte	0x1
 2580 0898 A103     		.2byte	0x3a1
 2581 089a 97000000 		.4byte	0x97
 2582 089e 25050000 		.4byte	.LLST15
 2583 08a2 13       		.uleb128 0x13
 2584 08a3 9F040000 		.4byte	.LASF78
 2585 08a7 01       		.byte	0x1
 2586 08a8 A303     		.2byte	0x3a3
 2587 08aa BD000000 		.4byte	0xbd
 2588 08ae 46050000 		.4byte	.LLST16
 2589 08b2 13       		.uleb128 0x13
 2590 08b3 A7040000 		.4byte	.LASF79
 2591 08b7 01       		.byte	0x1
 2592 08b8 A403     		.2byte	0x3a4
 2593 08ba BD000000 		.4byte	0xbd
 2594 08be 65050000 		.4byte	.LLST17
 2595 08c2 00       		.byte	0
 2596 08c3 10       		.uleb128 0x10
 2597 08c4 C2040000 		.4byte	.LASF92
 2598 08c8 01       		.byte	0x1
 2599 08c9 8703     		.2byte	0x387
 2600 08cb 00000000 		.4byte	.LFB126
 2601 08cf 14000000 		.4byte	.LFE126-.LFB126
 2602 08d3 01       		.uleb128 0x1
 2603 08d4 9C       		.byte	0x9c
 2604 08d5 F6080000 		.4byte	0x8f6
 2605 08d9 11       		.uleb128 0x11
 2606 08da 56000000 		.4byte	.LASF52
 2607 08de 01       		.byte	0x1
 2608 08df 8703     		.2byte	0x387
 2609 08e1 79030000 		.4byte	0x379
 2610 08e5 01       		.uleb128 0x1
 2611 08e6 50       		.byte	0x50
 2612 08e7 11       		.uleb128 0x11
 2613 08e8 00000000 		.4byte	.LASF63
 2614 08ec 01       		.byte	0x1
 2615 08ed 8703     		.2byte	0x387
 2616 08ef 27010000 		.4byte	0x127
 2617 08f3 01       		.uleb128 0x1
 2618 08f4 51       		.byte	0x51
 2619 08f5 00       		.byte	0
 2620 08f6 10       		.uleb128 0x10
 2621 08f7 47070000 		.4byte	.LASF93
 2622 08fb 01       		.byte	0x1
ARM GAS  /tmp/ccHl477X.s 			page 47


 2623 08fc 6E03     		.2byte	0x36e
 2624 08fe 00000000 		.4byte	.LFB125
 2625 0902 14000000 		.4byte	.LFE125-.LFB125
 2626 0906 01       		.uleb128 0x1
 2627 0907 9C       		.byte	0x9c
 2628 0908 29090000 		.4byte	0x929
 2629 090c 11       		.uleb128 0x11
 2630 090d 56000000 		.4byte	.LASF52
 2631 0911 01       		.byte	0x1
 2632 0912 6E03     		.2byte	0x36e
 2633 0914 79030000 		.4byte	0x379
 2634 0918 01       		.uleb128 0x1
 2635 0919 50       		.byte	0x50
 2636 091a 11       		.uleb128 0x11
 2637 091b 00000000 		.4byte	.LASF63
 2638 091f 01       		.byte	0x1
 2639 0920 6E03     		.2byte	0x36e
 2640 0922 27010000 		.4byte	0x127
 2641 0926 01       		.uleb128 0x1
 2642 0927 51       		.byte	0x51
 2643 0928 00       		.byte	0
 2644 0929 15       		.uleb128 0x15
 2645 092a A0070000 		.4byte	.LASF94
 2646 092e 01       		.byte	0x1
 2647 092f 5003     		.2byte	0x350
 2648 0931 F4000000 		.4byte	0xf4
 2649 0935 00000000 		.4byte	.LFB124
 2650 0939 08000000 		.4byte	.LFE124-.LFB124
 2651 093d 01       		.uleb128 0x1
 2652 093e 9C       		.byte	0x9c
 2653 093f 64090000 		.4byte	0x964
 2654 0943 12       		.uleb128 0x12
 2655 0944 56000000 		.4byte	.LASF52
 2656 0948 01       		.byte	0x1
 2657 0949 5003     		.2byte	0x350
 2658 094b 79030000 		.4byte	0x379
 2659 094f 8C050000 		.4byte	.LLST13
 2660 0953 13       		.uleb128 0x13
 2661 0954 4D080000 		.4byte	.LASF55
 2662 0958 01       		.byte	0x1
 2663 0959 5203     		.2byte	0x352
 2664 095b F4000000 		.4byte	0xf4
 2665 095f AD050000 		.4byte	.LLST14
 2666 0963 00       		.byte	0
 2667 0964 10       		.uleb128 0x10
 2668 0965 85080000 		.4byte	.LASF95
 2669 0969 01       		.byte	0x1
 2670 096a 4203     		.2byte	0x342
 2671 096c 00000000 		.4byte	.LFB123
 2672 0970 0A000000 		.4byte	.LFE123-.LFB123
 2673 0974 01       		.uleb128 0x1
 2674 0975 9C       		.byte	0x9c
 2675 0976 89090000 		.4byte	0x989
 2676 097a 11       		.uleb128 0x11
 2677 097b 56000000 		.4byte	.LASF52
 2678 097f 01       		.byte	0x1
 2679 0980 4203     		.2byte	0x342
ARM GAS  /tmp/ccHl477X.s 			page 48


 2680 0982 79030000 		.4byte	0x379
 2681 0986 01       		.uleb128 0x1
 2682 0987 50       		.byte	0x50
 2683 0988 00       		.byte	0
 2684 0989 10       		.uleb128 0x10
 2685 098a 57040000 		.4byte	.LASF96
 2686 098e 01       		.byte	0x1
 2687 098f CA02     		.2byte	0x2ca
 2688 0991 00000000 		.4byte	.LFB122
 2689 0995 8C000000 		.4byte	.LFE122-.LFB122
 2690 0999 01       		.uleb128 0x1
 2691 099a 9C       		.byte	0x9c
 2692 099b FE090000 		.4byte	0x9fe
 2693 099f 11       		.uleb128 0x11
 2694 09a0 56000000 		.4byte	.LASF52
 2695 09a4 01       		.byte	0x1
 2696 09a5 CA02     		.2byte	0x2ca
 2697 09a7 79030000 		.4byte	0x379
 2698 09ab 01       		.uleb128 0x1
 2699 09ac 50       		.byte	0x50
 2700 09ad 12       		.uleb128 0x12
 2701 09ae FE050000 		.4byte	.LASF81
 2702 09b2 01       		.byte	0x1
 2703 09b3 CA02     		.2byte	0x2ca
 2704 09b5 97000000 		.4byte	0x97
 2705 09b9 D4050000 		.4byte	.LLST8
 2706 09bd 12       		.uleb128 0x12
 2707 09be F9050000 		.4byte	.LASF82
 2708 09c2 01       		.byte	0x1
 2709 09c3 CA02     		.2byte	0x2ca
 2710 09c5 97000000 		.4byte	0x97
 2711 09c9 27060000 		.4byte	.LLST9
 2712 09cd 12       		.uleb128 0x12
 2713 09ce 91050000 		.4byte	.LASF83
 2714 09d2 01       		.byte	0x1
 2715 09d3 CA02     		.2byte	0x2ca
 2716 09d5 97000000 		.4byte	0x97
 2717 09d9 7A060000 		.4byte	.LLST10
 2718 09dd 13       		.uleb128 0x13
 2719 09de 9F040000 		.4byte	.LASF78
 2720 09e2 01       		.byte	0x1
 2721 09e3 CC02     		.2byte	0x2cc
 2722 09e5 BD000000 		.4byte	0xbd
 2723 09e9 B4060000 		.4byte	.LLST11
 2724 09ed 13       		.uleb128 0x13
 2725 09ee A7040000 		.4byte	.LASF79
 2726 09f2 01       		.byte	0x1
 2727 09f3 CC02     		.2byte	0x2cc
 2728 09f5 BD000000 		.4byte	0xbd
 2729 09f9 58070000 		.4byte	.LLST12
 2730 09fd 00       		.byte	0
 2731 09fe 10       		.uleb128 0x10
 2732 09ff B0080000 		.4byte	.LASF97
 2733 0a03 01       		.byte	0x1
 2734 0a04 6502     		.2byte	0x265
 2735 0a06 00000000 		.4byte	.LFB121
 2736 0a0a 1C000000 		.4byte	.LFE121-.LFB121
ARM GAS  /tmp/ccHl477X.s 			page 49


 2737 0a0e 01       		.uleb128 0x1
 2738 0a0f 9C       		.byte	0x9c
 2739 0a10 230A0000 		.4byte	0xa23
 2740 0a14 11       		.uleb128 0x11
 2741 0a15 00000000 		.4byte	.LASF63
 2742 0a19 01       		.byte	0x1
 2743 0a1a 6502     		.2byte	0x265
 2744 0a1c 27010000 		.4byte	0x127
 2745 0a20 01       		.uleb128 0x1
 2746 0a21 50       		.byte	0x50
 2747 0a22 00       		.byte	0
 2748 0a23 10       		.uleb128 0x10
 2749 0a24 E6030000 		.4byte	.LASF98
 2750 0a28 01       		.byte	0x1
 2751 0a29 4F02     		.2byte	0x24f
 2752 0a2b 00000000 		.4byte	.LFB120
 2753 0a2f 1C000000 		.4byte	.LFE120-.LFB120
 2754 0a33 01       		.uleb128 0x1
 2755 0a34 9C       		.byte	0x9c
 2756 0a35 480A0000 		.4byte	0xa48
 2757 0a39 11       		.uleb128 0x11
 2758 0a3a 00000000 		.4byte	.LASF63
 2759 0a3e 01       		.byte	0x1
 2760 0a3f 4F02     		.2byte	0x24f
 2761 0a41 27010000 		.4byte	0x127
 2762 0a45 01       		.uleb128 0x1
 2763 0a46 50       		.byte	0x50
 2764 0a47 00       		.byte	0
 2765 0a48 10       		.uleb128 0x10
 2766 0a49 56030000 		.4byte	.LASF99
 2767 0a4d 01       		.byte	0x1
 2768 0a4e 0E02     		.2byte	0x20e
 2769 0a50 00000000 		.4byte	.LFB119
 2770 0a54 0C000000 		.4byte	.LFE119-.LFB119
 2771 0a58 01       		.uleb128 0x1
 2772 0a59 9C       		.byte	0x9c
 2773 0a5a 8D0A0000 		.4byte	0xa8d
 2774 0a5e 11       		.uleb128 0x11
 2775 0a5f 56000000 		.4byte	.LASF52
 2776 0a63 01       		.byte	0x1
 2777 0a64 0E02     		.2byte	0x20e
 2778 0a66 79030000 		.4byte	0x379
 2779 0a6a 01       		.uleb128 0x1
 2780 0a6b 50       		.byte	0x50
 2781 0a6c 12       		.uleb128 0x12
 2782 0a6d FE050000 		.4byte	.LASF81
 2783 0a71 01       		.byte	0x1
 2784 0a72 0E02     		.2byte	0x20e
 2785 0a74 97000000 		.4byte	0x97
 2786 0a78 FA070000 		.4byte	.LLST6
 2787 0a7c 13       		.uleb128 0x13
 2788 0a7d 48020000 		.4byte	.LASF71
 2789 0a81 01       		.byte	0x1
 2790 0a82 1002     		.2byte	0x210
 2791 0a84 BD000000 		.4byte	0xbd
 2792 0a88 1B080000 		.4byte	.LLST7
 2793 0a8c 00       		.byte	0
ARM GAS  /tmp/ccHl477X.s 			page 50


 2794 0a8d 10       		.uleb128 0x10
 2795 0a8e ED010000 		.4byte	.LASF100
 2796 0a92 01       		.byte	0x1
 2797 0a93 E501     		.2byte	0x1e5
 2798 0a95 00000000 		.4byte	.LFB118
 2799 0a99 06000000 		.4byte	.LFE118-.LFB118
 2800 0a9d 01       		.uleb128 0x1
 2801 0a9e 9C       		.byte	0x9c
 2802 0a9f CE0A0000 		.4byte	0xace
 2803 0aa3 11       		.uleb128 0x11
 2804 0aa4 56000000 		.4byte	.LASF52
 2805 0aa8 01       		.byte	0x1
 2806 0aa9 E501     		.2byte	0x1e5
 2807 0aab 79030000 		.4byte	0x379
 2808 0aaf 01       		.uleb128 0x1
 2809 0ab0 50       		.byte	0x50
 2810 0ab1 11       		.uleb128 0x11
 2811 0ab2 91040000 		.4byte	.LASF101
 2812 0ab6 01       		.byte	0x1
 2813 0ab7 E501     		.2byte	0x1e5
 2814 0ab9 A2000000 		.4byte	0xa2
 2815 0abd 01       		.uleb128 0x1
 2816 0abe 51       		.byte	0x51
 2817 0abf 11       		.uleb128 0x11
 2818 0ac0 7C030000 		.4byte	.LASF102
 2819 0ac4 01       		.byte	0x1
 2820 0ac5 E601     		.2byte	0x1e6
 2821 0ac7 A2000000 		.4byte	0xa2
 2822 0acb 01       		.uleb128 0x1
 2823 0acc 52       		.byte	0x52
 2824 0acd 00       		.byte	0
 2825 0ace 10       		.uleb128 0x10
 2826 0acf 02080000 		.4byte	.LASF103
 2827 0ad3 01       		.byte	0x1
 2828 0ad4 C801     		.2byte	0x1c8
 2829 0ad6 00000000 		.4byte	.LFB117
 2830 0ada 10000000 		.4byte	.LFE117-.LFB117
 2831 0ade 01       		.uleb128 0x1
 2832 0adf 9C       		.byte	0x9c
 2833 0ae0 130B0000 		.4byte	0xb13
 2834 0ae4 11       		.uleb128 0x11
 2835 0ae5 56000000 		.4byte	.LASF52
 2836 0ae9 01       		.byte	0x1
 2837 0aea C801     		.2byte	0x1c8
 2838 0aec 79030000 		.4byte	0x379
 2839 0af0 01       		.uleb128 0x1
 2840 0af1 50       		.byte	0x50
 2841 0af2 12       		.uleb128 0x12
 2842 0af3 78050000 		.4byte	.LASF104
 2843 0af7 01       		.byte	0x1
 2844 0af8 C801     		.2byte	0x1c8
 2845 0afa BD000000 		.4byte	0xbd
 2846 0afe 45080000 		.4byte	.LLST4
 2847 0b02 13       		.uleb128 0x13
 2848 0b03 48020000 		.4byte	.LASF71
 2849 0b07 01       		.byte	0x1
 2850 0b08 CA01     		.2byte	0x1ca
ARM GAS  /tmp/ccHl477X.s 			page 51


 2851 0b0a BD000000 		.4byte	0xbd
 2852 0b0e 66080000 		.4byte	.LLST5
 2853 0b12 00       		.byte	0
 2854 0b13 10       		.uleb128 0x10
 2855 0b14 66020000 		.4byte	.LASF105
 2856 0b18 01       		.byte	0x1
 2857 0b19 8E01     		.2byte	0x18e
 2858 0b1b 00000000 		.4byte	.LFB116
 2859 0b1f 14000000 		.4byte	.LFE116-.LFB116
 2860 0b23 01       		.uleb128 0x1
 2861 0b24 9C       		.byte	0x9c
 2862 0b25 460B0000 		.4byte	0xb46
 2863 0b29 11       		.uleb128 0x11
 2864 0b2a 56000000 		.4byte	.LASF52
 2865 0b2e 01       		.byte	0x1
 2866 0b2f 8E01     		.2byte	0x18e
 2867 0b31 79030000 		.4byte	0x379
 2868 0b35 01       		.uleb128 0x1
 2869 0b36 50       		.byte	0x50
 2870 0b37 11       		.uleb128 0x11
 2871 0b38 00000000 		.4byte	.LASF63
 2872 0b3c 01       		.byte	0x1
 2873 0b3d 8E01     		.2byte	0x18e
 2874 0b3f 27010000 		.4byte	0x127
 2875 0b43 01       		.uleb128 0x1
 2876 0b44 51       		.byte	0x51
 2877 0b45 00       		.byte	0
 2878 0b46 10       		.uleb128 0x10
 2879 0b47 42040000 		.4byte	.LASF106
 2880 0b4b 01       		.byte	0x1
 2881 0b4c 7801     		.2byte	0x178
 2882 0b4e 00000000 		.4byte	.LFB115
 2883 0b52 0C000000 		.4byte	.LFE115-.LFB115
 2884 0b56 01       		.uleb128 0x1
 2885 0b57 9C       		.byte	0x9c
 2886 0b58 6B0B0000 		.4byte	0xb6b
 2887 0b5c 11       		.uleb128 0x11
 2888 0b5d 71060000 		.4byte	.LASF107
 2889 0b61 01       		.byte	0x1
 2890 0b62 7801     		.2byte	0x178
 2891 0b64 6B0B0000 		.4byte	0xb6b
 2892 0b68 01       		.uleb128 0x1
 2893 0b69 50       		.byte	0x50
 2894 0b6a 00       		.byte	0
 2895 0b6b 14       		.uleb128 0x14
 2896 0b6c 04       		.byte	0x4
 2897 0b6d 29030000 		.4byte	0x329
 2898 0b71 10       		.uleb128 0x10
 2899 0b72 7A070000 		.4byte	.LASF108
 2900 0b76 01       		.byte	0x1
 2901 0b77 5401     		.2byte	0x154
 2902 0b79 00000000 		.4byte	.LFB114
 2903 0b7d 28000000 		.4byte	.LFE114-.LFB114
 2904 0b81 01       		.uleb128 0x1
 2905 0b82 9C       		.byte	0x9c
 2906 0b83 A80B0000 		.4byte	0xba8
 2907 0b87 12       		.uleb128 0x12
ARM GAS  /tmp/ccHl477X.s 			page 52


 2908 0b88 71060000 		.4byte	.LASF107
 2909 0b8c 01       		.byte	0x1
 2910 0b8d 5401     		.2byte	0x154
 2911 0b8f 6B0B0000 		.4byte	0xb6b
 2912 0b93 9B080000 		.4byte	.LLST2
 2913 0b97 13       		.uleb128 0x13
 2914 0b98 9F040000 		.4byte	.LASF78
 2915 0b9c 01       		.byte	0x1
 2916 0b9d 5601     		.2byte	0x156
 2917 0b9f BD000000 		.4byte	0xbd
 2918 0ba3 BC080000 		.4byte	.LLST3
 2919 0ba7 00       		.byte	0
 2920 0ba8 10       		.uleb128 0x10
 2921 0ba9 47030000 		.4byte	.LASF109
 2922 0bad 01       		.byte	0x1
 2923 0bae 3501     		.2byte	0x135
 2924 0bb0 00000000 		.4byte	.LFB113
 2925 0bb4 14000000 		.4byte	.LFE113-.LFB113
 2926 0bb8 01       		.uleb128 0x1
 2927 0bb9 9C       		.byte	0x9c
 2928 0bba CD0B0000 		.4byte	0xbcd
 2929 0bbe 11       		.uleb128 0x11
 2930 0bbf 0E030000 		.4byte	.LASF110
 2931 0bc3 01       		.byte	0x1
 2932 0bc4 3501     		.2byte	0x135
 2933 0bc6 CD0B0000 		.4byte	0xbcd
 2934 0bca 01       		.uleb128 0x1
 2935 0bcb 50       		.byte	0x50
 2936 0bcc 00       		.byte	0
 2937 0bcd 14       		.uleb128 0x14
 2938 0bce 04       		.byte	0x4
 2939 0bcf E5020000 		.4byte	0x2e5
 2940 0bd3 1B       		.uleb128 0x1b
 2941 0bd4 7F010000 		.4byte	.LASF111
 2942 0bd8 01       		.byte	0x1
 2943 0bd9 EA       		.byte	0xea
 2944 0bda 00000000 		.4byte	.LFB112
 2945 0bde 4C000000 		.4byte	.LFE112-.LFB112
 2946 0be2 01       		.uleb128 0x1
 2947 0be3 9C       		.byte	0x9c
 2948 0be4 210C0000 		.4byte	0xc21
 2949 0be8 1C       		.uleb128 0x1c
 2950 0be9 56000000 		.4byte	.LASF52
 2951 0bed 01       		.byte	0x1
 2952 0bee EA       		.byte	0xea
 2953 0bef 79030000 		.4byte	0x379
 2954 0bf3 01       		.uleb128 0x1
 2955 0bf4 50       		.byte	0x50
 2956 0bf5 1C       		.uleb128 0x1c
 2957 0bf6 0E030000 		.4byte	.LASF110
 2958 0bfa 01       		.byte	0x1
 2959 0bfb EA       		.byte	0xea
 2960 0bfc CD0B0000 		.4byte	0xbcd
 2961 0c00 01       		.uleb128 0x1
 2962 0c01 51       		.byte	0x51
 2963 0c02 1D       		.uleb128 0x1d
 2964 0c03 9F040000 		.4byte	.LASF78
ARM GAS  /tmp/ccHl477X.s 			page 53


 2965 0c07 01       		.byte	0x1
 2966 0c08 EC       		.byte	0xec
 2967 0c09 BD000000 		.4byte	0xbd
 2968 0c0d F8080000 		.4byte	.LLST0
 2969 0c11 1D       		.uleb128 0x1d
 2970 0c12 A7040000 		.4byte	.LASF79
 2971 0c16 01       		.byte	0x1
 2972 0c17 ED       		.byte	0xed
 2973 0c18 97000000 		.4byte	0x97
 2974 0c1c 54090000 		.4byte	.LLST1
 2975 0c20 00       		.byte	0
 2976 0c21 1B       		.uleb128 0x1b
 2977 0c22 B7040000 		.4byte	.LASF112
 2978 0c26 01       		.byte	0x1
 2979 0c27 D4       		.byte	0xd4
 2980 0c28 00000000 		.4byte	.LFB111
 2981 0c2c 1A000000 		.4byte	.LFE111-.LFB111
 2982 0c30 01       		.uleb128 0x1
 2983 0c31 9C       		.byte	0x9c
 2984 0c32 670C0000 		.4byte	0xc67
 2985 0c36 1E       		.uleb128 0x1e
 2986 0c37 0C000000 		.4byte	.LVL0
 2987 0c3b 670C0000 		.4byte	0xc67
 2988 0c3f 500C0000 		.4byte	0xc50
 2989 0c43 1F       		.uleb128 0x1f
 2990 0c44 01       		.uleb128 0x1
 2991 0c45 50       		.byte	0x50
 2992 0c46 03       		.uleb128 0x3
 2993 0c47 0A       		.byte	0xa
 2994 0c48 0001     		.2byte	0x100
 2995 0c4a 1F       		.uleb128 0x1f
 2996 0c4b 01       		.uleb128 0x1
 2997 0c4c 51       		.byte	0x51
 2998 0c4d 01       		.uleb128 0x1
 2999 0c4e 31       		.byte	0x31
 3000 0c4f 00       		.byte	0
 3001 0c50 20       		.uleb128 0x20
 3002 0c51 1A000000 		.4byte	.LVL1
 3003 0c55 670C0000 		.4byte	0xc67
 3004 0c59 1F       		.uleb128 0x1f
 3005 0c5a 01       		.uleb128 0x1
 3006 0c5b 50       		.byte	0x50
 3007 0c5c 03       		.uleb128 0x3
 3008 0c5d 0A       		.byte	0xa
 3009 0c5e 0001     		.2byte	0x100
 3010 0c60 1F       		.uleb128 0x1f
 3011 0c61 01       		.uleb128 0x1
 3012 0c62 51       		.byte	0x51
 3013 0c63 01       		.uleb128 0x1
 3014 0c64 30       		.byte	0x30
 3015 0c65 00       		.byte	0
 3016 0c66 00       		.byte	0
 3017 0c67 21       		.uleb128 0x21
 3018 0c68 A0050000 		.4byte	.LASF119
 3019 0c6c A0050000 		.4byte	.LASF119
 3020 0c70 07       		.byte	0x7
 3021 0c71 E701     		.2byte	0x1e7
ARM GAS  /tmp/ccHl477X.s 			page 54


 3022 0c73 00       		.byte	0
 3023              		.section	.debug_abbrev,"",%progbits
 3024              	.Ldebug_abbrev0:
 3025 0000 01       		.uleb128 0x1
 3026 0001 11       		.uleb128 0x11
 3027 0002 01       		.byte	0x1
 3028 0003 25       		.uleb128 0x25
 3029 0004 0E       		.uleb128 0xe
 3030 0005 13       		.uleb128 0x13
 3031 0006 0B       		.uleb128 0xb
 3032 0007 03       		.uleb128 0x3
 3033 0008 0E       		.uleb128 0xe
 3034 0009 1B       		.uleb128 0x1b
 3035 000a 0E       		.uleb128 0xe
 3036 000b 55       		.uleb128 0x55
 3037 000c 17       		.uleb128 0x17
 3038 000d 11       		.uleb128 0x11
 3039 000e 01       		.uleb128 0x1
 3040 000f 10       		.uleb128 0x10
 3041 0010 17       		.uleb128 0x17
 3042 0011 00       		.byte	0
 3043 0012 00       		.byte	0
 3044 0013 02       		.uleb128 0x2
 3045 0014 24       		.uleb128 0x24
 3046 0015 00       		.byte	0
 3047 0016 0B       		.uleb128 0xb
 3048 0017 0B       		.uleb128 0xb
 3049 0018 3E       		.uleb128 0x3e
 3050 0019 0B       		.uleb128 0xb
 3051 001a 03       		.uleb128 0x3
 3052 001b 0E       		.uleb128 0xe
 3053 001c 00       		.byte	0
 3054 001d 00       		.byte	0
 3055 001e 03       		.uleb128 0x3
 3056 001f 16       		.uleb128 0x16
 3057 0020 00       		.byte	0
 3058 0021 03       		.uleb128 0x3
 3059 0022 0E       		.uleb128 0xe
 3060 0023 3A       		.uleb128 0x3a
 3061 0024 0B       		.uleb128 0xb
 3062 0025 3B       		.uleb128 0x3b
 3063 0026 0B       		.uleb128 0xb
 3064 0027 49       		.uleb128 0x49
 3065 0028 13       		.uleb128 0x13
 3066 0029 00       		.byte	0
 3067 002a 00       		.byte	0
 3068 002b 04       		.uleb128 0x4
 3069 002c 24       		.uleb128 0x24
 3070 002d 00       		.byte	0
 3071 002e 0B       		.uleb128 0xb
 3072 002f 0B       		.uleb128 0xb
 3073 0030 3E       		.uleb128 0x3e
 3074 0031 0B       		.uleb128 0xb
 3075 0032 03       		.uleb128 0x3
 3076 0033 08       		.uleb128 0x8
 3077 0034 00       		.byte	0
 3078 0035 00       		.byte	0
ARM GAS  /tmp/ccHl477X.s 			page 55


 3079 0036 05       		.uleb128 0x5
 3080 0037 35       		.uleb128 0x35
 3081 0038 00       		.byte	0
 3082 0039 49       		.uleb128 0x49
 3083 003a 13       		.uleb128 0x13
 3084 003b 00       		.byte	0
 3085 003c 00       		.byte	0
 3086 003d 06       		.uleb128 0x6
 3087 003e 34       		.uleb128 0x34
 3088 003f 00       		.byte	0
 3089 0040 03       		.uleb128 0x3
 3090 0041 0E       		.uleb128 0xe
 3091 0042 3A       		.uleb128 0x3a
 3092 0043 0B       		.uleb128 0xb
 3093 0044 3B       		.uleb128 0x3b
 3094 0045 05       		.uleb128 0x5
 3095 0046 49       		.uleb128 0x49
 3096 0047 13       		.uleb128 0x13
 3097 0048 3F       		.uleb128 0x3f
 3098 0049 19       		.uleb128 0x19
 3099 004a 3C       		.uleb128 0x3c
 3100 004b 19       		.uleb128 0x19
 3101 004c 00       		.byte	0
 3102 004d 00       		.byte	0
 3103 004e 07       		.uleb128 0x7
 3104 004f 04       		.uleb128 0x4
 3105 0050 01       		.byte	0x1
 3106 0051 3E       		.uleb128 0x3e
 3107 0052 0B       		.uleb128 0xb
 3108 0053 0B       		.uleb128 0xb
 3109 0054 0B       		.uleb128 0xb
 3110 0055 49       		.uleb128 0x49
 3111 0056 13       		.uleb128 0x13
 3112 0057 3A       		.uleb128 0x3a
 3113 0058 0B       		.uleb128 0xb
 3114 0059 3B       		.uleb128 0x3b
 3115 005a 05       		.uleb128 0x5
 3116 005b 01       		.uleb128 0x1
 3117 005c 13       		.uleb128 0x13
 3118 005d 00       		.byte	0
 3119 005e 00       		.byte	0
 3120 005f 08       		.uleb128 0x8
 3121 0060 28       		.uleb128 0x28
 3122 0061 00       		.byte	0
 3123 0062 03       		.uleb128 0x3
 3124 0063 0E       		.uleb128 0xe
 3125 0064 1C       		.uleb128 0x1c
 3126 0065 0B       		.uleb128 0xb
 3127 0066 00       		.byte	0
 3128 0067 00       		.byte	0
 3129 0068 09       		.uleb128 0x9
 3130 0069 28       		.uleb128 0x28
 3131 006a 00       		.byte	0
 3132 006b 03       		.uleb128 0x3
 3133 006c 08       		.uleb128 0x8
 3134 006d 1C       		.uleb128 0x1c
 3135 006e 0B       		.uleb128 0xb
ARM GAS  /tmp/ccHl477X.s 			page 56


 3136 006f 00       		.byte	0
 3137 0070 00       		.byte	0
 3138 0071 0A       		.uleb128 0xa
 3139 0072 16       		.uleb128 0x16
 3140 0073 00       		.byte	0
 3141 0074 03       		.uleb128 0x3
 3142 0075 0E       		.uleb128 0xe
 3143 0076 3A       		.uleb128 0x3a
 3144 0077 0B       		.uleb128 0xb
 3145 0078 3B       		.uleb128 0x3b
 3146 0079 05       		.uleb128 0x5
 3147 007a 49       		.uleb128 0x49
 3148 007b 13       		.uleb128 0x13
 3149 007c 00       		.byte	0
 3150 007d 00       		.byte	0
 3151 007e 0B       		.uleb128 0xb
 3152 007f 13       		.uleb128 0x13
 3153 0080 01       		.byte	0x1
 3154 0081 0B       		.uleb128 0xb
 3155 0082 0B       		.uleb128 0xb
 3156 0083 3A       		.uleb128 0x3a
 3157 0084 0B       		.uleb128 0xb
 3158 0085 3B       		.uleb128 0x3b
 3159 0086 05       		.uleb128 0x5
 3160 0087 01       		.uleb128 0x1
 3161 0088 13       		.uleb128 0x13
 3162 0089 00       		.byte	0
 3163 008a 00       		.byte	0
 3164 008b 0C       		.uleb128 0xc
 3165 008c 0D       		.uleb128 0xd
 3166 008d 00       		.byte	0
 3167 008e 03       		.uleb128 0x3
 3168 008f 08       		.uleb128 0x8
 3169 0090 3A       		.uleb128 0x3a
 3170 0091 0B       		.uleb128 0xb
 3171 0092 3B       		.uleb128 0x3b
 3172 0093 05       		.uleb128 0x5
 3173 0094 49       		.uleb128 0x49
 3174 0095 13       		.uleb128 0x13
 3175 0096 38       		.uleb128 0x38
 3176 0097 0B       		.uleb128 0xb
 3177 0098 00       		.byte	0
 3178 0099 00       		.byte	0
 3179 009a 0D       		.uleb128 0xd
 3180 009b 0D       		.uleb128 0xd
 3181 009c 00       		.byte	0
 3182 009d 03       		.uleb128 0x3
 3183 009e 0E       		.uleb128 0xe
 3184 009f 3A       		.uleb128 0x3a
 3185 00a0 0B       		.uleb128 0xb
 3186 00a1 3B       		.uleb128 0x3b
 3187 00a2 05       		.uleb128 0x5
 3188 00a3 49       		.uleb128 0x49
 3189 00a4 13       		.uleb128 0x13
 3190 00a5 38       		.uleb128 0x38
 3191 00a6 0B       		.uleb128 0xb
 3192 00a7 00       		.byte	0
ARM GAS  /tmp/ccHl477X.s 			page 57


 3193 00a8 00       		.byte	0
 3194 00a9 0E       		.uleb128 0xe
 3195 00aa 13       		.uleb128 0x13
 3196 00ab 01       		.byte	0x1
 3197 00ac 0B       		.uleb128 0xb
 3198 00ad 0B       		.uleb128 0xb
 3199 00ae 3A       		.uleb128 0x3a
 3200 00af 0B       		.uleb128 0xb
 3201 00b0 3B       		.uleb128 0x3b
 3202 00b1 0B       		.uleb128 0xb
 3203 00b2 01       		.uleb128 0x1
 3204 00b3 13       		.uleb128 0x13
 3205 00b4 00       		.byte	0
 3206 00b5 00       		.byte	0
 3207 00b6 0F       		.uleb128 0xf
 3208 00b7 0D       		.uleb128 0xd
 3209 00b8 00       		.byte	0
 3210 00b9 03       		.uleb128 0x3
 3211 00ba 0E       		.uleb128 0xe
 3212 00bb 3A       		.uleb128 0x3a
 3213 00bc 0B       		.uleb128 0xb
 3214 00bd 3B       		.uleb128 0x3b
 3215 00be 0B       		.uleb128 0xb
 3216 00bf 49       		.uleb128 0x49
 3217 00c0 13       		.uleb128 0x13
 3218 00c1 38       		.uleb128 0x38
 3219 00c2 0B       		.uleb128 0xb
 3220 00c3 00       		.byte	0
 3221 00c4 00       		.byte	0
 3222 00c5 10       		.uleb128 0x10
 3223 00c6 2E       		.uleb128 0x2e
 3224 00c7 01       		.byte	0x1
 3225 00c8 3F       		.uleb128 0x3f
 3226 00c9 19       		.uleb128 0x19
 3227 00ca 03       		.uleb128 0x3
 3228 00cb 0E       		.uleb128 0xe
 3229 00cc 3A       		.uleb128 0x3a
 3230 00cd 0B       		.uleb128 0xb
 3231 00ce 3B       		.uleb128 0x3b
 3232 00cf 05       		.uleb128 0x5
 3233 00d0 27       		.uleb128 0x27
 3234 00d1 19       		.uleb128 0x19
 3235 00d2 11       		.uleb128 0x11
 3236 00d3 01       		.uleb128 0x1
 3237 00d4 12       		.uleb128 0x12
 3238 00d5 06       		.uleb128 0x6
 3239 00d6 40       		.uleb128 0x40
 3240 00d7 18       		.uleb128 0x18
 3241 00d8 9742     		.uleb128 0x2117
 3242 00da 19       		.uleb128 0x19
 3243 00db 01       		.uleb128 0x1
 3244 00dc 13       		.uleb128 0x13
 3245 00dd 00       		.byte	0
 3246 00de 00       		.byte	0
 3247 00df 11       		.uleb128 0x11
 3248 00e0 05       		.uleb128 0x5
 3249 00e1 00       		.byte	0
ARM GAS  /tmp/ccHl477X.s 			page 58


 3250 00e2 03       		.uleb128 0x3
 3251 00e3 0E       		.uleb128 0xe
 3252 00e4 3A       		.uleb128 0x3a
 3253 00e5 0B       		.uleb128 0xb
 3254 00e6 3B       		.uleb128 0x3b
 3255 00e7 05       		.uleb128 0x5
 3256 00e8 49       		.uleb128 0x49
 3257 00e9 13       		.uleb128 0x13
 3258 00ea 02       		.uleb128 0x2
 3259 00eb 18       		.uleb128 0x18
 3260 00ec 00       		.byte	0
 3261 00ed 00       		.byte	0
 3262 00ee 12       		.uleb128 0x12
 3263 00ef 05       		.uleb128 0x5
 3264 00f0 00       		.byte	0
 3265 00f1 03       		.uleb128 0x3
 3266 00f2 0E       		.uleb128 0xe
 3267 00f3 3A       		.uleb128 0x3a
 3268 00f4 0B       		.uleb128 0xb
 3269 00f5 3B       		.uleb128 0x3b
 3270 00f6 05       		.uleb128 0x5
 3271 00f7 49       		.uleb128 0x49
 3272 00f8 13       		.uleb128 0x13
 3273 00f9 02       		.uleb128 0x2
 3274 00fa 17       		.uleb128 0x17
 3275 00fb 00       		.byte	0
 3276 00fc 00       		.byte	0
 3277 00fd 13       		.uleb128 0x13
 3278 00fe 34       		.uleb128 0x34
 3279 00ff 00       		.byte	0
 3280 0100 03       		.uleb128 0x3
 3281 0101 0E       		.uleb128 0xe
 3282 0102 3A       		.uleb128 0x3a
 3283 0103 0B       		.uleb128 0xb
 3284 0104 3B       		.uleb128 0x3b
 3285 0105 05       		.uleb128 0x5
 3286 0106 49       		.uleb128 0x49
 3287 0107 13       		.uleb128 0x13
 3288 0108 02       		.uleb128 0x2
 3289 0109 17       		.uleb128 0x17
 3290 010a 00       		.byte	0
 3291 010b 00       		.byte	0
 3292 010c 14       		.uleb128 0x14
 3293 010d 0F       		.uleb128 0xf
 3294 010e 00       		.byte	0
 3295 010f 0B       		.uleb128 0xb
 3296 0110 0B       		.uleb128 0xb
 3297 0111 49       		.uleb128 0x49
 3298 0112 13       		.uleb128 0x13
 3299 0113 00       		.byte	0
 3300 0114 00       		.byte	0
 3301 0115 15       		.uleb128 0x15
 3302 0116 2E       		.uleb128 0x2e
 3303 0117 01       		.byte	0x1
 3304 0118 3F       		.uleb128 0x3f
 3305 0119 19       		.uleb128 0x19
 3306 011a 03       		.uleb128 0x3
ARM GAS  /tmp/ccHl477X.s 			page 59


 3307 011b 0E       		.uleb128 0xe
 3308 011c 3A       		.uleb128 0x3a
 3309 011d 0B       		.uleb128 0xb
 3310 011e 3B       		.uleb128 0x3b
 3311 011f 05       		.uleb128 0x5
 3312 0120 27       		.uleb128 0x27
 3313 0121 19       		.uleb128 0x19
 3314 0122 49       		.uleb128 0x49
 3315 0123 13       		.uleb128 0x13
 3316 0124 11       		.uleb128 0x11
 3317 0125 01       		.uleb128 0x1
 3318 0126 12       		.uleb128 0x12
 3319 0127 06       		.uleb128 0x6
 3320 0128 40       		.uleb128 0x40
 3321 0129 18       		.uleb128 0x18
 3322 012a 9742     		.uleb128 0x2117
 3323 012c 19       		.uleb128 0x19
 3324 012d 01       		.uleb128 0x1
 3325 012e 13       		.uleb128 0x13
 3326 012f 00       		.byte	0
 3327 0130 00       		.byte	0
 3328 0131 16       		.uleb128 0x16
 3329 0132 34       		.uleb128 0x34
 3330 0133 00       		.byte	0
 3331 0134 03       		.uleb128 0x3
 3332 0135 08       		.uleb128 0x8
 3333 0136 3A       		.uleb128 0x3a
 3334 0137 0B       		.uleb128 0xb
 3335 0138 3B       		.uleb128 0x3b
 3336 0139 05       		.uleb128 0x5
 3337 013a 49       		.uleb128 0x49
 3338 013b 13       		.uleb128 0x13
 3339 013c 02       		.uleb128 0x2
 3340 013d 18       		.uleb128 0x18
 3341 013e 00       		.byte	0
 3342 013f 00       		.byte	0
 3343 0140 17       		.uleb128 0x17
 3344 0141 2E       		.uleb128 0x2e
 3345 0142 01       		.byte	0x1
 3346 0143 3F       		.uleb128 0x3f
 3347 0144 19       		.uleb128 0x19
 3348 0145 03       		.uleb128 0x3
 3349 0146 0E       		.uleb128 0xe
 3350 0147 3A       		.uleb128 0x3a
 3351 0148 0B       		.uleb128 0xb
 3352 0149 3B       		.uleb128 0x3b
 3353 014a 05       		.uleb128 0x5
 3354 014b 27       		.uleb128 0x27
 3355 014c 19       		.uleb128 0x19
 3356 014d 49       		.uleb128 0x49
 3357 014e 13       		.uleb128 0x13
 3358 014f 01       		.uleb128 0x1
 3359 0150 13       		.uleb128 0x13
 3360 0151 00       		.byte	0
 3361 0152 00       		.byte	0
 3362 0153 18       		.uleb128 0x18
 3363 0154 05       		.uleb128 0x5
ARM GAS  /tmp/ccHl477X.s 			page 60


 3364 0155 00       		.byte	0
 3365 0156 03       		.uleb128 0x3
 3366 0157 0E       		.uleb128 0xe
 3367 0158 3A       		.uleb128 0x3a
 3368 0159 0B       		.uleb128 0xb
 3369 015a 3B       		.uleb128 0x3b
 3370 015b 05       		.uleb128 0x5
 3371 015c 49       		.uleb128 0x49
 3372 015d 13       		.uleb128 0x13
 3373 015e 00       		.byte	0
 3374 015f 00       		.byte	0
 3375 0160 19       		.uleb128 0x19
 3376 0161 34       		.uleb128 0x34
 3377 0162 00       		.byte	0
 3378 0163 03       		.uleb128 0x3
 3379 0164 0E       		.uleb128 0xe
 3380 0165 3A       		.uleb128 0x3a
 3381 0166 0B       		.uleb128 0xb
 3382 0167 3B       		.uleb128 0x3b
 3383 0168 05       		.uleb128 0x5
 3384 0169 49       		.uleb128 0x49
 3385 016a 13       		.uleb128 0x13
 3386 016b 00       		.byte	0
 3387 016c 00       		.byte	0
 3388 016d 1A       		.uleb128 0x1a
 3389 016e 2E       		.uleb128 0x2e
 3390 016f 00       		.byte	0
 3391 0170 3F       		.uleb128 0x3f
 3392 0171 19       		.uleb128 0x19
 3393 0172 03       		.uleb128 0x3
 3394 0173 0E       		.uleb128 0xe
 3395 0174 3A       		.uleb128 0x3a
 3396 0175 0B       		.uleb128 0xb
 3397 0176 3B       		.uleb128 0x3b
 3398 0177 05       		.uleb128 0x5
 3399 0178 27       		.uleb128 0x27
 3400 0179 19       		.uleb128 0x19
 3401 017a 49       		.uleb128 0x49
 3402 017b 13       		.uleb128 0x13
 3403 017c 11       		.uleb128 0x11
 3404 017d 01       		.uleb128 0x1
 3405 017e 12       		.uleb128 0x12
 3406 017f 06       		.uleb128 0x6
 3407 0180 40       		.uleb128 0x40
 3408 0181 18       		.uleb128 0x18
 3409 0182 9742     		.uleb128 0x2117
 3410 0184 19       		.uleb128 0x19
 3411 0185 00       		.byte	0
 3412 0186 00       		.byte	0
 3413 0187 1B       		.uleb128 0x1b
 3414 0188 2E       		.uleb128 0x2e
 3415 0189 01       		.byte	0x1
 3416 018a 3F       		.uleb128 0x3f
 3417 018b 19       		.uleb128 0x19
 3418 018c 03       		.uleb128 0x3
 3419 018d 0E       		.uleb128 0xe
 3420 018e 3A       		.uleb128 0x3a
ARM GAS  /tmp/ccHl477X.s 			page 61


 3421 018f 0B       		.uleb128 0xb
 3422 0190 3B       		.uleb128 0x3b
 3423 0191 0B       		.uleb128 0xb
 3424 0192 27       		.uleb128 0x27
 3425 0193 19       		.uleb128 0x19
 3426 0194 11       		.uleb128 0x11
 3427 0195 01       		.uleb128 0x1
 3428 0196 12       		.uleb128 0x12
 3429 0197 06       		.uleb128 0x6
 3430 0198 40       		.uleb128 0x40
 3431 0199 18       		.uleb128 0x18
 3432 019a 9742     		.uleb128 0x2117
 3433 019c 19       		.uleb128 0x19
 3434 019d 01       		.uleb128 0x1
 3435 019e 13       		.uleb128 0x13
 3436 019f 00       		.byte	0
 3437 01a0 00       		.byte	0
 3438 01a1 1C       		.uleb128 0x1c
 3439 01a2 05       		.uleb128 0x5
 3440 01a3 00       		.byte	0
 3441 01a4 03       		.uleb128 0x3
 3442 01a5 0E       		.uleb128 0xe
 3443 01a6 3A       		.uleb128 0x3a
 3444 01a7 0B       		.uleb128 0xb
 3445 01a8 3B       		.uleb128 0x3b
 3446 01a9 0B       		.uleb128 0xb
 3447 01aa 49       		.uleb128 0x49
 3448 01ab 13       		.uleb128 0x13
 3449 01ac 02       		.uleb128 0x2
 3450 01ad 18       		.uleb128 0x18
 3451 01ae 00       		.byte	0
 3452 01af 00       		.byte	0
 3453 01b0 1D       		.uleb128 0x1d
 3454 01b1 34       		.uleb128 0x34
 3455 01b2 00       		.byte	0
 3456 01b3 03       		.uleb128 0x3
 3457 01b4 0E       		.uleb128 0xe
 3458 01b5 3A       		.uleb128 0x3a
 3459 01b6 0B       		.uleb128 0xb
 3460 01b7 3B       		.uleb128 0x3b
 3461 01b8 0B       		.uleb128 0xb
 3462 01b9 49       		.uleb128 0x49
 3463 01ba 13       		.uleb128 0x13
 3464 01bb 02       		.uleb128 0x2
 3465 01bc 17       		.uleb128 0x17
 3466 01bd 00       		.byte	0
 3467 01be 00       		.byte	0
 3468 01bf 1E       		.uleb128 0x1e
 3469 01c0 898201   		.uleb128 0x4109
 3470 01c3 01       		.byte	0x1
 3471 01c4 11       		.uleb128 0x11
 3472 01c5 01       		.uleb128 0x1
 3473 01c6 31       		.uleb128 0x31
 3474 01c7 13       		.uleb128 0x13
 3475 01c8 01       		.uleb128 0x1
 3476 01c9 13       		.uleb128 0x13
 3477 01ca 00       		.byte	0
ARM GAS  /tmp/ccHl477X.s 			page 62


 3478 01cb 00       		.byte	0
 3479 01cc 1F       		.uleb128 0x1f
 3480 01cd 8A8201   		.uleb128 0x410a
 3481 01d0 00       		.byte	0
 3482 01d1 02       		.uleb128 0x2
 3483 01d2 18       		.uleb128 0x18
 3484 01d3 9142     		.uleb128 0x2111
 3485 01d5 18       		.uleb128 0x18
 3486 01d6 00       		.byte	0
 3487 01d7 00       		.byte	0
 3488 01d8 20       		.uleb128 0x20
 3489 01d9 898201   		.uleb128 0x4109
 3490 01dc 01       		.byte	0x1
 3491 01dd 11       		.uleb128 0x11
 3492 01de 01       		.uleb128 0x1
 3493 01df 9542     		.uleb128 0x2115
 3494 01e1 19       		.uleb128 0x19
 3495 01e2 31       		.uleb128 0x31
 3496 01e3 13       		.uleb128 0x13
 3497 01e4 00       		.byte	0
 3498 01e5 00       		.byte	0
 3499 01e6 21       		.uleb128 0x21
 3500 01e7 2E       		.uleb128 0x2e
 3501 01e8 00       		.byte	0
 3502 01e9 3F       		.uleb128 0x3f
 3503 01ea 19       		.uleb128 0x19
 3504 01eb 3C       		.uleb128 0x3c
 3505 01ec 19       		.uleb128 0x19
 3506 01ed 6E       		.uleb128 0x6e
 3507 01ee 0E       		.uleb128 0xe
 3508 01ef 03       		.uleb128 0x3
 3509 01f0 0E       		.uleb128 0xe
 3510 01f1 3A       		.uleb128 0x3a
 3511 01f2 0B       		.uleb128 0xb
 3512 01f3 3B       		.uleb128 0x3b
 3513 01f4 05       		.uleb128 0x5
 3514 01f5 00       		.byte	0
 3515 01f6 00       		.byte	0
 3516 01f7 00       		.byte	0
 3517              		.section	.debug_loc,"",%progbits
 3518              	.Ldebug_loc0:
 3519              	.LLST45:
 3520 0000 00000000 		.4byte	.LVL136
 3521 0004 04000000 		.4byte	.LVL137
 3522 0008 0100     		.2byte	0x1
 3523 000a 51       		.byte	0x51
 3524 000b 04000000 		.4byte	.LVL137
 3525 000f 08000000 		.4byte	.LFE148
 3526 0013 0400     		.2byte	0x4
 3527 0015 F3       		.byte	0xf3
 3528 0016 01       		.uleb128 0x1
 3529 0017 51       		.byte	0x51
 3530 0018 9F       		.byte	0x9f
 3531 0019 00000000 		.4byte	0
 3532 001d 00000000 		.4byte	0
 3533              	.LLST46:
 3534 0021 00000000 		.4byte	.LVL136
ARM GAS  /tmp/ccHl477X.s 			page 63


 3535 0025 04000000 		.4byte	.LVL137
 3536 0029 0500     		.2byte	0x5
 3537 002b 71       		.byte	0x71
 3538 002c 00       		.sleb128 0
 3539 002d 38       		.byte	0x38
 3540 002e 25       		.byte	0x25
 3541 002f 9F       		.byte	0x9f
 3542 0030 04000000 		.4byte	.LVL137
 3543 0034 08000000 		.4byte	.LFE148
 3544 0038 0600     		.2byte	0x6
 3545 003a F3       		.byte	0xf3
 3546 003b 01       		.uleb128 0x1
 3547 003c 51       		.byte	0x51
 3548 003d 38       		.byte	0x38
 3549 003e 25       		.byte	0x25
 3550 003f 9F       		.byte	0x9f
 3551 0040 00000000 		.4byte	0
 3552 0044 00000000 		.4byte	0
 3553              	.LLST40:
 3554 0048 00000000 		.4byte	.LVL130
 3555 004c 04000000 		.4byte	.LVL132
 3556 0050 0100     		.2byte	0x1
 3557 0052 50       		.byte	0x50
 3558 0053 04000000 		.4byte	.LVL132
 3559 0057 1C000000 		.4byte	.LFE147
 3560 005b 0400     		.2byte	0x4
 3561 005d F3       		.byte	0xf3
 3562 005e 01       		.uleb128 0x1
 3563 005f 50       		.byte	0x50
 3564 0060 9F       		.byte	0x9f
 3565 0061 00000000 		.4byte	0
 3566 0065 00000000 		.4byte	0
 3567              	.LLST41:
 3568 0069 00000000 		.4byte	.LVL130
 3569 006d 0E000000 		.4byte	.LVL133
 3570 0071 0100     		.2byte	0x1
 3571 0073 51       		.byte	0x51
 3572 0074 0E000000 		.4byte	.LVL133
 3573 0078 1C000000 		.4byte	.LFE147
 3574 007c 0400     		.2byte	0x4
 3575 007e F3       		.byte	0xf3
 3576 007f 01       		.uleb128 0x1
 3577 0080 51       		.byte	0x51
 3578 0081 9F       		.byte	0x9f
 3579 0082 00000000 		.4byte	0
 3580 0086 00000000 		.4byte	0
 3581              	.LLST42:
 3582 008a 00000000 		.4byte	.LVL130
 3583 008e 1A000000 		.4byte	.LVL135
 3584 0092 0200     		.2byte	0x2
 3585 0094 30       		.byte	0x30
 3586 0095 9F       		.byte	0x9f
 3587 0096 1A000000 		.4byte	.LVL135
 3588 009a 1C000000 		.4byte	.LFE147
 3589 009e 0100     		.2byte	0x1
 3590 00a0 50       		.byte	0x50
 3591 00a1 00000000 		.4byte	0
ARM GAS  /tmp/ccHl477X.s 			page 64


 3592 00a5 00000000 		.4byte	0
 3593              	.LLST43:
 3594 00a9 00000000 		.4byte	.LVL130
 3595 00ad 0E000000 		.4byte	.LVL133
 3596 00b1 0900     		.2byte	0x9
 3597 00b3 71       		.byte	0x71
 3598 00b4 00       		.sleb128 0
 3599 00b5 38       		.byte	0x38
 3600 00b6 25       		.byte	0x25
 3601 00b7 0A       		.byte	0xa
 3602 00b8 FFFF     		.2byte	0xffff
 3603 00ba 1A       		.byte	0x1a
 3604 00bb 9F       		.byte	0x9f
 3605 00bc 0E000000 		.4byte	.LVL133
 3606 00c0 1C000000 		.4byte	.LFE147
 3607 00c4 0A00     		.2byte	0xa
 3608 00c6 F3       		.byte	0xf3
 3609 00c7 01       		.uleb128 0x1
 3610 00c8 51       		.byte	0x51
 3611 00c9 38       		.byte	0x38
 3612 00ca 25       		.byte	0x25
 3613 00cb 0A       		.byte	0xa
 3614 00cc FFFF     		.2byte	0xffff
 3615 00ce 1A       		.byte	0x1a
 3616 00cf 9F       		.byte	0x9f
 3617 00d0 00000000 		.4byte	0
 3618 00d4 00000000 		.4byte	0
 3619              	.LLST44:
 3620 00d8 00000000 		.4byte	.LVL130
 3621 00dc 02000000 		.4byte	.LVL131
 3622 00e0 0200     		.2byte	0x2
 3623 00e2 30       		.byte	0x30
 3624 00e3 9F       		.byte	0x9f
 3625 00e4 02000000 		.4byte	.LVL131
 3626 00e8 12000000 		.4byte	.LVL134
 3627 00ec 0B00     		.2byte	0xb
 3628 00ee 31       		.byte	0x31
 3629 00ef 71       		.byte	0x71
 3630 00f0 00       		.sleb128 0
 3631 00f1 08       		.byte	0x8
 3632 00f2 FF       		.byte	0xff
 3633 00f3 1A       		.byte	0x1a
 3634 00f4 24       		.byte	0x24
 3635 00f5 72       		.byte	0x72
 3636 00f6 00       		.sleb128 0
 3637 00f7 1A       		.byte	0x1a
 3638 00f8 9F       		.byte	0x9f
 3639 00f9 12000000 		.4byte	.LVL134
 3640 00fd 1C000000 		.4byte	.LFE147
 3641 0101 0C00     		.2byte	0xc
 3642 0103 31       		.byte	0x31
 3643 0104 F3       		.byte	0xf3
 3644 0105 01       		.uleb128 0x1
 3645 0106 51       		.byte	0x51
 3646 0107 08       		.byte	0x8
 3647 0108 FF       		.byte	0xff
 3648 0109 1A       		.byte	0x1a
ARM GAS  /tmp/ccHl477X.s 			page 65


 3649 010a 24       		.byte	0x24
 3650 010b 72       		.byte	0x72
 3651 010c 00       		.sleb128 0
 3652 010d 1A       		.byte	0x1a
 3653 010e 9F       		.byte	0x9f
 3654 010f 00000000 		.4byte	0
 3655 0113 00000000 		.4byte	0
 3656              	.LLST39:
 3657 0117 00000000 		.4byte	.LVL128
 3658 011b 02000000 		.4byte	.LVL129
 3659 011f 0100     		.2byte	0x1
 3660 0121 51       		.byte	0x51
 3661 0122 02000000 		.4byte	.LVL129
 3662 0126 06000000 		.4byte	.LFE146
 3663 012a 0400     		.2byte	0x4
 3664 012c F3       		.byte	0xf3
 3665 012d 01       		.uleb128 0x1
 3666 012e 51       		.byte	0x51
 3667 012f 9F       		.byte	0x9f
 3668 0130 00000000 		.4byte	0
 3669 0134 00000000 		.4byte	0
 3670              	.LLST37:
 3671 0138 00000000 		.4byte	.LVL125
 3672 013c 08000000 		.4byte	.LVL127
 3673 0140 0100     		.2byte	0x1
 3674 0142 50       		.byte	0x50
 3675 0143 08000000 		.4byte	.LVL127
 3676 0147 0C000000 		.4byte	.LFE145
 3677 014b 0400     		.2byte	0x4
 3678 014d F3       		.byte	0xf3
 3679 014e 01       		.uleb128 0x1
 3680 014f 50       		.byte	0x50
 3681 0150 9F       		.byte	0x9f
 3682 0151 00000000 		.4byte	0
 3683 0155 00000000 		.4byte	0
 3684              	.LLST38:
 3685 0159 00000000 		.4byte	.LVL125
 3686 015d 02000000 		.4byte	.LVL126
 3687 0161 0200     		.2byte	0x2
 3688 0163 30       		.byte	0x30
 3689 0164 9F       		.byte	0x9f
 3690 0165 02000000 		.4byte	.LVL126
 3691 0169 0C000000 		.4byte	.LFE145
 3692 016d 0B00     		.2byte	0xb
 3693 016f 71       		.byte	0x71
 3694 0170 00       		.sleb128 0
 3695 0171 08       		.byte	0x8
 3696 0172 FF       		.byte	0xff
 3697 0173 1A       		.byte	0x1a
 3698 0174 73       		.byte	0x73
 3699 0175 00       		.sleb128 0
 3700 0176 1A       		.byte	0x1a
 3701 0177 30       		.byte	0x30
 3702 0178 2E       		.byte	0x2e
 3703 0179 9F       		.byte	0x9f
 3704 017a 00000000 		.4byte	0
 3705 017e 00000000 		.4byte	0
ARM GAS  /tmp/ccHl477X.s 			page 66


 3706              	.LLST35:
 3707 0182 00000000 		.4byte	.LVL119
 3708 0186 02000000 		.4byte	.LVL120
 3709 018a 0100     		.2byte	0x1
 3710 018c 51       		.byte	0x51
 3711 018d 02000000 		.4byte	.LVL120
 3712 0191 18000000 		.4byte	.LFE144
 3713 0195 0400     		.2byte	0x4
 3714 0197 F3       		.byte	0xf3
 3715 0198 01       		.uleb128 0x1
 3716 0199 51       		.byte	0x51
 3717 019a 9F       		.byte	0x9f
 3718 019b 00000000 		.4byte	0
 3719 019f 00000000 		.4byte	0
 3720              	.LLST36:
 3721 01a3 00000000 		.4byte	.LVL119
 3722 01a7 02000000 		.4byte	.LVL120
 3723 01ab 0200     		.2byte	0x2
 3724 01ad 30       		.byte	0x30
 3725 01ae 9F       		.byte	0x9f
 3726 01af 02000000 		.4byte	.LVL120
 3727 01b3 06000000 		.4byte	.LVL121
 3728 01b7 0100     		.2byte	0x1
 3729 01b9 51       		.byte	0x51
 3730 01ba 06000000 		.4byte	.LVL121
 3731 01be 0E000000 		.4byte	.LVL122
 3732 01c2 0100     		.2byte	0x1
 3733 01c4 53       		.byte	0x53
 3734 01c5 0E000000 		.4byte	.LVL122
 3735 01c9 12000000 		.4byte	.LVL123
 3736 01cd 0900     		.2byte	0x9
 3737 01cf 31       		.byte	0x31
 3738 01d0 F3       		.byte	0xf3
 3739 01d1 01       		.uleb128 0x1
 3740 01d2 51       		.byte	0x51
 3741 01d3 08       		.byte	0x8
 3742 01d4 FF       		.byte	0xff
 3743 01d5 1A       		.byte	0x1a
 3744 01d6 24       		.byte	0x24
 3745 01d7 9F       		.byte	0x9f
 3746 01d8 12000000 		.4byte	.LVL123
 3747 01dc 14000000 		.4byte	.LVL124
 3748 01e0 0100     		.2byte	0x1
 3749 01e2 53       		.byte	0x53
 3750 01e3 14000000 		.4byte	.LVL124
 3751 01e7 18000000 		.4byte	.LFE144
 3752 01eb 0900     		.2byte	0x9
 3753 01ed 31       		.byte	0x31
 3754 01ee F3       		.byte	0xf3
 3755 01ef 01       		.uleb128 0x1
 3756 01f0 51       		.byte	0x51
 3757 01f1 08       		.byte	0x8
 3758 01f2 FF       		.byte	0xff
 3759 01f3 1A       		.byte	0x1a
 3760 01f4 24       		.byte	0x24
 3761 01f5 9F       		.byte	0x9f
 3762 01f6 00000000 		.4byte	0
ARM GAS  /tmp/ccHl477X.s 			page 67


 3763 01fa 00000000 		.4byte	0
 3764              	.LLST33:
 3765 01fe 00000000 		.4byte	.LVL116
 3766 0202 14000000 		.4byte	.LVL118
 3767 0206 0100     		.2byte	0x1
 3768 0208 50       		.byte	0x50
 3769 0209 14000000 		.4byte	.LVL118
 3770 020d 1A000000 		.4byte	.LFE143
 3771 0211 0400     		.2byte	0x4
 3772 0213 F3       		.byte	0xf3
 3773 0214 01       		.uleb128 0x1
 3774 0215 50       		.byte	0x50
 3775 0216 9F       		.byte	0x9f
 3776 0217 00000000 		.4byte	0
 3777 021b 00000000 		.4byte	0
 3778              	.LLST34:
 3779 021f 00000000 		.4byte	.LVL116
 3780 0223 0E000000 		.4byte	.LVL117
 3781 0227 0100     		.2byte	0x1
 3782 0229 51       		.byte	0x51
 3783 022a 0E000000 		.4byte	.LVL117
 3784 022e 1A000000 		.4byte	.LFE143
 3785 0232 0400     		.2byte	0x4
 3786 0234 F3       		.byte	0xf3
 3787 0235 01       		.uleb128 0x1
 3788 0236 51       		.byte	0x51
 3789 0237 9F       		.byte	0x9f
 3790 0238 00000000 		.4byte	0
 3791 023c 00000000 		.4byte	0
 3792              	.LLST31:
 3793 0240 00000000 		.4byte	.LVL109
 3794 0244 08000000 		.4byte	.LVL112
 3795 0248 0100     		.2byte	0x1
 3796 024a 51       		.byte	0x51
 3797 024b 08000000 		.4byte	.LVL112
 3798 024f 0C000000 		.4byte	.LFE138
 3799 0253 0400     		.2byte	0x4
 3800 0255 F3       		.byte	0xf3
 3801 0256 01       		.uleb128 0x1
 3802 0257 51       		.byte	0x51
 3803 0258 9F       		.byte	0x9f
 3804 0259 00000000 		.4byte	0
 3805 025d 00000000 		.4byte	0
 3806              	.LLST32:
 3807 0261 00000000 		.4byte	.LVL109
 3808 0265 02000000 		.4byte	.LVL110
 3809 0269 0200     		.2byte	0x2
 3810 026b 30       		.byte	0x30
 3811 026c 9F       		.byte	0x9f
 3812 026d 02000000 		.4byte	.LVL110
 3813 0271 08000000 		.4byte	.LVL112
 3814 0275 0100     		.2byte	0x1
 3815 0277 53       		.byte	0x53
 3816 0278 08000000 		.4byte	.LVL112
 3817 027c 0C000000 		.4byte	.LFE138
 3818 0280 0100     		.2byte	0x1
 3819 0282 51       		.byte	0x51
ARM GAS  /tmp/ccHl477X.s 			page 68


 3820 0283 00000000 		.4byte	0
 3821 0287 00000000 		.4byte	0
 3822              	.LLST29:
 3823 028b 00000000 		.4byte	.LVL105
 3824 028f 08000000 		.4byte	.LVL108
 3825 0293 0100     		.2byte	0x1
 3826 0295 51       		.byte	0x51
 3827 0296 08000000 		.4byte	.LVL108
 3828 029a 0C000000 		.4byte	.LFE137
 3829 029e 0400     		.2byte	0x4
 3830 02a0 F3       		.byte	0xf3
 3831 02a1 01       		.uleb128 0x1
 3832 02a2 51       		.byte	0x51
 3833 02a3 9F       		.byte	0x9f
 3834 02a4 00000000 		.4byte	0
 3835 02a8 00000000 		.4byte	0
 3836              	.LLST30:
 3837 02ac 00000000 		.4byte	.LVL105
 3838 02b0 02000000 		.4byte	.LVL106
 3839 02b4 0200     		.2byte	0x2
 3840 02b6 30       		.byte	0x30
 3841 02b7 9F       		.byte	0x9f
 3842 02b8 02000000 		.4byte	.LVL106
 3843 02bc 08000000 		.4byte	.LVL108
 3844 02c0 0100     		.2byte	0x1
 3845 02c2 53       		.byte	0x53
 3846 02c3 08000000 		.4byte	.LVL108
 3847 02c7 0C000000 		.4byte	.LFE137
 3848 02cb 0100     		.2byte	0x1
 3849 02cd 51       		.byte	0x51
 3850 02ce 00000000 		.4byte	0
 3851 02d2 00000000 		.4byte	0
 3852              	.LLST28:
 3853 02d6 00000000 		.4byte	.LVL103
 3854 02da 0C000000 		.4byte	.LVL104
 3855 02de 0100     		.2byte	0x1
 3856 02e0 51       		.byte	0x51
 3857 02e1 0C000000 		.4byte	.LVL104
 3858 02e5 16000000 		.4byte	.LFE136
 3859 02e9 0400     		.2byte	0x4
 3860 02eb F3       		.byte	0xf3
 3861 02ec 01       		.uleb128 0x1
 3862 02ed 51       		.byte	0x51
 3863 02ee 9F       		.byte	0x9f
 3864 02ef 00000000 		.4byte	0
 3865 02f3 00000000 		.4byte	0
 3866              	.LLST25:
 3867 02f7 00000000 		.4byte	.LVL99
 3868 02fb 04000000 		.4byte	.LVL100
 3869 02ff 0100     		.2byte	0x1
 3870 0301 51       		.byte	0x51
 3871 0302 04000000 		.4byte	.LVL100
 3872 0306 10000000 		.4byte	.LFE135
 3873 030a 0400     		.2byte	0x4
 3874 030c F3       		.byte	0xf3
 3875 030d 01       		.uleb128 0x1
 3876 030e 51       		.byte	0x51
ARM GAS  /tmp/ccHl477X.s 			page 69


 3877 030f 9F       		.byte	0x9f
 3878 0310 00000000 		.4byte	0
 3879 0314 00000000 		.4byte	0
 3880              	.LLST26:
 3881 0318 00000000 		.4byte	.LVL99
 3882 031c 04000000 		.4byte	.LVL100
 3883 0320 0200     		.2byte	0x2
 3884 0322 30       		.byte	0x30
 3885 0323 9F       		.byte	0x9f
 3886 0324 04000000 		.4byte	.LVL100
 3887 0328 10000000 		.4byte	.LFE135
 3888 032c 0100     		.2byte	0x1
 3889 032e 51       		.byte	0x51
 3890 032f 00000000 		.4byte	0
 3891 0333 00000000 		.4byte	0
 3892              	.LLST27:
 3893 0337 00000000 		.4byte	.LVL99
 3894 033b 08000000 		.4byte	.LVL101
 3895 033f 0200     		.2byte	0x2
 3896 0341 30       		.byte	0x30
 3897 0342 9F       		.byte	0x9f
 3898 0343 08000000 		.4byte	.LVL101
 3899 0347 10000000 		.4byte	.LFE135
 3900 034b 0900     		.2byte	0x9
 3901 034d F3       		.byte	0xf3
 3902 034e 01       		.uleb128 0x1
 3903 034f 51       		.byte	0x51
 3904 0350 08       		.byte	0x8
 3905 0351 FF       		.byte	0xff
 3906 0352 1A       		.byte	0x1a
 3907 0353 31       		.byte	0x31
 3908 0354 1C       		.byte	0x1c
 3909 0355 9F       		.byte	0x9f
 3910 0356 00000000 		.4byte	0
 3911 035a 00000000 		.4byte	0
 3912              	.LLST19:
 3913 035e 00000000 		.4byte	.LVL80
 3914 0362 34000000 		.4byte	.LVL91
 3915 0366 0100     		.2byte	0x1
 3916 0368 51       		.byte	0x51
 3917 0369 34000000 		.4byte	.LVL91
 3918 036d 3C000000 		.4byte	.LVL93
 3919 0371 0400     		.2byte	0x4
 3920 0373 F3       		.byte	0xf3
 3921 0374 01       		.uleb128 0x1
 3922 0375 51       		.byte	0x51
 3923 0376 9F       		.byte	0x9f
 3924 0377 3C000000 		.4byte	.LVL93
 3925 037b 56000000 		.4byte	.LFE134
 3926 037f 0100     		.2byte	0x1
 3927 0381 51       		.byte	0x51
 3928 0382 00000000 		.4byte	0
 3929 0386 00000000 		.4byte	0
 3930              	.LLST20:
 3931 038a 00000000 		.4byte	.LVL80
 3932 038e 1E000000 		.4byte	.LVL87
 3933 0392 0100     		.2byte	0x1
ARM GAS  /tmp/ccHl477X.s 			page 70


 3934 0394 52       		.byte	0x52
 3935 0395 1E000000 		.4byte	.LVL87
 3936 0399 3C000000 		.4byte	.LVL93
 3937 039d 0400     		.2byte	0x4
 3938 039f F3       		.byte	0xf3
 3939 03a0 01       		.uleb128 0x1
 3940 03a1 52       		.byte	0x52
 3941 03a2 9F       		.byte	0x9f
 3942 03a3 3C000000 		.4byte	.LVL93
 3943 03a7 56000000 		.4byte	.LFE134
 3944 03ab 0100     		.2byte	0x1
 3945 03ad 52       		.byte	0x52
 3946 03ae 00000000 		.4byte	0
 3947 03b2 00000000 		.4byte	0
 3948              	.LLST21:
 3949 03b6 00000000 		.4byte	.LVL80
 3950 03ba 12000000 		.4byte	.LVL83
 3951 03be 0100     		.2byte	0x1
 3952 03c0 53       		.byte	0x53
 3953 03c1 12000000 		.4byte	.LVL83
 3954 03c5 3C000000 		.4byte	.LVL93
 3955 03c9 0400     		.2byte	0x4
 3956 03cb F3       		.byte	0xf3
 3957 03cc 01       		.uleb128 0x1
 3958 03cd 53       		.byte	0x53
 3959 03ce 9F       		.byte	0x9f
 3960 03cf 3C000000 		.4byte	.LVL93
 3961 03d3 4C000000 		.4byte	.LVL96
 3962 03d7 0100     		.2byte	0x1
 3963 03d9 53       		.byte	0x53
 3964 03da 4C000000 		.4byte	.LVL96
 3965 03de 56000000 		.4byte	.LFE134
 3966 03e2 0400     		.2byte	0x4
 3967 03e4 F3       		.byte	0xf3
 3968 03e5 01       		.uleb128 0x1
 3969 03e6 53       		.byte	0x53
 3970 03e7 9F       		.byte	0x9f
 3971 03e8 00000000 		.4byte	0
 3972 03ec 00000000 		.4byte	0
 3973              	.LLST22:
 3974 03f0 00000000 		.4byte	.LVL80
 3975 03f4 0C000000 		.4byte	.LVL81
 3976 03f8 0200     		.2byte	0x2
 3977 03fa 30       		.byte	0x30
 3978 03fb 9F       		.byte	0x9f
 3979 03fc 0C000000 		.4byte	.LVL81
 3980 0400 18000000 		.4byte	.LVL85
 3981 0404 0100     		.2byte	0x1
 3982 0406 54       		.byte	0x54
 3983 0407 18000000 		.4byte	.LVL85
 3984 040b 36000000 		.4byte	.LVL92
 3985 040f 0100     		.2byte	0x1
 3986 0411 53       		.byte	0x53
 3987 0412 36000000 		.4byte	.LVL92
 3988 0416 3C000000 		.4byte	.LVL93
 3989 041a 0100     		.2byte	0x1
 3990 041c 51       		.byte	0x51
ARM GAS  /tmp/ccHl477X.s 			page 71


 3991 041d 3C000000 		.4byte	.LVL93
 3992 0421 46000000 		.4byte	.LVL94
 3993 0425 0200     		.2byte	0x2
 3994 0427 30       		.byte	0x30
 3995 0428 9F       		.byte	0x9f
 3996 0429 46000000 		.4byte	.LVL94
 3997 042d 50000000 		.4byte	.LVL97
 3998 0431 0100     		.2byte	0x1
 3999 0433 55       		.byte	0x55
 4000 0434 50000000 		.4byte	.LVL97
 4001 0438 52000000 		.4byte	.LVL98
 4002 043c 0100     		.2byte	0x1
 4003 043e 54       		.byte	0x54
 4004 043f 52000000 		.4byte	.LVL98
 4005 0443 56000000 		.4byte	.LFE134
 4006 0447 0100     		.2byte	0x1
 4007 0449 53       		.byte	0x53
 4008 044a 00000000 		.4byte	0
 4009 044e 00000000 		.4byte	0
 4010              	.LLST23:
 4011 0452 00000000 		.4byte	.LVL80
 4012 0456 0C000000 		.4byte	.LVL81
 4013 045a 0200     		.2byte	0x2
 4014 045c 30       		.byte	0x30
 4015 045d 9F       		.byte	0x9f
 4016 045e 0C000000 		.4byte	.LVL81
 4017 0462 10000000 		.4byte	.LVL82
 4018 0466 0500     		.2byte	0x5
 4019 0468 37       		.byte	0x37
 4020 0469 76       		.byte	0x76
 4021 046a 00       		.sleb128 0
 4022 046b 24       		.byte	0x24
 4023 046c 9F       		.byte	0x9f
 4024 046d 10000000 		.4byte	.LVL82
 4025 0471 16000000 		.4byte	.LVL84
 4026 0475 0100     		.2byte	0x1
 4027 0477 55       		.byte	0x55
 4028 0478 2A000000 		.4byte	.LVL88
 4029 047c 2E000000 		.4byte	.LVL89
 4030 0480 0500     		.2byte	0x5
 4031 0482 4F       		.byte	0x4f
 4032 0483 72       		.byte	0x72
 4033 0484 00       		.sleb128 0
 4034 0485 24       		.byte	0x24
 4035 0486 9F       		.byte	0x9f
 4036 0487 2E000000 		.4byte	.LVL89
 4037 048b 32000000 		.4byte	.LVL90
 4038 048f 0100     		.2byte	0x1
 4039 0491 54       		.byte	0x54
 4040 0492 32000000 		.4byte	.LVL90
 4041 0496 34000000 		.4byte	.LVL91
 4042 049a 0900     		.2byte	0x9
 4043 049c 71       		.byte	0x71
 4044 049d 00       		.sleb128 0
 4045 049e 08       		.byte	0x8
 4046 049f FF       		.byte	0xff
 4047 04a0 1A       		.byte	0x1a
ARM GAS  /tmp/ccHl477X.s 			page 72


 4048 04a1 72       		.byte	0x72
 4049 04a2 00       		.sleb128 0
 4050 04a3 24       		.byte	0x24
 4051 04a4 9F       		.byte	0x9f
 4052 04a5 3C000000 		.4byte	.LVL93
 4053 04a9 46000000 		.4byte	.LVL94
 4054 04ad 0200     		.2byte	0x2
 4055 04af 30       		.byte	0x30
 4056 04b0 9F       		.byte	0x9f
 4057 04b1 46000000 		.4byte	.LVL94
 4058 04b5 4A000000 		.4byte	.LVL95
 4059 04b9 0500     		.2byte	0x5
 4060 04bb 37       		.byte	0x37
 4061 04bc 74       		.byte	0x74
 4062 04bd 00       		.sleb128 0
 4063 04be 24       		.byte	0x24
 4064 04bf 9F       		.byte	0x9f
 4065 04c0 4A000000 		.4byte	.LVL95
 4066 04c4 50000000 		.4byte	.LVL97
 4067 04c8 0100     		.2byte	0x1
 4068 04ca 56       		.byte	0x56
 4069 04cb 00000000 		.4byte	0
 4070 04cf 00000000 		.4byte	0
 4071              	.LLST24:
 4072 04d3 00000000 		.4byte	.LVL80
 4073 04d7 1C000000 		.4byte	.LVL86
 4074 04db 0200     		.2byte	0x2
 4075 04dd 30       		.byte	0x30
 4076 04de 9F       		.byte	0x9f
 4077 04df 1C000000 		.4byte	.LVL86
 4078 04e3 32000000 		.4byte	.LVL90
 4079 04e7 0700     		.2byte	0x7
 4080 04e9 73       		.byte	0x73
 4081 04ea 00       		.sleb128 0
 4082 04eb 44       		.byte	0x44
 4083 04ec 25       		.byte	0x25
 4084 04ed 33       		.byte	0x33
 4085 04ee 1A       		.byte	0x1a
 4086 04ef 9F       		.byte	0x9f
 4087 04f0 3C000000 		.4byte	.LVL93
 4088 04f4 56000000 		.4byte	.LFE134
 4089 04f8 0200     		.2byte	0x2
 4090 04fa 30       		.byte	0x30
 4091 04fb 9F       		.byte	0x9f
 4092 04fc 00000000 		.4byte	0
 4093 0500 00000000 		.4byte	0
 4094              	.LLST18:
 4095 0504 00000000 		.4byte	.LVL75
 4096 0508 02000000 		.4byte	.LVL76
 4097 050c 0100     		.2byte	0x1
 4098 050e 50       		.byte	0x50
 4099 050f 02000000 		.4byte	.LVL76
 4100 0513 06000000 		.4byte	.LFE129
 4101 0517 0400     		.2byte	0x4
 4102 0519 F3       		.byte	0xf3
 4103 051a 01       		.uleb128 0x1
 4104 051b 50       		.byte	0x50
ARM GAS  /tmp/ccHl477X.s 			page 73


 4105 051c 9F       		.byte	0x9f
 4106 051d 00000000 		.4byte	0
 4107 0521 00000000 		.4byte	0
 4108              	.LLST15:
 4109 0525 00000000 		.4byte	.LVL70
 4110 0529 04000000 		.4byte	.LVL71
 4111 052d 0100     		.2byte	0x1
 4112 052f 51       		.byte	0x51
 4113 0530 04000000 		.4byte	.LVL71
 4114 0534 10000000 		.4byte	.LFE127
 4115 0538 0400     		.2byte	0x4
 4116 053a F3       		.byte	0xf3
 4117 053b 01       		.uleb128 0x1
 4118 053c 51       		.byte	0x51
 4119 053d 9F       		.byte	0x9f
 4120 053e 00000000 		.4byte	0
 4121 0542 00000000 		.4byte	0
 4122              	.LLST16:
 4123 0546 00000000 		.4byte	.LVL70
 4124 054a 04000000 		.4byte	.LVL71
 4125 054e 0200     		.2byte	0x2
 4126 0550 30       		.byte	0x30
 4127 0551 9F       		.byte	0x9f
 4128 0552 04000000 		.4byte	.LVL71
 4129 0556 10000000 		.4byte	.LFE127
 4130 055a 0100     		.2byte	0x1
 4131 055c 51       		.byte	0x51
 4132 055d 00000000 		.4byte	0
 4133 0561 00000000 		.4byte	0
 4134              	.LLST17:
 4135 0565 00000000 		.4byte	.LVL70
 4136 0569 08000000 		.4byte	.LVL72
 4137 056d 0200     		.2byte	0x2
 4138 056f 30       		.byte	0x30
 4139 0570 9F       		.byte	0x9f
 4140 0571 08000000 		.4byte	.LVL72
 4141 0575 10000000 		.4byte	.LFE127
 4142 0579 0900     		.2byte	0x9
 4143 057b F3       		.byte	0xf3
 4144 057c 01       		.uleb128 0x1
 4145 057d 51       		.byte	0x51
 4146 057e 08       		.byte	0x8
 4147 057f FF       		.byte	0xff
 4148 0580 1A       		.byte	0x1a
 4149 0581 31       		.byte	0x31
 4150 0582 1C       		.byte	0x1c
 4151 0583 9F       		.byte	0x9f
 4152 0584 00000000 		.4byte	0
 4153 0588 00000000 		.4byte	0
 4154              	.LLST13:
 4155 058c 00000000 		.4byte	.LVL65
 4156 0590 02000000 		.4byte	.LVL66
 4157 0594 0100     		.2byte	0x1
 4158 0596 50       		.byte	0x50
 4159 0597 02000000 		.4byte	.LVL66
 4160 059b 08000000 		.4byte	.LFE124
 4161 059f 0400     		.2byte	0x4
ARM GAS  /tmp/ccHl477X.s 			page 74


 4162 05a1 F3       		.byte	0xf3
 4163 05a2 01       		.uleb128 0x1
 4164 05a3 50       		.byte	0x50
 4165 05a4 9F       		.byte	0x9f
 4166 05a5 00000000 		.4byte	0
 4167 05a9 00000000 		.4byte	0
 4168              	.LLST14:
 4169 05ad 00000000 		.4byte	.LVL65
 4170 05b1 02000000 		.4byte	.LVL66
 4171 05b5 0200     		.2byte	0x2
 4172 05b7 30       		.byte	0x30
 4173 05b8 9F       		.byte	0x9f
 4174 05b9 02000000 		.4byte	.LVL66
 4175 05bd 06000000 		.4byte	.LVL67
 4176 05c1 0900     		.2byte	0x9
 4177 05c3 70       		.byte	0x70
 4178 05c4 00       		.sleb128 0
 4179 05c5 40       		.byte	0x40
 4180 05c6 42       		.byte	0x42
 4181 05c7 24       		.byte	0x24
 4182 05c8 1A       		.byte	0x1a
 4183 05c9 30       		.byte	0x30
 4184 05ca 2E       		.byte	0x2e
 4185 05cb 9F       		.byte	0x9f
 4186 05cc 00000000 		.4byte	0
 4187 05d0 00000000 		.4byte	0
 4188              	.LLST8:
 4189 05d4 00000000 		.4byte	.LVL33
 4190 05d8 34000000 		.4byte	.LVL42
 4191 05dc 0100     		.2byte	0x1
 4192 05de 51       		.byte	0x51
 4193 05df 34000000 		.4byte	.LVL42
 4194 05e3 40000000 		.4byte	.LVL45
 4195 05e7 0400     		.2byte	0x4
 4196 05e9 F3       		.byte	0xf3
 4197 05ea 01       		.uleb128 0x1
 4198 05eb 51       		.byte	0x51
 4199 05ec 9F       		.byte	0x9f
 4200 05ed 40000000 		.4byte	.LVL45
 4201 05f1 66000000 		.4byte	.LVL54
 4202 05f5 0100     		.2byte	0x1
 4203 05f7 51       		.byte	0x51
 4204 05f8 66000000 		.4byte	.LVL54
 4205 05fc 72000000 		.4byte	.LVL57
 4206 0600 0400     		.2byte	0x4
 4207 0602 F3       		.byte	0xf3
 4208 0603 01       		.uleb128 0x1
 4209 0604 51       		.byte	0x51
 4210 0605 9F       		.byte	0x9f
 4211 0606 72000000 		.4byte	.LVL57
 4212 060a 80000000 		.4byte	.LVL61
 4213 060e 0100     		.2byte	0x1
 4214 0610 51       		.byte	0x51
 4215 0611 80000000 		.4byte	.LVL61
 4216 0615 8C000000 		.4byte	.LFE122
 4217 0619 0400     		.2byte	0x4
 4218 061b F3       		.byte	0xf3
ARM GAS  /tmp/ccHl477X.s 			page 75


 4219 061c 01       		.uleb128 0x1
 4220 061d 51       		.byte	0x51
 4221 061e 9F       		.byte	0x9f
 4222 061f 00000000 		.4byte	0
 4223 0623 00000000 		.4byte	0
 4224              	.LLST9:
 4225 0627 00000000 		.4byte	.LVL33
 4226 062b 28000000 		.4byte	.LVL39
 4227 062f 0100     		.2byte	0x1
 4228 0631 52       		.byte	0x52
 4229 0632 28000000 		.4byte	.LVL39
 4230 0636 40000000 		.4byte	.LVL45
 4231 063a 0400     		.2byte	0x4
 4232 063c F3       		.byte	0xf3
 4233 063d 01       		.uleb128 0x1
 4234 063e 52       		.byte	0x52
 4235 063f 9F       		.byte	0x9f
 4236 0640 40000000 		.4byte	.LVL45
 4237 0644 5A000000 		.4byte	.LVL51
 4238 0648 0100     		.2byte	0x1
 4239 064a 52       		.byte	0x52
 4240 064b 5A000000 		.4byte	.LVL51
 4241 064f 72000000 		.4byte	.LVL57
 4242 0653 0400     		.2byte	0x4
 4243 0655 F3       		.byte	0xf3
 4244 0656 01       		.uleb128 0x1
 4245 0657 52       		.byte	0x52
 4246 0658 9F       		.byte	0x9f
 4247 0659 72000000 		.4byte	.LVL57
 4248 065d 74000000 		.4byte	.LVL58
 4249 0661 0100     		.2byte	0x1
 4250 0663 52       		.byte	0x52
 4251 0664 74000000 		.4byte	.LVL58
 4252 0668 8C000000 		.4byte	.LFE122
 4253 066c 0400     		.2byte	0x4
 4254 066e F3       		.byte	0xf3
 4255 066f 01       		.uleb128 0x1
 4256 0670 52       		.byte	0x52
 4257 0671 9F       		.byte	0x9f
 4258 0672 00000000 		.4byte	0
 4259 0676 00000000 		.4byte	0
 4260              	.LLST10:
 4261 067a 00000000 		.4byte	.LVL33
 4262 067e 16000000 		.4byte	.LVL36
 4263 0682 0100     		.2byte	0x1
 4264 0684 53       		.byte	0x53
 4265 0685 16000000 		.4byte	.LVL36
 4266 0689 40000000 		.4byte	.LVL45
 4267 068d 0400     		.2byte	0x4
 4268 068f F3       		.byte	0xf3
 4269 0690 01       		.uleb128 0x1
 4270 0691 53       		.byte	0x53
 4271 0692 9F       		.byte	0x9f
 4272 0693 40000000 		.4byte	.LVL45
 4273 0697 4C000000 		.4byte	.LVL48
 4274 069b 0100     		.2byte	0x1
 4275 069d 53       		.byte	0x53
ARM GAS  /tmp/ccHl477X.s 			page 76


 4276 069e 4C000000 		.4byte	.LVL48
 4277 06a2 8C000000 		.4byte	.LFE122
 4278 06a6 0400     		.2byte	0x4
 4279 06a8 F3       		.byte	0xf3
 4280 06a9 01       		.uleb128 0x1
 4281 06aa 53       		.byte	0x53
 4282 06ab 9F       		.byte	0x9f
 4283 06ac 00000000 		.4byte	0
 4284 06b0 00000000 		.4byte	0
 4285              	.LLST11:
 4286 06b4 00000000 		.4byte	.LVL33
 4287 06b8 10000000 		.4byte	.LVL34
 4288 06bc 0200     		.2byte	0x2
 4289 06be 30       		.byte	0x30
 4290 06bf 9F       		.byte	0x9f
 4291 06c0 10000000 		.4byte	.LVL34
 4292 06c4 1A000000 		.4byte	.LVL37
 4293 06c8 0100     		.2byte	0x1
 4294 06ca 55       		.byte	0x55
 4295 06cb 1A000000 		.4byte	.LVL37
 4296 06cf 1C000000 		.4byte	.LVL38
 4297 06d3 0100     		.2byte	0x1
 4298 06d5 54       		.byte	0x54
 4299 06d6 1C000000 		.4byte	.LVL38
 4300 06da 38000000 		.4byte	.LVL43
 4301 06de 0100     		.2byte	0x1
 4302 06e0 53       		.byte	0x53
 4303 06e1 38000000 		.4byte	.LVL43
 4304 06e5 3A000000 		.4byte	.LVL44
 4305 06e9 0100     		.2byte	0x1
 4306 06eb 52       		.byte	0x52
 4307 06ec 3A000000 		.4byte	.LVL44
 4308 06f0 40000000 		.4byte	.LVL45
 4309 06f4 0100     		.2byte	0x1
 4310 06f6 51       		.byte	0x51
 4311 06f7 40000000 		.4byte	.LVL45
 4312 06fb 46000000 		.4byte	.LVL46
 4313 06ff 0200     		.2byte	0x2
 4314 0701 30       		.byte	0x30
 4315 0702 9F       		.byte	0x9f
 4316 0703 46000000 		.4byte	.LVL46
 4317 0707 52000000 		.4byte	.LVL50
 4318 070b 0100     		.2byte	0x1
 4319 070d 54       		.byte	0x54
 4320 070e 52000000 		.4byte	.LVL50
 4321 0712 6A000000 		.4byte	.LVL55
 4322 0716 0100     		.2byte	0x1
 4323 0718 53       		.byte	0x53
 4324 0719 6A000000 		.4byte	.LVL55
 4325 071d 6C000000 		.4byte	.LVL56
 4326 0721 0100     		.2byte	0x1
 4327 0723 52       		.byte	0x52
 4328 0724 6C000000 		.4byte	.LVL56
 4329 0728 72000000 		.4byte	.LVL57
 4330 072c 0100     		.2byte	0x1
 4331 072e 51       		.byte	0x51
 4332 072f 72000000 		.4byte	.LVL57
ARM GAS  /tmp/ccHl477X.s 			page 77


 4333 0733 84000000 		.4byte	.LVL62
 4334 0737 0100     		.2byte	0x1
 4335 0739 53       		.byte	0x53
 4336 073a 84000000 		.4byte	.LVL62
 4337 073e 86000000 		.4byte	.LVL63
 4338 0742 0100     		.2byte	0x1
 4339 0744 52       		.byte	0x52
 4340 0745 86000000 		.4byte	.LVL63
 4341 0749 8C000000 		.4byte	.LFE122
 4342 074d 0100     		.2byte	0x1
 4343 074f 51       		.byte	0x51
 4344 0750 00000000 		.4byte	0
 4345 0754 00000000 		.4byte	0
 4346              	.LLST12:
 4347 0758 00000000 		.4byte	.LVL33
 4348 075c 10000000 		.4byte	.LVL34
 4349 0760 0200     		.2byte	0x2
 4350 0762 30       		.byte	0x30
 4351 0763 9F       		.byte	0x9f
 4352 0764 10000000 		.4byte	.LVL34
 4353 0768 14000000 		.4byte	.LVL35
 4354 076c 0500     		.2byte	0x5
 4355 076e 37       		.byte	0x37
 4356 076f 74       		.byte	0x74
 4357 0770 00       		.sleb128 0
 4358 0771 24       		.byte	0x24
 4359 0772 9F       		.byte	0x9f
 4360 0773 14000000 		.4byte	.LVL35
 4361 0777 1A000000 		.4byte	.LVL37
 4362 077b 0100     		.2byte	0x1
 4363 077d 56       		.byte	0x56
 4364 077e 2E000000 		.4byte	.LVL40
 4365 0782 32000000 		.4byte	.LVL41
 4366 0786 0500     		.2byte	0x5
 4367 0788 4F       		.byte	0x4f
 4368 0789 72       		.byte	0x72
 4369 078a 00       		.sleb128 0
 4370 078b 24       		.byte	0x24
 4371 078c 9F       		.byte	0x9f
 4372 078d 32000000 		.4byte	.LVL41
 4373 0791 38000000 		.4byte	.LVL43
 4374 0795 0100     		.2byte	0x1
 4375 0797 54       		.byte	0x54
 4376 0798 40000000 		.4byte	.LVL45
 4377 079c 46000000 		.4byte	.LVL46
 4378 07a0 0200     		.2byte	0x2
 4379 07a2 30       		.byte	0x30
 4380 07a3 9F       		.byte	0x9f
 4381 07a4 46000000 		.4byte	.LVL46
 4382 07a8 4A000000 		.4byte	.LVL47
 4383 07ac 0500     		.2byte	0x5
 4384 07ae 37       		.byte	0x37
 4385 07af 76       		.byte	0x76
 4386 07b0 00       		.sleb128 0
 4387 07b1 24       		.byte	0x24
 4388 07b2 9F       		.byte	0x9f
 4389 07b3 4A000000 		.4byte	.LVL47
ARM GAS  /tmp/ccHl477X.s 			page 78


 4390 07b7 50000000 		.4byte	.LVL49
 4391 07bb 0100     		.2byte	0x1
 4392 07bd 55       		.byte	0x55
 4393 07be 60000000 		.4byte	.LVL52
 4394 07c2 64000000 		.4byte	.LVL53
 4395 07c6 0500     		.2byte	0x5
 4396 07c8 4F       		.byte	0x4f
 4397 07c9 72       		.byte	0x72
 4398 07ca 00       		.sleb128 0
 4399 07cb 24       		.byte	0x24
 4400 07cc 9F       		.byte	0x9f
 4401 07cd 64000000 		.4byte	.LVL53
 4402 07d1 6A000000 		.4byte	.LVL55
 4403 07d5 0100     		.2byte	0x1
 4404 07d7 54       		.byte	0x54
 4405 07d8 7A000000 		.4byte	.LVL59
 4406 07dc 7E000000 		.4byte	.LVL60
 4407 07e0 0500     		.2byte	0x5
 4408 07e2 4F       		.byte	0x4f
 4409 07e3 72       		.byte	0x72
 4410 07e4 00       		.sleb128 0
 4411 07e5 24       		.byte	0x24
 4412 07e6 9F       		.byte	0x9f
 4413 07e7 7E000000 		.4byte	.LVL60
 4414 07eb 84000000 		.4byte	.LVL62
 4415 07ef 0100     		.2byte	0x1
 4416 07f1 54       		.byte	0x54
 4417 07f2 00000000 		.4byte	0
 4418 07f6 00000000 		.4byte	0
 4419              	.LLST6:
 4420 07fa 00000000 		.4byte	.LVL27
 4421 07fe 08000000 		.4byte	.LVL30
 4422 0802 0100     		.2byte	0x1
 4423 0804 51       		.byte	0x51
 4424 0805 08000000 		.4byte	.LVL30
 4425 0809 0C000000 		.4byte	.LFE119
 4426 080d 0400     		.2byte	0x4
 4427 080f F3       		.byte	0xf3
 4428 0810 01       		.uleb128 0x1
 4429 0811 51       		.byte	0x51
 4430 0812 9F       		.byte	0x9f
 4431 0813 00000000 		.4byte	0
 4432 0817 00000000 		.4byte	0
 4433              	.LLST7:
 4434 081b 00000000 		.4byte	.LVL27
 4435 081f 02000000 		.4byte	.LVL28
 4436 0823 0200     		.2byte	0x2
 4437 0825 30       		.byte	0x30
 4438 0826 9F       		.byte	0x9f
 4439 0827 02000000 		.4byte	.LVL28
 4440 082b 08000000 		.4byte	.LVL30
 4441 082f 0100     		.2byte	0x1
 4442 0831 53       		.byte	0x53
 4443 0832 08000000 		.4byte	.LVL30
 4444 0836 0C000000 		.4byte	.LFE119
 4445 083a 0100     		.2byte	0x1
 4446 083c 51       		.byte	0x51
ARM GAS  /tmp/ccHl477X.s 			page 79


 4447 083d 00000000 		.4byte	0
 4448 0841 00000000 		.4byte	0
 4449              	.LLST4:
 4450 0845 00000000 		.4byte	.LVL21
 4451 0849 0C000000 		.4byte	.LVL25
 4452 084d 0100     		.2byte	0x1
 4453 084f 51       		.byte	0x51
 4454 0850 0C000000 		.4byte	.LVL25
 4455 0854 10000000 		.4byte	.LFE117
 4456 0858 0400     		.2byte	0x4
 4457 085a F3       		.byte	0xf3
 4458 085b 01       		.uleb128 0x1
 4459 085c 51       		.byte	0x51
 4460 085d 9F       		.byte	0x9f
 4461 085e 00000000 		.4byte	0
 4462 0862 00000000 		.4byte	0
 4463              	.LLST5:
 4464 0866 00000000 		.4byte	.LVL21
 4465 086a 02000000 		.4byte	.LVL22
 4466 086e 0200     		.2byte	0x2
 4467 0870 30       		.byte	0x30
 4468 0871 9F       		.byte	0x9f
 4469 0872 02000000 		.4byte	.LVL22
 4470 0876 06000000 		.4byte	.LVL23
 4471 087a 0100     		.2byte	0x1
 4472 087c 53       		.byte	0x53
 4473 087d 0A000000 		.4byte	.LVL24
 4474 0881 0C000000 		.4byte	.LVL25
 4475 0885 0100     		.2byte	0x1
 4476 0887 53       		.byte	0x53
 4477 0888 0C000000 		.4byte	.LVL25
 4478 088c 10000000 		.4byte	.LFE117
 4479 0890 0100     		.2byte	0x1
 4480 0892 51       		.byte	0x51
 4481 0893 00000000 		.4byte	0
 4482 0897 00000000 		.4byte	0
 4483              	.LLST2:
 4484 089b 00000000 		.4byte	.LVL14
 4485 089f 12000000 		.4byte	.LVL17
 4486 08a3 0100     		.2byte	0x1
 4487 08a5 50       		.byte	0x50
 4488 08a6 12000000 		.4byte	.LVL17
 4489 08aa 28000000 		.4byte	.LFE114
 4490 08ae 0400     		.2byte	0x4
 4491 08b0 F3       		.byte	0xf3
 4492 08b1 01       		.uleb128 0x1
 4493 08b2 50       		.byte	0x50
 4494 08b3 9F       		.byte	0x9f
 4495 08b4 00000000 		.4byte	0
 4496 08b8 00000000 		.4byte	0
 4497              	.LLST3:
 4498 08bc 00000000 		.4byte	.LVL14
 4499 08c0 0C000000 		.4byte	.LVL15
 4500 08c4 0200     		.2byte	0x2
 4501 08c6 30       		.byte	0x30
 4502 08c7 9F       		.byte	0x9f
 4503 08c8 0C000000 		.4byte	.LVL15
ARM GAS  /tmp/ccHl477X.s 			page 80


 4504 08cc 0E000000 		.4byte	.LVL16
 4505 08d0 0800     		.2byte	0x8
 4506 08d2 74       		.byte	0x74
 4507 08d3 00       		.sleb128 0
 4508 08d4 11       		.byte	0x11
 4509 08d5 E0E170   		.sleb128 -249632
 4510 08d8 1A       		.byte	0x1a
 4511 08d9 9F       		.byte	0x9f
 4512 08da 0E000000 		.4byte	.LVL16
 4513 08de 1A000000 		.4byte	.LVL18
 4514 08e2 0100     		.2byte	0x1
 4515 08e4 52       		.byte	0x52
 4516 08e5 1A000000 		.4byte	.LVL18
 4517 08e9 28000000 		.4byte	.LFE114
 4518 08ed 0100     		.2byte	0x1
 4519 08ef 53       		.byte	0x53
 4520 08f0 00000000 		.4byte	0
 4521 08f4 00000000 		.4byte	0
 4522              	.LLST0:
 4523 08f8 00000000 		.4byte	.LVL2
 4524 08fc 02000000 		.4byte	.LVL3
 4525 0900 0200     		.2byte	0x2
 4526 0902 30       		.byte	0x30
 4527 0903 9F       		.byte	0x9f
 4528 0904 02000000 		.4byte	.LVL3
 4529 0908 0A000000 		.4byte	.LVL4
 4530 090c 0900     		.2byte	0x9
 4531 090e 72       		.byte	0x72
 4532 090f 00       		.sleb128 0
 4533 0910 11       		.byte	0x11
 4534 0911 FFFDFF67 		.sleb128 -50331905
 4535 0915 1A       		.byte	0x1a
 4536 0916 9F       		.byte	0x9f
 4537 0917 1A000000 		.4byte	.LVL5
 4538 091b 20000000 		.4byte	.LVL6
 4539 091f 0100     		.2byte	0x1
 4540 0921 52       		.byte	0x52
 4541 0922 20000000 		.4byte	.LVL6
 4542 0926 26000000 		.4byte	.LVL7
 4543 092a 0A00     		.2byte	0xa
 4544 092c 75       		.byte	0x75
 4545 092d 00       		.sleb128 0
 4546 092e 11       		.byte	0x11
 4547 092f FDEFFF87 		.sleb128 -1056966659
 4547      7C
 4548 0934 1A       		.byte	0x1a
 4549 0935 9F       		.byte	0x9f
 4550 0936 26000000 		.4byte	.LVL7
 4551 093a 30000000 		.4byte	.LVL8
 4552 093e 0100     		.2byte	0x1
 4553 0940 52       		.byte	0x52
 4554 0941 30000000 		.4byte	.LVL8
 4555 0945 4C000000 		.4byte	.LFE112
 4556 0949 0100     		.2byte	0x1
 4557 094b 53       		.byte	0x53
 4558 094c 00000000 		.4byte	0
 4559 0950 00000000 		.4byte	0
ARM GAS  /tmp/ccHl477X.s 			page 81


 4560              	.LLST1:
 4561 0954 00000000 		.4byte	.LVL2
 4562 0958 3E000000 		.4byte	.LVL10
 4563 095c 0200     		.2byte	0x2
 4564 095e 30       		.byte	0x30
 4565 095f 9F       		.byte	0x9f
 4566 0960 3E000000 		.4byte	.LVL10
 4567 0964 44000000 		.4byte	.LVL12
 4568 0968 0700     		.2byte	0x7
 4569 096a 71       		.byte	0x71
 4570 096b 14       		.sleb128 20
 4571 096c 94       		.byte	0x94
 4572 096d 01       		.byte	0x1
 4573 096e 31       		.byte	0x31
 4574 096f 1C       		.byte	0x1c
 4575 0970 9F       		.byte	0x9f
 4576 0971 00000000 		.4byte	0
 4577 0975 00000000 		.4byte	0
 4578              		.section	.debug_aranges,"",%progbits
 4579 0000 3C010000 		.4byte	0x13c
 4580 0004 0200     		.2byte	0x2
 4581 0006 00000000 		.4byte	.Ldebug_info0
 4582 000a 04       		.byte	0x4
 4583 000b 00       		.byte	0
 4584 000c 0000     		.2byte	0
 4585 000e 0000     		.2byte	0
 4586 0010 00000000 		.4byte	.LFB111
 4587 0014 1A000000 		.4byte	.LFE111-.LFB111
 4588 0018 00000000 		.4byte	.LFB112
 4589 001c 4C000000 		.4byte	.LFE112-.LFB112
 4590 0020 00000000 		.4byte	.LFB113
 4591 0024 14000000 		.4byte	.LFE113-.LFB113
 4592 0028 00000000 		.4byte	.LFB114
 4593 002c 28000000 		.4byte	.LFE114-.LFB114
 4594 0030 00000000 		.4byte	.LFB115
 4595 0034 0C000000 		.4byte	.LFE115-.LFB115
 4596 0038 00000000 		.4byte	.LFB116
 4597 003c 14000000 		.4byte	.LFE116-.LFB116
 4598 0040 00000000 		.4byte	.LFB117
 4599 0044 10000000 		.4byte	.LFE117-.LFB117
 4600 0048 00000000 		.4byte	.LFB118
 4601 004c 06000000 		.4byte	.LFE118-.LFB118
 4602 0050 00000000 		.4byte	.LFB119
 4603 0054 0C000000 		.4byte	.LFE119-.LFB119
 4604 0058 00000000 		.4byte	.LFB120
 4605 005c 1C000000 		.4byte	.LFE120-.LFB120
 4606 0060 00000000 		.4byte	.LFB121
 4607 0064 1C000000 		.4byte	.LFE121-.LFB121
 4608 0068 00000000 		.4byte	.LFB122
 4609 006c 8C000000 		.4byte	.LFE122-.LFB122
 4610 0070 00000000 		.4byte	.LFB123
 4611 0074 0A000000 		.4byte	.LFE123-.LFB123
 4612 0078 00000000 		.4byte	.LFB124
 4613 007c 08000000 		.4byte	.LFE124-.LFB124
 4614 0080 00000000 		.4byte	.LFB125
 4615 0084 14000000 		.4byte	.LFE125-.LFB125
 4616 0088 00000000 		.4byte	.LFB126
ARM GAS  /tmp/ccHl477X.s 			page 82


 4617 008c 14000000 		.4byte	.LFE126-.LFB126
 4618 0090 00000000 		.4byte	.LFB127
 4619 0094 10000000 		.4byte	.LFE127-.LFB127
 4620 0098 00000000 		.4byte	.LFB128
 4621 009c 14000000 		.4byte	.LFE128-.LFB128
 4622 00a0 00000000 		.4byte	.LFB129
 4623 00a4 06000000 		.4byte	.LFE129-.LFB129
 4624 00a8 00000000 		.4byte	.LFB130
 4625 00ac 0C000000 		.4byte	.LFE130-.LFB130
 4626 00b0 00000000 		.4byte	.LFB131
 4627 00b4 14000000 		.4byte	.LFE131-.LFB131
 4628 00b8 00000000 		.4byte	.LFB132
 4629 00bc 14000000 		.4byte	.LFE132-.LFB132
 4630 00c0 00000000 		.4byte	.LFB133
 4631 00c4 1C000000 		.4byte	.LFE133-.LFB133
 4632 00c8 00000000 		.4byte	.LFB134
 4633 00cc 56000000 		.4byte	.LFE134-.LFB134
 4634 00d0 00000000 		.4byte	.LFB135
 4635 00d4 10000000 		.4byte	.LFE135-.LFB135
 4636 00d8 00000000 		.4byte	.LFB136
 4637 00dc 16000000 		.4byte	.LFE136-.LFB136
 4638 00e0 00000000 		.4byte	.LFB137
 4639 00e4 0C000000 		.4byte	.LFE137-.LFB137
 4640 00e8 00000000 		.4byte	.LFB138
 4641 00ec 0C000000 		.4byte	.LFE138-.LFB138
 4642 00f0 00000000 		.4byte	.LFB139
 4643 00f4 0A000000 		.4byte	.LFE139-.LFB139
 4644 00f8 00000000 		.4byte	.LFB141
 4645 00fc 14000000 		.4byte	.LFE141-.LFB141
 4646 0100 00000000 		.4byte	.LFB142
 4647 0104 14000000 		.4byte	.LFE142-.LFB142
 4648 0108 00000000 		.4byte	.LFB143
 4649 010c 1A000000 		.4byte	.LFE143-.LFB143
 4650 0110 00000000 		.4byte	.LFB144
 4651 0114 18000000 		.4byte	.LFE144-.LFB144
 4652 0118 00000000 		.4byte	.LFB145
 4653 011c 0C000000 		.4byte	.LFE145-.LFB145
 4654 0120 00000000 		.4byte	.LFB146
 4655 0124 06000000 		.4byte	.LFE146-.LFB146
 4656 0128 00000000 		.4byte	.LFB147
 4657 012c 1C000000 		.4byte	.LFE147-.LFB147
 4658 0130 00000000 		.4byte	.LFB148
 4659 0134 08000000 		.4byte	.LFE148-.LFB148
 4660 0138 00000000 		.4byte	0
 4661 013c 00000000 		.4byte	0
 4662              		.section	.debug_ranges,"",%progbits
 4663              	.Ldebug_ranges0:
 4664 0000 00000000 		.4byte	.LFB111
 4665 0004 1A000000 		.4byte	.LFE111
 4666 0008 00000000 		.4byte	.LFB112
 4667 000c 4C000000 		.4byte	.LFE112
 4668 0010 00000000 		.4byte	.LFB113
 4669 0014 14000000 		.4byte	.LFE113
 4670 0018 00000000 		.4byte	.LFB114
 4671 001c 28000000 		.4byte	.LFE114
 4672 0020 00000000 		.4byte	.LFB115
 4673 0024 0C000000 		.4byte	.LFE115
ARM GAS  /tmp/ccHl477X.s 			page 83


 4674 0028 00000000 		.4byte	.LFB116
 4675 002c 14000000 		.4byte	.LFE116
 4676 0030 00000000 		.4byte	.LFB117
 4677 0034 10000000 		.4byte	.LFE117
 4678 0038 00000000 		.4byte	.LFB118
 4679 003c 06000000 		.4byte	.LFE118
 4680 0040 00000000 		.4byte	.LFB119
 4681 0044 0C000000 		.4byte	.LFE119
 4682 0048 00000000 		.4byte	.LFB120
 4683 004c 1C000000 		.4byte	.LFE120
 4684 0050 00000000 		.4byte	.LFB121
 4685 0054 1C000000 		.4byte	.LFE121
 4686 0058 00000000 		.4byte	.LFB122
 4687 005c 8C000000 		.4byte	.LFE122
 4688 0060 00000000 		.4byte	.LFB123
 4689 0064 0A000000 		.4byte	.LFE123
 4690 0068 00000000 		.4byte	.LFB124
 4691 006c 08000000 		.4byte	.LFE124
 4692 0070 00000000 		.4byte	.LFB125
 4693 0074 14000000 		.4byte	.LFE125
 4694 0078 00000000 		.4byte	.LFB126
 4695 007c 14000000 		.4byte	.LFE126
 4696 0080 00000000 		.4byte	.LFB127
 4697 0084 10000000 		.4byte	.LFE127
 4698 0088 00000000 		.4byte	.LFB128
 4699 008c 14000000 		.4byte	.LFE128
 4700 0090 00000000 		.4byte	.LFB129
 4701 0094 06000000 		.4byte	.LFE129
 4702 0098 00000000 		.4byte	.LFB130
 4703 009c 0C000000 		.4byte	.LFE130
 4704 00a0 00000000 		.4byte	.LFB131
 4705 00a4 14000000 		.4byte	.LFE131
 4706 00a8 00000000 		.4byte	.LFB132
 4707 00ac 14000000 		.4byte	.LFE132
 4708 00b0 00000000 		.4byte	.LFB133
 4709 00b4 1C000000 		.4byte	.LFE133
 4710 00b8 00000000 		.4byte	.LFB134
 4711 00bc 56000000 		.4byte	.LFE134
 4712 00c0 00000000 		.4byte	.LFB135
 4713 00c4 10000000 		.4byte	.LFE135
 4714 00c8 00000000 		.4byte	.LFB136
 4715 00cc 16000000 		.4byte	.LFE136
 4716 00d0 00000000 		.4byte	.LFB137
 4717 00d4 0C000000 		.4byte	.LFE137
 4718 00d8 00000000 		.4byte	.LFB138
 4719 00dc 0C000000 		.4byte	.LFE138
 4720 00e0 00000000 		.4byte	.LFB139
 4721 00e4 0A000000 		.4byte	.LFE139
 4722 00e8 00000000 		.4byte	.LFB141
 4723 00ec 14000000 		.4byte	.LFE141
 4724 00f0 00000000 		.4byte	.LFB142
 4725 00f4 14000000 		.4byte	.LFE142
 4726 00f8 00000000 		.4byte	.LFB143
 4727 00fc 1A000000 		.4byte	.LFE143
 4728 0100 00000000 		.4byte	.LFB144
 4729 0104 18000000 		.4byte	.LFE144
 4730 0108 00000000 		.4byte	.LFB145
ARM GAS  /tmp/ccHl477X.s 			page 84


 4731 010c 0C000000 		.4byte	.LFE145
 4732 0110 00000000 		.4byte	.LFB146
 4733 0114 06000000 		.4byte	.LFE146
 4734 0118 00000000 		.4byte	.LFB147
 4735 011c 1C000000 		.4byte	.LFE147
 4736 0120 00000000 		.4byte	.LFB148
 4737 0124 08000000 		.4byte	.LFE148
 4738 0128 00000000 		.4byte	0
 4739 012c 00000000 		.4byte	0
 4740              		.section	.debug_line,"",%progbits
 4741              	.Ldebug_line0:
 4742 0000 2F050000 		.section	.debug_str,"MS",%progbits,1
 4742      02007801 
 4742      00000201 
 4742      FB0E0D00 
 4742      01010101 
 4743              	.LASF63:
 4744 0000 4E657753 		.ascii	"NewState\000"
 4744      74617465 
 4744      00
 4745              	.LASF53:
 4746 0009 4144435F 		.ascii	"ADC_IT\000"
 4746      495400
 4747              	.LASF43:
 4748 0010 4144435F 		.ascii	"ADC_ExternalTrigConv\000"
 4748      45787465 
 4748      726E616C 
 4748      54726967 
 4748      436F6E76 
 4749              	.LASF18:
 4750 0025 466C6167 		.ascii	"FlagStatus\000"
 4750      53746174 
 4750      757300
 4751              	.LASF51:
 4752 0030 4144435F 		.ascii	"ADC_CommonInitTypeDef\000"
 4752      436F6D6D 
 4752      6F6E496E 
 4752      69745479 
 4752      70654465 
 4753              	.LASF3:
 4754 0046 5F5F7569 		.ascii	"__uint8_t\000"
 4754      6E74385F 
 4754      7400
 4755              	.LASF24:
 4756 0050 534D5052 		.ascii	"SMPR2\000"
 4756      3200
 4757              	.LASF52:
 4758 0056 41444378 		.ascii	"ADCx\000"
 4758      00
 4759              	.LASF113:
 4760 005b 474E5520 		.ascii	"GNU C99 7.3.1 20180622 (release) [ARM/embedded-7-br"
 4760      43393920 
 4760      372E332E 
 4760      31203230 
 4760      31383036 
 4761 008e 616E6368 		.ascii	"anch revision 261907] -mcpu=cortex-m4 -mfloat-abi=h"
 4761      20726576 
ARM GAS  /tmp/ccHl477X.s 			page 85


 4761      6973696F 
 4761      6E203236 
 4761      31393037 
 4762 00c1 61726420 		.ascii	"ard -mfpu=fpv4-sp-d16 -mno-thumb-interwork -mthumb "
 4762      2D6D6670 
 4762      753D6670 
 4762      76342D73 
 4762      702D6431 
 4763 00f4 2D676764 		.ascii	"-ggdb -O2 -std=gnu99 -fomit-frame-pointer -falign-f"
 4763      62202D4F 
 4763      32202D73 
 4763      74643D67 
 4763      6E753939 
 4764 0127 756E6374 		.ascii	"unctions=16 -ffunction-sections -fdata-sections -fn"
 4764      696F6E73 
 4764      3D313620 
 4764      2D666675 
 4764      6E637469 
 4765 015a 6F2D636F 		.ascii	"o-common -fsingle-precision-constant\000"
 4765      6D6D6F6E 
 4765      202D6673 
 4765      696E676C 
 4765      652D7072 
 4766              	.LASF111:
 4767 017f 4144435F 		.ascii	"ADC_Init\000"
 4767      496E6974 
 4767      00
 4768              	.LASF20:
 4769 0188 44495341 		.ascii	"DISABLE\000"
 4769      424C4500 
 4770              	.LASF11:
 4771 0190 6C6F6E67 		.ascii	"long long unsigned int\000"
 4771      206C6F6E 
 4771      6720756E 
 4771      7369676E 
 4771      65642069 
 4772              	.LASF25:
 4773 01a7 4A4F4652 		.ascii	"JOFR1\000"
 4773      3100
 4774              	.LASF45:
 4775 01ad 4144435F 		.ascii	"ADC_NbrOfConversion\000"
 4775      4E62724F 
 4775      66436F6E 
 4775      76657273 
 4775      696F6E00 
 4776              	.LASF116:
 4777 01c1 49544D5F 		.ascii	"ITM_RxBuffer\000"
 4777      52784275 
 4777      66666572 
 4777      00
 4778              	.LASF32:
 4779 01ce 4A535152 		.ascii	"JSQR\000"
 4779      00
 4780              	.LASF10:
 4781 01d3 6C6F6E67 		.ascii	"long long int\000"
 4781      206C6F6E 
 4781      6720696E 
ARM GAS  /tmp/ccHl477X.s 			page 86


 4781      7400
 4782              	.LASF0:
 4783 01e1 7369676E 		.ascii	"signed char\000"
 4783      65642063 
 4783      68617200 
 4784              	.LASF100:
 4785 01ed 4144435F 		.ascii	"ADC_AnalogWatchdogThresholdsConfig\000"
 4785      416E616C 
 4785      6F675761 
 4785      74636864 
 4785      6F675468 
 4786              	.LASF70:
 4787 0210 4144435F 		.ascii	"ADC_ExternalTrigInjecConvEdge\000"
 4787      45787465 
 4787      726E616C 
 4787      54726967 
 4787      496E6A65 
 4788              	.LASF80:
 4789 022e 4144435F 		.ascii	"ADC_InjectedChannelConfig\000"
 4789      496E6A65 
 4789      63746564 
 4789      4368616E 
 4789      6E656C43 
 4790              	.LASF71:
 4791 0248 746D7072 		.ascii	"tmpreg\000"
 4791      656700
 4792              	.LASF88:
 4793 024f 4144435F 		.ascii	"ADC_GetConversionValue\000"
 4793      47657443 
 4793      6F6E7665 
 4793      7273696F 
 4793      6E56616C 
 4794              	.LASF105:
 4795 0266 4144435F 		.ascii	"ADC_Cmd\000"
 4795      436D6400 
 4796              	.LASF41:
 4797 026e 4144435F 		.ascii	"ADC_ContinuousConvMode\000"
 4797      436F6E74 
 4797      696E756F 
 4797      7573436F 
 4797      6E764D6F 
 4798              	.LASF7:
 4799 0285 6C6F6E67 		.ascii	"long int\000"
 4799      20696E74 
 4799      00
 4800              	.LASF59:
 4801 028e 4144435F 		.ascii	"ADC_FLAG\000"
 4801      464C4147 
 4801      00
 4802              	.LASF86:
 4803 0297 4144435F 		.ascii	"ADC_DMARequestAfterLastTransferCmd\000"
 4803      444D4152 
 4803      65717565 
 4803      73744166 
 4803      7465724C 
 4804              	.LASF21:
 4805 02ba 454E4142 		.ascii	"ENABLE\000"
ARM GAS  /tmp/ccHl477X.s 			page 87


 4805      4C4500
 4806              	.LASF114:
 4807 02c1 43686962 		.ascii	"ChibiOS_2.6.6/ext/stdperiph_stm32f4/src/stm32f4xx_a"
 4807      694F535F 
 4807      322E362E 
 4807      362F6578 
 4807      742F7374 
 4808 02f4 64632E63 		.ascii	"dc.c\000"
 4808      00
 4809              	.LASF14:
 4810 02f9 75696E74 		.ascii	"uint16_t\000"
 4810      31365F74 
 4810      00
 4811              	.LASF37:
 4812 0302 4144435F 		.ascii	"ADC_TypeDef\000"
 4812      54797065 
 4812      44656600 
 4813              	.LASF110:
 4814 030e 4144435F 		.ascii	"ADC_InitStruct\000"
 4814      496E6974 
 4814      53747275 
 4814      637400
 4815              	.LASF8:
 4816 031d 5F5F7569 		.ascii	"__uint32_t\000"
 4816      6E743332 
 4816      5F7400
 4817              	.LASF90:
 4818 0328 4144435F 		.ascii	"ADC_DiscModeChannelCountConfig\000"
 4818      44697363 
 4818      4D6F6465 
 4818      4368616E 
 4818      6E656C43 
 4819              	.LASF109:
 4820 0347 4144435F 		.ascii	"ADC_StructInit\000"
 4820      53747275 
 4820      6374496E 
 4820      697400
 4821              	.LASF99:
 4822 0356 4144435F 		.ascii	"ADC_AnalogWatchdogSingleChannelConfig\000"
 4822      416E616C 
 4822      6F675761 
 4822      74636864 
 4822      6F675369 
 4823              	.LASF102:
 4824 037c 4C6F7754 		.ascii	"LowThreshold\000"
 4824      68726573 
 4824      686F6C64 
 4824      00
 4825              	.LASF22:
 4826 0389 46756E63 		.ascii	"FunctionalState\000"
 4826      74696F6E 
 4826      616C5374 
 4826      61746500 
 4827              	.LASF19:
 4828 0399 49545374 		.ascii	"ITStatus\000"
 4828      61747573 
 4828      00
ARM GAS  /tmp/ccHl477X.s 			page 88


 4829              	.LASF66:
 4830 03a2 4144435F 		.ascii	"ADC_InjectedDiscModeCmd\000"
 4830      496E6A65 
 4830      63746564 
 4830      44697363 
 4830      4D6F6465 
 4831              	.LASF12:
 4832 03ba 756E7369 		.ascii	"unsigned int\000"
 4832      676E6564 
 4832      20696E74 
 4832      00
 4833              	.LASF62:
 4834 03c7 4144435F 		.ascii	"ADC_ITConfig\000"
 4834      4954436F 
 4834      6E666967 
 4834      00
 4835              	.LASF9:
 4836 03d4 6C6F6E67 		.ascii	"long unsigned int\000"
 4836      20756E73 
 4836      69676E65 
 4836      6420696E 
 4836      7400
 4837              	.LASF98:
 4838 03e6 4144435F 		.ascii	"ADC_TempSensorVrefintCmd\000"
 4838      54656D70 
 4838      53656E73 
 4838      6F725672 
 4838      6566696E 
 4839              	.LASF49:
 4840 03ff 4144435F 		.ascii	"ADC_DMAAccessMode\000"
 4840      444D4141 
 4840      63636573 
 4840      734D6F64 
 4840      6500
 4841              	.LASF68:
 4842 0411 4144435F 		.ascii	"ADC_SoftwareStartInjectedConv\000"
 4842      536F6674 
 4842      77617265 
 4842      53746172 
 4842      74496E6A 
 4843              	.LASF5:
 4844 042f 73686F72 		.ascii	"short unsigned int\000"
 4844      7420756E 
 4844      7369676E 
 4844      65642069 
 4844      6E7400
 4845              	.LASF106:
 4846 0442 4144435F 		.ascii	"ADC_CommonStructInit\000"
 4846      436F6D6D 
 4846      6F6E5374 
 4846      72756374 
 4846      496E6974 
 4847              	.LASF96:
 4848 0457 4144435F 		.ascii	"ADC_RegularChannelConfig\000"
 4848      52656775 
 4848      6C617243 
 4848      68616E6E 
ARM GAS  /tmp/ccHl477X.s 			page 89


 4848      656C436F 
 4849              	.LASF115:
 4850 0470 2F686F6D 		.ascii	"/home/renan/BLDC/bldc-bootloader\000"
 4850      652F7265 
 4850      6E616E2F 
 4850      424C4443 
 4850      2F626C64 
 4851              	.LASF101:
 4852 0491 48696768 		.ascii	"HighThreshold\000"
 4852      54687265 
 4852      73686F6C 
 4852      6400
 4853              	.LASF78:
 4854 049f 746D7072 		.ascii	"tmpreg1\000"
 4854      65673100 
 4855              	.LASF79:
 4856 04a7 746D7072 		.ascii	"tmpreg2\000"
 4856      65673200 
 4857              	.LASF84:
 4858 04af 746D7072 		.ascii	"tmpreg3\000"
 4858      65673300 
 4859              	.LASF112:
 4860 04b7 4144435F 		.ascii	"ADC_DeInit\000"
 4860      4465496E 
 4860      697400
 4861              	.LASF92:
 4862 04c2 4144435F 		.ascii	"ADC_ContinuousModeCmd\000"
 4862      436F6E74 
 4862      696E756F 
 4862      75734D6F 
 4862      6465436D 
 4863              	.LASF58:
 4864 04d8 4144435F 		.ascii	"ADC_ClearFlag\000"
 4864      436C6561 
 4864      72466C61 
 4864      6700
 4865              	.LASF26:
 4866 04e6 4A4F4652 		.ascii	"JOFR2\000"
 4866      3200
 4867              	.LASF27:
 4868 04ec 4A4F4652 		.ascii	"JOFR3\000"
 4868      3300
 4869              	.LASF69:
 4870 04f2 4144435F 		.ascii	"ADC_ExternalTrigInjectedConvEdgeConfig\000"
 4870      45787465 
 4870      726E616C 
 4870      54726967 
 4870      496E6A65 
 4871              	.LASF91:
 4872 0519 4E756D62 		.ascii	"Number\000"
 4872      657200
 4873              	.LASF118:
 4874 0520 4144435F 		.ascii	"ADC_GetMultiModeConversionValue\000"
 4874      4765744D 
 4874      756C7469 
 4874      4D6F6465 
 4874      436F6E76 
ARM GAS  /tmp/ccHl477X.s 			page 90


 4875              	.LASF87:
 4876 0540 4144435F 		.ascii	"ADC_DMACmd\000"
 4876      444D4143 
 4876      6D6400
 4877              	.LASF38:
 4878 054b 4144435F 		.ascii	"ADC_Common_TypeDef\000"
 4878      436F6D6D 
 4878      6F6E5F54 
 4878      79706544 
 4878      656600
 4879              	.LASF73:
 4880 055e 4144435F 		.ascii	"ADC_ExternalTrigInjecConv\000"
 4880      45787465 
 4880      726E616C 
 4880      54726967 
 4880      496E6A65 
 4881              	.LASF104:
 4882 0578 4144435F 		.ascii	"ADC_AnalogWatchdog\000"
 4882      416E616C 
 4882      6F675761 
 4882      74636864 
 4882      6F6700
 4883              	.LASF23:
 4884 058b 534D5052 		.ascii	"SMPR1\000"
 4884      3100
 4885              	.LASF83:
 4886 0591 4144435F 		.ascii	"ADC_SampleTime\000"
 4886      53616D70 
 4886      6C655469 
 4886      6D6500
 4887              	.LASF119:
 4888 05a0 5243435F 		.ascii	"RCC_APB2PeriphResetCmd\000"
 4888      41504232 
 4888      50657269 
 4888      70685265 
 4888      73657443 
 4889              	.LASF74:
 4890 05b7 4144435F 		.ascii	"ADC_SetInjectedOffset\000"
 4890      53657449 
 4890      6E6A6563 
 4890      7465644F 
 4890      66667365 
 4891              	.LASF29:
 4892 05cd 53515231 		.ascii	"SQR1\000"
 4892      00
 4893              	.LASF30:
 4894 05d2 53515232 		.ascii	"SQR2\000"
 4894      00
 4895              	.LASF31:
 4896 05d7 53515233 		.ascii	"SQR3\000"
 4896      00
 4897              	.LASF54:
 4898 05dc 69746D61 		.ascii	"itmask\000"
 4898      736B00
 4899              	.LASF57:
 4900 05e3 4144435F 		.ascii	"ADC_ClearITPendingBit\000"
 4900      436C6561 
ARM GAS  /tmp/ccHl477X.s 			page 91


 4900      72495450 
 4900      656E6469 
 4900      6E674269 
 4901              	.LASF82:
 4902 05f9 52616E6B 		.ascii	"Rank\000"
 4902      00
 4903              	.LASF81:
 4904 05fe 4144435F 		.ascii	"ADC_Channel\000"
 4904      4368616E 
 4904      6E656C00 
 4905              	.LASF17:
 4906 060a 52455345 		.ascii	"RESET\000"
 4906      5400
 4907              	.LASF65:
 4908 0610 4144435F 		.ascii	"ADC_InjectedChannel\000"
 4908      496E6A65 
 4908      63746564 
 4908      4368616E 
 4908      6E656C00 
 4909              	.LASF117:
 4910 0624 4144435F 		.ascii	"ADC_GetSoftwareStartInjectedConvCmdStatus\000"
 4910      47657453 
 4910      6F667477 
 4910      61726553 
 4910      74617274 
 4911              	.LASF72:
 4912 064e 4144435F 		.ascii	"ADC_ExternalTrigInjectedConvConfig\000"
 4912      45787465 
 4912      726E616C 
 4912      54726967 
 4912      496E6A65 
 4913              	.LASF107:
 4914 0671 4144435F 		.ascii	"ADC_CommonInitStruct\000"
 4914      436F6D6D 
 4914      6F6E496E 
 4914      69745374 
 4914      72756374 
 4915              	.LASF15:
 4916 0686 696E7433 		.ascii	"int32_t\000"
 4916      325F7400 
 4917              	.LASF1:
 4918 068e 756E7369 		.ascii	"unsigned char\000"
 4918      676E6564 
 4918      20636861 
 4918      7200
 4919              	.LASF2:
 4920 069c 73686F72 		.ascii	"short int\000"
 4920      7420696E 
 4920      7400
 4921              	.LASF76:
 4922 06a6 4144435F 		.ascii	"ADC_InjectedSequencerLengthConfig\000"
 4922      496E6A65 
 4922      63746564 
 4922      53657175 
 4922      656E6365 
 4923              	.LASF42:
 4924 06c8 4144435F 		.ascii	"ADC_ExternalTrigConvEdge\000"
ARM GAS  /tmp/ccHl477X.s 			page 92


 4924      45787465 
 4924      726E616C 
 4924      54726967 
 4924      436F6E76 
 4925              	.LASF40:
 4926 06e1 4144435F 		.ascii	"ADC_ScanConvMode\000"
 4926      5363616E 
 4926      436F6E76 
 4926      4D6F6465 
 4926      00
 4927              	.LASF28:
 4928 06f2 4A4F4652 		.ascii	"JOFR4\000"
 4928      3400
 4929              	.LASF46:
 4930 06f8 4144435F 		.ascii	"ADC_InitTypeDef\000"
 4930      496E6974 
 4930      54797065 
 4930      44656600 
 4931              	.LASF60:
 4932 0708 4144435F 		.ascii	"ADC_GetITStatus\000"
 4932      47657449 
 4932      54537461 
 4932      74757300 
 4933              	.LASF16:
 4934 0718 75696E74 		.ascii	"uint32_t\000"
 4934      33325F74 
 4934      00
 4935              	.LASF44:
 4936 0721 4144435F 		.ascii	"ADC_DataAlign\000"
 4936      44617461 
 4936      416C6967 
 4936      6E00
 4937              	.LASF67:
 4938 072f 4144435F 		.ascii	"ADC_AutoInjectedConvCmd\000"
 4938      4175746F 
 4938      496E6A65 
 4938      63746564 
 4938      436F6E76 
 4939              	.LASF93:
 4940 0747 4144435F 		.ascii	"ADC_EOCOnEachRegularChannelCmd\000"
 4940      454F434F 
 4940      6E456163 
 4940      68526567 
 4940      756C6172 
 4941              	.LASF47:
 4942 0766 4144435F 		.ascii	"ADC_Mode\000"
 4942      4D6F6465 
 4942      00
 4943              	.LASF4:
 4944 076f 5F5F7569 		.ascii	"__uint16_t\000"
 4944      6E743136 
 4944      5F7400
 4945              	.LASF108:
 4946 077a 4144435F 		.ascii	"ADC_CommonInit\000"
 4946      436F6D6D 
 4946      6F6E496E 
 4946      697400
ARM GAS  /tmp/ccHl477X.s 			page 93


 4947              	.LASF56:
 4948 0789 656E6162 		.ascii	"enablestatus\000"
 4948      6C657374 
 4948      61747573 
 4948      00
 4949              	.LASF6:
 4950 0796 5F5F696E 		.ascii	"__int32_t\000"
 4950      7433325F 
 4950      7400
 4951              	.LASF94:
 4952 07a0 4144435F 		.ascii	"ADC_GetSoftwareStartConvStatus\000"
 4952      47657453 
 4952      6F667477 
 4952      61726553 
 4952      74617274 
 4953              	.LASF85:
 4954 07bf 4144435F 		.ascii	"ADC_MultiModeDMARequestAfterLastTransferCmd\000"
 4954      4D756C74 
 4954      694D6F64 
 4954      65444D41 
 4954      52657175 
 4955              	.LASF77:
 4956 07eb 4C656E67 		.ascii	"Length\000"
 4956      746800
 4957              	.LASF89:
 4958 07f2 4144435F 		.ascii	"ADC_DiscModeCmd\000"
 4958      44697363 
 4958      4D6F6465 
 4958      436D6400 
 4959              	.LASF103:
 4960 0802 4144435F 		.ascii	"ADC_AnalogWatchdogCmd\000"
 4960      416E616C 
 4960      6F675761 
 4960      74636864 
 4960      6F67436D 
 4961              	.LASF75:
 4962 0818 4F666673 		.ascii	"Offset\000"
 4962      657400
 4963              	.LASF13:
 4964 081f 75696E74 		.ascii	"uint8_t\000"
 4964      385F7400 
 4965              	.LASF61:
 4966 0827 4144435F 		.ascii	"ADC_GetFlagStatus\000"
 4966      47657446 
 4966      6C616753 
 4966      74617475 
 4966      7300
 4967              	.LASF33:
 4968 0839 4A445231 		.ascii	"JDR1\000"
 4968      00
 4969              	.LASF34:
 4970 083e 4A445232 		.ascii	"JDR2\000"
 4970      00
 4971              	.LASF35:
 4972 0843 4A445233 		.ascii	"JDR3\000"
 4972      00
 4973              	.LASF36:
ARM GAS  /tmp/ccHl477X.s 			page 94


 4974 0848 4A445234 		.ascii	"JDR4\000"
 4974      00
 4975              	.LASF55:
 4976 084d 62697473 		.ascii	"bitstatus\000"
 4976      74617475 
 4976      7300
 4977              	.LASF39:
 4978 0857 4144435F 		.ascii	"ADC_Resolution\000"
 4978      5265736F 
 4978      6C757469 
 4978      6F6E00
 4979              	.LASF64:
 4980 0866 4144435F 		.ascii	"ADC_GetInjectedConversionValue\000"
 4980      47657449 
 4980      6E6A6563 
 4980      74656443 
 4980      6F6E7665 
 4981              	.LASF95:
 4982 0885 4144435F 		.ascii	"ADC_SoftwareStartConv\000"
 4982      536F6674 
 4982      77617265 
 4982      53746172 
 4982      74436F6E 
 4983              	.LASF50:
 4984 089b 4144435F 		.ascii	"ADC_TwoSamplingDelay\000"
 4984      54776F53 
 4984      616D706C 
 4984      696E6744 
 4984      656C6179 
 4985              	.LASF97:
 4986 08b0 4144435F 		.ascii	"ADC_VBATCmd\000"
 4986      56424154 
 4986      436D6400 
 4987              	.LASF48:
 4988 08bc 4144435F 		.ascii	"ADC_Prescaler\000"
 4988      50726573 
 4988      63616C65 
 4988      7200
 4989              		.ident	"GCC: (GNU Tools for Arm Embedded Processors 7-2018-q3-update) 7.3.1 20180622 (release) [AR
ARM GAS  /tmp/ccHl477X.s 			page 95


DEFINED SYMBOLS
                            *ABS*:0000000000000000 stm32f4xx_adc.c
     /tmp/ccHl477X.s:18     .text.ADC_DeInit:0000000000000000 $t
     /tmp/ccHl477X.s:26     .text.ADC_DeInit:0000000000000000 ADC_DeInit
     /tmp/ccHl477X.s:57     .text.ADC_Init:0000000000000000 $t
     /tmp/ccHl477X.s:65     .text.ADC_Init:0000000000000000 ADC_Init
     /tmp/ccHl477X.s:144    .text.ADC_Init:0000000000000048 $d
     /tmp/ccHl477X.s:149    .text.ADC_StructInit:0000000000000000 $t
     /tmp/ccHl477X.s:157    .text.ADC_StructInit:0000000000000000 ADC_StructInit
     /tmp/ccHl477X.s:186    .text.ADC_CommonInit:0000000000000000 $t
     /tmp/ccHl477X.s:194    .text.ADC_CommonInit:0000000000000000 ADC_CommonInit
     /tmp/ccHl477X.s:238    .text.ADC_CommonInit:0000000000000020 $d
     /tmp/ccHl477X.s:244    .text.ADC_CommonStructInit:0000000000000000 $t
     /tmp/ccHl477X.s:252    .text.ADC_CommonStructInit:0000000000000000 ADC_CommonStructInit
     /tmp/ccHl477X.s:272    .text.ADC_Cmd:0000000000000000 $t
     /tmp/ccHl477X.s:280    .text.ADC_Cmd:0000000000000000 ADC_Cmd
     /tmp/ccHl477X.s:306    .text.ADC_AnalogWatchdogCmd:0000000000000000 $t
     /tmp/ccHl477X.s:314    .text.ADC_AnalogWatchdogCmd:0000000000000000 ADC_AnalogWatchdogCmd
     /tmp/ccHl477X.s:341    .text.ADC_AnalogWatchdogThresholdsConfig:0000000000000000 $t
     /tmp/ccHl477X.s:349    .text.ADC_AnalogWatchdogThresholdsConfig:0000000000000000 ADC_AnalogWatchdogThresholdsConfig
     /tmp/ccHl477X.s:367    .text.ADC_AnalogWatchdogSingleChannelConfig:0000000000000000 $t
     /tmp/ccHl477X.s:375    .text.ADC_AnalogWatchdogSingleChannelConfig:0000000000000000 ADC_AnalogWatchdogSingleChannelConfig
     /tmp/ccHl477X.s:400    .text.ADC_TempSensorVrefintCmd:0000000000000000 $t
     /tmp/ccHl477X.s:408    .text.ADC_TempSensorVrefintCmd:0000000000000000 ADC_TempSensorVrefintCmd
     /tmp/ccHl477X.s:434    .text.ADC_TempSensorVrefintCmd:0000000000000018 $d
     /tmp/ccHl477X.s:439    .text.ADC_VBATCmd:0000000000000000 $t
     /tmp/ccHl477X.s:447    .text.ADC_VBATCmd:0000000000000000 ADC_VBATCmd
     /tmp/ccHl477X.s:473    .text.ADC_VBATCmd:0000000000000018 $d
     /tmp/ccHl477X.s:478    .text.ADC_RegularChannelConfig:0000000000000000 $t
     /tmp/ccHl477X.s:486    .text.ADC_RegularChannelConfig:0000000000000000 ADC_RegularChannelConfig
     /tmp/ccHl477X.s:657    .text.ADC_SoftwareStartConv:0000000000000000 $t
     /tmp/ccHl477X.s:665    .text.ADC_SoftwareStartConv:0000000000000000 ADC_SoftwareStartConv
     /tmp/ccHl477X.s:683    .text.ADC_GetSoftwareStartConvStatus:0000000000000000 $t
     /tmp/ccHl477X.s:691    .text.ADC_GetSoftwareStartConvStatus:0000000000000000 ADC_GetSoftwareStartConvStatus
     /tmp/ccHl477X.s:710    .text.ADC_EOCOnEachRegularChannelCmd:0000000000000000 $t
     /tmp/ccHl477X.s:718    .text.ADC_EOCOnEachRegularChannelCmd:0000000000000000 ADC_EOCOnEachRegularChannelCmd
     /tmp/ccHl477X.s:744    .text.ADC_ContinuousModeCmd:0000000000000000 $t
     /tmp/ccHl477X.s:752    .text.ADC_ContinuousModeCmd:0000000000000000 ADC_ContinuousModeCmd
     /tmp/ccHl477X.s:778    .text.ADC_DiscModeChannelCountConfig:0000000000000000 $t
     /tmp/ccHl477X.s:786    .text.ADC_DiscModeChannelCountConfig:0000000000000000 ADC_DiscModeChannelCountConfig
     /tmp/ccHl477X.s:813    .text.ADC_DiscModeCmd:0000000000000000 $t
     /tmp/ccHl477X.s:821    .text.ADC_DiscModeCmd:0000000000000000 ADC_DiscModeCmd
     /tmp/ccHl477X.s:847    .text.ADC_GetConversionValue:0000000000000000 $t
     /tmp/ccHl477X.s:855    .text.ADC_GetConversionValue:0000000000000000 ADC_GetConversionValue
     /tmp/ccHl477X.s:873    .text.ADC_GetMultiModeConversionValue:0000000000000000 $t
     /tmp/ccHl477X.s:881    .text.ADC_GetMultiModeConversionValue:0000000000000000 ADC_GetMultiModeConversionValue
     /tmp/ccHl477X.s:896    .text.ADC_GetMultiModeConversionValue:0000000000000008 $d
     /tmp/ccHl477X.s:901    .text.ADC_DMACmd:0000000000000000 $t
     /tmp/ccHl477X.s:909    .text.ADC_DMACmd:0000000000000000 ADC_DMACmd
     /tmp/ccHl477X.s:935    .text.ADC_DMARequestAfterLastTransferCmd:0000000000000000 $t
     /tmp/ccHl477X.s:943    .text.ADC_DMARequestAfterLastTransferCmd:0000000000000000 ADC_DMARequestAfterLastTransferCmd
     /tmp/ccHl477X.s:969    .text.ADC_MultiModeDMARequestAfterLastTransferCmd:0000000000000000 $t
     /tmp/ccHl477X.s:977    .text.ADC_MultiModeDMARequestAfterLastTransferCmd:0000000000000000 ADC_MultiModeDMARequestAfterLastTransferCmd
     /tmp/ccHl477X.s:1003   .text.ADC_MultiModeDMARequestAfterLastTransferCmd:0000000000000018 $d
     /tmp/ccHl477X.s:1008   .text.ADC_InjectedChannelConfig:0000000000000000 $t
     /tmp/ccHl477X.s:1016   .text.ADC_InjectedChannelConfig:0000000000000000 ADC_InjectedChannelConfig
     /tmp/ccHl477X.s:1119   .text.ADC_InjectedSequencerLengthConfig:0000000000000000 $t
ARM GAS  /tmp/ccHl477X.s 			page 96


     /tmp/ccHl477X.s:1127   .text.ADC_InjectedSequencerLengthConfig:0000000000000000 ADC_InjectedSequencerLengthConfig
     /tmp/ccHl477X.s:1154   .text.ADC_SetInjectedOffset:0000000000000000 $t
     /tmp/ccHl477X.s:1162   .text.ADC_SetInjectedOffset:0000000000000000 ADC_SetInjectedOffset
     /tmp/ccHl477X.s:1194   .text.ADC_ExternalTrigInjectedConvConfig:0000000000000000 $t
     /tmp/ccHl477X.s:1202   .text.ADC_ExternalTrigInjectedConvConfig:0000000000000000 ADC_ExternalTrigInjectedConvConfig
     /tmp/ccHl477X.s:1227   .text.ADC_ExternalTrigInjectedConvEdgeConfig:0000000000000000 $t
     /tmp/ccHl477X.s:1235   .text.ADC_ExternalTrigInjectedConvEdgeConfig:0000000000000000 ADC_ExternalTrigInjectedConvEdgeConfig
     /tmp/ccHl477X.s:1260   .text.ADC_SoftwareStartInjectedConv:0000000000000000 $t
     /tmp/ccHl477X.s:1268   .text.ADC_SoftwareStartInjectedConv:0000000000000000 ADC_SoftwareStartInjectedConv
     /tmp/ccHl477X.s:1286   .text.ADC_GetSoftwareStartInjectedConvCmdStatus:0000000000000000 $t
     /tmp/ccHl477X.s:1294   .text.ADC_GetSoftwareStartInjectedConvCmdStatus:0000000000000000 ADC_GetSoftwareStartInjectedConvCmdStatus
     /tmp/ccHl477X.s:1305   .text.ADC_AutoInjectedConvCmd:0000000000000000 $t
     /tmp/ccHl477X.s:1313   .text.ADC_AutoInjectedConvCmd:0000000000000000 ADC_AutoInjectedConvCmd
     /tmp/ccHl477X.s:1339   .text.ADC_InjectedDiscModeCmd:0000000000000000 $t
     /tmp/ccHl477X.s:1347   .text.ADC_InjectedDiscModeCmd:0000000000000000 ADC_InjectedDiscModeCmd
     /tmp/ccHl477X.s:1373   .text.ADC_GetInjectedConversionValue:0000000000000000 $t
     /tmp/ccHl477X.s:1381   .text.ADC_GetInjectedConversionValue:0000000000000000 ADC_GetInjectedConversionValue
     /tmp/ccHl477X.s:1416   .text.ADC_ITConfig:0000000000000000 $t
     /tmp/ccHl477X.s:1424   .text.ADC_ITConfig:0000000000000000 ADC_ITConfig
     /tmp/ccHl477X.s:1460   .text.ADC_GetFlagStatus:0000000000000000 $t
     /tmp/ccHl477X.s:1468   .text.ADC_GetFlagStatus:0000000000000000 ADC_GetFlagStatus
     /tmp/ccHl477X.s:1490   .text.ADC_ClearFlag:0000000000000000 $t
     /tmp/ccHl477X.s:1498   .text.ADC_ClearFlag:0000000000000000 ADC_ClearFlag
     /tmp/ccHl477X.s:1516   .text.ADC_GetITStatus:0000000000000000 $t
     /tmp/ccHl477X.s:1524   .text.ADC_GetITStatus:0000000000000000 ADC_GetITStatus
     /tmp/ccHl477X.s:1560   .text.ADC_ClearITPendingBit:0000000000000000 $t
     /tmp/ccHl477X.s:1568   .text.ADC_ClearITPendingBit:0000000000000000 ADC_ClearITPendingBit

UNDEFINED SYMBOLS
RCC_APB2PeriphResetCmd
