ARM GAS  /tmp/ccwp7pIS.s 			page 1


   1              		.cpu cortex-m4
   2              		.eabi_attribute 27, 1
   3              		.eabi_attribute 28, 1
   4              		.eabi_attribute 20, 1
   5              		.eabi_attribute 21, 1
   6              		.eabi_attribute 23, 3
   7              		.eabi_attribute 24, 1
   8              		.eabi_attribute 25, 1
   9              		.eabi_attribute 26, 1
  10              		.eabi_attribute 30, 2
  11              		.eabi_attribute 34, 1
  12              		.eabi_attribute 18, 4
  13              		.file	"stm32f4xx_cryp.c"
  14              		.text
  15              	.Ltext0:
  16              		.cfi_sections	.debug_frame
  17              		.section	.text.CRYP_DeInit,"ax",%progbits
  18              		.align	1
  19              		.p2align 4,,15
  20              		.global	CRYP_DeInit
  21              		.syntax unified
  22              		.thumb
  23              		.thumb_func
  24              		.fpu fpv4-sp-d16
  25              		.type	CRYP_DeInit, %function
  26              	CRYP_DeInit:
  27              	.LFB111:
  28              		.file 1 "ChibiOS_2.6.6/ext/stdperiph_stm32f4/src/stm32f4xx_cryp.c"
  29              		.loc 1 222 0
  30              		.cfi_startproc
  31              		@ args = 0, pretend = 0, frame = 0
  32              		@ frame_needed = 0, uses_anonymous_args = 0
  33 0000 08B5     		push	{r3, lr}
  34              		.cfi_def_cfa_offset 8
  35              		.cfi_offset 3, -8
  36              		.cfi_offset 14, -4
  37              		.loc 1 224 0
  38 0002 0121     		movs	r1, #1
  39 0004 1020     		movs	r0, #16
  40 0006 FFF7FEFF 		bl	RCC_AHB2PeriphResetCmd
  41              	.LVL0:
  42              		.loc 1 227 0
  43 000a 0021     		movs	r1, #0
  44 000c 1020     		movs	r0, #16
  45              		.loc 1 228 0
  46 000e BDE80840 		pop	{r3, lr}
  47              		.cfi_restore 14
  48              		.cfi_restore 3
  49              		.cfi_def_cfa_offset 0
  50              		.loc 1 227 0
  51 0012 FFF7FEBF 		b	RCC_AHB2PeriphResetCmd
  52              	.LVL1:
  53              		.cfi_endproc
  54              	.LFE111:
  55              		.size	CRYP_DeInit, .-CRYP_DeInit
  56 0016 00BF     		.section	.text.CRYP_Init,"ax",%progbits
  57              		.align	1
ARM GAS  /tmp/ccwp7pIS.s 			page 2


  58              		.p2align 4,,15
  59              		.global	CRYP_Init
  60              		.syntax unified
  61              		.thumb
  62              		.thumb_func
  63              		.fpu fpv4-sp-d16
  64              		.type	CRYP_Init, %function
  65              	CRYP_Init:
  66              	.LFB112:
  67              		.loc 1 238 0
  68              		.cfi_startproc
  69              		@ args = 0, pretend = 0, frame = 0
  70              		@ frame_needed = 0, uses_anonymous_args = 0
  71              		@ link register save eliminated.
  72              	.LVL2:
  73              		.loc 1 245 0
  74 0000 154B     		ldr	r3, .L7
  75              		.loc 1 250 0
  76 0002 8188     		ldrh	r1, [r0, #4]
  77              		.loc 1 245 0
  78 0004 1A68     		ldr	r2, [r3]
  79 0006 22F40022 		bic	r2, r2, #524288
  80 000a 22F03802 		bic	r2, r2, #56
  81              		.loc 1 238 0
  82 000e 10B4     		push	{r4}
  83              		.cfi_def_cfa_offset 4
  84              		.cfi_offset 4, -4
  85              		.loc 1 245 0
  86 0010 1A60     		str	r2, [r3]
  87              		.loc 1 246 0
  88 0012 1C68     		ldr	r4, [r3]
  89 0014 4288     		ldrh	r2, [r0, #2]
  90 0016 1443     		orrs	r4, r4, r2
  91 0018 1C60     		str	r4, [r3]
  92              		.loc 1 249 0
  93 001a 1C68     		ldr	r4, [r3]
  94 001c 24F0C004 		bic	r4, r4, #192
  95 0020 1C60     		str	r4, [r3]
  96              		.loc 1 250 0
  97 0022 1C68     		ldr	r4, [r3]
  98              		.loc 1 253 0
  99 0024 22F01802 		bic	r2, r2, #24
 100              		.loc 1 250 0
 101 0028 2143     		orrs	r1, r1, r4
 102              		.loc 1 253 0
 103 002a 202A     		cmp	r2, #32
 104              		.loc 1 250 0
 105 002c 1960     		str	r1, [r3]
 106              		.loc 1 253 0
 107 002e 07D1     		bne	.L5
 108              		.loc 1 259 0
 109 0030 1968     		ldr	r1, [r3]
 110              		.loc 1 260 0
 111 0032 C288     		ldrh	r2, [r0, #6]
 112              		.loc 1 259 0
 113 0034 21F44071 		bic	r1, r1, #768
 114 0038 1960     		str	r1, [r3]
ARM GAS  /tmp/ccwp7pIS.s 			page 3


 115              		.loc 1 260 0
 116 003a 1968     		ldr	r1, [r3]
 117 003c 0A43     		orrs	r2, r2, r1
 118 003e 1A60     		str	r2, [r3]
 119              	.L5:
 120              		.loc 1 266 0
 121 0040 054B     		ldr	r3, .L7
 122              		.loc 1 267 0
 123 0042 0288     		ldrh	r2, [r0]
 124              		.loc 1 266 0
 125 0044 1968     		ldr	r1, [r3]
 126              		.loc 1 268 0
 127 0046 5DF8044B 		ldr	r4, [sp], #4
 128              		.cfi_restore 4
 129              		.cfi_def_cfa_offset 0
 130              		.loc 1 266 0
 131 004a 21F00401 		bic	r1, r1, #4
 132 004e 1960     		str	r1, [r3]
 133              		.loc 1 267 0
 134 0050 1968     		ldr	r1, [r3]
 135 0052 0A43     		orrs	r2, r2, r1
 136 0054 1A60     		str	r2, [r3]
 137              		.loc 1 268 0
 138 0056 7047     		bx	lr
 139              	.L8:
 140              		.align	2
 141              	.L7:
 142 0058 00000650 		.word	1342570496
 143              		.cfi_endproc
 144              	.LFE112:
 145              		.size	CRYP_Init, .-CRYP_Init
 146              		.section	.text.CRYP_StructInit,"ax",%progbits
 147              		.align	1
 148              		.p2align 4,,15
 149              		.global	CRYP_StructInit
 150              		.syntax unified
 151              		.thumb
 152              		.thumb_func
 153              		.fpu fpv4-sp-d16
 154              		.type	CRYP_StructInit, %function
 155              	CRYP_StructInit:
 156              	.LFB113:
 157              		.loc 1 277 0
 158              		.cfi_startproc
 159              		@ args = 0, pretend = 0, frame = 0
 160              		@ frame_needed = 0, uses_anonymous_args = 0
 161              		@ link register save eliminated.
 162              	.LVL3:
 163              		.loc 1 279 0
 164 0000 0023     		movs	r3, #0
 165 0002 0380     		strh	r3, [r0]	@ movhi
 166              		.loc 1 282 0
 167 0004 4380     		strh	r3, [r0, #2]	@ movhi
 168              		.loc 1 285 0
 169 0006 8380     		strh	r3, [r0, #4]	@ movhi
 170              		.loc 1 288 0
 171 0008 C380     		strh	r3, [r0, #6]	@ movhi
ARM GAS  /tmp/ccwp7pIS.s 			page 4


 172              		.loc 1 289 0
 173 000a 7047     		bx	lr
 174              		.cfi_endproc
 175              	.LFE113:
 176              		.size	CRYP_StructInit, .-CRYP_StructInit
 177              		.section	.text.CRYP_KeyInit,"ax",%progbits
 178              		.align	1
 179              		.p2align 4,,15
 180              		.global	CRYP_KeyInit
 181              		.syntax unified
 182              		.thumb
 183              		.thumb_func
 184              		.fpu fpv4-sp-d16
 185              		.type	CRYP_KeyInit, %function
 186              	CRYP_KeyInit:
 187              	.LFB114:
 188              		.loc 1 299 0
 189              		.cfi_startproc
 190              		@ args = 0, pretend = 0, frame = 0
 191              		@ frame_needed = 0, uses_anonymous_args = 0
 192              		@ link register save eliminated.
 193              	.LVL4:
 194              		.loc 1 301 0
 195 0000 084B     		ldr	r3, .L11
 196 0002 0268     		ldr	r2, [r0]
 197 0004 1A62     		str	r2, [r3, #32]
 198              		.loc 1 302 0
 199 0006 4268     		ldr	r2, [r0, #4]
 200 0008 5A62     		str	r2, [r3, #36]
 201              		.loc 1 303 0
 202 000a 8268     		ldr	r2, [r0, #8]
 203 000c 9A62     		str	r2, [r3, #40]
 204              		.loc 1 304 0
 205 000e C268     		ldr	r2, [r0, #12]
 206 0010 DA62     		str	r2, [r3, #44]
 207              		.loc 1 305 0
 208 0012 0269     		ldr	r2, [r0, #16]
 209 0014 1A63     		str	r2, [r3, #48]
 210              		.loc 1 306 0
 211 0016 4269     		ldr	r2, [r0, #20]
 212 0018 5A63     		str	r2, [r3, #52]
 213              		.loc 1 307 0
 214 001a 8269     		ldr	r2, [r0, #24]
 215 001c 9A63     		str	r2, [r3, #56]
 216              		.loc 1 308 0
 217 001e C269     		ldr	r2, [r0, #28]
 218 0020 DA63     		str	r2, [r3, #60]
 219              		.loc 1 309 0
 220 0022 7047     		bx	lr
 221              	.L12:
 222              		.align	2
 223              	.L11:
 224 0024 00000650 		.word	1342570496
 225              		.cfi_endproc
 226              	.LFE114:
 227              		.size	CRYP_KeyInit, .-CRYP_KeyInit
 228              		.section	.text.CRYP_KeyStructInit,"ax",%progbits
ARM GAS  /tmp/ccwp7pIS.s 			page 5


 229              		.align	1
 230              		.p2align 4,,15
 231              		.global	CRYP_KeyStructInit
 232              		.syntax unified
 233              		.thumb
 234              		.thumb_func
 235              		.fpu fpv4-sp-d16
 236              		.type	CRYP_KeyStructInit, %function
 237              	CRYP_KeyStructInit:
 238              	.LFB115:
 239              		.loc 1 318 0
 240              		.cfi_startproc
 241              		@ args = 0, pretend = 0, frame = 0
 242              		@ frame_needed = 0, uses_anonymous_args = 0
 243              		@ link register save eliminated.
 244              	.LVL5:
 245              		.loc 1 319 0
 246 0000 0023     		movs	r3, #0
 247              		.loc 1 320 0
 248 0002 C0E90033 		strd	r3, r3, [r0]
 249              		.loc 1 322 0
 250 0006 C0E90233 		strd	r3, r3, [r0, #8]
 251              		.loc 1 324 0
 252 000a C0E90433 		strd	r3, r3, [r0, #16]
 253              		.loc 1 326 0
 254 000e C0E90633 		strd	r3, r3, [r0, #24]
 255              		.loc 1 327 0
 256 0012 7047     		bx	lr
 257              		.cfi_endproc
 258              	.LFE115:
 259              		.size	CRYP_KeyStructInit, .-CRYP_KeyStructInit
 260              		.section	.text.CRYP_IVInit,"ax",%progbits
 261              		.align	1
 262              		.p2align 4,,15
 263              		.global	CRYP_IVInit
 264              		.syntax unified
 265              		.thumb
 266              		.thumb_func
 267              		.fpu fpv4-sp-d16
 268              		.type	CRYP_IVInit, %function
 269              	CRYP_IVInit:
 270              	.LFB116:
 271              		.loc 1 336 0
 272              		.cfi_startproc
 273              		@ args = 0, pretend = 0, frame = 0
 274              		@ frame_needed = 0, uses_anonymous_args = 0
 275              		@ link register save eliminated.
 276              	.LVL6:
 277              		.loc 1 337 0
 278 0000 044B     		ldr	r3, .L15
 279 0002 0268     		ldr	r2, [r0]
 280 0004 1A64     		str	r2, [r3, #64]
 281              		.loc 1 338 0
 282 0006 4268     		ldr	r2, [r0, #4]
 283 0008 5A64     		str	r2, [r3, #68]
 284              		.loc 1 339 0
 285 000a 8268     		ldr	r2, [r0, #8]
ARM GAS  /tmp/ccwp7pIS.s 			page 6


 286 000c 9A64     		str	r2, [r3, #72]
 287              		.loc 1 340 0
 288 000e C268     		ldr	r2, [r0, #12]
 289 0010 DA64     		str	r2, [r3, #76]
 290              		.loc 1 341 0
 291 0012 7047     		bx	lr
 292              	.L16:
 293              		.align	2
 294              	.L15:
 295 0014 00000650 		.word	1342570496
 296              		.cfi_endproc
 297              	.LFE116:
 298              		.size	CRYP_IVInit, .-CRYP_IVInit
 299              		.section	.text.CRYP_IVStructInit,"ax",%progbits
 300              		.align	1
 301              		.p2align 4,,15
 302              		.global	CRYP_IVStructInit
 303              		.syntax unified
 304              		.thumb
 305              		.thumb_func
 306              		.fpu fpv4-sp-d16
 307              		.type	CRYP_IVStructInit, %function
 308              	CRYP_IVStructInit:
 309              	.LFB117:
 310              		.loc 1 350 0
 311              		.cfi_startproc
 312              		@ args = 0, pretend = 0, frame = 0
 313              		@ frame_needed = 0, uses_anonymous_args = 0
 314              		@ link register save eliminated.
 315              	.LVL7:
 316              		.loc 1 351 0
 317 0000 0023     		movs	r3, #0
 318              		.loc 1 352 0
 319 0002 C0E90033 		strd	r3, r3, [r0]
 320              		.loc 1 354 0
 321 0006 C0E90233 		strd	r3, r3, [r0, #8]
 322              		.loc 1 355 0
 323 000a 7047     		bx	lr
 324              		.cfi_endproc
 325              	.LFE117:
 326              		.size	CRYP_IVStructInit, .-CRYP_IVStructInit
 327              		.section	.text.CRYP_FIFOFlush,"ax",%progbits
 328              		.align	1
 329              		.p2align 4,,15
 330              		.global	CRYP_FIFOFlush
 331              		.syntax unified
 332              		.thumb
 333              		.thumb_func
 334              		.fpu fpv4-sp-d16
 335              		.type	CRYP_FIFOFlush, %function
 336              	CRYP_FIFOFlush:
 337              	.LFB118:
 338              		.loc 1 365 0
 339              		.cfi_startproc
 340              		@ args = 0, pretend = 0, frame = 0
 341              		@ frame_needed = 0, uses_anonymous_args = 0
 342              		@ link register save eliminated.
ARM GAS  /tmp/ccwp7pIS.s 			page 7


 343              		.loc 1 367 0
 344 0000 024A     		ldr	r2, .L19
 345 0002 1368     		ldr	r3, [r2]
 346 0004 43F48043 		orr	r3, r3, #16384
 347 0008 1360     		str	r3, [r2]
 348              		.loc 1 368 0
 349 000a 7047     		bx	lr
 350              	.L20:
 351              		.align	2
 352              	.L19:
 353 000c 00000650 		.word	1342570496
 354              		.cfi_endproc
 355              	.LFE118:
 356              		.size	CRYP_FIFOFlush, .-CRYP_FIFOFlush
 357              		.section	.text.CRYP_Cmd,"ax",%progbits
 358              		.align	1
 359              		.p2align 4,,15
 360              		.global	CRYP_Cmd
 361              		.syntax unified
 362              		.thumb
 363              		.thumb_func
 364              		.fpu fpv4-sp-d16
 365              		.type	CRYP_Cmd, %function
 366              	CRYP_Cmd:
 367              	.LFB119:
 368              		.loc 1 377 0
 369              		.cfi_startproc
 370              		@ args = 0, pretend = 0, frame = 0
 371              		@ frame_needed = 0, uses_anonymous_args = 0
 372              		@ link register save eliminated.
 373              	.LVL8:
 374              		.loc 1 384 0
 375 0000 054A     		ldr	r2, .L25
 376 0002 1368     		ldr	r3, [r2]
 377              		.loc 1 381 0
 378 0004 18B9     		cbnz	r0, .L24
 379              		.loc 1 389 0
 380 0006 23F40043 		bic	r3, r3, #32768
 381 000a 1360     		str	r3, [r2]
 382              		.loc 1 391 0
 383 000c 7047     		bx	lr
 384              	.L24:
 385              		.loc 1 384 0
 386 000e 43F40043 		orr	r3, r3, #32768
 387 0012 1360     		str	r3, [r2]
 388 0014 7047     		bx	lr
 389              	.L26:
 390 0016 00BF     		.align	2
 391              	.L25:
 392 0018 00000650 		.word	1342570496
 393              		.cfi_endproc
 394              	.LFE119:
 395              		.size	CRYP_Cmd, .-CRYP_Cmd
 396              		.section	.text.CRYP_DataIn,"ax",%progbits
 397              		.align	1
 398              		.p2align 4,,15
 399              		.global	CRYP_DataIn
ARM GAS  /tmp/ccwp7pIS.s 			page 8


 400              		.syntax unified
 401              		.thumb
 402              		.thumb_func
 403              		.fpu fpv4-sp-d16
 404              		.type	CRYP_DataIn, %function
 405              	CRYP_DataIn:
 406              	.LFB120:
 407              		.loc 1 420 0
 408              		.cfi_startproc
 409              		@ args = 0, pretend = 0, frame = 0
 410              		@ frame_needed = 0, uses_anonymous_args = 0
 411              		@ link register save eliminated.
 412              	.LVL9:
 413              		.loc 1 421 0
 414 0000 014B     		ldr	r3, .L28
 415 0002 9860     		str	r0, [r3, #8]
 416              		.loc 1 422 0
 417 0004 7047     		bx	lr
 418              	.L29:
 419 0006 00BF     		.align	2
 420              	.L28:
 421 0008 00000650 		.word	1342570496
 422              		.cfi_endproc
 423              	.LFE120:
 424              		.size	CRYP_DataIn, .-CRYP_DataIn
 425              		.section	.text.CRYP_DataOut,"ax",%progbits
 426              		.align	1
 427              		.p2align 4,,15
 428              		.global	CRYP_DataOut
 429              		.syntax unified
 430              		.thumb
 431              		.thumb_func
 432              		.fpu fpv4-sp-d16
 433              		.type	CRYP_DataOut, %function
 434              	CRYP_DataOut:
 435              	.LFB121:
 436              		.loc 1 430 0
 437              		.cfi_startproc
 438              		@ args = 0, pretend = 0, frame = 0
 439              		@ frame_needed = 0, uses_anonymous_args = 0
 440              		@ link register save eliminated.
 441              		.loc 1 431 0
 442 0000 014B     		ldr	r3, .L31
 443 0002 D868     		ldr	r0, [r3, #12]
 444              		.loc 1 432 0
 445 0004 7047     		bx	lr
 446              	.L32:
 447 0006 00BF     		.align	2
 448              	.L31:
 449 0008 00000650 		.word	1342570496
 450              		.cfi_endproc
 451              	.LFE121:
 452              		.size	CRYP_DataOut, .-CRYP_DataOut
 453              		.section	.text.CRYP_SaveContext,"ax",%progbits
 454              		.align	1
 455              		.p2align 4,,15
 456              		.global	CRYP_SaveContext
ARM GAS  /tmp/ccwp7pIS.s 			page 9


 457              		.syntax unified
 458              		.thumb
 459              		.thumb_func
 460              		.fpu fpv4-sp-d16
 461              		.type	CRYP_SaveContext, %function
 462              	CRYP_SaveContext:
 463              	.LFB122:
 464              		.loc 1 474 0
 465              		.cfi_startproc
 466              		@ args = 0, pretend = 0, frame = 8
 467              		@ frame_needed = 0, uses_anonymous_args = 0
 468              		@ link register save eliminated.
 469              	.LVL10:
 470 0000 F0B4     		push	{r4, r5, r6, r7}
 471              		.cfi_def_cfa_offset 16
 472              		.cfi_offset 4, -16
 473              		.cfi_offset 5, -12
 474              		.cfi_offset 6, -8
 475              		.cfi_offset 7, -4
 476 0002 82B0     		sub	sp, sp, #8
 477              		.cfi_def_cfa_offset 24
 478              		.loc 1 480 0
 479 0004 264C     		ldr	r4, .L44
 480              		.loc 1 475 0
 481 0006 0023     		movs	r3, #0
 482 0008 0193     		str	r3, [sp, #4]
 483              	.LVL11:
 484              		.loc 1 480 0
 485 000a 2369     		ldr	r3, [r4, #16]
 486 000c 23F00103 		bic	r3, r3, #1
 487 0010 2361     		str	r3, [r4, #16]
 488              		.loc 1 486 0
 489 0012 2368     		ldr	r3, [r4]
 490              		.loc 1 492 0
 491 0014 13F0080F 		tst	r3, #8
 492 0018 14BF     		ite	ne
 493 001a 1125     		movne	r5, #17
 494 001c 1525     		moveq	r5, #21
 495              		.loc 1 500 0
 496 001e 4FF6FF76 		movw	r6, #65535
 497 0022 01E0     		b	.L36
 498              	.LVL12:
 499              	.L42:
 500              		.loc 1 500 0 is_stmt 0 discriminator 1
 501 0024 012A     		cmp	r2, #1
 502 0026 08D0     		beq	.L35
 503              	.LVL13:
 504              	.L36:
 505              		.loc 1 497 0 is_stmt 1 discriminator 2
 506 0028 6268     		ldr	r2, [r4, #4]
 507              		.loc 1 498 0 discriminator 2
 508 002a 019B     		ldr	r3, [sp, #4]
 509 002c 0133     		adds	r3, r3, #1
 510 002e 0193     		str	r3, [sp, #4]
 511              		.loc 1 500 0 discriminator 2
 512 0030 019B     		ldr	r3, [sp, #4]
 513 0032 B342     		cmp	r3, r6
ARM GAS  /tmp/ccwp7pIS.s 			page 10


 514              		.loc 1 497 0 discriminator 2
 515 0034 02EA0502 		and	r2, r2, r5
 516              	.LVL14:
 517              		.loc 1 500 0 discriminator 2
 518 0038 F4D1     		bne	.L42
 519              	.L35:
 520              		.loc 1 502 0
 521 003a 194B     		ldr	r3, .L44
 522 003c 5A68     		ldr	r2, [r3, #4]
 523              	.LVL15:
 524 003e 1540     		ands	r5, r5, r2
 525              	.LVL16:
 526 0040 012D     		cmp	r5, #1
 527 0042 04D0     		beq	.L43
 528              		.loc 1 504 0
 529 0044 0025     		movs	r5, #0
 530              	.LVL17:
 531              		.loc 1 544 0
 532 0046 2846     		mov	r0, r5
 533              	.LVL18:
 534 0048 02B0     		add	sp, sp, #8
 535              		.cfi_remember_state
 536              		.cfi_def_cfa_offset 16
 537              		@ sp needed
 538 004a F0BC     		pop	{r4, r5, r6, r7}
 539              		.cfi_restore 7
 540              		.cfi_restore 6
 541              		.cfi_restore 5
 542              		.cfi_restore 4
 543              		.cfi_def_cfa_offset 0
 544              	.LVL19:
 545 004c 7047     		bx	lr
 546              	.LVL20:
 547              	.L43:
 548              		.cfi_restore_state
 549              		.loc 1 512 0
 550 004e 1C69     		ldr	r4, [r3, #16]
 551              		.loc 1 516 0
 552 0050 144E     		ldr	r6, .L44+4
 553              		.loc 1 512 0
 554 0052 24F00204 		bic	r4, r4, #2
 555 0056 1C61     		str	r4, [r3, #16]
 556              		.loc 1 513 0
 557 0058 1C68     		ldr	r4, [r3]
 558 005a 24F40044 		bic	r4, r4, #32768
 559 005e 1C60     		str	r4, [r3]
 560              		.loc 1 516 0
 561 0060 1A68     		ldr	r2, [r3]
 562              		.loc 1 528 0
 563 0062 0C68     		ldr	r4, [r1]
 564              		.loc 1 531 0
 565 0064 CF68     		ldr	r7, [r1, #12]
 566              		.loc 1 516 0
 567 0066 3240     		ands	r2, r2, r6
 568 0068 0260     		str	r2, [r0]
 569              		.loc 1 522 0
 570 006a 1A6C     		ldr	r2, [r3, #64]
ARM GAS  /tmp/ccwp7pIS.s 			page 11


 571 006c 4260     		str	r2, [r0, #4]
 572              		.loc 1 523 0
 573 006e 5A6C     		ldr	r2, [r3, #68]
 574 0070 8260     		str	r2, [r0, #8]
 575              		.loc 1 524 0
 576 0072 9A6C     		ldr	r2, [r3, #72]
 577 0074 C260     		str	r2, [r0, #12]
 578              		.loc 1 525 0
 579 0076 DE6C     		ldr	r6, [r3, #76]
 580              		.loc 1 530 0
 581 0078 D1E90123 		ldrd	r2, r3, [r1, #4]
 582              		.loc 1 525 0
 583 007c 0661     		str	r6, [r0, #16]
 584              		.loc 1 528 0
 585 007e 4461     		str	r4, [r0, #20]
 586              		.loc 1 532 0
 587 0080 0E69     		ldr	r6, [r1, #16]
 588              		.loc 1 533 0
 589 0082 4C69     		ldr	r4, [r1, #20]
 590              		.loc 1 529 0
 591 0084 8261     		str	r2, [r0, #24]
 592              		.loc 1 530 0
 593 0086 C361     		str	r3, [r0, #28]
 594              		.loc 1 535 0
 595 0088 D1E90623 		ldrd	r2, r3, [r1, #24]
 596              		.loc 1 532 0
 597 008c C0E90876 		strd	r7, r6, [r0, #32]
 598              		.loc 1 534 0
 599 0090 C0E90A42 		strd	r4, r2, [r0, #40]
 600              		.loc 1 535 0
 601 0094 0363     		str	r3, [r0, #48]
 602              	.LVL21:
 603              		.loc 1 544 0
 604 0096 2846     		mov	r0, r5
 605              	.LVL22:
 606 0098 02B0     		add	sp, sp, #8
 607              		.cfi_def_cfa_offset 16
 608              		@ sp needed
 609 009a F0BC     		pop	{r4, r5, r6, r7}
 610              		.cfi_restore 7
 611              		.cfi_restore 6
 612              		.cfi_restore 5
 613              		.cfi_restore 4
 614              		.cfi_def_cfa_offset 0
 615              	.LVL23:
 616 009c 7047     		bx	lr
 617              	.L45:
 618 009e 00BF     		.align	2
 619              	.L44:
 620 00a0 00000650 		.word	1342570496
 621 00a4 FC030800 		.word	525308
 622              		.cfi_endproc
 623              	.LFE122:
 624              		.size	CRYP_SaveContext, .-CRYP_SaveContext
 625              		.section	.text.CRYP_RestoreContext,"ax",%progbits
 626              		.align	1
 627              		.p2align 4,,15
ARM GAS  /tmp/ccwp7pIS.s 			page 12


 628              		.global	CRYP_RestoreContext
 629              		.syntax unified
 630              		.thumb
 631              		.thumb_func
 632              		.fpu fpv4-sp-d16
 633              		.type	CRYP_RestoreContext, %function
 634              	CRYP_RestoreContext:
 635              	.LFB123:
 636              		.loc 1 558 0
 637              		.cfi_startproc
 638              		@ args = 0, pretend = 0, frame = 0
 639              		@ frame_needed = 0, uses_anonymous_args = 0
 640              		@ link register save eliminated.
 641              	.LVL24:
 642              		.loc 1 561 0
 643 0000 0F4B     		ldr	r3, .L47
 644 0002 0268     		ldr	r2, [r0]
 645 0004 1A60     		str	r2, [r3]
 646              		.loc 1 564 0
 647 0006 4269     		ldr	r2, [r0, #20]
 648 0008 1A62     		str	r2, [r3, #32]
 649              		.loc 1 565 0
 650 000a 8269     		ldr	r2, [r0, #24]
 651 000c 5A62     		str	r2, [r3, #36]
 652              		.loc 1 566 0
 653 000e C269     		ldr	r2, [r0, #28]
 654 0010 9A62     		str	r2, [r3, #40]
 655              		.loc 1 567 0
 656 0012 026A     		ldr	r2, [r0, #32]
 657 0014 DA62     		str	r2, [r3, #44]
 658              		.loc 1 568 0
 659 0016 426A     		ldr	r2, [r0, #36]
 660 0018 1A63     		str	r2, [r3, #48]
 661              		.loc 1 569 0
 662 001a 826A     		ldr	r2, [r0, #40]
 663 001c 5A63     		str	r2, [r3, #52]
 664              		.loc 1 570 0
 665 001e C26A     		ldr	r2, [r0, #44]
 666 0020 9A63     		str	r2, [r3, #56]
 667              		.loc 1 571 0
 668 0022 026B     		ldr	r2, [r0, #48]
 669 0024 DA63     		str	r2, [r3, #60]
 670              		.loc 1 574 0
 671 0026 4268     		ldr	r2, [r0, #4]
 672 0028 1A64     		str	r2, [r3, #64]
 673              		.loc 1 575 0
 674 002a 8268     		ldr	r2, [r0, #8]
 675 002c 5A64     		str	r2, [r3, #68]
 676              		.loc 1 576 0
 677 002e C268     		ldr	r2, [r0, #12]
 678 0030 9A64     		str	r2, [r3, #72]
 679              		.loc 1 577 0
 680 0032 0269     		ldr	r2, [r0, #16]
 681 0034 DA64     		str	r2, [r3, #76]
 682              		.loc 1 580 0
 683 0036 1A68     		ldr	r2, [r3]
 684 0038 42F40042 		orr	r2, r2, #32768
ARM GAS  /tmp/ccwp7pIS.s 			page 13


 685 003c 1A60     		str	r2, [r3]
 686              		.loc 1 581 0
 687 003e 7047     		bx	lr
 688              	.L48:
 689              		.align	2
 690              	.L47:
 691 0040 00000650 		.word	1342570496
 692              		.cfi_endproc
 693              	.LFE123:
 694              		.size	CRYP_RestoreContext, .-CRYP_RestoreContext
 695              		.section	.text.CRYP_DMACmd,"ax",%progbits
 696              		.align	1
 697              		.p2align 4,,15
 698              		.global	CRYP_DMACmd
 699              		.syntax unified
 700              		.thumb
 701              		.thumb_func
 702              		.fpu fpv4-sp-d16
 703              		.type	CRYP_DMACmd, %function
 704              	CRYP_DMACmd:
 705              	.LFB124:
 706              		.loc 1 619 0
 707              		.cfi_startproc
 708              		@ args = 0, pretend = 0, frame = 0
 709              		@ frame_needed = 0, uses_anonymous_args = 0
 710              		@ link register save eliminated.
 711              	.LVL25:
 712              		.loc 1 624 0
 713 0000 39B9     		cbnz	r1, .L52
 714              		.loc 1 632 0
 715 0002 064A     		ldr	r2, .L53
 716 0004 1369     		ldr	r3, [r2, #16]
 717 0006 23EA0000 		bic	r0, r3, r0
 718              	.LVL26:
 719 000a 00F0FF00 		and	r0, r0, #255
 720 000e 1061     		str	r0, [r2, #16]
 721              		.loc 1 634 0
 722 0010 7047     		bx	lr
 723              	.LVL27:
 724              	.L52:
 725              		.loc 1 627 0
 726 0012 024B     		ldr	r3, .L53
 727 0014 1A69     		ldr	r2, [r3, #16]
 728 0016 1043     		orrs	r0, r0, r2
 729              	.LVL28:
 730 0018 1861     		str	r0, [r3, #16]
 731 001a 7047     		bx	lr
 732              	.L54:
 733              		.align	2
 734              	.L53:
 735 001c 00000650 		.word	1342570496
 736              		.cfi_endproc
 737              	.LFE124:
 738              		.size	CRYP_DMACmd, .-CRYP_DMACmd
 739              		.section	.text.CRYP_ITConfig,"ax",%progbits
 740              		.align	1
 741              		.p2align 4,,15
ARM GAS  /tmp/ccwp7pIS.s 			page 14


 742              		.global	CRYP_ITConfig
 743              		.syntax unified
 744              		.thumb
 745              		.thumb_func
 746              		.fpu fpv4-sp-d16
 747              		.type	CRYP_ITConfig, %function
 748              	CRYP_ITConfig:
 749              	.LFB125:
 750              		.loc 1 744 0
 751              		.cfi_startproc
 752              		@ args = 0, pretend = 0, frame = 0
 753              		@ frame_needed = 0, uses_anonymous_args = 0
 754              		@ link register save eliminated.
 755              	.LVL29:
 756              		.loc 1 749 0
 757 0000 39B9     		cbnz	r1, .L58
 758              		.loc 1 757 0
 759 0002 064A     		ldr	r2, .L59
 760 0004 5369     		ldr	r3, [r2, #20]
 761 0006 23EA0000 		bic	r0, r3, r0
 762              	.LVL30:
 763 000a 00F0FF00 		and	r0, r0, #255
 764 000e 5061     		str	r0, [r2, #20]
 765              		.loc 1 759 0
 766 0010 7047     		bx	lr
 767              	.LVL31:
 768              	.L58:
 769              		.loc 1 752 0
 770 0012 024B     		ldr	r3, .L59
 771 0014 5A69     		ldr	r2, [r3, #20]
 772 0016 1043     		orrs	r0, r0, r2
 773              	.LVL32:
 774 0018 5861     		str	r0, [r3, #20]
 775 001a 7047     		bx	lr
 776              	.L60:
 777              		.align	2
 778              	.L59:
 779 001c 00000650 		.word	1342570496
 780              		.cfi_endproc
 781              	.LFE125:
 782              		.size	CRYP_ITConfig, .-CRYP_ITConfig
 783              		.section	.text.CRYP_GetITStatus,"ax",%progbits
 784              		.align	1
 785              		.p2align 4,,15
 786              		.global	CRYP_GetITStatus
 787              		.syntax unified
 788              		.thumb
 789              		.thumb_func
 790              		.fpu fpv4-sp-d16
 791              		.type	CRYP_GetITStatus, %function
 792              	CRYP_GetITStatus:
 793              	.LFB126:
 794              		.loc 1 772 0
 795              		.cfi_startproc
 796              		@ args = 0, pretend = 0, frame = 0
 797              		@ frame_needed = 0, uses_anonymous_args = 0
 798              		@ link register save eliminated.
ARM GAS  /tmp/ccwp7pIS.s 			page 15


 799              	.LVL33:
 800              		.loc 1 778 0
 801 0000 034B     		ldr	r3, .L62
 802 0002 DB69     		ldr	r3, [r3, #28]
 803              	.LVL34:
 804 0004 1842     		tst	r0, r3
 805              		.loc 1 790 0
 806 0006 14BF     		ite	ne
 807 0008 0120     		movne	r0, #1
 808              	.LVL35:
 809 000a 0020     		moveq	r0, #0
 810 000c 7047     		bx	lr
 811              	.L63:
 812 000e 00BF     		.align	2
 813              	.L62:
 814 0010 00000650 		.word	1342570496
 815              		.cfi_endproc
 816              	.LFE126:
 817              		.size	CRYP_GetITStatus, .-CRYP_GetITStatus
 818              		.section	.text.CRYP_GetFlagStatus,"ax",%progbits
 819              		.align	1
 820              		.p2align 4,,15
 821              		.global	CRYP_GetFlagStatus
 822              		.syntax unified
 823              		.thumb
 824              		.thumb_func
 825              		.fpu fpv4-sp-d16
 826              		.type	CRYP_GetFlagStatus, %function
 827              	CRYP_GetFlagStatus:
 828              	.LFB127:
 829              		.loc 1 806 0
 830              		.cfi_startproc
 831              		@ args = 0, pretend = 0, frame = 0
 832              		@ frame_needed = 0, uses_anonymous_args = 0
 833              		@ link register save eliminated.
 834              	.LVL36:
 835              		.loc 1 816 0
 836 0000 044B     		ldr	r3, .L67
 837              		.loc 1 814 0
 838 0002 8206     		lsls	r2, r0, #26
 839              		.loc 1 816 0
 840 0004 4CBF     		ite	mi
 841 0006 9B69     		ldrmi	r3, [r3, #24]
 842              	.LVL37:
 843              		.loc 1 820 0
 844 0008 5B68     		ldrpl	r3, [r3, #4]
 845              	.LVL38:
 846              		.loc 1 825 0
 847 000a 1842     		tst	r0, r3
 848              		.loc 1 838 0
 849 000c 14BF     		ite	ne
 850 000e 0120     		movne	r0, #1
 851              	.LVL39:
 852 0010 0020     		moveq	r0, #0
 853 0012 7047     		bx	lr
 854              	.L68:
 855              		.align	2
ARM GAS  /tmp/ccwp7pIS.s 			page 16


 856              	.L67:
 857 0014 00000650 		.word	1342570496
 858              		.cfi_endproc
 859              	.LFE127:
 860              		.size	CRYP_GetFlagStatus, .-CRYP_GetFlagStatus
 861              		.text
 862              	.Letext0:
 863              		.file 2 "/usr/arm-none-eabi/include/machine/_default_types.h"
 864              		.file 3 "/usr/arm-none-eabi/include/sys/_stdint.h"
 865              		.file 4 "ChibiOS_2.6.6/os/hal/platforms/STM32F4xx/stm32f4xx.h"
 866              		.file 5 "ChibiOS_2.6.6/ext/stdperiph_stm32f4/inc/stm32f4xx_cryp.h"
 867              		.file 6 "ChibiOS_2.6.6/os/ports/common/ARMCMx/CMSIS/include/core_cm4.h"
 868              		.file 7 "ChibiOS_2.6.6/ext/stdperiph_stm32f4/inc/stm32f4xx_rcc.h"
 869              		.section	.debug_info,"",%progbits
 870              	.Ldebug_info0:
 871 0000 2B080000 		.4byte	0x82b
 872 0004 0400     		.2byte	0x4
 873 0006 00000000 		.4byte	.Ldebug_abbrev0
 874 000a 04       		.byte	0x4
 875 000b 01       		.uleb128 0x1
 876 000c 5A000000 		.4byte	.LASF123
 877 0010 0C       		.byte	0xc
 878 0011 02040000 		.4byte	.LASF124
 879 0015 AD030000 		.4byte	.LASF125
 880 0019 00000000 		.4byte	.Ldebug_ranges0+0
 881 001d 00000000 		.4byte	0
 882 0021 00000000 		.4byte	.Ldebug_line0
 883 0025 02       		.uleb128 0x2
 884 0026 01       		.byte	0x1
 885 0027 06       		.byte	0x6
 886 0028 F3010000 		.4byte	.LASF0
 887 002c 03       		.uleb128 0x3
 888 002d 35000000 		.4byte	.LASF3
 889 0031 02       		.byte	0x2
 890 0032 2B       		.byte	0x2b
 891 0033 37000000 		.4byte	0x37
 892 0037 02       		.uleb128 0x2
 893 0038 01       		.byte	0x1
 894 0039 08       		.byte	0x8
 895 003a 4D050000 		.4byte	.LASF1
 896 003e 02       		.uleb128 0x2
 897 003f 02       		.byte	0x2
 898 0040 05       		.byte	0x5
 899 0041 5B050000 		.4byte	.LASF2
 900 0045 03       		.uleb128 0x3
 901 0046 DA050000 		.4byte	.LASF4
 902 004a 02       		.byte	0x2
 903 004b 39       		.byte	0x39
 904 004c 50000000 		.4byte	0x50
 905 0050 02       		.uleb128 0x2
 906 0051 02       		.byte	0x2
 907 0052 07       		.byte	0x7
 908 0053 78030000 		.4byte	.LASF5
 909 0057 03       		.uleb128 0x3
 910 0058 F8030000 		.4byte	.LASF6
 911 005c 02       		.byte	0x2
 912 005d 4D       		.byte	0x4d
ARM GAS  /tmp/ccwp7pIS.s 			page 17


 913 005e 62000000 		.4byte	0x62
 914 0062 02       		.uleb128 0x2
 915 0063 04       		.byte	0x4
 916 0064 05       		.byte	0x5
 917 0065 26020000 		.4byte	.LASF7
 918 0069 03       		.uleb128 0x3
 919 006a AB020000 		.4byte	.LASF8
 920 006e 02       		.byte	0x2
 921 006f 4F       		.byte	0x4f
 922 0070 74000000 		.4byte	0x74
 923 0074 02       		.uleb128 0x2
 924 0075 04       		.byte	0x4
 925 0076 07       		.byte	0x7
 926 0077 39030000 		.4byte	.LASF9
 927 007b 02       		.uleb128 0x2
 928 007c 08       		.byte	0x8
 929 007d 05       		.byte	0x5
 930 007e E5010000 		.4byte	.LASF10
 931 0082 02       		.uleb128 0x2
 932 0083 08       		.byte	0x8
 933 0084 07       		.byte	0x7
 934 0085 8E010000 		.4byte	.LASF11
 935 0089 04       		.uleb128 0x4
 936 008a 04       		.byte	0x4
 937 008b 05       		.byte	0x5
 938 008c 696E7400 		.ascii	"int\000"
 939 0090 02       		.uleb128 0x2
 940 0091 04       		.byte	0x4
 941 0092 07       		.byte	0x7
 942 0093 FB020000 		.4byte	.LASF12
 943 0097 03       		.uleb128 0x3
 944 0098 73060000 		.4byte	.LASF13
 945 009c 03       		.byte	0x3
 946 009d 18       		.byte	0x18
 947 009e 2C000000 		.4byte	0x2c
 948 00a2 03       		.uleb128 0x3
 949 00a3 83020000 		.4byte	.LASF14
 950 00a7 03       		.byte	0x3
 951 00a8 24       		.byte	0x24
 952 00a9 45000000 		.4byte	0x45
 953 00ad 03       		.uleb128 0x3
 954 00ae 45050000 		.4byte	.LASF15
 955 00b2 03       		.byte	0x3
 956 00b3 2C       		.byte	0x2c
 957 00b4 57000000 		.4byte	0x57
 958 00b8 05       		.uleb128 0x5
 959 00b9 AD000000 		.4byte	0xad
 960 00bd 03       		.uleb128 0x3
 961 00be 4A060000 		.4byte	.LASF16
 962 00c2 03       		.byte	0x3
 963 00c3 30       		.byte	0x30
 964 00c4 69000000 		.4byte	0x69
 965 00c8 05       		.uleb128 0x5
 966 00c9 BD000000 		.4byte	0xbd
 967 00cd 06       		.uleb128 0x6
 968 00ce B0010000 		.4byte	.LASF126
 969 00d2 06       		.byte	0x6
ARM GAS  /tmp/ccwp7pIS.s 			page 18


 970 00d3 9806     		.2byte	0x698
 971 00d5 B8000000 		.4byte	0xb8
 972 00d9 07       		.uleb128 0x7
 973 00da 07       		.byte	0x7
 974 00db 01       		.byte	0x1
 975 00dc 37000000 		.4byte	0x37
 976 00e0 04       		.byte	0x4
 977 00e1 F701     		.2byte	0x1f7
 978 00e3 F4000000 		.4byte	0xf4
 979 00e7 08       		.uleb128 0x8
 980 00e8 2C050000 		.4byte	.LASF17
 981 00ec 00       		.byte	0
 982 00ed 09       		.uleb128 0x9
 983 00ee 53455400 		.ascii	"SET\000"
 984 00f2 01       		.byte	0x1
 985 00f3 00       		.byte	0
 986 00f4 0A       		.uleb128 0xa
 987 00f5 25000000 		.4byte	.LASF18
 988 00f9 04       		.byte	0x4
 989 00fa F701     		.2byte	0x1f7
 990 00fc D9000000 		.4byte	0xd9
 991 0100 0A       		.uleb128 0xa
 992 0101 E4020000 		.4byte	.LASF19
 993 0105 04       		.byte	0x4
 994 0106 F701     		.2byte	0x1f7
 995 0108 D9000000 		.4byte	0xd9
 996 010c 07       		.uleb128 0x7
 997 010d 07       		.byte	0x7
 998 010e 01       		.byte	0x1
 999 010f 37000000 		.4byte	0x37
 1000 0113 04       		.byte	0x4
 1001 0114 F901     		.2byte	0x1f9
 1002 0116 27010000 		.4byte	0x127
 1003 011a 08       		.uleb128 0x8
 1004 011b 7E010000 		.4byte	.LASF20
 1005 011f 00       		.byte	0
 1006 0120 08       		.uleb128 0x8
 1007 0121 2F020000 		.4byte	.LASF21
 1008 0125 01       		.byte	0x1
 1009 0126 00       		.byte	0
 1010 0127 0A       		.uleb128 0xa
 1011 0128 D7040000 		.4byte	.LASF22
 1012 012c 04       		.byte	0x4
 1013 012d F901     		.2byte	0x1f9
 1014 012f 0C010000 		.4byte	0x10c
 1015 0133 07       		.uleb128 0x7
 1016 0134 07       		.byte	0x7
 1017 0135 01       		.byte	0x1
 1018 0136 37000000 		.4byte	0x37
 1019 013a 04       		.byte	0x4
 1020 013b FC01     		.2byte	0x1fc
 1021 013d 4E010000 		.4byte	0x14e
 1022 0141 08       		.uleb128 0x8
 1023 0142 6F040000 		.4byte	.LASF23
 1024 0146 00       		.byte	0
 1025 0147 08       		.uleb128 0x8
 1026 0148 80060000 		.4byte	.LASF24
ARM GAS  /tmp/ccwp7pIS.s 			page 19


 1027 014c 01       		.byte	0x1
 1028 014d 00       		.byte	0
 1029 014e 0A       		.uleb128 0xa
 1030 014f BE020000 		.4byte	.LASF25
 1031 0153 04       		.byte	0x4
 1032 0154 FC01     		.2byte	0x1fc
 1033 0156 33010000 		.4byte	0x133
 1034 015a 0B       		.uleb128 0xb
 1035 015b 90       		.byte	0x90
 1036 015c 04       		.byte	0x4
 1037 015d 4A05     		.2byte	0x54a
 1038 015f 35030000 		.4byte	0x335
 1039 0163 0C       		.uleb128 0xc
 1040 0164 435200   		.ascii	"CR\000"
 1041 0167 04       		.byte	0x4
 1042 0168 4C05     		.2byte	0x54c
 1043 016a C8000000 		.4byte	0xc8
 1044 016e 00       		.byte	0
 1045 016f 0C       		.uleb128 0xc
 1046 0170 535200   		.ascii	"SR\000"
 1047 0173 04       		.byte	0x4
 1048 0174 4D05     		.2byte	0x54d
 1049 0176 C8000000 		.4byte	0xc8
 1050 017a 04       		.byte	0x4
 1051 017b 0C       		.uleb128 0xc
 1052 017c 445200   		.ascii	"DR\000"
 1053 017f 04       		.byte	0x4
 1054 0180 4E05     		.2byte	0x54e
 1055 0182 C8000000 		.4byte	0xc8
 1056 0186 08       		.byte	0x8
 1057 0187 0D       		.uleb128 0xd
 1058 0188 30000000 		.4byte	.LASF26
 1059 018c 04       		.byte	0x4
 1060 018d 4F05     		.2byte	0x54f
 1061 018f C8000000 		.4byte	0xc8
 1062 0193 0C       		.byte	0xc
 1063 0194 0D       		.uleb128 0xd
 1064 0195 B9060000 		.4byte	.LASF27
 1065 0199 04       		.byte	0x4
 1066 019a 5005     		.2byte	0x550
 1067 019c C8000000 		.4byte	0xc8
 1068 01a0 10       		.byte	0x10
 1069 01a1 0D       		.uleb128 0xd
 1070 01a2 1B060000 		.4byte	.LASF28
 1071 01a6 04       		.byte	0x4
 1072 01a7 5105     		.2byte	0x551
 1073 01a9 C8000000 		.4byte	0xc8
 1074 01ad 14       		.byte	0x14
 1075 01ae 0D       		.uleb128 0xd
 1076 01af 08030000 		.4byte	.LASF29
 1077 01b3 04       		.byte	0x4
 1078 01b4 5205     		.2byte	0x552
 1079 01b6 C8000000 		.4byte	0xc8
 1080 01ba 18       		.byte	0x18
 1081 01bb 0D       		.uleb128 0xd
 1082 01bc 32050000 		.4byte	.LASF30
 1083 01c0 04       		.byte	0x4
ARM GAS  /tmp/ccwp7pIS.s 			page 20


 1084 01c1 5305     		.2byte	0x553
 1085 01c3 C8000000 		.4byte	0xc8
 1086 01c7 1C       		.byte	0x1c
 1087 01c8 0D       		.uleb128 0xd
 1088 01c9 75050000 		.4byte	.LASF31
 1089 01cd 04       		.byte	0x4
 1090 01ce 5405     		.2byte	0x554
 1091 01d0 C8000000 		.4byte	0xc8
 1092 01d4 20       		.byte	0x20
 1093 01d5 0D       		.uleb128 0xd
 1094 01d6 48040000 		.4byte	.LASF32
 1095 01da 04       		.byte	0x4
 1096 01db 5505     		.2byte	0x555
 1097 01dd C8000000 		.4byte	0xc8
 1098 01e1 24       		.byte	0x24
 1099 01e2 0D       		.uleb128 0xd
 1100 01e3 8B030000 		.4byte	.LASF33
 1101 01e7 04       		.byte	0x4
 1102 01e8 5605     		.2byte	0x556
 1103 01ea C8000000 		.4byte	0xc8
 1104 01ee 28       		.byte	0x28
 1105 01ef 0D       		.uleb128 0xd
 1106 01f0 D4020000 		.4byte	.LASF34
 1107 01f4 04       		.byte	0x4
 1108 01f5 5705     		.2byte	0x557
 1109 01f7 C8000000 		.4byte	0xc8
 1110 01fb 2C       		.byte	0x2c
 1111 01fc 0D       		.uleb128 0xd
 1112 01fd 1D030000 		.4byte	.LASF35
 1113 0201 04       		.byte	0x4
 1114 0202 5805     		.2byte	0x558
 1115 0204 C8000000 		.4byte	0xc8
 1116 0208 30       		.byte	0x30
 1117 0209 0D       		.uleb128 0xd
 1118 020a BD010000 		.4byte	.LASF36
 1119 020e 04       		.byte	0x4
 1120 020f 5905     		.2byte	0x559
 1121 0211 C8000000 		.4byte	0xc8
 1122 0215 34       		.byte	0x34
 1123 0216 0D       		.uleb128 0xd
 1124 0217 AE050000 		.4byte	.LASF37
 1125 021b 04       		.byte	0x4
 1126 021c 5A05     		.2byte	0x55a
 1127 021e C8000000 		.4byte	0xc8
 1128 0222 38       		.byte	0x38
 1129 0223 0D       		.uleb128 0xd
 1130 0224 D6060000 		.4byte	.LASF38
 1131 0228 04       		.byte	0x4
 1132 0229 5B05     		.2byte	0x55b
 1133 022b C8000000 		.4byte	0xc8
 1134 022f 3C       		.byte	0x3c
 1135 0230 0D       		.uleb128 0xd
 1136 0231 22030000 		.4byte	.LASF39
 1137 0235 04       		.byte	0x4
 1138 0236 5C05     		.2byte	0x55c
 1139 0238 C8000000 		.4byte	0xc8
 1140 023c 40       		.byte	0x40
ARM GAS  /tmp/ccwp7pIS.s 			page 21


 1141 023d 0D       		.uleb128 0xd
 1142 023e D3010000 		.4byte	.LASF40
 1143 0242 04       		.byte	0x4
 1144 0243 5D05     		.2byte	0x55d
 1145 0245 C8000000 		.4byte	0xc8
 1146 0249 44       		.byte	0x44
 1147 024a 0D       		.uleb128 0xd
 1148 024b 0C020000 		.4byte	.LASF41
 1149 024f 04       		.byte	0x4
 1150 0250 5E05     		.2byte	0x55e
 1151 0252 C8000000 		.4byte	0xc8
 1152 0256 48       		.byte	0x48
 1153 0257 0D       		.uleb128 0xd
 1154 0258 DB060000 		.4byte	.LASF42
 1155 025c 04       		.byte	0x4
 1156 025d 5F05     		.2byte	0x55f
 1157 025f C8000000 		.4byte	0xc8
 1158 0263 4C       		.byte	0x4c
 1159 0264 0D       		.uleb128 0xd
 1160 0265 12020000 		.4byte	.LASF43
 1161 0269 04       		.byte	0x4
 1162 026a 6005     		.2byte	0x560
 1163 026c C8000000 		.4byte	0xc8
 1164 0270 50       		.byte	0x50
 1165 0271 0D       		.uleb128 0xd
 1166 0272 D9020000 		.4byte	.LASF44
 1167 0276 04       		.byte	0x4
 1168 0277 6105     		.2byte	0x561
 1169 0279 C8000000 		.4byte	0xc8
 1170 027d 54       		.byte	0x54
 1171 027e 0D       		.uleb128 0xd
 1172 027f 53030000 		.4byte	.LASF45
 1173 0283 04       		.byte	0x4
 1174 0284 6205     		.2byte	0x562
 1175 0286 C8000000 		.4byte	0xc8
 1176 028a 58       		.byte	0x58
 1177 028b 0D       		.uleb128 0xd
 1178 028c E7040000 		.4byte	.LASF46
 1179 0290 04       		.byte	0x4
 1180 0291 6305     		.2byte	0x563
 1181 0293 C8000000 		.4byte	0xc8
 1182 0297 5C       		.byte	0x5c
 1183 0298 0D       		.uleb128 0xd
 1184 0299 7A050000 		.4byte	.LASF47
 1185 029d 04       		.byte	0x4
 1186 029e 6405     		.2byte	0x564
 1187 02a0 C8000000 		.4byte	0xc8
 1188 02a4 60       		.byte	0x60
 1189 02a5 0D       		.uleb128 0xd
 1190 02a6 35060000 		.4byte	.LASF48
 1191 02aa 04       		.byte	0x4
 1192 02ab 6505     		.2byte	0x565
 1193 02ad C8000000 		.4byte	0xc8
 1194 02b1 64       		.byte	0x64
 1195 02b2 0D       		.uleb128 0xd
 1196 02b3 ED060000 		.4byte	.LASF49
 1197 02b7 04       		.byte	0x4
ARM GAS  /tmp/ccwp7pIS.s 			page 22


 1198 02b8 6605     		.2byte	0x566
 1199 02ba C8000000 		.4byte	0xc8
 1200 02be 68       		.byte	0x68
 1201 02bf 0D       		.uleb128 0xd
 1202 02c0 A5010000 		.4byte	.LASF50
 1203 02c4 04       		.byte	0x4
 1204 02c5 6705     		.2byte	0x567
 1205 02c7 C8000000 		.4byte	0xc8
 1206 02cb 6C       		.byte	0x6c
 1207 02cc 0D       		.uleb128 0xd
 1208 02cd B6020000 		.4byte	.LASF51
 1209 02d1 04       		.byte	0x4
 1210 02d2 6805     		.2byte	0x568
 1211 02d4 C8000000 		.4byte	0xc8
 1212 02d8 70       		.byte	0x70
 1213 02d9 0D       		.uleb128 0xd
 1214 02da A5030000 		.4byte	.LASF52
 1215 02de 04       		.byte	0x4
 1216 02df 6905     		.2byte	0x569
 1217 02e1 C8000000 		.4byte	0xc8
 1218 02e5 74       		.byte	0x74
 1219 02e6 0D       		.uleb128 0xd
 1220 02e7 CF040000 		.4byte	.LASF53
 1221 02eb 04       		.byte	0x4
 1222 02ec 6A05     		.2byte	0x56a
 1223 02ee C8000000 		.4byte	0xc8
 1224 02f2 78       		.byte	0x78
 1225 02f3 0D       		.uleb128 0xd
 1226 02f4 65050000 		.4byte	.LASF54
 1227 02f8 04       		.byte	0x4
 1228 02f9 6B05     		.2byte	0x56b
 1229 02fb C8000000 		.4byte	0xc8
 1230 02ff 7C       		.byte	0x7c
 1231 0300 0D       		.uleb128 0xd
 1232 0301 13060000 		.4byte	.LASF55
 1233 0305 04       		.byte	0x4
 1234 0306 6C05     		.2byte	0x56c
 1235 0308 C8000000 		.4byte	0xc8
 1236 030c 80       		.byte	0x80
 1237 030d 0D       		.uleb128 0xd
 1238 030e CE060000 		.4byte	.LASF56
 1239 0312 04       		.byte	0x4
 1240 0313 6D05     		.2byte	0x56d
 1241 0315 C8000000 		.4byte	0xc8
 1242 0319 84       		.byte	0x84
 1243 031a 0D       		.uleb128 0xd
 1244 031b 52000000 		.4byte	.LASF57
 1245 031f 04       		.byte	0x4
 1246 0320 6E05     		.2byte	0x56e
 1247 0322 C8000000 		.4byte	0xc8
 1248 0326 88       		.byte	0x88
 1249 0327 0D       		.uleb128 0xd
 1250 0328 36020000 		.4byte	.LASF58
 1251 032c 04       		.byte	0x4
 1252 032d 6F05     		.2byte	0x56f
 1253 032f C8000000 		.4byte	0xc8
 1254 0333 8C       		.byte	0x8c
ARM GAS  /tmp/ccwp7pIS.s 			page 23


 1255 0334 00       		.byte	0
 1256 0335 0A       		.uleb128 0xa
 1257 0336 00000000 		.4byte	.LASF59
 1258 033a 04       		.byte	0x4
 1259 033b 7005     		.2byte	0x570
 1260 033d 5A010000 		.4byte	0x15a
 1261 0341 0E       		.uleb128 0xe
 1262 0342 08       		.byte	0x8
 1263 0343 05       		.byte	0x5
 1264 0344 35       		.byte	0x35
 1265 0345 7A030000 		.4byte	0x37a
 1266 0349 0F       		.uleb128 0xf
 1267 034a 99060000 		.4byte	.LASF60
 1268 034e 05       		.byte	0x5
 1269 034f 37       		.byte	0x37
 1270 0350 A2000000 		.4byte	0xa2
 1271 0354 00       		.byte	0
 1272 0355 0F       		.uleb128 0xf
 1273 0356 82040000 		.4byte	.LASF61
 1274 035a 05       		.byte	0x5
 1275 035b 39       		.byte	0x39
 1276 035c A2000000 		.4byte	0xa2
 1277 0360 02       		.byte	0x2
 1278 0361 0F       		.uleb128 0xf
 1279 0362 37050000 		.4byte	.LASF62
 1280 0366 05       		.byte	0x5
 1281 0367 3C       		.byte	0x3c
 1282 0368 A2000000 		.4byte	0xa2
 1283 036c 04       		.byte	0x4
 1284 036d 0F       		.uleb128 0xf
 1285 036e B1040000 		.4byte	.LASF63
 1286 0372 05       		.byte	0x5
 1287 0373 3E       		.byte	0x3e
 1288 0374 A2000000 		.4byte	0xa2
 1289 0378 06       		.byte	0x6
 1290 0379 00       		.byte	0
 1291 037a 03       		.uleb128 0x3
 1292 037b 28030000 		.4byte	.LASF64
 1293 037f 05       		.byte	0x5
 1294 0380 41       		.byte	0x41
 1295 0381 41030000 		.4byte	0x341
 1296 0385 0E       		.uleb128 0xe
 1297 0386 20       		.byte	0x20
 1298 0387 05       		.byte	0x5
 1299 0388 46       		.byte	0x46
 1300 0389 EE030000 		.4byte	0x3ee
 1301 038d 0F       		.uleb128 0xf
 1302 038e 4D040000 		.4byte	.LASF65
 1303 0392 05       		.byte	0x5
 1304 0393 48       		.byte	0x48
 1305 0394 BD000000 		.4byte	0xbd
 1306 0398 00       		.byte	0
 1307 0399 0F       		.uleb128 0xf
 1308 039a C1050000 		.4byte	.LASF66
 1309 039e 05       		.byte	0x5
 1310 039f 49       		.byte	0x49
 1311 03a0 BD000000 		.4byte	0xbd
ARM GAS  /tmp/ccwp7pIS.s 			page 24


 1312 03a4 04       		.byte	0x4
 1313 03a5 0F       		.uleb128 0xf
 1314 03a6 A3040000 		.4byte	.LASF67
 1315 03aa 05       		.byte	0x5
 1316 03ab 4A       		.byte	0x4a
 1317 03ac BD000000 		.4byte	0xbd
 1318 03b0 08       		.byte	0x8
 1319 03b1 0F       		.uleb128 0xf
 1320 03b2 64060000 		.4byte	.LASF68
 1321 03b6 05       		.byte	0x5
 1322 03b7 4B       		.byte	0x4b
 1323 03b8 BD000000 		.4byte	0xbd
 1324 03bc 0C       		.byte	0xc
 1325 03bd 0F       		.uleb128 0xf
 1326 03be B3050000 		.4byte	.LASF69
 1327 03c2 05       		.byte	0x5
 1328 03c3 4C       		.byte	0x4c
 1329 03c4 BD000000 		.4byte	0xbd
 1330 03c8 10       		.byte	0x10
 1331 03c9 0F       		.uleb128 0xf
 1332 03ca 0D000000 		.4byte	.LASF70
 1333 03ce 05       		.byte	0x5
 1334 03cf 4D       		.byte	0x4d
 1335 03d0 BD000000 		.4byte	0xbd
 1336 03d4 14       		.byte	0x14
 1337 03d5 0F       		.uleb128 0xf
 1338 03d6 6A030000 		.4byte	.LASF71
 1339 03da 05       		.byte	0x5
 1340 03db 4E       		.byte	0x4e
 1341 03dc BD000000 		.4byte	0xbd
 1342 03e0 18       		.byte	0x18
 1343 03e1 0F       		.uleb128 0xf
 1344 03e2 02070000 		.4byte	.LASF72
 1345 03e6 05       		.byte	0x5
 1346 03e7 4F       		.byte	0x4f
 1347 03e8 BD000000 		.4byte	0xbd
 1348 03ec 1C       		.byte	0x1c
 1349 03ed 00       		.byte	0
 1350 03ee 03       		.uleb128 0x3
 1351 03ef 21060000 		.4byte	.LASF73
 1352 03f3 05       		.byte	0x5
 1353 03f4 50       		.byte	0x50
 1354 03f5 85030000 		.4byte	0x385
 1355 03f9 0E       		.uleb128 0xe
 1356 03fa 10       		.byte	0x10
 1357 03fb 05       		.byte	0x5
 1358 03fc 54       		.byte	0x54
 1359 03fd 32040000 		.4byte	0x432
 1360 0401 0F       		.uleb128 0xf
 1361 0402 FF010000 		.4byte	.LASF74
 1362 0406 05       		.byte	0x5
 1363 0407 56       		.byte	0x56
 1364 0408 BD000000 		.4byte	0xbd
 1365 040c 00       		.byte	0
 1366 040d 0F       		.uleb128 0xf
 1367 040e ED020000 		.4byte	.LASF75
 1368 0412 05       		.byte	0x5
ARM GAS  /tmp/ccwp7pIS.s 			page 25


 1369 0413 57       		.byte	0x57
 1370 0414 BD000000 		.4byte	0xbd
 1371 0418 04       		.byte	0x4
 1372 0419 0F       		.uleb128 0xf
 1373 041a F1050000 		.4byte	.LASF76
 1374 041e 05       		.byte	0x5
 1375 041f 58       		.byte	0x58
 1376 0420 BD000000 		.4byte	0xbd
 1377 0424 08       		.byte	0x8
 1378 0425 0F       		.uleb128 0xf
 1379 0426 D8030000 		.4byte	.LASF77
 1380 042a 05       		.byte	0x5
 1381 042b 59       		.byte	0x59
 1382 042c BD000000 		.4byte	0xbd
 1383 0430 0C       		.byte	0xc
 1384 0431 00       		.byte	0
 1385 0432 03       		.uleb128 0x3
 1386 0433 3F000000 		.4byte	.LASF78
 1387 0437 05       		.byte	0x5
 1388 0438 5A       		.byte	0x5a
 1389 0439 F9030000 		.4byte	0x3f9
 1390 043d 0E       		.uleb128 0xe
 1391 043e 34       		.byte	0x34
 1392 043f 05       		.byte	0x5
 1393 0440 5F       		.byte	0x5f
 1394 0441 E2040000 		.4byte	0x4e2
 1395 0445 0F       		.uleb128 0xf
 1396 0446 D9010000 		.4byte	.LASF79
 1397 044a 05       		.byte	0x5
 1398 044b 62       		.byte	0x62
 1399 044c BD000000 		.4byte	0xbd
 1400 0450 00       		.byte	0
 1401 0451 0F       		.uleb128 0xf
 1402 0452 FE050000 		.4byte	.LASF80
 1403 0456 05       		.byte	0x5
 1404 0457 64       		.byte	0x64
 1405 0458 BD000000 		.4byte	0xbd
 1406 045c 04       		.byte	0x4
 1407 045d 0F       		.uleb128 0xf
 1408 045e 02050000 		.4byte	.LASF81
 1409 0462 05       		.byte	0x5
 1410 0463 65       		.byte	0x65
 1411 0464 BD000000 		.4byte	0xbd
 1412 0468 08       		.byte	0x8
 1413 0469 0F       		.uleb128 0xf
 1414 046a 17050000 		.4byte	.LASF82
 1415 046e 05       		.byte	0x5
 1416 046f 66       		.byte	0x66
 1417 0470 BD000000 		.4byte	0xbd
 1418 0474 0C       		.byte	0xc
 1419 0475 0F       		.uleb128 0xf
 1420 0476 90030000 		.4byte	.LASF83
 1421 047a 05       		.byte	0x5
 1422 047b 67       		.byte	0x67
 1423 047c BD000000 		.4byte	0xbd
 1424 0480 10       		.byte	0x10
 1425 0481 0F       		.uleb128 0xf
ARM GAS  /tmp/ccwp7pIS.s 			page 26


 1426 0482 F8060000 		.4byte	.LASF84
 1427 0486 05       		.byte	0x5
 1428 0487 69       		.byte	0x69
 1429 0488 BD000000 		.4byte	0xbd
 1430 048c 14       		.byte	0x14
 1431 048d 0F       		.uleb128 0xf
 1432 048e D0050000 		.4byte	.LASF85
 1433 0492 05       		.byte	0x5
 1434 0493 6A       		.byte	0x6a
 1435 0494 BD000000 		.4byte	0xbd
 1436 0498 18       		.byte	0x18
 1437 0499 0F       		.uleb128 0xf
 1438 049a 09060000 		.4byte	.LASF86
 1439 049e 05       		.byte	0x5
 1440 049f 6B       		.byte	0x6b
 1441 04a0 BD000000 		.4byte	0xbd
 1442 04a4 1C       		.byte	0x1c
 1443 04a5 0F       		.uleb128 0xf
 1444 04a6 0D050000 		.4byte	.LASF87
 1445 04aa 05       		.byte	0x5
 1446 04ab 6C       		.byte	0x6c
 1447 04ac BD000000 		.4byte	0xbd
 1448 04b0 20       		.byte	0x20
 1449 04b1 0F       		.uleb128 0xf
 1450 04b2 22050000 		.4byte	.LASF88
 1451 04b6 05       		.byte	0x5
 1452 04b7 6D       		.byte	0x6d
 1453 04b8 BD000000 		.4byte	0xbd
 1454 04bc 24       		.byte	0x24
 1455 04bd 0F       		.uleb128 0xf
 1456 04be 9B030000 		.4byte	.LASF89
 1457 04c2 05       		.byte	0x5
 1458 04c3 6E       		.byte	0x6e
 1459 04c4 BD000000 		.4byte	0xbd
 1460 04c8 28       		.byte	0x28
 1461 04c9 0F       		.uleb128 0xf
 1462 04ca CE030000 		.4byte	.LASF90
 1463 04ce 05       		.byte	0x5
 1464 04cf 6F       		.byte	0x6f
 1465 04d0 BD000000 		.4byte	0xbd
 1466 04d4 2C       		.byte	0x2c
 1467 04d5 0F       		.uleb128 0xf
 1468 04d6 6B020000 		.4byte	.LASF91
 1469 04da 05       		.byte	0x5
 1470 04db 70       		.byte	0x70
 1471 04dc BD000000 		.4byte	0xbd
 1472 04e0 30       		.byte	0x30
 1473 04e1 00       		.byte	0
 1474 04e2 03       		.uleb128 0x3
 1475 04e3 3B040000 		.4byte	.LASF92
 1476 04e7 05       		.byte	0x5
 1477 04e8 71       		.byte	0x71
 1478 04e9 3D040000 		.4byte	0x43d
 1479 04ed 10       		.uleb128 0x10
 1480 04ee A6060000 		.4byte	.LASF95
 1481 04f2 01       		.byte	0x1
 1482 04f3 2503     		.2byte	0x325
ARM GAS  /tmp/ccwp7pIS.s 			page 27


 1483 04f5 F4000000 		.4byte	0xf4
 1484 04f9 00000000 		.4byte	.LFB127
 1485 04fd 18000000 		.4byte	.LFE127-.LFB127
 1486 0501 01       		.uleb128 0x1
 1487 0502 9C       		.byte	0x9c
 1488 0503 38050000 		.4byte	0x538
 1489 0507 11       		.uleb128 0x11
 1490 0508 11070000 		.4byte	.LASF97
 1491 050c 01       		.byte	0x1
 1492 050d 2503     		.2byte	0x325
 1493 050f 97000000 		.4byte	0x97
 1494 0513 00000000 		.4byte	.LLST8
 1495 0517 12       		.uleb128 0x12
 1496 0518 CA020000 		.4byte	.LASF93
 1497 051c 01       		.byte	0x1
 1498 051d 2703     		.2byte	0x327
 1499 051f F4000000 		.4byte	0xf4
 1500 0523 21000000 		.4byte	.LLST9
 1501 0527 12       		.uleb128 0x12
 1502 0528 6D050000 		.4byte	.LASF94
 1503 052c 01       		.byte	0x1
 1504 052d 2803     		.2byte	0x328
 1505 052f BD000000 		.4byte	0xbd
 1506 0533 60000000 		.4byte	.LLST10
 1507 0537 00       		.byte	0
 1508 0538 10       		.uleb128 0x10
 1509 0539 88060000 		.4byte	.LASF96
 1510 053d 01       		.byte	0x1
 1511 053e 0303     		.2byte	0x303
 1512 0540 00010000 		.4byte	0x100
 1513 0544 00000000 		.4byte	.LFB126
 1514 0548 14000000 		.4byte	.LFE126-.LFB126
 1515 054c 01       		.uleb128 0x1
 1516 054d 9C       		.byte	0x9c
 1517 054e 73050000 		.4byte	0x573
 1518 0552 11       		.uleb128 0x11
 1519 0553 86010000 		.4byte	.LASF98
 1520 0557 01       		.byte	0x1
 1521 0558 0303     		.2byte	0x303
 1522 055a 97000000 		.4byte	0x97
 1523 055e 7F000000 		.4byte	.LLST6
 1524 0562 12       		.uleb128 0x12
 1525 0563 CA020000 		.4byte	.LASF93
 1526 0567 01       		.byte	0x1
 1527 0568 0503     		.2byte	0x305
 1528 056a 00010000 		.4byte	0x100
 1529 056e A0000000 		.4byte	.LLST7
 1530 0572 00       		.byte	0
 1531 0573 13       		.uleb128 0x13
 1532 0574 75020000 		.4byte	.LASF100
 1533 0578 01       		.byte	0x1
 1534 0579 E702     		.2byte	0x2e7
 1535 057b 00000000 		.4byte	.LFB125
 1536 057f 20000000 		.4byte	.LFE125-.LFB125
 1537 0583 01       		.uleb128 0x1
 1538 0584 9C       		.byte	0x9c
 1539 0585 A8050000 		.4byte	0x5a8
ARM GAS  /tmp/ccwp7pIS.s 			page 28


 1540 0589 11       		.uleb128 0x11
 1541 058a 86010000 		.4byte	.LASF98
 1542 058e 01       		.byte	0x1
 1543 058f E702     		.2byte	0x2e7
 1544 0591 97000000 		.4byte	0x97
 1545 0595 DF000000 		.4byte	.LLST5
 1546 0599 14       		.uleb128 0x14
 1547 059a 1C000000 		.4byte	.LASF99
 1548 059e 01       		.byte	0x1
 1549 059f E702     		.2byte	0x2e7
 1550 05a1 27010000 		.4byte	0x127
 1551 05a5 01       		.uleb128 0x1
 1552 05a6 51       		.byte	0x51
 1553 05a7 00       		.byte	0
 1554 05a8 13       		.uleb128 0x13
 1555 05a9 E1060000 		.4byte	.LASF101
 1556 05ad 01       		.byte	0x1
 1557 05ae 6A02     		.2byte	0x26a
 1558 05b0 00000000 		.4byte	.LFB124
 1559 05b4 20000000 		.4byte	.LFE124-.LFB124
 1560 05b8 01       		.uleb128 0x1
 1561 05b9 9C       		.byte	0x9c
 1562 05ba DD050000 		.4byte	0x5dd
 1563 05be 11       		.uleb128 0x11
 1564 05bf 5F020000 		.4byte	.LASF102
 1565 05c3 01       		.byte	0x1
 1566 05c4 6A02     		.2byte	0x26a
 1567 05c6 97000000 		.4byte	0x97
 1568 05ca 19010000 		.4byte	.LLST4
 1569 05ce 14       		.uleb128 0x14
 1570 05cf 1C000000 		.4byte	.LASF99
 1571 05d3 01       		.byte	0x1
 1572 05d4 6A02     		.2byte	0x26a
 1573 05d6 27010000 		.4byte	0x127
 1574 05da 01       		.uleb128 0x1
 1575 05db 51       		.byte	0x51
 1576 05dc 00       		.byte	0
 1577 05dd 13       		.uleb128 0x13
 1578 05de 5B040000 		.4byte	.LASF103
 1579 05e2 01       		.byte	0x1
 1580 05e3 2D02     		.2byte	0x22d
 1581 05e5 00000000 		.4byte	.LFB123
 1582 05e9 44000000 		.4byte	.LFE123-.LFB123
 1583 05ed 01       		.uleb128 0x1
 1584 05ee 9C       		.byte	0x9c
 1585 05ef 02060000 		.4byte	0x602
 1586 05f3 14       		.uleb128 0x14
 1587 05f4 3E020000 		.4byte	.LASF104
 1588 05f8 01       		.byte	0x1
 1589 05f9 2D02     		.2byte	0x22d
 1590 05fb 02060000 		.4byte	0x602
 1591 05ff 01       		.uleb128 0x1
 1592 0600 50       		.byte	0x50
 1593 0601 00       		.byte	0
 1594 0602 15       		.uleb128 0x15
 1595 0603 04       		.byte	0x4
 1596 0604 E2040000 		.4byte	0x4e2
ARM GAS  /tmp/ccwp7pIS.s 			page 29


 1597 0608 10       		.uleb128 0x10
 1598 0609 BE040000 		.4byte	.LASF105
 1599 060d 01       		.byte	0x1
 1600 060e D801     		.2byte	0x1d8
 1601 0610 4E010000 		.4byte	0x14e
 1602 0614 00000000 		.4byte	.LFB122
 1603 0618 A8000000 		.4byte	.LFE122-.LFB122
 1604 061c 01       		.uleb128 0x1
 1605 061d 9C       		.byte	0x9c
 1606 061e 80060000 		.4byte	0x680
 1607 0622 11       		.uleb128 0x11
 1608 0623 C2010000 		.4byte	.LASF106
 1609 0627 01       		.byte	0x1
 1610 0628 D801     		.2byte	0x1d8
 1611 062a 02060000 		.4byte	0x602
 1612 062e 53010000 		.4byte	.LLST0
 1613 0632 14       		.uleb128 0x14
 1614 0633 90040000 		.4byte	.LASF107
 1615 0637 01       		.byte	0x1
 1616 0638 D901     		.2byte	0x1d9
 1617 063a 80060000 		.4byte	0x680
 1618 063e 01       		.uleb128 0x1
 1619 063f 51       		.byte	0x51
 1620 0640 16       		.uleb128 0x16
 1621 0641 4B030000 		.4byte	.LASF108
 1622 0645 01       		.byte	0x1
 1623 0646 DB01     		.2byte	0x1db
 1624 0648 C8000000 		.4byte	0xc8
 1625 064c 02       		.uleb128 0x2
 1626 064d 91       		.byte	0x91
 1627 064e 6C       		.sleb128 -20
 1628 064f 12       		.uleb128 0x12
 1629 0650 40060000 		.4byte	.LASF109
 1630 0654 01       		.byte	0x1
 1631 0655 DC01     		.2byte	0x1dc
 1632 0657 BD000000 		.4byte	0xbd
 1633 065b 8D010000 		.4byte	.LLST1
 1634 065f 12       		.uleb128 0x12
 1635 0660 CA020000 		.4byte	.LASF93
 1636 0664 01       		.byte	0x1
 1637 0665 DC01     		.2byte	0x1dc
 1638 0667 BD000000 		.4byte	0xbd
 1639 066b AC010000 		.4byte	.LLST2
 1640 066f 12       		.uleb128 0x12
 1641 0670 5D060000 		.4byte	.LASF110
 1642 0674 01       		.byte	0x1
 1643 0675 DD01     		.2byte	0x1dd
 1644 0677 4E010000 		.4byte	0x14e
 1645 067b CA010000 		.4byte	.LLST3
 1646 067f 00       		.byte	0
 1647 0680 15       		.uleb128 0x15
 1648 0681 04       		.byte	0x4
 1649 0682 EE030000 		.4byte	0x3ee
 1650 0686 17       		.uleb128 0x17
 1651 0687 52020000 		.4byte	.LASF127
 1652 068b 01       		.byte	0x1
 1653 068c AD01     		.2byte	0x1ad
ARM GAS  /tmp/ccwp7pIS.s 			page 30


 1654 068e BD000000 		.4byte	0xbd
 1655 0692 00000000 		.4byte	.LFB121
 1656 0696 0C000000 		.4byte	.LFE121-.LFB121
 1657 069a 01       		.uleb128 0x1
 1658 069b 9C       		.byte	0x9c
 1659 069c 13       		.uleb128 0x13
 1660 069d E5050000 		.4byte	.LASF111
 1661 06a1 01       		.byte	0x1
 1662 06a2 A301     		.2byte	0x1a3
 1663 06a4 00000000 		.4byte	.LFB120
 1664 06a8 0C000000 		.4byte	.LFE120-.LFB120
 1665 06ac 01       		.uleb128 0x1
 1666 06ad 9C       		.byte	0x9c
 1667 06ae C1060000 		.4byte	0x6c1
 1668 06b2 14       		.uleb128 0x14
 1669 06b3 7B060000 		.4byte	.LASF112
 1670 06b7 01       		.byte	0x1
 1671 06b8 A301     		.2byte	0x1a3
 1672 06ba BD000000 		.4byte	0xbd
 1673 06be 01       		.uleb128 0x1
 1674 06bf 50       		.byte	0x50
 1675 06c0 00       		.byte	0
 1676 06c1 13       		.uleb128 0x13
 1677 06c2 1D020000 		.4byte	.LASF113
 1678 06c6 01       		.byte	0x1
 1679 06c7 7801     		.2byte	0x178
 1680 06c9 00000000 		.4byte	.LFB119
 1681 06cd 1C000000 		.4byte	.LFE119-.LFB119
 1682 06d1 01       		.uleb128 0x1
 1683 06d2 9C       		.byte	0x9c
 1684 06d3 E6060000 		.4byte	0x6e6
 1685 06d7 14       		.uleb128 0x14
 1686 06d8 1C000000 		.4byte	.LASF99
 1687 06dc 01       		.byte	0x1
 1688 06dd 7801     		.2byte	0x178
 1689 06df 27010000 		.4byte	0x127
 1690 06e3 01       		.uleb128 0x1
 1691 06e4 50       		.byte	0x50
 1692 06e5 00       		.byte	0
 1693 06e6 18       		.uleb128 0x18
 1694 06e7 BF060000 		.4byte	.LASF128
 1695 06eb 01       		.byte	0x1
 1696 06ec 6C01     		.2byte	0x16c
 1697 06ee 00000000 		.4byte	.LFB118
 1698 06f2 10000000 		.4byte	.LFE118-.LFB118
 1699 06f6 01       		.uleb128 0x1
 1700 06f7 9C       		.byte	0x9c
 1701 06f8 13       		.uleb128 0x13
 1702 06f9 E6030000 		.4byte	.LASF114
 1703 06fd 01       		.byte	0x1
 1704 06fe 5D01     		.2byte	0x15d
 1705 0700 00000000 		.4byte	.LFB117
 1706 0704 0C000000 		.4byte	.LFE117-.LFB117
 1707 0708 01       		.uleb128 0x1
 1708 0709 9C       		.byte	0x9c
 1709 070a 1D070000 		.4byte	0x71d
 1710 070e 14       		.uleb128 0x14
ARM GAS  /tmp/ccwp7pIS.s 			page 31


 1711 070f 9C050000 		.4byte	.LASF115
 1712 0713 01       		.byte	0x1
 1713 0714 5D01     		.2byte	0x15d
 1714 0716 1D070000 		.4byte	0x71d
 1715 071a 01       		.uleb128 0x1
 1716 071b 50       		.byte	0x50
 1717 071c 00       		.byte	0
 1718 071d 15       		.uleb128 0x15
 1719 071e 04       		.byte	0x4
 1720 071f 32040000 		.4byte	0x432
 1721 0723 13       		.uleb128 0x13
 1722 0724 5E030000 		.4byte	.LASF116
 1723 0728 01       		.byte	0x1
 1724 0729 4F01     		.2byte	0x14f
 1725 072b 00000000 		.4byte	.LFB116
 1726 072f 18000000 		.4byte	.LFE116-.LFB116
 1727 0733 01       		.uleb128 0x1
 1728 0734 9C       		.byte	0x9c
 1729 0735 48070000 		.4byte	0x748
 1730 0739 14       		.uleb128 0x14
 1731 073a 9C050000 		.4byte	.LASF115
 1732 073e 01       		.byte	0x1
 1733 073f 4F01     		.2byte	0x14f
 1734 0741 1D070000 		.4byte	0x71d
 1735 0745 01       		.uleb128 0x1
 1736 0746 50       		.byte	0x50
 1737 0747 00       		.byte	0
 1738 0748 13       		.uleb128 0x13
 1739 0749 98020000 		.4byte	.LASF117
 1740 074d 01       		.byte	0x1
 1741 074e 3D01     		.2byte	0x13d
 1742 0750 00000000 		.4byte	.LFB115
 1743 0754 14000000 		.4byte	.LFE115-.LFB115
 1744 0758 01       		.uleb128 0x1
 1745 0759 9C       		.byte	0x9c
 1746 075a 6D070000 		.4byte	0x76d
 1747 075e 14       		.uleb128 0x14
 1748 075f 90040000 		.4byte	.LASF107
 1749 0763 01       		.byte	0x1
 1750 0764 3D01     		.2byte	0x13d
 1751 0766 80060000 		.4byte	0x680
 1752 076a 01       		.uleb128 0x1
 1753 076b 50       		.byte	0x50
 1754 076c 00       		.byte	0
 1755 076d 13       		.uleb128 0x13
 1756 076e 75040000 		.4byte	.LASF118
 1757 0772 01       		.byte	0x1
 1758 0773 2A01     		.2byte	0x12a
 1759 0775 00000000 		.4byte	.LFB114
 1760 0779 28000000 		.4byte	.LFE114-.LFB114
 1761 077d 01       		.uleb128 0x1
 1762 077e 9C       		.byte	0x9c
 1763 077f 92070000 		.4byte	0x792
 1764 0783 14       		.uleb128 0x14
 1765 0784 90040000 		.4byte	.LASF107
 1766 0788 01       		.byte	0x1
 1767 0789 2A01     		.2byte	0x12a
ARM GAS  /tmp/ccwp7pIS.s 			page 32


 1768 078b 80060000 		.4byte	0x680
 1769 078f 01       		.uleb128 0x1
 1770 0790 50       		.byte	0x50
 1771 0791 00       		.byte	0
 1772 0792 13       		.uleb128 0x13
 1773 0793 0D030000 		.4byte	.LASF119
 1774 0797 01       		.byte	0x1
 1775 0798 1401     		.2byte	0x114
 1776 079a 00000000 		.4byte	.LFB113
 1777 079e 0C000000 		.4byte	.LFE113-.LFB113
 1778 07a2 01       		.uleb128 0x1
 1779 07a3 9C       		.byte	0x9c
 1780 07a4 B7070000 		.4byte	0x7b7
 1781 07a8 14       		.uleb128 0x14
 1782 07a9 F2040000 		.4byte	.LASF120
 1783 07ad 01       		.byte	0x1
 1784 07ae 1401     		.2byte	0x114
 1785 07b0 B7070000 		.4byte	0x7b7
 1786 07b4 01       		.uleb128 0x1
 1787 07b5 50       		.byte	0x50
 1788 07b6 00       		.byte	0
 1789 07b7 15       		.uleb128 0x15
 1790 07b8 04       		.byte	0x4
 1791 07b9 7A030000 		.4byte	0x37a
 1792 07bd 19       		.uleb128 0x19
 1793 07be 53060000 		.4byte	.LASF121
 1794 07c2 01       		.byte	0x1
 1795 07c3 ED       		.byte	0xed
 1796 07c4 00000000 		.4byte	.LFB112
 1797 07c8 5C000000 		.4byte	.LFE112-.LFB112
 1798 07cc 01       		.uleb128 0x1
 1799 07cd 9C       		.byte	0x9c
 1800 07ce E0070000 		.4byte	0x7e0
 1801 07d2 1A       		.uleb128 0x1a
 1802 07d3 F2040000 		.4byte	.LASF120
 1803 07d7 01       		.byte	0x1
 1804 07d8 ED       		.byte	0xed
 1805 07d9 B7070000 		.4byte	0x7b7
 1806 07dd 01       		.uleb128 0x1
 1807 07de 50       		.byte	0x50
 1808 07df 00       		.byte	0
 1809 07e0 19       		.uleb128 0x19
 1810 07e1 8C020000 		.4byte	.LASF122
 1811 07e5 01       		.byte	0x1
 1812 07e6 DD       		.byte	0xdd
 1813 07e7 00000000 		.4byte	.LFB111
 1814 07eb 16000000 		.4byte	.LFE111-.LFB111
 1815 07ef 01       		.uleb128 0x1
 1816 07f0 9C       		.byte	0x9c
 1817 07f1 22080000 		.4byte	0x822
 1818 07f5 1B       		.uleb128 0x1b
 1819 07f6 0A000000 		.4byte	.LVL0
 1820 07fa 22080000 		.4byte	0x822
 1821 07fe 0D080000 		.4byte	0x80d
 1822 0802 1C       		.uleb128 0x1c
 1823 0803 01       		.uleb128 0x1
 1824 0804 50       		.byte	0x50
ARM GAS  /tmp/ccwp7pIS.s 			page 33


 1825 0805 01       		.uleb128 0x1
 1826 0806 40       		.byte	0x40
 1827 0807 1C       		.uleb128 0x1c
 1828 0808 01       		.uleb128 0x1
 1829 0809 51       		.byte	0x51
 1830 080a 01       		.uleb128 0x1
 1831 080b 31       		.byte	0x31
 1832 080c 00       		.byte	0
 1833 080d 1D       		.uleb128 0x1d
 1834 080e 16000000 		.4byte	.LVL1
 1835 0812 22080000 		.4byte	0x822
 1836 0816 1C       		.uleb128 0x1c
 1837 0817 01       		.uleb128 0x1
 1838 0818 50       		.byte	0x50
 1839 0819 01       		.uleb128 0x1
 1840 081a 40       		.byte	0x40
 1841 081b 1C       		.uleb128 0x1c
 1842 081c 01       		.uleb128 0x1
 1843 081d 51       		.byte	0x51
 1844 081e 01       		.uleb128 0x1
 1845 081f 30       		.byte	0x30
 1846 0820 00       		.byte	0
 1847 0821 00       		.byte	0
 1848 0822 1E       		.uleb128 0x1e
 1849 0823 85050000 		.4byte	.LASF129
 1850 0827 85050000 		.4byte	.LASF129
 1851 082b 07       		.byte	0x7
 1852 082c E401     		.2byte	0x1e4
 1853 082e 00       		.byte	0
 1854              		.section	.debug_abbrev,"",%progbits
 1855              	.Ldebug_abbrev0:
 1856 0000 01       		.uleb128 0x1
 1857 0001 11       		.uleb128 0x11
 1858 0002 01       		.byte	0x1
 1859 0003 25       		.uleb128 0x25
 1860 0004 0E       		.uleb128 0xe
 1861 0005 13       		.uleb128 0x13
 1862 0006 0B       		.uleb128 0xb
 1863 0007 03       		.uleb128 0x3
 1864 0008 0E       		.uleb128 0xe
 1865 0009 1B       		.uleb128 0x1b
 1866 000a 0E       		.uleb128 0xe
 1867 000b 55       		.uleb128 0x55
 1868 000c 17       		.uleb128 0x17
 1869 000d 11       		.uleb128 0x11
 1870 000e 01       		.uleb128 0x1
 1871 000f 10       		.uleb128 0x10
 1872 0010 17       		.uleb128 0x17
 1873 0011 00       		.byte	0
 1874 0012 00       		.byte	0
 1875 0013 02       		.uleb128 0x2
 1876 0014 24       		.uleb128 0x24
 1877 0015 00       		.byte	0
 1878 0016 0B       		.uleb128 0xb
 1879 0017 0B       		.uleb128 0xb
 1880 0018 3E       		.uleb128 0x3e
 1881 0019 0B       		.uleb128 0xb
ARM GAS  /tmp/ccwp7pIS.s 			page 34


 1882 001a 03       		.uleb128 0x3
 1883 001b 0E       		.uleb128 0xe
 1884 001c 00       		.byte	0
 1885 001d 00       		.byte	0
 1886 001e 03       		.uleb128 0x3
 1887 001f 16       		.uleb128 0x16
 1888 0020 00       		.byte	0
 1889 0021 03       		.uleb128 0x3
 1890 0022 0E       		.uleb128 0xe
 1891 0023 3A       		.uleb128 0x3a
 1892 0024 0B       		.uleb128 0xb
 1893 0025 3B       		.uleb128 0x3b
 1894 0026 0B       		.uleb128 0xb
 1895 0027 49       		.uleb128 0x49
 1896 0028 13       		.uleb128 0x13
 1897 0029 00       		.byte	0
 1898 002a 00       		.byte	0
 1899 002b 04       		.uleb128 0x4
 1900 002c 24       		.uleb128 0x24
 1901 002d 00       		.byte	0
 1902 002e 0B       		.uleb128 0xb
 1903 002f 0B       		.uleb128 0xb
 1904 0030 3E       		.uleb128 0x3e
 1905 0031 0B       		.uleb128 0xb
 1906 0032 03       		.uleb128 0x3
 1907 0033 08       		.uleb128 0x8
 1908 0034 00       		.byte	0
 1909 0035 00       		.byte	0
 1910 0036 05       		.uleb128 0x5
 1911 0037 35       		.uleb128 0x35
 1912 0038 00       		.byte	0
 1913 0039 49       		.uleb128 0x49
 1914 003a 13       		.uleb128 0x13
 1915 003b 00       		.byte	0
 1916 003c 00       		.byte	0
 1917 003d 06       		.uleb128 0x6
 1918 003e 34       		.uleb128 0x34
 1919 003f 00       		.byte	0
 1920 0040 03       		.uleb128 0x3
 1921 0041 0E       		.uleb128 0xe
 1922 0042 3A       		.uleb128 0x3a
 1923 0043 0B       		.uleb128 0xb
 1924 0044 3B       		.uleb128 0x3b
 1925 0045 05       		.uleb128 0x5
 1926 0046 49       		.uleb128 0x49
 1927 0047 13       		.uleb128 0x13
 1928 0048 3F       		.uleb128 0x3f
 1929 0049 19       		.uleb128 0x19
 1930 004a 3C       		.uleb128 0x3c
 1931 004b 19       		.uleb128 0x19
 1932 004c 00       		.byte	0
 1933 004d 00       		.byte	0
 1934 004e 07       		.uleb128 0x7
 1935 004f 04       		.uleb128 0x4
 1936 0050 01       		.byte	0x1
 1937 0051 3E       		.uleb128 0x3e
 1938 0052 0B       		.uleb128 0xb
ARM GAS  /tmp/ccwp7pIS.s 			page 35


 1939 0053 0B       		.uleb128 0xb
 1940 0054 0B       		.uleb128 0xb
 1941 0055 49       		.uleb128 0x49
 1942 0056 13       		.uleb128 0x13
 1943 0057 3A       		.uleb128 0x3a
 1944 0058 0B       		.uleb128 0xb
 1945 0059 3B       		.uleb128 0x3b
 1946 005a 05       		.uleb128 0x5
 1947 005b 01       		.uleb128 0x1
 1948 005c 13       		.uleb128 0x13
 1949 005d 00       		.byte	0
 1950 005e 00       		.byte	0
 1951 005f 08       		.uleb128 0x8
 1952 0060 28       		.uleb128 0x28
 1953 0061 00       		.byte	0
 1954 0062 03       		.uleb128 0x3
 1955 0063 0E       		.uleb128 0xe
 1956 0064 1C       		.uleb128 0x1c
 1957 0065 0B       		.uleb128 0xb
 1958 0066 00       		.byte	0
 1959 0067 00       		.byte	0
 1960 0068 09       		.uleb128 0x9
 1961 0069 28       		.uleb128 0x28
 1962 006a 00       		.byte	0
 1963 006b 03       		.uleb128 0x3
 1964 006c 08       		.uleb128 0x8
 1965 006d 1C       		.uleb128 0x1c
 1966 006e 0B       		.uleb128 0xb
 1967 006f 00       		.byte	0
 1968 0070 00       		.byte	0
 1969 0071 0A       		.uleb128 0xa
 1970 0072 16       		.uleb128 0x16
 1971 0073 00       		.byte	0
 1972 0074 03       		.uleb128 0x3
 1973 0075 0E       		.uleb128 0xe
 1974 0076 3A       		.uleb128 0x3a
 1975 0077 0B       		.uleb128 0xb
 1976 0078 3B       		.uleb128 0x3b
 1977 0079 05       		.uleb128 0x5
 1978 007a 49       		.uleb128 0x49
 1979 007b 13       		.uleb128 0x13
 1980 007c 00       		.byte	0
 1981 007d 00       		.byte	0
 1982 007e 0B       		.uleb128 0xb
 1983 007f 13       		.uleb128 0x13
 1984 0080 01       		.byte	0x1
 1985 0081 0B       		.uleb128 0xb
 1986 0082 0B       		.uleb128 0xb
 1987 0083 3A       		.uleb128 0x3a
 1988 0084 0B       		.uleb128 0xb
 1989 0085 3B       		.uleb128 0x3b
 1990 0086 05       		.uleb128 0x5
 1991 0087 01       		.uleb128 0x1
 1992 0088 13       		.uleb128 0x13
 1993 0089 00       		.byte	0
 1994 008a 00       		.byte	0
 1995 008b 0C       		.uleb128 0xc
ARM GAS  /tmp/ccwp7pIS.s 			page 36


 1996 008c 0D       		.uleb128 0xd
 1997 008d 00       		.byte	0
 1998 008e 03       		.uleb128 0x3
 1999 008f 08       		.uleb128 0x8
 2000 0090 3A       		.uleb128 0x3a
 2001 0091 0B       		.uleb128 0xb
 2002 0092 3B       		.uleb128 0x3b
 2003 0093 05       		.uleb128 0x5
 2004 0094 49       		.uleb128 0x49
 2005 0095 13       		.uleb128 0x13
 2006 0096 38       		.uleb128 0x38
 2007 0097 0B       		.uleb128 0xb
 2008 0098 00       		.byte	0
 2009 0099 00       		.byte	0
 2010 009a 0D       		.uleb128 0xd
 2011 009b 0D       		.uleb128 0xd
 2012 009c 00       		.byte	0
 2013 009d 03       		.uleb128 0x3
 2014 009e 0E       		.uleb128 0xe
 2015 009f 3A       		.uleb128 0x3a
 2016 00a0 0B       		.uleb128 0xb
 2017 00a1 3B       		.uleb128 0x3b
 2018 00a2 05       		.uleb128 0x5
 2019 00a3 49       		.uleb128 0x49
 2020 00a4 13       		.uleb128 0x13
 2021 00a5 38       		.uleb128 0x38
 2022 00a6 0B       		.uleb128 0xb
 2023 00a7 00       		.byte	0
 2024 00a8 00       		.byte	0
 2025 00a9 0E       		.uleb128 0xe
 2026 00aa 13       		.uleb128 0x13
 2027 00ab 01       		.byte	0x1
 2028 00ac 0B       		.uleb128 0xb
 2029 00ad 0B       		.uleb128 0xb
 2030 00ae 3A       		.uleb128 0x3a
 2031 00af 0B       		.uleb128 0xb
 2032 00b0 3B       		.uleb128 0x3b
 2033 00b1 0B       		.uleb128 0xb
 2034 00b2 01       		.uleb128 0x1
 2035 00b3 13       		.uleb128 0x13
 2036 00b4 00       		.byte	0
 2037 00b5 00       		.byte	0
 2038 00b6 0F       		.uleb128 0xf
 2039 00b7 0D       		.uleb128 0xd
 2040 00b8 00       		.byte	0
 2041 00b9 03       		.uleb128 0x3
 2042 00ba 0E       		.uleb128 0xe
 2043 00bb 3A       		.uleb128 0x3a
 2044 00bc 0B       		.uleb128 0xb
 2045 00bd 3B       		.uleb128 0x3b
 2046 00be 0B       		.uleb128 0xb
 2047 00bf 49       		.uleb128 0x49
 2048 00c0 13       		.uleb128 0x13
 2049 00c1 38       		.uleb128 0x38
 2050 00c2 0B       		.uleb128 0xb
 2051 00c3 00       		.byte	0
 2052 00c4 00       		.byte	0
ARM GAS  /tmp/ccwp7pIS.s 			page 37


 2053 00c5 10       		.uleb128 0x10
 2054 00c6 2E       		.uleb128 0x2e
 2055 00c7 01       		.byte	0x1
 2056 00c8 3F       		.uleb128 0x3f
 2057 00c9 19       		.uleb128 0x19
 2058 00ca 03       		.uleb128 0x3
 2059 00cb 0E       		.uleb128 0xe
 2060 00cc 3A       		.uleb128 0x3a
 2061 00cd 0B       		.uleb128 0xb
 2062 00ce 3B       		.uleb128 0x3b
 2063 00cf 05       		.uleb128 0x5
 2064 00d0 27       		.uleb128 0x27
 2065 00d1 19       		.uleb128 0x19
 2066 00d2 49       		.uleb128 0x49
 2067 00d3 13       		.uleb128 0x13
 2068 00d4 11       		.uleb128 0x11
 2069 00d5 01       		.uleb128 0x1
 2070 00d6 12       		.uleb128 0x12
 2071 00d7 06       		.uleb128 0x6
 2072 00d8 40       		.uleb128 0x40
 2073 00d9 18       		.uleb128 0x18
 2074 00da 9742     		.uleb128 0x2117
 2075 00dc 19       		.uleb128 0x19
 2076 00dd 01       		.uleb128 0x1
 2077 00de 13       		.uleb128 0x13
 2078 00df 00       		.byte	0
 2079 00e0 00       		.byte	0
 2080 00e1 11       		.uleb128 0x11
 2081 00e2 05       		.uleb128 0x5
 2082 00e3 00       		.byte	0
 2083 00e4 03       		.uleb128 0x3
 2084 00e5 0E       		.uleb128 0xe
 2085 00e6 3A       		.uleb128 0x3a
 2086 00e7 0B       		.uleb128 0xb
 2087 00e8 3B       		.uleb128 0x3b
 2088 00e9 05       		.uleb128 0x5
 2089 00ea 49       		.uleb128 0x49
 2090 00eb 13       		.uleb128 0x13
 2091 00ec 02       		.uleb128 0x2
 2092 00ed 17       		.uleb128 0x17
 2093 00ee 00       		.byte	0
 2094 00ef 00       		.byte	0
 2095 00f0 12       		.uleb128 0x12
 2096 00f1 34       		.uleb128 0x34
 2097 00f2 00       		.byte	0
 2098 00f3 03       		.uleb128 0x3
 2099 00f4 0E       		.uleb128 0xe
 2100 00f5 3A       		.uleb128 0x3a
 2101 00f6 0B       		.uleb128 0xb
 2102 00f7 3B       		.uleb128 0x3b
 2103 00f8 05       		.uleb128 0x5
 2104 00f9 49       		.uleb128 0x49
 2105 00fa 13       		.uleb128 0x13
 2106 00fb 02       		.uleb128 0x2
 2107 00fc 17       		.uleb128 0x17
 2108 00fd 00       		.byte	0
 2109 00fe 00       		.byte	0
ARM GAS  /tmp/ccwp7pIS.s 			page 38


 2110 00ff 13       		.uleb128 0x13
 2111 0100 2E       		.uleb128 0x2e
 2112 0101 01       		.byte	0x1
 2113 0102 3F       		.uleb128 0x3f
 2114 0103 19       		.uleb128 0x19
 2115 0104 03       		.uleb128 0x3
 2116 0105 0E       		.uleb128 0xe
 2117 0106 3A       		.uleb128 0x3a
 2118 0107 0B       		.uleb128 0xb
 2119 0108 3B       		.uleb128 0x3b
 2120 0109 05       		.uleb128 0x5
 2121 010a 27       		.uleb128 0x27
 2122 010b 19       		.uleb128 0x19
 2123 010c 11       		.uleb128 0x11
 2124 010d 01       		.uleb128 0x1
 2125 010e 12       		.uleb128 0x12
 2126 010f 06       		.uleb128 0x6
 2127 0110 40       		.uleb128 0x40
 2128 0111 18       		.uleb128 0x18
 2129 0112 9742     		.uleb128 0x2117
 2130 0114 19       		.uleb128 0x19
 2131 0115 01       		.uleb128 0x1
 2132 0116 13       		.uleb128 0x13
 2133 0117 00       		.byte	0
 2134 0118 00       		.byte	0
 2135 0119 14       		.uleb128 0x14
 2136 011a 05       		.uleb128 0x5
 2137 011b 00       		.byte	0
 2138 011c 03       		.uleb128 0x3
 2139 011d 0E       		.uleb128 0xe
 2140 011e 3A       		.uleb128 0x3a
 2141 011f 0B       		.uleb128 0xb
 2142 0120 3B       		.uleb128 0x3b
 2143 0121 05       		.uleb128 0x5
 2144 0122 49       		.uleb128 0x49
 2145 0123 13       		.uleb128 0x13
 2146 0124 02       		.uleb128 0x2
 2147 0125 18       		.uleb128 0x18
 2148 0126 00       		.byte	0
 2149 0127 00       		.byte	0
 2150 0128 15       		.uleb128 0x15
 2151 0129 0F       		.uleb128 0xf
 2152 012a 00       		.byte	0
 2153 012b 0B       		.uleb128 0xb
 2154 012c 0B       		.uleb128 0xb
 2155 012d 49       		.uleb128 0x49
 2156 012e 13       		.uleb128 0x13
 2157 012f 00       		.byte	0
 2158 0130 00       		.byte	0
 2159 0131 16       		.uleb128 0x16
 2160 0132 34       		.uleb128 0x34
 2161 0133 00       		.byte	0
 2162 0134 03       		.uleb128 0x3
 2163 0135 0E       		.uleb128 0xe
 2164 0136 3A       		.uleb128 0x3a
 2165 0137 0B       		.uleb128 0xb
 2166 0138 3B       		.uleb128 0x3b
ARM GAS  /tmp/ccwp7pIS.s 			page 39


 2167 0139 05       		.uleb128 0x5
 2168 013a 49       		.uleb128 0x49
 2169 013b 13       		.uleb128 0x13
 2170 013c 02       		.uleb128 0x2
 2171 013d 18       		.uleb128 0x18
 2172 013e 00       		.byte	0
 2173 013f 00       		.byte	0
 2174 0140 17       		.uleb128 0x17
 2175 0141 2E       		.uleb128 0x2e
 2176 0142 00       		.byte	0
 2177 0143 3F       		.uleb128 0x3f
 2178 0144 19       		.uleb128 0x19
 2179 0145 03       		.uleb128 0x3
 2180 0146 0E       		.uleb128 0xe
 2181 0147 3A       		.uleb128 0x3a
 2182 0148 0B       		.uleb128 0xb
 2183 0149 3B       		.uleb128 0x3b
 2184 014a 05       		.uleb128 0x5
 2185 014b 27       		.uleb128 0x27
 2186 014c 19       		.uleb128 0x19
 2187 014d 49       		.uleb128 0x49
 2188 014e 13       		.uleb128 0x13
 2189 014f 11       		.uleb128 0x11
 2190 0150 01       		.uleb128 0x1
 2191 0151 12       		.uleb128 0x12
 2192 0152 06       		.uleb128 0x6
 2193 0153 40       		.uleb128 0x40
 2194 0154 18       		.uleb128 0x18
 2195 0155 9742     		.uleb128 0x2117
 2196 0157 19       		.uleb128 0x19
 2197 0158 00       		.byte	0
 2198 0159 00       		.byte	0
 2199 015a 18       		.uleb128 0x18
 2200 015b 2E       		.uleb128 0x2e
 2201 015c 00       		.byte	0
 2202 015d 3F       		.uleb128 0x3f
 2203 015e 19       		.uleb128 0x19
 2204 015f 03       		.uleb128 0x3
 2205 0160 0E       		.uleb128 0xe
 2206 0161 3A       		.uleb128 0x3a
 2207 0162 0B       		.uleb128 0xb
 2208 0163 3B       		.uleb128 0x3b
 2209 0164 05       		.uleb128 0x5
 2210 0165 27       		.uleb128 0x27
 2211 0166 19       		.uleb128 0x19
 2212 0167 11       		.uleb128 0x11
 2213 0168 01       		.uleb128 0x1
 2214 0169 12       		.uleb128 0x12
 2215 016a 06       		.uleb128 0x6
 2216 016b 40       		.uleb128 0x40
 2217 016c 18       		.uleb128 0x18
 2218 016d 9742     		.uleb128 0x2117
 2219 016f 19       		.uleb128 0x19
 2220 0170 00       		.byte	0
 2221 0171 00       		.byte	0
 2222 0172 19       		.uleb128 0x19
 2223 0173 2E       		.uleb128 0x2e
ARM GAS  /tmp/ccwp7pIS.s 			page 40


 2224 0174 01       		.byte	0x1
 2225 0175 3F       		.uleb128 0x3f
 2226 0176 19       		.uleb128 0x19
 2227 0177 03       		.uleb128 0x3
 2228 0178 0E       		.uleb128 0xe
 2229 0179 3A       		.uleb128 0x3a
 2230 017a 0B       		.uleb128 0xb
 2231 017b 3B       		.uleb128 0x3b
 2232 017c 0B       		.uleb128 0xb
 2233 017d 27       		.uleb128 0x27
 2234 017e 19       		.uleb128 0x19
 2235 017f 11       		.uleb128 0x11
 2236 0180 01       		.uleb128 0x1
 2237 0181 12       		.uleb128 0x12
 2238 0182 06       		.uleb128 0x6
 2239 0183 40       		.uleb128 0x40
 2240 0184 18       		.uleb128 0x18
 2241 0185 9742     		.uleb128 0x2117
 2242 0187 19       		.uleb128 0x19
 2243 0188 01       		.uleb128 0x1
 2244 0189 13       		.uleb128 0x13
 2245 018a 00       		.byte	0
 2246 018b 00       		.byte	0
 2247 018c 1A       		.uleb128 0x1a
 2248 018d 05       		.uleb128 0x5
 2249 018e 00       		.byte	0
 2250 018f 03       		.uleb128 0x3
 2251 0190 0E       		.uleb128 0xe
 2252 0191 3A       		.uleb128 0x3a
 2253 0192 0B       		.uleb128 0xb
 2254 0193 3B       		.uleb128 0x3b
 2255 0194 0B       		.uleb128 0xb
 2256 0195 49       		.uleb128 0x49
 2257 0196 13       		.uleb128 0x13
 2258 0197 02       		.uleb128 0x2
 2259 0198 18       		.uleb128 0x18
 2260 0199 00       		.byte	0
 2261 019a 00       		.byte	0
 2262 019b 1B       		.uleb128 0x1b
 2263 019c 898201   		.uleb128 0x4109
 2264 019f 01       		.byte	0x1
 2265 01a0 11       		.uleb128 0x11
 2266 01a1 01       		.uleb128 0x1
 2267 01a2 31       		.uleb128 0x31
 2268 01a3 13       		.uleb128 0x13
 2269 01a4 01       		.uleb128 0x1
 2270 01a5 13       		.uleb128 0x13
 2271 01a6 00       		.byte	0
 2272 01a7 00       		.byte	0
 2273 01a8 1C       		.uleb128 0x1c
 2274 01a9 8A8201   		.uleb128 0x410a
 2275 01ac 00       		.byte	0
 2276 01ad 02       		.uleb128 0x2
 2277 01ae 18       		.uleb128 0x18
 2278 01af 9142     		.uleb128 0x2111
 2279 01b1 18       		.uleb128 0x18
 2280 01b2 00       		.byte	0
ARM GAS  /tmp/ccwp7pIS.s 			page 41


 2281 01b3 00       		.byte	0
 2282 01b4 1D       		.uleb128 0x1d
 2283 01b5 898201   		.uleb128 0x4109
 2284 01b8 01       		.byte	0x1
 2285 01b9 11       		.uleb128 0x11
 2286 01ba 01       		.uleb128 0x1
 2287 01bb 9542     		.uleb128 0x2115
 2288 01bd 19       		.uleb128 0x19
 2289 01be 31       		.uleb128 0x31
 2290 01bf 13       		.uleb128 0x13
 2291 01c0 00       		.byte	0
 2292 01c1 00       		.byte	0
 2293 01c2 1E       		.uleb128 0x1e
 2294 01c3 2E       		.uleb128 0x2e
 2295 01c4 00       		.byte	0
 2296 01c5 3F       		.uleb128 0x3f
 2297 01c6 19       		.uleb128 0x19
 2298 01c7 3C       		.uleb128 0x3c
 2299 01c8 19       		.uleb128 0x19
 2300 01c9 6E       		.uleb128 0x6e
 2301 01ca 0E       		.uleb128 0xe
 2302 01cb 03       		.uleb128 0x3
 2303 01cc 0E       		.uleb128 0xe
 2304 01cd 3A       		.uleb128 0x3a
 2305 01ce 0B       		.uleb128 0xb
 2306 01cf 3B       		.uleb128 0x3b
 2307 01d0 05       		.uleb128 0x5
 2308 01d1 00       		.byte	0
 2309 01d2 00       		.byte	0
 2310 01d3 00       		.byte	0
 2311              		.section	.debug_loc,"",%progbits
 2312              	.Ldebug_loc0:
 2313              	.LLST8:
 2314 0000 00000000 		.4byte	.LVL36
 2315 0004 10000000 		.4byte	.LVL39
 2316 0008 0100     		.2byte	0x1
 2317 000a 50       		.byte	0x50
 2318 000b 10000000 		.4byte	.LVL39
 2319 000f 18000000 		.4byte	.LFE127
 2320 0013 0400     		.2byte	0x4
 2321 0015 F3       		.byte	0xf3
 2322 0016 01       		.uleb128 0x1
 2323 0017 50       		.byte	0x50
 2324 0018 9F       		.byte	0x9f
 2325 0019 00000000 		.4byte	0
 2326 001d 00000000 		.4byte	0
 2327              	.LLST9:
 2328 0021 00000000 		.4byte	.LVL36
 2329 0025 0A000000 		.4byte	.LVL38
 2330 0029 0200     		.2byte	0x2
 2331 002b 30       		.byte	0x30
 2332 002c 9F       		.byte	0x9f
 2333 002d 0A000000 		.4byte	.LVL38
 2334 0031 10000000 		.4byte	.LVL39
 2335 0035 0B00     		.2byte	0xb
 2336 0037 70       		.byte	0x70
 2337 0038 00       		.sleb128 0
ARM GAS  /tmp/ccwp7pIS.s 			page 42


 2338 0039 08       		.byte	0x8
 2339 003a FF       		.byte	0xff
 2340 003b 1A       		.byte	0x1a
 2341 003c 73       		.byte	0x73
 2342 003d 00       		.sleb128 0
 2343 003e 1A       		.byte	0x1a
 2344 003f 30       		.byte	0x30
 2345 0040 2E       		.byte	0x2e
 2346 0041 9F       		.byte	0x9f
 2347 0042 10000000 		.4byte	.LVL39
 2348 0046 18000000 		.4byte	.LFE127
 2349 004a 0C00     		.2byte	0xc
 2350 004c F3       		.byte	0xf3
 2351 004d 01       		.uleb128 0x1
 2352 004e 50       		.byte	0x50
 2353 004f 08       		.byte	0x8
 2354 0050 FF       		.byte	0xff
 2355 0051 1A       		.byte	0x1a
 2356 0052 73       		.byte	0x73
 2357 0053 00       		.sleb128 0
 2358 0054 1A       		.byte	0x1a
 2359 0055 30       		.byte	0x30
 2360 0056 2E       		.byte	0x2e
 2361 0057 9F       		.byte	0x9f
 2362 0058 00000000 		.4byte	0
 2363 005c 00000000 		.4byte	0
 2364              	.LLST10:
 2365 0060 00000000 		.4byte	.LVL36
 2366 0064 08000000 		.4byte	.LVL37
 2367 0068 0200     		.2byte	0x2
 2368 006a 30       		.byte	0x30
 2369 006b 9F       		.byte	0x9f
 2370 006c 08000000 		.4byte	.LVL37
 2371 0070 18000000 		.4byte	.LFE127
 2372 0074 0100     		.2byte	0x1
 2373 0076 53       		.byte	0x53
 2374 0077 00000000 		.4byte	0
 2375 007b 00000000 		.4byte	0
 2376              	.LLST6:
 2377 007f 00000000 		.4byte	.LVL33
 2378 0083 0A000000 		.4byte	.LVL35
 2379 0087 0100     		.2byte	0x1
 2380 0089 50       		.byte	0x50
 2381 008a 0A000000 		.4byte	.LVL35
 2382 008e 14000000 		.4byte	.LFE126
 2383 0092 0400     		.2byte	0x4
 2384 0094 F3       		.byte	0xf3
 2385 0095 01       		.uleb128 0x1
 2386 0096 50       		.byte	0x50
 2387 0097 9F       		.byte	0x9f
 2388 0098 00000000 		.4byte	0
 2389 009c 00000000 		.4byte	0
 2390              	.LLST7:
 2391 00a0 00000000 		.4byte	.LVL33
 2392 00a4 04000000 		.4byte	.LVL34
 2393 00a8 0200     		.2byte	0x2
 2394 00aa 30       		.byte	0x30
ARM GAS  /tmp/ccwp7pIS.s 			page 43


 2395 00ab 9F       		.byte	0x9f
 2396 00ac 04000000 		.4byte	.LVL34
 2397 00b0 0A000000 		.4byte	.LVL35
 2398 00b4 0B00     		.2byte	0xb
 2399 00b6 70       		.byte	0x70
 2400 00b7 00       		.sleb128 0
 2401 00b8 08       		.byte	0x8
 2402 00b9 FF       		.byte	0xff
 2403 00ba 1A       		.byte	0x1a
 2404 00bb 73       		.byte	0x73
 2405 00bc 00       		.sleb128 0
 2406 00bd 1A       		.byte	0x1a
 2407 00be 30       		.byte	0x30
 2408 00bf 2E       		.byte	0x2e
 2409 00c0 9F       		.byte	0x9f
 2410 00c1 0A000000 		.4byte	.LVL35
 2411 00c5 14000000 		.4byte	.LFE126
 2412 00c9 0C00     		.2byte	0xc
 2413 00cb F3       		.byte	0xf3
 2414 00cc 01       		.uleb128 0x1
 2415 00cd 50       		.byte	0x50
 2416 00ce 08       		.byte	0x8
 2417 00cf FF       		.byte	0xff
 2418 00d0 1A       		.byte	0x1a
 2419 00d1 73       		.byte	0x73
 2420 00d2 00       		.sleb128 0
 2421 00d3 1A       		.byte	0x1a
 2422 00d4 30       		.byte	0x30
 2423 00d5 2E       		.byte	0x2e
 2424 00d6 9F       		.byte	0x9f
 2425 00d7 00000000 		.4byte	0
 2426 00db 00000000 		.4byte	0
 2427              	.LLST5:
 2428 00df 00000000 		.4byte	.LVL29
 2429 00e3 0A000000 		.4byte	.LVL30
 2430 00e7 0100     		.2byte	0x1
 2431 00e9 50       		.byte	0x50
 2432 00ea 0A000000 		.4byte	.LVL30
 2433 00ee 12000000 		.4byte	.LVL31
 2434 00f2 0400     		.2byte	0x4
 2435 00f4 F3       		.byte	0xf3
 2436 00f5 01       		.uleb128 0x1
 2437 00f6 50       		.byte	0x50
 2438 00f7 9F       		.byte	0x9f
 2439 00f8 12000000 		.4byte	.LVL31
 2440 00fc 18000000 		.4byte	.LVL32
 2441 0100 0100     		.2byte	0x1
 2442 0102 50       		.byte	0x50
 2443 0103 18000000 		.4byte	.LVL32
 2444 0107 20000000 		.4byte	.LFE125
 2445 010b 0400     		.2byte	0x4
 2446 010d F3       		.byte	0xf3
 2447 010e 01       		.uleb128 0x1
 2448 010f 50       		.byte	0x50
 2449 0110 9F       		.byte	0x9f
 2450 0111 00000000 		.4byte	0
 2451 0115 00000000 		.4byte	0
ARM GAS  /tmp/ccwp7pIS.s 			page 44


 2452              	.LLST4:
 2453 0119 00000000 		.4byte	.LVL25
 2454 011d 0A000000 		.4byte	.LVL26
 2455 0121 0100     		.2byte	0x1
 2456 0123 50       		.byte	0x50
 2457 0124 0A000000 		.4byte	.LVL26
 2458 0128 12000000 		.4byte	.LVL27
 2459 012c 0400     		.2byte	0x4
 2460 012e F3       		.byte	0xf3
 2461 012f 01       		.uleb128 0x1
 2462 0130 50       		.byte	0x50
 2463 0131 9F       		.byte	0x9f
 2464 0132 12000000 		.4byte	.LVL27
 2465 0136 18000000 		.4byte	.LVL28
 2466 013a 0100     		.2byte	0x1
 2467 013c 50       		.byte	0x50
 2468 013d 18000000 		.4byte	.LVL28
 2469 0141 20000000 		.4byte	.LFE124
 2470 0145 0400     		.2byte	0x4
 2471 0147 F3       		.byte	0xf3
 2472 0148 01       		.uleb128 0x1
 2473 0149 50       		.byte	0x50
 2474 014a 9F       		.byte	0x9f
 2475 014b 00000000 		.4byte	0
 2476 014f 00000000 		.4byte	0
 2477              	.LLST0:
 2478 0153 00000000 		.4byte	.LVL10
 2479 0157 48000000 		.4byte	.LVL18
 2480 015b 0100     		.2byte	0x1
 2481 015d 50       		.byte	0x50
 2482 015e 48000000 		.4byte	.LVL18
 2483 0162 4E000000 		.4byte	.LVL20
 2484 0166 0400     		.2byte	0x4
 2485 0168 F3       		.byte	0xf3
 2486 0169 01       		.uleb128 0x1
 2487 016a 50       		.byte	0x50
 2488 016b 9F       		.byte	0x9f
 2489 016c 4E000000 		.4byte	.LVL20
 2490 0170 98000000 		.4byte	.LVL22
 2491 0174 0100     		.2byte	0x1
 2492 0176 50       		.byte	0x50
 2493 0177 98000000 		.4byte	.LVL22
 2494 017b A8000000 		.4byte	.LFE122
 2495 017f 0400     		.2byte	0x4
 2496 0181 F3       		.byte	0xf3
 2497 0182 01       		.uleb128 0x1
 2498 0183 50       		.byte	0x50
 2499 0184 9F       		.byte	0x9f
 2500 0185 00000000 		.4byte	0
 2501 0189 00000000 		.4byte	0
 2502              	.LLST1:
 2503 018d 0A000000 		.4byte	.LVL11
 2504 0191 24000000 		.4byte	.LVL12
 2505 0195 0200     		.2byte	0x2
 2506 0197 30       		.byte	0x30
 2507 0198 9F       		.byte	0x9f
 2508 0199 24000000 		.4byte	.LVL12
ARM GAS  /tmp/ccwp7pIS.s 			page 45


 2509 019d 40000000 		.4byte	.LVL16
 2510 01a1 0100     		.2byte	0x1
 2511 01a3 55       		.byte	0x55
 2512 01a4 00000000 		.4byte	0
 2513 01a8 00000000 		.4byte	0
 2514              	.LLST2:
 2515 01ac 24000000 		.4byte	.LVL12
 2516 01b0 28000000 		.4byte	.LVL13
 2517 01b4 0100     		.2byte	0x1
 2518 01b6 52       		.byte	0x52
 2519 01b7 38000000 		.4byte	.LVL14
 2520 01bb 3E000000 		.4byte	.LVL15
 2521 01bf 0100     		.2byte	0x1
 2522 01c1 52       		.byte	0x52
 2523 01c2 00000000 		.4byte	0
 2524 01c6 00000000 		.4byte	0
 2525              	.LLST3:
 2526 01ca 0A000000 		.4byte	.LVL11
 2527 01ce 46000000 		.4byte	.LVL17
 2528 01d2 0200     		.2byte	0x2
 2529 01d4 30       		.byte	0x30
 2530 01d5 9F       		.byte	0x9f
 2531 01d6 46000000 		.4byte	.LVL17
 2532 01da 4C000000 		.4byte	.LVL19
 2533 01de 0100     		.2byte	0x1
 2534 01e0 55       		.byte	0x55
 2535 01e1 4C000000 		.4byte	.LVL19
 2536 01e5 4E000000 		.4byte	.LVL20
 2537 01e9 0100     		.2byte	0x1
 2538 01eb 50       		.byte	0x50
 2539 01ec 4E000000 		.4byte	.LVL20
 2540 01f0 96000000 		.4byte	.LVL21
 2541 01f4 0200     		.2byte	0x2
 2542 01f6 30       		.byte	0x30
 2543 01f7 9F       		.byte	0x9f
 2544 01f8 96000000 		.4byte	.LVL21
 2545 01fc 9C000000 		.4byte	.LVL23
 2546 0200 0100     		.2byte	0x1
 2547 0202 55       		.byte	0x55
 2548 0203 00000000 		.4byte	0
 2549 0207 00000000 		.4byte	0
 2550              		.section	.debug_aranges,"",%progbits
 2551 0000 9C000000 		.4byte	0x9c
 2552 0004 0200     		.2byte	0x2
 2553 0006 00000000 		.4byte	.Ldebug_info0
 2554 000a 04       		.byte	0x4
 2555 000b 00       		.byte	0
 2556 000c 0000     		.2byte	0
 2557 000e 0000     		.2byte	0
 2558 0010 00000000 		.4byte	.LFB111
 2559 0014 16000000 		.4byte	.LFE111-.LFB111
 2560 0018 00000000 		.4byte	.LFB112
 2561 001c 5C000000 		.4byte	.LFE112-.LFB112
 2562 0020 00000000 		.4byte	.LFB113
 2563 0024 0C000000 		.4byte	.LFE113-.LFB113
 2564 0028 00000000 		.4byte	.LFB114
 2565 002c 28000000 		.4byte	.LFE114-.LFB114
ARM GAS  /tmp/ccwp7pIS.s 			page 46


 2566 0030 00000000 		.4byte	.LFB115
 2567 0034 14000000 		.4byte	.LFE115-.LFB115
 2568 0038 00000000 		.4byte	.LFB116
 2569 003c 18000000 		.4byte	.LFE116-.LFB116
 2570 0040 00000000 		.4byte	.LFB117
 2571 0044 0C000000 		.4byte	.LFE117-.LFB117
 2572 0048 00000000 		.4byte	.LFB118
 2573 004c 10000000 		.4byte	.LFE118-.LFB118
 2574 0050 00000000 		.4byte	.LFB119
 2575 0054 1C000000 		.4byte	.LFE119-.LFB119
 2576 0058 00000000 		.4byte	.LFB120
 2577 005c 0C000000 		.4byte	.LFE120-.LFB120
 2578 0060 00000000 		.4byte	.LFB121
 2579 0064 0C000000 		.4byte	.LFE121-.LFB121
 2580 0068 00000000 		.4byte	.LFB122
 2581 006c A8000000 		.4byte	.LFE122-.LFB122
 2582 0070 00000000 		.4byte	.LFB123
 2583 0074 44000000 		.4byte	.LFE123-.LFB123
 2584 0078 00000000 		.4byte	.LFB124
 2585 007c 20000000 		.4byte	.LFE124-.LFB124
 2586 0080 00000000 		.4byte	.LFB125
 2587 0084 20000000 		.4byte	.LFE125-.LFB125
 2588 0088 00000000 		.4byte	.LFB126
 2589 008c 14000000 		.4byte	.LFE126-.LFB126
 2590 0090 00000000 		.4byte	.LFB127
 2591 0094 18000000 		.4byte	.LFE127-.LFB127
 2592 0098 00000000 		.4byte	0
 2593 009c 00000000 		.4byte	0
 2594              		.section	.debug_ranges,"",%progbits
 2595              	.Ldebug_ranges0:
 2596 0000 00000000 		.4byte	.LFB111
 2597 0004 16000000 		.4byte	.LFE111
 2598 0008 00000000 		.4byte	.LFB112
 2599 000c 5C000000 		.4byte	.LFE112
 2600 0010 00000000 		.4byte	.LFB113
 2601 0014 0C000000 		.4byte	.LFE113
 2602 0018 00000000 		.4byte	.LFB114
 2603 001c 28000000 		.4byte	.LFE114
 2604 0020 00000000 		.4byte	.LFB115
 2605 0024 14000000 		.4byte	.LFE115
 2606 0028 00000000 		.4byte	.LFB116
 2607 002c 18000000 		.4byte	.LFE116
 2608 0030 00000000 		.4byte	.LFB117
 2609 0034 0C000000 		.4byte	.LFE117
 2610 0038 00000000 		.4byte	.LFB118
 2611 003c 10000000 		.4byte	.LFE118
 2612 0040 00000000 		.4byte	.LFB119
 2613 0044 1C000000 		.4byte	.LFE119
 2614 0048 00000000 		.4byte	.LFB120
 2615 004c 0C000000 		.4byte	.LFE120
 2616 0050 00000000 		.4byte	.LFB121
 2617 0054 0C000000 		.4byte	.LFE121
 2618 0058 00000000 		.4byte	.LFB122
 2619 005c A8000000 		.4byte	.LFE122
 2620 0060 00000000 		.4byte	.LFB123
 2621 0064 44000000 		.4byte	.LFE123
 2622 0068 00000000 		.4byte	.LFB124
ARM GAS  /tmp/ccwp7pIS.s 			page 47


 2623 006c 20000000 		.4byte	.LFE124
 2624 0070 00000000 		.4byte	.LFB125
 2625 0074 20000000 		.4byte	.LFE125
 2626 0078 00000000 		.4byte	.LFB126
 2627 007c 14000000 		.4byte	.LFE126
 2628 0080 00000000 		.4byte	.LFB127
 2629 0084 18000000 		.4byte	.LFE127
 2630 0088 00000000 		.4byte	0
 2631 008c 00000000 		.4byte	0
 2632              		.section	.debug_line,"",%progbits
 2633              	.Ldebug_line0:
 2634 0000 4C030000 		.section	.debug_str,"MS",%progbits,1
 2634      02007A01 
 2634      00000201 
 2634      FB0E0D00 
 2634      01010101 
 2635              	.LASF59:
 2636 0000 43525950 		.ascii	"CRYP_TypeDef\000"
 2636      5F547970 
 2636      65446566 
 2636      00
 2637              	.LASF70:
 2638 000d 43525950 		.ascii	"CRYP_Key2Right\000"
 2638      5F4B6579 
 2638      32526967 
 2638      687400
 2639              	.LASF99:
 2640 001c 4E657753 		.ascii	"NewState\000"
 2640      74617465 
 2640      00
 2641              	.LASF18:
 2642 0025 466C6167 		.ascii	"FlagStatus\000"
 2642      53746174 
 2642      757300
 2643              	.LASF26:
 2644 0030 444F5554 		.ascii	"DOUT\000"
 2644      00
 2645              	.LASF3:
 2646 0035 5F5F7569 		.ascii	"__uint8_t\000"
 2646      6E74385F 
 2646      7400
 2647              	.LASF78:
 2648 003f 43525950 		.ascii	"CRYP_IVInitTypeDef\000"
 2648      5F495649 
 2648      6E697454 
 2648      79706544 
 2648      656600
 2649              	.LASF57:
 2650 0052 43534743 		.ascii	"CSGCM6R\000"
 2650      4D365200 
 2651              	.LASF123:
 2652 005a 474E5520 		.ascii	"GNU C99 7.3.1 20180622 (release) [ARM/embedded-7-br"
 2652      43393920 
 2652      372E332E 
 2652      31203230 
 2652      31383036 
 2653 008d 616E6368 		.ascii	"anch revision 261907] -mcpu=cortex-m4 -mfloat-abi=h"
ARM GAS  /tmp/ccwp7pIS.s 			page 48


 2653      20726576 
 2653      6973696F 
 2653      6E203236 
 2653      31393037 
 2654 00c0 61726420 		.ascii	"ard -mfpu=fpv4-sp-d16 -mno-thumb-interwork -mthumb "
 2654      2D6D6670 
 2654      753D6670 
 2654      76342D73 
 2654      702D6431 
 2655 00f3 2D676764 		.ascii	"-ggdb -O2 -std=gnu99 -fomit-frame-pointer -falign-f"
 2655      62202D4F 
 2655      32202D73 
 2655      74643D67 
 2655      6E753939 
 2656 0126 756E6374 		.ascii	"unctions=16 -ffunction-sections -fdata-sections -fn"
 2656      696F6E73 
 2656      3D313620 
 2656      2D666675 
 2656      6E637469 
 2657 0159 6F2D636F 		.ascii	"o-common -fsingle-precision-constant\000"
 2657      6D6D6F6E 
 2657      202D6673 
 2657      696E676C 
 2657      652D7072 
 2658              	.LASF20:
 2659 017e 44495341 		.ascii	"DISABLE\000"
 2659      424C4500 
 2660              	.LASF98:
 2661 0186 43525950 		.ascii	"CRYP_IT\000"
 2661      5F495400 
 2662              	.LASF11:
 2663 018e 6C6F6E67 		.ascii	"long long unsigned int\000"
 2663      206C6F6E 
 2663      6720756E 
 2663      7369676E 
 2663      65642069 
 2664              	.LASF50:
 2665 01a5 43534743 		.ascii	"CSGCMCCM7R\000"
 2665      4D43434D 
 2665      375200
 2666              	.LASF126:
 2667 01b0 49544D5F 		.ascii	"ITM_RxBuffer\000"
 2667      52784275 
 2667      66666572 
 2667      00
 2668              	.LASF36:
 2669 01bd 4B325252 		.ascii	"K2RR\000"
 2669      00
 2670              	.LASF106:
 2671 01c2 43525950 		.ascii	"CRYP_ContextSave\000"
 2671      5F436F6E 
 2671      74657874 
 2671      53617665 
 2671      00
 2672              	.LASF40:
 2673 01d3 49563052 		.ascii	"IV0RR\000"
 2673      5200
ARM GAS  /tmp/ccwp7pIS.s 			page 49


 2674              	.LASF79:
 2675 01d9 43525F62 		.ascii	"CR_bits9to2\000"
 2675      69747339 
 2675      746F3200 
 2676              	.LASF10:
 2677 01e5 6C6F6E67 		.ascii	"long long int\000"
 2677      206C6F6E 
 2677      6720696E 
 2677      7400
 2678              	.LASF0:
 2679 01f3 7369676E 		.ascii	"signed char\000"
 2679      65642063 
 2679      68617200 
 2680              	.LASF74:
 2681 01ff 43525950 		.ascii	"CRYP_IV0Left\000"
 2681      5F495630 
 2681      4C656674 
 2681      00
 2682              	.LASF41:
 2683 020c 4956314C 		.ascii	"IV1LR\000"
 2683      5200
 2684              	.LASF43:
 2685 0212 43534743 		.ascii	"CSGCMCCM0R\000"
 2685      4D43434D 
 2685      305200
 2686              	.LASF113:
 2687 021d 43525950 		.ascii	"CRYP_Cmd\000"
 2687      5F436D64 
 2687      00
 2688              	.LASF7:
 2689 0226 6C6F6E67 		.ascii	"long int\000"
 2689      20696E74 
 2689      00
 2690              	.LASF21:
 2691 022f 454E4142 		.ascii	"ENABLE\000"
 2691      4C4500
 2692              	.LASF58:
 2693 0236 43534743 		.ascii	"CSGCM7R\000"
 2693      4D375200 
 2694              	.LASF104:
 2695 023e 43525950 		.ascii	"CRYP_ContextRestore\000"
 2695      5F436F6E 
 2695      74657874 
 2695      52657374 
 2695      6F726500 
 2696              	.LASF127:
 2697 0252 43525950 		.ascii	"CRYP_DataOut\000"
 2697      5F446174 
 2697      614F7574 
 2697      00
 2698              	.LASF102:
 2699 025f 43525950 		.ascii	"CRYP_DMAReq\000"
 2699      5F444D41 
 2699      52657100 
 2700              	.LASF91:
 2701 026b 43525950 		.ascii	"CRYP_K3RR\000"
 2701      5F4B3352 
ARM GAS  /tmp/ccwp7pIS.s 			page 50


 2701      5200
 2702              	.LASF100:
 2703 0275 43525950 		.ascii	"CRYP_ITConfig\000"
 2703      5F495443 
 2703      6F6E6669 
 2703      6700
 2704              	.LASF14:
 2705 0283 75696E74 		.ascii	"uint16_t\000"
 2705      31365F74 
 2705      00
 2706              	.LASF122:
 2707 028c 43525950 		.ascii	"CRYP_DeInit\000"
 2707      5F446549 
 2707      6E697400 
 2708              	.LASF117:
 2709 0298 43525950 		.ascii	"CRYP_KeyStructInit\000"
 2709      5F4B6579 
 2709      53747275 
 2709      6374496E 
 2709      697400
 2710              	.LASF8:
 2711 02ab 5F5F7569 		.ascii	"__uint32_t\000"
 2711      6E743332 
 2711      5F7400
 2712              	.LASF51:
 2713 02b6 43534743 		.ascii	"CSGCM0R\000"
 2713      4D305200 
 2714              	.LASF25:
 2715 02be 4572726F 		.ascii	"ErrorStatus\000"
 2715      72537461 
 2715      74757300 
 2716              	.LASF93:
 2717 02ca 62697473 		.ascii	"bitstatus\000"
 2717      74617475 
 2717      7300
 2718              	.LASF34:
 2719 02d4 4B315252 		.ascii	"K1RR\000"
 2719      00
 2720              	.LASF44:
 2721 02d9 43534743 		.ascii	"CSGCMCCM1R\000"
 2721      4D43434D 
 2721      315200
 2722              	.LASF19:
 2723 02e4 49545374 		.ascii	"ITStatus\000"
 2723      61747573 
 2723      00
 2724              	.LASF75:
 2725 02ed 43525950 		.ascii	"CRYP_IV0Right\000"
 2725      5F495630 
 2725      52696768 
 2725      7400
 2726              	.LASF12:
 2727 02fb 756E7369 		.ascii	"unsigned int\000"
 2727      676E6564 
 2727      20696E74 
 2727      00
 2728              	.LASF29:
ARM GAS  /tmp/ccwp7pIS.s 			page 51


 2729 0308 52495352 		.ascii	"RISR\000"
 2729      00
 2730              	.LASF119:
 2731 030d 43525950 		.ascii	"CRYP_StructInit\000"
 2731      5F537472 
 2731      75637449 
 2731      6E697400 
 2732              	.LASF35:
 2733 031d 4B324C52 		.ascii	"K2LR\000"
 2733      00
 2734              	.LASF39:
 2735 0322 4956304C 		.ascii	"IV0LR\000"
 2735      5200
 2736              	.LASF64:
 2737 0328 43525950 		.ascii	"CRYP_InitTypeDef\000"
 2737      5F496E69 
 2737      74547970 
 2737      65446566 
 2737      00
 2738              	.LASF9:
 2739 0339 6C6F6E67 		.ascii	"long unsigned int\000"
 2739      20756E73 
 2739      69676E65 
 2739      6420696E 
 2739      7400
 2740              	.LASF108:
 2741 034b 74696D65 		.ascii	"timeout\000"
 2741      6F757400 
 2742              	.LASF45:
 2743 0353 43534743 		.ascii	"CSGCMCCM2R\000"
 2743      4D43434D 
 2743      325200
 2744              	.LASF116:
 2745 035e 43525950 		.ascii	"CRYP_IVInit\000"
 2745      5F495649 
 2745      6E697400 
 2746              	.LASF71:
 2747 036a 43525950 		.ascii	"CRYP_Key3Left\000"
 2747      5F4B6579 
 2747      334C6566 
 2747      7400
 2748              	.LASF5:
 2749 0378 73686F72 		.ascii	"short unsigned int\000"
 2749      7420756E 
 2749      7369676E 
 2749      65642069 
 2749      6E7400
 2750              	.LASF33:
 2751 038b 4B314C52 		.ascii	"K1LR\000"
 2751      00
 2752              	.LASF83:
 2753 0390 43525950 		.ascii	"CRYP_IV1RR\000"
 2753      5F495631 
 2753      525200
 2754              	.LASF89:
 2755 039b 43525950 		.ascii	"CRYP_K2RR\000"
 2755      5F4B3252 
ARM GAS  /tmp/ccwp7pIS.s 			page 52


 2755      5200
 2756              	.LASF52:
 2757 03a5 43534743 		.ascii	"CSGCM1R\000"
 2757      4D315200 
 2758              	.LASF125:
 2759 03ad 2F686F6D 		.ascii	"/home/renan/BLDC/bldc-bootloader\000"
 2759      652F7265 
 2759      6E616E2F 
 2759      424C4443 
 2759      2F626C64 
 2760              	.LASF90:
 2761 03ce 43525950 		.ascii	"CRYP_K3LR\000"
 2761      5F4B334C 
 2761      5200
 2762              	.LASF77:
 2763 03d8 43525950 		.ascii	"CRYP_IV1Right\000"
 2763      5F495631 
 2763      52696768 
 2763      7400
 2764              	.LASF114:
 2765 03e6 43525950 		.ascii	"CRYP_IVStructInit\000"
 2765      5F495653 
 2765      74727563 
 2765      74496E69 
 2765      7400
 2766              	.LASF6:
 2767 03f8 5F5F696E 		.ascii	"__int32_t\000"
 2767      7433325F 
 2767      7400
 2768              	.LASF124:
 2769 0402 43686962 		.ascii	"ChibiOS_2.6.6/ext/stdperiph_stm32f4/src/stm32f4xx_c"
 2769      694F535F 
 2769      322E362E 
 2769      362F6578 
 2769      742F7374 
 2770 0435 7279702E 		.ascii	"ryp.c\000"
 2770      6300
 2771              	.LASF92:
 2772 043b 43525950 		.ascii	"CRYP_Context\000"
 2772      5F436F6E 
 2772      74657874 
 2772      00
 2773              	.LASF32:
 2774 0448 4B305252 		.ascii	"K0RR\000"
 2774      00
 2775              	.LASF65:
 2776 044d 43525950 		.ascii	"CRYP_Key0Left\000"
 2776      5F4B6579 
 2776      304C6566 
 2776      7400
 2777              	.LASF103:
 2778 045b 43525950 		.ascii	"CRYP_RestoreContext\000"
 2778      5F526573 
 2778      746F7265 
 2778      436F6E74 
 2778      65787400 
 2779              	.LASF23:
ARM GAS  /tmp/ccwp7pIS.s 			page 53


 2780 046f 4552524F 		.ascii	"ERROR\000"
 2780      5200
 2781              	.LASF118:
 2782 0475 43525950 		.ascii	"CRYP_KeyInit\000"
 2782      5F4B6579 
 2782      496E6974 
 2782      00
 2783              	.LASF61:
 2784 0482 43525950 		.ascii	"CRYP_AlgoMode\000"
 2784      5F416C67 
 2784      6F4D6F64 
 2784      6500
 2785              	.LASF107:
 2786 0490 43525950 		.ascii	"CRYP_KeyInitStruct\000"
 2786      5F4B6579 
 2786      496E6974 
 2786      53747275 
 2786      637400
 2787              	.LASF67:
 2788 04a3 43525950 		.ascii	"CRYP_Key1Left\000"
 2788      5F4B6579 
 2788      314C6566 
 2788      7400
 2789              	.LASF63:
 2790 04b1 43525950 		.ascii	"CRYP_KeySize\000"
 2790      5F4B6579 
 2790      53697A65 
 2790      00
 2791              	.LASF105:
 2792 04be 43525950 		.ascii	"CRYP_SaveContext\000"
 2792      5F536176 
 2792      65436F6E 
 2792      74657874 
 2792      00
 2793              	.LASF53:
 2794 04cf 43534743 		.ascii	"CSGCM2R\000"
 2794      4D325200 
 2795              	.LASF22:
 2796 04d7 46756E63 		.ascii	"FunctionalState\000"
 2796      74696F6E 
 2796      616C5374 
 2796      61746500 
 2797              	.LASF46:
 2798 04e7 43534743 		.ascii	"CSGCMCCM3R\000"
 2798      4D43434D 
 2798      335200
 2799              	.LASF120:
 2800 04f2 43525950 		.ascii	"CRYP_InitStruct\000"
 2800      5F496E69 
 2800      74537472 
 2800      75637400 
 2801              	.LASF81:
 2802 0502 43525950 		.ascii	"CRYP_IV0RR\000"
 2802      5F495630 
 2802      525200
 2803              	.LASF87:
 2804 050d 43525950 		.ascii	"CRYP_K1RR\000"
ARM GAS  /tmp/ccwp7pIS.s 			page 54


 2804      5F4B3152 
 2804      5200
 2805              	.LASF82:
 2806 0517 43525950 		.ascii	"CRYP_IV1LR\000"
 2806      5F495631 
 2806      4C5200
 2807              	.LASF88:
 2808 0522 43525950 		.ascii	"CRYP_K2LR\000"
 2808      5F4B324C 
 2808      5200
 2809              	.LASF17:
 2810 052c 52455345 		.ascii	"RESET\000"
 2810      5400
 2811              	.LASF30:
 2812 0532 4D495352 		.ascii	"MISR\000"
 2812      00
 2813              	.LASF62:
 2814 0537 43525950 		.ascii	"CRYP_DataType\000"
 2814      5F446174 
 2814      61547970 
 2814      6500
 2815              	.LASF15:
 2816 0545 696E7433 		.ascii	"int32_t\000"
 2816      325F7400 
 2817              	.LASF1:
 2818 054d 756E7369 		.ascii	"unsigned char\000"
 2818      676E6564 
 2818      20636861 
 2818      7200
 2819              	.LASF2:
 2820 055b 73686F72 		.ascii	"short int\000"
 2820      7420696E 
 2820      7400
 2821              	.LASF54:
 2822 0565 43534743 		.ascii	"CSGCM3R\000"
 2822      4D335200 
 2823              	.LASF94:
 2824 056d 74656D70 		.ascii	"tempreg\000"
 2824      72656700 
 2825              	.LASF31:
 2826 0575 4B304C52 		.ascii	"K0LR\000"
 2826      00
 2827              	.LASF47:
 2828 057a 43534743 		.ascii	"CSGCMCCM4R\000"
 2828      4D43434D 
 2828      345200
 2829              	.LASF129:
 2830 0585 5243435F 		.ascii	"RCC_AHB2PeriphResetCmd\000"
 2830      41484232 
 2830      50657269 
 2830      70685265 
 2830      73657443 
 2831              	.LASF115:
 2832 059c 43525950 		.ascii	"CRYP_IVInitStruct\000"
 2832      5F495649 
 2832      6E697453 
 2832      74727563 
ARM GAS  /tmp/ccwp7pIS.s 			page 55


 2832      7400
 2833              	.LASF37:
 2834 05ae 4B334C52 		.ascii	"K3LR\000"
 2834      00
 2835              	.LASF69:
 2836 05b3 43525950 		.ascii	"CRYP_Key2Left\000"
 2836      5F4B6579 
 2836      324C6566 
 2836      7400
 2837              	.LASF66:
 2838 05c1 43525950 		.ascii	"CRYP_Key0Right\000"
 2838      5F4B6579 
 2838      30526967 
 2838      687400
 2839              	.LASF85:
 2840 05d0 43525950 		.ascii	"CRYP_K0RR\000"
 2840      5F4B3052 
 2840      5200
 2841              	.LASF4:
 2842 05da 5F5F7569 		.ascii	"__uint16_t\000"
 2842      6E743136 
 2842      5F7400
 2843              	.LASF111:
 2844 05e5 43525950 		.ascii	"CRYP_DataIn\000"
 2844      5F446174 
 2844      61496E00 
 2845              	.LASF76:
 2846 05f1 43525950 		.ascii	"CRYP_IV1Left\000"
 2846      5F495631 
 2846      4C656674 
 2846      00
 2847              	.LASF80:
 2848 05fe 43525950 		.ascii	"CRYP_IV0LR\000"
 2848      5F495630 
 2848      4C5200
 2849              	.LASF86:
 2850 0609 43525950 		.ascii	"CRYP_K1LR\000"
 2850      5F4B314C 
 2850      5200
 2851              	.LASF55:
 2852 0613 43534743 		.ascii	"CSGCM4R\000"
 2852      4D345200 
 2853              	.LASF28:
 2854 061b 494D5343 		.ascii	"IMSCR\000"
 2854      5200
 2855              	.LASF73:
 2856 0621 43525950 		.ascii	"CRYP_KeyInitTypeDef\000"
 2856      5F4B6579 
 2856      496E6974 
 2856      54797065 
 2856      44656600 
 2857              	.LASF48:
 2858 0635 43534743 		.ascii	"CSGCMCCM5R\000"
 2858      4D43434D 
 2858      355200
 2859              	.LASF109:
 2860 0640 636B6563 		.ascii	"ckeckmask\000"
ARM GAS  /tmp/ccwp7pIS.s 			page 56


 2860      6B6D6173 
 2860      6B00
 2861              	.LASF16:
 2862 064a 75696E74 		.ascii	"uint32_t\000"
 2862      33325F74 
 2862      00
 2863              	.LASF121:
 2864 0653 43525950 		.ascii	"CRYP_Init\000"
 2864      5F496E69 
 2864      7400
 2865              	.LASF110:
 2866 065d 73746174 		.ascii	"status\000"
 2866      757300
 2867              	.LASF68:
 2868 0664 43525950 		.ascii	"CRYP_Key1Right\000"
 2868      5F4B6579 
 2868      31526967 
 2868      687400
 2869              	.LASF13:
 2870 0673 75696E74 		.ascii	"uint8_t\000"
 2870      385F7400 
 2871              	.LASF112:
 2872 067b 44617461 		.ascii	"Data\000"
 2872      00
 2873              	.LASF24:
 2874 0680 53554343 		.ascii	"SUCCESS\000"
 2874      45535300 
 2875              	.LASF96:
 2876 0688 43525950 		.ascii	"CRYP_GetITStatus\000"
 2876      5F476574 
 2876      49545374 
 2876      61747573 
 2876      00
 2877              	.LASF60:
 2878 0699 43525950 		.ascii	"CRYP_AlgoDir\000"
 2878      5F416C67 
 2878      6F446972 
 2878      00
 2879              	.LASF95:
 2880 06a6 43525950 		.ascii	"CRYP_GetFlagStatus\000"
 2880      5F476574 
 2880      466C6167 
 2880      53746174 
 2880      757300
 2881              	.LASF27:
 2882 06b9 444D4143 		.ascii	"DMACR\000"
 2882      5200
 2883              	.LASF128:
 2884 06bf 43525950 		.ascii	"CRYP_FIFOFlush\000"
 2884      5F464946 
 2884      4F466C75 
 2884      736800
 2885              	.LASF56:
 2886 06ce 43534743 		.ascii	"CSGCM5R\000"
 2886      4D355200 
 2887              	.LASF38:
 2888 06d6 4B335252 		.ascii	"K3RR\000"
ARM GAS  /tmp/ccwp7pIS.s 			page 57


 2888      00
 2889              	.LASF42:
 2890 06db 49563152 		.ascii	"IV1RR\000"
 2890      5200
 2891              	.LASF101:
 2892 06e1 43525950 		.ascii	"CRYP_DMACmd\000"
 2892      5F444D41 
 2892      436D6400 
 2893              	.LASF49:
 2894 06ed 43534743 		.ascii	"CSGCMCCM6R\000"
 2894      4D43434D 
 2894      365200
 2895              	.LASF84:
 2896 06f8 43525950 		.ascii	"CRYP_K0LR\000"
 2896      5F4B304C 
 2896      5200
 2897              	.LASF72:
 2898 0702 43525950 		.ascii	"CRYP_Key3Right\000"
 2898      5F4B6579 
 2898      33526967 
 2898      687400
 2899              	.LASF97:
 2900 0711 43525950 		.ascii	"CRYP_FLAG\000"
 2900      5F464C41 
 2900      4700
 2901              		.ident	"GCC: (GNU Tools for Arm Embedded Processors 7-2018-q3-update) 7.3.1 20180622 (release) [AR
ARM GAS  /tmp/ccwp7pIS.s 			page 58


DEFINED SYMBOLS
                            *ABS*:0000000000000000 stm32f4xx_cryp.c
     /tmp/ccwp7pIS.s:18     .text.CRYP_DeInit:0000000000000000 $t
     /tmp/ccwp7pIS.s:26     .text.CRYP_DeInit:0000000000000000 CRYP_DeInit
     /tmp/ccwp7pIS.s:57     .text.CRYP_Init:0000000000000000 $t
     /tmp/ccwp7pIS.s:65     .text.CRYP_Init:0000000000000000 CRYP_Init
     /tmp/ccwp7pIS.s:142    .text.CRYP_Init:0000000000000058 $d
     /tmp/ccwp7pIS.s:147    .text.CRYP_StructInit:0000000000000000 $t
     /tmp/ccwp7pIS.s:155    .text.CRYP_StructInit:0000000000000000 CRYP_StructInit
     /tmp/ccwp7pIS.s:178    .text.CRYP_KeyInit:0000000000000000 $t
     /tmp/ccwp7pIS.s:186    .text.CRYP_KeyInit:0000000000000000 CRYP_KeyInit
     /tmp/ccwp7pIS.s:224    .text.CRYP_KeyInit:0000000000000024 $d
     /tmp/ccwp7pIS.s:229    .text.CRYP_KeyStructInit:0000000000000000 $t
     /tmp/ccwp7pIS.s:237    .text.CRYP_KeyStructInit:0000000000000000 CRYP_KeyStructInit
     /tmp/ccwp7pIS.s:261    .text.CRYP_IVInit:0000000000000000 $t
     /tmp/ccwp7pIS.s:269    .text.CRYP_IVInit:0000000000000000 CRYP_IVInit
     /tmp/ccwp7pIS.s:295    .text.CRYP_IVInit:0000000000000014 $d
     /tmp/ccwp7pIS.s:300    .text.CRYP_IVStructInit:0000000000000000 $t
     /tmp/ccwp7pIS.s:308    .text.CRYP_IVStructInit:0000000000000000 CRYP_IVStructInit
     /tmp/ccwp7pIS.s:328    .text.CRYP_FIFOFlush:0000000000000000 $t
     /tmp/ccwp7pIS.s:336    .text.CRYP_FIFOFlush:0000000000000000 CRYP_FIFOFlush
     /tmp/ccwp7pIS.s:353    .text.CRYP_FIFOFlush:000000000000000c $d
     /tmp/ccwp7pIS.s:358    .text.CRYP_Cmd:0000000000000000 $t
     /tmp/ccwp7pIS.s:366    .text.CRYP_Cmd:0000000000000000 CRYP_Cmd
     /tmp/ccwp7pIS.s:392    .text.CRYP_Cmd:0000000000000018 $d
     /tmp/ccwp7pIS.s:397    .text.CRYP_DataIn:0000000000000000 $t
     /tmp/ccwp7pIS.s:405    .text.CRYP_DataIn:0000000000000000 CRYP_DataIn
     /tmp/ccwp7pIS.s:421    .text.CRYP_DataIn:0000000000000008 $d
     /tmp/ccwp7pIS.s:426    .text.CRYP_DataOut:0000000000000000 $t
     /tmp/ccwp7pIS.s:434    .text.CRYP_DataOut:0000000000000000 CRYP_DataOut
     /tmp/ccwp7pIS.s:449    .text.CRYP_DataOut:0000000000000008 $d
     /tmp/ccwp7pIS.s:454    .text.CRYP_SaveContext:0000000000000000 $t
     /tmp/ccwp7pIS.s:462    .text.CRYP_SaveContext:0000000000000000 CRYP_SaveContext
     /tmp/ccwp7pIS.s:620    .text.CRYP_SaveContext:00000000000000a0 $d
     /tmp/ccwp7pIS.s:626    .text.CRYP_RestoreContext:0000000000000000 $t
     /tmp/ccwp7pIS.s:634    .text.CRYP_RestoreContext:0000000000000000 CRYP_RestoreContext
     /tmp/ccwp7pIS.s:691    .text.CRYP_RestoreContext:0000000000000040 $d
     /tmp/ccwp7pIS.s:696    .text.CRYP_DMACmd:0000000000000000 $t
     /tmp/ccwp7pIS.s:704    .text.CRYP_DMACmd:0000000000000000 CRYP_DMACmd
     /tmp/ccwp7pIS.s:735    .text.CRYP_DMACmd:000000000000001c $d
     /tmp/ccwp7pIS.s:740    .text.CRYP_ITConfig:0000000000000000 $t
     /tmp/ccwp7pIS.s:748    .text.CRYP_ITConfig:0000000000000000 CRYP_ITConfig
     /tmp/ccwp7pIS.s:779    .text.CRYP_ITConfig:000000000000001c $d
     /tmp/ccwp7pIS.s:784    .text.CRYP_GetITStatus:0000000000000000 $t
     /tmp/ccwp7pIS.s:792    .text.CRYP_GetITStatus:0000000000000000 CRYP_GetITStatus
     /tmp/ccwp7pIS.s:814    .text.CRYP_GetITStatus:0000000000000010 $d
     /tmp/ccwp7pIS.s:819    .text.CRYP_GetFlagStatus:0000000000000000 $t
     /tmp/ccwp7pIS.s:827    .text.CRYP_GetFlagStatus:0000000000000000 CRYP_GetFlagStatus
     /tmp/ccwp7pIS.s:857    .text.CRYP_GetFlagStatus:0000000000000014 $d

UNDEFINED SYMBOLS
RCC_AHB2PeriphResetCmd
