ARM GAS  /tmp/ccUKleW2.s 			page 1


   1              		.cpu cortex-m4
   2              		.eabi_attribute 27, 1
   3              		.eabi_attribute 28, 1
   4              		.eabi_attribute 20, 1
   5              		.eabi_attribute 21, 1
   6              		.eabi_attribute 23, 3
   7              		.eabi_attribute 24, 1
   8              		.eabi_attribute 25, 1
   9              		.eabi_attribute 26, 1
  10              		.eabi_attribute 30, 2
  11              		.eabi_attribute 34, 1
  12              		.eabi_attribute 18, 4
  13              		.file	"stm32f4xx_syscfg.c"
  14              		.text
  15              	.Ltext0:
  16              		.cfi_sections	.debug_frame
  17              		.section	.text.SYSCFG_DeInit,"ax",%progbits
  18              		.align	1
  19              		.p2align 4,,15
  20              		.global	SYSCFG_DeInit
  21              		.syntax unified
  22              		.thumb
  23              		.thumb_func
  24              		.fpu fpv4-sp-d16
  25              		.type	SYSCFG_DeInit, %function
  26              	SYSCFG_DeInit:
  27              	.LFB111:
  28              		.file 1 "ChibiOS_2.6.6/ext/stdperiph_stm32f4/src/stm32f4xx_syscfg.c"
  29              		.loc 1 93 0
  30              		.cfi_startproc
  31              		@ args = 0, pretend = 0, frame = 0
  32              		@ frame_needed = 0, uses_anonymous_args = 0
  33 0000 08B5     		push	{r3, lr}
  34              		.cfi_def_cfa_offset 8
  35              		.cfi_offset 3, -8
  36              		.cfi_offset 14, -4
  37              		.loc 1 94 0
  38 0002 0121     		movs	r1, #1
  39 0004 4FF48040 		mov	r0, #16384
  40 0008 FFF7FEFF 		bl	RCC_APB2PeriphResetCmd
  41              	.LVL0:
  42              		.loc 1 95 0
  43 000c 0021     		movs	r1, #0
  44 000e 4FF48040 		mov	r0, #16384
  45              		.loc 1 96 0
  46 0012 BDE80840 		pop	{r3, lr}
  47              		.cfi_restore 14
  48              		.cfi_restore 3
  49              		.cfi_def_cfa_offset 0
  50              		.loc 1 95 0
  51 0016 FFF7FEBF 		b	RCC_APB2PeriphResetCmd
  52              	.LVL1:
  53              		.cfi_endproc
  54              	.LFE111:
  55              		.size	SYSCFG_DeInit, .-SYSCFG_DeInit
  56 001a 00BF     		.section	.text.SYSCFG_MemoryRemapConfig,"ax",%progbits
  57              		.align	1
ARM GAS  /tmp/ccUKleW2.s 			page 2


  58              		.p2align 4,,15
  59              		.global	SYSCFG_MemoryRemapConfig
  60              		.syntax unified
  61              		.thumb
  62              		.thumb_func
  63              		.fpu fpv4-sp-d16
  64              		.type	SYSCFG_MemoryRemapConfig, %function
  65              	SYSCFG_MemoryRemapConfig:
  66              	.LFB112:
  67              		.loc 1 109 0
  68              		.cfi_startproc
  69              		@ args = 0, pretend = 0, frame = 0
  70              		@ frame_needed = 0, uses_anonymous_args = 0
  71              		@ link register save eliminated.
  72              	.LVL2:
  73              		.loc 1 113 0
  74 0000 014B     		ldr	r3, .L5
  75 0002 1860     		str	r0, [r3]
  76              		.loc 1 114 0
  77 0004 7047     		bx	lr
  78              	.L6:
  79 0006 00BF     		.align	2
  80              	.L5:
  81 0008 00380140 		.word	1073821696
  82              		.cfi_endproc
  83              	.LFE112:
  84              		.size	SYSCFG_MemoryRemapConfig, .-SYSCFG_MemoryRemapConfig
  85              		.section	.text.SYSCFG_EXTILineConfig,"ax",%progbits
  86              		.align	1
  87              		.p2align 4,,15
  88              		.global	SYSCFG_EXTILineConfig
  89              		.syntax unified
  90              		.thumb
  91              		.thumb_func
  92              		.fpu fpv4-sp-d16
  93              		.type	SYSCFG_EXTILineConfig, %function
  94              	SYSCFG_EXTILineConfig:
  95              	.LFB113:
  96              		.loc 1 126 0
  97              		.cfi_startproc
  98              		@ args = 0, pretend = 0, frame = 0
  99              		@ frame_needed = 0, uses_anonymous_args = 0
 100              		@ link register save eliminated.
 101              	.LVL3:
 102 0000 01F0FC03 		and	r3, r1, #252
 103 0004 03F18043 		add	r3, r3, #1073741824
 104 0008 03F59C33 		add	r3, r3, #79872
 105              		.loc 1 133 0
 106 000c 01F00301 		and	r1, r1, #3
 107              	.LVL4:
 108              		.loc 1 126 0
 109 0010 10B4     		push	{r4}
 110              		.cfi_def_cfa_offset 4
 111              		.cfi_offset 4, -4
 112              		.loc 1 134 0
 113 0012 9A68     		ldr	r2, [r3, #8]
 114              		.loc 1 133 0
ARM GAS  /tmp/ccUKleW2.s 			page 3


 115 0014 8900     		lsls	r1, r1, #2
 116              	.LVL5:
 117 0016 0F24     		movs	r4, #15
 118 0018 8C40     		lsls	r4, r4, r1
 119              	.LVL6:
 120              		.loc 1 134 0
 121 001a 22EA0402 		bic	r2, r2, r4
 122 001e 9A60     		str	r2, [r3, #8]
 123              		.loc 1 135 0
 124 0020 9A68     		ldr	r2, [r3, #8]
 125              		.loc 1 136 0
 126 0022 5DF8044B 		ldr	r4, [sp], #4
 127              		.cfi_restore 4
 128              		.cfi_def_cfa_offset 0
 129              	.LVL7:
 130              		.loc 1 135 0
 131 0026 00FA01F1 		lsl	r1, r0, r1
 132              	.LVL8:
 133 002a 1143     		orrs	r1, r1, r2
 134 002c 9960     		str	r1, [r3, #8]
 135              		.loc 1 136 0
 136 002e 7047     		bx	lr
 137              		.cfi_endproc
 138              	.LFE113:
 139              		.size	SYSCFG_EXTILineConfig, .-SYSCFG_EXTILineConfig
 140              		.section	.text.SYSCFG_ETH_MediaInterfaceConfig,"ax",%progbits
 141              		.align	1
 142              		.p2align 4,,15
 143              		.global	SYSCFG_ETH_MediaInterfaceConfig
 144              		.syntax unified
 145              		.thumb
 146              		.thumb_func
 147              		.fpu fpv4-sp-d16
 148              		.type	SYSCFG_ETH_MediaInterfaceConfig, %function
 149              	SYSCFG_ETH_MediaInterfaceConfig:
 150              	.LFB114:
 151              		.loc 1 147 0
 152              		.cfi_startproc
 153              		@ args = 0, pretend = 0, frame = 0
 154              		@ frame_needed = 0, uses_anonymous_args = 0
 155              		@ link register save eliminated.
 156              	.LVL9:
 157              		.loc 1 150 0
 158 0000 014B     		ldr	r3, .L10
 159 0002 1860     		str	r0, [r3]
 160              		.loc 1 151 0
 161 0004 7047     		bx	lr
 162              	.L11:
 163 0006 00BF     		.align	2
 164              	.L10:
 165 0008 DC002742 		.word	1109852380
 166              		.cfi_endproc
 167              	.LFE114:
 168              		.size	SYSCFG_ETH_MediaInterfaceConfig, .-SYSCFG_ETH_MediaInterfaceConfig
 169              		.section	.text.SYSCFG_CompensationCellCmd,"ax",%progbits
 170              		.align	1
 171              		.p2align 4,,15
ARM GAS  /tmp/ccUKleW2.s 			page 4


 172              		.global	SYSCFG_CompensationCellCmd
 173              		.syntax unified
 174              		.thumb
 175              		.thumb_func
 176              		.fpu fpv4-sp-d16
 177              		.type	SYSCFG_CompensationCellCmd, %function
 178              	SYSCFG_CompensationCellCmd:
 179              	.LFB115:
 180              		.loc 1 164 0
 181              		.cfi_startproc
 182              		@ args = 0, pretend = 0, frame = 0
 183              		@ frame_needed = 0, uses_anonymous_args = 0
 184              		@ link register save eliminated.
 185              	.LVL10:
 186              		.loc 1 168 0
 187 0000 014B     		ldr	r3, .L13
 188 0002 1860     		str	r0, [r3]
 189              		.loc 1 169 0
 190 0004 7047     		bx	lr
 191              	.L14:
 192 0006 00BF     		.align	2
 193              	.L13:
 194 0008 00042742 		.word	1109853184
 195              		.cfi_endproc
 196              	.LFE115:
 197              		.size	SYSCFG_CompensationCellCmd, .-SYSCFG_CompensationCellCmd
 198              		.section	.text.SYSCFG_GetCompensationCellStatus,"ax",%progbits
 199              		.align	1
 200              		.p2align 4,,15
 201              		.global	SYSCFG_GetCompensationCellStatus
 202              		.syntax unified
 203              		.thumb
 204              		.thumb_func
 205              		.fpu fpv4-sp-d16
 206              		.type	SYSCFG_GetCompensationCellStatus, %function
 207              	SYSCFG_GetCompensationCellStatus:
 208              	.LFB116:
 209              		.loc 1 177 0
 210              		.cfi_startproc
 211              		@ args = 0, pretend = 0, frame = 0
 212              		@ frame_needed = 0, uses_anonymous_args = 0
 213              		@ link register save eliminated.
 214              	.LVL11:
 215              		.loc 1 180 0
 216 0000 024B     		ldr	r3, .L16
 217 0002 186A     		ldr	r0, [r3, #32]
 218              	.LVL12:
 219              		.loc 1 189 0
 220 0004 C0F30020 		ubfx	r0, r0, #8, #1
 221              	.LVL13:
 222 0008 7047     		bx	lr
 223              	.L17:
 224 000a 00BF     		.align	2
 225              	.L16:
 226 000c 00380140 		.word	1073821696
 227              		.cfi_endproc
 228              	.LFE116:
ARM GAS  /tmp/ccUKleW2.s 			page 5


 229              		.size	SYSCFG_GetCompensationCellStatus, .-SYSCFG_GetCompensationCellStatus
 230              		.text
 231              	.Letext0:
 232              		.file 2 "/usr/arm-none-eabi/include/machine/_default_types.h"
 233              		.file 3 "/usr/arm-none-eabi/include/sys/_stdint.h"
 234              		.file 4 "ChibiOS_2.6.6/os/hal/platforms/STM32F4xx/stm32f4xx.h"
 235              		.file 5 "ChibiOS_2.6.6/os/ports/common/ARMCMx/CMSIS/include/core_cm4.h"
 236              		.file 6 "ChibiOS_2.6.6/ext/stdperiph_stm32f4/inc/stm32f4xx_rcc.h"