ARM GAS  /tmp/ccstrCE5.s 			page 1


   1              		.cpu cortex-m4
   2              		.eabi_attribute 27, 1
   3              		.eabi_attribute 28, 1
   4              		.eabi_attribute 20, 1
   5              		.eabi_attribute 21, 1
   6              		.eabi_attribute 23, 3
   7              		.eabi_attribute 24, 1
   8              		.eabi_attribute 25, 1
   9              		.eabi_attribute 26, 1
  10              		.eabi_attribute 30, 2
  11              		.eabi_attribute 34, 1
  12              		.eabi_attribute 18, 4
  13              		.file	"stm32f4xx_exti.c"
  14              		.text
  15              	.Ltext0:
  16              		.cfi_sections	.debug_frame
  17              		.section	.text.EXTI_DeInit,"ax",%progbits
  18              		.align	1
  19              		.p2align 4,,15
  20              		.global	EXTI_DeInit
  21              		.syntax unified
  22              		.thumb
  23              		.thumb_func
  24              		.fpu fpv4-sp-d16
  25              		.type	EXTI_DeInit, %function
  26              	EXTI_DeInit:
  27              	.LFB111:
  28              		.file 1 "ChibiOS_2.6.6/ext/stdperiph_stm32f4/src/stm32f4xx_exti.c"
  29              		.loc 1 110 0
  30              		.cfi_startproc
  31              		@ args = 0, pretend = 0, frame = 0
  32              		@ frame_needed = 0, uses_anonymous_args = 0
  33              		@ link register save eliminated.
  34              		.loc 1 111 0
  35 0000 044B     		ldr	r3, .L3
  36              		.loc 1 115 0
  37 0002 0549     		ldr	r1, .L3+4
  38              		.loc 1 111 0
  39 0004 0022     		movs	r2, #0
  40 0006 1A60     		str	r2, [r3]
  41              		.loc 1 112 0
  42 0008 5A60     		str	r2, [r3, #4]
  43              		.loc 1 113 0
  44 000a 9A60     		str	r2, [r3, #8]
  45              		.loc 1 114 0
  46 000c DA60     		str	r2, [r3, #12]
  47              		.loc 1 115 0
  48 000e 5961     		str	r1, [r3, #20]
  49              		.loc 1 116 0
  50 0010 7047     		bx	lr
  51              	.L4:
  52 0012 00BF     		.align	2
  53              	.L3:
  54 0014 003C0140 		.word	1073822720
  55 0018 FFFF7F00 		.word	8388607
  56              		.cfi_endproc
  57              	.LFE111:
ARM GAS  /tmp/ccstrCE5.s 			page 2


  58              		.size	EXTI_DeInit, .-EXTI_DeInit
  59              		.section	.text.EXTI_Init,"ax",%progbits
  60              		.align	1
  61              		.p2align 4,,15
  62              		.global	EXTI_Init
  63              		.syntax unified
  64              		.thumb
  65              		.thumb_func
  66              		.fpu fpv4-sp-d16
  67              		.type	EXTI_Init, %function
  68              	EXTI_Init:
  69              	.LFB112:
  70              		.loc 1 126 0
  71              		.cfi_startproc
  72              		@ args = 0, pretend = 0, frame = 0
  73              		@ frame_needed = 0, uses_anonymous_args = 0
  74              		@ link register save eliminated.
  75              	.LVL0:
  76 0000 0379     		ldrb	r3, [r0, #4]	@ zero_extendqisi2
  77              		.loc 1 137 0
  78 0002 8279     		ldrb	r2, [r0, #6]	@ zero_extendqisi2
  79              		.loc 1 126 0
  80 0004 70B4     		push	{r4, r5, r6}
  81              		.cfi_def_cfa_offset 12
  82              		.cfi_offset 4, -12
  83              		.cfi_offset 5, -8
  84              		.cfi_offset 6, -4
  85 0006 0568     		ldr	r5, [r0]
  86 0008 03F18043 		add	r3, r3, #1073741824
  87 000c 03F59E33 		add	r3, r3, #80896
  88 0010 EC43     		mvns	r4, r5
  89              		.loc 1 137 0
  90 0012 F2B1     		cbz	r2, .L6
  91              		.loc 1 140 0
  92 0014 154A     		ldr	r2, .L11
  93              		.loc 1 152 0
  94 0016 4179     		ldrb	r1, [r0, #5]	@ zero_extendqisi2
  95              		.loc 1 140 0
  96 0018 1668     		ldr	r6, [r2]
  97 001a 2640     		ands	r6, r6, r4
  98 001c 1660     		str	r6, [r2]
  99              		.loc 1 141 0
 100 001e 5668     		ldr	r6, [r2, #4]
 101 0020 3440     		ands	r4, r4, r6
 102 0022 5460     		str	r4, [r2, #4]
 103              	.LVL1:
 104              		.loc 1 145 0
 105 0024 1C68     		ldr	r4, [r3]
 106 0026 2543     		orrs	r5, r5, r4
 107 0028 1D60     		str	r5, [r3]
 108              		.loc 1 148 0
 109 002a 0068     		ldr	r0, [r0]
 110              	.LVL2:
 111 002c 9468     		ldr	r4, [r2, #8]
 112 002e C343     		mvns	r3, r0
 113 0030 1C40     		ands	r4, r4, r3
 114 0032 9460     		str	r4, [r2, #8]
ARM GAS  /tmp/ccstrCE5.s 			page 3


 115              		.loc 1 149 0
 116 0034 D468     		ldr	r4, [r2, #12]
 117              		.loc 1 152 0
 118 0036 1029     		cmp	r1, #16
 119              		.loc 1 149 0
 120 0038 03EA0403 		and	r3, r3, r4
 121 003c D360     		str	r3, [r2, #12]
 122              		.loc 1 152 0
 123 003e 0DD0     		beq	.L10
 124              	.LVL3:
 125              		.loc 1 161 0
 126 0040 01F18043 		add	r3, r1, #1073741824
 127 0044 03F59E33 		add	r3, r3, #80896
 128              		.loc 1 173 0
 129 0048 70BC     		pop	{r4, r5, r6}
 130              		.cfi_remember_state
 131              		.cfi_restore 6
 132              		.cfi_restore 5
 133              		.cfi_restore 4
 134              		.cfi_def_cfa_offset 0
 135              		.loc 1 163 0
 136 004a 1A68     		ldr	r2, [r3]
 137 004c 1043     		orrs	r0, r0, r2
 138 004e 1860     		str	r0, [r3]
 139              		.loc 1 173 0
 140 0050 7047     		bx	lr
 141              	.LVL4:
 142              	.L6:
 143              		.cfi_restore_state
 144              		.loc 1 171 0
 145 0052 1A68     		ldr	r2, [r3]
 146 0054 1440     		ands	r4, r4, r2
 147 0056 1C60     		str	r4, [r3]
 148              		.loc 1 173 0
 149 0058 70BC     		pop	{r4, r5, r6}
 150              		.cfi_remember_state
 151              		.cfi_restore 6
 152              		.cfi_restore 5
 153              		.cfi_restore 4
 154              		.cfi_def_cfa_offset 0
 155 005a 7047     		bx	lr
 156              	.LVL5:
 157              	.L10:
 158              		.cfi_restore_state
 159              		.loc 1 155 0
 160 005c 9368     		ldr	r3, [r2, #8]
 161 005e 0343     		orrs	r3, r3, r0
 162 0060 9360     		str	r3, [r2, #8]
 163              		.loc 1 156 0
 164 0062 D368     		ldr	r3, [r2, #12]
 165 0064 1843     		orrs	r0, r0, r3
 166 0066 D060     		str	r0, [r2, #12]
 167              		.loc 1 173 0
 168 0068 70BC     		pop	{r4, r5, r6}
 169              		.cfi_restore 6
 170              		.cfi_restore 5
 171              		.cfi_restore 4
ARM GAS  /tmp/ccstrCE5.s 			page 4


 172              		.cfi_def_cfa_offset 0
 173 006a 7047     		bx	lr
 174              	.L12:
 175              		.align	2
 176              	.L11:
 177 006c 003C0140 		.word	1073822720
 178              		.cfi_endproc
 179              	.LFE112:
 180              		.size	EXTI_Init, .-EXTI_Init
 181              		.section	.text.EXTI_StructInit,"ax",%progbits
 182              		.align	1
 183              		.p2align 4,,15
 184              		.global	EXTI_StructInit
 185              		.syntax unified
 186              		.thumb
 187              		.thumb_func
 188              		.fpu fpv4-sp-d16
 189              		.type	EXTI_StructInit, %function
 190              	EXTI_StructInit:
 191              	.LFB113:
 192              		.loc 1 182 0
 193              		.cfi_startproc
 194              		@ args = 0, pretend = 0, frame = 0
 195              		@ frame_needed = 0, uses_anonymous_args = 0
 196              		@ link register save eliminated.
 197              	.LVL6:
 198              		.loc 1 183 0
 199 0000 0023     		movs	r3, #0
 200              		.loc 1 185 0
 201 0002 0C22     		movs	r2, #12
 202 0004 4271     		strb	r2, [r0, #5]
 203              		.loc 1 183 0
 204 0006 0360     		str	r3, [r0]
 205              		.loc 1 184 0
 206 0008 0371     		strb	r3, [r0, #4]
 207              		.loc 1 186 0
 208 000a 8371     		strb	r3, [r0, #6]
 209              		.loc 1 187 0
 210 000c 7047     		bx	lr
 211              		.cfi_endproc
 212              	.LFE113:
 213              		.size	EXTI_StructInit, .-EXTI_StructInit
 214 000e 00BF     		.section	.text.EXTI_GenerateSWInterrupt,"ax",%progbits
 215              		.align	1
 216              		.p2align 4,,15
 217              		.global	EXTI_GenerateSWInterrupt
 218              		.syntax unified
 219              		.thumb
 220              		.thumb_func
 221              		.fpu fpv4-sp-d16
 222              		.type	EXTI_GenerateSWInterrupt, %function
 223              	EXTI_GenerateSWInterrupt:
 224              	.LFB114:
 225              		.loc 1 197 0
 226              		.cfi_startproc
 227              		@ args = 0, pretend = 0, frame = 0
 228              		@ frame_needed = 0, uses_anonymous_args = 0
ARM GAS  /tmp/ccstrCE5.s 			page 5


 229              		@ link register save eliminated.
 230              	.LVL7:
 231              		.loc 1 201 0
 232 0000 024A     		ldr	r2, .L15
 233 0002 1369     		ldr	r3, [r2, #16]
 234 0004 1843     		orrs	r0, r0, r3
 235              	.LVL8:
 236 0006 1061     		str	r0, [r2, #16]
 237              		.loc 1 202 0
 238 0008 7047     		bx	lr
 239              	.L16:
 240 000a 00BF     		.align	2
 241              	.L15:
 242 000c 003C0140 		.word	1073822720
 243              		.cfi_endproc
 244              	.LFE114:
 245              		.size	EXTI_GenerateSWInterrupt, .-EXTI_GenerateSWInterrupt
 246              		.section	.text.EXTI_GetFlagStatus,"ax",%progbits
 247              		.align	1
 248              		.p2align 4,,15
 249              		.global	EXTI_GetFlagStatus
 250              		.syntax unified
 251              		.thumb
 252              		.thumb_func
 253              		.fpu fpv4-sp-d16
 254              		.type	EXTI_GetFlagStatus, %function
 255              	EXTI_GetFlagStatus:
 256              	.LFB115:
 257              		.loc 1 227 0
 258              		.cfi_startproc
 259              		@ args = 0, pretend = 0, frame = 0
 260              		@ frame_needed = 0, uses_anonymous_args = 0
 261              		@ link register save eliminated.
 262              	.LVL9:
 263              		.loc 1 232 0
 264 0000 034B     		ldr	r3, .L18
 265 0002 5B69     		ldr	r3, [r3, #20]
 266              	.LVL10:
 267 0004 0342     		tst	r3, r0
 268              		.loc 1 241 0
 269 0006 14BF     		ite	ne
 270 0008 0120     		movne	r0, #1
 271              	.LVL11:
 272 000a 0020     		moveq	r0, #0
 273 000c 7047     		bx	lr
 274              	.L19:
 275 000e 00BF     		.align	2
 276              	.L18:
 277 0010 003C0140 		.word	1073822720
 278              		.cfi_endproc
 279              	.LFE115:
 280              		.size	EXTI_GetFlagStatus, .-EXTI_GetFlagStatus
 281              		.section	.text.EXTI_ClearFlag,"ax",%progbits
 282              		.align	1
 283              		.p2align 4,,15
 284              		.global	EXTI_ClearFlag
 285              		.syntax unified
ARM GAS  /tmp/ccstrCE5.s 			page 6


 286              		.thumb
 287              		.thumb_func
 288              		.fpu fpv4-sp-d16
 289              		.type	EXTI_ClearFlag, %function
 290              	EXTI_ClearFlag:
 291              	.LFB116:
 292              		.loc 1 250 0
 293              		.cfi_startproc
 294              		@ args = 0, pretend = 0, frame = 0
 295              		@ frame_needed = 0, uses_anonymous_args = 0
 296              		@ link register save eliminated.
 297              	.LVL12:
 298              		.loc 1 254 0
 299 0000 014B     		ldr	r3, .L21
 300 0002 5861     		str	r0, [r3, #20]
 301              		.loc 1 255 0
 302 0004 7047     		bx	lr
 303              	.L22:
 304 0006 00BF     		.align	2
 305              	.L21:
 306 0008 003C0140 		.word	1073822720
 307              		.cfi_endproc
 308              	.LFE116:
 309              		.size	EXTI_ClearFlag, .-EXTI_ClearFlag
 310              		.section	.text.EXTI_GetITStatus,"ax",%progbits
 311              		.align	1
 312              		.p2align 4,,15
 313              		.global	EXTI_GetITStatus
 314              		.syntax unified
 315              		.thumb
 316              		.thumb_func
 317              		.fpu fpv4-sp-d16
 318              		.type	EXTI_GetITStatus, %function
 319              	EXTI_GetITStatus:
 320              	.LFB117:
 321              		.loc 1 264 0
 322              		.cfi_startproc
 323              		@ args = 0, pretend = 0, frame = 0
 324              		@ frame_needed = 0, uses_anonymous_args = 0
 325              		@ link register save eliminated.
 326              	.LVL13:
 327              		.loc 1 270 0
 328 0000 054B     		ldr	r3, .L26
 329 0002 1A68     		ldr	r2, [r3]
 330              		.loc 1 271 0
 331 0004 5B69     		ldr	r3, [r3, #20]
 332              	.LVL14:
 333 0006 0340     		ands	r3, r3, r0
 334 0008 04D0     		beq	.L25
 335              		.loc 1 271 0 is_stmt 0 discriminator 1
 336 000a 0242     		tst	r2, r0
 337              		.loc 1 273 0 is_stmt 1 discriminator 1
 338 000c 14BF     		ite	ne
 339 000e 0120     		movne	r0, #1
 340              	.LVL15:
 341 0010 0020     		moveq	r0, #0
 342 0012 7047     		bx	lr
ARM GAS  /tmp/ccstrCE5.s 			page 7


 343              	.LVL16:
 344              	.L25:
 345              		.loc 1 277 0
 346 0014 1846     		mov	r0, r3
 347              	.LVL17:
 348              		.loc 1 280 0
 349 0016 7047     		bx	lr
 350              	.L27:
 351              		.align	2
 352              	.L26:
 353 0018 003C0140 		.word	1073822720
 354              		.cfi_endproc
 355              	.LFE117:
 356              		.size	EXTI_GetITStatus, .-EXTI_GetITStatus
 357              		.section	.text.EXTI_ClearITPendingBit,"ax",%progbits
 358              		.align	1
 359              		.p2align 4,,15
 360              		.global	EXTI_ClearITPendingBit
 361              		.syntax unified
 362              		.thumb
 363              		.thumb_func
 364              		.fpu fpv4-sp-d16
 365              		.type	EXTI_ClearITPendingBit, %function
 366              	EXTI_ClearITPendingBit:
 367              	.LFB120:
 368              		.cfi_startproc
 369              		@ args = 0, pretend = 0, frame = 0
 370              		@ frame_needed = 0, uses_anonymous_args = 0
 371              		@ link register save eliminated.
 372 0000 014B     		ldr	r3, .L29
 373 0002 5861     		str	r0, [r3, #20]
 374 0004 7047     		bx	lr
 375              	.L30:
 376 0006 00BF     		.align	2
 377              	.L29:
 378 0008 003C0140 		.word	1073822720
 379              		.cfi_endproc
 380              	.LFE120:
 381              		.size	EXTI_ClearITPendingBit, .-EXTI_ClearITPendingBit
 382              		.text
 383              	.Letext0:
 384              		.file 2 "/usr/arm-none-eabi/include/machine/_default_types.h"
 385              		.file 3 "/usr/arm-none-eabi/include/sys/_stdint.h"
 386              		.file 4 "ChibiOS_2.6.6/os/hal/platforms/STM32F4xx/stm32f4xx.h"
 387              		.file 5 "ChibiOS_2.6.6/ext/stdperiph_stm32f4/inc/stm32f4xx_exti.h"
 388              		.file 6 "ChibiOS_2.6.6/os/ports/common/ARMCMx/CMSIS/include/core_cm4.h"