ARM GAS  /tmp/ccBdZ8fr.s 			page 1


   1              		.cpu cortex-m4
   2              		.eabi_attribute 27, 1
   3              		.eabi_attribute 28, 1
   4              		.eabi_attribute 20, 1
   5              		.eabi_attribute 21, 1
   6              		.eabi_attribute 23, 3
   7              		.eabi_attribute 24, 1
   8              		.eabi_attribute 25, 1
   9              		.eabi_attribute 26, 1
  10              		.eabi_attribute 30, 2
  11              		.eabi_attribute 34, 1
  12              		.eabi_attribute 18, 4
  13              		.file	"stm32f4xx_cryp_tdes.c"
  14              		.text
  15              	.Ltext0:
  16              		.cfi_sections	.debug_frame
  17              		.section	.text.CRYP_TDES_ECB,"ax",%progbits
  18              		.align	1
  19              		.p2align 4,,15
  20              		.global	CRYP_TDES_ECB
  21              		.syntax unified
  22              		.thumb
  23              		.thumb_func
  24              		.fpu fpv4-sp-d16
  25              		.type	CRYP_TDES_ECB, %function
  26              	CRYP_TDES_ECB:
  27              	.LFB111:
  28              		.file 1 "ChibiOS_2.6.6/ext/stdperiph_stm32f4/src/stm32f4xx_cryp_tdes.c"
  29              		.loc 1 104 0
  30              		.cfi_startproc
  31              		@ args = 4, pretend = 0, frame = 48
  32              		@ frame_needed = 0, uses_anonymous_args = 0
  33              	.LVL0:
  34 0000 2DE9F043 		push	{r4, r5, r6, r7, r8, r9, lr}
  35              		.cfi_def_cfa_offset 28
  36              		.cfi_offset 4, -28
  37              		.cfi_offset 5, -24
  38              		.cfi_offset 6, -20
  39              		.cfi_offset 7, -16
  40              		.cfi_offset 8, -12
  41              		.cfi_offset 9, -8
  42              		.cfi_offset 14, -4
  43 0004 8DB0     		sub	sp, sp, #52
  44              		.cfi_def_cfa_offset 80
  45              		.loc 1 104 0
  46 0006 8046     		mov	r8, r0
  47              		.loc 1 107 0
  48 0008 0025     		movs	r5, #0
  49              		.loc 1 116 0
  50 000a 04A8     		add	r0, sp, #16
  51              	.LVL1:
  52              		.loc 1 104 0
  53 000c 0C46     		mov	r4, r1
  54 000e 9946     		mov	r9, r3
  55 0010 1646     		mov	r6, r2
  56              		.loc 1 107 0
  57 0012 0195     		str	r5, [sp, #4]
ARM GAS  /tmp/ccBdZ8fr.s 			page 2


  58              	.LVL2:
  59              		.loc 1 104 0
  60 0014 149F     		ldr	r7, [sp, #80]
  61              	.LVL3:
  62              		.loc 1 116 0
  63 0016 FFF7FEFF 		bl	CRYP_KeyStructInit
  64              	.LVL4:
  65              		.loc 1 119 0
  66 001a B8F1010F 		cmp	r8, #1
  67              		.loc 1 125 0
  68 001e 16BF     		itet	ne
  69 0020 0423     		movne	r3, #4
  70              		.loc 1 121 0
  71 0022 ADF80850 		strheq	r5, [sp, #8]	@ movhi
  72              		.loc 1 125 0
  73 0026 ADF80830 		strhne	r3, [sp, #8]	@ movhi
  74              		.loc 1 128 0
  75 002a 0025     		movs	r5, #0
  76              		.loc 1 129 0
  77 002c 8023     		movs	r3, #128
  78              		.loc 1 130 0
  79 002e 02A8     		add	r0, sp, #8
  80              		.loc 1 129 0
  81 0030 ADF80C30 		strh	r3, [sp, #12]	@ movhi
  82              		.loc 1 128 0
  83 0034 ADF80A50 		strh	r5, [sp, #10]	@ movhi
  84              		.loc 1 130 0
  85 0038 FFF7FEFF 		bl	CRYP_Init
  86              	.LVL5:
  87              	.LBB30:
  88              	.LBB31:
  89              		.file 2 "ChibiOS_2.6.6/os/ports/common/ARMCMx/CMSIS/include/core_cmInstr.h"
  90              		.loc 2 369 0
  91 003c 2368     		ldr	r3, [r4]
  92              		.syntax unified
  93              	@ 369 "ChibiOS_2.6.6/os/ports/common/ARMCMx/CMSIS/include/core_cmInstr.h" 1
  94 003e 1BBA     		rev r3, r3
  95              	@ 0 "" 2
  96              	.LVL6:
  97              		.thumb
  98              		.syntax unified
  99              	.LBE31:
 100              	.LBE30:
 101              		.loc 1 133 0
 102 0040 0693     		str	r3, [sp, #24]
 103              	.LVL7:
 104              	.LBB32:
 105              	.LBB33:
 106              		.loc 2 369 0
 107 0042 6368     		ldr	r3, [r4, #4]
 108              		.syntax unified
 109              	@ 369 "ChibiOS_2.6.6/os/ports/common/ARMCMx/CMSIS/include/core_cmInstr.h" 1
 110 0044 1BBA     		rev r3, r3
 111              	@ 0 "" 2
 112              	.LVL8:
 113              		.thumb
 114              		.syntax unified
ARM GAS  /tmp/ccBdZ8fr.s 			page 3


 115              	.LBE33:
 116              	.LBE32:
 117              		.loc 1 135 0
 118 0046 0793     		str	r3, [sp, #28]
 119              	.LVL9:
 120              	.LBB34:
 121              	.LBB35:
 122              		.loc 2 369 0
 123 0048 A368     		ldr	r3, [r4, #8]
 124              		.syntax unified
 125              	@ 369 "ChibiOS_2.6.6/os/ports/common/ARMCMx/CMSIS/include/core_cmInstr.h" 1
 126 004a 1BBA     		rev r3, r3
 127              	@ 0 "" 2
 128              	.LVL10:
 129              		.thumb
 130              		.syntax unified
 131              	.LBE35:
 132              	.LBE34:
 133              		.loc 1 137 0
 134 004c 0893     		str	r3, [sp, #32]
 135              	.LVL11:
 136              	.LBB36:
 137              	.LBB37:
 138              		.loc 2 369 0
 139 004e E368     		ldr	r3, [r4, #12]
 140              		.syntax unified
 141              	@ 369 "ChibiOS_2.6.6/os/ports/common/ARMCMx/CMSIS/include/core_cmInstr.h" 1
 142 0050 1BBA     		rev r3, r3
 143              	@ 0 "" 2
 144              	.LVL12:
 145              		.thumb
 146              		.syntax unified
 147              	.LBE37:
 148              	.LBE36:
 149              		.loc 1 139 0
 150 0052 0993     		str	r3, [sp, #36]
 151              	.LVL13:
 152              	.LBB38:
 153              	.LBB39:
 154              		.loc 2 369 0
 155 0054 2369     		ldr	r3, [r4, #16]
 156              		.syntax unified
 157              	@ 369 "ChibiOS_2.6.6/os/ports/common/ARMCMx/CMSIS/include/core_cmInstr.h" 1
 158 0056 1BBA     		rev r3, r3
 159              	@ 0 "" 2
 160              	.LVL14:
 161              		.thumb
 162              		.syntax unified
 163              	.LBE39:
 164              	.LBE38:
 165              		.loc 1 141 0
 166 0058 0A93     		str	r3, [sp, #40]
 167              	.LVL15:
 168              	.LBB40:
 169              	.LBB41:
 170              		.loc 2 369 0
 171 005a 6369     		ldr	r3, [r4, #20]
ARM GAS  /tmp/ccBdZ8fr.s 			page 4


 172              		.syntax unified
 173              	@ 369 "ChibiOS_2.6.6/os/ports/common/ARMCMx/CMSIS/include/core_cmInstr.h" 1
 174 005c 1BBA     		rev r3, r3
 175              	@ 0 "" 2
 176              	.LVL16:
 177              		.thumb
 178              		.syntax unified
 179              	.LBE41:
 180              	.LBE40:
 181              		.loc 1 144 0
 182 005e 04A8     		add	r0, sp, #16
 183              		.loc 1 143 0
 184 0060 0B93     		str	r3, [sp, #44]
 185              		.loc 1 144 0
 186 0062 FFF7FEFF 		bl	CRYP_KeyInit
 187              	.LVL17:
 188              		.loc 1 147 0
 189 0066 FFF7FEFF 		bl	CRYP_FIFOFlush
 190              	.LVL18:
 191              		.loc 1 150 0
 192 006a 0120     		movs	r0, #1
 193 006c FFF7FEFF 		bl	CRYP_Cmd
 194              	.LVL19:
 195              		.loc 1 152 0
 196 0070 B9F1000F 		cmp	r9, #0
 197 0074 30D0     		beq	.L4
 198 0076 6FF00308 		mvn	r8, #3
 199 007a A8EB0608 		sub	r8, r8, r6
 200 007e 341D     		adds	r4, r6, #4
 201              	.LVL20:
 202              	.L9:
 203              		.loc 1 155 0
 204 0080 54F8040C 		ldr	r0, [r4, #-4]
 205 0084 FFF7FEFF 		bl	CRYP_DataIn
 206              	.LVL21:
 207              		.loc 1 157 0
 208 0088 2068     		ldr	r0, [r4]
 209 008a FFF7FEFF 		bl	CRYP_DataIn
 210              	.LVL22:
 211              		.loc 1 161 0
 212 008e 0195     		str	r5, [sp, #4]
 213 0090 00E0     		b	.L6
 214              	.LVL23:
 215              	.L18:
 216              		.loc 1 166 0 discriminator 1
 217 0092 90B1     		cbz	r0, .L7
 218              	.LVL24:
 219              	.L6:
 220              		.loc 1 164 0 discriminator 2
 221 0094 1020     		movs	r0, #16
 222 0096 FFF7FEFF 		bl	CRYP_GetFlagStatus
 223              	.LVL25:
 224              		.loc 1 165 0 discriminator 2
 225 009a 019B     		ldr	r3, [sp, #4]
 226 009c 0133     		adds	r3, r3, #1
 227 009e 0193     		str	r3, [sp, #4]
 228              		.loc 1 166 0 discriminator 2
ARM GAS  /tmp/ccBdZ8fr.s 			page 5


 229 00a0 019B     		ldr	r3, [sp, #4]
 230 00a2 B3F5803F 		cmp	r3, #65536
 231 00a6 F4D1     		bne	.L18
 232              		.loc 1 168 0
 233 00a8 38B1     		cbz	r0, .L7
 234              		.loc 1 170 0
 235 00aa 0024     		movs	r4, #0
 236              	.LVL26:
 237              	.L8:
 238              		.loc 1 184 0
 239 00ac 0020     		movs	r0, #0
 240 00ae FFF7FEFF 		bl	CRYP_Cmd
 241              	.LVL27:
 242              		.loc 1 187 0
 243 00b2 2046     		mov	r0, r4
 244 00b4 0DB0     		add	sp, sp, #52
 245              		.cfi_remember_state
 246              		.cfi_def_cfa_offset 28
 247              		@ sp needed
 248 00b6 BDE8F083 		pop	{r4, r5, r6, r7, r8, r9, pc}
 249              	.LVL28:
 250              	.L7:
 251              		.cfi_restore_state
 252              		.loc 1 176 0
 253 00ba FFF7FEFF 		bl	CRYP_DataOut
 254              	.LVL29:
 255 00be A31B     		subs	r3, r4, r6
 256 00c0 3B44     		add	r3, r3, r7
 257 00c2 43F8040C 		str	r0, [r3, #-4]
 258              	.LVL30:
 259              		.loc 1 178 0
 260 00c6 FFF7FEFF 		bl	CRYP_DataOut
 261              	.LVL31:
 262 00ca BB1B     		subs	r3, r7, r6
 263 00cc 1851     		str	r0, [r3, r4]
 264              	.LVL32:
 265 00ce 0834     		adds	r4, r4, #8
 266              	.LVL33:
 267              		.loc 1 152 0
 268 00d0 08EB0403 		add	r3, r8, r4
 269 00d4 9945     		cmp	r9, r3
 270 00d6 D3D8     		bhi	.L9
 271              	.LVL34:
 272              	.L4:
 273              		.loc 1 104 0
 274 00d8 0124     		movs	r4, #1
 275 00da E7E7     		b	.L8
 276              		.cfi_endproc
 277              	.LFE111:
 278              		.size	CRYP_TDES_ECB, .-CRYP_TDES_ECB
 279              		.section	.text.CRYP_TDES_CBC,"ax",%progbits
 280              		.align	1
 281              		.p2align 4,,15
 282              		.global	CRYP_TDES_CBC
 283              		.syntax unified
 284              		.thumb
 285              		.thumb_func
ARM GAS  /tmp/ccBdZ8fr.s 			page 6


 286              		.fpu fpv4-sp-d16
 287              		.type	CRYP_TDES_CBC, %function
 288              	CRYP_TDES_CBC:
 289              	.LFB112:
 290              		.loc 1 206 0
 291              		.cfi_startproc
 292              		@ args = 8, pretend = 0, frame = 64
 293              		@ frame_needed = 0, uses_anonymous_args = 0
 294              	.LVL35:
 295 0000 2DE9F047 		push	{r4, r5, r6, r7, r8, r9, r10, lr}
 296              		.cfi_def_cfa_offset 32
 297              		.cfi_offset 4, -32
 298              		.cfi_offset 5, -28
 299              		.cfi_offset 6, -24
 300              		.cfi_offset 7, -20
 301              		.cfi_offset 8, -16
 302              		.cfi_offset 9, -12
 303              		.cfi_offset 10, -8
 304              		.cfi_offset 14, -4
 305 0004 90B0     		sub	sp, sp, #64
 306              		.cfi_def_cfa_offset 96
 307              		.loc 1 206 0
 308 0006 8246     		mov	r10, r0
 309              		.loc 1 210 0
 310 0008 4FF00008 		mov	r8, #0
 311              		.loc 1 220 0
 312 000c 08A8     		add	r0, sp, #32
 313              	.LVL36:
 314              		.loc 1 206 0
 315 000e 0C46     		mov	r4, r1
 316 0010 1E46     		mov	r6, r3
 317 0012 1546     		mov	r5, r2
 318              		.loc 1 210 0
 319 0014 CDF80480 		str	r8, [sp, #4]
 320              	.LVL37:
 321              		.loc 1 206 0
 322 0018 DDE91897 		ldrd	r9, r7, [sp, #96]
 323              	.LVL38:
 324              		.loc 1 220 0
 325 001c FFF7FEFF 		bl	CRYP_KeyStructInit
 326              	.LVL39:
 327              		.loc 1 223 0
 328 0020 BAF1010F 		cmp	r10, #1
 329              		.loc 1 229 0
 330 0024 18BF     		it	ne
 331 0026 0423     		movne	r3, #4
 332              		.loc 1 231 0
 333 0028 4FF00802 		mov	r2, #8
 334              		.loc 1 229 0
 335 002c 18BF     		it	ne
 336 002e ADF80830 		strhne	r3, [sp, #8]	@ movhi
 337              		.loc 1 234 0
 338 0032 0DEB0200 		add	r0, sp, r2
 339              		.loc 1 232 0
 340 0036 4FF08003 		mov	r3, #128
 341              		.loc 1 225 0
 342 003a 08BF     		it	eq
ARM GAS  /tmp/ccBdZ8fr.s 			page 7


 343 003c ADF80880 		strheq	r8, [sp, #8]	@ movhi
 344              		.loc 1 232 0
 345 0040 ADF80C30 		strh	r3, [sp, #12]	@ movhi
 346              		.loc 1 231 0
 347 0044 ADF80A20 		strh	r2, [sp, #10]	@ movhi
 348              		.loc 1 234 0
 349 0048 FFF7FEFF 		bl	CRYP_Init
 350              	.LVL40:
 351              	.LBB42:
 352              	.LBB43:
 353              		.loc 2 369 0
 354 004c 2368     		ldr	r3, [r4]
 355              		.syntax unified
 356              	@ 369 "ChibiOS_2.6.6/os/ports/common/ARMCMx/CMSIS/include/core_cmInstr.h" 1
 357 004e 1BBA     		rev r3, r3
 358              	@ 0 "" 2
 359              	.LVL41:
 360              		.thumb
 361              		.syntax unified
 362              	.LBE43:
 363              	.LBE42:
 364              		.loc 1 237 0
 365 0050 0A93     		str	r3, [sp, #40]
 366              	.LVL42:
 367              	.LBB44:
 368              	.LBB45:
 369              		.loc 2 369 0
 370 0052 6368     		ldr	r3, [r4, #4]
 371              		.syntax unified
 372              	@ 369 "ChibiOS_2.6.6/os/ports/common/ARMCMx/CMSIS/include/core_cmInstr.h" 1
 373 0054 1BBA     		rev r3, r3
 374              	@ 0 "" 2
 375              	.LVL43:
 376              		.thumb
 377              		.syntax unified
 378              	.LBE45:
 379              	.LBE44:
 380              		.loc 1 239 0
 381 0056 0B93     		str	r3, [sp, #44]
 382              	.LVL44:
 383              	.LBB46:
 384              	.LBB47:
 385              		.loc 2 369 0
 386 0058 A368     		ldr	r3, [r4, #8]
 387              		.syntax unified
 388              	@ 369 "ChibiOS_2.6.6/os/ports/common/ARMCMx/CMSIS/include/core_cmInstr.h" 1
 389 005a 1BBA     		rev r3, r3
 390              	@ 0 "" 2
 391              	.LVL45:
 392              		.thumb
 393              		.syntax unified
 394              	.LBE47:
 395              	.LBE46:
 396              		.loc 1 241 0
 397 005c 0C93     		str	r3, [sp, #48]
 398              	.LVL46:
 399              	.LBB48:
ARM GAS  /tmp/ccBdZ8fr.s 			page 8


 400              	.LBB49:
 401              		.loc 2 369 0
 402 005e E368     		ldr	r3, [r4, #12]
 403              		.syntax unified
 404              	@ 369 "ChibiOS_2.6.6/os/ports/common/ARMCMx/CMSIS/include/core_cmInstr.h" 1
 405 0060 1BBA     		rev r3, r3
 406              	@ 0 "" 2
 407              	.LVL47:
 408              		.thumb
 409              		.syntax unified
 410              	.LBE49:
 411              	.LBE48:
 412              		.loc 1 243 0
 413 0062 0D93     		str	r3, [sp, #52]
 414              	.LVL48:
 415              	.LBB50:
 416              	.LBB51:
 417              		.loc 2 369 0
 418 0064 2369     		ldr	r3, [r4, #16]
 419              		.syntax unified
 420              	@ 369 "ChibiOS_2.6.6/os/ports/common/ARMCMx/CMSIS/include/core_cmInstr.h" 1
 421 0066 1BBA     		rev r3, r3
 422              	@ 0 "" 2
 423              	.LVL49:
 424              		.thumb
 425              		.syntax unified
 426              	.LBE51:
 427              	.LBE50:
 428              		.loc 1 245 0
 429 0068 0E93     		str	r3, [sp, #56]
 430              	.LVL50:
 431              	.LBB52:
 432              	.LBB53:
 433              		.loc 2 369 0
 434 006a 6369     		ldr	r3, [r4, #20]
 435              		.syntax unified
 436              	@ 369 "ChibiOS_2.6.6/os/ports/common/ARMCMx/CMSIS/include/core_cmInstr.h" 1
 437 006c 1BBA     		rev r3, r3
 438              	@ 0 "" 2
 439              	.LVL51:
 440              		.thumb
 441              		.syntax unified
 442              	.LBE53:
 443              	.LBE52:
 444              		.loc 1 248 0
 445 006e 08A8     		add	r0, sp, #32
 446              		.loc 1 247 0
 447 0070 0F93     		str	r3, [sp, #60]
 448              		.loc 1 248 0
 449 0072 FFF7FEFF 		bl	CRYP_KeyInit
 450              	.LVL52:
 451              	.LBB54:
 452              	.LBB55:
 453              		.loc 2 369 0
 454 0076 2B68     		ldr	r3, [r5]
 455              		.syntax unified
 456              	@ 369 "ChibiOS_2.6.6/os/ports/common/ARMCMx/CMSIS/include/core_cmInstr.h" 1
ARM GAS  /tmp/ccBdZ8fr.s 			page 9


 457 0078 1BBA     		rev r3, r3
 458              	@ 0 "" 2
 459              	.LVL53:
 460              		.thumb
 461              		.syntax unified
 462              	.LBE55:
 463              	.LBE54:
 464              		.loc 1 251 0
 465 007a 0493     		str	r3, [sp, #16]
 466              	.LVL54:
 467              	.LBB56:
 468              	.LBB57:
 469              		.loc 2 369 0
 470 007c 6B68     		ldr	r3, [r5, #4]
 471              		.syntax unified
 472              	@ 369 "ChibiOS_2.6.6/os/ports/common/ARMCMx/CMSIS/include/core_cmInstr.h" 1
 473 007e 1BBA     		rev r3, r3
 474              	@ 0 "" 2
 475              	.LVL55:
 476              		.thumb
 477              		.syntax unified
 478              	.LBE57:
 479              	.LBE56:
 480              		.loc 1 254 0
 481 0080 04A8     		add	r0, sp, #16
 482              		.loc 1 253 0
 483 0082 0593     		str	r3, [sp, #20]
 484              		.loc 1 254 0
 485 0084 FFF7FEFF 		bl	CRYP_IVInit
 486              	.LVL56:
 487              		.loc 1 257 0
 488 0088 FFF7FEFF 		bl	CRYP_FIFOFlush
 489              	.LVL57:
 490              		.loc 1 260 0
 491 008c 0120     		movs	r0, #1
 492 008e FFF7FEFF 		bl	CRYP_Cmd
 493              	.LVL58:
 494              		.loc 1 262 0
 495 0092 B9F1000F 		cmp	r9, #0
 496 0096 31D0     		beq	.L22
 497 0098 6FF00308 		mvn	r8, #3
 498 009c A8EB0608 		sub	r8, r8, r6
 499 00a0 341D     		adds	r4, r6, #4
 500              	.LVL59:
 501              		.loc 1 271 0
 502 00a2 0025     		movs	r5, #0
 503              	.LVL60:
 504              	.L27:
 505              		.loc 1 265 0
 506 00a4 54F8040C 		ldr	r0, [r4, #-4]
 507 00a8 FFF7FEFF 		bl	CRYP_DataIn
 508              	.LVL61:
 509              		.loc 1 267 0
 510 00ac 2068     		ldr	r0, [r4]
 511 00ae FFF7FEFF 		bl	CRYP_DataIn
 512              	.LVL62:
 513              		.loc 1 271 0
ARM GAS  /tmp/ccBdZ8fr.s 			page 10


 514 00b2 0195     		str	r5, [sp, #4]
 515 00b4 00E0     		b	.L24
 516              	.LVL63:
 517              	.L35:
 518              		.loc 1 276 0 discriminator 1
 519 00b6 90B1     		cbz	r0, .L25
 520              	.LVL64:
 521              	.L24:
 522              		.loc 1 274 0 discriminator 2
 523 00b8 1020     		movs	r0, #16
 524 00ba FFF7FEFF 		bl	CRYP_GetFlagStatus
 525              	.LVL65:
 526              		.loc 1 275 0 discriminator 2
 527 00be 019B     		ldr	r3, [sp, #4]
 528 00c0 0133     		adds	r3, r3, #1
 529 00c2 0193     		str	r3, [sp, #4]
 530              		.loc 1 276 0 discriminator 2
 531 00c4 019B     		ldr	r3, [sp, #4]
 532 00c6 B3F5803F 		cmp	r3, #65536
 533 00ca F4D1     		bne	.L35
 534              		.loc 1 278 0
 535 00cc 38B1     		cbz	r0, .L25
 536              		.loc 1 280 0
 537 00ce 0024     		movs	r4, #0
 538              	.LVL66:
 539              	.L26:
 540              		.loc 1 294 0
 541 00d0 0020     		movs	r0, #0
 542 00d2 FFF7FEFF 		bl	CRYP_Cmd
 543              	.LVL67:
 544              		.loc 1 297 0
 545 00d6 2046     		mov	r0, r4
 546 00d8 10B0     		add	sp, sp, #64
 547              		.cfi_remember_state
 548              		.cfi_def_cfa_offset 32
 549              		@ sp needed
 550 00da BDE8F087 		pop	{r4, r5, r6, r7, r8, r9, r10, pc}
 551              	.LVL68:
 552              	.L25:
 553              		.cfi_restore_state
 554              		.loc 1 286 0
 555 00de FFF7FEFF 		bl	CRYP_DataOut
 556              	.LVL69:
 557 00e2 A31B     		subs	r3, r4, r6
 558 00e4 3B44     		add	r3, r3, r7
 559 00e6 43F8040C 		str	r0, [r3, #-4]
 560              	.LVL70:
 561              		.loc 1 288 0
 562 00ea FFF7FEFF 		bl	CRYP_DataOut
 563              	.LVL71:
 564 00ee BB1B     		subs	r3, r7, r6
 565 00f0 1851     		str	r0, [r3, r4]
 566              	.LVL72:
 567 00f2 0834     		adds	r4, r4, #8
 568              	.LVL73:
 569              		.loc 1 262 0
 570 00f4 08EB0403 		add	r3, r8, r4
ARM GAS  /tmp/ccBdZ8fr.s 			page 11


 571 00f8 9945     		cmp	r9, r3
 572 00fa D3D8     		bhi	.L27
 573              	.LVL74:
 574              	.L22:
 575              		.loc 1 206 0
 576 00fc 0124     		movs	r4, #1
 577 00fe E7E7     		b	.L26
 578              		.cfi_endproc
 579              	.LFE112:
 580              		.size	CRYP_TDES_CBC, .-CRYP_TDES_CBC
 581              		.text
 582              	.Letext0:
 583              		.file 3 "/usr/arm-none-eabi/include/machine/_default_types.h"
 584              		.file 4 "/usr/arm-none-eabi/include/sys/_stdint.h"
 585              		.file 5 "ChibiOS_2.6.6/os/hal/platforms/STM32F4xx/stm32f4xx.h"
 586              		.file 6 "ChibiOS_2.6.6/ext/stdperiph_stm32f4/inc/stm32f4xx_cryp.h"
 587              		.file 7 "ChibiOS_2.6.6/os/ports/common/ARMCMx/CMSIS/include/core_cm4.h"