ARM GAS  /tmp/ccWcPBJM.s 			page 1


   1              		.cpu cortex-m4
   2              		.eabi_attribute 27, 1
   3              		.eabi_attribute 28, 1
   4              		.eabi_attribute 20, 1
   5              		.eabi_attribute 21, 1
   6              		.eabi_attribute 23, 3
   7              		.eabi_attribute 24, 1
   8              		.eabi_attribute 25, 1
   9              		.eabi_attribute 26, 1
  10              		.eabi_attribute 30, 2
  11              		.eabi_attribute 34, 1
  12              		.eabi_attribute 18, 4
  13              		.file	"stm32f4xx_i2c.c"
  14              		.text
  15              	.Ltext0:
  16              		.cfi_sections	.debug_frame
  17              		.section	.text.I2C_DeInit,"ax",%progbits
  18              		.align	1
  19              		.p2align 4,,15
  20              		.global	I2C_DeInit
  21              		.syntax unified
  22              		.thumb
  23              		.thumb_func
  24              		.fpu fpv4-sp-d16
  25              		.type	I2C_DeInit, %function
  26              	I2C_DeInit:
  27              	.LFB111:
  28              		.file 1 "ChibiOS_2.6.6/ext/stdperiph_stm32f4/src/stm32f4xx_i2c.c"
  29              		.loc 1 139 0
  30              		.cfi_startproc
  31              		@ args = 0, pretend = 0, frame = 0
  32              		@ frame_needed = 0, uses_anonymous_args = 0
  33              	.LVL0:
  34 0000 08B5     		push	{r3, lr}
  35              		.cfi_def_cfa_offset 8
  36              		.cfi_offset 3, -8
  37              		.cfi_offset 14, -4
  38              		.loc 1 143 0
  39 0002 174B     		ldr	r3, .L10
  40 0004 9842     		cmp	r0, r3
  41 0006 06D0     		beq	.L7
  42              		.loc 1 150 0
  43 0008 164B     		ldr	r3, .L10+4
  44 000a 9842     		cmp	r0, r3
  45 000c 1BD0     		beq	.L8
  46              		.loc 1 159 0
  47 000e 164B     		ldr	r3, .L10+8
  48 0010 9842     		cmp	r0, r3
  49 0012 0CD0     		beq	.L9
  50              		.loc 1 167 0
  51 0014 08BD     		pop	{r3, pc}
  52              	.L7:
  53              		.loc 1 146 0
  54 0016 0121     		movs	r1, #1
  55 0018 4FF40010 		mov	r0, #2097152
  56              	.LVL1:
  57 001c FFF7FEFF 		bl	RCC_APB1PeriphResetCmd
ARM GAS  /tmp/ccWcPBJM.s 			page 2


  58              	.LVL2:
  59              		.loc 1 148 0
  60 0020 0021     		movs	r1, #0
  61 0022 4FF40010 		mov	r0, #2097152
  62              		.loc 1 167 0
  63 0026 BDE80840 		pop	{r3, lr}
  64              		.cfi_remember_state
  65              		.cfi_restore 14
  66              		.cfi_restore 3
  67              		.cfi_def_cfa_offset 0
  68              		.loc 1 148 0
  69 002a FFF7FEBF 		b	RCC_APB1PeriphResetCmd
  70              	.LVL3:
  71              	.L9:
  72              		.cfi_restore_state
  73              		.loc 1 162 0
  74 002e 0121     		movs	r1, #1
  75 0030 4FF40000 		mov	r0, #8388608
  76              	.LVL4:
  77 0034 FFF7FEFF 		bl	RCC_APB1PeriphResetCmd
  78              	.LVL5:
  79              		.loc 1 164 0
  80 0038 0021     		movs	r1, #0
  81 003a 4FF40000 		mov	r0, #8388608
  82              		.loc 1 167 0
  83 003e BDE80840 		pop	{r3, lr}
  84              		.cfi_remember_state
  85              		.cfi_restore 14
  86              		.cfi_restore 3
  87              		.cfi_def_cfa_offset 0
  88              		.loc 1 164 0
  89 0042 FFF7FEBF 		b	RCC_APB1PeriphResetCmd
  90              	.LVL6:
  91              	.L8:
  92              		.cfi_restore_state
  93              		.loc 1 153 0
  94 0046 0121     		movs	r1, #1
  95 0048 4FF48000 		mov	r0, #4194304
  96              	.LVL7:
  97 004c FFF7FEFF 		bl	RCC_APB1PeriphResetCmd
  98              	.LVL8:
  99              		.loc 1 155 0
 100 0050 0021     		movs	r1, #0
 101 0052 4FF48000 		mov	r0, #4194304
 102              		.loc 1 167 0
 103 0056 BDE80840 		pop	{r3, lr}
 104              		.cfi_restore 14
 105              		.cfi_restore 3
 106              		.cfi_def_cfa_offset 0
 107              		.loc 1 155 0
 108 005a FFF7FEBF 		b	RCC_APB1PeriphResetCmd
 109              	.LVL9:
 110              	.L11:
 111 005e 00BF     		.align	2
 112              	.L10:
 113 0060 00540040 		.word	1073763328
 114 0064 00580040 		.word	1073764352
ARM GAS  /tmp/ccWcPBJM.s 			page 3


 115 0068 005C0040 		.word	1073765376
 116              		.cfi_endproc
 117              	.LFE111:
 118              		.size	I2C_DeInit, .-I2C_DeInit
 119              		.section	.text.I2C_Init,"ax",%progbits
 120              		.align	1
 121              		.p2align 4,,15
 122              		.global	I2C_Init
 123              		.syntax unified
 124              		.thumb
 125              		.thumb_func
 126              		.fpu fpv4-sp-d16
 127              		.type	I2C_Init, %function
 128              	I2C_Init:
 129              	.LFB112:
 130              		.loc 1 182 0
 131              		.cfi_startproc
 132              		@ args = 0, pretend = 0, frame = 16
 133              		@ frame_needed = 0, uses_anonymous_args = 0
 134              	.LVL10:
 135 0000 F0B5     		push	{r4, r5, r6, r7, lr}
 136              		.cfi_def_cfa_offset 20
 137              		.cfi_offset 4, -20
 138              		.cfi_offset 5, -16
 139              		.cfi_offset 6, -12
 140              		.cfi_offset 7, -8
 141              		.cfi_offset 14, -4
 142 0002 0546     		mov	r5, r0
 143 0004 85B0     		sub	sp, sp, #20
 144              		.cfi_def_cfa_offset 40
 145              		.loc 1 202 0
 146 0006 6846     		mov	r0, sp
 147              	.LVL11:
 148              		.loc 1 182 0
 149 0008 0E46     		mov	r6, r1
 150              		.loc 1 198 0
 151 000a AC88     		ldrh	r4, [r5, #4]
 152              	.LVL12:
 153              		.loc 1 202 0
 154 000c FFF7FEFF 		bl	RCC_GetClocksFreq
 155              	.LVL13:
 156              		.loc 1 203 0
 157 0010 0298     		ldr	r0, [sp, #8]
 158              		.loc 1 205 0
 159 0012 2C49     		ldr	r1, .L20
 160              		.loc 1 218 0
 161 0014 3368     		ldr	r3, [r6]
 162 0016 DFF8B8C0 		ldr	ip, .L20+12
 163              		.loc 1 205 0
 164 001a A1FB0021 		umull	r2, r1, r1, r0
 165              		.loc 1 200 0
 166 001e 24F03F04 		bic	r4, r4, #63
 167              	.LVL14:
 168 0022 2404     		lsls	r4, r4, #16
 169              		.loc 1 205 0
 170 0024 890C     		lsrs	r1, r1, #18
 171              		.loc 1 200 0
ARM GAS  /tmp/ccWcPBJM.s 			page 4


 172 0026 240C     		lsrs	r4, r4, #16
 173              	.LVL15:
 174              		.loc 1 205 0
 175 0028 8FB2     		uxth	r7, r1
 176              	.LVL16:
 177              		.loc 1 206 0
 178 002a 3C43     		orrs	r4, r4, r7
 179              	.LVL17:
 180              		.loc 1 208 0
 181 002c AC80     		strh	r4, [r5, #4]	@ movhi
 182              		.loc 1 212 0
 183 002e 2A88     		ldrh	r2, [r5]
 184 0030 22F00102 		bic	r2, r2, #1
 185 0034 1204     		lsls	r2, r2, #16
 186 0036 120C     		lsrs	r2, r2, #16
 187              		.loc 1 218 0
 188 0038 6345     		cmp	r3, ip
 189              		.loc 1 212 0
 190 003a 2A80     		strh	r2, [r5]	@ movhi
 191              	.LVL18:
 192              		.loc 1 218 0
 193 003c 1BD8     		bhi	.L13
 194              		.loc 1 221 0
 195 003e 5B00     		lsls	r3, r3, #1
 196 0040 B0FBF3F3 		udiv	r3, r0, r3
 197 0044 9BB2     		uxth	r3, r3
 198              	.LVL19:
 199              		.loc 1 231 0
 200 0046 0137     		adds	r7, r7, #1
 201              	.LVL20:
 202 0048 042B     		cmp	r3, #4
 203 004a 38BF     		it	cc
 204 004c 0423     		movcc	r3, #4
 205              	.LVL21:
 206 004e 2F84     		strh	r7, [r5, #32]	@ movhi
 207              	.LVL22:
 208              	.L14:
 209              		.loc 1 264 0
 210 0050 AB83     		strh	r3, [r5, #28]	@ movhi
 211              		.loc 1 266 0
 212 0052 2A88     		ldrh	r2, [r5]
 213              		.loc 1 276 0
 214 0054 B188     		ldrh	r1, [r6, #4]
 215 0056 7489     		ldrh	r4, [r6, #10]
 216              		.loc 1 272 0
 217 0058 1B4B     		ldr	r3, .L20+4
 218              	.LVL23:
 219              		.loc 1 282 0
 220 005a 3089     		ldrh	r0, [r6, #8]
 221              		.loc 1 266 0
 222 005c 42F00102 		orr	r2, r2, #1
 223 0060 2A80     		strh	r2, [r5]	@ movhi
 224              	.LVL24:
 225              		.loc 1 270 0
 226 0062 2F88     		ldrh	r7, [r5]
 227              	.LVL25:
 228              		.loc 1 282 0
ARM GAS  /tmp/ccWcPBJM.s 			page 5


 229 0064 B289     		ldrh	r2, [r6, #12]
 230              		.loc 1 272 0
 231 0066 3B40     		ands	r3, r3, r7
 232              	.LVL26:
 233              		.loc 1 276 0
 234 0068 2143     		orrs	r1, r1, r4
 235 006a 0B43     		orrs	r3, r3, r1
 236              	.LVL27:
 237              		.loc 1 282 0
 238 006c 0243     		orrs	r2, r2, r0
 239              		.loc 1 278 0
 240 006e 2B80     		strh	r3, [r5]	@ movhi
 241              		.loc 1 282 0
 242 0070 2A81     		strh	r2, [r5, #8]	@ movhi
 243              		.loc 1 283 0
 244 0072 05B0     		add	sp, sp, #20
 245              		.cfi_remember_state
 246              		.cfi_def_cfa_offset 20
 247              		@ sp needed
 248 0074 F0BD     		pop	{r4, r5, r6, r7, pc}
 249              	.LVL28:
 250              	.L13:
 251              		.cfi_restore_state
 252              		.loc 1 238 0
 253 0076 F488     		ldrh	r4, [r6, #6]
 254 0078 4BF6FF72 		movw	r2, #49151
 255 007c 9442     		cmp	r4, r2
 256 007e 1AD0     		beq	.L19
 257              		.loc 1 246 0
 258 0080 03EB8303 		add	r3, r3, r3, lsl #2
 259 0084 03EB8303 		add	r3, r3, r3, lsl #2
 260 0088 B0FBF3F3 		udiv	r3, r0, r3
 261 008c 9BB2     		uxth	r3, r3
 262              	.LVL29:
 263              		.loc 1 248 0
 264 008e 43F48043 		orr	r3, r3, #16384
 265              	.LVL30:
 266              	.L16:
 267              		.loc 1 252 0
 268 0092 C3F30B02 		ubfx	r2, r3, #0, #12
 269 0096 0AB9     		cbnz	r2, .L17
 270              		.loc 1 255 0
 271 0098 43F00103 		orr	r3, r3, #1
 272              	.LVL31:
 273              	.L17:
 274              		.loc 1 260 0
 275 009c 4FF49672 		mov	r2, #300
 276 00a0 0A48     		ldr	r0, .L20+8
 277              	.LVL32:
 278 00a2 02FB01F1 		mul	r1, r2, r1
 279 00a6 A0FB0121 		umull	r2, r1, r0, r1
 280 00aa 8909     		lsrs	r1, r1, #6
 281 00ac 0131     		adds	r1, r1, #1
 282              		.loc 1 258 0
 283 00ae 43F40043 		orr	r3, r3, #32768
 284              	.LVL33:
 285              		.loc 1 260 0
ARM GAS  /tmp/ccWcPBJM.s 			page 6


 286 00b2 2984     		strh	r1, [r5, #32]	@ movhi
 287 00b4 CCE7     		b	.L14
 288              	.LVL34:
 289              	.L19:
 290              		.loc 1 241 0
 291 00b6 03EB4303 		add	r3, r3, r3, lsl #1
 292 00ba B0FBF3F3 		udiv	r3, r0, r3
 293 00be 9BB2     		uxth	r3, r3
 294              	.LVL35:
 295 00c0 E7E7     		b	.L16
 296              	.L21:
 297 00c2 00BF     		.align	2
 298              	.L20:
 299 00c4 83DE1B43 		.word	1125899907
 300 00c8 F5FBFFFF 		.word	-1035
 301 00cc D34D6210 		.word	274877907
 302 00d0 A0860100 		.word	100000
 303              		.cfi_endproc
 304              	.LFE112:
 305              		.size	I2C_Init, .-I2C_Init
 306              		.section	.text.I2C_StructInit,"ax",%progbits
 307              		.align	1
 308              		.p2align 4,,15
 309              		.global	I2C_StructInit
 310              		.syntax unified
 311              		.thumb
 312              		.thumb_func
 313              		.fpu fpv4-sp-d16
 314              		.type	I2C_StructInit, %function
 315              	I2C_StructInit:
 316              	.LFB113:
 317              		.loc 1 291 0
 318              		.cfi_startproc
 319              		@ args = 0, pretend = 0, frame = 0
 320              		@ frame_needed = 0, uses_anonymous_args = 0
 321              		@ link register save eliminated.
 322              	.LVL36:
 323              		.loc 1 294 0
 324 0000 41F28833 		movw	r3, #5000
 325 0004 0449     		ldr	r1, .L23
 326 0006 0360     		str	r3, [r0]
 327              		.loc 1 298 0
 328 0008 0022     		movs	r2, #0
 329              		.loc 1 302 0
 330 000a 4FF48043 		mov	r3, #16384
 331              		.loc 1 298 0
 332 000e C0E90112 		strd	r1, r2, [r0, #4]
 333              		.loc 1 302 0
 334 0012 8381     		strh	r3, [r0, #12]	@ movhi
 335              		.loc 1 305 0
 336 0014 7047     		bx	lr
 337              	.L24:
 338 0016 00BF     		.align	2
 339              	.L23:
 340 0018 0000FFBF 		.word	-1073807360
 341              		.cfi_endproc
 342              	.LFE113:
ARM GAS  /tmp/ccWcPBJM.s 			page 7


 343              		.size	I2C_StructInit, .-I2C_StructInit
 344              		.section	.text.I2C_Cmd,"ax",%progbits
 345              		.align	1
 346              		.p2align 4,,15
 347              		.global	I2C_Cmd
 348              		.syntax unified
 349              		.thumb
 350              		.thumb_func
 351              		.fpu fpv4-sp-d16
 352              		.type	I2C_Cmd, %function
 353              	I2C_Cmd:
 354              	.LFB114:
 355              		.loc 1 315 0
 356              		.cfi_startproc
 357              		@ args = 0, pretend = 0, frame = 0
 358              		@ frame_needed = 0, uses_anonymous_args = 0
 359              		@ link register save eliminated.
 360              	.LVL37:
 361              		.loc 1 322 0
 362 0000 0388     		ldrh	r3, [r0]
 363              		.loc 1 319 0
 364 0002 29B9     		cbnz	r1, .L28
 365              		.loc 1 327 0
 366 0004 23F00103 		bic	r3, r3, #1
 367 0008 1B04     		lsls	r3, r3, #16
 368 000a 1B0C     		lsrs	r3, r3, #16
 369 000c 0380     		strh	r3, [r0]	@ movhi
 370              		.loc 1 329 0
 371 000e 7047     		bx	lr
 372              	.L28:
 373              		.loc 1 322 0
 374 0010 43F00103 		orr	r3, r3, #1
 375 0014 0380     		strh	r3, [r0]	@ movhi
 376 0016 7047     		bx	lr
 377              		.cfi_endproc
 378              	.LFE114:
 379              		.size	I2C_Cmd, .-I2C_Cmd
 380              		.section	.text.I2C_GenerateSTART,"ax",%progbits
 381              		.align	1
 382              		.p2align 4,,15
 383              		.global	I2C_GenerateSTART
 384              		.syntax unified
 385              		.thumb
 386              		.thumb_func
 387              		.fpu fpv4-sp-d16
 388              		.type	I2C_GenerateSTART, %function
 389              	I2C_GenerateSTART:
 390              	.LFB115:
 391              		.loc 1 339 0
 392              		.cfi_startproc
 393              		@ args = 0, pretend = 0, frame = 0
 394              		@ frame_needed = 0, uses_anonymous_args = 0
 395              		@ link register save eliminated.
 396              	.LVL38:
 397              		.loc 1 346 0
 398 0000 0388     		ldrh	r3, [r0]
 399              		.loc 1 343 0
ARM GAS  /tmp/ccWcPBJM.s 			page 8


 400 0002 29B9     		cbnz	r1, .L32
 401              		.loc 1 351 0
 402 0004 23F48073 		bic	r3, r3, #256
 403 0008 1B04     		lsls	r3, r3, #16
 404 000a 1B0C     		lsrs	r3, r3, #16
 405 000c 0380     		strh	r3, [r0]	@ movhi
 406              		.loc 1 353 0
 407 000e 7047     		bx	lr
 408              	.L32:
 409              		.loc 1 346 0
 410 0010 43F48073 		orr	r3, r3, #256
 411 0014 0380     		strh	r3, [r0]	@ movhi
 412 0016 7047     		bx	lr
 413              		.cfi_endproc
 414              	.LFE115:
 415              		.size	I2C_GenerateSTART, .-I2C_GenerateSTART
 416              		.section	.text.I2C_GenerateSTOP,"ax",%progbits
 417              		.align	1
 418              		.p2align 4,,15
 419              		.global	I2C_GenerateSTOP
 420              		.syntax unified
 421              		.thumb
 422              		.thumb_func
 423              		.fpu fpv4-sp-d16
 424              		.type	I2C_GenerateSTOP, %function
 425              	I2C_GenerateSTOP:
 426              	.LFB116:
 427              		.loc 1 363 0
 428              		.cfi_startproc
 429              		@ args = 0, pretend = 0, frame = 0
 430              		@ frame_needed = 0, uses_anonymous_args = 0
 431              		@ link register save eliminated.
 432              	.LVL39:
 433              		.loc 1 370 0
 434 0000 0388     		ldrh	r3, [r0]
 435              		.loc 1 367 0
 436 0002 29B9     		cbnz	r1, .L36
 437              		.loc 1 375 0
 438 0004 23F40073 		bic	r3, r3, #512
 439 0008 1B04     		lsls	r3, r3, #16
 440 000a 1B0C     		lsrs	r3, r3, #16
 441 000c 0380     		strh	r3, [r0]	@ movhi
 442              		.loc 1 377 0
 443 000e 7047     		bx	lr
 444              	.L36:
 445              		.loc 1 370 0
 446 0010 43F40073 		orr	r3, r3, #512
 447 0014 0380     		strh	r3, [r0]	@ movhi
 448 0016 7047     		bx	lr
 449              		.cfi_endproc
 450              	.LFE116:
 451              		.size	I2C_GenerateSTOP, .-I2C_GenerateSTOP
 452              		.section	.text.I2C_Send7bitAddress,"ax",%progbits
 453              		.align	1
 454              		.p2align 4,,15
 455              		.global	I2C_Send7bitAddress
 456              		.syntax unified
ARM GAS  /tmp/ccWcPBJM.s 			page 9


 457              		.thumb
 458              		.thumb_func
 459              		.fpu fpv4-sp-d16
 460              		.type	I2C_Send7bitAddress, %function
 461              	I2C_Send7bitAddress:
 462              	.LFB117:
 463              		.loc 1 391 0
 464              		.cfi_startproc
 465              		@ args = 0, pretend = 0, frame = 0
 466              		@ frame_needed = 0, uses_anonymous_args = 0
 467              		@ link register save eliminated.
 468              	.LVL40:
 469              		.loc 1 396 0
 470 0000 22B9     		cbnz	r2, .L40
 471              		.loc 1 404 0
 472 0002 01F0FE01 		and	r1, r1, #254
 473              	.LVL41:
 474              		.loc 1 407 0
 475 0006 89B2     		uxth	r1, r1
 476              	.LVL42:
 477 0008 0182     		strh	r1, [r0, #16]	@ movhi
 478              		.loc 1 408 0
 479 000a 7047     		bx	lr
 480              	.LVL43:
 481              	.L40:
 482              		.loc 1 399 0
 483 000c 41F00101 		orr	r1, r1, #1
 484              	.LVL44:
 485              		.loc 1 407 0
 486 0010 89B2     		uxth	r1, r1
 487              	.LVL45:
 488 0012 0182     		strh	r1, [r0, #16]	@ movhi
 489              		.loc 1 408 0
 490 0014 7047     		bx	lr
 491              		.cfi_endproc
 492              	.LFE117:
 493              		.size	I2C_Send7bitAddress, .-I2C_Send7bitAddress
 494 0016 00BF     		.section	.text.I2C_AcknowledgeConfig,"ax",%progbits
 495              		.align	1
 496              		.p2align 4,,15
 497              		.global	I2C_AcknowledgeConfig
 498              		.syntax unified
 499              		.thumb
 500              		.thumb_func
 501              		.fpu fpv4-sp-d16
 502              		.type	I2C_AcknowledgeConfig, %function
 503              	I2C_AcknowledgeConfig:
 504              	.LFB118:
 505              		.loc 1 418 0
 506              		.cfi_startproc
 507              		@ args = 0, pretend = 0, frame = 0
 508              		@ frame_needed = 0, uses_anonymous_args = 0
 509              		@ link register save eliminated.
 510              	.LVL46:
 511              		.loc 1 425 0
 512 0000 0388     		ldrh	r3, [r0]
 513              		.loc 1 422 0
ARM GAS  /tmp/ccWcPBJM.s 			page 10


 514 0002 29B9     		cbnz	r1, .L44
 515              		.loc 1 430 0
 516 0004 23F48063 		bic	r3, r3, #1024
 517 0008 1B04     		lsls	r3, r3, #16
 518 000a 1B0C     		lsrs	r3, r3, #16
 519 000c 0380     		strh	r3, [r0]	@ movhi
 520              		.loc 1 432 0
 521 000e 7047     		bx	lr
 522              	.L44:
 523              		.loc 1 425 0
 524 0010 43F48063 		orr	r3, r3, #1024
 525 0014 0380     		strh	r3, [r0]	@ movhi
 526 0016 7047     		bx	lr
 527              		.cfi_endproc
 528              	.LFE118:
 529              		.size	I2C_AcknowledgeConfig, .-I2C_AcknowledgeConfig
 530              		.section	.text.I2C_OwnAddress2Config,"ax",%progbits
 531              		.align	1
 532              		.p2align 4,,15
 533              		.global	I2C_OwnAddress2Config
 534              		.syntax unified
 535              		.thumb
 536              		.thumb_func
 537              		.fpu fpv4-sp-d16
 538              		.type	I2C_OwnAddress2Config, %function
 539              	I2C_OwnAddress2Config:
 540              	.LFB119:
 541              		.loc 1 441 0
 542              		.cfi_startproc
 543              		@ args = 0, pretend = 0, frame = 0
 544              		@ frame_needed = 0, uses_anonymous_args = 0
 545              		@ link register save eliminated.
 546              	.LVL47:
 547              		.loc 1 448 0
 548 0000 8389     		ldrh	r3, [r0, #12]
 549 0002 9BB2     		uxth	r3, r3
 550              	.LVL48:
 551              		.loc 1 454 0
 552 0004 01F0FE01 		and	r1, r1, #254
 553              	.LVL49:
 554              		.loc 1 451 0
 555 0008 23F0FE03 		bic	r3, r3, #254
 556              	.LVL50:
 557              		.loc 1 454 0
 558 000c 0B43     		orrs	r3, r3, r1
 559              	.LVL51:
 560              		.loc 1 457 0
 561 000e 8381     		strh	r3, [r0, #12]	@ movhi
 562              		.loc 1 458 0
 563 0010 7047     		bx	lr
 564              		.cfi_endproc
 565              	.LFE119:
 566              		.size	I2C_OwnAddress2Config, .-I2C_OwnAddress2Config
 567 0012 00BF     		.section	.text.I2C_DualAddressCmd,"ax",%progbits
 568              		.align	1
 569              		.p2align 4,,15
 570              		.global	I2C_DualAddressCmd
ARM GAS  /tmp/ccWcPBJM.s 			page 11


 571              		.syntax unified
 572              		.thumb
 573              		.thumb_func
 574              		.fpu fpv4-sp-d16
 575              		.type	I2C_DualAddressCmd, %function
 576              	I2C_DualAddressCmd:
 577              	.LFB120:
 578              		.loc 1 468 0
 579              		.cfi_startproc
 580              		@ args = 0, pretend = 0, frame = 0
 581              		@ frame_needed = 0, uses_anonymous_args = 0
 582              		@ link register save eliminated.
 583              	.LVL52:
 584              		.loc 1 475 0
 585 0000 8389     		ldrh	r3, [r0, #12]
 586              		.loc 1 472 0
 587 0002 29B9     		cbnz	r1, .L49
 588              		.loc 1 480 0
 589 0004 23F00103 		bic	r3, r3, #1
 590 0008 1B04     		lsls	r3, r3, #16
 591 000a 1B0C     		lsrs	r3, r3, #16
 592 000c 8381     		strh	r3, [r0, #12]	@ movhi
 593              		.loc 1 482 0
 594 000e 7047     		bx	lr
 595              	.L49:
 596              		.loc 1 475 0
 597 0010 43F00103 		orr	r3, r3, #1
 598 0014 8381     		strh	r3, [r0, #12]	@ movhi
 599 0016 7047     		bx	lr
 600              		.cfi_endproc
 601              	.LFE120:
 602              		.size	I2C_DualAddressCmd, .-I2C_DualAddressCmd
 603              		.section	.text.I2C_GeneralCallCmd,"ax",%progbits
 604              		.align	1
 605              		.p2align 4,,15
 606              		.global	I2C_GeneralCallCmd
 607              		.syntax unified
 608              		.thumb
 609              		.thumb_func
 610              		.fpu fpv4-sp-d16
 611              		.type	I2C_GeneralCallCmd, %function
 612              	I2C_GeneralCallCmd:
 613              	.LFB121:
 614              		.loc 1 492 0
 615              		.cfi_startproc
 616              		@ args = 0, pretend = 0, frame = 0
 617              		@ frame_needed = 0, uses_anonymous_args = 0
 618              		@ link register save eliminated.
 619              	.LVL53:
 620              		.loc 1 499 0
 621 0000 0388     		ldrh	r3, [r0]
 622              		.loc 1 496 0
 623 0002 29B9     		cbnz	r1, .L53
 624              		.loc 1 504 0
 625 0004 23F04003 		bic	r3, r3, #64
 626 0008 1B04     		lsls	r3, r3, #16
 627 000a 1B0C     		lsrs	r3, r3, #16
ARM GAS  /tmp/ccWcPBJM.s 			page 12


 628 000c 0380     		strh	r3, [r0]	@ movhi
 629              		.loc 1 506 0
 630 000e 7047     		bx	lr
 631              	.L53:
 632              		.loc 1 499 0
 633 0010 43F04003 		orr	r3, r3, #64
 634 0014 0380     		strh	r3, [r0]	@ movhi
 635 0016 7047     		bx	lr
 636              		.cfi_endproc
 637              	.LFE121:
 638              		.size	I2C_GeneralCallCmd, .-I2C_GeneralCallCmd
 639              		.section	.text.I2C_SoftwareResetCmd,"ax",%progbits
 640              		.align	1
 641              		.p2align 4,,15
 642              		.global	I2C_SoftwareResetCmd
 643              		.syntax unified
 644              		.thumb
 645              		.thumb_func
 646              		.fpu fpv4-sp-d16
 647              		.type	I2C_SoftwareResetCmd, %function
 648              	I2C_SoftwareResetCmd:
 649              	.LFB122:
 650              		.loc 1 518 0
 651              		.cfi_startproc
 652              		@ args = 0, pretend = 0, frame = 0
 653              		@ frame_needed = 0, uses_anonymous_args = 0
 654              		@ link register save eliminated.
 655              	.LVL54:
 656              		.loc 1 525 0
 657 0000 0388     		ldrh	r3, [r0]
 658              		.loc 1 522 0
 659 0002 19B9     		cbnz	r1, .L57
 660              		.loc 1 530 0
 661 0004 C3F30E03 		ubfx	r3, r3, #0, #15
 662 0008 0380     		strh	r3, [r0]	@ movhi
 663              		.loc 1 532 0
 664 000a 7047     		bx	lr
 665              	.L57:
 666              		.loc 1 525 0
 667 000c 43F40043 		orr	r3, r3, #32768
 668 0010 0380     		strh	r3, [r0]	@ movhi
 669 0012 7047     		bx	lr
 670              		.cfi_endproc
 671              	.LFE122:
 672              		.size	I2C_SoftwareResetCmd, .-I2C_SoftwareResetCmd
 673              		.section	.text.I2C_StretchClockCmd,"ax",%progbits
 674              		.align	1
 675              		.p2align 4,,15
 676              		.global	I2C_StretchClockCmd
 677              		.syntax unified
 678              		.thumb
 679              		.thumb_func
 680              		.fpu fpv4-sp-d16
 681              		.type	I2C_StretchClockCmd, %function
 682              	I2C_StretchClockCmd:
 683              	.LFB123:
 684              		.loc 1 542 0
ARM GAS  /tmp/ccWcPBJM.s 			page 13


 685              		.cfi_startproc
 686              		@ args = 0, pretend = 0, frame = 0
 687              		@ frame_needed = 0, uses_anonymous_args = 0
 688              		@ link register save eliminated.
 689              	.LVL55:
 690              		.loc 1 549 0
 691 0000 0388     		ldrh	r3, [r0]
 692              		.loc 1 546 0
 693 0002 29B1     		cbz	r1, .L61
 694              		.loc 1 554 0
 695 0004 23F08003 		bic	r3, r3, #128
 696 0008 1B04     		lsls	r3, r3, #16
 697 000a 1B0C     		lsrs	r3, r3, #16
 698 000c 0380     		strh	r3, [r0]	@ movhi
 699              		.loc 1 556 0
 700 000e 7047     		bx	lr
 701              	.L61:
 702              		.loc 1 549 0
 703 0010 43F08003 		orr	r3, r3, #128
 704 0014 0380     		strh	r3, [r0]	@ movhi
 705 0016 7047     		bx	lr
 706              		.cfi_endproc
 707              	.LFE123:
 708              		.size	I2C_StretchClockCmd, .-I2C_StretchClockCmd
 709              		.section	.text.I2C_FastModeDutyCycleConfig,"ax",%progbits
 710              		.align	1
 711              		.p2align 4,,15
 712              		.global	I2C_FastModeDutyCycleConfig
 713              		.syntax unified
 714              		.thumb
 715              		.thumb_func
 716              		.fpu fpv4-sp-d16
 717              		.type	I2C_FastModeDutyCycleConfig, %function
 718              	I2C_FastModeDutyCycleConfig:
 719              	.LFB124:
 720              		.loc 1 568 0
 721              		.cfi_startproc
 722              		@ args = 0, pretend = 0, frame = 0
 723              		@ frame_needed = 0, uses_anonymous_args = 0
 724              		@ link register save eliminated.
 725              	.LVL56:
 726              		.loc 1 575 0
 727 0000 838B     		ldrh	r3, [r0, #28]
 728              		.loc 1 572 0
 729 0002 B1F5804F 		cmp	r1, #16384
 730              		.loc 1 575 0
 731 0006 1DBF     		ittte	ne
 732 0008 23F48043 		bicne	r3, r3, #16384
 733 000c 1B04     		lslne	r3, r3, #16
 734 000e 1B0C     		lsrne	r3, r3, #16
 735              		.loc 1 580 0
 736 0010 43F48043 		orreq	r3, r3, #16384
 737 0014 8383     		strh	r3, [r0, #28]	@ movhi
 738              		.loc 1 582 0
 739 0016 7047     		bx	lr
 740              		.cfi_endproc
 741              	.LFE124:
ARM GAS  /tmp/ccWcPBJM.s 			page 14


 742              		.size	I2C_FastModeDutyCycleConfig, .-I2C_FastModeDutyCycleConfig
 743              		.section	.text.I2C_NACKPositionConfig,"ax",%progbits
 744              		.align	1
 745              		.p2align 4,,15
 746              		.global	I2C_NACKPositionConfig
 747              		.syntax unified
 748              		.thumb
 749              		.thumb_func
 750              		.fpu fpv4-sp-d16
 751              		.type	I2C_NACKPositionConfig, %function
 752              	I2C_NACKPositionConfig:
 753              	.LFB125:
 754              		.loc 1 606 0
 755              		.cfi_startproc
 756              		@ args = 0, pretend = 0, frame = 0
 757              		@ frame_needed = 0, uses_anonymous_args = 0
 758              		@ link register save eliminated.
 759              	.LVL57:
 760              		.loc 1 615 0
 761 0000 0388     		ldrh	r3, [r0]
 762              		.loc 1 612 0
 763 0002 B1F5006F 		cmp	r1, #2048
 764              		.loc 1 620 0
 765 0006 1BBF     		ittet	ne
 766 0008 23F40063 		bicne	r3, r3, #2048
 767 000c 1B04     		lslne	r3, r3, #16
 768              		.loc 1 615 0
 769 000e 43F40063 		orreq	r3, r3, #2048
 770              		.loc 1 620 0
 771 0012 1B0C     		lsrne	r3, r3, #16
 772 0014 0380     		strh	r3, [r0]	@ movhi
 773              		.loc 1 622 0
 774 0016 7047     		bx	lr
 775              		.cfi_endproc
 776              	.LFE125:
 777              		.size	I2C_NACKPositionConfig, .-I2C_NACKPositionConfig
 778              		.section	.text.I2C_SMBusAlertConfig,"ax",%progbits
 779              		.align	1
 780              		.p2align 4,,15
 781              		.global	I2C_SMBusAlertConfig
 782              		.syntax unified
 783              		.thumb
 784              		.thumb_func
 785              		.fpu fpv4-sp-d16
 786              		.type	I2C_SMBusAlertConfig, %function
 787              	I2C_SMBusAlertConfig:
 788              	.LFB126:
 789              		.loc 1 634 0
 790              		.cfi_startproc
 791              		@ args = 0, pretend = 0, frame = 0
 792              		@ frame_needed = 0, uses_anonymous_args = 0
 793              		@ link register save eliminated.
 794              	.LVL58:
 795              		.loc 1 641 0
 796 0000 0388     		ldrh	r3, [r0]
 797              		.loc 1 638 0
 798 0002 B1F5005F 		cmp	r1, #8192
ARM GAS  /tmp/ccWcPBJM.s 			page 15


 799              		.loc 1 646 0
 800 0006 1BBF     		ittet	ne
 801 0008 23F40053 		bicne	r3, r3, #8192
 802 000c 1B04     		lslne	r3, r3, #16
 803              		.loc 1 641 0
 804 000e 43F40053 		orreq	r3, r3, #8192
 805              		.loc 1 646 0
 806 0012 1B0C     		lsrne	r3, r3, #16
 807 0014 0380     		strh	r3, [r0]	@ movhi
 808              		.loc 1 648 0
 809 0016 7047     		bx	lr
 810              		.cfi_endproc
 811              	.LFE126:
 812              		.size	I2C_SMBusAlertConfig, .-I2C_SMBusAlertConfig
 813              		.section	.text.I2C_ARPCmd,"ax",%progbits
 814              		.align	1
 815              		.p2align 4,,15
 816              		.global	I2C_ARPCmd
 817              		.syntax unified
 818              		.thumb
 819              		.thumb_func
 820              		.fpu fpv4-sp-d16
 821              		.type	I2C_ARPCmd, %function
 822              	I2C_ARPCmd:
 823              	.LFB127:
 824              		.loc 1 658 0
 825              		.cfi_startproc
 826              		@ args = 0, pretend = 0, frame = 0
 827              		@ frame_needed = 0, uses_anonymous_args = 0
 828              		@ link register save eliminated.
 829              	.LVL59:
 830              		.loc 1 665 0
 831 0000 0388     		ldrh	r3, [r0]
 832              		.loc 1 662 0
 833 0002 29B9     		cbnz	r1, .L74
 834              		.loc 1 670 0
 835 0004 23F01003 		bic	r3, r3, #16
 836 0008 1B04     		lsls	r3, r3, #16
 837 000a 1B0C     		lsrs	r3, r3, #16
 838 000c 0380     		strh	r3, [r0]	@ movhi
 839              		.loc 1 672 0
 840 000e 7047     		bx	lr
 841              	.L74:
 842              		.loc 1 665 0
 843 0010 43F01003 		orr	r3, r3, #16
 844 0014 0380     		strh	r3, [r0]	@ movhi
 845 0016 7047     		bx	lr
 846              		.cfi_endproc
 847              	.LFE127:
 848              		.size	I2C_ARPCmd, .-I2C_ARPCmd
 849              		.section	.text.I2C_SendData,"ax",%progbits
 850              		.align	1
 851              		.p2align 4,,15
 852              		.global	I2C_SendData
 853              		.syntax unified
 854              		.thumb
 855              		.thumb_func
ARM GAS  /tmp/ccWcPBJM.s 			page 16


 856              		.fpu fpv4-sp-d16
 857              		.type	I2C_SendData, %function
 858              	I2C_SendData:
 859              	.LFB128:
 860              		.loc 1 696 0
 861              		.cfi_startproc
 862              		@ args = 0, pretend = 0, frame = 0
 863              		@ frame_needed = 0, uses_anonymous_args = 0
 864              		@ link register save eliminated.
 865              	.LVL60:
 866              		.loc 1 700 0
 867 0000 0182     		strh	r1, [r0, #16]	@ movhi
 868              		.loc 1 701 0
 869 0002 7047     		bx	lr
 870              		.cfi_endproc
 871              	.LFE128:
 872              		.size	I2C_SendData, .-I2C_SendData
 873              		.section	.text.I2C_ReceiveData,"ax",%progbits
 874              		.align	1
 875              		.p2align 4,,15
 876              		.global	I2C_ReceiveData
 877              		.syntax unified
 878              		.thumb
 879              		.thumb_func
 880              		.fpu fpv4-sp-d16
 881              		.type	I2C_ReceiveData, %function
 882              	I2C_ReceiveData:
 883              	.LFB129:
 884              		.loc 1 709 0
 885              		.cfi_startproc
 886              		@ args = 0, pretend = 0, frame = 0
 887              		@ frame_needed = 0, uses_anonymous_args = 0
 888              		@ link register save eliminated.
 889              	.LVL61:
 890              		.loc 1 713 0
 891 0000 008A     		ldrh	r0, [r0, #16]
 892              	.LVL62:
 893              		.loc 1 714 0
 894 0002 C0B2     		uxtb	r0, r0
 895 0004 7047     		bx	lr
 896              		.cfi_endproc
 897              	.LFE129:
 898              		.size	I2C_ReceiveData, .-I2C_ReceiveData
 899 0006 00BF     		.section	.text.I2C_TransmitPEC,"ax",%progbits
 900              		.align	1
 901              		.p2align 4,,15
 902              		.global	I2C_TransmitPEC
 903              		.syntax unified
 904              		.thumb
 905              		.thumb_func
 906              		.fpu fpv4-sp-d16
 907              		.type	I2C_TransmitPEC, %function
 908              	I2C_TransmitPEC:
 909              	.LFB130:
 910              		.loc 1 740 0
 911              		.cfi_startproc
 912              		@ args = 0, pretend = 0, frame = 0
ARM GAS  /tmp/ccWcPBJM.s 			page 17


 913              		@ frame_needed = 0, uses_anonymous_args = 0
 914              		@ link register save eliminated.
 915              	.LVL63:
 916              		.loc 1 747 0
 917 0000 0388     		ldrh	r3, [r0]
 918              		.loc 1 744 0
 919 0002 29B9     		cbnz	r1, .L80
 920              		.loc 1 752 0
 921 0004 23F48053 		bic	r3, r3, #4096
 922 0008 1B04     		lsls	r3, r3, #16
 923 000a 1B0C     		lsrs	r3, r3, #16
 924 000c 0380     		strh	r3, [r0]	@ movhi
 925              		.loc 1 754 0
 926 000e 7047     		bx	lr
 927              	.L80:
 928              		.loc 1 747 0
 929 0010 43F48053 		orr	r3, r3, #4096
 930 0014 0380     		strh	r3, [r0]	@ movhi
 931 0016 7047     		bx	lr
 932              		.cfi_endproc
 933              	.LFE130:
 934              		.size	I2C_TransmitPEC, .-I2C_TransmitPEC
 935              		.section	.text.I2C_PECPositionConfig,"ax",%progbits
 936              		.align	1
 937              		.p2align 4,,15
 938              		.global	I2C_PECPositionConfig
 939              		.syntax unified
 940              		.thumb
 941              		.thumb_func
 942              		.fpu fpv4-sp-d16
 943              		.type	I2C_PECPositionConfig, %function
 944              	I2C_PECPositionConfig:
 945              	.LFB145:
 946              		.cfi_startproc
 947              		@ args = 0, pretend = 0, frame = 0
 948              		@ frame_needed = 0, uses_anonymous_args = 0
 949              		@ link register save eliminated.
 950 0000 FFF7FEBF 		b	I2C_NACKPositionConfig
 951              		.cfi_endproc
 952              	.LFE145:
 953              		.size	I2C_PECPositionConfig, .-I2C_PECPositionConfig
 954              		.section	.text.I2C_CalculatePEC,"ax",%progbits
 955              		.align	1
 956              		.p2align 4,,15
 957              		.global	I2C_CalculatePEC
 958              		.syntax unified
 959              		.thumb
 960              		.thumb_func
 961              		.fpu fpv4-sp-d16
 962              		.type	I2C_CalculatePEC, %function
 963              	I2C_CalculatePEC:
 964              	.LFB132:
 965              		.loc 1 795 0
 966              		.cfi_startproc
 967              		@ args = 0, pretend = 0, frame = 0
 968              		@ frame_needed = 0, uses_anonymous_args = 0
 969              		@ link register save eliminated.
ARM GAS  /tmp/ccWcPBJM.s 			page 18


 970              	.LVL64:
 971              		.loc 1 802 0
 972 0000 0388     		ldrh	r3, [r0]
 973              		.loc 1 799 0
 974 0002 29B9     		cbnz	r1, .L85
 975              		.loc 1 807 0
 976 0004 23F02003 		bic	r3, r3, #32
 977 0008 1B04     		lsls	r3, r3, #16
 978 000a 1B0C     		lsrs	r3, r3, #16
 979 000c 0380     		strh	r3, [r0]	@ movhi
 980              		.loc 1 809 0
 981 000e 7047     		bx	lr
 982              	.L85:
 983              		.loc 1 802 0
 984 0010 43F02003 		orr	r3, r3, #32
 985 0014 0380     		strh	r3, [r0]	@ movhi
 986 0016 7047     		bx	lr
 987              		.cfi_endproc
 988              	.LFE132:
 989              		.size	I2C_CalculatePEC, .-I2C_CalculatePEC
 990              		.section	.text.I2C_GetPEC,"ax",%progbits
 991              		.align	1
 992              		.p2align 4,,15
 993              		.global	I2C_GetPEC
 994              		.syntax unified
 995              		.thumb
 996              		.thumb_func
 997              		.fpu fpv4-sp-d16
 998              		.type	I2C_GetPEC, %function
 999              	I2C_GetPEC:
 1000              	.LFB133:
 1001              		.loc 1 817 0
 1002              		.cfi_startproc
 1003              		@ args = 0, pretend = 0, frame = 0
 1004              		@ frame_needed = 0, uses_anonymous_args = 0
 1005              		@ link register save eliminated.
 1006              	.LVL65:
 1007              		.loc 1 821 0
 1008 0000 008B     		ldrh	r0, [r0, #24]
 1009              	.LVL66:
 1010              		.loc 1 822 0
 1011 0002 000A     		lsrs	r0, r0, #8
 1012 0004 7047     		bx	lr
 1013              		.cfi_endproc
 1014              	.LFE133:
 1015              		.size	I2C_GetPEC, .-I2C_GetPEC
 1016 0006 00BF     		.section	.text.I2C_DMACmd,"ax",%progbits
 1017              		.align	1
 1018              		.p2align 4,,15
 1019              		.global	I2C_DMACmd
 1020              		.syntax unified
 1021              		.thumb
 1022              		.thumb_func
 1023              		.fpu fpv4-sp-d16
 1024              		.type	I2C_DMACmd, %function
 1025              	I2C_DMACmd:
 1026              	.LFB134:
ARM GAS  /tmp/ccWcPBJM.s 			page 19


 1027              		.loc 1 850 0
 1028              		.cfi_startproc
 1029              		@ args = 0, pretend = 0, frame = 0
 1030              		@ frame_needed = 0, uses_anonymous_args = 0
 1031              		@ link register save eliminated.
 1032              	.LVL67:
 1033              		.loc 1 857 0
 1034 0000 8388     		ldrh	r3, [r0, #4]
 1035              		.loc 1 854 0
 1036 0002 29B9     		cbnz	r1, .L90
 1037              		.loc 1 862 0
 1038 0004 23F40063 		bic	r3, r3, #2048
 1039 0008 1B04     		lsls	r3, r3, #16
 1040 000a 1B0C     		lsrs	r3, r3, #16
 1041 000c 8380     		strh	r3, [r0, #4]	@ movhi
 1042              		.loc 1 864 0
 1043 000e 7047     		bx	lr
 1044              	.L90:
 1045              		.loc 1 857 0
 1046 0010 43F40063 		orr	r3, r3, #2048
 1047 0014 8380     		strh	r3, [r0, #4]	@ movhi
 1048 0016 7047     		bx	lr
 1049              		.cfi_endproc
 1050              	.LFE134:
 1051              		.size	I2C_DMACmd, .-I2C_DMACmd
 1052              		.section	.text.I2C_DMALastTransferCmd,"ax",%progbits
 1053              		.align	1
 1054              		.p2align 4,,15
 1055              		.global	I2C_DMALastTransferCmd
 1056              		.syntax unified
 1057              		.thumb
 1058              		.thumb_func
 1059              		.fpu fpv4-sp-d16
 1060              		.type	I2C_DMALastTransferCmd, %function
 1061              	I2C_DMALastTransferCmd:
 1062              	.LFB135:
 1063              		.loc 1 874 0
 1064              		.cfi_startproc
 1065              		@ args = 0, pretend = 0, frame = 0
 1066              		@ frame_needed = 0, uses_anonymous_args = 0
 1067              		@ link register save eliminated.
 1068              	.LVL68:
 1069              		.loc 1 881 0
 1070 0000 8388     		ldrh	r3, [r0, #4]
 1071              		.loc 1 878 0
 1072 0002 29B9     		cbnz	r1, .L94
 1073              		.loc 1 886 0
 1074 0004 23F48053 		bic	r3, r3, #4096
 1075 0008 1B04     		lsls	r3, r3, #16
 1076 000a 1B0C     		lsrs	r3, r3, #16
 1077 000c 8380     		strh	r3, [r0, #4]	@ movhi
 1078              		.loc 1 888 0
 1079 000e 7047     		bx	lr
 1080              	.L94:
 1081              		.loc 1 881 0
 1082 0010 43F48053 		orr	r3, r3, #4096
 1083 0014 8380     		strh	r3, [r0, #4]	@ movhi
ARM GAS  /tmp/ccWcPBJM.s 			page 20


 1084 0016 7047     		bx	lr
 1085              		.cfi_endproc
 1086              	.LFE135:
 1087              		.size	I2C_DMALastTransferCmd, .-I2C_DMALastTransferCmd
 1088              		.section	.text.I2C_ReadRegister,"ax",%progbits
 1089              		.align	1
 1090              		.p2align 4,,15
 1091              		.global	I2C_ReadRegister
 1092              		.syntax unified
 1093              		.thumb
 1094              		.thumb_func
 1095              		.fpu fpv4-sp-d16
 1096              		.type	I2C_ReadRegister, %function
 1097              	I2C_ReadRegister:
 1098              	.LFB136:
 1099              		.loc 1 1012 0
 1100              		.cfi_startproc
 1101              		@ args = 0, pretend = 0, frame = 8
 1102              		@ frame_needed = 0, uses_anonymous_args = 0
 1103              		@ link register save eliminated.
 1104              	.LVL69:
 1105 0000 82B0     		sub	sp, sp, #8
 1106              		.cfi_def_cfa_offset 8
 1107              		.loc 1 1013 0
 1108 0002 0023     		movs	r3, #0
 1109 0004 0193     		str	r3, [sp, #4]
 1110              		.loc 1 1019 0
 1111 0006 0190     		str	r0, [sp, #4]
 1112              		.loc 1 1020 0
 1113 0008 019B     		ldr	r3, [sp, #4]
 1114 000a 1944     		add	r1, r1, r3
 1115              	.LVL70:
 1116 000c 0191     		str	r1, [sp, #4]
 1117              		.loc 1 1023 0
 1118 000e 019B     		ldr	r3, [sp, #4]
 1119 0010 1888     		ldrh	r0, [r3]
 1120              	.LVL71:
 1121              		.loc 1 1024 0
 1122 0012 02B0     		add	sp, sp, #8
 1123              		.cfi_def_cfa_offset 0
 1124              		@ sp needed
 1125 0014 7047     		bx	lr
 1126              		.cfi_endproc
 1127              	.LFE136:
 1128              		.size	I2C_ReadRegister, .-I2C_ReadRegister
 1129 0016 00BF     		.section	.text.I2C_ITConfig,"ax",%progbits
 1130              		.align	1
 1131              		.p2align 4,,15
 1132              		.global	I2C_ITConfig
 1133              		.syntax unified
 1134              		.thumb
 1135              		.thumb_func
 1136              		.fpu fpv4-sp-d16
 1137              		.type	I2C_ITConfig, %function
 1138              	I2C_ITConfig:
 1139              	.LFB137:
 1140              		.loc 1 1039 0
ARM GAS  /tmp/ccWcPBJM.s 			page 21


 1141              		.cfi_startproc
 1142              		@ args = 0, pretend = 0, frame = 0
 1143              		@ frame_needed = 0, uses_anonymous_args = 0
 1144              		@ link register save eliminated.
 1145              	.LVL72:
 1146              		.loc 1 1048 0
 1147 0000 8388     		ldrh	r3, [r0, #4]
 1148              		.loc 1 1045 0
 1149 0002 1AB9     		cbnz	r2, .L100
 1150              		.loc 1 1053 0
 1151 0004 23EA0101 		bic	r1, r3, r1
 1152              	.LVL73:
 1153 0008 8180     		strh	r1, [r0, #4]	@ movhi
 1154              		.loc 1 1055 0
 1155 000a 7047     		bx	lr
 1156              	.LVL74:
 1157              	.L100:
 1158              		.loc 1 1048 0
 1159 000c 1943     		orrs	r1, r1, r3
 1160              	.LVL75:
 1161 000e 8180     		strh	r1, [r0, #4]	@ movhi
 1162 0010 7047     		bx	lr
 1163              		.cfi_endproc
 1164              	.LFE137:
 1165              		.size	I2C_ITConfig, .-I2C_ITConfig
 1166              		.section	.text.I2C_CheckEvent,"ax",%progbits
 1167              		.align	1
 1168              		.p2align 4,,15
 1169              		.global	I2C_CheckEvent
 1170              		.syntax unified
 1171              		.thumb
 1172              		.thumb_func
 1173              		.fpu fpv4-sp-d16
 1174              		.type	I2C_CheckEvent, %function
 1175              	I2C_CheckEvent:
 1176              	.LFB138:
 1177              		.loc 1 1098 0
 1178              		.cfi_startproc
 1179              		@ args = 0, pretend = 0, frame = 0
 1180              		@ frame_needed = 0, uses_anonymous_args = 0
 1181              		@ link register save eliminated.
 1182              	.LVL76:
 1183              		.loc 1 1108 0
 1184 0000 838A     		ldrh	r3, [r0, #20]
 1185              	.LVL77:
 1186              		.loc 1 1109 0
 1187 0002 028B     		ldrh	r2, [r0, #24]
 1188              	.LVL78:
 1189              		.loc 1 1116 0
 1190 0004 21F07F40 		bic	r0, r1, #-16777216
 1191              	.LVL79:
 1192              		.loc 1 1113 0
 1193 0008 43EA0243 		orr	r3, r3, r2, lsl #16
 1194              	.LVL80:
 1195              		.loc 1 1116 0
 1196 000c 1840     		ands	r0, r0, r3
 1197              		.loc 1 1128 0
ARM GAS  /tmp/ccWcPBJM.s 			page 22


 1198 000e 401A     		subs	r0, r0, r1
 1199 0010 B0FA80F0 		clz	r0, r0
 1200 0014 4009     		lsrs	r0, r0, #5
 1201 0016 7047     		bx	lr
 1202              		.cfi_endproc
 1203              	.LFE138:
 1204              		.size	I2C_CheckEvent, .-I2C_CheckEvent
 1205              		.section	.text.I2C_GetLastEvent,"ax",%progbits
 1206              		.align	1
 1207              		.p2align 4,,15
 1208              		.global	I2C_GetLastEvent
 1209              		.syntax unified
 1210              		.thumb
 1211              		.thumb_func
 1212              		.fpu fpv4-sp-d16
 1213              		.type	I2C_GetLastEvent, %function
 1214              	I2C_GetLastEvent:
 1215              	.LFB139:
 1216              		.loc 1 1146 0
 1217              		.cfi_startproc
 1218              		@ args = 0, pretend = 0, frame = 0
 1219              		@ frame_needed = 0, uses_anonymous_args = 0
 1220              		@ link register save eliminated.
 1221              	.LVL81:
 1222              		.loc 1 1154 0
 1223 0000 838A     		ldrh	r3, [r0, #20]
 1224              	.LVL82:
 1225              		.loc 1 1155 0
 1226 0002 008B     		ldrh	r0, [r0, #24]
 1227              	.LVL83:
 1228              		.loc 1 1159 0
 1229 0004 43EA0040 		orr	r0, r3, r0, lsl #16
 1230              	.LVL84:
 1231              		.loc 1 1163 0
 1232 0008 20F07F40 		bic	r0, r0, #-16777216
 1233 000c 7047     		bx	lr
 1234              		.cfi_endproc
 1235              	.LFE139:
 1236              		.size	I2C_GetLastEvent, .-I2C_GetLastEvent
 1237 000e 00BF     		.section	.text.I2C_GetFlagStatus,"ax",%progbits
 1238              		.align	1
 1239              		.p2align 4,,15
 1240              		.global	I2C_GetFlagStatus
 1241              		.syntax unified
 1242              		.thumb
 1243              		.thumb_func
 1244              		.fpu fpv4-sp-d16
 1245              		.type	I2C_GetFlagStatus, %function
 1246              	I2C_GetFlagStatus:
 1247              	.LFB140:
 1248              		.loc 1 1201 0
 1249              		.cfi_startproc
 1250              		@ args = 0, pretend = 0, frame = 8
 1251              		@ frame_needed = 0, uses_anonymous_args = 0
 1252              		@ link register save eliminated.
 1253              	.LVL85:
 1254 0000 82B0     		sub	sp, sp, #8
ARM GAS  /tmp/ccWcPBJM.s 			page 23


 1255              		.cfi_def_cfa_offset 8
 1256              		.loc 1 1203 0
 1257 0002 0023     		movs	r3, #0
 1258              		.loc 1 1213 0
 1259 0004 0A0F     		lsrs	r2, r1, #28
 1260              		.loc 1 1203 0
 1261 0006 0093     		str	r3, [sp]
 1262 0008 0193     		str	r3, [sp, #4]
 1263              		.loc 1 1210 0
 1264 000a 0190     		str	r0, [sp, #4]
 1265              		.loc 1 1213 0
 1266 000c 0092     		str	r2, [sp]
 1267              		.loc 1 1218 0
 1268 000e 009B     		ldr	r3, [sp]
 1269              		.loc 1 1216 0
 1270 0010 21F07F41 		bic	r1, r1, #-16777216
 1271              	.LVL86:
 1272              		.loc 1 1218 0
 1273 0014 53B1     		cbz	r3, .L104
 1274              		.loc 1 1221 0
 1275 0016 019B     		ldr	r3, [sp, #4]
 1276 0018 1433     		adds	r3, r3, #20
 1277 001a 0193     		str	r3, [sp, #4]
 1278              	.L105:
 1279              		.loc 1 1231 0
 1280 001c 019B     		ldr	r3, [sp, #4]
 1281 001e 1B68     		ldr	r3, [r3]
 1282              	.LVL87:
 1283 0020 0B42     		tst	r3, r1
 1284              		.loc 1 1244 0
 1285 0022 14BF     		ite	ne
 1286 0024 0120     		movne	r0, #1
 1287              	.LVL88:
 1288 0026 0020     		moveq	r0, #0
 1289 0028 02B0     		add	sp, sp, #8
 1290              		.cfi_remember_state
 1291              		.cfi_def_cfa_offset 0
 1292              		@ sp needed
 1293 002a 7047     		bx	lr
 1294              	.LVL89:
 1295              	.L104:
 1296              		.cfi_restore_state
 1297              		.loc 1 1228 0
 1298 002c 019B     		ldr	r3, [sp, #4]
 1299 002e 1833     		adds	r3, r3, #24
 1300              		.loc 1 1226 0
 1301 0030 090C     		lsrs	r1, r1, #16
 1302              	.LVL90:
 1303              		.loc 1 1228 0
 1304 0032 0193     		str	r3, [sp, #4]
 1305 0034 F2E7     		b	.L105
 1306              		.cfi_endproc
 1307              	.LFE140:
 1308              		.size	I2C_GetFlagStatus, .-I2C_GetFlagStatus
 1309 0036 00BF     		.section	.text.I2C_ClearFlag,"ax",%progbits
 1310              		.align	1
 1311              		.p2align 4,,15
ARM GAS  /tmp/ccWcPBJM.s 			page 24


 1312              		.global	I2C_ClearFlag
 1313              		.syntax unified
 1314              		.thumb
 1315              		.thumb_func
 1316              		.fpu fpv4-sp-d16
 1317              		.type	I2C_ClearFlag, %function
 1318              	I2C_ClearFlag:
 1319              	.LFB141:
 1320              		.loc 1 1278 0
 1321              		.cfi_startproc
 1322              		@ args = 0, pretend = 0, frame = 0
 1323              		@ frame_needed = 0, uses_anonymous_args = 0
 1324              		@ link register save eliminated.
 1325              	.LVL91:
 1326              		.loc 1 1286 0
 1327 0000 C943     		mvns	r1, r1
 1328              	.LVL92:
 1329 0002 89B2     		uxth	r1, r1
 1330              	.LVL93:
 1331 0004 8182     		strh	r1, [r0, #20]	@ movhi
 1332              		.loc 1 1287 0
 1333 0006 7047     		bx	lr
 1334              		.cfi_endproc
 1335              	.LFE141:
 1336              		.size	I2C_ClearFlag, .-I2C_ClearFlag
 1337              		.section	.text.I2C_GetITStatus,"ax",%progbits
 1338              		.align	1
 1339              		.p2align 4,,15
 1340              		.global	I2C_GetITStatus
 1341              		.syntax unified
 1342              		.thumb
 1343              		.thumb_func
 1344              		.fpu fpv4-sp-d16
 1345              		.type	I2C_GetITStatus, %function
 1346              	I2C_GetITStatus:
 1347              	.LFB142:
 1348              		.loc 1 1312 0
 1349              		.cfi_startproc
 1350              		@ args = 0, pretend = 0, frame = 0
 1351              		@ frame_needed = 0, uses_anonymous_args = 0
 1352              		@ link register save eliminated.
 1353              	.LVL94:
 1354              		.loc 1 1321 0
 1355 0000 8388     		ldrh	r3, [r0, #4]
 1356              		.loc 1 1327 0
 1357 0002 808A     		ldrh	r0, [r0, #20]
 1358              	.LVL95:
 1359 0004 0840     		ands	r0, r1, r0
 1360              		.loc 1 1321 0
 1361 0006 9BB2     		uxth	r3, r3
 1362              	.LVL96:
 1363              		.loc 1 1327 0
 1364 0008 06D0     		beq	.L109
 1365              		.loc 1 1321 0 discriminator 1
 1366 000a 03F4E063 		and	r3, r3, #1792
 1367              	.LVL97:
 1368              		.loc 1 1327 0 discriminator 1
ARM GAS  /tmp/ccWcPBJM.s 			page 25


 1369 000e 13EA1143 		ands	r3, r3, r1, lsr #16
 1370              		.loc 1 1330 0 discriminator 1
 1371 0012 14BF     		ite	ne
 1372 0014 0120     		movne	r0, #1
 1373 0016 0020     		moveq	r0, #0
 1374              	.L109:
 1375              	.LVL98:
 1376              		.loc 1 1339 0
 1377 0018 7047     		bx	lr
 1378              		.cfi_endproc
 1379              	.LFE142:
 1380              		.size	I2C_GetITStatus, .-I2C_GetITStatus
 1381 001a 00BF     		.section	.text.I2C_ClearITPendingBit,"ax",%progbits
 1382              		.align	1
 1383              		.p2align 4,,15
 1384              		.global	I2C_ClearITPendingBit
 1385              		.syntax unified
 1386              		.thumb
 1387              		.thumb_func
 1388              		.fpu fpv4-sp-d16
 1389              		.type	I2C_ClearITPendingBit, %function
 1390              	I2C_ClearITPendingBit:
 1391              	.LFB147:
 1392              		.cfi_startproc
 1393              		@ args = 0, pretend = 0, frame = 0
 1394              		@ frame_needed = 0, uses_anonymous_args = 0
 1395              		@ link register save eliminated.
 1396 0000 C943     		mvns	r1, r1
 1397 0002 89B2     		uxth	r1, r1
 1398 0004 8182     		strh	r1, [r0, #20]	@ movhi
 1399 0006 7047     		bx	lr
 1400              		.cfi_endproc
 1401              	.LFE147:
 1402              		.size	I2C_ClearITPendingBit, .-I2C_ClearITPendingBit
 1403              		.text
 1404              	.Letext0:
 1405              		.file 2 "/usr/arm-none-eabi/include/machine/_default_types.h"
 1406              		.file 3 "/usr/arm-none-eabi/include/sys/_stdint.h"
 1407              		.file 4 "ChibiOS_2.6.6/os/hal/platforms/STM32F4xx/stm32f4xx.h"
 1408              		.file 5 "ChibiOS_2.6.6/ext/stdperiph_stm32f4/inc/stm32f4xx_rcc.h"
 1409              		.file 6 "ChibiOS_2.6.6/ext/stdperiph_stm32f4/inc/stm32f4xx_i2c.h"
 1410              		.file 7 "ChibiOS_2.6.6/os/ports/common/ARMCMx/CMSIS/include/core_cm4.h"
 1411              		.section	.debug_info,"",%progbits
 1412              	.Ldebug_info0:
 1413 0000 C40B0000 		.4byte	0xbc4
 1414 0004 0400     		.2byte	0x4
 1415 0006 00000000 		.4byte	.Ldebug_abbrev0
 1416 000a 04       		.byte	0x4
 1417 000b 01       		.uleb128 0x1
 1418 000c 78000000 		.4byte	.LASF114
 1419 0010 0C       		.byte	0xc
 1420 0011 DA050000 		.4byte	.LASF115
 1421 0015 8C030000 		.4byte	.LASF116
 1422 0019 00000000 		.4byte	.Ldebug_ranges0+0
 1423 001d 00000000 		.4byte	0
 1424 0021 00000000 		.4byte	.Ldebug_line0
 1425 0025 02       		.uleb128 0x2
ARM GAS  /tmp/ccWcPBJM.s 			page 26


 1426 0026 08       		.byte	0x8
 1427 0027 07       		.byte	0x7
 1428 0028 C8010000 		.4byte	.LASF0
 1429 002c 02       		.uleb128 0x2
 1430 002d 04       		.byte	0x4
 1431 002e 07       		.byte	0x7
 1432 002f 26030000 		.4byte	.LASF1
 1433 0033 02       		.uleb128 0x2
 1434 0034 01       		.byte	0x1
 1435 0035 06       		.byte	0x6
 1436 0036 36020000 		.4byte	.LASF2
 1437 003a 03       		.uleb128 0x3
 1438 003b 5B000000 		.4byte	.LASF5
 1439 003f 02       		.byte	0x2
 1440 0040 2B       		.byte	0x2b
 1441 0041 45000000 		.4byte	0x45
 1442 0045 02       		.uleb128 0x2
 1443 0046 01       		.byte	0x1
 1444 0047 08       		.byte	0x8
 1445 0048 11050000 		.4byte	.LASF3
 1446 004c 02       		.uleb128 0x2
 1447 004d 02       		.byte	0x2
 1448 004e 05       		.byte	0x5
 1449 004f 27050000 		.4byte	.LASF4
 1450 0053 03       		.uleb128 0x3
 1451 0054 25060000 		.4byte	.LASF6
 1452 0058 02       		.byte	0x2
 1453 0059 39       		.byte	0x39
 1454 005a 5E000000 		.4byte	0x5e
 1455 005e 02       		.uleb128 0x2
 1456 005f 02       		.byte	0x2
 1457 0060 07       		.byte	0x7
 1458 0061 69060000 		.4byte	.LASF7
 1459 0065 03       		.uleb128 0x3
 1460 0066 49060000 		.4byte	.LASF8
 1461 006a 02       		.byte	0x2
 1462 006b 4D       		.byte	0x4d
 1463 006c 70000000 		.4byte	0x70
 1464 0070 02       		.uleb128 0x2
 1465 0071 04       		.byte	0x4
 1466 0072 05       		.byte	0x5
 1467 0073 29070000 		.4byte	.LASF9
 1468 0077 03       		.uleb128 0x3
 1469 0078 D2020000 		.4byte	.LASF10
 1470 007c 02       		.byte	0x2
 1471 007d 4F       		.byte	0x4f
 1472 007e 82000000 		.4byte	0x82
 1473 0082 02       		.uleb128 0x2
 1474 0083 04       		.byte	0x4
 1475 0084 07       		.byte	0x7
 1476 0085 33030000 		.4byte	.LASF11
 1477 0089 02       		.uleb128 0x2
 1478 008a 08       		.byte	0x8
 1479 008b 05       		.byte	0x5
 1480 008c 28020000 		.4byte	.LASF12
 1481 0090 04       		.uleb128 0x4
 1482 0091 04       		.byte	0x4
ARM GAS  /tmp/ccWcPBJM.s 			page 27


 1483 0092 05       		.byte	0x5
 1484 0093 696E7400 		.ascii	"int\000"
 1485 0097 03       		.uleb128 0x3
 1486 0098 C4060000 		.4byte	.LASF13
 1487 009c 03       		.byte	0x3
 1488 009d 18       		.byte	0x18
 1489 009e 3A000000 		.4byte	0x3a
 1490 00a2 03       		.uleb128 0x3
 1491 00a3 A8020000 		.4byte	.LASF14
 1492 00a7 03       		.byte	0x3
 1493 00a8 24       		.byte	0x24
 1494 00a9 53000000 		.4byte	0x53
 1495 00ad 05       		.uleb128 0x5
 1496 00ae A2000000 		.4byte	0xa2
 1497 00b2 03       		.uleb128 0x3
 1498 00b3 09050000 		.4byte	.LASF15
 1499 00b7 03       		.byte	0x3
 1500 00b8 2C       		.byte	0x2c
 1501 00b9 65000000 		.4byte	0x65
 1502 00bd 05       		.uleb128 0x5
 1503 00be B2000000 		.4byte	0xb2
 1504 00c2 03       		.uleb128 0x3
 1505 00c3 93050000 		.4byte	.LASF16
 1506 00c7 03       		.byte	0x3
 1507 00c8 30       		.byte	0x30
 1508 00c9 77000000 		.4byte	0x77
 1509 00cd 05       		.uleb128 0x5
 1510 00ce C2000000 		.4byte	0xc2
 1511 00d2 06       		.uleb128 0x6
 1512 00d3 DF010000 		.4byte	.LASF117
 1513 00d7 07       		.byte	0x7
 1514 00d8 9806     		.2byte	0x698
 1515 00da BD000000 		.4byte	0xbd
 1516 00de 07       		.uleb128 0x7
 1517 00df 07       		.byte	0x7
 1518 00e0 01       		.byte	0x1
 1519 00e1 45000000 		.4byte	0x45
 1520 00e5 04       		.byte	0x4
 1521 00e6 F701     		.2byte	0x1f7
 1522 00e8 F9000000 		.4byte	0xf9
 1523 00ec 08       		.uleb128 0x8
 1524 00ed F8030000 		.4byte	.LASF17
 1525 00f1 00       		.byte	0
 1526 00f2 09       		.uleb128 0x9
 1527 00f3 53455400 		.ascii	"SET\000"
 1528 00f7 01       		.byte	0x1
 1529 00f8 00       		.byte	0
 1530 00f9 0A       		.uleb128 0xa
 1531 00fa 31000000 		.4byte	.LASF18
 1532 00fe 04       		.byte	0x4
 1533 00ff F701     		.2byte	0x1f7
 1534 0101 DE000000 		.4byte	0xde
 1535 0105 0A       		.uleb128 0xa
 1536 0106 1D030000 		.4byte	.LASF19
 1537 010a 04       		.byte	0x4
 1538 010b F701     		.2byte	0x1f7
 1539 010d DE000000 		.4byte	0xde
ARM GAS  /tmp/ccWcPBJM.s 			page 28


 1540 0111 07       		.uleb128 0x7
 1541 0112 07       		.byte	0x7
 1542 0113 01       		.byte	0x1
 1543 0114 45000000 		.4byte	0x45
 1544 0118 04       		.byte	0x4
 1545 0119 F901     		.2byte	0x1f9
 1546 011b 2C010000 		.4byte	0x12c
 1547 011f 08       		.uleb128 0x8
 1548 0120 C0010000 		.4byte	.LASF20
 1549 0124 00       		.byte	0
 1550 0125 08       		.uleb128 0x8
 1551 0126 A1020000 		.4byte	.LASF21
 1552 012a 01       		.byte	0x1
 1553 012b 00       		.byte	0
 1554 012c 0A       		.uleb128 0xa
 1555 012d 3B040000 		.4byte	.LASF22
 1556 0131 04       		.byte	0x4
 1557 0132 F901     		.2byte	0x1f9
 1558 0134 11010000 		.4byte	0x111
 1559 0138 07       		.uleb128 0x7
 1560 0139 07       		.byte	0x7
 1561 013a 01       		.byte	0x1
 1562 013b 45000000 		.4byte	0x45
 1563 013f 04       		.byte	0x4
 1564 0140 FC01     		.2byte	0x1fc
 1565 0142 53010000 		.4byte	0x153
 1566 0146 08       		.uleb128 0x8
 1567 0147 E9020000 		.4byte	.LASF23
 1568 014b 00       		.byte	0
 1569 014c 08       		.uleb128 0x8
 1570 014d E0060000 		.4byte	.LASF24
 1571 0151 01       		.byte	0x1
 1572 0152 00       		.byte	0
 1573 0153 0A       		.uleb128 0xa
 1574 0154 DD020000 		.4byte	.LASF25
 1575 0158 04       		.byte	0x4
 1576 0159 FC01     		.2byte	0x1fc
 1577 015b 38010000 		.4byte	0x138
 1578 015f 0B       		.uleb128 0xb
 1579 0160 28       		.byte	0x28
 1580 0161 04       		.byte	0x4
 1581 0162 F603     		.2byte	0x3f6
 1582 0164 6C020000 		.4byte	0x26c
 1583 0168 0C       		.uleb128 0xc
 1584 0169 43523100 		.ascii	"CR1\000"
 1585 016d 04       		.byte	0x4
 1586 016e F803     		.2byte	0x3f8
 1587 0170 AD000000 		.4byte	0xad
 1588 0174 00       		.byte	0
 1589 0175 0D       		.uleb128 0xd
 1590 0176 8A040000 		.4byte	.LASF26
 1591 017a 04       		.byte	0x4
 1592 017b F903     		.2byte	0x3f9
 1593 017d A2000000 		.4byte	0xa2
 1594 0181 02       		.byte	0x2
 1595 0182 0C       		.uleb128 0xc
 1596 0183 43523200 		.ascii	"CR2\000"
ARM GAS  /tmp/ccWcPBJM.s 			page 29


 1597 0187 04       		.byte	0x4
 1598 0188 FA03     		.2byte	0x3fa
 1599 018a AD000000 		.4byte	0xad
 1600 018e 04       		.byte	0x4
 1601 018f 0D       		.uleb128 0xd
 1602 0190 94040000 		.4byte	.LASF27
 1603 0194 04       		.byte	0x4
 1604 0195 FB03     		.2byte	0x3fb
 1605 0197 A2000000 		.4byte	0xa2
 1606 019b 06       		.byte	0x6
 1607 019c 0D       		.uleb128 0xd
 1608 019d B1020000 		.4byte	.LASF28
 1609 01a1 04       		.byte	0x4
 1610 01a2 FC03     		.2byte	0x3fc
 1611 01a4 AD000000 		.4byte	0xad
 1612 01a8 08       		.byte	0x8
 1613 01a9 0D       		.uleb128 0xd
 1614 01aa 9E040000 		.4byte	.LASF29
 1615 01ae 04       		.byte	0x4
 1616 01af FD03     		.2byte	0x3fd
 1617 01b1 A2000000 		.4byte	0xa2
 1618 01b5 0A       		.byte	0xa
 1619 01b6 0D       		.uleb128 0xd
 1620 01b7 F1060000 		.4byte	.LASF30
 1621 01bb 04       		.byte	0x4
 1622 01bc FE03     		.2byte	0x3fe
 1623 01be AD000000 		.4byte	0xad
 1624 01c2 0C       		.byte	0xc
 1625 01c3 0D       		.uleb128 0xd
 1626 01c4 A8040000 		.4byte	.LASF31
 1627 01c8 04       		.byte	0x4
 1628 01c9 FF03     		.2byte	0x3ff
 1629 01cb A2000000 		.4byte	0xa2
 1630 01cf 0E       		.byte	0xe
 1631 01d0 0C       		.uleb128 0xc
 1632 01d1 445200   		.ascii	"DR\000"
 1633 01d4 04       		.byte	0x4
 1634 01d5 0004     		.2byte	0x400
 1635 01d7 AD000000 		.4byte	0xad
 1636 01db 10       		.byte	0x10
 1637 01dc 0D       		.uleb128 0xd
 1638 01dd B2040000 		.4byte	.LASF32
 1639 01e1 04       		.byte	0x4
 1640 01e2 0104     		.2byte	0x401
 1641 01e4 A2000000 		.4byte	0xa2
 1642 01e8 12       		.byte	0x12
 1643 01e9 0C       		.uleb128 0xc
 1644 01ea 53523100 		.ascii	"SR1\000"
 1645 01ee 04       		.byte	0x4
 1646 01ef 0204     		.2byte	0x402
 1647 01f1 AD000000 		.4byte	0xad
 1648 01f5 14       		.byte	0x14
 1649 01f6 0D       		.uleb128 0xd
 1650 01f7 BC040000 		.4byte	.LASF33
 1651 01fb 04       		.byte	0x4
 1652 01fc 0304     		.2byte	0x403
 1653 01fe A2000000 		.4byte	0xa2
ARM GAS  /tmp/ccWcPBJM.s 			page 30


 1654 0202 16       		.byte	0x16
 1655 0203 0C       		.uleb128 0xc
 1656 0204 53523200 		.ascii	"SR2\000"
 1657 0208 04       		.byte	0x4
 1658 0209 0404     		.2byte	0x404
 1659 020b AD000000 		.4byte	0xad
 1660 020f 18       		.byte	0x18
 1661 0210 0D       		.uleb128 0xd
 1662 0211 C6040000 		.4byte	.LASF34
 1663 0215 04       		.byte	0x4
 1664 0216 0504     		.2byte	0x405
 1665 0218 A2000000 		.4byte	0xa2
 1666 021c 1A       		.byte	0x1a
 1667 021d 0C       		.uleb128 0xc
 1668 021e 43435200 		.ascii	"CCR\000"
 1669 0222 04       		.byte	0x4
 1670 0223 0604     		.2byte	0x406
 1671 0225 AD000000 		.4byte	0xad
 1672 0229 1C       		.byte	0x1c
 1673 022a 0D       		.uleb128 0xd
 1674 022b D0040000 		.4byte	.LASF35
 1675 022f 04       		.byte	0x4
 1676 0230 0704     		.2byte	0x407
 1677 0232 A2000000 		.4byte	0xa2
 1678 0236 1E       		.byte	0x1e
 1679 0237 0D       		.uleb128 0xd
 1680 0238 72000000 		.4byte	.LASF36
 1681 023c 04       		.byte	0x4
 1682 023d 0804     		.2byte	0x408
 1683 023f AD000000 		.4byte	0xad
 1684 0243 20       		.byte	0x20
 1685 0244 0D       		.uleb128 0xd
 1686 0245 DA040000 		.4byte	.LASF37
 1687 0249 04       		.byte	0x4
 1688 024a 0904     		.2byte	0x409
 1689 024c A2000000 		.4byte	0xa2
 1690 0250 22       		.byte	0x22
 1691 0251 0D       		.uleb128 0xd
 1692 0252 B6020000 		.4byte	.LASF38
 1693 0256 04       		.byte	0x4
 1694 0257 0A04     		.2byte	0x40a
 1695 0259 AD000000 		.4byte	0xad
 1696 025d 24       		.byte	0x24
 1697 025e 0D       		.uleb128 0xd
 1698 025f E4040000 		.4byte	.LASF39
 1699 0263 04       		.byte	0x4
 1700 0264 0B04     		.2byte	0x40b
 1701 0266 A2000000 		.4byte	0xa2
 1702 026a 26       		.byte	0x26
 1703 026b 00       		.byte	0
 1704 026c 0A       		.uleb128 0xa
 1705 026d 32070000 		.4byte	.LASF40
 1706 0271 04       		.byte	0x4
 1707 0272 0C04     		.2byte	0x40c
 1708 0274 5F010000 		.4byte	0x15f
 1709 0278 0E       		.uleb128 0xe
 1710 0279 10       		.byte	0x10
ARM GAS  /tmp/ccWcPBJM.s 			page 31


 1711 027a 05       		.byte	0x5
 1712 027b 30       		.byte	0x30
 1713 027c B1020000 		.4byte	0x2b1
 1714 0280 0F       		.uleb128 0xf
 1715 0281 3B050000 		.4byte	.LASF41
 1716 0285 05       		.byte	0x5
 1717 0286 32       		.byte	0x32
 1718 0287 C2000000 		.4byte	0xc2
 1719 028b 00       		.byte	0
 1720 028c 0F       		.uleb128 0xf
 1721 028d 0E030000 		.4byte	.LASF42
 1722 0291 05       		.byte	0x5
 1723 0292 33       		.byte	0x33
 1724 0293 C2000000 		.4byte	0xc2
 1725 0297 04       		.byte	0x4
 1726 0298 0F       		.uleb128 0xf
 1727 0299 9C050000 		.4byte	.LASF43
 1728 029d 05       		.byte	0x5
 1729 029e 34       		.byte	0x34
 1730 029f C2000000 		.4byte	0xc2
 1731 02a3 08       		.byte	0x8
 1732 02a4 0F       		.uleb128 0xf
 1733 02a5 6A020000 		.4byte	.LASF44
 1734 02a9 05       		.byte	0x5
 1735 02aa 35       		.byte	0x35
 1736 02ab C2000000 		.4byte	0xc2
 1737 02af 0C       		.byte	0xc
 1738 02b0 00       		.byte	0
 1739 02b1 03       		.uleb128 0x3
 1740 02b2 07070000 		.4byte	.LASF45
 1741 02b6 05       		.byte	0x5
 1742 02b7 36       		.byte	0x36
 1743 02b8 78020000 		.4byte	0x278
 1744 02bc 0E       		.uleb128 0xe
 1745 02bd 10       		.byte	0x10
 1746 02be 06       		.byte	0x6
 1747 02bf 36       		.byte	0x36
 1748 02c0 0D030000 		.4byte	0x30d
 1749 02c4 0F       		.uleb128 0xf
 1750 02c5 7A020000 		.4byte	.LASF46
 1751 02c9 06       		.byte	0x6
 1752 02ca 38       		.byte	0x38
 1753 02cb C2000000 		.4byte	0xc2
 1754 02cf 00       		.byte	0
 1755 02d0 0F       		.uleb128 0xf
 1756 02d1 89020000 		.4byte	.LASF47
 1757 02d5 06       		.byte	0x6
 1758 02d6 3B       		.byte	0x3b
 1759 02d7 A2000000 		.4byte	0xa2
 1760 02db 04       		.byte	0x4
 1761 02dc 0F       		.uleb128 0xf
 1762 02dd 77030000 		.4byte	.LASF48
 1763 02e1 06       		.byte	0x6
 1764 02e2 3E       		.byte	0x3e
 1765 02e3 A2000000 		.4byte	0xa2
 1766 02e7 06       		.byte	0x6
 1767 02e8 0F       		.uleb128 0xf
ARM GAS  /tmp/ccWcPBJM.s 			page 32


 1768 02e9 EE040000 		.4byte	.LASF49
 1769 02ed 06       		.byte	0x6
 1770 02ee 41       		.byte	0x41
 1771 02ef A2000000 		.4byte	0xa2
 1772 02f3 08       		.byte	0x8
 1773 02f4 0F       		.uleb128 0xf
 1774 02f5 1F050000 		.4byte	.LASF50
 1775 02f9 06       		.byte	0x6
 1776 02fa 44       		.byte	0x44
 1777 02fb A2000000 		.4byte	0xa2
 1778 02ff 0A       		.byte	0xa
 1779 0300 0F       		.uleb128 0xf
 1780 0301 6A050000 		.4byte	.LASF51
 1781 0305 06       		.byte	0x6
 1782 0306 47       		.byte	0x47
 1783 0307 A2000000 		.4byte	0xa2
 1784 030b 0C       		.byte	0xc
 1785 030c 00       		.byte	0
 1786 030d 03       		.uleb128 0x3
 1787 030e 65040000 		.4byte	.LASF52
 1788 0312 06       		.byte	0x6
 1789 0313 49       		.byte	0x49
 1790 0314 BC020000 		.4byte	0x2bc
 1791 0318 10       		.uleb128 0x10
 1792 0319 00000000 		.4byte	.LASF78
 1793 031d 01       		.byte	0x1
 1794 031e 5B05     		.2byte	0x55b
 1795 0320 49030000 		.4byte	0x349
 1796 0324 11       		.uleb128 0x11
 1797 0325 D4030000 		.4byte	.LASF53
 1798 0329 01       		.byte	0x1
 1799 032a 5B05     		.2byte	0x55b
 1800 032c 49030000 		.4byte	0x349
 1801 0330 11       		.uleb128 0x11
 1802 0331 75040000 		.4byte	.LASF54
 1803 0335 01       		.byte	0x1
 1804 0336 5B05     		.2byte	0x55b
 1805 0338 C2000000 		.4byte	0xc2
 1806 033c 12       		.uleb128 0x12
 1807 033d 5B030000 		.4byte	.LASF58
 1808 0341 01       		.byte	0x1
 1809 0342 5D05     		.2byte	0x55d
 1810 0344 C2000000 		.4byte	0xc2
 1811 0348 00       		.byte	0
 1812 0349 13       		.uleb128 0x13
 1813 034a 04       		.byte	0x4
 1814 034b 6C020000 		.4byte	0x26c
 1815 034f 14       		.uleb128 0x14
 1816 0350 19070000 		.4byte	.LASF59
 1817 0354 01       		.byte	0x1
 1818 0355 1F05     		.2byte	0x51f
 1819 0357 05010000 		.4byte	0x105
 1820 035b 00000000 		.4byte	.LFB142
 1821 035f 1A000000 		.4byte	.LFE142-.LFB142
 1822 0363 01       		.uleb128 0x1
 1823 0364 9C       		.byte	0x9c
 1824 0365 AA030000 		.4byte	0x3aa
ARM GAS  /tmp/ccWcPBJM.s 			page 33


 1825 0369 15       		.uleb128 0x15
 1826 036a D4030000 		.4byte	.LASF53
 1827 036e 01       		.byte	0x1
 1828 036f 1F05     		.2byte	0x51f
 1829 0371 49030000 		.4byte	0x349
 1830 0375 00000000 		.4byte	.LLST29
 1831 0379 15       		.uleb128 0x15
 1832 037a 75040000 		.4byte	.LASF54
 1833 037e 01       		.byte	0x1
 1834 037f 1F05     		.2byte	0x51f
 1835 0381 C2000000 		.4byte	0xc2
 1836 0385 21000000 		.4byte	.LLST30
 1837 0389 16       		.uleb128 0x16
 1838 038a 04030000 		.4byte	.LASF55
 1839 038e 01       		.byte	0x1
 1840 038f 2105     		.2byte	0x521
 1841 0391 05010000 		.4byte	0x105
 1842 0395 47000000 		.4byte	.LLST31
 1843 0399 16       		.uleb128 0x16
 1844 039a 3C060000 		.4byte	.LASF56
 1845 039e 01       		.byte	0x1
 1846 039f 2205     		.2byte	0x522
 1847 03a1 C2000000 		.4byte	0xc2
 1848 03a5 66000000 		.4byte	.LLST32
 1849 03a9 00       		.byte	0
 1850 03aa 17       		.uleb128 0x17
 1851 03ab 5C050000 		.4byte	.LASF118
 1852 03af 01       		.byte	0x1
 1853 03b0 FD04     		.2byte	0x4fd
 1854 03b2 01       		.byte	0x1
 1855 03b3 DC030000 		.4byte	0x3dc
 1856 03b7 11       		.uleb128 0x11
 1857 03b8 D4030000 		.4byte	.LASF53
 1858 03bc 01       		.byte	0x1
 1859 03bd FD04     		.2byte	0x4fd
 1860 03bf 49030000 		.4byte	0x349
 1861 03c3 11       		.uleb128 0x11
 1862 03c4 0F040000 		.4byte	.LASF57
 1863 03c8 01       		.byte	0x1
 1864 03c9 FD04     		.2byte	0x4fd
 1865 03cb C2000000 		.4byte	0xc2
 1866 03cf 12       		.uleb128 0x12
 1867 03d0 5B030000 		.4byte	.LASF58
 1868 03d4 01       		.byte	0x1
 1869 03d5 FF04     		.2byte	0x4ff
 1870 03d7 C2000000 		.4byte	0xc2
 1871 03db 00       		.byte	0
 1872 03dc 14       		.uleb128 0x14
 1873 03dd 8C060000 		.4byte	.LASF60
 1874 03e1 01       		.byte	0x1
 1875 03e2 B004     		.2byte	0x4b0
 1876 03e4 F9000000 		.4byte	0xf9
 1877 03e8 00000000 		.4byte	.LFB140
 1878 03ec 36000000 		.4byte	.LFE140-.LFB140
 1879 03f0 01       		.uleb128 0x1
 1880 03f1 9C       		.byte	0x9c
 1881 03f2 45040000 		.4byte	0x445
ARM GAS  /tmp/ccWcPBJM.s 			page 34


 1882 03f6 15       		.uleb128 0x15
 1883 03f7 D4030000 		.4byte	.LASF53
 1884 03fb 01       		.byte	0x1
 1885 03fc B004     		.2byte	0x4b0
 1886 03fe 49030000 		.4byte	0x349
 1887 0402 94000000 		.4byte	.LLST24
 1888 0406 15       		.uleb128 0x15
 1889 0407 0F040000 		.4byte	.LASF57
 1890 040b 01       		.byte	0x1
 1891 040c B004     		.2byte	0x4b0
 1892 040e C2000000 		.4byte	0xc2
 1893 0412 C0000000 		.4byte	.LLST25
 1894 0416 16       		.uleb128 0x16
 1895 0417 04030000 		.4byte	.LASF55
 1896 041b 01       		.byte	0x1
 1897 041c B204     		.2byte	0x4b2
 1898 041e F9000000 		.4byte	0xf9
 1899 0422 DE000000 		.4byte	.LLST26
 1900 0426 18       		.uleb128 0x18
 1901 0427 85030000 		.4byte	.LASF61
 1902 042b 01       		.byte	0x1
 1903 042c B304     		.2byte	0x4b3
 1904 042e CD000000 		.4byte	0xcd
 1905 0432 02       		.uleb128 0x2
 1906 0433 91       		.byte	0x91
 1907 0434 78       		.sleb128 -8
 1908 0435 18       		.uleb128 0x18
 1909 0436 E8060000 		.4byte	.LASF62
 1910 043a 01       		.byte	0x1
 1911 043b B304     		.2byte	0x4b3
 1912 043d CD000000 		.4byte	0xcd
 1913 0441 02       		.uleb128 0x2
 1914 0442 91       		.byte	0x91
 1915 0443 7C       		.sleb128 -4
 1916 0444 00       		.byte	0
 1917 0445 14       		.uleb128 0x14
 1918 0446 FE030000 		.4byte	.LASF63
 1919 044a 01       		.byte	0x1
 1920 044b 7904     		.2byte	0x479
 1921 044d C2000000 		.4byte	0xc2
 1922 0451 00000000 		.4byte	.LFB139
 1923 0455 0E000000 		.4byte	.LFE139-.LFB139
 1924 0459 01       		.uleb128 0x1
 1925 045a 9C       		.byte	0x9c
 1926 045b A0040000 		.4byte	0x4a0
 1927 045f 15       		.uleb128 0x15
 1928 0460 D4030000 		.4byte	.LASF53
 1929 0464 01       		.byte	0x1
 1930 0465 7904     		.2byte	0x479
 1931 0467 49030000 		.4byte	0x349
 1932 046b 10010000 		.4byte	.LLST20
 1933 046f 16       		.uleb128 0x16
 1934 0470 9E060000 		.4byte	.LASF64
 1935 0474 01       		.byte	0x1
 1936 0475 7B04     		.2byte	0x47b
 1937 0477 C2000000 		.4byte	0xc2
 1938 047b 31010000 		.4byte	.LLST21
ARM GAS  /tmp/ccWcPBJM.s 			page 35


 1939 047f 16       		.uleb128 0x16
 1940 0480 30060000 		.4byte	.LASF65
 1941 0484 01       		.byte	0x1
 1942 0485 7C04     		.2byte	0x47c
 1943 0487 C2000000 		.4byte	0xc2
 1944 048b 61010000 		.4byte	.LLST22
 1945 048f 16       		.uleb128 0x16
 1946 0490 36060000 		.4byte	.LASF66
 1947 0494 01       		.byte	0x1
 1948 0495 7C04     		.2byte	0x47c
 1949 0497 C2000000 		.4byte	0xc2
 1950 049b 86010000 		.4byte	.LLST23
 1951 049f 00       		.byte	0
 1952 04a0 14       		.uleb128 0x14
 1953 04a1 4B040000 		.4byte	.LASF67
 1954 04a5 01       		.byte	0x1
 1955 04a6 4904     		.2byte	0x449
 1956 04a8 53010000 		.4byte	0x153
 1957 04ac 00000000 		.4byte	.LFB138
 1958 04b0 18000000 		.4byte	.LFE138-.LFB138
 1959 04b4 01       		.uleb128 0x1
 1960 04b5 9C       		.byte	0x9c
 1961 04b6 19050000 		.4byte	0x519
 1962 04ba 15       		.uleb128 0x15
 1963 04bb D4030000 		.4byte	.LASF53
 1964 04bf 01       		.byte	0x1
 1965 04c0 4904     		.2byte	0x449
 1966 04c2 49030000 		.4byte	0x349
 1967 04c6 A9010000 		.4byte	.LLST15
 1968 04ca 19       		.uleb128 0x19
 1969 04cb 31050000 		.4byte	.LASF68
 1970 04cf 01       		.byte	0x1
 1971 04d0 4904     		.2byte	0x449
 1972 04d2 C2000000 		.4byte	0xc2
 1973 04d6 01       		.uleb128 0x1
 1974 04d7 51       		.byte	0x51
 1975 04d8 16       		.uleb128 0x16
 1976 04d9 9E060000 		.4byte	.LASF64
 1977 04dd 01       		.byte	0x1
 1978 04de 4B04     		.2byte	0x44b
 1979 04e0 C2000000 		.4byte	0xc2
 1980 04e4 CA010000 		.4byte	.LLST16
 1981 04e8 16       		.uleb128 0x16
 1982 04e9 30060000 		.4byte	.LASF65
 1983 04ed 01       		.byte	0x1
 1984 04ee 4C04     		.2byte	0x44c
 1985 04f0 C2000000 		.4byte	0xc2
 1986 04f4 FA010000 		.4byte	.LLST17
 1987 04f8 16       		.uleb128 0x16
 1988 04f9 36060000 		.4byte	.LASF66
 1989 04fd 01       		.byte	0x1
 1990 04fe 4C04     		.2byte	0x44c
 1991 0500 C2000000 		.4byte	0xc2
 1992 0504 1F020000 		.4byte	.LLST18
 1993 0508 16       		.uleb128 0x16
 1994 0509 A8060000 		.4byte	.LASF69
 1995 050d 01       		.byte	0x1
ARM GAS  /tmp/ccWcPBJM.s 			page 36


 1996 050e 4D04     		.2byte	0x44d
 1997 0510 53010000 		.4byte	0x153
 1998 0514 42020000 		.4byte	.LLST19
 1999 0518 00       		.byte	0
 2000 0519 1A       		.uleb128 0x1a
 2001 051a B3010000 		.4byte	.LASF73
 2002 051e 01       		.byte	0x1
 2003 051f 0E04     		.2byte	0x40e
 2004 0521 00000000 		.4byte	.LFB137
 2005 0525 12000000 		.4byte	.LFE137-.LFB137
 2006 0529 01       		.uleb128 0x1
 2007 052a 9C       		.byte	0x9c
 2008 052b 5C050000 		.4byte	0x55c
 2009 052f 19       		.uleb128 0x19
 2010 0530 D4030000 		.4byte	.LASF53
 2011 0534 01       		.byte	0x1
 2012 0535 0E04     		.2byte	0x40e
 2013 0537 49030000 		.4byte	0x349
 2014 053b 01       		.uleb128 0x1
 2015 053c 50       		.byte	0x50
 2016 053d 15       		.uleb128 0x15
 2017 053e 75040000 		.4byte	.LASF54
 2018 0542 01       		.byte	0x1
 2019 0543 0E04     		.2byte	0x40e
 2020 0545 A2000000 		.4byte	0xa2
 2021 0549 78020000 		.4byte	.LLST14
 2022 054d 19       		.uleb128 0x19
 2023 054e 16000000 		.4byte	.LASF70
 2024 0552 01       		.byte	0x1
 2025 0553 0E04     		.2byte	0x40e
 2026 0555 2C010000 		.4byte	0x12c
 2027 0559 01       		.uleb128 0x1
 2028 055a 52       		.byte	0x52
 2029 055b 00       		.byte	0
 2030 055c 14       		.uleb128 0x14
 2031 055d 82050000 		.4byte	.LASF71
 2032 0561 01       		.byte	0x1
 2033 0562 F303     		.2byte	0x3f3
 2034 0564 A2000000 		.4byte	0xa2
 2035 0568 00000000 		.4byte	.LFB136
 2036 056c 16000000 		.4byte	.LFE136-.LFB136
 2037 0570 01       		.uleb128 0x1
 2038 0571 9C       		.byte	0x9c
 2039 0572 A6050000 		.4byte	0x5a6
 2040 0576 15       		.uleb128 0x15
 2041 0577 D4030000 		.4byte	.LASF53
 2042 057b 01       		.byte	0x1
 2043 057c F303     		.2byte	0x3f3
 2044 057e 49030000 		.4byte	0x349
 2045 0582 B2020000 		.4byte	.LLST12
 2046 0586 15       		.uleb128 0x15
 2047 0587 65000000 		.4byte	.LASF72
 2048 058b 01       		.byte	0x1
 2049 058c F303     		.2byte	0x3f3
 2050 058e 97000000 		.4byte	0x97
 2051 0592 D3020000 		.4byte	.LLST13
 2052 0596 1B       		.uleb128 0x1b
ARM GAS  /tmp/ccWcPBJM.s 			page 37


 2053 0597 746D7000 		.ascii	"tmp\000"
 2054 059b 01       		.byte	0x1
 2055 059c F503     		.2byte	0x3f5
 2056 059e CD000000 		.4byte	0xcd
 2057 05a2 02       		.uleb128 0x2
 2058 05a3 91       		.byte	0x91
 2059 05a4 7C       		.sleb128 -4
 2060 05a5 00       		.byte	0
 2061 05a6 1A       		.uleb128 0x1a
 2062 05a7 BB020000 		.4byte	.LASF74
 2063 05ab 01       		.byte	0x1
 2064 05ac 6903     		.2byte	0x369
 2065 05ae 00000000 		.4byte	.LFB135
 2066 05b2 18000000 		.4byte	.LFE135-.LFB135
 2067 05b6 01       		.uleb128 0x1
 2068 05b7 9C       		.byte	0x9c
 2069 05b8 D9050000 		.4byte	0x5d9
 2070 05bc 19       		.uleb128 0x19
 2071 05bd D4030000 		.4byte	.LASF53
 2072 05c1 01       		.byte	0x1
 2073 05c2 6903     		.2byte	0x369
 2074 05c4 49030000 		.4byte	0x349
 2075 05c8 01       		.uleb128 0x1
 2076 05c9 50       		.byte	0x50
 2077 05ca 19       		.uleb128 0x19
 2078 05cb 16000000 		.4byte	.LASF70
 2079 05cf 01       		.byte	0x1
 2080 05d0 6903     		.2byte	0x369
 2081 05d2 2C010000 		.4byte	0x12c
 2082 05d6 01       		.uleb128 0x1
 2083 05d7 51       		.byte	0x51
 2084 05d8 00       		.byte	0
 2085 05d9 1A       		.uleb128 0x1a
 2086 05da 5A040000 		.4byte	.LASF75
 2087 05de 01       		.byte	0x1
 2088 05df 5103     		.2byte	0x351
 2089 05e1 00000000 		.4byte	.LFB134
 2090 05e5 18000000 		.4byte	.LFE134-.LFB134
 2091 05e9 01       		.uleb128 0x1
 2092 05ea 9C       		.byte	0x9c
 2093 05eb 0C060000 		.4byte	0x60c
 2094 05ef 19       		.uleb128 0x19
 2095 05f0 D4030000 		.4byte	.LASF53
 2096 05f4 01       		.byte	0x1
 2097 05f5 5103     		.2byte	0x351
 2098 05f7 49030000 		.4byte	0x349
 2099 05fb 01       		.uleb128 0x1
 2100 05fc 50       		.byte	0x50
 2101 05fd 19       		.uleb128 0x19
 2102 05fe 16000000 		.4byte	.LASF70
 2103 0602 01       		.byte	0x1
 2104 0603 5103     		.2byte	0x351
 2105 0605 2C010000 		.4byte	0x12c
 2106 0609 01       		.uleb128 0x1
 2107 060a 51       		.byte	0x51
 2108 060b 00       		.byte	0
 2109 060c 14       		.uleb128 0x14
ARM GAS  /tmp/ccWcPBJM.s 			page 38


 2110 060d 3C000000 		.4byte	.LASF76
 2111 0611 01       		.byte	0x1
 2112 0612 3003     		.2byte	0x330
 2113 0614 97000000 		.4byte	0x97
 2114 0618 00000000 		.4byte	.LFB133
 2115 061c 06000000 		.4byte	.LFE133-.LFB133
 2116 0620 01       		.uleb128 0x1
 2117 0621 9C       		.byte	0x9c
 2118 0622 37060000 		.4byte	0x637
 2119 0626 15       		.uleb128 0x15
 2120 0627 D4030000 		.4byte	.LASF53
 2121 062b 01       		.byte	0x1
 2122 062c 3003     		.2byte	0x330
 2123 062e 49030000 		.4byte	0x349
 2124 0632 F4020000 		.4byte	.LLST11
 2125 0636 00       		.byte	0
 2126 0637 1A       		.uleb128 0x1a
 2127 0638 59020000 		.4byte	.LASF77
 2128 063c 01       		.byte	0x1
 2129 063d 1A03     		.2byte	0x31a
 2130 063f 00000000 		.4byte	.LFB132
 2131 0643 18000000 		.4byte	.LFE132-.LFB132
 2132 0647 01       		.uleb128 0x1
 2133 0648 9C       		.byte	0x9c
 2134 0649 6A060000 		.4byte	0x66a
 2135 064d 19       		.uleb128 0x19
 2136 064e D4030000 		.4byte	.LASF53
 2137 0652 01       		.byte	0x1
 2138 0653 1A03     		.2byte	0x31a
 2139 0655 49030000 		.4byte	0x349
 2140 0659 01       		.uleb128 0x1
 2141 065a 50       		.byte	0x50
 2142 065b 19       		.uleb128 0x19
 2143 065c 16000000 		.4byte	.LASF70
 2144 0660 01       		.byte	0x1
 2145 0661 1A03     		.2byte	0x31a
 2146 0663 2C010000 		.4byte	0x12c
 2147 0667 01       		.uleb128 0x1
 2148 0668 51       		.byte	0x51
 2149 0669 00       		.byte	0
 2150 066a 10       		.uleb128 0x10
 2151 066b 45030000 		.4byte	.LASF79
 2152 066f 01       		.byte	0x1
 2153 0670 0203     		.2byte	0x302
 2154 0672 8F060000 		.4byte	0x68f
 2155 0676 11       		.uleb128 0x11
 2156 0677 D4030000 		.4byte	.LASF53
 2157 067b 01       		.byte	0x1
 2158 067c 0203     		.2byte	0x302
 2159 067e 49030000 		.4byte	0x349
 2160 0682 11       		.uleb128 0x11
 2161 0683 7C060000 		.4byte	.LASF80
 2162 0687 01       		.byte	0x1
 2163 0688 0203     		.2byte	0x302
 2164 068a A2000000 		.4byte	0xa2
 2165 068e 00       		.byte	0
 2166 068f 1A       		.uleb128 0x1a
ARM GAS  /tmp/ccWcPBJM.s 			page 39


 2167 0690 AD030000 		.4byte	.LASF81
 2168 0694 01       		.byte	0x1
 2169 0695 E302     		.2byte	0x2e3
 2170 0697 00000000 		.4byte	.LFB130
 2171 069b 18000000 		.4byte	.LFE130-.LFB130
 2172 069f 01       		.uleb128 0x1
 2173 06a0 9C       		.byte	0x9c
 2174 06a1 C2060000 		.4byte	0x6c2
 2175 06a5 19       		.uleb128 0x19
 2176 06a6 D4030000 		.4byte	.LASF53
 2177 06aa 01       		.byte	0x1
 2178 06ab E302     		.2byte	0x2e3
 2179 06ad 49030000 		.4byte	0x349
 2180 06b1 01       		.uleb128 0x1
 2181 06b2 50       		.byte	0x50
 2182 06b3 19       		.uleb128 0x19
 2183 06b4 16000000 		.4byte	.LASF70
 2184 06b8 01       		.byte	0x1
 2185 06b9 E302     		.2byte	0x2e3
 2186 06bb 2C010000 		.4byte	0x12c
 2187 06bf 01       		.uleb128 0x1
 2188 06c0 51       		.byte	0x51
 2189 06c1 00       		.byte	0
 2190 06c2 14       		.uleb128 0x14
 2191 06c3 4C050000 		.4byte	.LASF82
 2192 06c7 01       		.byte	0x1
 2193 06c8 C402     		.2byte	0x2c4
 2194 06ca 97000000 		.4byte	0x97
 2195 06ce 00000000 		.4byte	.LFB129
 2196 06d2 06000000 		.4byte	.LFE129-.LFB129
 2197 06d6 01       		.uleb128 0x1
 2198 06d7 9C       		.byte	0x9c
 2199 06d8 ED060000 		.4byte	0x6ed
 2200 06dc 15       		.uleb128 0x15
 2201 06dd D4030000 		.4byte	.LASF53
 2202 06e1 01       		.byte	0x1
 2203 06e2 C402     		.2byte	0x2c4
 2204 06e4 49030000 		.4byte	0x349
 2205 06e8 15030000 		.4byte	.LLST10
 2206 06ec 00       		.byte	0
 2207 06ed 1A       		.uleb128 0x1a
 2208 06ee 4C020000 		.4byte	.LASF83
 2209 06f2 01       		.byte	0x1
 2210 06f3 B702     		.2byte	0x2b7
 2211 06f5 00000000 		.4byte	.LFB128
 2212 06f9 04000000 		.4byte	.LFE128-.LFB128
 2213 06fd 01       		.uleb128 0x1
 2214 06fe 9C       		.byte	0x9c
 2215 06ff 20070000 		.4byte	0x720
 2216 0703 19       		.uleb128 0x19
 2217 0704 D4030000 		.4byte	.LASF53
 2218 0708 01       		.byte	0x1
 2219 0709 B702     		.2byte	0x2b7
 2220 070b 49030000 		.4byte	0x349
 2221 070f 01       		.uleb128 0x1
 2222 0710 50       		.byte	0x50
 2223 0711 19       		.uleb128 0x19
ARM GAS  /tmp/ccWcPBJM.s 			page 40


 2224 0712 36040000 		.4byte	.LASF84
 2225 0716 01       		.byte	0x1
 2226 0717 B702     		.2byte	0x2b7
 2227 0719 97000000 		.4byte	0x97
 2228 071d 01       		.uleb128 0x1
 2229 071e 51       		.byte	0x51
 2230 071f 00       		.byte	0
 2231 0720 1A       		.uleb128 0x1a
 2232 0721 6C030000 		.4byte	.LASF85
 2233 0725 01       		.byte	0x1
 2234 0726 9102     		.2byte	0x291
 2235 0728 00000000 		.4byte	.LFB127
 2236 072c 18000000 		.4byte	.LFE127-.LFB127
 2237 0730 01       		.uleb128 0x1
 2238 0731 9C       		.byte	0x9c
 2239 0732 53070000 		.4byte	0x753
 2240 0736 19       		.uleb128 0x19
 2241 0737 D4030000 		.4byte	.LASF53
 2242 073b 01       		.byte	0x1
 2243 073c 9102     		.2byte	0x291
 2244 073e 49030000 		.4byte	0x349
 2245 0742 01       		.uleb128 0x1
 2246 0743 50       		.byte	0x50
 2247 0744 19       		.uleb128 0x19
 2248 0745 16000000 		.4byte	.LASF70
 2249 0749 01       		.byte	0x1
 2250 074a 9102     		.2byte	0x291
 2251 074c 2C010000 		.4byte	0x12c
 2252 0750 01       		.uleb128 0x1
 2253 0751 51       		.byte	0x51
 2254 0752 00       		.byte	0
 2255 0753 1A       		.uleb128 0x1a
 2256 0754 EF020000 		.4byte	.LASF86
 2257 0758 01       		.byte	0x1
 2258 0759 7902     		.2byte	0x279
 2259 075b 00000000 		.4byte	.LFB126
 2260 075f 18000000 		.4byte	.LFE126-.LFB126
 2261 0763 01       		.uleb128 0x1
 2262 0764 9C       		.byte	0x9c
 2263 0765 86070000 		.4byte	0x786
 2264 0769 19       		.uleb128 0x19
 2265 076a D4030000 		.4byte	.LASF53
 2266 076e 01       		.byte	0x1
 2267 076f 7902     		.2byte	0x279
 2268 0771 49030000 		.4byte	0x349
 2269 0775 01       		.uleb128 0x1
 2270 0776 50       		.byte	0x50
 2271 0777 19       		.uleb128 0x19
 2272 0778 BD030000 		.4byte	.LASF87
 2273 077c 01       		.byte	0x1
 2274 077d 7902     		.2byte	0x279
 2275 077f A2000000 		.4byte	0xa2
 2276 0783 01       		.uleb128 0x1
 2277 0784 51       		.byte	0x51
 2278 0785 00       		.byte	0
 2279 0786 1A       		.uleb128 0x1a
 2280 0787 EC010000 		.4byte	.LASF88
ARM GAS  /tmp/ccWcPBJM.s 			page 41


 2281 078b 01       		.byte	0x1
 2282 078c 5D02     		.2byte	0x25d
 2283 078e 00000000 		.4byte	.LFB125
 2284 0792 18000000 		.4byte	.LFE125-.LFB125
 2285 0796 01       		.uleb128 0x1
 2286 0797 9C       		.byte	0x9c
 2287 0798 B9070000 		.4byte	0x7b9
 2288 079c 19       		.uleb128 0x19
 2289 079d D4030000 		.4byte	.LASF53
 2290 07a1 01       		.byte	0x1
 2291 07a2 5D02     		.2byte	0x25d
 2292 07a4 49030000 		.4byte	0x349
 2293 07a8 01       		.uleb128 0x1
 2294 07a9 50       		.byte	0x50
 2295 07aa 19       		.uleb128 0x19
 2296 07ab E7030000 		.4byte	.LASF89
 2297 07af 01       		.byte	0x1
 2298 07b0 5D02     		.2byte	0x25d
 2299 07b2 A2000000 		.4byte	0xa2
 2300 07b6 01       		.uleb128 0x1
 2301 07b7 51       		.byte	0x51
 2302 07b8 00       		.byte	0
 2303 07b9 1A       		.uleb128 0x1a
 2304 07ba AC050000 		.4byte	.LASF90
 2305 07be 01       		.byte	0x1
 2306 07bf 3702     		.2byte	0x237
 2307 07c1 00000000 		.4byte	.LFB124
 2308 07c5 18000000 		.4byte	.LFE124-.LFB124
 2309 07c9 01       		.uleb128 0x1
 2310 07ca 9C       		.byte	0x9c
 2311 07cb EC070000 		.4byte	0x7ec
 2312 07cf 19       		.uleb128 0x19
 2313 07d0 D4030000 		.4byte	.LASF53
 2314 07d4 01       		.byte	0x1
 2315 07d5 3702     		.2byte	0x237
 2316 07d7 49030000 		.4byte	0x349
 2317 07db 01       		.uleb128 0x1
 2318 07dc 50       		.byte	0x50
 2319 07dd 19       		.uleb128 0x19
 2320 07de 77030000 		.4byte	.LASF48
 2321 07e2 01       		.byte	0x1
 2322 07e3 3702     		.2byte	0x237
 2323 07e5 A2000000 		.4byte	0xa2
 2324 07e9 01       		.uleb128 0x1
 2325 07ea 51       		.byte	0x51
 2326 07eb 00       		.byte	0
 2327 07ec 1A       		.uleb128 0x1a
 2328 07ed 47000000 		.4byte	.LASF91
 2329 07f1 01       		.byte	0x1
 2330 07f2 1D02     		.2byte	0x21d
 2331 07f4 00000000 		.4byte	.LFB123
 2332 07f8 18000000 		.4byte	.LFE123-.LFB123
 2333 07fc 01       		.uleb128 0x1
 2334 07fd 9C       		.byte	0x9c
 2335 07fe 1F080000 		.4byte	0x81f
 2336 0802 19       		.uleb128 0x19
 2337 0803 D4030000 		.4byte	.LASF53
ARM GAS  /tmp/ccWcPBJM.s 			page 42


 2338 0807 01       		.byte	0x1
 2339 0808 1D02     		.2byte	0x21d
 2340 080a 49030000 		.4byte	0x349
 2341 080e 01       		.uleb128 0x1
 2342 080f 50       		.byte	0x50
 2343 0810 19       		.uleb128 0x19
 2344 0811 16000000 		.4byte	.LASF70
 2345 0815 01       		.byte	0x1
 2346 0816 1D02     		.2byte	0x21d
 2347 0818 2C010000 		.4byte	0x12c
 2348 081c 01       		.uleb128 0x1
 2349 081d 51       		.byte	0x51
 2350 081e 00       		.byte	0
 2351 081f 1A       		.uleb128 0x1a
 2352 0820 AF060000 		.4byte	.LASF92
 2353 0824 01       		.byte	0x1
 2354 0825 0502     		.2byte	0x205
 2355 0827 00000000 		.4byte	.LFB122
 2356 082b 14000000 		.4byte	.LFE122-.LFB122
 2357 082f 01       		.uleb128 0x1
 2358 0830 9C       		.byte	0x9c
 2359 0831 52080000 		.4byte	0x852
 2360 0835 19       		.uleb128 0x19
 2361 0836 D4030000 		.4byte	.LASF53
 2362 083a 01       		.byte	0x1
 2363 083b 0502     		.2byte	0x205
 2364 083d 49030000 		.4byte	0x349
 2365 0841 01       		.uleb128 0x1
 2366 0842 50       		.byte	0x50
 2367 0843 19       		.uleb128 0x19
 2368 0844 16000000 		.4byte	.LASF70
 2369 0848 01       		.byte	0x1
 2370 0849 0502     		.2byte	0x205
 2371 084b 2C010000 		.4byte	0x12c
 2372 084f 01       		.uleb128 0x1
 2373 0850 51       		.byte	0x51
 2374 0851 00       		.byte	0
 2375 0852 1A       		.uleb128 0x1a
 2376 0853 23040000 		.4byte	.LASF93
 2377 0857 01       		.byte	0x1
 2378 0858 EB01     		.2byte	0x1eb
 2379 085a 00000000 		.4byte	.LFB121
 2380 085e 18000000 		.4byte	.LFE121-.LFB121
 2381 0862 01       		.uleb128 0x1
 2382 0863 9C       		.byte	0x9c
 2383 0864 85080000 		.4byte	0x885
 2384 0868 19       		.uleb128 0x19
 2385 0869 D4030000 		.4byte	.LASF53
 2386 086d 01       		.byte	0x1
 2387 086e EB01     		.2byte	0x1eb
 2388 0870 49030000 		.4byte	0x349
 2389 0874 01       		.uleb128 0x1
 2390 0875 50       		.byte	0x50
 2391 0876 19       		.uleb128 0x19
 2392 0877 16000000 		.4byte	.LASF70
 2393 087b 01       		.byte	0x1
 2394 087c EB01     		.2byte	0x1eb
ARM GAS  /tmp/ccWcPBJM.s 			page 43


 2395 087e 2C010000 		.4byte	0x12c
 2396 0882 01       		.uleb128 0x1
 2397 0883 51       		.byte	0x51
 2398 0884 00       		.byte	0
 2399 0885 1A       		.uleb128 0x1a
 2400 0886 12060000 		.4byte	.LASF94
 2401 088a 01       		.byte	0x1
 2402 088b D301     		.2byte	0x1d3
 2403 088d 00000000 		.4byte	.LFB120
 2404 0891 18000000 		.4byte	.LFE120-.LFB120
 2405 0895 01       		.uleb128 0x1
 2406 0896 9C       		.byte	0x9c
 2407 0897 B8080000 		.4byte	0x8b8
 2408 089b 19       		.uleb128 0x19
 2409 089c D4030000 		.4byte	.LASF53
 2410 08a0 01       		.byte	0x1
 2411 08a1 D301     		.2byte	0x1d3
 2412 08a3 49030000 		.4byte	0x349
 2413 08a7 01       		.uleb128 0x1
 2414 08a8 50       		.byte	0x50
 2415 08a9 19       		.uleb128 0x19
 2416 08aa 16000000 		.4byte	.LASF70
 2417 08ae 01       		.byte	0x1
 2418 08af D301     		.2byte	0x1d3
 2419 08b1 2C010000 		.4byte	0x12c
 2420 08b5 01       		.uleb128 0x1
 2421 08b6 51       		.byte	0x51
 2422 08b7 00       		.byte	0
 2423 08b8 1A       		.uleb128 0x1a
 2424 08b9 03020000 		.4byte	.LASF95
 2425 08bd 01       		.byte	0x1
 2426 08be B801     		.2byte	0x1b8
 2427 08c0 00000000 		.4byte	.LFB119
 2428 08c4 12000000 		.4byte	.LFE119-.LFB119
 2429 08c8 01       		.uleb128 0x1
 2430 08c9 9C       		.byte	0x9c
 2431 08ca FD080000 		.4byte	0x8fd
 2432 08ce 19       		.uleb128 0x19
 2433 08cf D4030000 		.4byte	.LASF53
 2434 08d3 01       		.byte	0x1
 2435 08d4 B801     		.2byte	0x1b8
 2436 08d6 49030000 		.4byte	0x349
 2437 08da 01       		.uleb128 0x1
 2438 08db 50       		.byte	0x50
 2439 08dc 15       		.uleb128 0x15
 2440 08dd CC030000 		.4byte	.LASF96
 2441 08e1 01       		.byte	0x1
 2442 08e2 B801     		.2byte	0x1b8
 2443 08e4 97000000 		.4byte	0x97
 2444 08e8 36030000 		.4byte	.LLST8
 2445 08ec 16       		.uleb128 0x16
 2446 08ed 3E070000 		.4byte	.LASF97
 2447 08f1 01       		.byte	0x1
 2448 08f2 BA01     		.2byte	0x1ba
 2449 08f4 A2000000 		.4byte	0xa2
 2450 08f8 57030000 		.4byte	.LLST9
 2451 08fc 00       		.byte	0
ARM GAS  /tmp/ccWcPBJM.s 			page 44


 2452 08fd 1A       		.uleb128 0x1a
 2453 08fe 53060000 		.4byte	.LASF98
 2454 0902 01       		.byte	0x1
 2455 0903 A101     		.2byte	0x1a1
 2456 0905 00000000 		.4byte	.LFB118
 2457 0909 18000000 		.4byte	.LFE118-.LFB118
 2458 090d 01       		.uleb128 0x1
 2459 090e 9C       		.byte	0x9c
 2460 090f 30090000 		.4byte	0x930
 2461 0913 19       		.uleb128 0x19
 2462 0914 D4030000 		.4byte	.LASF53
 2463 0918 01       		.byte	0x1
 2464 0919 A101     		.2byte	0x1a1
 2465 091b 49030000 		.4byte	0x349
 2466 091f 01       		.uleb128 0x1
 2467 0920 50       		.byte	0x50
 2468 0921 19       		.uleb128 0x19
 2469 0922 16000000 		.4byte	.LASF70
 2470 0926 01       		.byte	0x1
 2471 0927 A101     		.2byte	0x1a1
 2472 0929 2C010000 		.4byte	0x12c
 2473 092d 01       		.uleb128 0x1
 2474 092e 51       		.byte	0x51
 2475 092f 00       		.byte	0
 2476 0930 1A       		.uleb128 0x1a
 2477 0931 CC060000 		.4byte	.LASF99
 2478 0935 01       		.byte	0x1
 2479 0936 8601     		.2byte	0x186
 2480 0938 00000000 		.4byte	.LFB117
 2481 093c 16000000 		.4byte	.LFE117-.LFB117
 2482 0940 01       		.uleb128 0x1
 2483 0941 9C       		.byte	0x9c
 2484 0942 73090000 		.4byte	0x973
 2485 0946 19       		.uleb128 0x19
 2486 0947 D4030000 		.4byte	.LASF53
 2487 094b 01       		.byte	0x1
 2488 094c 8601     		.2byte	0x186
 2489 094e 49030000 		.4byte	0x349
 2490 0952 01       		.uleb128 0x1
 2491 0953 50       		.byte	0x50
 2492 0954 15       		.uleb128 0x15
 2493 0955 CC030000 		.4byte	.LASF96
 2494 0959 01       		.byte	0x1
 2495 095a 8601     		.2byte	0x186
 2496 095c 97000000 		.4byte	0x97
 2497 0960 87030000 		.4byte	.LLST7
 2498 0964 19       		.uleb128 0x19
 2499 0965 D9030000 		.4byte	.LASF100
 2500 0969 01       		.byte	0x1
 2501 096a 8601     		.2byte	0x186
 2502 096c 97000000 		.4byte	0x97
 2503 0970 01       		.uleb128 0x1
 2504 0971 52       		.byte	0x52
 2505 0972 00       		.byte	0
 2506 0973 1A       		.uleb128 0x1a
 2507 0974 F6060000 		.4byte	.LASF101
 2508 0978 01       		.byte	0x1
ARM GAS  /tmp/ccWcPBJM.s 			page 45


 2509 0979 6A01     		.2byte	0x16a
 2510 097b 00000000 		.4byte	.LFB116
 2511 097f 18000000 		.4byte	.LFE116-.LFB116
 2512 0983 01       		.uleb128 0x1
 2513 0984 9C       		.byte	0x9c
 2514 0985 A6090000 		.4byte	0x9a6
 2515 0989 19       		.uleb128 0x19
 2516 098a D4030000 		.4byte	.LASF53
 2517 098e 01       		.byte	0x1
 2518 098f 6A01     		.2byte	0x16a
 2519 0991 49030000 		.4byte	0x349
 2520 0995 01       		.uleb128 0x1
 2521 0996 50       		.byte	0x50
 2522 0997 19       		.uleb128 0x19
 2523 0998 16000000 		.4byte	.LASF70
 2524 099c 01       		.byte	0x1
 2525 099d 6A01     		.2byte	0x16a
 2526 099f 2C010000 		.4byte	0x12c
 2527 09a3 01       		.uleb128 0x1
 2528 09a4 51       		.byte	0x51
 2529 09a5 00       		.byte	0
 2530 09a6 1A       		.uleb128 0x1a
 2531 09a7 1F000000 		.4byte	.LASF102
 2532 09ab 01       		.byte	0x1
 2533 09ac 5201     		.2byte	0x152
 2534 09ae 00000000 		.4byte	.LFB115
 2535 09b2 18000000 		.4byte	.LFE115-.LFB115
 2536 09b6 01       		.uleb128 0x1
 2537 09b7 9C       		.byte	0x9c
 2538 09b8 D9090000 		.4byte	0x9d9
 2539 09bc 19       		.uleb128 0x19
 2540 09bd D4030000 		.4byte	.LASF53
 2541 09c1 01       		.byte	0x1
 2542 09c2 5201     		.2byte	0x152
 2543 09c4 49030000 		.4byte	0x349
 2544 09c8 01       		.uleb128 0x1
 2545 09c9 50       		.byte	0x50
 2546 09ca 19       		.uleb128 0x19
 2547 09cb 16000000 		.4byte	.LASF70
 2548 09cf 01       		.byte	0x1
 2549 09d0 5201     		.2byte	0x152
 2550 09d2 2C010000 		.4byte	0x12c
 2551 09d6 01       		.uleb128 0x1
 2552 09d7 51       		.byte	0x51
 2553 09d8 00       		.byte	0
 2554 09d9 1A       		.uleb128 0x1a
 2555 09da 82040000 		.4byte	.LASF103
 2556 09de 01       		.byte	0x1
 2557 09df 3A01     		.2byte	0x13a
 2558 09e1 00000000 		.4byte	.LFB114
 2559 09e5 18000000 		.4byte	.LFE114-.LFB114
 2560 09e9 01       		.uleb128 0x1
 2561 09ea 9C       		.byte	0x9c
 2562 09eb 0C0A0000 		.4byte	0xa0c
 2563 09ef 19       		.uleb128 0x19
 2564 09f0 D4030000 		.4byte	.LASF53
 2565 09f4 01       		.byte	0x1
ARM GAS  /tmp/ccWcPBJM.s 			page 46


 2566 09f5 3A01     		.2byte	0x13a
 2567 09f7 49030000 		.4byte	0x349
 2568 09fb 01       		.uleb128 0x1
 2569 09fc 50       		.byte	0x50
 2570 09fd 19       		.uleb128 0x19
 2571 09fe 16000000 		.4byte	.LASF70
 2572 0a02 01       		.byte	0x1
 2573 0a03 3A01     		.2byte	0x13a
 2574 0a05 2C010000 		.4byte	0x12c
 2575 0a09 01       		.uleb128 0x1
 2576 0a0a 51       		.byte	0x51
 2577 0a0b 00       		.byte	0
 2578 0a0c 1A       		.uleb128 0x1a
 2579 0a0d 92020000 		.4byte	.LASF104
 2580 0a11 01       		.byte	0x1
 2581 0a12 2201     		.2byte	0x122
 2582 0a14 00000000 		.4byte	.LFB113
 2583 0a18 1C000000 		.4byte	.LFE113-.LFB113
 2584 0a1c 01       		.uleb128 0x1
 2585 0a1d 9C       		.byte	0x9c
 2586 0a1e 310A0000 		.4byte	0xa31
 2587 0a22 19       		.uleb128 0x19
 2588 0a23 19020000 		.4byte	.LASF105
 2589 0a27 01       		.byte	0x1
 2590 0a28 2201     		.2byte	0x122
 2591 0a2a 310A0000 		.4byte	0xa31
 2592 0a2e 01       		.uleb128 0x1
 2593 0a2f 50       		.byte	0x50
 2594 0a30 00       		.byte	0
 2595 0a31 13       		.uleb128 0x13
 2596 0a32 04       		.byte	0x4
 2597 0a33 0D030000 		.4byte	0x30d
 2598 0a37 1C       		.uleb128 0x1c
 2599 0a38 63030000 		.4byte	.LASF106
 2600 0a3c 01       		.byte	0x1
 2601 0a3d B5       		.byte	0xb5
 2602 0a3e 00000000 		.4byte	.LFB112
 2603 0a42 D4000000 		.4byte	.LFE112-.LFB112
 2604 0a46 01       		.uleb128 0x1
 2605 0a47 9C       		.byte	0x9c
 2606 0a48 C50A0000 		.4byte	0xac5
 2607 0a4c 1D       		.uleb128 0x1d
 2608 0a4d D4030000 		.4byte	.LASF53
 2609 0a51 01       		.byte	0x1
 2610 0a52 B5       		.byte	0xb5
 2611 0a53 49030000 		.4byte	0x349
 2612 0a57 B0030000 		.4byte	.LLST1
 2613 0a5b 1D       		.uleb128 0x1d
 2614 0a5c 19020000 		.4byte	.LASF105
 2615 0a60 01       		.byte	0x1
 2616 0a61 B5       		.byte	0xb5
 2617 0a62 310A0000 		.4byte	0xa31
 2618 0a66 CE030000 		.4byte	.LLST2
 2619 0a6a 1E       		.uleb128 0x1e
 2620 0a6b 3E070000 		.4byte	.LASF97
 2621 0a6f 01       		.byte	0x1
 2622 0a70 B7       		.byte	0xb7
ARM GAS  /tmp/ccWcPBJM.s 			page 47


 2623 0a71 A2000000 		.4byte	0xa2
 2624 0a75 EC030000 		.4byte	.LLST3
 2625 0a79 1E       		.uleb128 0x1e
 2626 0a7a 42020000 		.4byte	.LASF107
 2627 0a7e 01       		.byte	0x1
 2628 0a7f B7       		.byte	0xb7
 2629 0a80 A2000000 		.4byte	0xa2
 2630 0a84 72040000 		.4byte	.LLST4
 2631 0a88 1E       		.uleb128 0x1e
 2632 0a89 45070000 		.4byte	.LASF108
 2633 0a8d 01       		.byte	0x1
 2634 0a8e B8       		.byte	0xb8
 2635 0a8f A2000000 		.4byte	0xa2
 2636 0a93 CE040000 		.4byte	.LLST5
 2637 0a97 1E       		.uleb128 0x1e
 2638 0a98 7C040000 		.4byte	.LASF109
 2639 0a9c 01       		.byte	0x1
 2640 0a9d B9       		.byte	0xb9
 2641 0a9e C2000000 		.4byte	0xc2
 2642 0aa2 1B050000 		.4byte	.LLST6
 2643 0aa6 1F       		.uleb128 0x1f
 2644 0aa7 FE040000 		.4byte	.LASF110
 2645 0aab 01       		.byte	0x1
 2646 0aac BA       		.byte	0xba
 2647 0aad B1020000 		.4byte	0x2b1
 2648 0ab1 02       		.uleb128 0x2
 2649 0ab2 91       		.byte	0x91
 2650 0ab3 58       		.sleb128 -40
 2651 0ab4 20       		.uleb128 0x20
 2652 0ab5 10000000 		.4byte	.LVL13
 2653 0ab9 AF0B0000 		.4byte	0xbaf
 2654 0abd 21       		.uleb128 0x21
 2655 0abe 01       		.uleb128 0x1
 2656 0abf 50       		.byte	0x50
 2657 0ac0 02       		.uleb128 0x2
 2658 0ac1 7D       		.byte	0x7d
 2659 0ac2 00       		.sleb128 0
 2660 0ac3 00       		.byte	0
 2661 0ac4 00       		.byte	0
 2662 0ac5 1C       		.uleb128 0x1c
 2663 0ac6 18040000 		.4byte	.LASF111
 2664 0aca 01       		.byte	0x1
 2665 0acb 8A       		.byte	0x8a
 2666 0acc 00000000 		.4byte	.LFB111
 2667 0ad0 6C000000 		.4byte	.LFE111-.LFB111
 2668 0ad4 01       		.uleb128 0x1
 2669 0ad5 9C       		.byte	0x9c
 2670 0ad6 820B0000 		.4byte	0xb82
 2671 0ada 1D       		.uleb128 0x1d
 2672 0adb D4030000 		.4byte	.LASF53
 2673 0adf 01       		.byte	0x1
 2674 0ae0 8A       		.byte	0x8a
 2675 0ae1 49030000 		.4byte	0x349
 2676 0ae5 6C050000 		.4byte	.LLST0
 2677 0ae9 22       		.uleb128 0x22
 2678 0aea 20000000 		.4byte	.LVL2
 2679 0aee BB0B0000 		.4byte	0xbbb
ARM GAS  /tmp/ccWcPBJM.s 			page 48


 2680 0af2 030B0000 		.4byte	0xb03
 2681 0af6 21       		.uleb128 0x21
 2682 0af7 01       		.uleb128 0x1
 2683 0af8 50       		.byte	0x50
 2684 0af9 03       		.uleb128 0x3
 2685 0afa 40       		.byte	0x40
 2686 0afb 41       		.byte	0x41
 2687 0afc 24       		.byte	0x24
 2688 0afd 21       		.uleb128 0x21
 2689 0afe 01       		.uleb128 0x1
 2690 0aff 51       		.byte	0x51
 2691 0b00 01       		.uleb128 0x1
 2692 0b01 31       		.byte	0x31
 2693 0b02 00       		.byte	0
 2694 0b03 23       		.uleb128 0x23
 2695 0b04 2E000000 		.4byte	.LVL3
 2696 0b08 BB0B0000 		.4byte	0xbbb
 2697 0b0c 1D0B0000 		.4byte	0xb1d
 2698 0b10 21       		.uleb128 0x21
 2699 0b11 01       		.uleb128 0x1
 2700 0b12 50       		.byte	0x50
 2701 0b13 03       		.uleb128 0x3
 2702 0b14 40       		.byte	0x40
 2703 0b15 41       		.byte	0x41
 2704 0b16 24       		.byte	0x24
 2705 0b17 21       		.uleb128 0x21
 2706 0b18 01       		.uleb128 0x1
 2707 0b19 51       		.byte	0x51
 2708 0b1a 01       		.uleb128 0x1
 2709 0b1b 30       		.byte	0x30
 2710 0b1c 00       		.byte	0
 2711 0b1d 22       		.uleb128 0x22
 2712 0b1e 38000000 		.4byte	.LVL5
 2713 0b22 BB0B0000 		.4byte	0xbbb
 2714 0b26 370B0000 		.4byte	0xb37
 2715 0b2a 21       		.uleb128 0x21
 2716 0b2b 01       		.uleb128 0x1
 2717 0b2c 50       		.byte	0x50
 2718 0b2d 03       		.uleb128 0x3
 2719 0b2e 40       		.byte	0x40
 2720 0b2f 43       		.byte	0x43
 2721 0b30 24       		.byte	0x24
 2722 0b31 21       		.uleb128 0x21
 2723 0b32 01       		.uleb128 0x1
 2724 0b33 51       		.byte	0x51
 2725 0b34 01       		.uleb128 0x1
 2726 0b35 31       		.byte	0x31
 2727 0b36 00       		.byte	0
 2728 0b37 23       		.uleb128 0x23
 2729 0b38 46000000 		.4byte	.LVL6
 2730 0b3c BB0B0000 		.4byte	0xbbb
 2731 0b40 510B0000 		.4byte	0xb51
 2732 0b44 21       		.uleb128 0x21
 2733 0b45 01       		.uleb128 0x1
 2734 0b46 50       		.byte	0x50
 2735 0b47 03       		.uleb128 0x3
 2736 0b48 40       		.byte	0x40
ARM GAS  /tmp/ccWcPBJM.s 			page 49


 2737 0b49 43       		.byte	0x43
 2738 0b4a 24       		.byte	0x24
 2739 0b4b 21       		.uleb128 0x21
 2740 0b4c 01       		.uleb128 0x1
 2741 0b4d 51       		.byte	0x51
 2742 0b4e 01       		.uleb128 0x1
 2743 0b4f 30       		.byte	0x30
 2744 0b50 00       		.byte	0
 2745 0b51 22       		.uleb128 0x22
 2746 0b52 50000000 		.4byte	.LVL8
 2747 0b56 BB0B0000 		.4byte	0xbbb
 2748 0b5a 6B0B0000 		.4byte	0xb6b
 2749 0b5e 21       		.uleb128 0x21
 2750 0b5f 01       		.uleb128 0x1
 2751 0b60 50       		.byte	0x50
 2752 0b61 03       		.uleb128 0x3
 2753 0b62 40       		.byte	0x40
 2754 0b63 42       		.byte	0x42
 2755 0b64 24       		.byte	0x24
 2756 0b65 21       		.uleb128 0x21
 2757 0b66 01       		.uleb128 0x1
 2758 0b67 51       		.byte	0x51
 2759 0b68 01       		.uleb128 0x1
 2760 0b69 31       		.byte	0x31
 2761 0b6a 00       		.byte	0
 2762 0b6b 24       		.uleb128 0x24
 2763 0b6c 5E000000 		.4byte	.LVL9
 2764 0b70 BB0B0000 		.4byte	0xbbb
 2765 0b74 21       		.uleb128 0x21
 2766 0b75 01       		.uleb128 0x1
 2767 0b76 50       		.byte	0x50
 2768 0b77 03       		.uleb128 0x3
 2769 0b78 40       		.byte	0x40
 2770 0b79 42       		.byte	0x42
 2771 0b7a 24       		.byte	0x24
 2772 0b7b 21       		.uleb128 0x21
 2773 0b7c 01       		.uleb128 0x1
 2774 0b7d 51       		.byte	0x51
 2775 0b7e 01       		.uleb128 0x1
 2776 0b7f 30       		.byte	0x30
 2777 0b80 00       		.byte	0
 2778 0b81 00       		.byte	0
 2779 0b82 25       		.uleb128 0x25
 2780 0b83 AA030000 		.4byte	0x3aa
 2781 0b87 00000000 		.4byte	.LFB141
 2782 0b8b 08000000 		.4byte	.LFE141-.LFB141
 2783 0b8f 01       		.uleb128 0x1
 2784 0b90 9C       		.byte	0x9c
 2785 0b91 AF0B0000 		.4byte	0xbaf
 2786 0b95 26       		.uleb128 0x26
 2787 0b96 B7030000 		.4byte	0x3b7
 2788 0b9a 01       		.uleb128 0x1
 2789 0b9b 50       		.byte	0x50
 2790 0b9c 27       		.uleb128 0x27
 2791 0b9d C3030000 		.4byte	0x3c3
 2792 0ba1 BF050000 		.4byte	.LLST27
 2793 0ba5 28       		.uleb128 0x28
ARM GAS  /tmp/ccWcPBJM.s 			page 50


 2794 0ba6 CF030000 		.4byte	0x3cf
 2795 0baa EE050000 		.4byte	.LLST28
 2796 0bae 00       		.byte	0
 2797 0baf 29       		.uleb128 0x29
 2798 0bb0 C8050000 		.4byte	.LASF112
 2799 0bb4 C8050000 		.4byte	.LASF112
 2800 0bb8 05       		.byte	0x5
 2801 0bb9 D501     		.2byte	0x1d5
 2802 0bbb 29       		.uleb128 0x29
 2803 0bbc 9C010000 		.4byte	.LASF113
 2804 0bc0 9C010000 		.4byte	.LASF113
 2805 0bc4 05       		.byte	0x5
 2806 0bc5 E601     		.2byte	0x1e6
 2807 0bc7 00       		.byte	0
 2808              		.section	.debug_abbrev,"",%progbits
 2809              	.Ldebug_abbrev0:
 2810 0000 01       		.uleb128 0x1
 2811 0001 11       		.uleb128 0x11
 2812 0002 01       		.byte	0x1
 2813 0003 25       		.uleb128 0x25
 2814 0004 0E       		.uleb128 0xe
 2815 0005 13       		.uleb128 0x13
 2816 0006 0B       		.uleb128 0xb
 2817 0007 03       		.uleb128 0x3
 2818 0008 0E       		.uleb128 0xe
 2819 0009 1B       		.uleb128 0x1b
 2820 000a 0E       		.uleb128 0xe
 2821 000b 55       		.uleb128 0x55
 2822 000c 17       		.uleb128 0x17
 2823 000d 11       		.uleb128 0x11
 2824 000e 01       		.uleb128 0x1
 2825 000f 10       		.uleb128 0x10
 2826 0010 17       		.uleb128 0x17
 2827 0011 00       		.byte	0
 2828 0012 00       		.byte	0
 2829 0013 02       		.uleb128 0x2
 2830 0014 24       		.uleb128 0x24
 2831 0015 00       		.byte	0
 2832 0016 0B       		.uleb128 0xb
 2833 0017 0B       		.uleb128 0xb
 2834 0018 3E       		.uleb128 0x3e
 2835 0019 0B       		.uleb128 0xb
 2836 001a 03       		.uleb128 0x3
 2837 001b 0E       		.uleb128 0xe
 2838 001c 00       		.byte	0
 2839 001d 00       		.byte	0
 2840 001e 03       		.uleb128 0x3
 2841 001f 16       		.uleb128 0x16
 2842 0020 00       		.byte	0
 2843 0021 03       		.uleb128 0x3
 2844 0022 0E       		.uleb128 0xe
 2845 0023 3A       		.uleb128 0x3a
 2846 0024 0B       		.uleb128 0xb
 2847 0025 3B       		.uleb128 0x3b
 2848 0026 0B       		.uleb128 0xb
 2849 0027 49       		.uleb128 0x49
 2850 0028 13       		.uleb128 0x13
ARM GAS  /tmp/ccWcPBJM.s 			page 51


 2851 0029 00       		.byte	0
 2852 002a 00       		.byte	0
 2853 002b 04       		.uleb128 0x4
 2854 002c 24       		.uleb128 0x24
 2855 002d 00       		.byte	0
 2856 002e 0B       		.uleb128 0xb
 2857 002f 0B       		.uleb128 0xb
 2858 0030 3E       		.uleb128 0x3e
 2859 0031 0B       		.uleb128 0xb
 2860 0032 03       		.uleb128 0x3
 2861 0033 08       		.uleb128 0x8
 2862 0034 00       		.byte	0
 2863 0035 00       		.byte	0
 2864 0036 05       		.uleb128 0x5
 2865 0037 35       		.uleb128 0x35
 2866 0038 00       		.byte	0
 2867 0039 49       		.uleb128 0x49
 2868 003a 13       		.uleb128 0x13
 2869 003b 00       		.byte	0
 2870 003c 00       		.byte	0
 2871 003d 06       		.uleb128 0x6
 2872 003e 34       		.uleb128 0x34
 2873 003f 00       		.byte	0
 2874 0040 03       		.uleb128 0x3
 2875 0041 0E       		.uleb128 0xe
 2876 0042 3A       		.uleb128 0x3a
 2877 0043 0B       		.uleb128 0xb
 2878 0044 3B       		.uleb128 0x3b
 2879 0045 05       		.uleb128 0x5
 2880 0046 49       		.uleb128 0x49
 2881 0047 13       		.uleb128 0x13
 2882 0048 3F       		.uleb128 0x3f
 2883 0049 19       		.uleb128 0x19
 2884 004a 3C       		.uleb128 0x3c
 2885 004b 19       		.uleb128 0x19
 2886 004c 00       		.byte	0
 2887 004d 00       		.byte	0
 2888 004e 07       		.uleb128 0x7
 2889 004f 04       		.uleb128 0x4
 2890 0050 01       		.byte	0x1
 2891 0051 3E       		.uleb128 0x3e
 2892 0052 0B       		.uleb128 0xb
 2893 0053 0B       		.uleb128 0xb
 2894 0054 0B       		.uleb128 0xb
 2895 0055 49       		.uleb128 0x49
 2896 0056 13       		.uleb128 0x13
 2897 0057 3A       		.uleb128 0x3a
 2898 0058 0B       		.uleb128 0xb
 2899 0059 3B       		.uleb128 0x3b
 2900 005a 05       		.uleb128 0x5
 2901 005b 01       		.uleb128 0x1
 2902 005c 13       		.uleb128 0x13
 2903 005d 00       		.byte	0
 2904 005e 00       		.byte	0
 2905 005f 08       		.uleb128 0x8
 2906 0060 28       		.uleb128 0x28
 2907 0061 00       		.byte	0
ARM GAS  /tmp/ccWcPBJM.s 			page 52


 2908 0062 03       		.uleb128 0x3
 2909 0063 0E       		.uleb128 0xe
 2910 0064 1C       		.uleb128 0x1c
 2911 0065 0B       		.uleb128 0xb
 2912 0066 00       		.byte	0
 2913 0067 00       		.byte	0
 2914 0068 09       		.uleb128 0x9
 2915 0069 28       		.uleb128 0x28
 2916 006a 00       		.byte	0
 2917 006b 03       		.uleb128 0x3
 2918 006c 08       		.uleb128 0x8
 2919 006d 1C       		.uleb128 0x1c
 2920 006e 0B       		.uleb128 0xb
 2921 006f 00       		.byte	0
 2922 0070 00       		.byte	0
 2923 0071 0A       		.uleb128 0xa
 2924 0072 16       		.uleb128 0x16
 2925 0073 00       		.byte	0
 2926 0074 03       		.uleb128 0x3
 2927 0075 0E       		.uleb128 0xe
 2928 0076 3A       		.uleb128 0x3a
 2929 0077 0B       		.uleb128 0xb
 2930 0078 3B       		.uleb128 0x3b
 2931 0079 05       		.uleb128 0x5
 2932 007a 49       		.uleb128 0x49
 2933 007b 13       		.uleb128 0x13
 2934 007c 00       		.byte	0
 2935 007d 00       		.byte	0
 2936 007e 0B       		.uleb128 0xb
 2937 007f 13       		.uleb128 0x13
 2938 0080 01       		.byte	0x1
 2939 0081 0B       		.uleb128 0xb
 2940 0082 0B       		.uleb128 0xb
 2941 0083 3A       		.uleb128 0x3a
 2942 0084 0B       		.uleb128 0xb
 2943 0085 3B       		.uleb128 0x3b
 2944 0086 05       		.uleb128 0x5
 2945 0087 01       		.uleb128 0x1
 2946 0088 13       		.uleb128 0x13
 2947 0089 00       		.byte	0
 2948 008a 00       		.byte	0
 2949 008b 0C       		.uleb128 0xc
 2950 008c 0D       		.uleb128 0xd
 2951 008d 00       		.byte	0
 2952 008e 03       		.uleb128 0x3
 2953 008f 08       		.uleb128 0x8
 2954 0090 3A       		.uleb128 0x3a
 2955 0091 0B       		.uleb128 0xb
 2956 0092 3B       		.uleb128 0x3b
 2957 0093 05       		.uleb128 0x5
 2958 0094 49       		.uleb128 0x49
 2959 0095 13       		.uleb128 0x13
 2960 0096 38       		.uleb128 0x38
 2961 0097 0B       		.uleb128 0xb
 2962 0098 00       		.byte	0
 2963 0099 00       		.byte	0
 2964 009a 0D       		.uleb128 0xd
ARM GAS  /tmp/ccWcPBJM.s 			page 53


 2965 009b 0D       		.uleb128 0xd
 2966 009c 00       		.byte	0
 2967 009d 03       		.uleb128 0x3
 2968 009e 0E       		.uleb128 0xe
 2969 009f 3A       		.uleb128 0x3a
 2970 00a0 0B       		.uleb128 0xb
 2971 00a1 3B       		.uleb128 0x3b
 2972 00a2 05       		.uleb128 0x5
 2973 00a3 49       		.uleb128 0x49
 2974 00a4 13       		.uleb128 0x13
 2975 00a5 38       		.uleb128 0x38
 2976 00a6 0B       		.uleb128 0xb
 2977 00a7 00       		.byte	0
 2978 00a8 00       		.byte	0
 2979 00a9 0E       		.uleb128 0xe
 2980 00aa 13       		.uleb128 0x13
 2981 00ab 01       		.byte	0x1
 2982 00ac 0B       		.uleb128 0xb
 2983 00ad 0B       		.uleb128 0xb
 2984 00ae 3A       		.uleb128 0x3a
 2985 00af 0B       		.uleb128 0xb
 2986 00b0 3B       		.uleb128 0x3b
 2987 00b1 0B       		.uleb128 0xb
 2988 00b2 01       		.uleb128 0x1
 2989 00b3 13       		.uleb128 0x13
 2990 00b4 00       		.byte	0
 2991 00b5 00       		.byte	0
 2992 00b6 0F       		.uleb128 0xf
 2993 00b7 0D       		.uleb128 0xd
 2994 00b8 00       		.byte	0
 2995 00b9 03       		.uleb128 0x3
 2996 00ba 0E       		.uleb128 0xe
 2997 00bb 3A       		.uleb128 0x3a
 2998 00bc 0B       		.uleb128 0xb
 2999 00bd 3B       		.uleb128 0x3b
 3000 00be 0B       		.uleb128 0xb
 3001 00bf 49       		.uleb128 0x49
 3002 00c0 13       		.uleb128 0x13
 3003 00c1 38       		.uleb128 0x38
 3004 00c2 0B       		.uleb128 0xb
 3005 00c3 00       		.byte	0
 3006 00c4 00       		.byte	0
 3007 00c5 10       		.uleb128 0x10
 3008 00c6 2E       		.uleb128 0x2e
 3009 00c7 01       		.byte	0x1
 3010 00c8 3F       		.uleb128 0x3f
 3011 00c9 19       		.uleb128 0x19
 3012 00ca 03       		.uleb128 0x3
 3013 00cb 0E       		.uleb128 0xe
 3014 00cc 3A       		.uleb128 0x3a
 3015 00cd 0B       		.uleb128 0xb
 3016 00ce 3B       		.uleb128 0x3b
 3017 00cf 05       		.uleb128 0x5
 3018 00d0 27       		.uleb128 0x27
 3019 00d1 19       		.uleb128 0x19
 3020 00d2 01       		.uleb128 0x1
 3021 00d3 13       		.uleb128 0x13
ARM GAS  /tmp/ccWcPBJM.s 			page 54


 3022 00d4 00       		.byte	0
 3023 00d5 00       		.byte	0
 3024 00d6 11       		.uleb128 0x11
 3025 00d7 05       		.uleb128 0x5
 3026 00d8 00       		.byte	0
 3027 00d9 03       		.uleb128 0x3
 3028 00da 0E       		.uleb128 0xe
 3029 00db 3A       		.uleb128 0x3a
 3030 00dc 0B       		.uleb128 0xb
 3031 00dd 3B       		.uleb128 0x3b
 3032 00de 05       		.uleb128 0x5
 3033 00df 49       		.uleb128 0x49
 3034 00e0 13       		.uleb128 0x13
 3035 00e1 00       		.byte	0
 3036 00e2 00       		.byte	0
 3037 00e3 12       		.uleb128 0x12
 3038 00e4 34       		.uleb128 0x34
 3039 00e5 00       		.byte	0
 3040 00e6 03       		.uleb128 0x3
 3041 00e7 0E       		.uleb128 0xe
 3042 00e8 3A       		.uleb128 0x3a
 3043 00e9 0B       		.uleb128 0xb
 3044 00ea 3B       		.uleb128 0x3b
 3045 00eb 05       		.uleb128 0x5
 3046 00ec 49       		.uleb128 0x49
 3047 00ed 13       		.uleb128 0x13
 3048 00ee 00       		.byte	0
 3049 00ef 00       		.byte	0
 3050 00f0 13       		.uleb128 0x13
 3051 00f1 0F       		.uleb128 0xf
 3052 00f2 00       		.byte	0
 3053 00f3 0B       		.uleb128 0xb
 3054 00f4 0B       		.uleb128 0xb
 3055 00f5 49       		.uleb128 0x49
 3056 00f6 13       		.uleb128 0x13
 3057 00f7 00       		.byte	0
 3058 00f8 00       		.byte	0
 3059 00f9 14       		.uleb128 0x14
 3060 00fa 2E       		.uleb128 0x2e
 3061 00fb 01       		.byte	0x1
 3062 00fc 3F       		.uleb128 0x3f
 3063 00fd 19       		.uleb128 0x19
 3064 00fe 03       		.uleb128 0x3
 3065 00ff 0E       		.uleb128 0xe
 3066 0100 3A       		.uleb128 0x3a
 3067 0101 0B       		.uleb128 0xb
 3068 0102 3B       		.uleb128 0x3b
 3069 0103 05       		.uleb128 0x5
 3070 0104 27       		.uleb128 0x27
 3071 0105 19       		.uleb128 0x19
 3072 0106 49       		.uleb128 0x49
 3073 0107 13       		.uleb128 0x13
 3074 0108 11       		.uleb128 0x11
 3075 0109 01       		.uleb128 0x1
 3076 010a 12       		.uleb128 0x12
 3077 010b 06       		.uleb128 0x6
 3078 010c 40       		.uleb128 0x40
ARM GAS  /tmp/ccWcPBJM.s 			page 55


 3079 010d 18       		.uleb128 0x18
 3080 010e 9742     		.uleb128 0x2117
 3081 0110 19       		.uleb128 0x19
 3082 0111 01       		.uleb128 0x1
 3083 0112 13       		.uleb128 0x13
 3084 0113 00       		.byte	0
 3085 0114 00       		.byte	0
 3086 0115 15       		.uleb128 0x15
 3087 0116 05       		.uleb128 0x5
 3088 0117 00       		.byte	0
 3089 0118 03       		.uleb128 0x3
 3090 0119 0E       		.uleb128 0xe
 3091 011a 3A       		.uleb128 0x3a
 3092 011b 0B       		.uleb128 0xb
 3093 011c 3B       		.uleb128 0x3b
 3094 011d 05       		.uleb128 0x5
 3095 011e 49       		.uleb128 0x49
 3096 011f 13       		.uleb128 0x13
 3097 0120 02       		.uleb128 0x2
 3098 0121 17       		.uleb128 0x17
 3099 0122 00       		.byte	0
 3100 0123 00       		.byte	0
 3101 0124 16       		.uleb128 0x16
 3102 0125 34       		.uleb128 0x34
 3103 0126 00       		.byte	0
 3104 0127 03       		.uleb128 0x3
 3105 0128 0E       		.uleb128 0xe
 3106 0129 3A       		.uleb128 0x3a
 3107 012a 0B       		.uleb128 0xb
 3108 012b 3B       		.uleb128 0x3b
 3109 012c 05       		.uleb128 0x5
 3110 012d 49       		.uleb128 0x49
 3111 012e 13       		.uleb128 0x13
 3112 012f 02       		.uleb128 0x2
 3113 0130 17       		.uleb128 0x17
 3114 0131 00       		.byte	0
 3115 0132 00       		.byte	0
 3116 0133 17       		.uleb128 0x17
 3117 0134 2E       		.uleb128 0x2e
 3118 0135 01       		.byte	0x1
 3119 0136 3F       		.uleb128 0x3f
 3120 0137 19       		.uleb128 0x19
 3121 0138 03       		.uleb128 0x3
 3122 0139 0E       		.uleb128 0xe
 3123 013a 3A       		.uleb128 0x3a
 3124 013b 0B       		.uleb128 0xb
 3125 013c 3B       		.uleb128 0x3b
 3126 013d 05       		.uleb128 0x5
 3127 013e 27       		.uleb128 0x27
 3128 013f 19       		.uleb128 0x19
 3129 0140 20       		.uleb128 0x20
 3130 0141 0B       		.uleb128 0xb
 3131 0142 01       		.uleb128 0x1
 3132 0143 13       		.uleb128 0x13
 3133 0144 00       		.byte	0
 3134 0145 00       		.byte	0
 3135 0146 18       		.uleb128 0x18
ARM GAS  /tmp/ccWcPBJM.s 			page 56


 3136 0147 34       		.uleb128 0x34
 3137 0148 00       		.byte	0
 3138 0149 03       		.uleb128 0x3
 3139 014a 0E       		.uleb128 0xe
 3140 014b 3A       		.uleb128 0x3a
 3141 014c 0B       		.uleb128 0xb
 3142 014d 3B       		.uleb128 0x3b
 3143 014e 05       		.uleb128 0x5
 3144 014f 49       		.uleb128 0x49
 3145 0150 13       		.uleb128 0x13
 3146 0151 02       		.uleb128 0x2
 3147 0152 18       		.uleb128 0x18
 3148 0153 00       		.byte	0
 3149 0154 00       		.byte	0
 3150 0155 19       		.uleb128 0x19
 3151 0156 05       		.uleb128 0x5
 3152 0157 00       		.byte	0
 3153 0158 03       		.uleb128 0x3
 3154 0159 0E       		.uleb128 0xe
 3155 015a 3A       		.uleb128 0x3a
 3156 015b 0B       		.uleb128 0xb
 3157 015c 3B       		.uleb128 0x3b
 3158 015d 05       		.uleb128 0x5
 3159 015e 49       		.uleb128 0x49
 3160 015f 13       		.uleb128 0x13
 3161 0160 02       		.uleb128 0x2
 3162 0161 18       		.uleb128 0x18
 3163 0162 00       		.byte	0
 3164 0163 00       		.byte	0
 3165 0164 1A       		.uleb128 0x1a
 3166 0165 2E       		.uleb128 0x2e
 3167 0166 01       		.byte	0x1
 3168 0167 3F       		.uleb128 0x3f
 3169 0168 19       		.uleb128 0x19
 3170 0169 03       		.uleb128 0x3
 3171 016a 0E       		.uleb128 0xe
 3172 016b 3A       		.uleb128 0x3a
 3173 016c 0B       		.uleb128 0xb
 3174 016d 3B       		.uleb128 0x3b
 3175 016e 05       		.uleb128 0x5
 3176 016f 27       		.uleb128 0x27
 3177 0170 19       		.uleb128 0x19
 3178 0171 11       		.uleb128 0x11
 3179 0172 01       		.uleb128 0x1
 3180 0173 12       		.uleb128 0x12
 3181 0174 06       		.uleb128 0x6
 3182 0175 40       		.uleb128 0x40
 3183 0176 18       		.uleb128 0x18
 3184 0177 9742     		.uleb128 0x2117
 3185 0179 19       		.uleb128 0x19
 3186 017a 01       		.uleb128 0x1
 3187 017b 13       		.uleb128 0x13
 3188 017c 00       		.byte	0
 3189 017d 00       		.byte	0
 3190 017e 1B       		.uleb128 0x1b
 3191 017f 34       		.uleb128 0x34
 3192 0180 00       		.byte	0
ARM GAS  /tmp/ccWcPBJM.s 			page 57


 3193 0181 03       		.uleb128 0x3
 3194 0182 08       		.uleb128 0x8
 3195 0183 3A       		.uleb128 0x3a
 3196 0184 0B       		.uleb128 0xb
 3197 0185 3B       		.uleb128 0x3b
 3198 0186 05       		.uleb128 0x5
 3199 0187 49       		.uleb128 0x49
 3200 0188 13       		.uleb128 0x13
 3201 0189 02       		.uleb128 0x2
 3202 018a 18       		.uleb128 0x18
 3203 018b 00       		.byte	0
 3204 018c 00       		.byte	0
 3205 018d 1C       		.uleb128 0x1c
 3206 018e 2E       		.uleb128 0x2e
 3207 018f 01       		.byte	0x1
 3208 0190 3F       		.uleb128 0x3f
 3209 0191 19       		.uleb128 0x19
 3210 0192 03       		.uleb128 0x3
 3211 0193 0E       		.uleb128 0xe
 3212 0194 3A       		.uleb128 0x3a
 3213 0195 0B       		.uleb128 0xb
 3214 0196 3B       		.uleb128 0x3b
 3215 0197 0B       		.uleb128 0xb
 3216 0198 27       		.uleb128 0x27
 3217 0199 19       		.uleb128 0x19
 3218 019a 11       		.uleb128 0x11
 3219 019b 01       		.uleb128 0x1
 3220 019c 12       		.uleb128 0x12
 3221 019d 06       		.uleb128 0x6
 3222 019e 40       		.uleb128 0x40
 3223 019f 18       		.uleb128 0x18
 3224 01a0 9742     		.uleb128 0x2117
 3225 01a2 19       		.uleb128 0x19
 3226 01a3 01       		.uleb128 0x1
 3227 01a4 13       		.uleb128 0x13
 3228 01a5 00       		.byte	0
 3229 01a6 00       		.byte	0
 3230 01a7 1D       		.uleb128 0x1d
 3231 01a8 05       		.uleb128 0x5
 3232 01a9 00       		.byte	0
 3233 01aa 03       		.uleb128 0x3
 3234 01ab 0E       		.uleb128 0xe
 3235 01ac 3A       		.uleb128 0x3a
 3236 01ad 0B       		.uleb128 0xb
 3237 01ae 3B       		.uleb128 0x3b
 3238 01af 0B       		.uleb128 0xb
 3239 01b0 49       		.uleb128 0x49
 3240 01b1 13       		.uleb128 0x13
 3241 01b2 02       		.uleb128 0x2
 3242 01b3 17       		.uleb128 0x17
 3243 01b4 00       		.byte	0
 3244 01b5 00       		.byte	0
 3245 01b6 1E       		.uleb128 0x1e
 3246 01b7 34       		.uleb128 0x34
 3247 01b8 00       		.byte	0
 3248 01b9 03       		.uleb128 0x3
 3249 01ba 0E       		.uleb128 0xe
ARM GAS  /tmp/ccWcPBJM.s 			page 58


 3250 01bb 3A       		.uleb128 0x3a
 3251 01bc 0B       		.uleb128 0xb
 3252 01bd 3B       		.uleb128 0x3b
 3253 01be 0B       		.uleb128 0xb
 3254 01bf 49       		.uleb128 0x49
 3255 01c0 13       		.uleb128 0x13
 3256 01c1 02       		.uleb128 0x2
 3257 01c2 17       		.uleb128 0x17
 3258 01c3 00       		.byte	0
 3259 01c4 00       		.byte	0
 3260 01c5 1F       		.uleb128 0x1f
 3261 01c6 34       		.uleb128 0x34
 3262 01c7 00       		.byte	0
 3263 01c8 03       		.uleb128 0x3
 3264 01c9 0E       		.uleb128 0xe
 3265 01ca 3A       		.uleb128 0x3a
 3266 01cb 0B       		.uleb128 0xb
 3267 01cc 3B       		.uleb128 0x3b
 3268 01cd 0B       		.uleb128 0xb
 3269 01ce 49       		.uleb128 0x49
 3270 01cf 13       		.uleb128 0x13
 3271 01d0 02       		.uleb128 0x2
 3272 01d1 18       		.uleb128 0x18
 3273 01d2 00       		.byte	0
 3274 01d3 00       		.byte	0
 3275 01d4 20       		.uleb128 0x20
 3276 01d5 898201   		.uleb128 0x4109
 3277 01d8 01       		.byte	0x1
 3278 01d9 11       		.uleb128 0x11
 3279 01da 01       		.uleb128 0x1
 3280 01db 31       		.uleb128 0x31
 3281 01dc 13       		.uleb128 0x13
 3282 01dd 00       		.byte	0
 3283 01de 00       		.byte	0
 3284 01df 21       		.uleb128 0x21
 3285 01e0 8A8201   		.uleb128 0x410a
 3286 01e3 00       		.byte	0
 3287 01e4 02       		.uleb128 0x2
 3288 01e5 18       		.uleb128 0x18
 3289 01e6 9142     		.uleb128 0x2111
 3290 01e8 18       		.uleb128 0x18
 3291 01e9 00       		.byte	0
 3292 01ea 00       		.byte	0
 3293 01eb 22       		.uleb128 0x22
 3294 01ec 898201   		.uleb128 0x4109
 3295 01ef 01       		.byte	0x1
 3296 01f0 11       		.uleb128 0x11
 3297 01f1 01       		.uleb128 0x1
 3298 01f2 31       		.uleb128 0x31
 3299 01f3 13       		.uleb128 0x13
 3300 01f4 01       		.uleb128 0x1
 3301 01f5 13       		.uleb128 0x13
 3302 01f6 00       		.byte	0
 3303 01f7 00       		.byte	0
 3304 01f8 23       		.uleb128 0x23
 3305 01f9 898201   		.uleb128 0x4109
 3306 01fc 01       		.byte	0x1
ARM GAS  /tmp/ccWcPBJM.s 			page 59


 3307 01fd 11       		.uleb128 0x11
 3308 01fe 01       		.uleb128 0x1
 3309 01ff 9542     		.uleb128 0x2115
 3310 0201 19       		.uleb128 0x19
 3311 0202 31       		.uleb128 0x31
 3312 0203 13       		.uleb128 0x13
 3313 0204 01       		.uleb128 0x1
 3314 0205 13       		.uleb128 0x13
 3315 0206 00       		.byte	0
 3316 0207 00       		.byte	0
 3317 0208 24       		.uleb128 0x24
 3318 0209 898201   		.uleb128 0x4109
 3319 020c 01       		.byte	0x1
 3320 020d 11       		.uleb128 0x11
 3321 020e 01       		.uleb128 0x1
 3322 020f 9542     		.uleb128 0x2115
 3323 0211 19       		.uleb128 0x19
 3324 0212 31       		.uleb128 0x31
 3325 0213 13       		.uleb128 0x13
 3326 0214 00       		.byte	0
 3327 0215 00       		.byte	0
 3328 0216 25       		.uleb128 0x25
 3329 0217 2E       		.uleb128 0x2e
 3330 0218 01       		.byte	0x1
 3331 0219 31       		.uleb128 0x31
 3332 021a 13       		.uleb128 0x13
 3333 021b 11       		.uleb128 0x11
 3334 021c 01       		.uleb128 0x1
 3335 021d 12       		.uleb128 0x12
 3336 021e 06       		.uleb128 0x6
 3337 021f 40       		.uleb128 0x40
 3338 0220 18       		.uleb128 0x18
 3339 0221 9742     		.uleb128 0x2117
 3340 0223 19       		.uleb128 0x19
 3341 0224 01       		.uleb128 0x1
 3342 0225 13       		.uleb128 0x13
 3343 0226 00       		.byte	0
 3344 0227 00       		.byte	0
 3345 0228 26       		.uleb128 0x26
 3346 0229 05       		.uleb128 0x5
 3347 022a 00       		.byte	0
 3348 022b 31       		.uleb128 0x31
 3349 022c 13       		.uleb128 0x13
 3350 022d 02       		.uleb128 0x2
 3351 022e 18       		.uleb128 0x18
 3352 022f 00       		.byte	0
 3353 0230 00       		.byte	0
 3354 0231 27       		.uleb128 0x27
 3355 0232 05       		.uleb128 0x5
 3356 0233 00       		.byte	0
 3357 0234 31       		.uleb128 0x31
 3358 0235 13       		.uleb128 0x13
 3359 0236 02       		.uleb128 0x2
 3360 0237 17       		.uleb128 0x17
 3361 0238 00       		.byte	0
 3362 0239 00       		.byte	0
 3363 023a 28       		.uleb128 0x28
ARM GAS  /tmp/ccWcPBJM.s 			page 60


 3364 023b 34       		.uleb128 0x34
 3365 023c 00       		.byte	0
 3366 023d 31       		.uleb128 0x31
 3367 023e 13       		.uleb128 0x13
 3368 023f 02       		.uleb128 0x2
 3369 0240 17       		.uleb128 0x17
 3370 0241 00       		.byte	0
 3371 0242 00       		.byte	0
 3372 0243 29       		.uleb128 0x29
 3373 0244 2E       		.uleb128 0x2e
 3374 0245 00       		.byte	0
 3375 0246 3F       		.uleb128 0x3f
 3376 0247 19       		.uleb128 0x19
 3377 0248 3C       		.uleb128 0x3c
 3378 0249 19       		.uleb128 0x19
 3379 024a 6E       		.uleb128 0x6e
 3380 024b 0E       		.uleb128 0xe
 3381 024c 03       		.uleb128 0x3
 3382 024d 0E       		.uleb128 0xe
 3383 024e 3A       		.uleb128 0x3a
 3384 024f 0B       		.uleb128 0xb
 3385 0250 3B       		.uleb128 0x3b
 3386 0251 05       		.uleb128 0x5
 3387 0252 00       		.byte	0
 3388 0253 00       		.byte	0
 3389 0254 00       		.byte	0
 3390              		.section	.debug_loc,"",%progbits
 3391              	.Ldebug_loc0:
 3392              	.LLST29:
 3393 0000 00000000 		.4byte	.LVL94
 3394 0004 04000000 		.4byte	.LVL95
 3395 0008 0100     		.2byte	0x1
 3396 000a 50       		.byte	0x50
 3397 000b 04000000 		.4byte	.LVL95
 3398 000f 1A000000 		.4byte	.LFE142
 3399 0013 0400     		.2byte	0x4
 3400 0015 F3       		.byte	0xf3
 3401 0016 01       		.uleb128 0x1
 3402 0017 50       		.byte	0x50
 3403 0018 9F       		.byte	0x9f
 3404 0019 00000000 		.4byte	0
 3405 001d 00000000 		.4byte	0
 3406              	.LLST30:
 3407 0021 00000000 		.4byte	.LVL94
 3408 0025 08000000 		.4byte	.LVL96
 3409 0029 0100     		.2byte	0x1
 3410 002b 51       		.byte	0x51
 3411 002c 08000000 		.4byte	.LVL96
 3412 0030 1A000000 		.4byte	.LFE142
 3413 0034 0900     		.2byte	0x9
 3414 0036 71       		.byte	0x71
 3415 0037 00       		.sleb128 0
 3416 0038 0C       		.byte	0xc
 3417 0039 FFFFFF00 		.4byte	0xffffff
 3418 003d 1A       		.byte	0x1a
 3419 003e 9F       		.byte	0x9f
 3420 003f 00000000 		.4byte	0
ARM GAS  /tmp/ccWcPBJM.s 			page 61


 3421 0043 00000000 		.4byte	0
 3422              	.LLST31:
 3423 0047 00000000 		.4byte	.LVL94
 3424 004b 18000000 		.4byte	.LVL98
 3425 004f 0200     		.2byte	0x2
 3426 0051 30       		.byte	0x30
 3427 0052 9F       		.byte	0x9f
 3428 0053 18000000 		.4byte	.LVL98
 3429 0057 1A000000 		.4byte	.LFE142
 3430 005b 0100     		.2byte	0x1
 3431 005d 50       		.byte	0x50
 3432 005e 00000000 		.4byte	0
 3433 0062 00000000 		.4byte	0
 3434              	.LLST32:
 3435 0066 00000000 		.4byte	.LVL94
 3436 006a 08000000 		.4byte	.LVL96
 3437 006e 0200     		.2byte	0x2
 3438 0070 30       		.byte	0x30
 3439 0071 9F       		.byte	0x9f
 3440 0072 08000000 		.4byte	.LVL96
 3441 0076 0E000000 		.4byte	.LVL97
 3442 007a 1000     		.2byte	0x10
 3443 007c 71       		.byte	0x71
 3444 007d 00       		.sleb128 0
 3445 007e 40       		.byte	0x40
 3446 007f 25       		.byte	0x25
 3447 0080 73       		.byte	0x73
 3448 0081 00       		.sleb128 0
 3449 0082 0A       		.byte	0xa
 3450 0083 0007     		.2byte	0x700
 3451 0085 1A       		.byte	0x1a
 3452 0086 0A       		.byte	0xa
 3453 0087 FFFF     		.2byte	0xffff
 3454 0089 1A       		.byte	0x1a
 3455 008a 1A       		.byte	0x1a
 3456 008b 9F       		.byte	0x9f
 3457 008c 00000000 		.4byte	0
 3458 0090 00000000 		.4byte	0
 3459              	.LLST24:
 3460 0094 00000000 		.4byte	.LVL85
 3461 0098 26000000 		.4byte	.LVL88
 3462 009c 0100     		.2byte	0x1
 3463 009e 50       		.byte	0x50
 3464 009f 26000000 		.4byte	.LVL88
 3465 00a3 2C000000 		.4byte	.LVL89
 3466 00a7 0400     		.2byte	0x4
 3467 00a9 F3       		.byte	0xf3
 3468 00aa 01       		.uleb128 0x1
 3469 00ab 50       		.byte	0x50
 3470 00ac 9F       		.byte	0x9f
 3471 00ad 2C000000 		.4byte	.LVL89
 3472 00b1 36000000 		.4byte	.LFE140
 3473 00b5 0100     		.2byte	0x1
 3474 00b7 50       		.byte	0x50
 3475 00b8 00000000 		.4byte	0
 3476 00bc 00000000 		.4byte	0
 3477              	.LLST25:
ARM GAS  /tmp/ccWcPBJM.s 			page 62


 3478 00c0 00000000 		.4byte	.LVL85
 3479 00c4 14000000 		.4byte	.LVL86
 3480 00c8 0100     		.2byte	0x1
 3481 00ca 51       		.byte	0x51
 3482 00cb 14000000 		.4byte	.LVL86
 3483 00cf 36000000 		.4byte	.LFE140
 3484 00d3 0100     		.2byte	0x1
 3485 00d5 51       		.byte	0x51
 3486 00d6 00000000 		.4byte	0
 3487 00da 00000000 		.4byte	0
 3488              	.LLST26:
 3489 00de 00000000 		.4byte	.LVL85
 3490 00e2 20000000 		.4byte	.LVL87
 3491 00e6 0200     		.2byte	0x2
 3492 00e8 30       		.byte	0x30
 3493 00e9 9F       		.byte	0x9f
 3494 00ea 20000000 		.4byte	.LVL87
 3495 00ee 2C000000 		.4byte	.LVL89
 3496 00f2 0800     		.2byte	0x8
 3497 00f4 73       		.byte	0x73
 3498 00f5 00       		.sleb128 0
 3499 00f6 71       		.byte	0x71
 3500 00f7 00       		.sleb128 0
 3501 00f8 1A       		.byte	0x1a
 3502 00f9 30       		.byte	0x30
 3503 00fa 2E       		.byte	0x2e
 3504 00fb 9F       		.byte	0x9f
 3505 00fc 2C000000 		.4byte	.LVL89
 3506 0100 36000000 		.4byte	.LFE140
 3507 0104 0200     		.2byte	0x2
 3508 0106 30       		.byte	0x30
 3509 0107 9F       		.byte	0x9f
 3510 0108 00000000 		.4byte	0
 3511 010c 00000000 		.4byte	0
 3512              	.LLST20:
 3513 0110 00000000 		.4byte	.LVL81
 3514 0114 04000000 		.4byte	.LVL83
 3515 0118 0100     		.2byte	0x1
 3516 011a 50       		.byte	0x50
 3517 011b 04000000 		.4byte	.LVL83
 3518 011f 0E000000 		.4byte	.LFE139
 3519 0123 0400     		.2byte	0x4
 3520 0125 F3       		.byte	0xf3
 3521 0126 01       		.uleb128 0x1
 3522 0127 50       		.byte	0x50
 3523 0128 9F       		.byte	0x9f
 3524 0129 00000000 		.4byte	0
 3525 012d 00000000 		.4byte	0
 3526              	.LLST21:
 3527 0131 00000000 		.4byte	.LVL81
 3528 0135 04000000 		.4byte	.LVL83
 3529 0139 0200     		.2byte	0x2
 3530 013b 30       		.byte	0x30
 3531 013c 9F       		.byte	0x9f
 3532 013d 04000000 		.4byte	.LVL83
 3533 0141 08000000 		.4byte	.LVL84
 3534 0145 1200     		.2byte	0x12
ARM GAS  /tmp/ccWcPBJM.s 			page 63


 3535 0147 70       		.byte	0x70
 3536 0148 00       		.sleb128 0
 3537 0149 40       		.byte	0x40
 3538 014a 24       		.byte	0x24
 3539 014b 73       		.byte	0x73
 3540 014c 00       		.sleb128 0
 3541 014d 0A       		.byte	0xa
 3542 014e FFFF     		.2byte	0xffff
 3543 0150 1A       		.byte	0x1a
 3544 0151 21       		.byte	0x21
 3545 0152 0C       		.byte	0xc
 3546 0153 FFFFFF00 		.4byte	0xffffff
 3547 0157 1A       		.byte	0x1a
 3548 0158 9F       		.byte	0x9f
 3549 0159 00000000 		.4byte	0
 3550 015d 00000000 		.4byte	0
 3551              	.LLST22:
 3552 0161 00000000 		.4byte	.LVL81
 3553 0165 02000000 		.4byte	.LVL82
 3554 0169 0200     		.2byte	0x2
 3555 016b 30       		.byte	0x30
 3556 016c 9F       		.byte	0x9f
 3557 016d 02000000 		.4byte	.LVL82
 3558 0171 0E000000 		.4byte	.LFE139
 3559 0175 0700     		.2byte	0x7
 3560 0177 73       		.byte	0x73
 3561 0178 00       		.sleb128 0
 3562 0179 0A       		.byte	0xa
 3563 017a FFFF     		.2byte	0xffff
 3564 017c 1A       		.byte	0x1a
 3565 017d 9F       		.byte	0x9f
 3566 017e 00000000 		.4byte	0
 3567 0182 00000000 		.4byte	0
 3568              	.LLST23:
 3569 0186 00000000 		.4byte	.LVL81
 3570 018a 04000000 		.4byte	.LVL83
 3571 018e 0200     		.2byte	0x2
 3572 0190 30       		.byte	0x30
 3573 0191 9F       		.byte	0x9f
 3574 0192 04000000 		.4byte	.LVL83
 3575 0196 08000000 		.4byte	.LVL84
 3576 019a 0500     		.2byte	0x5
 3577 019c 70       		.byte	0x70
 3578 019d 00       		.sleb128 0
 3579 019e 40       		.byte	0x40
 3580 019f 24       		.byte	0x24
 3581 01a0 9F       		.byte	0x9f
 3582 01a1 00000000 		.4byte	0
 3583 01a5 00000000 		.4byte	0
 3584              	.LLST15:
 3585 01a9 00000000 		.4byte	.LVL76
 3586 01ad 08000000 		.4byte	.LVL79
 3587 01b1 0100     		.2byte	0x1
 3588 01b3 50       		.byte	0x50
 3589 01b4 08000000 		.4byte	.LVL79
 3590 01b8 18000000 		.4byte	.LFE138
 3591 01bc 0400     		.2byte	0x4
ARM GAS  /tmp/ccWcPBJM.s 			page 64


 3592 01be F3       		.byte	0xf3
 3593 01bf 01       		.uleb128 0x1
 3594 01c0 50       		.byte	0x50
 3595 01c1 9F       		.byte	0x9f
 3596 01c2 00000000 		.4byte	0
 3597 01c6 00000000 		.4byte	0
 3598              	.LLST16:
 3599 01ca 00000000 		.4byte	.LVL76
 3600 01ce 04000000 		.4byte	.LVL78
 3601 01d2 0200     		.2byte	0x2
 3602 01d4 30       		.byte	0x30
 3603 01d5 9F       		.byte	0x9f
 3604 01d6 04000000 		.4byte	.LVL78
 3605 01da 0C000000 		.4byte	.LVL80
 3606 01de 1200     		.2byte	0x12
 3607 01e0 72       		.byte	0x72
 3608 01e1 00       		.sleb128 0
 3609 01e2 40       		.byte	0x40
 3610 01e3 24       		.byte	0x24
 3611 01e4 73       		.byte	0x73
 3612 01e5 00       		.sleb128 0
 3613 01e6 0A       		.byte	0xa
 3614 01e7 FFFF     		.2byte	0xffff
 3615 01e9 1A       		.byte	0x1a
 3616 01ea 21       		.byte	0x21
 3617 01eb 0C       		.byte	0xc
 3618 01ec FFFFFF00 		.4byte	0xffffff
 3619 01f0 1A       		.byte	0x1a
 3620 01f1 9F       		.byte	0x9f
 3621 01f2 00000000 		.4byte	0
 3622 01f6 00000000 		.4byte	0
 3623              	.LLST17:
 3624 01fa 00000000 		.4byte	.LVL76
 3625 01fe 02000000 		.4byte	.LVL77
 3626 0202 0200     		.2byte	0x2
 3627 0204 30       		.byte	0x30
 3628 0205 9F       		.byte	0x9f
 3629 0206 02000000 		.4byte	.LVL77
 3630 020a 0C000000 		.4byte	.LVL80
 3631 020e 0700     		.2byte	0x7
 3632 0210 73       		.byte	0x73
 3633 0211 00       		.sleb128 0
 3634 0212 0A       		.byte	0xa
 3635 0213 FFFF     		.2byte	0xffff
 3636 0215 1A       		.byte	0x1a
 3637 0216 9F       		.byte	0x9f
 3638 0217 00000000 		.4byte	0
 3639 021b 00000000 		.4byte	0
 3640              	.LLST18:
 3641 021f 00000000 		.4byte	.LVL76
 3642 0223 04000000 		.4byte	.LVL78
 3643 0227 0200     		.2byte	0x2
 3644 0229 30       		.byte	0x30
 3645 022a 9F       		.byte	0x9f
 3646 022b 04000000 		.4byte	.LVL78
 3647 022f 18000000 		.4byte	.LFE138
 3648 0233 0500     		.2byte	0x5
ARM GAS  /tmp/ccWcPBJM.s 			page 65


 3649 0235 72       		.byte	0x72
 3650 0236 00       		.sleb128 0
 3651 0237 40       		.byte	0x40
 3652 0238 24       		.byte	0x24
 3653 0239 9F       		.byte	0x9f
 3654 023a 00000000 		.4byte	0
 3655 023e 00000000 		.4byte	0
 3656              	.LLST19:
 3657 0242 00000000 		.4byte	.LVL76
 3658 0246 04000000 		.4byte	.LVL78
 3659 024a 0200     		.2byte	0x2
 3660 024c 30       		.byte	0x30
 3661 024d 9F       		.byte	0x9f
 3662 024e 04000000 		.4byte	.LVL78
 3663 0252 0C000000 		.4byte	.LVL80
 3664 0256 1800     		.2byte	0x18
 3665 0258 72       		.byte	0x72
 3666 0259 00       		.sleb128 0
 3667 025a 40       		.byte	0x40
 3668 025b 24       		.byte	0x24
 3669 025c 73       		.byte	0x73
 3670 025d 00       		.sleb128 0
 3671 025e 0A       		.byte	0xa
 3672 025f FFFF     		.2byte	0xffff
 3673 0261 1A       		.byte	0x1a
 3674 0262 21       		.byte	0x21
 3675 0263 71       		.byte	0x71
 3676 0264 00       		.sleb128 0
 3677 0265 1A       		.byte	0x1a
 3678 0266 0C       		.byte	0xc
 3679 0267 FFFFFF00 		.4byte	0xffffff
 3680 026b 1A       		.byte	0x1a
 3681 026c 71       		.byte	0x71
 3682 026d 00       		.sleb128 0
 3683 026e 29       		.byte	0x29
 3684 026f 9F       		.byte	0x9f
 3685 0270 00000000 		.4byte	0
 3686 0274 00000000 		.4byte	0
 3687              	.LLST14:
 3688 0278 00000000 		.4byte	.LVL72
 3689 027c 08000000 		.4byte	.LVL73
 3690 0280 0100     		.2byte	0x1
 3691 0282 51       		.byte	0x51
 3692 0283 08000000 		.4byte	.LVL73
 3693 0287 0C000000 		.4byte	.LVL74
 3694 028b 0400     		.2byte	0x4
 3695 028d F3       		.byte	0xf3
 3696 028e 01       		.uleb128 0x1
 3697 028f 51       		.byte	0x51
 3698 0290 9F       		.byte	0x9f
 3699 0291 0C000000 		.4byte	.LVL74
 3700 0295 0E000000 		.4byte	.LVL75
 3701 0299 0100     		.2byte	0x1
 3702 029b 51       		.byte	0x51
 3703 029c 0E000000 		.4byte	.LVL75
 3704 02a0 12000000 		.4byte	.LFE137
 3705 02a4 0400     		.2byte	0x4
ARM GAS  /tmp/ccWcPBJM.s 			page 66


 3706 02a6 F3       		.byte	0xf3
 3707 02a7 01       		.uleb128 0x1
 3708 02a8 51       		.byte	0x51
 3709 02a9 9F       		.byte	0x9f
 3710 02aa 00000000 		.4byte	0
 3711 02ae 00000000 		.4byte	0
 3712              	.LLST12:
 3713 02b2 00000000 		.4byte	.LVL69
 3714 02b6 12000000 		.4byte	.LVL71
 3715 02ba 0100     		.2byte	0x1
 3716 02bc 50       		.byte	0x50
 3717 02bd 12000000 		.4byte	.LVL71
 3718 02c1 16000000 		.4byte	.LFE136
 3719 02c5 0400     		.2byte	0x4
 3720 02c7 F3       		.byte	0xf3
 3721 02c8 01       		.uleb128 0x1
 3722 02c9 50       		.byte	0x50
 3723 02ca 9F       		.byte	0x9f
 3724 02cb 00000000 		.4byte	0
 3725 02cf 00000000 		.4byte	0
 3726              	.LLST13:
 3727 02d3 00000000 		.4byte	.LVL69
 3728 02d7 0C000000 		.4byte	.LVL70
 3729 02db 0100     		.2byte	0x1
 3730 02dd 51       		.byte	0x51
 3731 02de 0C000000 		.4byte	.LVL70
 3732 02e2 16000000 		.4byte	.LFE136
 3733 02e6 0400     		.2byte	0x4
 3734 02e8 F3       		.byte	0xf3
 3735 02e9 01       		.uleb128 0x1
 3736 02ea 51       		.byte	0x51
 3737 02eb 9F       		.byte	0x9f
 3738 02ec 00000000 		.4byte	0
 3739 02f0 00000000 		.4byte	0
 3740              	.LLST11:
 3741 02f4 00000000 		.4byte	.LVL65
 3742 02f8 02000000 		.4byte	.LVL66
 3743 02fc 0100     		.2byte	0x1
 3744 02fe 50       		.byte	0x50
 3745 02ff 02000000 		.4byte	.LVL66
 3746 0303 06000000 		.4byte	.LFE133
 3747 0307 0400     		.2byte	0x4
 3748 0309 F3       		.byte	0xf3
 3749 030a 01       		.uleb128 0x1
 3750 030b 50       		.byte	0x50
 3751 030c 9F       		.byte	0x9f
 3752 030d 00000000 		.4byte	0
 3753 0311 00000000 		.4byte	0
 3754              	.LLST10:
 3755 0315 00000000 		.4byte	.LVL61
 3756 0319 02000000 		.4byte	.LVL62
 3757 031d 0100     		.2byte	0x1
 3758 031f 50       		.byte	0x50
 3759 0320 02000000 		.4byte	.LVL62
 3760 0324 06000000 		.4byte	.LFE129
 3761 0328 0400     		.2byte	0x4
 3762 032a F3       		.byte	0xf3
ARM GAS  /tmp/ccWcPBJM.s 			page 67


 3763 032b 01       		.uleb128 0x1
 3764 032c 50       		.byte	0x50
 3765 032d 9F       		.byte	0x9f
 3766 032e 00000000 		.4byte	0
 3767 0332 00000000 		.4byte	0
 3768              	.LLST8:
 3769 0336 00000000 		.4byte	.LVL47
 3770 033a 08000000 		.4byte	.LVL49
 3771 033e 0100     		.2byte	0x1
 3772 0340 51       		.byte	0x51
 3773 0341 08000000 		.4byte	.LVL49
 3774 0345 12000000 		.4byte	.LFE119
 3775 0349 0400     		.2byte	0x4
 3776 034b F3       		.byte	0xf3
 3777 034c 01       		.uleb128 0x1
 3778 034d 51       		.byte	0x51
 3779 034e 9F       		.byte	0x9f
 3780 034f 00000000 		.4byte	0
 3781 0353 00000000 		.4byte	0
 3782              	.LLST9:
 3783 0357 00000000 		.4byte	.LVL47
 3784 035b 04000000 		.4byte	.LVL48
 3785 035f 0200     		.2byte	0x2
 3786 0361 30       		.byte	0x30
 3787 0362 9F       		.byte	0x9f
 3788 0363 04000000 		.4byte	.LVL48
 3789 0367 0C000000 		.4byte	.LVL50
 3790 036b 0700     		.2byte	0x7
 3791 036d 73       		.byte	0x73
 3792 036e 00       		.sleb128 0
 3793 036f 0B       		.byte	0xb
 3794 0370 01FF     		.2byte	0xff01
 3795 0372 1A       		.byte	0x1a
 3796 0373 9F       		.byte	0x9f
 3797 0374 0E000000 		.4byte	.LVL51
 3798 0378 12000000 		.4byte	.LFE119
 3799 037c 0100     		.2byte	0x1
 3800 037e 53       		.byte	0x53
 3801 037f 00000000 		.4byte	0
 3802 0383 00000000 		.4byte	0
 3803              	.LLST7:
 3804 0387 00000000 		.4byte	.LVL40
 3805 038b 06000000 		.4byte	.LVL41
 3806 038f 0100     		.2byte	0x1
 3807 0391 51       		.byte	0x51
 3808 0392 06000000 		.4byte	.LVL41
 3809 0396 08000000 		.4byte	.LVL42
 3810 039a 0100     		.2byte	0x1
 3811 039c 51       		.byte	0x51
 3812 039d 0C000000 		.4byte	.LVL43
 3813 03a1 12000000 		.4byte	.LVL45
 3814 03a5 0100     		.2byte	0x1
 3815 03a7 51       		.byte	0x51
 3816 03a8 00000000 		.4byte	0
 3817 03ac 00000000 		.4byte	0
 3818              	.LLST1:
 3819 03b0 00000000 		.4byte	.LVL10
ARM GAS  /tmp/ccWcPBJM.s 			page 68


 3820 03b4 08000000 		.4byte	.LVL11
 3821 03b8 0100     		.2byte	0x1
 3822 03ba 50       		.byte	0x50
 3823 03bb 08000000 		.4byte	.LVL11
 3824 03bf D4000000 		.4byte	.LFE112
 3825 03c3 0100     		.2byte	0x1
 3826 03c5 55       		.byte	0x55
 3827 03c6 00000000 		.4byte	0
 3828 03ca 00000000 		.4byte	0
 3829              	.LLST2:
 3830 03ce 00000000 		.4byte	.LVL10
 3831 03d2 0F000000 		.4byte	.LVL13-1
 3832 03d6 0100     		.2byte	0x1
 3833 03d8 51       		.byte	0x51
 3834 03d9 0F000000 		.4byte	.LVL13-1
 3835 03dd D4000000 		.4byte	.LFE112
 3836 03e1 0100     		.2byte	0x1
 3837 03e3 56       		.byte	0x56
 3838 03e4 00000000 		.4byte	0
 3839 03e8 00000000 		.4byte	0
 3840              	.LLST3:
 3841 03ec 00000000 		.4byte	.LVL10
 3842 03f0 0C000000 		.4byte	.LVL12
 3843 03f4 0200     		.2byte	0x2
 3844 03f6 30       		.byte	0x30
 3845 03f7 9F       		.byte	0x9f
 3846 03f8 0C000000 		.4byte	.LVL12
 3847 03fc 22000000 		.4byte	.LVL14
 3848 0400 0100     		.2byte	0x1
 3849 0402 54       		.byte	0x54
 3850 0403 28000000 		.4byte	.LVL15
 3851 0407 3C000000 		.4byte	.LVL18
 3852 040b 0100     		.2byte	0x1
 3853 040d 54       		.byte	0x54
 3854 040e 3C000000 		.4byte	.LVL18
 3855 0412 4E000000 		.4byte	.LVL21
 3856 0416 0200     		.2byte	0x2
 3857 0418 30       		.byte	0x30
 3858 0419 9F       		.byte	0x9f
 3859 041a 4E000000 		.4byte	.LVL21
 3860 041e 5A000000 		.4byte	.LVL23
 3861 0422 0100     		.2byte	0x1
 3862 0424 53       		.byte	0x53
 3863 0425 5A000000 		.4byte	.LVL23
 3864 0429 62000000 		.4byte	.LVL24
 3865 042d 0200     		.2byte	0x2
 3866 042f 75       		.byte	0x75
 3867 0430 1C       		.sleb128 28
 3868 0431 64000000 		.4byte	.LVL25
 3869 0435 68000000 		.4byte	.LVL26
 3870 0439 0100     		.2byte	0x1
 3871 043b 57       		.byte	0x57
 3872 043c 68000000 		.4byte	.LVL26
 3873 0440 76000000 		.4byte	.LVL28
 3874 0444 0100     		.2byte	0x1
 3875 0446 53       		.byte	0x53
 3876 0447 76000000 		.4byte	.LVL28
ARM GAS  /tmp/ccWcPBJM.s 			page 69


 3877 044b B2000000 		.4byte	.LVL33
 3878 044f 0200     		.2byte	0x2
 3879 0451 30       		.byte	0x30
 3880 0452 9F       		.byte	0x9f
 3881 0453 B2000000 		.4byte	.LVL33
 3882 0457 B6000000 		.4byte	.LVL34
 3883 045b 0100     		.2byte	0x1
 3884 045d 53       		.byte	0x53
 3885 045e B6000000 		.4byte	.LVL34
 3886 0462 D4000000 		.4byte	.LFE112
 3887 0466 0200     		.2byte	0x2
 3888 0468 30       		.byte	0x30
 3889 0469 9F       		.byte	0x9f
 3890 046a 00000000 		.4byte	0
 3891 046e 00000000 		.4byte	0
 3892              	.LLST4:
 3893 0472 00000000 		.4byte	.LVL10
 3894 0476 2A000000 		.4byte	.LVL16
 3895 047a 0200     		.2byte	0x2
 3896 047c 30       		.byte	0x30
 3897 047d 9F       		.byte	0x9f
 3898 047e 2A000000 		.4byte	.LVL16
 3899 0482 48000000 		.4byte	.LVL20
 3900 0486 0100     		.2byte	0x1
 3901 0488 57       		.byte	0x57
 3902 0489 48000000 		.4byte	.LVL20
 3903 048d 50000000 		.4byte	.LVL22
 3904 0491 0300     		.2byte	0x3
 3905 0493 77       		.byte	0x77
 3906 0494 7F       		.sleb128 -1
 3907 0495 9F       		.byte	0x9f
 3908 0496 50000000 		.4byte	.LVL22
 3909 049a 76000000 		.4byte	.LVL28
 3910 049e 1B00     		.2byte	0x1b
 3911 04a0 91       		.byte	0x91
 3912 04a1 60       		.sleb128 -32
 3913 04a2 06       		.byte	0x6
 3914 04a3 F7       		.byte	0xf7
 3915 04a4 2C       		.uleb128 0x2c
 3916 04a5 F7       		.byte	0xf7
 3917 04a6 25       		.uleb128 0x25
 3918 04a7 0C       		.byte	0xc
 3919 04a8 83DE1B43 		.4byte	0x431bde83
 3920 04ac F7       		.byte	0xf7
 3921 04ad 25       		.uleb128 0x25
 3922 04ae 1E       		.byte	0x1e
 3923 04af 08       		.byte	0x8
 3924 04b0 20       		.byte	0x20
 3925 04b1 F7       		.byte	0xf7
 3926 04b2 25       		.uleb128 0x25
 3927 04b3 25       		.byte	0x25
 3928 04b4 F7       		.byte	0xf7
 3929 04b5 2C       		.uleb128 0x2c
 3930 04b6 F7       		.byte	0xf7
 3931 04b7 00       		.uleb128 0
 3932 04b8 42       		.byte	0x42
 3933 04b9 25       		.byte	0x25
ARM GAS  /tmp/ccWcPBJM.s 			page 70


 3934 04ba 9F       		.byte	0x9f
 3935 04bb 76000000 		.4byte	.LVL28
 3936 04bf D4000000 		.4byte	.LFE112
 3937 04c3 0100     		.2byte	0x1
 3938 04c5 57       		.byte	0x57
 3939 04c6 00000000 		.4byte	0
 3940 04ca 00000000 		.4byte	0
 3941              	.LLST5:
 3942 04ce 00000000 		.4byte	.LVL10
 3943 04d2 46000000 		.4byte	.LVL19
 3944 04d6 0200     		.2byte	0x2
 3945 04d8 34       		.byte	0x34
 3946 04d9 9F       		.byte	0x9f
 3947 04da 46000000 		.4byte	.LVL19
 3948 04de 50000000 		.4byte	.LVL22
 3949 04e2 0100     		.2byte	0x1
 3950 04e4 53       		.byte	0x53
 3951 04e5 76000000 		.4byte	.LVL28
 3952 04e9 8E000000 		.4byte	.LVL29
 3953 04ed 0200     		.2byte	0x2
 3954 04ef 34       		.byte	0x34
 3955 04f0 9F       		.byte	0x9f
 3956 04f1 8E000000 		.4byte	.LVL29
 3957 04f5 B2000000 		.4byte	.LVL33
 3958 04f9 0100     		.2byte	0x1
 3959 04fb 53       		.byte	0x53
 3960 04fc B6000000 		.4byte	.LVL34
 3961 0500 C0000000 		.4byte	.LVL35
 3962 0504 0200     		.2byte	0x2
 3963 0506 34       		.byte	0x34
 3964 0507 9F       		.byte	0x9f
 3965 0508 C0000000 		.4byte	.LVL35
 3966 050c D4000000 		.4byte	.LFE112
 3967 0510 0100     		.2byte	0x1
 3968 0512 53       		.byte	0x53
 3969 0513 00000000 		.4byte	0
 3970 0517 00000000 		.4byte	0
 3971              	.LLST6:
 3972 051b 00000000 		.4byte	.LVL10
 3973 051f 28000000 		.4byte	.LVL15
 3974 0523 0600     		.2byte	0x6
 3975 0525 0C       		.byte	0xc
 3976 0526 00127A00 		.4byte	0x7a1200
 3977 052a 9F       		.byte	0x9f
 3978 052b 28000000 		.4byte	.LVL15
 3979 052f 50000000 		.4byte	.LVL22
 3980 0533 0100     		.2byte	0x1
 3981 0535 50       		.byte	0x50
 3982 0536 50000000 		.4byte	.LVL22
 3983 053a 76000000 		.4byte	.LVL28
 3984 053e 0200     		.2byte	0x2
 3985 0540 91       		.byte	0x91
 3986 0541 60       		.sleb128 -32
 3987 0542 76000000 		.4byte	.LVL28
 3988 0546 A2000000 		.4byte	.LVL32
 3989 054a 0100     		.2byte	0x1
 3990 054c 50       		.byte	0x50
ARM GAS  /tmp/ccWcPBJM.s 			page 71


 3991 054d A2000000 		.4byte	.LVL32
 3992 0551 B6000000 		.4byte	.LVL34
 3993 0555 0200     		.2byte	0x2
 3994 0557 91       		.byte	0x91
 3995 0558 60       		.sleb128 -32
 3996 0559 B6000000 		.4byte	.LVL34
 3997 055d D4000000 		.4byte	.LFE112
 3998 0561 0100     		.2byte	0x1
 3999 0563 50       		.byte	0x50
 4000 0564 00000000 		.4byte	0
 4001 0568 00000000 		.4byte	0
 4002              	.LLST0:
 4003 056c 00000000 		.4byte	.LVL0
 4004 0570 1C000000 		.4byte	.LVL1
 4005 0574 0100     		.2byte	0x1
 4006 0576 50       		.byte	0x50
 4007 0577 1C000000 		.4byte	.LVL1
 4008 057b 2E000000 		.4byte	.LVL3
 4009 057f 0400     		.2byte	0x4
 4010 0581 F3       		.byte	0xf3
 4011 0582 01       		.uleb128 0x1
 4012 0583 50       		.byte	0x50
 4013 0584 9F       		.byte	0x9f
 4014 0585 2E000000 		.4byte	.LVL3
 4015 0589 34000000 		.4byte	.LVL4
 4016 058d 0100     		.2byte	0x1
 4017 058f 50       		.byte	0x50
 4018 0590 34000000 		.4byte	.LVL4
 4019 0594 46000000 		.4byte	.LVL6
 4020 0598 0400     		.2byte	0x4
 4021 059a F3       		.byte	0xf3
 4022 059b 01       		.uleb128 0x1
 4023 059c 50       		.byte	0x50
 4024 059d 9F       		.byte	0x9f
 4025 059e 46000000 		.4byte	.LVL6
 4026 05a2 4C000000 		.4byte	.LVL7
 4027 05a6 0100     		.2byte	0x1
 4028 05a8 50       		.byte	0x50
 4029 05a9 4C000000 		.4byte	.LVL7
 4030 05ad 6C000000 		.4byte	.LFE111
 4031 05b1 0400     		.2byte	0x4
 4032 05b3 F3       		.byte	0xf3
 4033 05b4 01       		.uleb128 0x1
 4034 05b5 50       		.byte	0x50
 4035 05b6 9F       		.byte	0x9f
 4036 05b7 00000000 		.4byte	0
 4037 05bb 00000000 		.4byte	0
 4038              	.LLST27:
 4039 05bf 00000000 		.4byte	.LVL91
 4040 05c3 02000000 		.4byte	.LVL92
 4041 05c7 0100     		.2byte	0x1
 4042 05c9 51       		.byte	0x51
 4043 05ca 02000000 		.4byte	.LVL92
 4044 05ce 04000000 		.4byte	.LVL93
 4045 05d2 0400     		.2byte	0x4
 4046 05d4 71       		.byte	0x71
 4047 05d5 00       		.sleb128 0
ARM GAS  /tmp/ccWcPBJM.s 			page 72


 4048 05d6 20       		.byte	0x20
 4049 05d7 9F       		.byte	0x9f
 4050 05d8 04000000 		.4byte	.LVL93
 4051 05dc 08000000 		.4byte	.LFE141
 4052 05e0 0400     		.2byte	0x4
 4053 05e2 F3       		.byte	0xf3
 4054 05e3 01       		.uleb128 0x1
 4055 05e4 51       		.byte	0x51
 4056 05e5 9F       		.byte	0x9f
 4057 05e6 00000000 		.4byte	0
 4058 05ea 00000000 		.4byte	0
 4059              	.LLST28:
 4060 05ee 00000000 		.4byte	.LVL91
 4061 05f2 02000000 		.4byte	.LVL92
 4062 05f6 0900     		.2byte	0x9
 4063 05f8 71       		.byte	0x71
 4064 05f9 00       		.sleb128 0
 4065 05fa 0C       		.byte	0xc
 4066 05fb FFFFFF00 		.4byte	0xffffff
 4067 05ff 1A       		.byte	0x1a
 4068 0600 9F       		.byte	0x9f
 4069 0601 02000000 		.4byte	.LVL92
 4070 0605 04000000 		.4byte	.LVL93
 4071 0609 0A00     		.2byte	0xa
 4072 060b 71       		.byte	0x71
 4073 060c 00       		.sleb128 0
 4074 060d 20       		.byte	0x20
 4075 060e 0C       		.byte	0xc
 4076 060f FFFFFF00 		.4byte	0xffffff
 4077 0613 1A       		.byte	0x1a
 4078 0614 9F       		.byte	0x9f
 4079 0615 04000000 		.4byte	.LVL93
 4080 0619 08000000 		.4byte	.LFE141
 4081 061d 0A00     		.2byte	0xa
 4082 061f F3       		.byte	0xf3
 4083 0620 01       		.uleb128 0x1
 4084 0621 51       		.byte	0x51
 4085 0622 0C       		.byte	0xc
 4086 0623 FFFFFF00 		.4byte	0xffffff
 4087 0627 1A       		.byte	0x1a
 4088 0628 9F       		.byte	0x9f
 4089 0629 00000000 		.4byte	0
 4090 062d 00000000 		.4byte	0
 4091              		.section	.debug_aranges,"",%progbits
 4092 0000 0C010000 		.4byte	0x10c
 4093 0004 0200     		.2byte	0x2
 4094 0006 00000000 		.4byte	.Ldebug_info0
 4095 000a 04       		.byte	0x4
 4096 000b 00       		.byte	0
 4097 000c 0000     		.2byte	0
 4098 000e 0000     		.2byte	0
 4099 0010 00000000 		.4byte	.LFB111
 4100 0014 6C000000 		.4byte	.LFE111-.LFB111
 4101 0018 00000000 		.4byte	.LFB112
 4102 001c D4000000 		.4byte	.LFE112-.LFB112
 4103 0020 00000000 		.4byte	.LFB113
 4104 0024 1C000000 		.4byte	.LFE113-.LFB113
ARM GAS  /tmp/ccWcPBJM.s 			page 73


 4105 0028 00000000 		.4byte	.LFB114
 4106 002c 18000000 		.4byte	.LFE114-.LFB114
 4107 0030 00000000 		.4byte	.LFB115
 4108 0034 18000000 		.4byte	.LFE115-.LFB115
 4109 0038 00000000 		.4byte	.LFB116
 4110 003c 18000000 		.4byte	.LFE116-.LFB116
 4111 0040 00000000 		.4byte	.LFB117
 4112 0044 16000000 		.4byte	.LFE117-.LFB117
 4113 0048 00000000 		.4byte	.LFB118
 4114 004c 18000000 		.4byte	.LFE118-.LFB118
 4115 0050 00000000 		.4byte	.LFB119
 4116 0054 12000000 		.4byte	.LFE119-.LFB119
 4117 0058 00000000 		.4byte	.LFB120
 4118 005c 18000000 		.4byte	.LFE120-.LFB120
 4119 0060 00000000 		.4byte	.LFB121
 4120 0064 18000000 		.4byte	.LFE121-.LFB121
 4121 0068 00000000 		.4byte	.LFB122
 4122 006c 14000000 		.4byte	.LFE122-.LFB122
 4123 0070 00000000 		.4byte	.LFB123
 4124 0074 18000000 		.4byte	.LFE123-.LFB123
 4125 0078 00000000 		.4byte	.LFB124
 4126 007c 18000000 		.4byte	.LFE124-.LFB124
 4127 0080 00000000 		.4byte	.LFB125
 4128 0084 18000000 		.4byte	.LFE125-.LFB125
 4129 0088 00000000 		.4byte	.LFB126
 4130 008c 18000000 		.4byte	.LFE126-.LFB126
 4131 0090 00000000 		.4byte	.LFB127
 4132 0094 18000000 		.4byte	.LFE127-.LFB127
 4133 0098 00000000 		.4byte	.LFB128
 4134 009c 04000000 		.4byte	.LFE128-.LFB128
 4135 00a0 00000000 		.4byte	.LFB129
 4136 00a4 06000000 		.4byte	.LFE129-.LFB129
 4137 00a8 00000000 		.4byte	.LFB130
 4138 00ac 18000000 		.4byte	.LFE130-.LFB130
 4139 00b0 00000000 		.4byte	.LFB132
 4140 00b4 18000000 		.4byte	.LFE132-.LFB132
 4141 00b8 00000000 		.4byte	.LFB133
 4142 00bc 06000000 		.4byte	.LFE133-.LFB133
 4143 00c0 00000000 		.4byte	.LFB134
 4144 00c4 18000000 		.4byte	.LFE134-.LFB134
 4145 00c8 00000000 		.4byte	.LFB135
 4146 00cc 18000000 		.4byte	.LFE135-.LFB135
 4147 00d0 00000000 		.4byte	.LFB136
 4148 00d4 16000000 		.4byte	.LFE136-.LFB136
 4149 00d8 00000000 		.4byte	.LFB137
 4150 00dc 12000000 		.4byte	.LFE137-.LFB137
 4151 00e0 00000000 		.4byte	.LFB138
 4152 00e4 18000000 		.4byte	.LFE138-.LFB138
 4153 00e8 00000000 		.4byte	.LFB139
 4154 00ec 0E000000 		.4byte	.LFE139-.LFB139
 4155 00f0 00000000 		.4byte	.LFB140
 4156 00f4 36000000 		.4byte	.LFE140-.LFB140
 4157 00f8 00000000 		.4byte	.LFB141
 4158 00fc 08000000 		.4byte	.LFE141-.LFB141
 4159 0100 00000000 		.4byte	.LFB142
 4160 0104 1A000000 		.4byte	.LFE142-.LFB142
 4161 0108 00000000 		.4byte	0
ARM GAS  /tmp/ccWcPBJM.s 			page 74


 4162 010c 00000000 		.4byte	0
 4163              		.section	.debug_ranges,"",%progbits
 4164              	.Ldebug_ranges0:
 4165 0000 00000000 		.4byte	.LFB111
 4166 0004 6C000000 		.4byte	.LFE111
 4167 0008 00000000 		.4byte	.LFB112
 4168 000c D4000000 		.4byte	.LFE112
 4169 0010 00000000 		.4byte	.LFB113
 4170 0014 1C000000 		.4byte	.LFE113
 4171 0018 00000000 		.4byte	.LFB114
 4172 001c 18000000 		.4byte	.LFE114
 4173 0020 00000000 		.4byte	.LFB115
 4174 0024 18000000 		.4byte	.LFE115
 4175 0028 00000000 		.4byte	.LFB116
 4176 002c 18000000 		.4byte	.LFE116
 4177 0030 00000000 		.4byte	.LFB117
 4178 0034 16000000 		.4byte	.LFE117
 4179 0038 00000000 		.4byte	.LFB118
 4180 003c 18000000 		.4byte	.LFE118
 4181 0040 00000000 		.4byte	.LFB119
 4182 0044 12000000 		.4byte	.LFE119
 4183 0048 00000000 		.4byte	.LFB120
 4184 004c 18000000 		.4byte	.LFE120
 4185 0050 00000000 		.4byte	.LFB121
 4186 0054 18000000 		.4byte	.LFE121
 4187 0058 00000000 		.4byte	.LFB122
 4188 005c 14000000 		.4byte	.LFE122
 4189 0060 00000000 		.4byte	.LFB123
 4190 0064 18000000 		.4byte	.LFE123
 4191 0068 00000000 		.4byte	.LFB124
 4192 006c 18000000 		.4byte	.LFE124
 4193 0070 00000000 		.4byte	.LFB125
 4194 0074 18000000 		.4byte	.LFE125
 4195 0078 00000000 		.4byte	.LFB126
 4196 007c 18000000 		.4byte	.LFE126
 4197 0080 00000000 		.4byte	.LFB127
 4198 0084 18000000 		.4byte	.LFE127
 4199 0088 00000000 		.4byte	.LFB128
 4200 008c 04000000 		.4byte	.LFE128
 4201 0090 00000000 		.4byte	.LFB129
 4202 0094 06000000 		.4byte	.LFE129
 4203 0098 00000000 		.4byte	.LFB130
 4204 009c 18000000 		.4byte	.LFE130
 4205 00a0 00000000 		.4byte	.LFB132
 4206 00a4 18000000 		.4byte	.LFE132
 4207 00a8 00000000 		.4byte	.LFB133
 4208 00ac 06000000 		.4byte	.LFE133
 4209 00b0 00000000 		.4byte	.LFB134
 4210 00b4 18000000 		.4byte	.LFE134
 4211 00b8 00000000 		.4byte	.LFB135
 4212 00bc 18000000 		.4byte	.LFE135
 4213 00c0 00000000 		.4byte	.LFB136
 4214 00c4 16000000 		.4byte	.LFE136
 4215 00c8 00000000 		.4byte	.LFB137
 4216 00cc 12000000 		.4byte	.LFE137
 4217 00d0 00000000 		.4byte	.LFB138
 4218 00d4 18000000 		.4byte	.LFE138
ARM GAS  /tmp/ccWcPBJM.s 			page 75


 4219 00d8 00000000 		.4byte	.LFB139
 4220 00dc 0E000000 		.4byte	.LFE139
 4221 00e0 00000000 		.4byte	.LFB140
 4222 00e4 36000000 		.4byte	.LFE140
 4223 00e8 00000000 		.4byte	.LFB141
 4224 00ec 08000000 		.4byte	.LFE141
 4225 00f0 00000000 		.4byte	.LFB142
 4226 00f4 1A000000 		.4byte	.LFE142
 4227 00f8 00000000 		.4byte	0
 4228 00fc 00000000 		.4byte	0
 4229              		.section	.debug_line,"",%progbits
 4230              	.Ldebug_line0:
 4231 0000 B2040000 		.section	.debug_str,"MS",%progbits,1
 4231      02007801 
 4231      00000201 
 4231      FB0E0D00 
 4231      01010101 
 4232              	.LASF78:
 4233 0000 4932435F 		.ascii	"I2C_ClearITPendingBit\000"
 4233      436C6561 
 4233      72495450 
 4233      656E6469 
 4233      6E674269 
 4234              	.LASF70:
 4235 0016 4E657753 		.ascii	"NewState\000"
 4235      74617465 
 4235      00
 4236              	.LASF102:
 4237 001f 4932435F 		.ascii	"I2C_GenerateSTART\000"
 4237      47656E65 
 4237      72617465 
 4237      53544152 
 4237      5400
 4238              	.LASF18:
 4239 0031 466C6167 		.ascii	"FlagStatus\000"
 4239      53746174 
 4239      757300
 4240              	.LASF76:
 4241 003c 4932435F 		.ascii	"I2C_GetPEC\000"
 4241      47657450 
 4241      454300
 4242              	.LASF91:
 4243 0047 4932435F 		.ascii	"I2C_StretchClockCmd\000"
 4243      53747265 
 4243      74636843 
 4243      6C6F636B 
 4243      436D6400 
 4244              	.LASF5:
 4245 005b 5F5F7569 		.ascii	"__uint8_t\000"
 4245      6E74385F 
 4245      7400
 4246              	.LASF72:
 4247 0065 4932435F 		.ascii	"I2C_Register\000"
 4247      52656769 
 4247      73746572 
 4247      00
 4248              	.LASF36:
ARM GAS  /tmp/ccWcPBJM.s 			page 76


 4249 0072 54524953 		.ascii	"TRISE\000"
 4249      4500
 4250              	.LASF114:
 4251 0078 474E5520 		.ascii	"GNU C99 7.3.1 20180622 (release) [ARM/embedded-7-br"
 4251      43393920 
 4251      372E332E 
 4251      31203230 
 4251      31383036 
 4252 00ab 616E6368 		.ascii	"anch revision 261907] -mcpu=cortex-m4 -mfloat-abi=h"
 4252      20726576 
 4252      6973696F 
 4252      6E203236 
 4252      31393037 
 4253 00de 61726420 		.ascii	"ard -mfpu=fpv4-sp-d16 -mno-thumb-interwork -mthumb "
 4253      2D6D6670 
 4253      753D6670 
 4253      76342D73 
 4253      702D6431 
 4254 0111 2D676764 		.ascii	"-ggdb -O2 -std=gnu99 -fomit-frame-pointer -falign-f"
 4254      62202D4F 
 4254      32202D73 
 4254      74643D67 
 4254      6E753939 
 4255 0144 756E6374 		.ascii	"unctions=16 -ffunction-sections -fdata-sections -fn"
 4255      696F6E73 
 4255      3D313620 
 4255      2D666675 
 4255      6E637469 
 4256 0177 6F2D636F 		.ascii	"o-common -fsingle-precision-constant\000"
 4256      6D6D6F6E 
 4256      202D6673 
 4256      696E676C 
 4256      652D7072 
 4257              	.LASF113:
 4258 019c 5243435F 		.ascii	"RCC_APB1PeriphResetCmd\000"
 4258      41504231 
 4258      50657269 
 4258      70685265 
 4258      73657443 
 4259              	.LASF73:
 4260 01b3 4932435F 		.ascii	"I2C_ITConfig\000"
 4260      4954436F 
 4260      6E666967 
 4260      00
 4261              	.LASF20:
 4262 01c0 44495341 		.ascii	"DISABLE\000"
 4262      424C4500 
 4263              	.LASF0:
 4264 01c8 6C6F6E67 		.ascii	"long long unsigned int\000"
 4264      206C6F6E 
 4264      6720756E 
 4264      7369676E 
 4264      65642069 
 4265              	.LASF117:
 4266 01df 49544D5F 		.ascii	"ITM_RxBuffer\000"
 4266      52784275 
 4266      66666572 
ARM GAS  /tmp/ccWcPBJM.s 			page 77


 4266      00
 4267              	.LASF88:
 4268 01ec 4932435F 		.ascii	"I2C_NACKPositionConfig\000"
 4268      4E41434B 
 4268      506F7369 
 4268      74696F6E 
 4268      436F6E66 
 4269              	.LASF95:
 4270 0203 4932435F 		.ascii	"I2C_OwnAddress2Config\000"
 4270      4F776E41 
 4270      64647265 
 4270      73733243 
 4270      6F6E6669 
 4271              	.LASF105:
 4272 0219 4932435F 		.ascii	"I2C_InitStruct\000"
 4272      496E6974 
 4272      53747275 
 4272      637400
 4273              	.LASF12:
 4274 0228 6C6F6E67 		.ascii	"long long int\000"
 4274      206C6F6E 
 4274      6720696E 
 4274      7400
 4275              	.LASF2:
 4276 0236 7369676E 		.ascii	"signed char\000"
 4276      65642063 
 4276      68617200 
 4277              	.LASF107:
 4278 0242 66726571 		.ascii	"freqrange\000"
 4278      72616E67 
 4278      6500
 4279              	.LASF83:
 4280 024c 4932435F 		.ascii	"I2C_SendData\000"
 4280      53656E64 
 4280      44617461 
 4280      00
 4281              	.LASF77:
 4282 0259 4932435F 		.ascii	"I2C_CalculatePEC\000"
 4282      43616C63 
 4282      756C6174 
 4282      65504543 
 4282      00
 4283              	.LASF44:
 4284 026a 50434C4B 		.ascii	"PCLK2_Frequency\000"
 4284      325F4672 
 4284      65717565 
 4284      6E637900 
 4285              	.LASF46:
 4286 027a 4932435F 		.ascii	"I2C_ClockSpeed\000"
 4286      436C6F63 
 4286      6B537065 
 4286      656400
 4287              	.LASF47:
 4288 0289 4932435F 		.ascii	"I2C_Mode\000"
 4288      4D6F6465 
 4288      00
 4289              	.LASF104:
ARM GAS  /tmp/ccWcPBJM.s 			page 78


 4290 0292 4932435F 		.ascii	"I2C_StructInit\000"
 4290      53747275 
 4290      6374496E 
 4290      697400
 4291              	.LASF21:
 4292 02a1 454E4142 		.ascii	"ENABLE\000"
 4292      4C4500
 4293              	.LASF14:
 4294 02a8 75696E74 		.ascii	"uint16_t\000"
 4294      31365F74 
 4294      00
 4295              	.LASF28:
 4296 02b1 4F415231 		.ascii	"OAR1\000"
 4296      00
 4297              	.LASF38:
 4298 02b6 464C5452 		.ascii	"FLTR\000"
 4298      00
 4299              	.LASF74:
 4300 02bb 4932435F 		.ascii	"I2C_DMALastTransferCmd\000"
 4300      444D414C 
 4300      61737454 
 4300      72616E73 
 4300      66657243 
 4301              	.LASF10:
 4302 02d2 5F5F7569 		.ascii	"__uint32_t\000"
 4302      6E743332 
 4302      5F7400
 4303              	.LASF25:
 4304 02dd 4572726F 		.ascii	"ErrorStatus\000"
 4304      72537461 
 4304      74757300 
 4305              	.LASF23:
 4306 02e9 4552524F 		.ascii	"ERROR\000"
 4306      5200
 4307              	.LASF86:
 4308 02ef 4932435F 		.ascii	"I2C_SMBusAlertConfig\000"
 4308      534D4275 
 4308      73416C65 
 4308      7274436F 
 4308      6E666967 
 4309              	.LASF55:
 4310 0304 62697473 		.ascii	"bitstatus\000"
 4310      74617475 
 4310      7300
 4311              	.LASF42:
 4312 030e 48434C4B 		.ascii	"HCLK_Frequency\000"
 4312      5F467265 
 4312      7175656E 
 4312      637900
 4313              	.LASF19:
 4314 031d 49545374 		.ascii	"ITStatus\000"
 4314      61747573 
 4314      00
 4315              	.LASF1:
 4316 0326 756E7369 		.ascii	"unsigned int\000"
 4316      676E6564 
 4316      20696E74 
ARM GAS  /tmp/ccWcPBJM.s 			page 79


 4316      00
 4317              	.LASF11:
 4318 0333 6C6F6E67 		.ascii	"long unsigned int\000"
 4318      20756E73 
 4318      69676E65 
 4318      6420696E 
 4318      7400
 4319              	.LASF79:
 4320 0345 4932435F 		.ascii	"I2C_PECPositionConfig\000"
 4320      50454350 
 4320      6F736974 
 4320      696F6E43 
 4320      6F6E6669 
 4321              	.LASF58:
 4322 035b 666C6167 		.ascii	"flagpos\000"
 4322      706F7300 
 4323              	.LASF106:
 4324 0363 4932435F 		.ascii	"I2C_Init\000"
 4324      496E6974 
 4324      00
 4325              	.LASF85:
 4326 036c 4932435F 		.ascii	"I2C_ARPCmd\000"
 4326      41525043 
 4326      6D6400
 4327              	.LASF48:
 4328 0377 4932435F 		.ascii	"I2C_DutyCycle\000"
 4328      44757479 
 4328      4379636C 
 4328      6500
 4329              	.LASF61:
 4330 0385 69326372 		.ascii	"i2creg\000"
 4330      656700
 4331              	.LASF116:
 4332 038c 2F686F6D 		.ascii	"/home/renan/BLDC/bldc-bootloader\000"
 4332      652F7265 
 4332      6E616E2F 
 4332      424C4443 
 4332      2F626C64 
 4333              	.LASF81:
 4334 03ad 4932435F 		.ascii	"I2C_TransmitPEC\000"
 4334      5472616E 
 4334      736D6974 
 4334      50454300 
 4335              	.LASF87:
 4336 03bd 4932435F 		.ascii	"I2C_SMBusAlert\000"
 4336      534D4275 
 4336      73416C65 
 4336      727400
 4337              	.LASF96:
 4338 03cc 41646472 		.ascii	"Address\000"
 4338      65737300 
 4339              	.LASF53:
 4340 03d4 49324378 		.ascii	"I2Cx\000"
 4340      00
 4341              	.LASF100:
 4342 03d9 4932435F 		.ascii	"I2C_Direction\000"
 4342      44697265 
ARM GAS  /tmp/ccWcPBJM.s 			page 80


 4342      6374696F 
 4342      6E00
 4343              	.LASF89:
 4344 03e7 4932435F 		.ascii	"I2C_NACKPosition\000"
 4344      4E41434B 
 4344      506F7369 
 4344      74696F6E 
 4344      00
 4345              	.LASF17:
 4346 03f8 52455345 		.ascii	"RESET\000"
 4346      5400
 4347              	.LASF63:
 4348 03fe 4932435F 		.ascii	"I2C_GetLastEvent\000"
 4348      4765744C 
 4348      61737445 
 4348      76656E74 
 4348      00
 4349              	.LASF57:
 4350 040f 4932435F 		.ascii	"I2C_FLAG\000"
 4350      464C4147 
 4350      00
 4351              	.LASF111:
 4352 0418 4932435F 		.ascii	"I2C_DeInit\000"
 4352      4465496E 
 4352      697400
 4353              	.LASF93:
 4354 0423 4932435F 		.ascii	"I2C_GeneralCallCmd\000"
 4354      47656E65 
 4354      72616C43 
 4354      616C6C43 
 4354      6D6400
 4355              	.LASF84:
 4356 0436 44617461 		.ascii	"Data\000"
 4356      00
 4357              	.LASF22:
 4358 043b 46756E63 		.ascii	"FunctionalState\000"
 4358      74696F6E 
 4358      616C5374 
 4358      61746500 
 4359              	.LASF67:
 4360 044b 4932435F 		.ascii	"I2C_CheckEvent\000"
 4360      43686563 
 4360      6B457665 
 4360      6E7400
 4361              	.LASF75:
 4362 045a 4932435F 		.ascii	"I2C_DMACmd\000"
 4362      444D4143 
 4362      6D6400
 4363              	.LASF52:
 4364 0465 4932435F 		.ascii	"I2C_InitTypeDef\000"
 4364      496E6974 
 4364      54797065 
 4364      44656600 
 4365              	.LASF54:
 4366 0475 4932435F 		.ascii	"I2C_IT\000"
 4366      495400
 4367              	.LASF109:
ARM GAS  /tmp/ccWcPBJM.s 			page 81


 4368 047c 70636C6B 		.ascii	"pclk1\000"
 4368      3100
 4369              	.LASF103:
 4370 0482 4932435F 		.ascii	"I2C_Cmd\000"
 4370      436D6400 
 4371              	.LASF26:
 4372 048a 52455345 		.ascii	"RESERVED0\000"
 4372      52564544 
 4372      3000
 4373              	.LASF27:
 4374 0494 52455345 		.ascii	"RESERVED1\000"
 4374      52564544 
 4374      3100
 4375              	.LASF29:
 4376 049e 52455345 		.ascii	"RESERVED2\000"
 4376      52564544 
 4376      3200
 4377              	.LASF31:
 4378 04a8 52455345 		.ascii	"RESERVED3\000"
 4378      52564544 
 4378      3300
 4379              	.LASF32:
 4380 04b2 52455345 		.ascii	"RESERVED4\000"
 4380      52564544 
 4380      3400
 4381              	.LASF33:
 4382 04bc 52455345 		.ascii	"RESERVED5\000"
 4382      52564544 
 4382      3500
 4383              	.LASF34:
 4384 04c6 52455345 		.ascii	"RESERVED6\000"
 4384      52564544 
 4384      3600
 4385              	.LASF35:
 4386 04d0 52455345 		.ascii	"RESERVED7\000"
 4386      52564544 
 4386      3700
 4387              	.LASF37:
 4388 04da 52455345 		.ascii	"RESERVED8\000"
 4388      52564544 
 4388      3800
 4389              	.LASF39:
 4390 04e4 52455345 		.ascii	"RESERVED9\000"
 4390      52564544 
 4390      3900
 4391              	.LASF49:
 4392 04ee 4932435F 		.ascii	"I2C_OwnAddress1\000"
 4392      4F776E41 
 4392      64647265 
 4392      73733100 
 4393              	.LASF110:
 4394 04fe 7263635F 		.ascii	"rcc_clocks\000"
 4394      636C6F63 
 4394      6B7300
 4395              	.LASF15:
 4396 0509 696E7433 		.ascii	"int32_t\000"
 4396      325F7400 
ARM GAS  /tmp/ccWcPBJM.s 			page 82


 4397              	.LASF3:
 4398 0511 756E7369 		.ascii	"unsigned char\000"
 4398      676E6564 
 4398      20636861 
 4398      7200
 4399              	.LASF50:
 4400 051f 4932435F 		.ascii	"I2C_Ack\000"
 4400      41636B00 
 4401              	.LASF4:
 4402 0527 73686F72 		.ascii	"short int\000"
 4402      7420696E 
 4402      7400
 4403              	.LASF68:
 4404 0531 4932435F 		.ascii	"I2C_EVENT\000"
 4404      4556454E 
 4404      5400
 4405              	.LASF41:
 4406 053b 53595343 		.ascii	"SYSCLK_Frequency\000"
 4406      4C4B5F46 
 4406      72657175 
 4406      656E6379 
 4406      00
 4407              	.LASF82:
 4408 054c 4932435F 		.ascii	"I2C_ReceiveData\000"
 4408      52656365 
 4408      69766544 
 4408      61746100 
 4409              	.LASF118:
 4410 055c 4932435F 		.ascii	"I2C_ClearFlag\000"
 4410      436C6561 
 4410      72466C61 
 4410      6700
 4411              	.LASF51:
 4412 056a 4932435F 		.ascii	"I2C_AcknowledgedAddress\000"
 4412      41636B6E 
 4412      6F776C65 
 4412      64676564 
 4412      41646472 
 4413              	.LASF71:
 4414 0582 4932435F 		.ascii	"I2C_ReadRegister\000"
 4414      52656164 
 4414      52656769 
 4414      73746572 
 4414      00
 4415              	.LASF16:
 4416 0593 75696E74 		.ascii	"uint32_t\000"
 4416      33325F74 
 4416      00
 4417              	.LASF43:
 4418 059c 50434C4B 		.ascii	"PCLK1_Frequency\000"
 4418      315F4672 
 4418      65717565 
 4418      6E637900 
 4419              	.LASF90:
 4420 05ac 4932435F 		.ascii	"I2C_FastModeDutyCycleConfig\000"
 4420      46617374 
 4420      4D6F6465 
ARM GAS  /tmp/ccWcPBJM.s 			page 83


 4420      44757479 
 4420      4379636C 
 4421              	.LASF112:
 4422 05c8 5243435F 		.ascii	"RCC_GetClocksFreq\000"
 4422      47657443 
 4422      6C6F636B 
 4422      73467265 
 4422      7100
 4423              	.LASF115:
 4424 05da 43686962 		.ascii	"ChibiOS_2.6.6/ext/stdperiph_stm32f4/src/stm32f4xx_i"
 4424      694F535F 
 4424      322E362E 
 4424      362F6578 
 4424      742F7374 
 4425 060d 32632E63 		.ascii	"2c.c\000"
 4425      00
 4426              	.LASF94:
 4427 0612 4932435F 		.ascii	"I2C_DualAddressCmd\000"
 4427      4475616C 
 4427      41646472 
 4427      65737343 
 4427      6D6400
 4428              	.LASF6:
 4429 0625 5F5F7569 		.ascii	"__uint16_t\000"
 4429      6E743136 
 4429      5F7400
 4430              	.LASF65:
 4431 0630 666C6167 		.ascii	"flag1\000"
 4431      3100
 4432              	.LASF66:
 4433 0636 666C6167 		.ascii	"flag2\000"
 4433      3200
 4434              	.LASF56:
 4435 063c 656E6162 		.ascii	"enablestatus\000"
 4435      6C657374 
 4435      61747573 
 4435      00
 4436              	.LASF8:
 4437 0649 5F5F696E 		.ascii	"__int32_t\000"
 4437      7433325F 
 4437      7400
 4438              	.LASF98:
 4439 0653 4932435F 		.ascii	"I2C_AcknowledgeConfig\000"
 4439      41636B6E 
 4439      6F776C65 
 4439      64676543 
 4439      6F6E6669 
 4440              	.LASF7:
 4441 0669 73686F72 		.ascii	"short unsigned int\000"
 4441      7420756E 
 4441      7369676E 
 4441      65642069 
 4441      6E7400
 4442              	.LASF80:
 4443 067c 4932435F 		.ascii	"I2C_PECPosition\000"
 4443      50454350 
 4443      6F736974 
ARM GAS  /tmp/ccWcPBJM.s 			page 84


 4443      696F6E00 
 4444              	.LASF60:
 4445 068c 4932435F 		.ascii	"I2C_GetFlagStatus\000"
 4445      47657446 
 4445      6C616753 
 4445      74617475 
 4445      7300
 4446              	.LASF64:
 4447 069e 6C617374 		.ascii	"lastevent\000"
 4447      6576656E 
 4447      7400
 4448              	.LASF69:
 4449 06a8 73746174 		.ascii	"status\000"
 4449      757300
 4450              	.LASF92:
 4451 06af 4932435F 		.ascii	"I2C_SoftwareResetCmd\000"
 4451      536F6674 
 4451      77617265 
 4451      52657365 
 4451      74436D64 
 4452              	.LASF13:
 4453 06c4 75696E74 		.ascii	"uint8_t\000"
 4453      385F7400 
 4454              	.LASF99:
 4455 06cc 4932435F 		.ascii	"I2C_Send7bitAddress\000"
 4455      53656E64 
 4455      37626974 
 4455      41646472 
 4455      65737300 
 4456              	.LASF24:
 4457 06e0 53554343 		.ascii	"SUCCESS\000"
 4457      45535300 
 4458              	.LASF62:
 4459 06e8 69326378 		.ascii	"i2cxbase\000"
 4459      62617365 
 4459      00
 4460              	.LASF30:
 4461 06f1 4F415232 		.ascii	"OAR2\000"
 4461      00
 4462              	.LASF101:
 4463 06f6 4932435F 		.ascii	"I2C_GenerateSTOP\000"
 4463      47656E65 
 4463      72617465 
 4463      53544F50 
 4463      00
 4464              	.LASF45:
 4465 0707 5243435F 		.ascii	"RCC_ClocksTypeDef\000"
 4465      436C6F63 
 4465      6B735479 
 4465      70654465 
 4465      6600
 4466              	.LASF59:
 4467 0719 4932435F 		.ascii	"I2C_GetITStatus\000"
 4467      47657449 
 4467      54537461 
 4467      74757300 
 4468              	.LASF9:
ARM GAS  /tmp/ccWcPBJM.s 			page 85


 4469 0729 6C6F6E67 		.ascii	"long int\000"
 4469      20696E74 
 4469      00
 4470              	.LASF40:
 4471 0732 4932435F 		.ascii	"I2C_TypeDef\000"
 4471      54797065 
 4471      44656600 
 4472              	.LASF97:
 4473 073e 746D7072 		.ascii	"tmpreg\000"
 4473      656700
 4474              	.LASF108:
 4475 0745 72657375 		.ascii	"result\000"
 4475      6C7400
 4476              		.ident	"GCC: (GNU Tools for Arm Embedded Processors 7-2018-q3-update) 7.3.1 20180622 (release) [AR
ARM GAS  /tmp/ccWcPBJM.s 			page 86


DEFINED SYMBOLS
                            *ABS*:0000000000000000 stm32f4xx_i2c.c
     /tmp/ccWcPBJM.s:18     .text.I2C_DeInit:0000000000000000 $t
     /tmp/ccWcPBJM.s:26     .text.I2C_DeInit:0000000000000000 I2C_DeInit
     /tmp/ccWcPBJM.s:113    .text.I2C_DeInit:0000000000000060 $d
     /tmp/ccWcPBJM.s:120    .text.I2C_Init:0000000000000000 $t
     /tmp/ccWcPBJM.s:128    .text.I2C_Init:0000000000000000 I2C_Init
     /tmp/ccWcPBJM.s:299    .text.I2C_Init:00000000000000c4 $d
     /tmp/ccWcPBJM.s:307    .text.I2C_StructInit:0000000000000000 $t
     /tmp/ccWcPBJM.s:315    .text.I2C_StructInit:0000000000000000 I2C_StructInit
     /tmp/ccWcPBJM.s:340    .text.I2C_StructInit:0000000000000018 $d
     /tmp/ccWcPBJM.s:345    .text.I2C_Cmd:0000000000000000 $t
     /tmp/ccWcPBJM.s:353    .text.I2C_Cmd:0000000000000000 I2C_Cmd
     /tmp/ccWcPBJM.s:381    .text.I2C_GenerateSTART:0000000000000000 $t
     /tmp/ccWcPBJM.s:389    .text.I2C_GenerateSTART:0000000000000000 I2C_GenerateSTART
     /tmp/ccWcPBJM.s:417    .text.I2C_GenerateSTOP:0000000000000000 $t
     /tmp/ccWcPBJM.s:425    .text.I2C_GenerateSTOP:0000000000000000 I2C_GenerateSTOP
     /tmp/ccWcPBJM.s:453    .text.I2C_Send7bitAddress:0000000000000000 $t
     /tmp/ccWcPBJM.s:461    .text.I2C_Send7bitAddress:0000000000000000 I2C_Send7bitAddress
     /tmp/ccWcPBJM.s:495    .text.I2C_AcknowledgeConfig:0000000000000000 $t
     /tmp/ccWcPBJM.s:503    .text.I2C_AcknowledgeConfig:0000000000000000 I2C_AcknowledgeConfig
     /tmp/ccWcPBJM.s:531    .text.I2C_OwnAddress2Config:0000000000000000 $t
     /tmp/ccWcPBJM.s:539    .text.I2C_OwnAddress2Config:0000000000000000 I2C_OwnAddress2Config
     /tmp/ccWcPBJM.s:568    .text.I2C_DualAddressCmd:0000000000000000 $t
     /tmp/ccWcPBJM.s:576    .text.I2C_DualAddressCmd:0000000000000000 I2C_DualAddressCmd
     /tmp/ccWcPBJM.s:604    .text.I2C_GeneralCallCmd:0000000000000000 $t
     /tmp/ccWcPBJM.s:612    .text.I2C_GeneralCallCmd:0000000000000000 I2C_GeneralCallCmd
     /tmp/ccWcPBJM.s:640    .text.I2C_SoftwareResetCmd:0000000000000000 $t
     /tmp/ccWcPBJM.s:648    .text.I2C_SoftwareResetCmd:0000000000000000 I2C_SoftwareResetCmd
     /tmp/ccWcPBJM.s:674    .text.I2C_StretchClockCmd:0000000000000000 $t
     /tmp/ccWcPBJM.s:682    .text.I2C_StretchClockCmd:0000000000000000 I2C_StretchClockCmd
     /tmp/ccWcPBJM.s:710    .text.I2C_FastModeDutyCycleConfig:0000000000000000 $t
     /tmp/ccWcPBJM.s:718    .text.I2C_FastModeDutyCycleConfig:0000000000000000 I2C_FastModeDutyCycleConfig
     /tmp/ccWcPBJM.s:744    .text.I2C_NACKPositionConfig:0000000000000000 $t
     /tmp/ccWcPBJM.s:752    .text.I2C_NACKPositionConfig:0000000000000000 I2C_NACKPositionConfig
     /tmp/ccWcPBJM.s:779    .text.I2C_SMBusAlertConfig:0000000000000000 $t
     /tmp/ccWcPBJM.s:787    .text.I2C_SMBusAlertConfig:0000000000000000 I2C_SMBusAlertConfig
     /tmp/ccWcPBJM.s:814    .text.I2C_ARPCmd:0000000000000000 $t
     /tmp/ccWcPBJM.s:822    .text.I2C_ARPCmd:0000000000000000 I2C_ARPCmd
     /tmp/ccWcPBJM.s:850    .text.I2C_SendData:0000000000000000 $t
     /tmp/ccWcPBJM.s:858    .text.I2C_SendData:0000000000000000 I2C_SendData
     /tmp/ccWcPBJM.s:874    .text.I2C_ReceiveData:0000000000000000 $t
     /tmp/ccWcPBJM.s:882    .text.I2C_ReceiveData:0000000000000000 I2C_ReceiveData
     /tmp/ccWcPBJM.s:900    .text.I2C_TransmitPEC:0000000000000000 $t
     /tmp/ccWcPBJM.s:908    .text.I2C_TransmitPEC:0000000000000000 I2C_TransmitPEC
     /tmp/ccWcPBJM.s:936    .text.I2C_PECPositionConfig:0000000000000000 $t
     /tmp/ccWcPBJM.s:944    .text.I2C_PECPositionConfig:0000000000000000 I2C_PECPositionConfig
     /tmp/ccWcPBJM.s:955    .text.I2C_CalculatePEC:0000000000000000 $t
     /tmp/ccWcPBJM.s:963    .text.I2C_CalculatePEC:0000000000000000 I2C_CalculatePEC
     /tmp/ccWcPBJM.s:991    .text.I2C_GetPEC:0000000000000000 $t
     /tmp/ccWcPBJM.s:999    .text.I2C_GetPEC:0000000000000000 I2C_GetPEC
     /tmp/ccWcPBJM.s:1017   .text.I2C_DMACmd:0000000000000000 $t
     /tmp/ccWcPBJM.s:1025   .text.I2C_DMACmd:0000000000000000 I2C_DMACmd
     /tmp/ccWcPBJM.s:1053   .text.I2C_DMALastTransferCmd:0000000000000000 $t
     /tmp/ccWcPBJM.s:1061   .text.I2C_DMALastTransferCmd:0000000000000000 I2C_DMALastTransferCmd
     /tmp/ccWcPBJM.s:1089   .text.I2C_ReadRegister:0000000000000000 $t
     /tmp/ccWcPBJM.s:1097   .text.I2C_ReadRegister:0000000000000000 I2C_ReadRegister
ARM GAS  /tmp/ccWcPBJM.s 			page 87


     /tmp/ccWcPBJM.s:1130   .text.I2C_ITConfig:0000000000000000 $t
     /tmp/ccWcPBJM.s:1138   .text.I2C_ITConfig:0000000000000000 I2C_ITConfig
     /tmp/ccWcPBJM.s:1167   .text.I2C_CheckEvent:0000000000000000 $t
     /tmp/ccWcPBJM.s:1175   .text.I2C_CheckEvent:0000000000000000 I2C_CheckEvent
     /tmp/ccWcPBJM.s:1206   .text.I2C_GetLastEvent:0000000000000000 $t
     /tmp/ccWcPBJM.s:1214   .text.I2C_GetLastEvent:0000000000000000 I2C_GetLastEvent
     /tmp/ccWcPBJM.s:1238   .text.I2C_GetFlagStatus:0000000000000000 $t
     /tmp/ccWcPBJM.s:1246   .text.I2C_GetFlagStatus:0000000000000000 I2C_GetFlagStatus
     /tmp/ccWcPBJM.s:1310   .text.I2C_ClearFlag:0000000000000000 $t
     /tmp/ccWcPBJM.s:1318   .text.I2C_ClearFlag:0000000000000000 I2C_ClearFlag
     /tmp/ccWcPBJM.s:1338   .text.I2C_GetITStatus:0000000000000000 $t
     /tmp/ccWcPBJM.s:1346   .text.I2C_GetITStatus:0000000000000000 I2C_GetITStatus
     /tmp/ccWcPBJM.s:1382   .text.I2C_ClearITPendingBit:0000000000000000 $t
     /tmp/ccWcPBJM.s:1390   .text.I2C_ClearITPendingBit:0000000000000000 I2C_ClearITPendingBit

UNDEFINED SYMBOLS
RCC_APB1PeriphResetCmd
RCC_GetClocksFreq
