ARM GAS  /tmp/cc6JVIzT.s 			page 1


   1              		.cpu cortex-m4
   2              		.eabi_attribute 27, 1
   3              		.eabi_attribute 28, 1
   4              		.eabi_attribute 20, 1
   5              		.eabi_attribute 21, 1
   6              		.eabi_attribute 23, 3
   7              		.eabi_attribute 24, 1
   8              		.eabi_attribute 25, 1
   9              		.eabi_attribute 26, 1
  10              		.eabi_attribute 30, 2
  11              		.eabi_attribute 34, 1
  12              		.eabi_attribute 18, 4
  13              		.file	"stm32f4xx_dcmi.c"
  14              		.text
  15              	.Ltext0:
  16              		.cfi_sections	.debug_frame
  17              		.section	.text.DCMI_DeInit,"ax",%progbits
  18              		.align	1
  19              		.p2align 4,,15
  20              		.global	DCMI_DeInit
  21              		.syntax unified
  22              		.thumb
  23              		.thumb_func
  24              		.fpu fpv4-sp-d16
  25              		.type	DCMI_DeInit, %function
  26              	DCMI_DeInit:
  27              	.LFB111:
  28              		.file 1 "ChibiOS_2.6.6/ext/stdperiph_stm32f4/src/stm32f4xx_dcmi.c"
  29              		.loc 1 129 0
  30              		.cfi_startproc
  31              		@ args = 0, pretend = 0, frame = 0
  32              		@ frame_needed = 0, uses_anonymous_args = 0
  33              		@ link register save eliminated.
  34              		.loc 1 130 0
  35 0000 054B     		ldr	r3, .L3
  36 0002 0022     		movs	r2, #0
  37              		.loc 1 132 0
  38 0004 1F21     		movs	r1, #31
  39              		.loc 1 130 0
  40 0006 1A60     		str	r2, [r3]
  41              		.loc 1 131 0
  42 0008 DA60     		str	r2, [r3, #12]
  43              		.loc 1 132 0
  44 000a 5961     		str	r1, [r3, #20]
  45              		.loc 1 133 0
  46 000c 9A61     		str	r2, [r3, #24]
  47              		.loc 1 134 0
  48 000e DA61     		str	r2, [r3, #28]
  49              		.loc 1 135 0
  50 0010 1A62     		str	r2, [r3, #32]
  51              		.loc 1 136 0
  52 0012 5A62     		str	r2, [r3, #36]
  53              		.loc 1 137 0
  54 0014 7047     		bx	lr
  55              	.L4:
  56 0016 00BF     		.align	2
  57              	.L3:
ARM GAS  /tmp/cc6JVIzT.s 			page 2


  58 0018 00000550 		.word	1342504960
  59              		.cfi_endproc
  60              	.LFE111:
  61              		.size	DCMI_DeInit, .-DCMI_DeInit
  62              		.section	.text.DCMI_Init,"ax",%progbits
  63              		.align	1
  64              		.p2align 4,,15
  65              		.global	DCMI_Init
  66              		.syntax unified
  67              		.thumb
  68              		.thumb_func
  69              		.fpu fpv4-sp-d16
  70              		.type	DCMI_Init, %function
  71              	DCMI_Init:
  72              	.LFB112:
  73              		.loc 1 146 0
  74              		.cfi_startproc
  75              		@ args = 0, pretend = 0, frame = 0
  76              		@ frame_needed = 0, uses_anonymous_args = 0
  77              		@ link register save eliminated.
  78              	.LVL0:
  79              		.loc 1 160 0
  80 0000 0E49     		ldr	r1, .L7
  81              		.loc 1 175 0
  82 0002 0388     		ldrh	r3, [r0]
  83              		.loc 1 160 0
  84 0004 0A68     		ldr	r2, [r1]
  85              		.loc 1 146 0
  86 0006 70B4     		push	{r4, r5, r6}
  87              		.cfi_def_cfa_offset 12
  88              		.cfi_offset 4, -12
  89              		.cfi_offset 5, -8
  90              		.cfi_offset 6, -4
  91              		.loc 1 175 0
  92 0008 4588     		ldrh	r5, [r0, #2]
  93 000a 8488     		ldrh	r4, [r0, #4]
  94 000c C688     		ldrh	r6, [r0, #6]
  95              		.loc 1 160 0
  96 000e 22F48042 		bic	r2, r2, #16384
  97              		.loc 1 175 0
  98 0012 2B43     		orrs	r3, r3, r5
  99              		.loc 1 160 0
 100 0014 22F00102 		bic	r2, r2, #1
 101              		.loc 1 175 0
 102 0018 0589     		ldrh	r5, [r0, #8]
 103              		.loc 1 160 0
 104 001a 0A60     		str	r2, [r1]
 105              		.loc 1 175 0
 106 001c 2343     		orrs	r3, r3, r4
 107 001e 3343     		orrs	r3, r3, r6
 108 0020 4489     		ldrh	r4, [r0, #10]
 109              		.loc 1 163 0
 110 0022 0A68     		ldr	r2, [r1]
 111              	.LVL1:
 112              		.loc 1 175 0
 113 0024 8089     		ldrh	r0, [r0, #12]
 114              	.LVL2:
ARM GAS  /tmp/cc6JVIzT.s 			page 3


 115 0026 2B43     		orrs	r3, r3, r5
 116 0028 2343     		orrs	r3, r3, r4
 117              		.loc 1 165 0
 118 002a 22F47F62 		bic	r2, r2, #4080
 119              	.LVL3:
 120              		.loc 1 175 0
 121 002e 0343     		orrs	r3, r3, r0
 122              		.loc 1 165 0
 123 0030 22F00202 		bic	r2, r2, #2
 124              	.LVL4:
 125              		.loc 1 170 0
 126 0034 1343     		orrs	r3, r3, r2
 127              	.LVL5:
 128              		.loc 1 178 0
 129 0036 0B60     		str	r3, [r1]
 130              		.loc 1 179 0
 131 0038 70BC     		pop	{r4, r5, r6}
 132              		.cfi_restore 6
 133              		.cfi_restore 5
 134              		.cfi_restore 4
 135              		.cfi_def_cfa_offset 0
 136 003a 7047     		bx	lr
 137              	.L8:
 138              		.align	2
 139              	.L7:
 140 003c 00000550 		.word	1342504960
 141              		.cfi_endproc
 142              	.LFE112:
 143              		.size	DCMI_Init, .-DCMI_Init
 144              		.section	.text.DCMI_StructInit,"ax",%progbits
 145              		.align	1
 146              		.p2align 4,,15
 147              		.global	DCMI_StructInit
 148              		.syntax unified
 149              		.thumb
 150              		.thumb_func
 151              		.fpu fpv4-sp-d16
 152              		.type	DCMI_StructInit, %function
 153              	DCMI_StructInit:
 154              	.LFB113:
 155              		.loc 1 188 0
 156              		.cfi_startproc
 157              		@ args = 0, pretend = 0, frame = 0
 158              		@ frame_needed = 0, uses_anonymous_args = 0
 159              		@ link register save eliminated.
 160              	.LVL6:
 161              		.loc 1 190 0
 162 0000 0023     		movs	r3, #0
 163 0002 0380     		strh	r3, [r0]	@ movhi
 164              		.loc 1 191 0
 165 0004 4380     		strh	r3, [r0, #2]	@ movhi
 166              		.loc 1 192 0
 167 0006 8380     		strh	r3, [r0, #4]	@ movhi
 168              		.loc 1 193 0
 169 0008 C380     		strh	r3, [r0, #6]	@ movhi
 170              		.loc 1 194 0
 171 000a 0381     		strh	r3, [r0, #8]	@ movhi
ARM GAS  /tmp/cc6JVIzT.s 			page 4


 172              		.loc 1 195 0
 173 000c 4381     		strh	r3, [r0, #10]	@ movhi
 174              		.loc 1 196 0
 175 000e 8381     		strh	r3, [r0, #12]	@ movhi
 176              		.loc 1 197 0
 177 0010 7047     		bx	lr
 178              		.cfi_endproc
 179              	.LFE113:
 180              		.size	DCMI_StructInit, .-DCMI_StructInit
 181 0012 00BF     		.section	.text.DCMI_CROPConfig,"ax",%progbits
 182              		.align	1
 183              		.p2align 4,,15
 184              		.global	DCMI_CROPConfig
 185              		.syntax unified
 186              		.thumb
 187              		.thumb_func
 188              		.fpu fpv4-sp-d16
 189              		.type	DCMI_CROPConfig, %function
 190              	DCMI_CROPConfig:
 191              	.LFB114:
 192              		.loc 1 208 0
 193              		.cfi_startproc
 194              		@ args = 0, pretend = 0, frame = 0
 195              		@ frame_needed = 0, uses_anonymous_args = 0
 196              		@ link register save eliminated.
 197              	.LVL7:
 198 0000 30B4     		push	{r4, r5}
 199              		.cfi_def_cfa_offset 8
 200              		.cfi_offset 4, -8
 201              		.cfi_offset 5, -4
 202              		.loc 1 210 0
 203 0002 4288     		ldrh	r2, [r0, #2]
 204              		.loc 1 211 0
 205 0004 0588     		ldrh	r5, [r0]
 206              		.loc 1 215 0
 207 0006 8488     		ldrh	r4, [r0, #4]
 208              		.loc 1 214 0
 209 0008 C388     		ldrh	r3, [r0, #6]
 210              		.loc 1 210 0
 211 000a 0449     		ldr	r1, .L12
 212 000c 42EA0542 		orr	r2, r2, r5, lsl #16
 213              		.loc 1 214 0
 214 0010 43EA0443 		orr	r3, r3, r4, lsl #16
 215              		.loc 1 210 0
 216 0014 0A62     		str	r2, [r1, #32]
 217              		.loc 1 216 0
 218 0016 30BC     		pop	{r4, r5}
 219              		.cfi_restore 5
 220              		.cfi_restore 4
 221              		.cfi_def_cfa_offset 0
 222              		.loc 1 214 0
 223 0018 4B62     		str	r3, [r1, #36]
 224              		.loc 1 216 0
 225 001a 7047     		bx	lr
 226              	.L13:
 227              		.align	2
 228              	.L12:
ARM GAS  /tmp/cc6JVIzT.s 			page 5


 229 001c 00000550 		.word	1342504960
 230              		.cfi_endproc
 231              	.LFE114:
 232              		.size	DCMI_CROPConfig, .-DCMI_CROPConfig
 233              		.section	.text.DCMI_CROPCmd,"ax",%progbits
 234              		.align	1
 235              		.p2align 4,,15
 236              		.global	DCMI_CROPCmd
 237              		.syntax unified
 238              		.thumb
 239              		.thumb_func
 240              		.fpu fpv4-sp-d16
 241              		.type	DCMI_CROPCmd, %function
 242              	DCMI_CROPCmd:
 243              	.LFB115:
 244              		.loc 1 226 0
 245              		.cfi_startproc
 246              		@ args = 0, pretend = 0, frame = 0
 247              		@ frame_needed = 0, uses_anonymous_args = 0
 248              		@ link register save eliminated.
 249              	.LVL8:
 250              		.loc 1 233 0
 251 0000 054A     		ldr	r2, .L18
 252 0002 1368     		ldr	r3, [r2]
 253              		.loc 1 230 0
 254 0004 18B9     		cbnz	r0, .L17
 255              		.loc 1 238 0
 256 0006 23F00403 		bic	r3, r3, #4
 257 000a 1360     		str	r3, [r2]
 258              		.loc 1 240 0
 259 000c 7047     		bx	lr
 260              	.L17:
 261              		.loc 1 233 0
 262 000e 43F00403 		orr	r3, r3, #4
 263 0012 1360     		str	r3, [r2]
 264 0014 7047     		bx	lr
 265              	.L19:
 266 0016 00BF     		.align	2
 267              	.L18:
 268 0018 00000550 		.word	1342504960
 269              		.cfi_endproc
 270              	.LFE115:
 271              		.size	DCMI_CROPCmd, .-DCMI_CROPCmd
 272              		.section	.text.DCMI_SetEmbeddedSynchroCodes,"ax",%progbits
 273              		.align	1
 274              		.p2align 4,,15
 275              		.global	DCMI_SetEmbeddedSynchroCodes
 276              		.syntax unified
 277              		.thumb
 278              		.thumb_func
 279              		.fpu fpv4-sp-d16
 280              		.type	DCMI_SetEmbeddedSynchroCodes, %function
 281              	DCMI_SetEmbeddedSynchroCodes:
 282              	.LFB116:
 283              		.loc 1 249 0
 284              		.cfi_startproc
 285              		@ args = 0, pretend = 0, frame = 0
ARM GAS  /tmp/cc6JVIzT.s 			page 6


 286              		@ frame_needed = 0, uses_anonymous_args = 0
 287              		@ link register save eliminated.
 288              	.LVL9:
 289              		.loc 1 250 0
 290 0000 014B     		ldr	r3, .L21
 291 0002 0268     		ldr	r2, [r0]	@ unaligned
 292 0004 9A61     		str	r2, [r3, #24]
 293              		.loc 1 254 0
 294 0006 7047     		bx	lr
 295              	.L22:
 296              		.align	2
 297              	.L21:
 298 0008 00000550 		.word	1342504960
 299              		.cfi_endproc
 300              	.LFE116:
 301              		.size	DCMI_SetEmbeddedSynchroCodes, .-DCMI_SetEmbeddedSynchroCodes
 302              		.section	.text.DCMI_JPEGCmd,"ax",%progbits
 303              		.align	1
 304              		.p2align 4,,15
 305              		.global	DCMI_JPEGCmd
 306              		.syntax unified
 307              		.thumb
 308              		.thumb_func
 309              		.fpu fpv4-sp-d16
 310              		.type	DCMI_JPEGCmd, %function
 311              	DCMI_JPEGCmd:
 312              	.LFB117:
 313              		.loc 1 264 0
 314              		.cfi_startproc
 315              		@ args = 0, pretend = 0, frame = 0
 316              		@ frame_needed = 0, uses_anonymous_args = 0
 317              		@ link register save eliminated.
 318              	.LVL10:
 319              		.loc 1 271 0
 320 0000 054A     		ldr	r2, .L27
 321 0002 1368     		ldr	r3, [r2]
 322              		.loc 1 268 0
 323 0004 18B9     		cbnz	r0, .L26
 324              		.loc 1 276 0
 325 0006 23F00803 		bic	r3, r3, #8
 326 000a 1360     		str	r3, [r2]
 327              		.loc 1 278 0
 328 000c 7047     		bx	lr
 329              	.L26:
 330              		.loc 1 271 0
 331 000e 43F00803 		orr	r3, r3, #8
 332 0012 1360     		str	r3, [r2]
 333 0014 7047     		bx	lr
 334              	.L28:
 335 0016 00BF     		.align	2
 336              	.L27:
 337 0018 00000550 		.word	1342504960
 338              		.cfi_endproc
 339              	.LFE117:
 340              		.size	DCMI_JPEGCmd, .-DCMI_JPEGCmd
 341              		.section	.text.DCMI_Cmd,"ax",%progbits
 342              		.align	1
ARM GAS  /tmp/cc6JVIzT.s 			page 7


 343              		.p2align 4,,15
 344              		.global	DCMI_Cmd
 345              		.syntax unified
 346              		.thumb
 347              		.thumb_func
 348              		.fpu fpv4-sp-d16
 349              		.type	DCMI_Cmd, %function
 350              	DCMI_Cmd:
 351              	.LFB118:
 352              		.loc 1 302 0
 353              		.cfi_startproc
 354              		@ args = 0, pretend = 0, frame = 0
 355              		@ frame_needed = 0, uses_anonymous_args = 0
 356              		@ link register save eliminated.
 357              	.LVL11:
 358              		.loc 1 309 0
 359 0000 054A     		ldr	r2, .L33
 360 0002 1368     		ldr	r3, [r2]
 361              		.loc 1 306 0
 362 0004 18B9     		cbnz	r0, .L32
 363              		.loc 1 314 0
 364 0006 23F48043 		bic	r3, r3, #16384
 365 000a 1360     		str	r3, [r2]
 366              		.loc 1 316 0
 367 000c 7047     		bx	lr
 368              	.L32:
 369              		.loc 1 309 0
 370 000e 43F48043 		orr	r3, r3, #16384
 371 0012 1360     		str	r3, [r2]
 372 0014 7047     		bx	lr
 373              	.L34:
 374 0016 00BF     		.align	2
 375              	.L33:
 376 0018 00000550 		.word	1342504960
 377              		.cfi_endproc
 378              	.LFE118:
 379              		.size	DCMI_Cmd, .-DCMI_Cmd
 380              		.section	.text.DCMI_CaptureCmd,"ax",%progbits
 381              		.align	1
 382              		.p2align 4,,15
 383              		.global	DCMI_CaptureCmd
 384              		.syntax unified
 385              		.thumb
 386              		.thumb_func
 387              		.fpu fpv4-sp-d16
 388              		.type	DCMI_CaptureCmd, %function
 389              	DCMI_CaptureCmd:
 390              	.LFB119:
 391              		.loc 1 325 0
 392              		.cfi_startproc
 393              		@ args = 0, pretend = 0, frame = 0
 394              		@ frame_needed = 0, uses_anonymous_args = 0
 395              		@ link register save eliminated.
 396              	.LVL12:
 397              		.loc 1 332 0
 398 0000 054A     		ldr	r2, .L39
 399 0002 1368     		ldr	r3, [r2]
ARM GAS  /tmp/cc6JVIzT.s 			page 8


 400              		.loc 1 329 0
 401 0004 18B9     		cbnz	r0, .L38
 402              		.loc 1 337 0
 403 0006 23F00103 		bic	r3, r3, #1
 404 000a 1360     		str	r3, [r2]
 405              		.loc 1 339 0
 406 000c 7047     		bx	lr
 407              	.L38:
 408              		.loc 1 332 0
 409 000e 43F00103 		orr	r3, r3, #1
 410 0012 1360     		str	r3, [r2]
 411 0014 7047     		bx	lr
 412              	.L40:
 413 0016 00BF     		.align	2
 414              	.L39:
 415 0018 00000550 		.word	1342504960
 416              		.cfi_endproc
 417              	.LFE119:
 418              		.size	DCMI_CaptureCmd, .-DCMI_CaptureCmd
 419              		.section	.text.DCMI_ReadData,"ax",%progbits
 420              		.align	1
 421              		.p2align 4,,15
 422              		.global	DCMI_ReadData
 423              		.syntax unified
 424              		.thumb
 425              		.thumb_func
 426              		.fpu fpv4-sp-d16
 427              		.type	DCMI_ReadData, %function
 428              	DCMI_ReadData:
 429              	.LFB120:
 430              		.loc 1 347 0
 431              		.cfi_startproc
 432              		@ args = 0, pretend = 0, frame = 0
 433              		@ frame_needed = 0, uses_anonymous_args = 0
 434              		@ link register save eliminated.
 435              		.loc 1 348 0
 436 0000 014B     		ldr	r3, .L42
 437 0002 986A     		ldr	r0, [r3, #40]
 438              		.loc 1 349 0
 439 0004 7047     		bx	lr
 440              	.L43:
 441 0006 00BF     		.align	2
 442              	.L42:
 443 0008 00000550 		.word	1342504960
 444              		.cfi_endproc
 445              	.LFE120:
 446              		.size	DCMI_ReadData, .-DCMI_ReadData
 447              		.section	.text.DCMI_ITConfig,"ax",%progbits
 448              		.align	1
 449              		.p2align 4,,15
 450              		.global	DCMI_ITConfig
 451              		.syntax unified
 452              		.thumb
 453              		.thumb_func
 454              		.fpu fpv4-sp-d16
 455              		.type	DCMI_ITConfig, %function
 456              	DCMI_ITConfig:
ARM GAS  /tmp/cc6JVIzT.s 			page 9


 457              	.LFB121:
 458              		.loc 1 380 0
 459              		.cfi_startproc
 460              		@ args = 0, pretend = 0, frame = 0
 461              		@ frame_needed = 0, uses_anonymous_args = 0
 462              		@ link register save eliminated.
 463              	.LVL13:
 464              		.loc 1 388 0
 465 0000 054B     		ldr	r3, .L48
 466              		.loc 1 385 0
 467 0002 29B9     		cbnz	r1, .L47
 468              		.loc 1 393 0
 469 0004 DA68     		ldr	r2, [r3, #12]
 470 0006 C043     		mvns	r0, r0
 471              	.LVL14:
 472 0008 80B2     		uxth	r0, r0
 473 000a 1040     		ands	r0, r0, r2
 474 000c D860     		str	r0, [r3, #12]
 475              		.loc 1 395 0
 476 000e 7047     		bx	lr
 477              	.LVL15:
 478              	.L47:
 479              		.loc 1 388 0
 480 0010 DA68     		ldr	r2, [r3, #12]
 481 0012 1043     		orrs	r0, r0, r2
 482              	.LVL16:
 483 0014 D860     		str	r0, [r3, #12]
 484 0016 7047     		bx	lr
 485              	.L49:
 486              		.align	2
 487              	.L48:
 488 0018 00000550 		.word	1342504960
 489              		.cfi_endproc
 490              	.LFE121:
 491              		.size	DCMI_ITConfig, .-DCMI_ITConfig
 492              		.section	.text.DCMI_GetFlagStatus,"ax",%progbits
 493              		.align	1
 494              		.p2align 4,,15
 495              		.global	DCMI_GetFlagStatus
 496              		.syntax unified
 497              		.thumb
 498              		.thumb_func
 499              		.fpu fpv4-sp-d16
 500              		.type	DCMI_GetFlagStatus, %function
 501              	DCMI_GetFlagStatus:
 502              	.LFB122:
 503              		.loc 1 417 0
 504              		.cfi_startproc
 505              		@ args = 0, pretend = 0, frame = 0
 506              		@ frame_needed = 0, uses_anonymous_args = 0
 507              		@ link register save eliminated.
 508              	.LVL17:
 509              		.loc 1 427 0
 510 0000 030B     		lsrs	r3, r0, #12
 511              	.LVL18:
 512 0002 06D1     		bne	.L51
 513              		.loc 1 429 0
ARM GAS  /tmp/cc6JVIzT.s 			page 10


 514 0004 064B     		ldr	r3, .L54
 515              	.LVL19:
 516 0006 9B68     		ldr	r3, [r3, #8]
 517              	.LVL20:
 518              	.L52:
 519              		.loc 1 440 0
 520 0008 1842     		tst	r0, r3
 521              		.loc 1 450 0
 522 000a 14BF     		ite	ne
 523 000c 0120     		movne	r0, #1
 524              	.LVL21:
 525 000e 0020     		moveq	r0, #0
 526 0010 7047     		bx	lr
 527              	.LVL22:
 528              	.L51:
 529              		.loc 1 431 0
 530 0012 022B     		cmp	r3, #2
 531              		.loc 1 433 0
 532 0014 024B     		ldr	r3, .L54
 533              	.LVL23:
 534 0016 0CBF     		ite	eq
 535 0018 5B68     		ldreq	r3, [r3, #4]
 536              	.LVL24:
 537              		.loc 1 437 0
 538 001a 1B69     		ldrne	r3, [r3, #16]
 539              	.LVL25:
 540 001c F4E7     		b	.L52
 541              	.L55:
 542 001e 00BF     		.align	2
 543              	.L54:
 544 0020 00000550 		.word	1342504960
 545              		.cfi_endproc
 546              	.LFE122:
 547              		.size	DCMI_GetFlagStatus, .-DCMI_GetFlagStatus
 548              		.section	.text.DCMI_ClearFlag,"ax",%progbits
 549              		.align	1
 550              		.p2align 4,,15
 551              		.global	DCMI_ClearFlag
 552              		.syntax unified
 553              		.thumb
 554              		.thumb_func
 555              		.fpu fpv4-sp-d16
 556              		.type	DCMI_ClearFlag, %function
 557              	DCMI_ClearFlag:
 558              	.LFB123:
 559              		.loc 1 464 0
 560              		.cfi_startproc
 561              		@ args = 0, pretend = 0, frame = 0
 562              		@ frame_needed = 0, uses_anonymous_args = 0
 563              		@ link register save eliminated.
 564              	.LVL26:
 565              		.loc 1 471 0
 566 0000 014B     		ldr	r3, .L57
 567 0002 5861     		str	r0, [r3, #20]
 568              		.loc 1 472 0
 569 0004 7047     		bx	lr
 570              	.L58:
ARM GAS  /tmp/cc6JVIzT.s 			page 11


 571 0006 00BF     		.align	2
 572              	.L57:
 573 0008 00000550 		.word	1342504960
 574              		.cfi_endproc
 575              	.LFE123:
 576              		.size	DCMI_ClearFlag, .-DCMI_ClearFlag
 577              		.section	.text.DCMI_GetITStatus,"ax",%progbits
 578              		.align	1
 579              		.p2align 4,,15
 580              		.global	DCMI_GetITStatus
 581              		.syntax unified
 582              		.thumb
 583              		.thumb_func
 584              		.fpu fpv4-sp-d16
 585              		.type	DCMI_GetITStatus, %function
 586              	DCMI_GetITStatus:
 587              	.LFB124:
 588              		.loc 1 486 0
 589              		.cfi_startproc
 590              		@ args = 0, pretend = 0, frame = 0
 591              		@ frame_needed = 0, uses_anonymous_args = 0
 592              		@ link register save eliminated.
 593              	.LVL27:
 594              		.loc 1 493 0
 595 0000 034B     		ldr	r3, .L60
 596 0002 1B69     		ldr	r3, [r3, #16]
 597              	.LVL28:
 598              		.loc 1 495 0
 599 0004 1842     		tst	r0, r3
 600              		.loc 1 504 0
 601 0006 14BF     		ite	ne
 602 0008 0120     		movne	r0, #1
 603              	.LVL29:
 604 000a 0020     		moveq	r0, #0
 605 000c 7047     		bx	lr
 606              	.L61:
 607 000e 00BF     		.align	2
 608              	.L60:
 609 0010 00000550 		.word	1342504960
 610              		.cfi_endproc
 611              	.LFE124:
 612              		.size	DCMI_GetITStatus, .-DCMI_GetITStatus
 613              		.section	.text.DCMI_ClearITPendingBit,"ax",%progbits
 614              		.align	1
 615              		.p2align 4,,15
 616              		.global	DCMI_ClearITPendingBit
 617              		.syntax unified
 618              		.thumb
 619              		.thumb_func
 620              		.fpu fpv4-sp-d16
 621              		.type	DCMI_ClearITPendingBit, %function
 622              	DCMI_ClearITPendingBit:
 623              	.LFB127:
 624              		.cfi_startproc
 625              		@ args = 0, pretend = 0, frame = 0
 626              		@ frame_needed = 0, uses_anonymous_args = 0
 627              		@ link register save eliminated.
ARM GAS  /tmp/cc6JVIzT.s 			page 12


 628 0000 014B     		ldr	r3, .L63
 629 0002 5861     		str	r0, [r3, #20]
 630 0004 7047     		bx	lr
 631              	.L64:
 632 0006 00BF     		.align	2
 633              	.L63:
 634 0008 00000550 		.word	1342504960
 635              		.cfi_endproc
 636              	.LFE127:
 637              		.size	DCMI_ClearITPendingBit, .-DCMI_ClearITPendingBit
 638              		.text
 639              	.Letext0:
 640              		.file 2 "/usr/arm-none-eabi/include/machine/_default_types.h"
 641              		.file 3 "/usr/arm-none-eabi/include/sys/_stdint.h"
 642              		.file 4 "ChibiOS_2.6.6/os/hal/platforms/STM32F4xx/stm32f4xx.h"
 643              		.file 5 "ChibiOS_2.6.6/ext/stdperiph_stm32f4/inc/stm32f4xx_dcmi.h"
 644              		.file 6 "ChibiOS_2.6.6/os/ports/common/ARMCMx/CMSIS/include/core_cm4.h"