ARM GAS  /tmp/ccyqJ3iz.s 			page 1


   1              		.cpu cortex-m4
   2              		.eabi_attribute 27, 1
   3              		.eabi_attribute 28, 1
   4              		.eabi_attribute 20, 1
   5              		.eabi_attribute 21, 1
   6              		.eabi_attribute 23, 3
   7              		.eabi_attribute 24, 1
   8              		.eabi_attribute 25, 1
   9              		.eabi_attribute 26, 1
  10              		.eabi_attribute 30, 2
  11              		.eabi_attribute 34, 1
  12              		.eabi_attribute 18, 4
  13              		.file	"stm32f4xx_hash_sha1.c"
  14              		.text
  15              	.Ltext0:
  16              		.cfi_sections	.debug_frame
  17              		.section	.text.HASH_SHA1,"ax",%progbits
  18              		.align	1
  19              		.p2align 4,,15
  20              		.global	HASH_SHA1
  21              		.syntax unified
  22              		.thumb
  23              		.thumb_func
  24              		.fpu fpv4-sp-d16
  25              		.type	HASH_SHA1, %function
  26              	HASH_SHA1:
  27              	.LFB111:
  28              		.file 1 "ChibiOS_2.6.6/ext/stdperiph_stm32f4/src/stm32f4xx_hash_sha1.c"
  29              		.loc 1 94 0
  30              		.cfi_startproc
  31              		@ args = 0, pretend = 0, frame = 48
  32              		@ frame_needed = 0, uses_anonymous_args = 0
  33              	.LVL0:
  34 0000 F0B5     		push	{r4, r5, r6, r7, lr}
  35              		.cfi_def_cfa_offset 20
  36              		.cfi_offset 4, -20
  37              		.cfi_offset 5, -16
  38              		.cfi_offset 6, -12
  39              		.cfi_offset 7, -8
  40              		.cfi_offset 14, -4
  41              		.loc 1 106 0
  42 0002 01F00303 		and	r3, r1, #3
  43              		.loc 1 94 0
  44 0006 8DB0     		sub	sp, sp, #52
  45              		.cfi_def_cfa_offset 72
  46              		.loc 1 106 0
  47 0008 DB00     		lsls	r3, r3, #3
  48              		.loc 1 97 0
  49 000a 0024     		movs	r4, #0
  50              		.loc 1 94 0
  51 000c 0D46     		mov	r5, r1
  52              		.loc 1 97 0
  53 000e ADF80640 		strh	r4, [sp, #6]	@ movhi
  54              	.LVL1:
  55              		.loc 1 94 0
  56 0012 0746     		mov	r7, r0
  57 0014 1646     		mov	r6, r2
ARM GAS  /tmp/ccyqJ3iz.s 			page 2


  58              		.loc 1 99 0
  59 0016 0294     		str	r4, [sp, #8]
  60              	.LVL2:
  61              		.loc 1 106 0
  62 0018 ADF80630 		strh	r3, [sp, #6]	@ movhi
  63              		.loc 1 109 0
  64 001c FFF7FEFF 		bl	HASH_DeInit
  65              	.LVL3:
  66              		.loc 1 114 0
  67 0020 2023     		movs	r3, #32
  68              		.loc 1 115 0
  69 0022 03A8     		add	r0, sp, #12
  70              		.loc 1 113 0
  71 0024 CDE90344 		strd	r4, r4, [sp, #12]
  72              		.loc 1 114 0
  73 0028 0593     		str	r3, [sp, #20]
  74              		.loc 1 115 0
  75 002a FFF7FEFF 		bl	HASH_Init
  76              	.LVL4:
  77              		.loc 1 118 0
  78 002e BDF80600 		ldrh	r0, [sp, #6]
  79 0032 FFF7FEFF 		bl	HASH_SetLastWordValidBitsNbr
  80              	.LVL5:
  81              		.loc 1 121 0
  82 0036 3DB1     		cbz	r5, .L2
  83              		.loc 1 102 0
  84 0038 3C46     		mov	r4, r7
  85              	.LVL6:
  86              	.L3:
  87              		.loc 1 123 0 discriminator 3
  88 003a 54F8040B 		ldr	r0, [r4], #4
  89              	.LVL7:
  90 003e FFF7FEFF 		bl	HASH_DataIn
  91              	.LVL8:
  92              		.loc 1 121 0 discriminator 3
  93 0042 E31B     		subs	r3, r4, r7
  94 0044 AB42     		cmp	r3, r5
  95 0046 F8D3     		bcc	.L3
  96              	.LVL9:
  97              	.L2:
  98              		.loc 1 128 0
  99 0048 FFF7FEFF 		bl	HASH_StartDigest
 100              	.LVL10:
 101 004c 00E0     		b	.L5
 102              	.LVL11:
 103              	.L16:
 104              		.loc 1 135 0 discriminator 1
 105 004e 68B1     		cbz	r0, .L6
 106              	.LVL12:
 107              	.L5:
 108              		.loc 1 133 0 discriminator 2
 109 0050 0820     		movs	r0, #8
 110 0052 FFF7FEFF 		bl	HASH_GetFlagStatus
 111              	.LVL13:
 112              		.loc 1 134 0 discriminator 2
 113 0056 029B     		ldr	r3, [sp, #8]
 114 0058 0133     		adds	r3, r3, #1
ARM GAS  /tmp/ccyqJ3iz.s 			page 3


 115 005a 0293     		str	r3, [sp, #8]
 116              		.loc 1 135 0 discriminator 2
 117 005c 029B     		ldr	r3, [sp, #8]
 118 005e B3F5803F 		cmp	r3, #65536
 119 0062 F4D1     		bne	.L16
 120              		.loc 1 137 0
 121 0064 10B1     		cbz	r0, .L6
 122              		.loc 1 139 0
 123 0066 0020     		movs	r0, #0
 124              	.LVL14:
 125              		.loc 1 156 0
 126 0068 0DB0     		add	sp, sp, #52
 127              		.cfi_remember_state
 128              		.cfi_def_cfa_offset 20
 129              		@ sp needed
 130 006a F0BD     		pop	{r4, r5, r6, r7, pc}
 131              	.LVL15:
 132              	.L6:
 133              		.cfi_restore_state
 134              		.loc 1 144 0
 135 006c 07A8     		add	r0, sp, #28
 136              	.LVL16:
 137 006e FFF7FEFF 		bl	HASH_GetDigest
 138              	.LVL17:
 139              	.LBB22:
 140              	.LBB23:
 141              		.file 2 "ChibiOS_2.6.6/os/ports/common/ARMCMx/CMSIS/include/core_cmInstr.h"
 142              		.loc 2 369 0
 143 0072 079B     		ldr	r3, [sp, #28]
 144              		.syntax unified
 145              	@ 369 "ChibiOS_2.6.6/os/ports/common/ARMCMx/CMSIS/include/core_cmInstr.h" 1
 146 0074 1BBA     		rev r3, r3
 147              	@ 0 "" 2
 148              	.LVL18:
 149              		.thumb
 150              		.syntax unified
 151              	.LBE23:
 152              	.LBE22:
 153              		.loc 1 145 0
 154 0076 3360     		str	r3, [r6]
 155              	.LVL19:
 156              	.LBB24:
 157              	.LBB25:
 158              		.loc 2 369 0
 159 0078 089B     		ldr	r3, [sp, #32]
 160              		.syntax unified
 161              	@ 369 "ChibiOS_2.6.6/os/ports/common/ARMCMx/CMSIS/include/core_cmInstr.h" 1
 162 007a 1BBA     		rev r3, r3
 163              	@ 0 "" 2
 164              	.LVL20:
 165              		.thumb
 166              		.syntax unified
 167              	.LBE25:
 168              	.LBE24:
 169              		.loc 1 147 0
 170 007c 7360     		str	r3, [r6, #4]
 171              	.LVL21:
ARM GAS  /tmp/ccyqJ3iz.s 			page 4


 172              	.LBB26:
 173              	.LBB27:
 174              		.loc 2 369 0
 175 007e 099B     		ldr	r3, [sp, #36]
 176              		.syntax unified
 177              	@ 369 "ChibiOS_2.6.6/os/ports/common/ARMCMx/CMSIS/include/core_cmInstr.h" 1
 178 0080 1BBA     		rev r3, r3
 179              	@ 0 "" 2
 180              	.LVL22:
 181              		.thumb
 182              		.syntax unified
 183              	.LBE27:
 184              	.LBE26:
 185              		.loc 1 149 0
 186 0082 B360     		str	r3, [r6, #8]
 187              	.LVL23:
 188              	.LBB28:
 189              	.LBB29:
 190              		.loc 2 369 0
 191 0084 0A9B     		ldr	r3, [sp, #40]
 192              		.syntax unified
 193              	@ 369 "ChibiOS_2.6.6/os/ports/common/ARMCMx/CMSIS/include/core_cmInstr.h" 1
 194 0086 1BBA     		rev r3, r3
 195              	@ 0 "" 2
 196              	.LVL24:
 197              		.thumb
 198              		.syntax unified
 199              	.LBE29:
 200              	.LBE28:
 201              		.loc 1 151 0
 202 0088 F360     		str	r3, [r6, #12]
 203              	.LVL25:
 204              	.LBB30:
 205              	.LBB31:
 206              		.loc 2 369 0
 207 008a 0B9B     		ldr	r3, [sp, #44]
 208              		.syntax unified
 209              	@ 369 "ChibiOS_2.6.6/os/ports/common/ARMCMx/CMSIS/include/core_cmInstr.h" 1
 210 008c 1BBA     		rev r3, r3
 211              	@ 0 "" 2
 212              	.LVL26:
 213              		.thumb
 214              		.syntax unified
 215              	.LBE31:
 216              	.LBE30:
 217              		.loc 1 101 0
 218 008e 0120     		movs	r0, #1
 219              		.loc 1 153 0
 220 0090 3361     		str	r3, [r6, #16]
 221              	.LVL27:
 222              		.loc 1 156 0
 223 0092 0DB0     		add	sp, sp, #52
 224              		.cfi_def_cfa_offset 20
 225              		@ sp needed
 226 0094 F0BD     		pop	{r4, r5, r6, r7, pc}
 227              		.cfi_endproc
 228              	.LFE111:
ARM GAS  /tmp/ccyqJ3iz.s 			page 5


 229              		.size	HASH_SHA1, .-HASH_SHA1
 230 0096 00BF     		.section	.text.HMAC_SHA1,"ax",%progbits
 231              		.align	1
 232              		.p2align 4,,15
 233              		.global	HMAC_SHA1
 234              		.syntax unified
 235              		.thumb
 236              		.thumb_func
 237              		.fpu fpv4-sp-d16
 238              		.type	HMAC_SHA1, %function
 239              	HMAC_SHA1:
 240              	.LFB112:
 241              		.loc 1 171 0
 242              		.cfi_startproc
 243              		@ args = 4, pretend = 0, frame = 48
 244              		@ frame_needed = 0, uses_anonymous_args = 0
 245              	.LVL28:
 246 0000 2DE9F041 		push	{r4, r5, r6, r7, r8, lr}
 247              		.cfi_def_cfa_offset 24
 248              		.cfi_offset 4, -24
 249              		.cfi_offset 5, -20
 250              		.cfi_offset 6, -16
 251              		.cfi_offset 7, -12
 252              		.cfi_offset 8, -8
 253              		.cfi_offset 14, -4
 254 0004 0D46     		mov	r5, r1
 255 0006 8CB0     		sub	sp, sp, #48
 256              		.cfi_def_cfa_offset 72
 257              		.loc 1 185 0
 258 0008 03F00301 		and	r1, r3, #3
 259              	.LVL29:
 260              		.loc 1 171 0
 261 000c 1F46     		mov	r7, r3
 262              		.loc 1 188 0
 263 000e 05F00303 		and	r3, r5, #3
 264              	.LVL30:
 265              		.loc 1 174 0
 266 0012 0024     		movs	r4, #0
 267              		.loc 1 188 0
 268 0014 DB00     		lsls	r3, r3, #3
 269              		.loc 1 185 0
 270 0016 C900     		lsls	r1, r1, #3
 271              		.loc 1 174 0
 272 0018 ADF80440 		strh	r4, [sp, #4]	@ movhi
 273              		.loc 1 171 0
 274 001c 9046     		mov	r8, r2
 275              		.loc 1 175 0
 276 001e ADF80640 		strh	r4, [sp, #6]	@ movhi
 277              	.LVL31:
 278              		.loc 1 171 0
 279 0022 0646     		mov	r6, r0
 280              		.loc 1 177 0
 281 0024 0294     		str	r4, [sp, #8]
 282              	.LVL32:
 283              		.loc 1 185 0
 284 0026 ADF80410 		strh	r1, [sp, #4]	@ movhi
 285              		.loc 1 188 0
ARM GAS  /tmp/ccyqJ3iz.s 			page 6


 286 002a ADF80630 		strh	r3, [sp, #6]	@ movhi
 287              		.loc 1 191 0
 288 002e FFF7FEFF 		bl	HASH_DeInit
 289              	.LVL33:
 290              		.loc 1 195 0
 291 0032 4022     		movs	r2, #64
 292              		.loc 1 196 0
 293 0034 2023     		movs	r3, #32
 294              		.loc 1 197 0
 295 0036 9542     		cmp	r5, r2
 296              		.loc 1 195 0
 297 0038 CDE90342 		strd	r4, r2, [sp, #12]
 298              		.loc 1 196 0
 299 003c 0593     		str	r3, [sp, #20]
 300              		.loc 1 197 0
 301 003e 24D9     		bls	.L18
 302              		.loc 1 200 0
 303 0040 4FF48033 		mov	r3, #65536
 304              		.loc 1 207 0
 305 0044 03A8     		add	r0, sp, #12
 306              		.loc 1 200 0
 307 0046 0693     		str	r3, [sp, #24]
 308              		.loc 1 207 0
 309 0048 FFF7FEFF 		bl	HASH_Init
 310              	.LVL34:
 311              		.loc 1 210 0
 312 004c BDF80600 		ldrh	r0, [sp, #6]
 313 0050 FFF7FEFF 		bl	HASH_SetLastWordValidBitsNbr
 314              	.LVL35:
 315              	.L19:
 316              		.loc 1 171 0 discriminator 3
 317 0054 3446     		mov	r4, r6
 318              	.LVL36:
 319              	.L21:
 320              		.loc 1 215 0 discriminator 3
 321 0056 54F8040B 		ldr	r0, [r4], #4
 322              	.LVL37:
 323 005a FFF7FEFF 		bl	HASH_DataIn
 324              	.LVL38:
 325              		.loc 1 213 0 discriminator 3
 326 005e A31B     		subs	r3, r4, r6
 327 0060 AB42     		cmp	r3, r5
 328 0062 F8D3     		bcc	.L21
 329              	.LVL39:
 330              	.L20:
 331              		.loc 1 220 0
 332 0064 FFF7FEFF 		bl	HASH_StartDigest
 333              	.LVL40:
 334 0068 00E0     		b	.L23
 335              	.LVL41:
 336              	.L56:
 337              		.loc 1 227 0 discriminator 1
 338 006a C8B1     		cbz	r0, .L24
 339              	.LVL42:
 340              	.L23:
 341              		.loc 1 225 0 discriminator 2
 342 006c 0820     		movs	r0, #8
ARM GAS  /tmp/ccyqJ3iz.s 			page 7


 343 006e FFF7FEFF 		bl	HASH_GetFlagStatus
 344              	.LVL43:
 345              		.loc 1 226 0 discriminator 2
 346 0072 029B     		ldr	r3, [sp, #8]
 347 0074 0133     		adds	r3, r3, #1
 348 0076 0293     		str	r3, [sp, #8]
 349              		.loc 1 227 0 discriminator 2
 350 0078 029B     		ldr	r3, [sp, #8]
 351 007a B3F5803F 		cmp	r3, #65536
 352 007e F4D1     		bne	.L56
 353              		.loc 1 229 0
 354 0080 70B1     		cbz	r0, .L24
 355              	.LVL44:
 356              	.L31:
 357              		.loc 1 231 0
 358 0082 0020     		movs	r0, #0
 359              	.LVL45:
 360              	.L25:
 361              		.loc 1 306 0
 362 0084 0CB0     		add	sp, sp, #48
 363              		.cfi_remember_state
 364              		.cfi_def_cfa_offset 24
 365              		@ sp needed
 366 0086 BDE8F081 		pop	{r4, r5, r6, r7, r8, pc}
 367              	.LVL46:
 368              	.L18:
 369              		.cfi_restore_state
 370              		.loc 1 207 0
 371 008a 03A8     		add	r0, sp, #12
 372              		.loc 1 205 0
 373 008c 0694     		str	r4, [sp, #24]
 374              		.loc 1 207 0
 375 008e FFF7FEFF 		bl	HASH_Init
 376              	.LVL47:
 377              		.loc 1 210 0
 378 0092 BDF80600 		ldrh	r0, [sp, #6]
 379 0096 FFF7FEFF 		bl	HASH_SetLastWordValidBitsNbr
 380              	.LVL48:
 381              		.loc 1 213 0
 382 009a 002D     		cmp	r5, #0
 383 009c DAD1     		bne	.L19
 384 009e E1E7     		b	.L20
 385              	.LVL49:
 386              	.L24:
 387              		.loc 1 236 0
 388 00a0 BDF80400 		ldrh	r0, [sp, #4]
 389              	.LVL50:
 390 00a4 FFF7FEFF 		bl	HASH_SetLastWordValidBitsNbr
 391              	.LVL51:
 392              		.loc 1 239 0
 393 00a8 47B1     		cbz	r7, .L26
 394              		.loc 1 181 0
 395 00aa 4446     		mov	r4, r8
 396              	.LVL52:
 397              	.L27:
 398              		.loc 1 241 0 discriminator 3
 399 00ac 54F8040B 		ldr	r0, [r4], #4
ARM GAS  /tmp/ccyqJ3iz.s 			page 8


 400              	.LVL53:
 401 00b0 FFF7FEFF 		bl	HASH_DataIn
 402              	.LVL54:
 403              		.loc 1 239 0 discriminator 3
 404 00b4 A4EB0803 		sub	r3, r4, r8
 405 00b8 BB42     		cmp	r3, r7
 406 00ba F7D3     		bcc	.L27
 407              	.LVL55:
 408              	.L26:
 409              		.loc 1 246 0
 410 00bc FFF7FEFF 		bl	HASH_StartDigest
 411              	.LVL56:
 412              		.loc 1 250 0
 413 00c0 0023     		movs	r3, #0
 414 00c2 0293     		str	r3, [sp, #8]
 415 00c4 00E0     		b	.L29
 416              	.LVL57:
 417              	.L57:
 418              		.loc 1 255 0 discriminator 1
 419 00c6 58B1     		cbz	r0, .L30
 420              	.LVL58:
 421              	.L29:
 422              		.loc 1 253 0 discriminator 2
 423 00c8 0820     		movs	r0, #8
 424 00ca FFF7FEFF 		bl	HASH_GetFlagStatus
 425              	.LVL59:
 426              		.loc 1 254 0 discriminator 2
 427 00ce 029B     		ldr	r3, [sp, #8]
 428 00d0 0133     		adds	r3, r3, #1
 429 00d2 0293     		str	r3, [sp, #8]
 430              		.loc 1 255 0 discriminator 2
 431 00d4 029B     		ldr	r3, [sp, #8]
 432 00d6 B3F5803F 		cmp	r3, #65536
 433 00da F4D1     		bne	.L57
 434              		.loc 1 257 0
 435 00dc 0028     		cmp	r0, #0
 436 00de D0D1     		bne	.L31
 437              	.L30:
 438              		.loc 1 264 0
 439 00e0 BDF80600 		ldrh	r0, [sp, #6]
 440              	.LVL60:
 441 00e4 FFF7FEFF 		bl	HASH_SetLastWordValidBitsNbr
 442              	.LVL61:
 443              		.loc 1 268 0
 444 00e8 3DB1     		cbz	r5, .L32
 445              		.loc 1 267 0
 446 00ea 3446     		mov	r4, r6
 447              	.LVL62:
 448              	.L33:
 449              		.loc 1 270 0 discriminator 3
 450 00ec 54F8040B 		ldr	r0, [r4], #4
 451              	.LVL63:
 452 00f0 FFF7FEFF 		bl	HASH_DataIn
 453              	.LVL64:
 454              		.loc 1 268 0 discriminator 3
 455 00f4 A31B     		subs	r3, r4, r6
 456 00f6 AB42     		cmp	r3, r5
ARM GAS  /tmp/ccyqJ3iz.s 			page 9


 457 00f8 F8D3     		bcc	.L33
 458              	.LVL65:
 459              	.L32:
 460              		.loc 1 275 0
 461 00fa FFF7FEFF 		bl	HASH_StartDigest
 462              	.LVL66:
 463              		.loc 1 278 0
 464 00fe 0023     		movs	r3, #0
 465 0100 0293     		str	r3, [sp, #8]
 466 0102 00E0     		b	.L35
 467              	.LVL67:
 468              	.L58:
 469              		.loc 1 283 0 discriminator 1
 470 0104 58B1     		cbz	r0, .L36
 471              	.LVL68:
 472              	.L35:
 473              		.loc 1 281 0 discriminator 2
 474 0106 0820     		movs	r0, #8
 475 0108 FFF7FEFF 		bl	HASH_GetFlagStatus
 476              	.LVL69:
 477              		.loc 1 282 0 discriminator 2
 478 010c 029B     		ldr	r3, [sp, #8]
 479 010e 0133     		adds	r3, r3, #1
 480 0110 0293     		str	r3, [sp, #8]
 481              		.loc 1 283 0 discriminator 2
 482 0112 029B     		ldr	r3, [sp, #8]
 483 0114 B3F5803F 		cmp	r3, #65536
 484 0118 F4D1     		bne	.L58
 485              		.loc 1 285 0
 486 011a 0028     		cmp	r0, #0
 487 011c B1D1     		bne	.L31
 488              	.L36:
 489              		.loc 1 292 0
 490 011e 07A8     		add	r0, sp, #28
 491              	.LVL70:
 492 0120 FFF7FEFF 		bl	HASH_GetDigest
 493              	.LVL71:
 494              	.LBB32:
 495              	.LBB33:
 496              		.loc 2 369 0
 497 0124 079B     		ldr	r3, [sp, #28]
 498              		.syntax unified
 499              	@ 369 "ChibiOS_2.6.6/os/ports/common/ARMCMx/CMSIS/include/core_cmInstr.h" 1
 500 0126 1BBA     		rev r3, r3
 501              	@ 0 "" 2
 502              	.LVL72:
 503              		.thumb
 504              		.syntax unified
 505              	.LBE33:
 506              	.LBE32:
 507              		.loc 1 293 0
 508 0128 129A     		ldr	r2, [sp, #72]
 509 012a 1360     		str	r3, [r2]
 510              	.LVL73:
 511              	.LBB34:
 512              	.LBB35:
 513              		.loc 2 369 0
ARM GAS  /tmp/ccyqJ3iz.s 			page 10


 514 012c 089B     		ldr	r3, [sp, #32]
 515              		.syntax unified
 516              	@ 369 "ChibiOS_2.6.6/os/ports/common/ARMCMx/CMSIS/include/core_cmInstr.h" 1
 517 012e 1BBA     		rev r3, r3
 518              	@ 0 "" 2
 519              	.LVL74:
 520              		.thumb
 521              		.syntax unified
 522              	.LBE35:
 523              	.LBE34:
 524              		.loc 1 295 0
 525 0130 5360     		str	r3, [r2, #4]
 526              	.LVL75:
 527              	.LBB36:
 528              	.LBB37:
 529              		.loc 2 369 0
 530 0132 099B     		ldr	r3, [sp, #36]
 531              		.syntax unified
 532              	@ 369 "ChibiOS_2.6.6/os/ports/common/ARMCMx/CMSIS/include/core_cmInstr.h" 1
 533 0134 1BBA     		rev r3, r3
 534              	@ 0 "" 2
 535              	.LVL76:
 536              		.thumb
 537              		.syntax unified
 538              	.LBE37:
 539              	.LBE36:
 540              		.loc 1 297 0
 541 0136 9360     		str	r3, [r2, #8]
 542              	.LVL77:
 543              	.LBB38:
 544              	.LBB39:
 545              		.loc 2 369 0
 546 0138 0A9B     		ldr	r3, [sp, #40]
 547              		.syntax unified
 548              	@ 369 "ChibiOS_2.6.6/os/ports/common/ARMCMx/CMSIS/include/core_cmInstr.h" 1
 549 013a 1BBA     		rev r3, r3
 550              	@ 0 "" 2
 551              	.LVL78:
 552              		.thumb
 553              		.syntax unified
 554              	.LBE39:
 555              	.LBE38:
 556              		.loc 1 299 0
 557 013c D360     		str	r3, [r2, #12]
 558              	.LVL79:
 559              	.LBB40:
 560              	.LBB41:
 561              		.loc 2 369 0
 562 013e 0B9B     		ldr	r3, [sp, #44]
 563              		.syntax unified
 564              	@ 369 "ChibiOS_2.6.6/os/ports/common/ARMCMx/CMSIS/include/core_cmInstr.h" 1
 565 0140 1BBA     		rev r3, r3
 566              	@ 0 "" 2
 567              	.LVL80:
 568              		.thumb
 569              		.syntax unified
 570              	.LBE41:
ARM GAS  /tmp/ccyqJ3iz.s 			page 11


 571              	.LBE40:
 572              		.loc 1 179 0
 573 0142 0120     		movs	r0, #1
 574              		.loc 1 301 0
 575 0144 1361     		str	r3, [r2, #16]
 576 0146 9DE7     		b	.L25
 577              		.cfi_endproc
 578              	.LFE112:
 579              		.size	HMAC_SHA1, .-HMAC_SHA1
 580              		.text
 581              	.Letext0:
 582              		.file 3 "/usr/arm-none-eabi/include/machine/_default_types.h"
 583              		.file 4 "/usr/arm-none-eabi/include/sys/_stdint.h"
 584              		.file 5 "ChibiOS_2.6.6/os/hal/platforms/STM32F4xx/stm32f4xx.h"
 585              		.file 6 "ChibiOS_2.6.6/ext/stdperiph_stm32f4/inc/stm32f4xx_hash.h"
 586              		.file 7 "ChibiOS_2.6.6/os/ports/common/ARMCMx/CMSIS/include/core_cm4.h"