ARM GAS  /tmp/cc65ENol.s 			page 1


   1              		.cpu cortex-m4
   2              		.eabi_attribute 27, 1
   3              		.eabi_attribute 28, 1
   4              		.eabi_attribute 20, 1
   5              		.eabi_attribute 21, 1
   6              		.eabi_attribute 23, 3
   7              		.eabi_attribute 24, 1
   8              		.eabi_attribute 25, 1
   9              		.eabi_attribute 26, 1
  10              		.eabi_attribute 30, 2
  11              		.eabi_attribute 34, 1
  12              		.eabi_attribute 18, 4
  13              		.file	"stm32f4xx_rtc.c"
  14              		.text
  15              	.Ltext0:
  16              		.cfi_sections	.debug_frame
  17              		.section	.text.RTC_StructInit,"ax",%progbits
  18              		.align	1
  19              		.p2align 4,,15
  20              		.global	RTC_StructInit
  21              		.syntax unified
  22              		.thumb
  23              		.thumb_func
  24              		.fpu fpv4-sp-d16
  25              		.type	RTC_StructInit, %function
  26              	RTC_StructInit:
  27              	.LFB113:
  28              		.file 1 "ChibiOS_2.6.6/ext/stdperiph_stm32f4/src/stm32f4xx_rtc.c"
  29              		.loc 1 502 0
  30              		.cfi_startproc
  31              		@ args = 0, pretend = 0, frame = 0
  32              		@ frame_needed = 0, uses_anonymous_args = 0
  33              		@ link register save eliminated.
  34              	.LVL0:
  35              		.loc 1 510 0
  36 0000 0021     		movs	r1, #0
  37 0002 7F22     		movs	r2, #127
  38 0004 FF23     		movs	r3, #255
  39 0006 80E80E00 		stm	r0, {r1, r2, r3}
  40              		.loc 1 511 0
  41 000a 7047     		bx	lr
  42              		.cfi_endproc
  43              	.LFE113:
  44              		.size	RTC_StructInit, .-RTC_StructInit
  45              		.section	.text.RTC_WriteProtectionCmd,"ax",%progbits
  46              		.align	1
  47              		.p2align 4,,15
  48              		.global	RTC_WriteProtectionCmd
  49              		.syntax unified
  50              		.thumb
  51              		.thumb_func
  52              		.fpu fpv4-sp-d16
  53              		.type	RTC_WriteProtectionCmd, %function
  54              	RTC_WriteProtectionCmd:
  55              	.LFB114:
  56              		.loc 1 524 0
  57              		.cfi_startproc
ARM GAS  /tmp/cc65ENol.s 			page 2


  58              		@ args = 0, pretend = 0, frame = 0
  59              		@ frame_needed = 0, uses_anonymous_args = 0
  60              		@ link register save eliminated.
  61              	.LVL1:
  62              		.loc 1 531 0
  63 0000 044B     		ldr	r3, .L7
  64              		.loc 1 528 0
  65 0002 20B9     		cbnz	r0, .L6
  66              		.loc 1 536 0
  67 0004 CA21     		movs	r1, #202
  68              		.loc 1 537 0
  69 0006 5322     		movs	r2, #83
  70              		.loc 1 536 0
  71 0008 5962     		str	r1, [r3, #36]
  72              		.loc 1 537 0
  73 000a 5A62     		str	r2, [r3, #36]
  74              		.loc 1 539 0
  75 000c 7047     		bx	lr
  76              	.L6:
  77              		.loc 1 531 0
  78 000e FF22     		movs	r2, #255
  79 0010 5A62     		str	r2, [r3, #36]
  80 0012 7047     		bx	lr
  81              	.L8:
  82              		.align	2
  83              	.L7:
  84 0014 00280040 		.word	1073752064
  85              		.cfi_endproc
  86              	.LFE114:
  87              		.size	RTC_WriteProtectionCmd, .-RTC_WriteProtectionCmd
  88              		.section	.text.RTC_EnterInitMode,"ax",%progbits
  89              		.align	1
  90              		.p2align 4,,15
  91              		.global	RTC_EnterInitMode
  92              		.syntax unified
  93              		.thumb
  94              		.thumb_func
  95              		.fpu fpv4-sp-d16
  96              		.type	RTC_EnterInitMode, %function
  97              	RTC_EnterInitMode:
  98              	.LFB115:
  99              		.loc 1 551 0
 100              		.cfi_startproc
 101              		@ args = 0, pretend = 0, frame = 8
 102              		@ frame_needed = 0, uses_anonymous_args = 0
 103              		@ link register save eliminated.
 104 0000 82B0     		sub	sp, sp, #8
 105              		.cfi_def_cfa_offset 8
 106              		.loc 1 552 0
 107 0002 0023     		movs	r3, #0
 108              		.loc 1 557 0
 109 0004 0E49     		ldr	r1, .L21
 110              		.loc 1 552 0
 111 0006 0193     		str	r3, [sp, #4]
 112              	.LVL2:
 113              		.loc 1 557 0
 114 0008 CB68     		ldr	r3, [r1, #12]
ARM GAS  /tmp/cc65ENol.s 			page 3


 115 000a 5B06     		lsls	r3, r3, #25
 116 000c 14D4     		bmi	.L13
 117              		.loc 1 560 0
 118 000e 4FF0FF33 		mov	r3, #-1
 119 0012 CB60     		str	r3, [r1, #12]
 120 0014 00E0     		b	.L12
 121              	.LVL3:
 122              	.L20:
 123              		.loc 1 567 0 discriminator 1
 124 0016 4AB9     		cbnz	r2, .L11
 125              	.LVL4:
 126              	.L12:
 127              		.loc 1 565 0 discriminator 2
 128 0018 CA68     		ldr	r2, [r1, #12]
 129              		.loc 1 566 0 discriminator 2
 130 001a 019B     		ldr	r3, [sp, #4]
 131 001c 0133     		adds	r3, r3, #1
 132 001e 0193     		str	r3, [sp, #4]
 133              		.loc 1 567 0 discriminator 2
 134 0020 019B     		ldr	r3, [sp, #4]
 135 0022 B3F5803F 		cmp	r3, #65536
 136              		.loc 1 565 0 discriminator 2
 137 0026 02F04002 		and	r2, r2, #64
 138              	.LVL5:
 139              		.loc 1 567 0 discriminator 2
 140 002a F4D1     		bne	.L20
 141              	.L11:
 142              	.LBB80:
 143              	.LBB81:
 144              		.loc 1 569 0
 145 002c 044B     		ldr	r3, .L21
 146 002e D868     		ldr	r0, [r3, #12]
 147              		.loc 1 575 0
 148 0030 C0F38010 		ubfx	r0, r0, #6, #1
 149              	.LVL6:
 150              	.LBE81:
 151              	.LBE80:
 152              		.loc 1 584 0
 153 0034 02B0     		add	sp, sp, #8
 154              		.cfi_remember_state
 155              		.cfi_def_cfa_offset 0
 156              		@ sp needed
 157 0036 7047     		bx	lr
 158              	.LVL7:
 159              	.L13:
 160              		.cfi_restore_state
 161              		.loc 1 580 0
 162 0038 0120     		movs	r0, #1
 163              	.LVL8:
 164              		.loc 1 584 0
 165 003a 02B0     		add	sp, sp, #8
 166              		.cfi_def_cfa_offset 0
 167              		@ sp needed
 168 003c 7047     		bx	lr
 169              	.L22:
 170 003e 00BF     		.align	2
 171              	.L21:
ARM GAS  /tmp/cc65ENol.s 			page 4


 172 0040 00280040 		.word	1073752064
 173              		.cfi_endproc
 174              	.LFE115:
 175              		.size	RTC_EnterInitMode, .-RTC_EnterInitMode
 176              		.section	.text.RTC_Init,"ax",%progbits
 177              		.align	1
 178              		.p2align 4,,15
 179              		.global	RTC_Init
 180              		.syntax unified
 181              		.thumb
 182              		.thumb_func
 183              		.fpu fpv4-sp-d16
 184              		.type	RTC_Init, %function
 185              	RTC_Init:
 186              	.LFB112:
 187              		.loc 1 456 0
 188              		.cfi_startproc
 189              		@ args = 0, pretend = 0, frame = 0
 190              		@ frame_needed = 0, uses_anonymous_args = 0
 191              	.LVL9:
 192 0000 38B5     		push	{r3, r4, r5, lr}
 193              		.cfi_def_cfa_offset 16
 194              		.cfi_offset 3, -16
 195              		.cfi_offset 4, -12
 196              		.cfi_offset 5, -8
 197              		.cfi_offset 14, -4
 198              		.loc 1 465 0
 199 0002 104C     		ldr	r4, .L29
 200 0004 CA22     		movs	r2, #202
 201              		.loc 1 466 0
 202 0006 5323     		movs	r3, #83
 203              		.loc 1 465 0
 204 0008 6262     		str	r2, [r4, #36]
 205              		.loc 1 466 0
 206 000a 6362     		str	r3, [r4, #36]
 207              		.loc 1 456 0
 208 000c 0546     		mov	r5, r0
 209              		.loc 1 469 0
 210 000e FFF7FEFF 		bl	RTC_EnterInitMode
 211              	.LVL10:
 212 0012 98B1     		cbz	r0, .L24
 213              		.loc 1 476 0
 214 0014 A368     		ldr	r3, [r4, #8]
 215 0016 23F04003 		bic	r3, r3, #64
 216 001a A360     		str	r3, [r4, #8]
 217              		.loc 1 478 0
 218 001c A368     		ldr	r3, [r4, #8]
 219 001e 2A68     		ldr	r2, [r5]
 220 0020 1343     		orrs	r3, r3, r2
 221 0022 A360     		str	r3, [r4, #8]
 222              		.loc 1 481 0
 223 0024 AB68     		ldr	r3, [r5, #8]
 224 0026 2361     		str	r3, [r4, #16]
 225              		.loc 1 482 0
 226 0028 2369     		ldr	r3, [r4, #16]
 227 002a 6A68     		ldr	r2, [r5, #4]
 228 002c 43EA0243 		orr	r3, r3, r2, lsl #16
ARM GAS  /tmp/cc65ENol.s 			page 5


 229 0030 2361     		str	r3, [r4, #16]
 230              	.LBB82:
 231              	.LBB83:
 232              		.loc 1 598 0
 233 0032 E368     		ldr	r3, [r4, #12]
 234 0034 23F08003 		bic	r3, r3, #128
 235 0038 E360     		str	r3, [r4, #12]
 236              	.LVL11:
 237              	.LBE83:
 238              	.LBE82:
 239              		.loc 1 487 0
 240 003a 0120     		movs	r0, #1
 241              	.LVL12:
 242              	.L24:
 243              		.loc 1 490 0
 244 003c 014B     		ldr	r3, .L29
 245 003e FF22     		movs	r2, #255
 246 0040 5A62     		str	r2, [r3, #36]
 247              		.loc 1 493 0
 248 0042 38BD     		pop	{r3, r4, r5, pc}
 249              	.LVL13:
 250              	.L30:
 251              		.align	2
 252              	.L29:
 253 0044 00280040 		.word	1073752064
 254              		.cfi_endproc
 255              	.LFE112:
 256              		.size	RTC_Init, .-RTC_Init
 257              		.section	.text.RTC_ExitInitMode,"ax",%progbits
 258              		.align	1
 259              		.p2align 4,,15
 260              		.global	RTC_ExitInitMode
 261              		.syntax unified
 262              		.thumb
 263              		.thumb_func
 264              		.fpu fpv4-sp-d16
 265              		.type	RTC_ExitInitMode, %function
 266              	RTC_ExitInitMode:
 267              	.LFB116:
 268              		.loc 1 596 0
 269              		.cfi_startproc
 270              		@ args = 0, pretend = 0, frame = 0
 271              		@ frame_needed = 0, uses_anonymous_args = 0
 272              		@ link register save eliminated.
 273              		.loc 1 598 0
 274 0000 024A     		ldr	r2, .L32
 275 0002 D368     		ldr	r3, [r2, #12]
 276 0004 23F08003 		bic	r3, r3, #128
 277 0008 D360     		str	r3, [r2, #12]
 278              		.loc 1 599 0
 279 000a 7047     		bx	lr
 280              	.L33:
 281              		.align	2
 282              	.L32:
 283 000c 00280040 		.word	1073752064
 284              		.cfi_endproc
 285              	.LFE116:
ARM GAS  /tmp/cc65ENol.s 			page 6


 286              		.size	RTC_ExitInitMode, .-RTC_ExitInitMode
 287              		.section	.text.RTC_WaitForSynchro,"ax",%progbits
 288              		.align	1
 289              		.p2align 4,,15
 290              		.global	RTC_WaitForSynchro
 291              		.syntax unified
 292              		.thumb
 293              		.thumb_func
 294              		.fpu fpv4-sp-d16
 295              		.type	RTC_WaitForSynchro, %function
 296              	RTC_WaitForSynchro:
 297              	.LFB117:
 298              		.loc 1 618 0
 299              		.cfi_startproc
 300              		@ args = 0, pretend = 0, frame = 8
 301              		@ frame_needed = 0, uses_anonymous_args = 0
 302              		@ link register save eliminated.
 303              		.loc 1 624 0
 304 0000 0F49     		ldr	r1, .L44
 305              		.loc 1 618 0
 306 0002 82B0     		sub	sp, sp, #8
 307              		.cfi_def_cfa_offset 8
 308              		.loc 1 625 0
 309 0004 5323     		movs	r3, #83
 310              		.loc 1 619 0
 311 0006 0020     		movs	r0, #0
 312              		.loc 1 624 0
 313 0008 CA22     		movs	r2, #202
 314              		.loc 1 619 0
 315 000a 0190     		str	r0, [sp, #4]
 316              	.LVL14:
 317              		.loc 1 624 0
 318 000c 4A62     		str	r2, [r1, #36]
 319              		.loc 1 625 0
 320 000e 4B62     		str	r3, [r1, #36]
 321              		.loc 1 628 0
 322 0010 CB68     		ldr	r3, [r1, #12]
 323 0012 23F0A003 		bic	r3, r3, #160
 324 0016 CB60     		str	r3, [r1, #12]
 325 0018 00E0     		b	.L36
 326              	.LVL15:
 327              	.L43:
 328              		.loc 1 635 0 discriminator 1
 329 001a 4AB9     		cbnz	r2, .L35
 330              	.LVL16:
 331              	.L36:
 332              		.loc 1 633 0 discriminator 2
 333 001c CA68     		ldr	r2, [r1, #12]
 334              		.loc 1 634 0 discriminator 2
 335 001e 019B     		ldr	r3, [sp, #4]
 336 0020 0133     		adds	r3, r3, #1
 337 0022 0193     		str	r3, [sp, #4]
 338              		.loc 1 635 0 discriminator 2
 339 0024 019B     		ldr	r3, [sp, #4]
 340 0026 B3F5003F 		cmp	r3, #131072
 341              		.loc 1 633 0 discriminator 2
 342 002a 02F02002 		and	r2, r2, #32
ARM GAS  /tmp/cc65ENol.s 			page 7


 343              	.LVL17:
 344              		.loc 1 635 0 discriminator 2
 345 002e F4D1     		bne	.L43
 346              	.L35:
 347              		.loc 1 637 0
 348 0030 034B     		ldr	r3, .L44
 349 0032 D868     		ldr	r0, [r3, #12]
 350              	.LVL18:
 351              		.loc 1 647 0
 352 0034 FF22     		movs	r2, #255
 353              	.LVL19:
 354              		.loc 1 650 0
 355 0036 C0F34010 		ubfx	r0, r0, #5, #1
 356              	.LVL20:
 357              		.loc 1 647 0
 358 003a 5A62     		str	r2, [r3, #36]
 359              		.loc 1 650 0
 360 003c 02B0     		add	sp, sp, #8
 361              		.cfi_def_cfa_offset 0
 362              		@ sp needed
 363 003e 7047     		bx	lr
 364              	.L45:
 365              		.align	2
 366              	.L44:
 367 0040 00280040 		.word	1073752064
 368              		.cfi_endproc
 369              	.LFE117:
 370              		.size	RTC_WaitForSynchro, .-RTC_WaitForSynchro
 371              		.section	.text.RTC_DeInit,"ax",%progbits
 372              		.align	1
 373              		.p2align 4,,15
 374              		.global	RTC_DeInit
 375              		.syntax unified
 376              		.thumb
 377              		.thumb_func
 378              		.fpu fpv4-sp-d16
 379              		.type	RTC_DeInit, %function
 380              	RTC_DeInit:
 381              	.LFB111:
 382              		.loc 1 374 0
 383              		.cfi_startproc
 384              		@ args = 0, pretend = 0, frame = 8
 385              		@ frame_needed = 0, uses_anonymous_args = 0
 386 0000 30B5     		push	{r4, r5, lr}
 387              		.cfi_def_cfa_offset 12
 388              		.cfi_offset 4, -12
 389              		.cfi_offset 5, -8
 390              		.cfi_offset 14, -4
 391              		.loc 1 380 0
 392 0002 204C     		ldr	r4, .L63
 393              		.loc 1 374 0
 394 0004 83B0     		sub	sp, sp, #12
 395              		.cfi_def_cfa_offset 24
 396              		.loc 1 375 0
 397 0006 0025     		movs	r5, #0
 398              		.loc 1 380 0
 399 0008 CA22     		movs	r2, #202
ARM GAS  /tmp/cc65ENol.s 			page 8


 400              		.loc 1 381 0
 401 000a 5323     		movs	r3, #83
 402              		.loc 1 375 0
 403 000c 0195     		str	r5, [sp, #4]
 404              	.LVL21:
 405              		.loc 1 380 0
 406 000e 6262     		str	r2, [r4, #36]
 407              		.loc 1 381 0
 408 0010 6362     		str	r3, [r4, #36]
 409              		.loc 1 384 0
 410 0012 FFF7FEFF 		bl	RTC_EnterInitMode
 411              	.LVL22:
 412 0016 B8B1     		cbz	r0, .L51
 413              		.loc 1 392 0
 414 0018 42F20113 		movw	r3, #8449
 415              		.loc 1 391 0
 416 001c 2560     		str	r5, [r4]
 417              		.loc 1 392 0
 418 001e 6360     		str	r3, [r4, #4]
 419              		.loc 1 394 0
 420 0020 A368     		ldr	r3, [r4, #8]
 421 0022 03F00703 		and	r3, r3, #7
 422 0026 A360     		str	r3, [r4, #8]
 423 0028 00E0     		b	.L50
 424              	.LVL23:
 425              	.L61:
 426              		.loc 1 401 0 discriminator 1
 427 002a 4AB9     		cbnz	r2, .L49
 428              	.LVL24:
 429              	.L50:
 430              		.loc 1 399 0 discriminator 2
 431 002c E268     		ldr	r2, [r4, #12]
 432              		.loc 1 400 0 discriminator 2
 433 002e 019B     		ldr	r3, [sp, #4]
 434 0030 0133     		adds	r3, r3, #1
 435 0032 0193     		str	r3, [sp, #4]
 436              		.loc 1 401 0 discriminator 2
 437 0034 019B     		ldr	r3, [sp, #4]
 438 0036 B3F5803F 		cmp	r3, #65536
 439              		.loc 1 399 0 discriminator 2
 440 003a 02F00402 		and	r2, r2, #4
 441              	.LVL25:
 442              		.loc 1 401 0 discriminator 2
 443 003e F4D1     		bne	.L61
 444              	.L49:
 445              		.loc 1 403 0
 446 0040 104B     		ldr	r3, .L63
 447 0042 DA68     		ldr	r2, [r3, #12]
 448              	.LVL26:
 449 0044 5207     		lsls	r2, r2, #29
 450 0046 05D4     		bmi	.L62
 451              	.L51:
 452              		.loc 1 386 0
 453 0048 0020     		movs	r0, #0
 454              	.L48:
 455              	.LVL27:
 456              		.loc 1 439 0
ARM GAS  /tmp/cc65ENol.s 			page 9


 457 004a 0E4B     		ldr	r3, .L63
 458 004c FF22     		movs	r2, #255
 459 004e 5A62     		str	r2, [r3, #36]
 460              		.loc 1 442 0
 461 0050 03B0     		add	sp, sp, #12
 462              		.cfi_remember_state
 463              		.cfi_def_cfa_offset 12
 464              		@ sp needed
 465 0052 30BD     		pop	{r4, r5, pc}
 466              	.LVL28:
 467              	.L62:
 468              		.cfi_restore_state
 469              		.loc 1 410 0
 470 0054 0022     		movs	r2, #0
 471              		.loc 1 411 0
 472 0056 4FF6FF70 		movw	r0, #65535
 473              		.loc 1 412 0
 474 005a 0B49     		ldr	r1, .L63+4
 475              		.loc 1 410 0
 476 005c 9C68     		ldr	r4, [r3, #8]
 477 005e 9A60     		str	r2, [r3, #8]
 478              		.loc 1 411 0
 479 0060 5861     		str	r0, [r3, #20]
 480              		.loc 1 412 0
 481 0062 1961     		str	r1, [r3, #16]
 482              		.loc 1 413 0
 483 0064 9A61     		str	r2, [r3, #24]
 484              		.loc 1 414 0
 485 0066 DA61     		str	r2, [r3, #28]
 486              		.loc 1 415 0
 487 0068 1A62     		str	r2, [r3, #32]
 488              		.loc 1 416 0
 489 006a DA62     		str	r2, [r3, #44]
 490              		.loc 1 417 0
 491 006c DA63     		str	r2, [r3, #60]
 492              		.loc 1 418 0
 493 006e 5A64     		str	r2, [r3, #68]
 494              		.loc 1 419 0
 495 0070 9A64     		str	r2, [r3, #72]
 496              		.loc 1 422 0
 497 0072 DA60     		str	r2, [r3, #12]
 498              		.loc 1 425 0
 499 0074 1A64     		str	r2, [r3, #64]
 500              		.loc 1 427 0
 501 0076 FFF7FEFF 		bl	RTC_WaitForSynchro
 502              	.LVL29:
 503              		.loc 1 386 0
 504 007a 0030     		adds	r0, r0, #0
 505 007c 18BF     		it	ne
 506 007e 0120     		movne	r0, #1
 507 0080 E3E7     		b	.L48
 508              	.L64:
 509 0082 00BF     		.align	2
 510              	.L63:
 511 0084 00280040 		.word	1073752064
 512 0088 FF007F00 		.word	8323327
 513              		.cfi_endproc
ARM GAS  /tmp/cc65ENol.s 			page 10


 514              	.LFE111:
 515              		.size	RTC_DeInit, .-RTC_DeInit
 516              		.section	.text.RTC_RefClockCmd,"ax",%progbits
 517              		.align	1
 518              		.p2align 4,,15
 519              		.global	RTC_RefClockCmd
 520              		.syntax unified
 521              		.thumb
 522              		.thumb_func
 523              		.fpu fpv4-sp-d16
 524              		.type	RTC_RefClockCmd, %function
 525              	RTC_RefClockCmd:
 526              	.LFB118:
 527              		.loc 1 661 0
 528              		.cfi_startproc
 529              		@ args = 0, pretend = 0, frame = 0
 530              		@ frame_needed = 0, uses_anonymous_args = 0
 531              	.LVL30:
 532 0000 38B5     		push	{r3, r4, r5, lr}
 533              		.cfi_def_cfa_offset 16
 534              		.cfi_offset 3, -16
 535              		.cfi_offset 4, -12
 536              		.cfi_offset 5, -8
 537              		.cfi_offset 14, -4
 538              		.loc 1 668 0
 539 0002 0E4C     		ldr	r4, .L74
 540 0004 CA22     		movs	r2, #202
 541              		.loc 1 669 0
 542 0006 5323     		movs	r3, #83
 543              		.loc 1 668 0
 544 0008 6262     		str	r2, [r4, #36]
 545              		.loc 1 669 0
 546 000a 6362     		str	r3, [r4, #36]
 547              		.loc 1 661 0
 548 000c 0546     		mov	r5, r0
 549              		.loc 1 672 0
 550 000e FFF7FEFF 		bl	RTC_EnterInitMode
 551              	.LVL31:
 552 0012 50B1     		cbz	r0, .L66
 553              		.loc 1 681 0
 554 0014 A368     		ldr	r3, [r4, #8]
 555              		.loc 1 678 0
 556 0016 65B9     		cbnz	r5, .L73
 557              		.loc 1 686 0
 558 0018 23F01003 		bic	r3, r3, #16
 559 001c A360     		str	r3, [r4, #8]
 560              	.L68:
 561              	.LBB84:
 562              	.LBB85:
 563              		.loc 1 598 0
 564 001e 074A     		ldr	r2, .L74
 565 0020 D368     		ldr	r3, [r2, #12]
 566 0022 23F08003 		bic	r3, r3, #128
 567 0026 D360     		str	r3, [r2, #12]
 568              	.LVL32:
 569              	.LBE85:
 570              	.LBE84:
ARM GAS  /tmp/cc65ENol.s 			page 11


 571              		.loc 1 691 0
 572 0028 0120     		movs	r0, #1
 573              	.LVL33:
 574              	.L66:
 575              		.loc 1 695 0
 576 002a 044B     		ldr	r3, .L74
 577 002c FF22     		movs	r2, #255
 578 002e 5A62     		str	r2, [r3, #36]
 579              		.loc 1 698 0
 580 0030 38BD     		pop	{r3, r4, r5, pc}
 581              	.LVL34:
 582              	.L73:
 583              		.loc 1 681 0
 584 0032 43F01003 		orr	r3, r3, #16
 585 0036 A360     		str	r3, [r4, #8]
 586 0038 F1E7     		b	.L68
 587              	.L75:
 588 003a 00BF     		.align	2
 589              	.L74:
 590 003c 00280040 		.word	1073752064
 591              		.cfi_endproc
 592              	.LFE118:
 593              		.size	RTC_RefClockCmd, .-RTC_RefClockCmd
 594              		.section	.text.RTC_BypassShadowCmd,"ax",%progbits
 595              		.align	1
 596              		.p2align 4,,15
 597              		.global	RTC_BypassShadowCmd
 598              		.syntax unified
 599              		.thumb
 600              		.thumb_func
 601              		.fpu fpv4-sp-d16
 602              		.type	RTC_BypassShadowCmd, %function
 603              	RTC_BypassShadowCmd:
 604              	.LFB119:
 605              		.loc 1 709 0
 606              		.cfi_startproc
 607              		@ args = 0, pretend = 0, frame = 0
 608              		@ frame_needed = 0, uses_anonymous_args = 0
 609              		@ link register save eliminated.
 610              	.LVL35:
 611              		.loc 1 714 0
 612 0000 0A4B     		ldr	r3, .L80
 613              		.loc 1 715 0
 614 0002 5322     		movs	r2, #83
 615              		.loc 1 714 0
 616 0004 CA21     		movs	r1, #202
 617 0006 5962     		str	r1, [r3, #36]
 618              		.loc 1 715 0
 619 0008 5A62     		str	r2, [r3, #36]
 620              		.loc 1 720 0
 621 000a 9A68     		ldr	r2, [r3, #8]
 622              		.loc 1 717 0
 623 000c 30B9     		cbnz	r0, .L79
 624              		.loc 1 725 0
 625 000e 02F0DF02 		and	r2, r2, #223
 626 0012 9A60     		str	r2, [r3, #8]
 627              		.loc 1 729 0
ARM GAS  /tmp/cc65ENol.s 			page 12


 628 0014 054B     		ldr	r3, .L80
 629 0016 FF22     		movs	r2, #255
 630 0018 5A62     		str	r2, [r3, #36]
 631              		.loc 1 730 0
 632 001a 7047     		bx	lr
 633              	.L79:
 634              		.loc 1 720 0
 635 001c 42F02002 		orr	r2, r2, #32
 636 0020 9A60     		str	r2, [r3, #8]
 637              		.loc 1 729 0
 638 0022 024B     		ldr	r3, .L80
 639 0024 FF22     		movs	r2, #255
 640 0026 5A62     		str	r2, [r3, #36]
 641              		.loc 1 730 0
 642 0028 7047     		bx	lr
 643              	.L81:
 644 002a 00BF     		.align	2
 645              	.L80:
 646 002c 00280040 		.word	1073752064
 647              		.cfi_endproc
 648              	.LFE119:
 649              		.size	RTC_BypassShadowCmd, .-RTC_BypassShadowCmd
 650              		.section	.text.RTC_SetTime,"ax",%progbits
 651              		.align	1
 652              		.p2align 4,,15
 653              		.global	RTC_SetTime
 654              		.syntax unified
 655              		.thumb
 656              		.thumb_func
 657              		.fpu fpv4-sp-d16
 658              		.type	RTC_SetTime, %function
 659              	RTC_SetTime:
 660              	.LFB120:
 661              		.loc 1 764 0
 662              		.cfi_startproc
 663              		@ args = 0, pretend = 0, frame = 0
 664              		@ frame_needed = 0, uses_anonymous_args = 0
 665              	.LVL36:
 666 0000 38B5     		push	{r3, r4, r5, lr}
 667              		.cfi_def_cfa_offset 16
 668              		.cfi_offset 3, -16
 669              		.cfi_offset 4, -12
 670              		.cfi_offset 5, -8
 671              		.cfi_offset 14, -4
 672              		.loc 1 773 0
 673 0002 384B     		ldr	r3, .L110
 674 0004 9C68     		ldr	r4, [r3, #8]
 675              		.loc 1 771 0
 676 0006 0028     		cmp	r0, #0
 677 0008 35D1     		bne	.L83
 678              		.loc 1 773 0
 679 000a 14F04004 		ands	r4, r4, #64
 680 000e 5AD1     		bne	.L84
 681              		.loc 1 780 0
 682 0010 CC70     		strb	r4, [r1, #3]
 683              	.L85:
 684              		.loc 1 813 0
ARM GAS  /tmp/cc65ENol.s 			page 13


 685 0012 0A78     		ldrb	r2, [r1]	@ zero_extendqisi2
 686              	.LVL37:
 687              	.LBB86:
 688              	.LBB87:
 689              		.loc 1 2726 0
 690 0014 092A     		cmp	r2, #9
 691 0016 63D9     		bls	.L108
 692              		.loc 1 2724 0
 693 0018 0023     		movs	r3, #0
 694              	.LVL38:
 695              	.L88:
 696              		.loc 1 2729 0
 697 001a 0A3A     		subs	r2, r2, #10
 698              	.LVL39:
 699 001c D2B2     		uxtb	r2, r2
 700              		.loc 1 2728 0
 701 001e 0133     		adds	r3, r3, #1
 702              	.LVL40:
 703              		.loc 1 2726 0
 704 0020 092A     		cmp	r2, #9
 705              		.loc 1 2728 0
 706 0022 DBB2     		uxtb	r3, r3
 707              	.LVL41:
 708              		.loc 1 2726 0
 709 0024 F9D8     		bhi	.L88
 710 0026 1B01     		lsls	r3, r3, #4
 711              	.LVL42:
 712 0028 D8B2     		uxtb	r0, r3
 713              	.LVL43:
 714              	.L95:
 715              	.LBE87:
 716              	.LBE86:
 717              		.loc 1 814 0
 718 002a 4B78     		ldrb	r3, [r1, #1]	@ zero_extendqisi2
 719              	.LVL44:
 720              		.loc 1 813 0
 721 002c 0243     		orrs	r2, r2, r0
 722              	.LBB89:
 723              	.LBB90:
 724              		.loc 1 2726 0
 725 002e 092B     		cmp	r3, #9
 726              	.LBE90:
 727              	.LBE89:
 728              		.loc 1 813 0
 729 0030 4FEA0242 		lsl	r2, r2, #16
 730              	.LBB92:
 731              	.LBB91:
 732              		.loc 1 2724 0
 733 0034 4FF00000 		mov	r0, #0
 734              		.loc 1 2726 0
 735 0038 07D9     		bls	.L89
 736              	.LVL45:
 737              	.L90:
 738              		.loc 1 2729 0
 739 003a 0A3B     		subs	r3, r3, #10
 740              	.LVL46:
 741 003c DBB2     		uxtb	r3, r3
ARM GAS  /tmp/cc65ENol.s 			page 14


 742              		.loc 1 2728 0
 743 003e 0130     		adds	r0, r0, #1
 744              	.LVL47:
 745              		.loc 1 2726 0
 746 0040 092B     		cmp	r3, #9
 747              		.loc 1 2728 0
 748 0042 C0B2     		uxtb	r0, r0
 749              	.LVL48:
 750              		.loc 1 2726 0
 751 0044 F9D8     		bhi	.L90
 752 0046 0001     		lsls	r0, r0, #4
 753              	.LVL49:
 754 0048 C0B2     		uxtb	r0, r0
 755              	.L89:
 756              	.LVL50:
 757              	.LBE91:
 758              	.LBE92:
 759              		.loc 1 815 0
 760 004a 8978     		ldrb	r1, [r1, #2]	@ zero_extendqisi2
 761              	.LVL51:
 762              		.loc 1 814 0
 763 004c 0343     		orrs	r3, r3, r0
 764              	.LBB93:
 765              	.LBB94:
 766              		.loc 1 2726 0
 767 004e 0929     		cmp	r1, #9
 768              	.LBE94:
 769              	.LBE93:
 770              		.loc 1 814 0
 771 0050 4FEA0323 		lsl	r3, r3, #8
 772              	.LBB96:
 773              	.LBB95:
 774              		.loc 1 2724 0
 775 0054 4FF00000 		mov	r0, #0
 776              		.loc 1 2726 0
 777 0058 07D9     		bls	.L91
 778              	.LVL52:
 779              	.L92:
 780              		.loc 1 2729 0
 781 005a 0A39     		subs	r1, r1, #10
 782              	.LVL53:
 783 005c C9B2     		uxtb	r1, r1
 784              		.loc 1 2728 0
 785 005e 0130     		adds	r0, r0, #1
 786              	.LVL54:
 787              		.loc 1 2726 0
 788 0060 0929     		cmp	r1, #9
 789              		.loc 1 2728 0
 790 0062 C0B2     		uxtb	r0, r0
 791              	.LVL55:
 792              		.loc 1 2726 0
 793 0064 F9D8     		bhi	.L92
 794 0066 0001     		lsls	r0, r0, #4
 795              	.LVL56:
 796 0068 C0B2     		uxtb	r0, r0
 797              	.L91:
 798              	.LVL57:
ARM GAS  /tmp/cc65ENol.s 			page 15


 799              	.LBE95:
 800              	.LBE96:
 801              		.loc 1 813 0
 802 006a 1443     		orrs	r4, r4, r2
 803 006c 2343     		orrs	r3, r3, r4
 804              		.loc 1 815 0
 805 006e 0143     		orrs	r1, r1, r0
 806              		.loc 1 813 0
 807 0070 43EA0104 		orr	r4, r3, r1
 808              	.LVL58:
 809 0074 0BE0     		b	.L94
 810              	.LVL59:
 811              	.L83:
 812              		.loc 1 788 0
 813 0076 14F04004 		ands	r4, r4, #64
 814 007a 21D1     		bne	.L86
 815              		.loc 1 796 0
 816 007c CC70     		strb	r4, [r1, #3]
 817              	.L87:
 818              		.loc 1 807 0
 819 007e 4A78     		ldrb	r2, [r1, #1]	@ zero_extendqisi2
 820              		.loc 1 806 0
 821 0080 0878     		ldrb	r0, [r1]	@ zero_extendqisi2
 822              	.LVL60:
 823              		.loc 1 808 0
 824 0082 8B78     		ldrb	r3, [r1, #2]	@ zero_extendqisi2
 825              		.loc 1 807 0
 826 0084 1102     		lsls	r1, r2, #8
 827              	.LVL61:
 828              		.loc 1 806 0
 829 0086 41EA0041 		orr	r1, r1, r0, lsl #16
 830              		.loc 1 807 0
 831 008a 1943     		orrs	r1, r1, r3
 832              		.loc 1 806 0
 833 008c 0C43     		orrs	r4, r4, r1
 834              	.LVL62:
 835              	.L94:
 836              		.loc 1 820 0
 837 008e 154D     		ldr	r5, .L110
 838 0090 CA22     		movs	r2, #202
 839              		.loc 1 821 0
 840 0092 5323     		movs	r3, #83
 841              		.loc 1 820 0
 842 0094 6A62     		str	r2, [r5, #36]
 843              		.loc 1 821 0
 844 0096 6B62     		str	r3, [r5, #36]
 845              		.loc 1 824 0
 846 0098 FFF7FEFF 		bl	RTC_EnterInitMode
 847              	.LVL63:
 848 009c 60B1     		cbz	r0, .L93
 849              		.loc 1 831 0
 850 009e 04F07F34 		and	r4, r4, #2139062143
 851              	.LVL64:
 852 00a2 24F0FE44 		bic	r4, r4, #2130706432
 853 00a6 2C60     		str	r4, [r5]
 854              	.LBB97:
 855              	.LBB98:
ARM GAS  /tmp/cc65ENol.s 			page 16


 856              		.loc 1 598 0
 857 00a8 EB68     		ldr	r3, [r5, #12]
 858 00aa 23F08003 		bic	r3, r3, #128
 859 00ae EB60     		str	r3, [r5, #12]
 860              	.LBE98:
 861              	.LBE97:
 862              		.loc 1 837 0
 863 00b0 AB68     		ldr	r3, [r5, #8]
 864 00b2 9B06     		lsls	r3, r3, #26
 865 00b4 0AD5     		bpl	.L109
 866              		.loc 1 850 0
 867 00b6 0120     		movs	r0, #1
 868              	.L93:
 869              	.LVL65:
 870              		.loc 1 854 0
 871 00b8 0A4B     		ldr	r3, .L110
 872 00ba FF22     		movs	r2, #255
 873 00bc 5A62     		str	r2, [r3, #36]
 874              		.loc 1 857 0
 875 00be 38BD     		pop	{r3, r4, r5, pc}
 876              	.LVL66:
 877              	.L86:
 878 00c0 CC78     		ldrb	r4, [r1, #3]	@ zero_extendqisi2
 879 00c2 2404     		lsls	r4, r4, #16
 880 00c4 DBE7     		b	.L87
 881              	.L84:
 882 00c6 CC78     		ldrb	r4, [r1, #3]	@ zero_extendqisi2
 883 00c8 2404     		lsls	r4, r4, #16
 884 00ca A2E7     		b	.L85
 885              	.LVL67:
 886              	.L109:
 887              		.loc 1 839 0
 888 00cc FFF7FEFF 		bl	RTC_WaitForSynchro
 889              	.LVL68:
 890              		.loc 1 854 0
 891 00d0 044B     		ldr	r3, .L110
 892              		.loc 1 826 0
 893 00d2 0030     		adds	r0, r0, #0
 894              		.loc 1 854 0
 895 00d4 4FF0FF02 		mov	r2, #255
 896              		.loc 1 826 0
 897 00d8 18BF     		it	ne
 898 00da 0120     		movne	r0, #1
 899              	.LVL69:
 900              		.loc 1 854 0
 901 00dc 5A62     		str	r2, [r3, #36]
 902              		.loc 1 857 0
 903 00de 38BD     		pop	{r3, r4, r5, pc}
 904              	.LVL70:
 905              	.L108:
 906              	.LBB99:
 907              	.LBB88:
 908              		.loc 1 2726 0
 909 00e0 0020     		movs	r0, #0
 910              	.LVL71:
 911 00e2 A2E7     		b	.L95
 912              	.L111:
ARM GAS  /tmp/cc65ENol.s 			page 17


 913              		.align	2
 914              	.L110:
 915 00e4 00280040 		.word	1073752064
 916              	.LBE88:
 917              	.LBE99:
 918              		.cfi_endproc
 919              	.LFE120:
 920              		.size	RTC_SetTime, .-RTC_SetTime
 921              		.section	.text.RTC_TimeStructInit,"ax",%progbits
 922              		.align	1
 923              		.p2align 4,,15
 924              		.global	RTC_TimeStructInit
 925              		.syntax unified
 926              		.thumb
 927              		.thumb_func
 928              		.fpu fpv4-sp-d16
 929              		.type	RTC_TimeStructInit, %function
 930              	RTC_TimeStructInit:
 931              	.LFB121:
 932              		.loc 1 867 0
 933              		.cfi_startproc
 934              		@ args = 0, pretend = 0, frame = 0
 935              		@ frame_needed = 0, uses_anonymous_args = 0
 936              		@ link register save eliminated.
 937              	.LVL72:
 938              		.loc 1 869 0
 939 0000 0023     		movs	r3, #0
 940 0002 C370     		strb	r3, [r0, #3]
 941              		.loc 1 870 0
 942 0004 0370     		strb	r3, [r0]
 943              		.loc 1 871 0
 944 0006 4370     		strb	r3, [r0, #1]
 945              		.loc 1 872 0
 946 0008 8370     		strb	r3, [r0, #2]
 947              		.loc 1 873 0
 948 000a 7047     		bx	lr
 949              		.cfi_endproc
 950              	.LFE121:
 951              		.size	RTC_TimeStructInit, .-RTC_TimeStructInit
 952              		.section	.text.RTC_GetTime,"ax",%progbits
 953              		.align	1
 954              		.p2align 4,,15
 955              		.global	RTC_GetTime
 956              		.syntax unified
 957              		.thumb
 958              		.thumb_func
 959              		.fpu fpv4-sp-d16
 960              		.type	RTC_GetTime, %function
 961              	RTC_GetTime:
 962              	.LFB122:
 963              		.loc 1 886 0
 964              		.cfi_startproc
 965              		@ args = 0, pretend = 0, frame = 0
 966              		@ frame_needed = 0, uses_anonymous_args = 0
 967              		@ link register save eliminated.
 968              	.LVL73:
 969              		.loc 1 893 0
ARM GAS  /tmp/cc65ENol.s 			page 18


 970 0000 164B     		ldr	r3, .L116
 971 0002 1B68     		ldr	r3, [r3]
 972 0004 03F07F33 		and	r3, r3, #2139062143
 973 0008 23F0FE43 		bic	r3, r3, #2130706432
 974              	.LVL74:
 975              		.loc 1 896 0
 976 000c 1A0C     		lsrs	r2, r3, #16
 977              		.loc 1 886 0
 978 000e 70B4     		push	{r4, r5, r6}
 979              		.cfi_def_cfa_offset 12
 980              		.cfi_offset 4, -12
 981              		.cfi_offset 5, -8
 982              		.cfi_offset 6, -4
 983              		.loc 1 897 0
 984 0010 C3F30624 		ubfx	r4, r3, #8, #7
 985              		.loc 1 899 0
 986 0014 02F04006 		and	r6, r2, #64
 987              		.loc 1 896 0
 988 0018 02F03F05 		and	r5, r2, #63
 989              		.loc 1 898 0
 990 001c DBB2     		uxtb	r3, r3
 991              	.LVL75:
 992              		.loc 1 899 0
 993 001e CE70     		strb	r6, [r1, #3]
 994              		.loc 1 896 0
 995 0020 0D70     		strb	r5, [r1]
 996              		.loc 1 897 0
 997 0022 4C70     		strb	r4, [r1, #1]
 998              		.loc 1 898 0
 999 0024 8B70     		strb	r3, [r1, #2]
 1000              		.loc 1 902 0
 1001 0026 B8B9     		cbnz	r0, .L113
 1002              	.LBB100:
 1003              	.LBB101:
 1004              		.loc 1 2743 0
 1005 0028 2009     		lsrs	r0, r4, #4
 1006              	.LVL76:
 1007 002a 00EB8006 		add	r6, r0, r0, lsl #2
 1008              	.LBE101:
 1009              	.LBE100:
 1010              	.LBB104:
 1011              	.LBB105:
 1012 002e 2D09     		lsrs	r5, r5, #4
 1013              	.LBE105:
 1014              	.LBE104:
 1015              	.LBB108:
 1016              	.LBB109:
 1017 0030 1809     		lsrs	r0, r3, #4
 1018              	.LBE109:
 1019              	.LBE108:
 1020              	.LBB112:
 1021              	.LBB106:
 1022 0032 05EB8505 		add	r5, r5, r5, lsl #2
 1023              		.loc 1 2744 0
 1024 0036 02F00F02 		and	r2, r2, #15
 1025              	.LBE106:
 1026              	.LBE112:
ARM GAS  /tmp/cc65ENol.s 			page 19


 1027              	.LBB113:
 1028              	.LBB102:
 1029 003a 04F00F04 		and	r4, r4, #15
 1030              	.LBE102:
 1031              	.LBE113:
 1032              	.LBB114:
 1033              	.LBB110:
 1034              		.loc 1 2743 0
 1035 003e 00EB8000 		add	r0, r0, r0, lsl #2
 1036              		.loc 1 2744 0
 1037 0042 03F00F03 		and	r3, r3, #15
 1038              	.LBE110:
 1039              	.LBE114:
 1040              	.LBB115:
 1041              	.LBB107:
 1042 0046 02EB4502 		add	r2, r2, r5, lsl #1
 1043              	.LBE107:
 1044              	.LBE115:
 1045              	.LBB116:
 1046              	.LBB103:
 1047 004a 04EB4604 		add	r4, r4, r6, lsl #1
 1048              	.LBE103:
 1049              	.LBE116:
 1050              	.LBB117:
 1051              	.LBB111:
 1052 004e 03EB4003 		add	r3, r3, r0, lsl #1
 1053              	.LBE111:
 1054              	.LBE117:
 1055              		.loc 1 905 0
 1056 0052 0A70     		strb	r2, [r1]
 1057              		.loc 1 906 0
 1058 0054 4C70     		strb	r4, [r1, #1]
 1059              		.loc 1 907 0
 1060 0056 8B70     		strb	r3, [r1, #2]
 1061              	.L113:
 1062              		.loc 1 909 0
 1063 0058 70BC     		pop	{r4, r5, r6}
 1064              		.cfi_restore 6
 1065              		.cfi_restore 5
 1066              		.cfi_restore 4
 1067              		.cfi_def_cfa_offset 0
 1068 005a 7047     		bx	lr
 1069              	.L117:
 1070              		.align	2
 1071              	.L116:
 1072 005c 00280040 		.word	1073752064
 1073              		.cfi_endproc
 1074              	.LFE122:
 1075              		.size	RTC_GetTime, .-RTC_GetTime
 1076              		.section	.text.RTC_GetSubSecond,"ax",%progbits
 1077              		.align	1
 1078              		.p2align 4,,15
 1079              		.global	RTC_GetSubSecond
 1080              		.syntax unified
 1081              		.thumb
 1082              		.thumb_func
 1083              		.fpu fpv4-sp-d16
ARM GAS  /tmp/cc65ENol.s 			page 20


 1084              		.type	RTC_GetSubSecond, %function
 1085              	RTC_GetSubSecond:
 1086              	.LFB123:
 1087              		.loc 1 919 0
 1088              		.cfi_startproc
 1089              		@ args = 0, pretend = 0, frame = 0
 1090              		@ frame_needed = 0, uses_anonymous_args = 0
 1091              		@ link register save eliminated.
 1092              	.LVL77:
 1093              		.loc 1 923 0
 1094 0000 014B     		ldr	r3, .L119
 1095 0002 986A     		ldr	r0, [r3, #40]
 1096              	.LVL78:
 1097              		.loc 1 926 0
 1098 0004 5B68     		ldr	r3, [r3, #4]
 1099              		.loc 1 929 0
 1100 0006 7047     		bx	lr
 1101              	.L120:
 1102              		.align	2
 1103              	.L119:
 1104 0008 00280040 		.word	1073752064
 1105              		.cfi_endproc
 1106              	.LFE123:
 1107              		.size	RTC_GetSubSecond, .-RTC_GetSubSecond
 1108              		.section	.text.RTC_SetDate,"ax",%progbits
 1109              		.align	1
 1110              		.p2align 4,,15
 1111              		.global	RTC_SetDate
 1112              		.syntax unified
 1113              		.thumb
 1114              		.thumb_func
 1115              		.fpu fpv4-sp-d16
 1116              		.type	RTC_SetDate, %function
 1117              	RTC_SetDate:
 1118              	.LFB124:
 1119              		.loc 1 944 0
 1120              		.cfi_startproc
 1121              		@ args = 0, pretend = 0, frame = 0
 1122              		@ frame_needed = 0, uses_anonymous_args = 0
 1123              	.LVL79:
 1124 0000 70B5     		push	{r4, r5, r6, lr}
 1125              		.cfi_def_cfa_offset 16
 1126              		.cfi_offset 4, -16
 1127              		.cfi_offset 5, -12
 1128              		.cfi_offset 6, -8
 1129              		.cfi_offset 14, -4
 1130 0002 0E78     		ldrb	r6, [r1]	@ zero_extendqisi2
 1131 0004 CB78     		ldrb	r3, [r1, #3]	@ zero_extendqisi2
 1132 0006 4C78     		ldrb	r4, [r1, #1]	@ zero_extendqisi2
 1133 0008 8D78     		ldrb	r5, [r1, #2]	@ zero_extendqisi2
 1134 000a 7603     		lsls	r6, r6, #13
 1135              		.loc 1 951 0
 1136 000c 0028     		cmp	r0, #0
 1137 000e 4ED1     		bne	.L122
 1138              		.loc 1 951 0 is_stmt 0 discriminator 1
 1139 0010 E206     		lsls	r2, r4, #27
 1140 0012 04D5     		bpl	.L123
ARM GAS  /tmp/cc65ENol.s 			page 21


 1141              		.loc 1 953 0 is_stmt 1
 1142 0014 24F01004 		bic	r4, r4, #16
 1143 0018 0A34     		adds	r4, r4, #10
 1144 001a E4B2     		uxtb	r4, r4
 1145 001c 4C70     		strb	r4, [r1, #1]
 1146              	.L123:
 1147              	.LVL80:
 1148              	.LBB118:
 1149              	.LBB119:
 1150              		.loc 1 2726 0
 1151 001e 092B     		cmp	r3, #9
 1152              		.loc 1 2724 0
 1153 0020 4FF00002 		mov	r2, #0
 1154              		.loc 1 2726 0
 1155 0024 07D9     		bls	.L130
 1156              	.LVL81:
 1157              	.L124:
 1158              		.loc 1 2729 0
 1159 0026 0A3B     		subs	r3, r3, #10
 1160              	.LVL82:
 1161 0028 DBB2     		uxtb	r3, r3
 1162              		.loc 1 2728 0
 1163 002a 0132     		adds	r2, r2, #1
 1164              	.LVL83:
 1165              		.loc 1 2726 0
 1166 002c 092B     		cmp	r3, #9
 1167              		.loc 1 2728 0
 1168 002e D2B2     		uxtb	r2, r2
 1169              	.LVL84:
 1170              		.loc 1 2726 0
 1171 0030 F9D8     		bhi	.L124
 1172 0032 1201     		lsls	r2, r2, #4
 1173              	.LVL85:
 1174 0034 D2B2     		uxtb	r2, r2
 1175              	.LVL86:
 1176              	.L130:
 1177              	.LBE119:
 1178              	.LBE118:
 1179              		.loc 1 981 0
 1180 0036 1343     		orrs	r3, r3, r2
 1181              	.LBB120:
 1182              	.LBB121:
 1183              		.loc 1 2726 0
 1184 0038 092C     		cmp	r4, #9
 1185              	.LBE121:
 1186              	.LBE120:
 1187              		.loc 1 981 0
 1188 003a 4FEA0342 		lsl	r2, r3, #16
 1189              	.LVL87:
 1190              	.LBB123:
 1191              	.LBB122:
 1192              		.loc 1 2724 0
 1193 003e 4FF00001 		mov	r1, #0
 1194              	.LVL88:
 1195              		.loc 1 2726 0
 1196 0042 07D9     		bls	.L125
 1197              	.LVL89:
ARM GAS  /tmp/cc65ENol.s 			page 22


 1198              	.L126:
 1199              		.loc 1 2729 0
 1200 0044 0A3C     		subs	r4, r4, #10
 1201              	.LVL90:
 1202 0046 E4B2     		uxtb	r4, r4
 1203              		.loc 1 2728 0
 1204 0048 0131     		adds	r1, r1, #1
 1205              	.LVL91:
 1206              		.loc 1 2726 0
 1207 004a 092C     		cmp	r4, #9
 1208              		.loc 1 2728 0
 1209 004c C9B2     		uxtb	r1, r1
 1210              	.LVL92:
 1211              		.loc 1 2726 0
 1212 004e F9D8     		bhi	.L126
 1213 0050 0901     		lsls	r1, r1, #4
 1214              	.LVL93:
 1215 0052 C9B2     		uxtb	r1, r1
 1216              	.LVL94:
 1217              	.L125:
 1218              	.LBE122:
 1219              	.LBE123:
 1220              		.loc 1 982 0
 1221 0054 0C43     		orrs	r4, r4, r1
 1222              	.LBB124:
 1223              	.LBB125:
 1224              		.loc 1 2726 0
 1225 0056 092D     		cmp	r5, #9
 1226              	.LBE125:
 1227              	.LBE124:
 1228              		.loc 1 982 0
 1229 0058 4FEA0421 		lsl	r1, r4, #8
 1230              	.LVL95:
 1231              	.LBB127:
 1232              	.LBB126:
 1233              		.loc 1 2724 0
 1234 005c 4FF00000 		mov	r0, #0
 1235              	.LVL96:
 1236              		.loc 1 2726 0
 1237 0060 07D9     		bls	.L127
 1238              	.LVL97:
 1239              	.L128:
 1240              		.loc 1 2729 0
 1241 0062 0A3D     		subs	r5, r5, #10
 1242              	.LVL98:
 1243 0064 EDB2     		uxtb	r5, r5
 1244              		.loc 1 2728 0
 1245 0066 0130     		adds	r0, r0, #1
 1246              	.LVL99:
 1247              		.loc 1 2726 0
 1248 0068 092D     		cmp	r5, #9
 1249              		.loc 1 2728 0
 1250 006a C0B2     		uxtb	r0, r0
 1251              	.LVL100:
 1252              		.loc 1 2726 0
 1253 006c F9D8     		bhi	.L128
 1254 006e 0001     		lsls	r0, r0, #4
ARM GAS  /tmp/cc65ENol.s 			page 23


 1255              	.LVL101:
 1256 0070 C0B2     		uxtb	r0, r0
 1257              	.LVL102:
 1258              	.L127:
 1259              	.LBE126:
 1260              	.LBE127:
 1261              		.loc 1 981 0
 1262 0072 3243     		orrs	r2, r2, r6
 1263 0074 42EA0104 		orr	r4, r2, r1
 1264              		.loc 1 983 0
 1265 0078 0543     		orrs	r5, r5, r0
 1266              		.loc 1 981 0
 1267 007a 2543     		orrs	r5, r5, r4
 1268              	.LVL103:
 1269              	.L131:
 1270              		.loc 1 988 0
 1271 007c 144C     		ldr	r4, .L148
 1272 007e CA22     		movs	r2, #202
 1273              		.loc 1 989 0
 1274 0080 5323     		movs	r3, #83
 1275              		.loc 1 988 0
 1276 0082 6262     		str	r2, [r4, #36]
 1277              		.loc 1 989 0
 1278 0084 6362     		str	r3, [r4, #36]
 1279              		.loc 1 992 0
 1280 0086 FFF7FEFF 		bl	RTC_EnterInitMode
 1281              	.LVL104:
 1282 008a 60B1     		cbz	r0, .L129
 1283              		.loc 1 999 0
 1284 008c 25F07F45 		bic	r5, r5, #-16777216
 1285              	.LVL105:
 1286 0090 25F0C005 		bic	r5, r5, #192
 1287 0094 6560     		str	r5, [r4, #4]
 1288              	.LBB128:
 1289              	.LBB129:
 1290              		.loc 1 598 0
 1291 0096 E368     		ldr	r3, [r4, #12]
 1292 0098 23F08003 		bic	r3, r3, #128
 1293 009c E360     		str	r3, [r4, #12]
 1294              	.LBE129:
 1295              	.LBE128:
 1296              		.loc 1 1005 0
 1297 009e A368     		ldr	r3, [r4, #8]
 1298 00a0 9B06     		lsls	r3, r3, #26
 1299 00a2 0AD5     		bpl	.L147
 1300              		.loc 1 1018 0
 1301 00a4 0120     		movs	r0, #1
 1302              	.L129:
 1303              	.LVL106:
 1304              		.loc 1 1022 0
 1305 00a6 0A4B     		ldr	r3, .L148
 1306 00a8 FF22     		movs	r2, #255
 1307 00aa 5A62     		str	r2, [r3, #36]
 1308              		.loc 1 1025 0
 1309 00ac 70BD     		pop	{r4, r5, r6, pc}
 1310              	.LVL107:
 1311              	.L122:
ARM GAS  /tmp/cc65ENol.s 			page 24


 1312              		.loc 1 974 0
 1313 00ae 46EA0343 		orr	r3, r6, r3, lsl #16
 1314 00b2 1D43     		orrs	r5, r5, r3
 1315 00b4 45EA0425 		orr	r5, r5, r4, lsl #8
 1316              	.LVL108:
 1317 00b8 E0E7     		b	.L131
 1318              	.LVL109:
 1319              	.L147:
 1320              		.loc 1 1007 0
 1321 00ba FFF7FEFF 		bl	RTC_WaitForSynchro
 1322              	.LVL110:
 1323              		.loc 1 1022 0
 1324 00be 044B     		ldr	r3, .L148
 1325              		.loc 1 994 0
 1326 00c0 0030     		adds	r0, r0, #0
 1327              		.loc 1 1022 0
 1328 00c2 4FF0FF02 		mov	r2, #255
 1329              		.loc 1 994 0
 1330 00c6 18BF     		it	ne
 1331 00c8 0120     		movne	r0, #1
 1332              	.LVL111:
 1333              		.loc 1 1022 0
 1334 00ca 5A62     		str	r2, [r3, #36]
 1335              		.loc 1 1025 0
 1336 00cc 70BD     		pop	{r4, r5, r6, pc}
 1337              	.L149:
 1338 00ce 00BF     		.align	2
 1339              	.L148:
 1340 00d0 00280040 		.word	1073752064
 1341              		.cfi_endproc
 1342              	.LFE124:
 1343              		.size	RTC_SetDate, .-RTC_SetDate
 1344              		.section	.text.RTC_DateStructInit,"ax",%progbits
 1345              		.align	1
 1346              		.p2align 4,,15
 1347              		.global	RTC_DateStructInit
 1348              		.syntax unified
 1349              		.thumb
 1350              		.thumb_func
 1351              		.fpu fpv4-sp-d16
 1352              		.type	RTC_DateStructInit, %function
 1353              	RTC_DateStructInit:
 1354              	.LFB125:
 1355              		.loc 1 1035 0
 1356              		.cfi_startproc
 1357              		@ args = 0, pretend = 0, frame = 0
 1358              		@ frame_needed = 0, uses_anonymous_args = 0
 1359              		@ link register save eliminated.
 1360              	.LVL112:
 1361              		.loc 1 1037 0
 1362 0000 0123     		movs	r3, #1
 1363              		.loc 1 1040 0
 1364 0002 0022     		movs	r2, #0
 1365 0004 C270     		strb	r2, [r0, #3]
 1366              		.loc 1 1037 0
 1367 0006 0370     		strb	r3, [r0]
 1368              		.loc 1 1038 0
ARM GAS  /tmp/cc65ENol.s 			page 25


 1369 0008 8370     		strb	r3, [r0, #2]
 1370              		.loc 1 1039 0
 1371 000a 4370     		strb	r3, [r0, #1]
 1372              		.loc 1 1041 0
 1373 000c 7047     		bx	lr
 1374              		.cfi_endproc
 1375              	.LFE125:
 1376              		.size	RTC_DateStructInit, .-RTC_DateStructInit
 1377 000e 00BF     		.section	.text.RTC_GetDate,"ax",%progbits
 1378              		.align	1
 1379              		.p2align 4,,15
 1380              		.global	RTC_GetDate
 1381              		.syntax unified
 1382              		.thumb
 1383              		.thumb_func
 1384              		.fpu fpv4-sp-d16
 1385              		.type	RTC_GetDate, %function
 1386              	RTC_GetDate:
 1387              	.LFB126:
 1388              		.loc 1 1054 0
 1389              		.cfi_startproc
 1390              		@ args = 0, pretend = 0, frame = 0
 1391              		@ frame_needed = 0, uses_anonymous_args = 0
 1392              		@ link register save eliminated.
 1393              	.LVL113:
 1394              		.loc 1 1061 0
 1395 0000 164B     		ldr	r3, .L154
 1396 0002 5B68     		ldr	r3, [r3, #4]
 1397 0004 23F07F43 		bic	r3, r3, #-16777216
 1398 0008 23F0C003 		bic	r3, r3, #192
 1399              	.LVL114:
 1400              		.loc 1 1054 0
 1401 000c 70B4     		push	{r4, r5, r6}
 1402              		.cfi_def_cfa_offset 12
 1403              		.cfi_offset 4, -12
 1404              		.cfi_offset 5, -8
 1405              		.cfi_offset 6, -4
 1406              		.loc 1 1065 0
 1407 000e C3F30725 		ubfx	r5, r3, #8, #8
 1408              		.loc 1 1067 0
 1409 0012 C3F34236 		ubfx	r6, r3, #13, #3
 1410              		.loc 1 1064 0
 1411 0016 1A0C     		lsrs	r2, r3, #16
 1412              		.loc 1 1065 0
 1413 0018 05F01F04 		and	r4, r5, #31
 1414              		.loc 1 1066 0
 1415 001c DBB2     		uxtb	r3, r3
 1416              	.LVL115:
 1417              		.loc 1 1067 0
 1418 001e 0E70     		strb	r6, [r1]
 1419              		.loc 1 1065 0
 1420 0020 4C70     		strb	r4, [r1, #1]
 1421              		.loc 1 1064 0
 1422 0022 CA70     		strb	r2, [r1, #3]
 1423              		.loc 1 1066 0
 1424 0024 8B70     		strb	r3, [r1, #2]
 1425              		.loc 1 1070 0
ARM GAS  /tmp/cc65ENol.s 			page 26


 1426 0026 B8B9     		cbnz	r0, .L151
 1427              	.LBB130:
 1428              	.LBB131:
 1429              		.loc 1 2743 0
 1430 0028 2409     		lsrs	r4, r4, #4
 1431 002a A000     		lsls	r0, r4, #2
 1432              	.LVL116:
 1433              	.LBE131:
 1434              	.LBE130:
 1435              	.LBB135:
 1436              	.LBB136:
 1437 002c 1609     		lsrs	r6, r2, #4
 1438              	.LBE136:
 1439              	.LBE135:
 1440              	.LBB139:
 1441              	.LBB132:
 1442 002e 0444     		add	r4, r4, r0
 1443              	.LBE132:
 1444              	.LBE139:
 1445              	.LBB140:
 1446              	.LBB141:
 1447 0030 1809     		lsrs	r0, r3, #4
 1448              	.LBE141:
 1449              	.LBE140:
 1450              	.LBB144:
 1451              	.LBB133:
 1452              		.loc 1 2744 0
 1453 0032 05F00F05 		and	r5, r5, #15
 1454              	.LBE133:
 1455              	.LBE144:
 1456              	.LBB145:
 1457              	.LBB137:
 1458              		.loc 1 2743 0
 1459 0036 06EB8606 		add	r6, r6, r6, lsl #2
 1460              		.loc 1 2744 0
 1461 003a 02F00F02 		and	r2, r2, #15
 1462              	.LBE137:
 1463              	.LBE145:
 1464              	.LBB146:
 1465              	.LBB142:
 1466              		.loc 1 2743 0
 1467 003e 00EB8000 		add	r0, r0, r0, lsl #2
 1468              		.loc 1 2744 0
 1469 0042 03F00F03 		and	r3, r3, #15
 1470              	.LBE142:
 1471              	.LBE146:
 1472              	.LBB147:
 1473              	.LBB134:
 1474 0046 05EB4404 		add	r4, r5, r4, lsl #1
 1475              	.LBE134:
 1476              	.LBE147:
 1477              	.LBB148:
 1478              	.LBB138:
 1479 004a 02EB4602 		add	r2, r2, r6, lsl #1
 1480              	.LBE138:
 1481              	.LBE148:
 1482              	.LBB149:
ARM GAS  /tmp/cc65ENol.s 			page 27


 1483              	.LBB143:
 1484 004e 03EB4003 		add	r3, r3, r0, lsl #1
 1485              	.LBE143:
 1486              	.LBE149:
 1487              		.loc 1 1074 0
 1488 0052 4C70     		strb	r4, [r1, #1]
 1489              		.loc 1 1073 0
 1490 0054 CA70     		strb	r2, [r1, #3]
 1491              		.loc 1 1075 0
 1492 0056 8B70     		strb	r3, [r1, #2]
 1493              	.L151:
 1494              		.loc 1 1077 0
 1495 0058 70BC     		pop	{r4, r5, r6}
 1496              		.cfi_restore 6
 1497              		.cfi_restore 5
 1498              		.cfi_restore 4
 1499              		.cfi_def_cfa_offset 0
 1500 005a 7047     		bx	lr
 1501              	.L155:
 1502              		.align	2
 1503              	.L154:
 1504 005c 00280040 		.word	1073752064
 1505              		.cfi_endproc
 1506              	.LFE126:
 1507              		.size	RTC_GetDate, .-RTC_GetDate
 1508              		.section	.text.RTC_SetAlarm,"ax",%progbits
 1509              		.align	1
 1510              		.p2align 4,,15
 1511              		.global	RTC_SetAlarm
 1512              		.syntax unified
 1513              		.thumb
 1514              		.thumb_func
 1515              		.fpu fpv4-sp-d16
 1516              		.type	RTC_SetAlarm, %function
 1517              	RTC_SetAlarm:
 1518              	.LFB127:
 1519              		.loc 1 1114 0
 1520              		.cfi_startproc
 1521              		@ args = 0, pretend = 0, frame = 0
 1522              		@ frame_needed = 0, uses_anonymous_args = 0
 1523              		@ link register save eliminated.
 1524              	.LVL117:
 1525 0000 F0B4     		push	{r4, r5, r6, r7}
 1526              		.cfi_def_cfa_offset 16
 1527              		.cfi_offset 4, -16
 1528              		.cfi_offset 5, -12
 1529              		.cfi_offset 6, -8
 1530              		.cfi_offset 7, -4
 1531              		.loc 1 1125 0
 1532 0002 3E4B     		ldr	r3, .L184
 1533              		.loc 1 1123 0
 1534 0004 0028     		cmp	r0, #0
 1535 0006 4AD1     		bne	.L157
 1536              		.loc 1 1125 0
 1537 0008 9E68     		ldr	r6, [r3, #8]
 1538 000a 16F04006 		ands	r6, r6, #64
 1539 000e 6DD1     		bne	.L158
ARM GAS  /tmp/cc65ENol.s 			page 28


 1540              		.loc 1 1132 0
 1541 0010 D670     		strb	r6, [r2, #3]
 1542              	.L159:
 1543              		.loc 1 1189 0
 1544 0012 1378     		ldrb	r3, [r2]	@ zero_extendqisi2
 1545              	.LVL118:
 1546              	.LBB150:
 1547              	.LBB151:
 1548              		.loc 1 2726 0
 1549 0014 092B     		cmp	r3, #9
 1550 0016 6CD9     		bls	.L183
 1551              		.loc 1 2724 0
 1552 0018 0020     		movs	r0, #0
 1553              	.LVL119:
 1554              	.L162:
 1555              		.loc 1 2729 0
 1556 001a 0A3B     		subs	r3, r3, #10
 1557              	.LVL120:
 1558 001c DBB2     		uxtb	r3, r3
 1559              		.loc 1 2728 0
 1560 001e 0130     		adds	r0, r0, #1
 1561              	.LVL121:
 1562              		.loc 1 2726 0
 1563 0020 092B     		cmp	r3, #9
 1564              		.loc 1 2728 0
 1565 0022 C0B2     		uxtb	r0, r0
 1566              	.LVL122:
 1567              		.loc 1 2726 0
 1568 0024 F9D8     		bhi	.L162
 1569 0026 0001     		lsls	r0, r0, #4
 1570              	.LVL123:
 1571 0028 C4B2     		uxtb	r4, r0
 1572              	.L172:
 1573              	.LVL124:
 1574              	.LBE151:
 1575              	.LBE150:
 1576              		.loc 1 1190 0
 1577 002a 5078     		ldrb	r0, [r2, #1]	@ zero_extendqisi2
 1578              	.LVL125:
 1579              		.loc 1 1189 0
 1580 002c 2343     		orrs	r3, r3, r4
 1581              	.LBB153:
 1582              	.LBB154:
 1583              		.loc 1 2726 0
 1584 002e 0928     		cmp	r0, #9
 1585              	.LBE154:
 1586              	.LBE153:
 1587              		.loc 1 1189 0
 1588 0030 4FEA0343 		lsl	r3, r3, #16
 1589              	.LBB156:
 1590              	.LBB155:
 1591              		.loc 1 2724 0
 1592 0034 4FF00004 		mov	r4, #0
 1593              		.loc 1 2726 0
 1594 0038 07D9     		bls	.L163
 1595              	.LVL126:
 1596              	.L164:
ARM GAS  /tmp/cc65ENol.s 			page 29


 1597              		.loc 1 2729 0
 1598 003a 0A38     		subs	r0, r0, #10
 1599              	.LVL127:
 1600 003c C0B2     		uxtb	r0, r0
 1601              		.loc 1 2728 0
 1602 003e 0134     		adds	r4, r4, #1
 1603              	.LVL128:
 1604              		.loc 1 2726 0
 1605 0040 0928     		cmp	r0, #9
 1606              		.loc 1 2728 0
 1607 0042 E4B2     		uxtb	r4, r4
 1608              	.LVL129:
 1609              		.loc 1 2726 0
 1610 0044 F9D8     		bhi	.L164
 1611 0046 2401     		lsls	r4, r4, #4
 1612              	.LVL130:
 1613 0048 E4B2     		uxtb	r4, r4
 1614              	.L163:
 1615              	.LVL131:
 1616              	.LBE155:
 1617              	.LBE156:
 1618              		.loc 1 1191 0
 1619 004a 9578     		ldrb	r5, [r2, #2]	@ zero_extendqisi2
 1620              	.LVL132:
 1621              		.loc 1 1190 0
 1622 004c 2043     		orrs	r0, r0, r4
 1623              	.LBB157:
 1624              	.LBB158:
 1625              		.loc 1 2726 0
 1626 004e 092D     		cmp	r5, #9
 1627              	.LBE158:
 1628              	.LBE157:
 1629              		.loc 1 1190 0
 1630 0050 4FEA0024 		lsl	r4, r0, #8
 1631              	.LBB161:
 1632              	.LBB159:
 1633              		.loc 1 2726 0
 1634 0054 4FD9     		bls	.L174
 1635              		.loc 1 2724 0
 1636 0056 0020     		movs	r0, #0
 1637              	.LVL133:
 1638              	.L166:
 1639              		.loc 1 2729 0
 1640 0058 0A3D     		subs	r5, r5, #10
 1641              	.LVL134:
 1642 005a EDB2     		uxtb	r5, r5
 1643              		.loc 1 2728 0
 1644 005c 0130     		adds	r0, r0, #1
 1645              	.LVL135:
 1646              		.loc 1 2726 0
 1647 005e 092D     		cmp	r5, #9
 1648              		.loc 1 2728 0
 1649 0060 C0B2     		uxtb	r0, r0
 1650              	.LVL136:
 1651              		.loc 1 2726 0
 1652 0062 F9D8     		bhi	.L166
 1653 0064 0001     		lsls	r0, r0, #4
ARM GAS  /tmp/cc65ENol.s 			page 30


 1654              	.LVL137:
 1655 0066 C7B2     		uxtb	r7, r0
 1656              	.L165:
 1657              	.LVL138:
 1658              	.LBE159:
 1659              	.LBE161:
 1660              		.loc 1 1193 0
 1661 0068 107B     		ldrb	r0, [r2, #12]	@ zero_extendqisi2
 1662              	.LVL139:
 1663              	.LBB162:
 1664              	.LBB163:
 1665              		.loc 1 2726 0
 1666 006a 0928     		cmp	r0, #9
 1667              	.LBE163:
 1668              	.LBE162:
 1669              		.loc 1 1191 0
 1670 006c 45EA0705 		orr	r5, r5, r7
 1671              	.LBB165:
 1672              	.LBB164:
 1673              		.loc 1 2724 0
 1674 0070 4FF00007 		mov	r7, #0
 1675              		.loc 1 2726 0
 1676 0074 07D9     		bls	.L167
 1677              	.LVL140:
 1678              	.L168:
 1679              		.loc 1 2729 0
 1680 0076 0A38     		subs	r0, r0, #10
 1681              	.LVL141:
 1682 0078 C0B2     		uxtb	r0, r0
 1683              		.loc 1 2728 0
 1684 007a 0137     		adds	r7, r7, #1
 1685              	.LVL142:
 1686              		.loc 1 2726 0
 1687 007c 0928     		cmp	r0, #9
 1688              		.loc 1 2728 0
 1689 007e FFB2     		uxtb	r7, r7
 1690              	.LVL143:
 1691              		.loc 1 2726 0
 1692 0080 F9D8     		bhi	.L168
 1693 0082 3F01     		lsls	r7, r7, #4
 1694              	.LVL144:
 1695 0084 FFB2     		uxtb	r7, r7
 1696              	.L167:
 1697              	.LVL145:
 1698              	.LBE164:
 1699              	.LBE165:
 1700              		.loc 1 1189 0
 1701 0086 D2E9012C 		ldrd	r2, ip, [r2, #4]
 1702              	.LVL146:
 1703 008a 4CEA0202 		orr	r2, ip, r2
 1704 008e 1643     		orrs	r6, r6, r2
 1705 0090 3343     		orrs	r3, r3, r6
 1706 0092 1C43     		orrs	r4, r4, r3
 1707              		.loc 1 1193 0
 1708 0094 0743     		orrs	r7, r7, r0
 1709              		.loc 1 1189 0
 1710 0096 2543     		orrs	r5, r5, r4
ARM GAS  /tmp/cc65ENol.s 			page 31


 1711 0098 45EA0765 		orr	r5, r5, r7, lsl #24
 1712              	.LVL147:
 1713 009c 13E0     		b	.L171
 1714              	.LVL148:
 1715              	.L157:
 1716              		.loc 1 1149 0
 1717 009e 9868     		ldr	r0, [r3, #8]
 1718              	.LVL149:
 1719 00a0 10F04000 		ands	r0, r0, #64
 1720 00a4 1FD1     		bne	.L160
 1721              		.loc 1 1157 0
 1722 00a6 D070     		strb	r0, [r2, #3]
 1723              	.L161:
 1724              		.loc 1 1179 0
 1725 00a8 D2E90153 		ldrd	r5, r3, [r2, #4]
 1726              		.loc 1 1181 0
 1727 00ac 9678     		ldrb	r6, [r2, #2]	@ zero_extendqisi2
 1728              		.loc 1 1179 0
 1729 00ae 1478     		ldrb	r4, [r2]	@ zero_extendqisi2
 1730              		.loc 1 1183 0
 1731 00b0 177B     		ldrb	r7, [r2, #12]	@ zero_extendqisi2
 1732              		.loc 1 1179 0
 1733 00b2 1D43     		orrs	r5, r5, r3
 1734 00b4 3543     		orrs	r5, r5, r6
 1735              		.loc 1 1180 0
 1736 00b6 5378     		ldrb	r3, [r2, #1]	@ zero_extendqisi2
 1737              		.loc 1 1179 0
 1738 00b8 45EA0445 		orr	r5, r5, r4, lsl #16
 1739 00bc 45EA0325 		orr	r5, r5, r3, lsl #8
 1740 00c0 45EA0765 		orr	r5, r5, r7, lsl #24
 1741 00c4 0543     		orrs	r5, r5, r0
 1742              	.LVL150:
 1743              	.L171:
 1744              		.loc 1 1199 0
 1745 00c6 0D4B     		ldr	r3, .L184
 1746              		.loc 1 1200 0
 1747 00c8 5322     		movs	r2, #83
 1748              		.loc 1 1203 0
 1749 00ca B1F5807F 		cmp	r1, #256
 1750              		.loc 1 1199 0
 1751 00ce 4FF0CA00 		mov	r0, #202
 1752 00d2 5862     		str	r0, [r3, #36]
 1753              		.loc 1 1200 0
 1754 00d4 5A62     		str	r2, [r3, #36]
 1755              		.loc 1 1205 0
 1756 00d6 0CBF     		ite	eq
 1757 00d8 DD61     		streq	r5, [r3, #28]
 1758              		.loc 1 1209 0
 1759 00da 1D62     		strne	r5, [r3, #32]
 1760              		.loc 1 1213 0
 1761 00dc 074B     		ldr	r3, .L184
 1762 00de FF22     		movs	r2, #255
 1763 00e0 5A62     		str	r2, [r3, #36]
 1764              		.loc 1 1214 0
 1765 00e2 F0BC     		pop	{r4, r5, r6, r7}
 1766              		.cfi_remember_state
 1767              		.cfi_restore 7
ARM GAS  /tmp/cc65ENol.s 			page 32


 1768              		.cfi_restore 6
 1769              		.cfi_restore 5
 1770              		.cfi_restore 4
 1771              		.cfi_def_cfa_offset 0
 1772              	.LVL151:
 1773 00e4 7047     		bx	lr
 1774              	.LVL152:
 1775              	.L160:
 1776              		.cfi_restore_state
 1777 00e6 D578     		ldrb	r5, [r2, #3]	@ zero_extendqisi2
 1778 00e8 2804     		lsls	r0, r5, #16
 1779 00ea DDE7     		b	.L161
 1780              	.LVL153:
 1781              	.L158:
 1782 00ec D678     		ldrb	r6, [r2, #3]	@ zero_extendqisi2
 1783 00ee 3604     		lsls	r6, r6, #16
 1784 00f0 8FE7     		b	.L159
 1785              	.LVL154:
 1786              	.L183:
 1787              	.LBB166:
 1788              	.LBB152:
 1789              		.loc 1 2726 0
 1790 00f2 0024     		movs	r4, #0
 1791 00f4 99E7     		b	.L172
 1792              	.LVL155:
 1793              	.L174:
 1794              	.LBE152:
 1795              	.LBE166:
 1796              	.LBB167:
 1797              	.LBB160:
 1798 00f6 0027     		movs	r7, #0
 1799 00f8 B6E7     		b	.L165
 1800              	.L185:
 1801 00fa 00BF     		.align	2
 1802              	.L184:
 1803 00fc 00280040 		.word	1073752064
 1804              	.LBE160:
 1805              	.LBE167:
 1806              		.cfi_endproc
 1807              	.LFE127:
 1808              		.size	RTC_SetAlarm, .-RTC_SetAlarm
 1809              		.section	.text.RTC_AlarmStructInit,"ax",%progbits
 1810              		.align	1
 1811              		.p2align 4,,15
 1812              		.global	RTC_AlarmStructInit
 1813              		.syntax unified
 1814              		.thumb
 1815              		.thumb_func
 1816              		.fpu fpv4-sp-d16
 1817              		.type	RTC_AlarmStructInit, %function
 1818              	RTC_AlarmStructInit:
 1819              	.LFB128:
 1820              		.loc 1 1225 0
 1821              		.cfi_startproc
 1822              		@ args = 0, pretend = 0, frame = 0
 1823              		@ frame_needed = 0, uses_anonymous_args = 0
 1824              		@ link register save eliminated.
ARM GAS  /tmp/cc65ENol.s 			page 33


 1825              	.LVL156:
 1826              		.loc 1 1228 0
 1827 0000 0023     		movs	r3, #0
 1828              		.loc 1 1233 0
 1829 0002 0122     		movs	r2, #1
 1830 0004 0273     		strb	r2, [r0, #12]
 1831              		.loc 1 1227 0
 1832 0006 C0E90033 		strd	r3, r3, [r0]
 1833              		.loc 1 1237 0
 1834 000a 8360     		str	r3, [r0, #8]
 1835              		.loc 1 1238 0
 1836 000c 7047     		bx	lr
 1837              		.cfi_endproc
 1838              	.LFE128:
 1839              		.size	RTC_AlarmStructInit, .-RTC_AlarmStructInit
 1840 000e 00BF     		.section	.text.RTC_GetAlarm,"ax",%progbits
 1841              		.align	1
 1842              		.p2align 4,,15
 1843              		.global	RTC_GetAlarm
 1844              		.syntax unified
 1845              		.thumb
 1846              		.thumb_func
 1847              		.fpu fpv4-sp-d16
 1848              		.type	RTC_GetAlarm, %function
 1849              	RTC_GetAlarm:
 1850              	.LFB129:
 1851              		.loc 1 1255 0
 1852              		.cfi_startproc
 1853              		@ args = 0, pretend = 0, frame = 0
 1854              		@ frame_needed = 0, uses_anonymous_args = 0
 1855              	.LVL157:
 1856              		.loc 1 1265 0
 1857 0000 254B     		ldr	r3, .L192
 1858              		.loc 1 1263 0
 1859 0002 B1F5807F 		cmp	r1, #256
 1860              		.loc 1 1265 0
 1861 0006 0CBF     		ite	eq
 1862 0008 DB69     		ldreq	r3, [r3, #28]
 1863              	.LVL158:
 1864              		.loc 1 1269 0
 1865 000a 1B6A     		ldrne	r3, [r3, #32]
 1866              	.LVL159:
 1867              		.loc 1 1255 0
 1868 000c 2DE9F047 		push	{r4, r5, r6, r7, r8, r9, r10, lr}
 1869              		.cfi_def_cfa_offset 32
 1870              		.cfi_offset 4, -32
 1871              		.cfi_offset 5, -28
 1872              		.cfi_offset 6, -24
 1873              		.cfi_offset 7, -20
 1874              		.cfi_offset 8, -16
 1875              		.cfi_offset 9, -12
 1876              		.cfi_offset 10, -8
 1877              		.cfi_offset 14, -4
 1878              		.loc 1 1273 0
 1879 0010 C3F30741 		ubfx	r1, r3, #16, #8
 1880              	.LVL160:
 1881              		.loc 1 1275 0
ARM GAS  /tmp/cc65ENol.s 			page 34


 1882 0014 C3F3072C 		ubfx	ip, r3, #8, #8
 1883              		.loc 1 1277 0
 1884 0018 DFB2     		uxtb	r7, r3
 1885              		.loc 1 1280 0
 1886 001a 1E0E     		lsrs	r6, r3, #24
 1887              		.loc 1 1281 0
 1888 001c 03F08049 		and	r9, r3, #1073741824
 1889              		.loc 1 1273 0
 1890 0020 01F03F05 		and	r5, r1, #63
 1891              		.loc 1 1279 0
 1892 0024 01F0400A 		and	r10, r1, #64
 1893              		.loc 1 1275 0
 1894 0028 0CF07F04 		and	r4, ip, #127
 1895              		.loc 1 1277 0
 1896 002c 07F07F08 		and	r8, r7, #127
 1897              		.loc 1 1280 0
 1898 0030 06F03F0E 		and	lr, r6, #63
 1899              		.loc 1 1282 0
 1900 0034 03F08033 		and	r3, r3, #-2139062144
 1901              	.LVL161:
 1902              		.loc 1 1273 0
 1903 0038 1570     		strb	r5, [r2]
 1904              		.loc 1 1279 0
 1905 003a 82F803A0 		strb	r10, [r2, #3]
 1906              		.loc 1 1275 0
 1907 003e 5470     		strb	r4, [r2, #1]
 1908              		.loc 1 1277 0
 1909 0040 82F80280 		strb	r8, [r2, #2]
 1910              		.loc 1 1280 0
 1911 0044 82F80CE0 		strb	lr, [r2, #12]
 1912              		.loc 1 1282 0
 1913 0048 C2E90139 		strd	r3, r9, [r2, #4]
 1914              		.loc 1 1284 0
 1915 004c 08BB     		cbnz	r0, .L187
 1916              	.LBB168:
 1917              	.LBB169:
 1918              		.loc 1 2743 0
 1919 004e 2D09     		lsrs	r5, r5, #4
 1920              	.LBE169:
 1921              	.LBE168:
 1922              	.LBB173:
 1923              	.LBB174:
 1924 0050 2409     		lsrs	r4, r4, #4
 1925              	.LBE174:
 1926              	.LBE173:
 1927              	.LBB178:
 1928              	.LBB179:
 1929 0052 4FEA1810 		lsr	r0, r8, #4
 1930              	.LVL162:
 1931              	.LBE179:
 1932              	.LBE178:
 1933              	.LBB183:
 1934              	.LBB184:
 1935 0056 4FEA1E13 		lsr	r3, lr, #4
 1936              	.LBE184:
 1937              	.LBE183:
 1938              	.LBB188:
ARM GAS  /tmp/cc65ENol.s 			page 35


 1939              	.LBB170:
 1940 005a 05EB8505 		add	r5, r5, r5, lsl #2
 1941              	.LBE170:
 1942              	.LBE188:
 1943              	.LBB189:
 1944              	.LBB175:
 1945 005e 04EB8404 		add	r4, r4, r4, lsl #2
 1946              	.LBE175:
 1947              	.LBE189:
 1948              	.LBB190:
 1949              	.LBB180:
 1950 0062 00EB8000 		add	r0, r0, r0, lsl #2
 1951              	.LBE180:
 1952              	.LBE190:
 1953              	.LBB191:
 1954              	.LBB185:
 1955 0066 03EB8303 		add	r3, r3, r3, lsl #2
 1956              	.LBE185:
 1957              	.LBE191:
 1958              	.LBB192:
 1959              	.LBB171:
 1960              		.loc 1 2744 0
 1961 006a 01F00F01 		and	r1, r1, #15
 1962              	.LBE171:
 1963              	.LBE192:
 1964              	.LBB193:
 1965              	.LBB176:
 1966 006e 0CF00F0C 		and	ip, ip, #15
 1967              	.LBE176:
 1968              	.LBE193:
 1969              	.LBB194:
 1970              	.LBB181:
 1971 0072 07F00F07 		and	r7, r7, #15
 1972              	.LBE181:
 1973              	.LBE194:
 1974              	.LBB195:
 1975              	.LBB186:
 1976 0076 06F00F06 		and	r6, r6, #15
 1977              	.LBE186:
 1978              	.LBE195:
 1979              	.LBB196:
 1980              	.LBB172:
 1981 007a 01EB4501 		add	r1, r1, r5, lsl #1
 1982              	.LBE172:
 1983              	.LBE196:
 1984              	.LBB197:
 1985              	.LBB177:
 1986 007e 0CEB4404 		add	r4, ip, r4, lsl #1
 1987              	.LBE177:
 1988              	.LBE197:
 1989              	.LBB198:
 1990              	.LBB182:
 1991 0082 07EB4000 		add	r0, r7, r0, lsl #1
 1992              	.LBE182:
 1993              	.LBE198:
 1994              	.LBB199:
 1995              	.LBB187:
ARM GAS  /tmp/cc65ENol.s 			page 36


 1996 0086 06EB4303 		add	r3, r6, r3, lsl #1
 1997              	.LBE187:
 1998              	.LBE199:
 1999              		.loc 1 1286 0
 2000 008a 1170     		strb	r1, [r2]
 2001              		.loc 1 1288 0
 2002 008c 5470     		strb	r4, [r2, #1]
 2003              		.loc 1 1290 0
 2004 008e 9070     		strb	r0, [r2, #2]
 2005              		.loc 1 1292 0
 2006 0090 1373     		strb	r3, [r2, #12]
 2007              	.L187:
 2008              		.loc 1 1294 0
 2009 0092 BDE8F087 		pop	{r4, r5, r6, r7, r8, r9, r10, pc}
 2010              	.L193:
 2011 0096 00BF     		.align	2
 2012              	.L192:
 2013 0098 00280040 		.word	1073752064
 2014              		.cfi_endproc
 2015              	.LFE129:
 2016              		.size	RTC_GetAlarm, .-RTC_GetAlarm
 2017              		.section	.text.RTC_AlarmCmd,"ax",%progbits
 2018              		.align	1
 2019              		.p2align 4,,15
 2020              		.global	RTC_AlarmCmd
 2021              		.syntax unified
 2022              		.thumb
 2023              		.thumb_func
 2024              		.fpu fpv4-sp-d16
 2025              		.type	RTC_AlarmCmd, %function
 2026              	RTC_AlarmCmd:
 2027              	.LFB130:
 2028              		.loc 1 1309 0
 2029              		.cfi_startproc
 2030              		@ args = 0, pretend = 0, frame = 8
 2031              		@ frame_needed = 0, uses_anonymous_args = 0
 2032              		@ link register save eliminated.
 2033              	.LVL163:
 2034 0000 30B4     		push	{r4, r5}
 2035              		.cfi_def_cfa_offset 8
 2036              		.cfi_offset 4, -8
 2037              		.cfi_offset 5, -4
 2038              		.loc 1 1319 0
 2039 0002 154B     		ldr	r3, .L207
 2040              		.loc 1 1309 0
 2041 0004 82B0     		sub	sp, sp, #8
 2042              		.cfi_def_cfa_offset 16
 2043              		.loc 1 1320 0
 2044 0006 5322     		movs	r2, #83
 2045              		.loc 1 1310 0
 2046 0008 0025     		movs	r5, #0
 2047              		.loc 1 1319 0
 2048 000a CA24     		movs	r4, #202
 2049              		.loc 1 1310 0
 2050 000c 0195     		str	r5, [sp, #4]
 2051              	.LVL164:
 2052              		.loc 1 1319 0
ARM GAS  /tmp/cc65ENol.s 			page 37


 2053 000e 5C62     		str	r4, [r3, #36]
 2054              		.loc 1 1320 0
 2055 0010 5A62     		str	r2, [r3, #36]
 2056              		.loc 1 1325 0
 2057 0012 9A68     		ldr	r2, [r3, #8]
 2058              		.loc 1 1323 0
 2059 0014 E1B9     		cbnz	r1, .L205
 2060              		.loc 1 1332 0
 2061 0016 22EA0002 		bic	r2, r2, r0
 2062 001a 9A60     		str	r2, [r3, #8]
 2063              		.loc 1 1337 0
 2064 001c 000A     		lsrs	r0, r0, #8
 2065              	.LVL165:
 2066 001e 1946     		mov	r1, r3
 2067              	.LVL166:
 2068 0020 00E0     		b	.L198
 2069              	.LVL167:
 2070              	.L206:
 2071              		.loc 1 1339 0 discriminator 1
 2072 0022 4AB9     		cbnz	r2, .L197
 2073              	.LVL168:
 2074              	.L198:
 2075              		.loc 1 1337 0 discriminator 2
 2076 0024 CA68     		ldr	r2, [r1, #12]
 2077              		.loc 1 1338 0 discriminator 2
 2078 0026 019B     		ldr	r3, [sp, #4]
 2079 0028 0133     		adds	r3, r3, #1
 2080 002a 0193     		str	r3, [sp, #4]
 2081              		.loc 1 1339 0 discriminator 2
 2082 002c 019B     		ldr	r3, [sp, #4]
 2083 002e B3F5803F 		cmp	r3, #65536
 2084              		.loc 1 1337 0 discriminator 2
 2085 0032 02EA0002 		and	r2, r2, r0
 2086              	.LVL169:
 2087              		.loc 1 1339 0 discriminator 2
 2088 0036 F4D1     		bne	.L206
 2089              	.L197:
 2090              		.loc 1 1341 0
 2091 0038 074B     		ldr	r3, .L207
 2092 003a DB68     		ldr	r3, [r3, #12]
 2093 003c 1842     		tst	r0, r3
 2094              		.loc 1 1327 0
 2095 003e 14BF     		ite	ne
 2096 0040 0120     		movne	r0, #1
 2097 0042 0020     		moveq	r0, #0
 2098              	.LVL170:
 2099              	.L196:
 2100              		.loc 1 1352 0
 2101 0044 044B     		ldr	r3, .L207
 2102 0046 FF22     		movs	r2, #255
 2103 0048 5A62     		str	r2, [r3, #36]
 2104              		.loc 1 1355 0
 2105 004a 02B0     		add	sp, sp, #8
 2106              		.cfi_remember_state
 2107              		.cfi_def_cfa_offset 8
 2108              		@ sp needed
 2109 004c 30BC     		pop	{r4, r5}
ARM GAS  /tmp/cc65ENol.s 			page 38


 2110              		.cfi_restore 5
 2111              		.cfi_restore 4
 2112              		.cfi_def_cfa_offset 0
 2113 004e 7047     		bx	lr
 2114              	.LVL171:
 2115              	.L205:
 2116              		.cfi_restore_state
 2117              		.loc 1 1325 0
 2118 0050 1043     		orrs	r0, r0, r2
 2119              	.LVL172:
 2120 0052 9860     		str	r0, [r3, #8]
 2121              	.LVL173:
 2122              		.loc 1 1327 0
 2123 0054 0120     		movs	r0, #1
 2124 0056 F5E7     		b	.L196
 2125              	.L208:
 2126              		.align	2
 2127              	.L207:
 2128 0058 00280040 		.word	1073752064
 2129              		.cfi_endproc
 2130              	.LFE130:
 2131              		.size	RTC_AlarmCmd, .-RTC_AlarmCmd
 2132              		.section	.text.RTC_AlarmSubSecondConfig,"ax",%progbits
 2133              		.align	1
 2134              		.p2align 4,,15
 2135              		.global	RTC_AlarmSubSecondConfig
 2136              		.syntax unified
 2137              		.thumb
 2138              		.thumb_func
 2139              		.fpu fpv4-sp-d16
 2140              		.type	RTC_AlarmSubSecondConfig, %function
 2141              	RTC_AlarmSubSecondConfig:
 2142              	.LFB131:
 2143              		.loc 1 1403 0
 2144              		.cfi_startproc
 2145              		@ args = 0, pretend = 0, frame = 0
 2146              		@ frame_needed = 0, uses_anonymous_args = 0
 2147              		@ link register save eliminated.
 2148              	.LVL174:
 2149 0000 30B4     		push	{r4, r5}
 2150              		.cfi_def_cfa_offset 8
 2151              		.cfi_offset 4, -8
 2152              		.cfi_offset 5, -4
 2153              		.loc 1 1412 0
 2154 0002 084B     		ldr	r3, .L213
 2155              		.loc 1 1416 0
 2156 0004 0A43     		orrs	r2, r2, r1
 2157              	.LVL175:
 2158              		.loc 1 1412 0
 2159 0006 CA25     		movs	r5, #202
 2160              		.loc 1 1413 0
 2161 0008 5324     		movs	r4, #83
 2162              		.loc 1 1418 0
 2163 000a B0F5807F 		cmp	r0, #256
 2164              		.loc 1 1412 0
 2165 000e 5D62     		str	r5, [r3, #36]
 2166              		.loc 1 1413 0
ARM GAS  /tmp/cc65ENol.s 			page 39


 2167 0010 5C62     		str	r4, [r3, #36]
 2168              		.loc 1 1421 0
 2169 0012 0CBF     		ite	eq
 2170 0014 5A64     		streq	r2, [r3, #68]
 2171              		.loc 1 1426 0
 2172 0016 9A64     		strne	r2, [r3, #72]
 2173              		.loc 1 1430 0
 2174 0018 024B     		ldr	r3, .L213
 2175 001a FF22     		movs	r2, #255
 2176              	.LVL176:
 2177 001c 5A62     		str	r2, [r3, #36]
 2178              		.loc 1 1432 0
 2179 001e 30BC     		pop	{r4, r5}
 2180              		.cfi_restore 5
 2181              		.cfi_restore 4
 2182              		.cfi_def_cfa_offset 0
 2183 0020 7047     		bx	lr
 2184              	.L214:
 2185 0022 00BF     		.align	2
 2186              	.L213:
 2187 0024 00280040 		.word	1073752064
 2188              		.cfi_endproc
 2189              	.LFE131:
 2190              		.size	RTC_AlarmSubSecondConfig, .-RTC_AlarmSubSecondConfig
 2191              		.section	.text.RTC_GetAlarmSubSecond,"ax",%progbits
 2192              		.align	1
 2193              		.p2align 4,,15
 2194              		.global	RTC_GetAlarmSubSecond
 2195              		.syntax unified
 2196              		.thumb
 2197              		.thumb_func
 2198              		.fpu fpv4-sp-d16
 2199              		.type	RTC_GetAlarmSubSecond, %function
 2200              	RTC_GetAlarmSubSecond:
 2201              	.LFB132:
 2202              		.loc 1 1444 0
 2203              		.cfi_startproc
 2204              		@ args = 0, pretend = 0, frame = 0
 2205              		@ frame_needed = 0, uses_anonymous_args = 0
 2206              		@ link register save eliminated.
 2207              	.LVL177:
 2208              		.loc 1 1450 0
 2209 0000 044B     		ldr	r3, .L218
 2210              		.loc 1 1448 0
 2211 0002 B0F5807F 		cmp	r0, #256
 2212              		.loc 1 1450 0
 2213 0006 0CBF     		ite	eq
 2214 0008 586C     		ldreq	r0, [r3, #68]
 2215              	.LVL178:
 2216              		.loc 1 1454 0
 2217 000a 986C     		ldrne	r0, [r3, #72]
 2218 000c C0F30E00 		ubfx	r0, r0, #0, #15
 2219              	.LVL179:
 2220              		.loc 1 1458 0
 2221 0010 7047     		bx	lr
 2222              	.L219:
 2223 0012 00BF     		.align	2
ARM GAS  /tmp/cc65ENol.s 			page 40


 2224              	.L218:
 2225 0014 00280040 		.word	1073752064
 2226              		.cfi_endproc
 2227              	.LFE132:
 2228              		.size	RTC_GetAlarmSubSecond, .-RTC_GetAlarmSubSecond
 2229              		.section	.text.RTC_WakeUpClockConfig,"ax",%progbits
 2230              		.align	1
 2231              		.p2align 4,,15
 2232              		.global	RTC_WakeUpClockConfig
 2233              		.syntax unified
 2234              		.thumb
 2235              		.thumb_func
 2236              		.fpu fpv4-sp-d16
 2237              		.type	RTC_WakeUpClockConfig, %function
 2238              	RTC_WakeUpClockConfig:
 2239              	.LFB133:
 2240              		.loc 1 1493 0
 2241              		.cfi_startproc
 2242              		@ args = 0, pretend = 0, frame = 0
 2243              		@ frame_needed = 0, uses_anonymous_args = 0
 2244              		@ link register save eliminated.
 2245              	.LVL180:
 2246              		.loc 1 1498 0
 2247 0000 074B     		ldr	r3, .L221
 2248 0002 CA21     		movs	r1, #202
 2249              		.loc 1 1499 0
 2250 0004 5322     		movs	r2, #83
 2251              		.loc 1 1498 0
 2252 0006 5962     		str	r1, [r3, #36]
 2253              		.loc 1 1499 0
 2254 0008 5A62     		str	r2, [r3, #36]
 2255              		.loc 1 1502 0
 2256 000a 9A68     		ldr	r2, [r3, #8]
 2257 000c 22F00702 		bic	r2, r2, #7
 2258 0010 9A60     		str	r2, [r3, #8]
 2259              		.loc 1 1505 0
 2260 0012 9A68     		ldr	r2, [r3, #8]
 2261              		.loc 1 1508 0
 2262 0014 FF21     		movs	r1, #255
 2263              		.loc 1 1505 0
 2264 0016 1043     		orrs	r0, r0, r2
 2265              	.LVL181:
 2266 0018 9860     		str	r0, [r3, #8]
 2267              		.loc 1 1508 0
 2268 001a 5962     		str	r1, [r3, #36]
 2269              		.loc 1 1509 0
 2270 001c 7047     		bx	lr
 2271              	.L222:
 2272 001e 00BF     		.align	2
 2273              	.L221:
 2274 0020 00280040 		.word	1073752064
 2275              		.cfi_endproc
 2276              	.LFE133:
 2277              		.size	RTC_WakeUpClockConfig, .-RTC_WakeUpClockConfig
 2278              		.section	.text.RTC_SetWakeUpCounter,"ax",%progbits
 2279              		.align	1
 2280              		.p2align 4,,15
ARM GAS  /tmp/cc65ENol.s 			page 41


 2281              		.global	RTC_SetWakeUpCounter
 2282              		.syntax unified
 2283              		.thumb
 2284              		.thumb_func
 2285              		.fpu fpv4-sp-d16
 2286              		.type	RTC_SetWakeUpCounter, %function
 2287              	RTC_SetWakeUpCounter:
 2288              	.LFB134:
 2289              		.loc 1 1520 0
 2290              		.cfi_startproc
 2291              		@ args = 0, pretend = 0, frame = 0
 2292              		@ frame_needed = 0, uses_anonymous_args = 0
 2293              		@ link register save eliminated.
 2294              	.LVL182:
 2295              		.loc 1 1525 0
 2296 0000 054B     		ldr	r3, .L225
 2297              		.loc 1 1520 0
 2298 0002 10B4     		push	{r4}
 2299              		.cfi_def_cfa_offset 4
 2300              		.cfi_offset 4, -4
 2301              		.loc 1 1526 0
 2302 0004 5321     		movs	r1, #83
 2303              		.loc 1 1525 0
 2304 0006 CA24     		movs	r4, #202
 2305              		.loc 1 1532 0
 2306 0008 FF22     		movs	r2, #255
 2307              		.loc 1 1525 0
 2308 000a 5C62     		str	r4, [r3, #36]
 2309              		.loc 1 1526 0
 2310 000c 5962     		str	r1, [r3, #36]
 2311              		.loc 1 1533 0
 2312 000e 5DF8044B 		ldr	r4, [sp], #4
 2313              		.cfi_restore 4
 2314              		.cfi_def_cfa_offset 0
 2315              		.loc 1 1529 0
 2316 0012 5861     		str	r0, [r3, #20]
 2317              		.loc 1 1532 0
 2318 0014 5A62     		str	r2, [r3, #36]
 2319              		.loc 1 1533 0
 2320 0016 7047     		bx	lr
 2321              	.L226:
 2322              		.align	2
 2323              	.L225:
 2324 0018 00280040 		.word	1073752064
 2325              		.cfi_endproc
 2326              	.LFE134:
 2327              		.size	RTC_SetWakeUpCounter, .-RTC_SetWakeUpCounter
 2328              		.section	.text.RTC_GetWakeUpCounter,"ax",%progbits
 2329              		.align	1
 2330              		.p2align 4,,15
 2331              		.global	RTC_GetWakeUpCounter
 2332              		.syntax unified
 2333              		.thumb
 2334              		.thumb_func
 2335              		.fpu fpv4-sp-d16
 2336              		.type	RTC_GetWakeUpCounter, %function
 2337              	RTC_GetWakeUpCounter:
ARM GAS  /tmp/cc65ENol.s 			page 42


 2338              	.LFB135:
 2339              		.loc 1 1541 0
 2340              		.cfi_startproc
 2341              		@ args = 0, pretend = 0, frame = 0
 2342              		@ frame_needed = 0, uses_anonymous_args = 0
 2343              		@ link register save eliminated.
 2344              		.loc 1 1543 0
 2345 0000 014B     		ldr	r3, .L228
 2346 0002 5869     		ldr	r0, [r3, #20]
 2347              		.loc 1 1544 0
 2348 0004 80B2     		uxth	r0, r0
 2349 0006 7047     		bx	lr
 2350              	.L229:
 2351              		.align	2
 2352              	.L228:
 2353 0008 00280040 		.word	1073752064
 2354              		.cfi_endproc
 2355              	.LFE135:
 2356              		.size	RTC_GetWakeUpCounter, .-RTC_GetWakeUpCounter
 2357              		.section	.text.RTC_WakeUpCmd,"ax",%progbits
 2358              		.align	1
 2359              		.p2align 4,,15
 2360              		.global	RTC_WakeUpCmd
 2361              		.syntax unified
 2362              		.thumb
 2363              		.thumb_func
 2364              		.fpu fpv4-sp-d16
 2365              		.type	RTC_WakeUpCmd, %function
 2366              	RTC_WakeUpCmd:
 2367              	.LFB136:
 2368              		.loc 1 1553 0
 2369              		.cfi_startproc
 2370              		@ args = 0, pretend = 0, frame = 8
 2371              		@ frame_needed = 0, uses_anonymous_args = 0
 2372              		@ link register save eliminated.
 2373              	.LVL183:
 2374 0000 10B4     		push	{r4}
 2375              		.cfi_def_cfa_offset 4
 2376              		.cfi_offset 4, -4
 2377              		.loc 1 1562 0
 2378 0002 154B     		ldr	r3, .L243
 2379              		.loc 1 1553 0
 2380 0004 83B0     		sub	sp, sp, #12
 2381              		.cfi_def_cfa_offset 16
 2382              		.loc 1 1563 0
 2383 0006 5322     		movs	r2, #83
 2384              		.loc 1 1554 0
 2385 0008 0024     		movs	r4, #0
 2386              		.loc 1 1562 0
 2387 000a CA21     		movs	r1, #202
 2388              		.loc 1 1554 0
 2389 000c 0194     		str	r4, [sp, #4]
 2390              	.LVL184:
 2391              		.loc 1 1562 0
 2392 000e 5962     		str	r1, [r3, #36]
 2393              		.loc 1 1563 0
 2394 0010 5A62     		str	r2, [r3, #36]
ARM GAS  /tmp/cc65ENol.s 			page 43


 2395              		.loc 1 1568 0
 2396 0012 9A68     		ldr	r2, [r3, #8]
 2397              		.loc 1 1565 0
 2398 0014 D0B9     		cbnz	r0, .L241
 2399              		.loc 1 1574 0
 2400 0016 22F48062 		bic	r2, r2, #1024
 2401 001a 9A60     		str	r2, [r3, #8]
 2402              		.loc 1 1578 0
 2403 001c 1946     		mov	r1, r3
 2404 001e 00E0     		b	.L234
 2405              	.LVL185:
 2406              	.L242:
 2407              		.loc 1 1580 0 discriminator 1
 2408 0020 4AB9     		cbnz	r2, .L233
 2409              	.LVL186:
 2410              	.L234:
 2411              		.loc 1 1578 0 discriminator 2
 2412 0022 CA68     		ldr	r2, [r1, #12]
 2413              		.loc 1 1579 0 discriminator 2
 2414 0024 019B     		ldr	r3, [sp, #4]
 2415 0026 0133     		adds	r3, r3, #1
 2416 0028 0193     		str	r3, [sp, #4]
 2417              		.loc 1 1580 0 discriminator 2
 2418 002a 019B     		ldr	r3, [sp, #4]
 2419 002c B3F5803F 		cmp	r3, #65536
 2420              		.loc 1 1578 0 discriminator 2
 2421 0030 02F00402 		and	r2, r2, #4
 2422              	.LVL187:
 2423              		.loc 1 1580 0 discriminator 2
 2424 0034 F4D1     		bne	.L242
 2425              	.L233:
 2426              		.loc 1 1582 0
 2427 0036 084B     		ldr	r3, .L243
 2428 0038 D868     		ldr	r0, [r3, #12]
 2429              	.LVL188:
 2430              		.loc 1 1569 0
 2431 003a C0F38000 		ubfx	r0, r0, #2, #1
 2432              	.LVL189:
 2433              	.L232:
 2434              		.loc 1 1593 0
 2435 003e 064B     		ldr	r3, .L243
 2436 0040 FF22     		movs	r2, #255
 2437 0042 5A62     		str	r2, [r3, #36]
 2438              		.loc 1 1596 0
 2439 0044 03B0     		add	sp, sp, #12
 2440              		.cfi_remember_state
 2441              		.cfi_def_cfa_offset 4
 2442              		@ sp needed
 2443 0046 5DF8044B 		ldr	r4, [sp], #4
 2444              		.cfi_restore 4
 2445              		.cfi_def_cfa_offset 0
 2446 004a 7047     		bx	lr
 2447              	.LVL190:
 2448              	.L241:
 2449              		.cfi_restore_state
 2450              		.loc 1 1568 0
 2451 004c 42F48062 		orr	r2, r2, #1024
ARM GAS  /tmp/cc65ENol.s 			page 44


 2452 0050 9A60     		str	r2, [r3, #8]
 2453              	.LVL191:
 2454              		.loc 1 1569 0
 2455 0052 0120     		movs	r0, #1
 2456              	.LVL192:
 2457 0054 F3E7     		b	.L232
 2458              	.L244:
 2459 0056 00BF     		.align	2
 2460              	.L243:
 2461 0058 00280040 		.word	1073752064
 2462              		.cfi_endproc
 2463              	.LFE136:
 2464              		.size	RTC_WakeUpCmd, .-RTC_WakeUpCmd
 2465              		.section	.text.RTC_DayLightSavingConfig,"ax",%progbits
 2466              		.align	1
 2467              		.p2align 4,,15
 2468              		.global	RTC_DayLightSavingConfig
 2469              		.syntax unified
 2470              		.thumb
 2471              		.thumb_func
 2472              		.fpu fpv4-sp-d16
 2473              		.type	RTC_DayLightSavingConfig, %function
 2474              	RTC_DayLightSavingConfig:
 2475              	.LFB137:
 2476              		.loc 1 1630 0
 2477              		.cfi_startproc
 2478              		@ args = 0, pretend = 0, frame = 0
 2479              		@ frame_needed = 0, uses_anonymous_args = 0
 2480              		@ link register save eliminated.
 2481              	.LVL193:
 2482              		.loc 1 1636 0
 2483 0000 094B     		ldr	r3, .L247
 2484              		.loc 1 1630 0
 2485 0002 10B4     		push	{r4}
 2486              		.cfi_def_cfa_offset 4
 2487              		.cfi_offset 4, -4
 2488              		.loc 1 1637 0
 2489 0004 5322     		movs	r2, #83
 2490              		.loc 1 1636 0
 2491 0006 CA24     		movs	r4, #202
 2492 0008 5C62     		str	r4, [r3, #36]
 2493              		.loc 1 1637 0
 2494 000a 5A62     		str	r2, [r3, #36]
 2495              		.loc 1 1640 0
 2496 000c 9A68     		ldr	r2, [r3, #8]
 2497              		.loc 1 1647 0
 2498 000e 5DF8044B 		ldr	r4, [sp], #4
 2499              		.cfi_restore 4
 2500              		.cfi_def_cfa_offset 0
 2501              		.loc 1 1640 0
 2502 0012 22F48022 		bic	r2, r2, #262144
 2503 0016 9A60     		str	r2, [r3, #8]
 2504              		.loc 1 1643 0
 2505 0018 9A68     		ldr	r2, [r3, #8]
 2506 001a 1143     		orrs	r1, r1, r2
 2507              	.LVL194:
 2508 001c 0143     		orrs	r1, r1, r0
ARM GAS  /tmp/cc65ENol.s 			page 45


 2509              		.loc 1 1646 0
 2510 001e FF22     		movs	r2, #255
 2511              		.loc 1 1643 0
 2512 0020 9960     		str	r1, [r3, #8]
 2513              		.loc 1 1646 0
 2514 0022 5A62     		str	r2, [r3, #36]
 2515              		.loc 1 1647 0
 2516 0024 7047     		bx	lr
 2517              	.L248:
 2518 0026 00BF     		.align	2
 2519              	.L247:
 2520 0028 00280040 		.word	1073752064
 2521              		.cfi_endproc
 2522              	.LFE137:
 2523              		.size	RTC_DayLightSavingConfig, .-RTC_DayLightSavingConfig
 2524              		.section	.text.RTC_GetStoreOperation,"ax",%progbits
 2525              		.align	1
 2526              		.p2align 4,,15
 2527              		.global	RTC_GetStoreOperation
 2528              		.syntax unified
 2529              		.thumb
 2530              		.thumb_func
 2531              		.fpu fpv4-sp-d16
 2532              		.type	RTC_GetStoreOperation, %function
 2533              	RTC_GetStoreOperation:
 2534              	.LFB138:
 2535              		.loc 1 1657 0
 2536              		.cfi_startproc
 2537              		@ args = 0, pretend = 0, frame = 0
 2538              		@ frame_needed = 0, uses_anonymous_args = 0
 2539              		@ link register save eliminated.
 2540              		.loc 1 1658 0
 2541 0000 024B     		ldr	r3, .L250
 2542 0002 9868     		ldr	r0, [r3, #8]
 2543              		.loc 1 1659 0
 2544 0004 00F48020 		and	r0, r0, #262144
 2545 0008 7047     		bx	lr
 2546              	.L251:
 2547 000a 00BF     		.align	2
 2548              	.L250:
 2549 000c 00280040 		.word	1073752064
 2550              		.cfi_endproc
 2551              	.LFE138:
 2552              		.size	RTC_GetStoreOperation, .-RTC_GetStoreOperation
 2553              		.section	.text.RTC_OutputConfig,"ax",%progbits
 2554              		.align	1
 2555              		.p2align 4,,15
 2556              		.global	RTC_OutputConfig
 2557              		.syntax unified
 2558              		.thumb
 2559              		.thumb_func
 2560              		.fpu fpv4-sp-d16
 2561              		.type	RTC_OutputConfig, %function
 2562              	RTC_OutputConfig:
 2563              	.LFB139:
 2564              		.loc 1 1696 0
 2565              		.cfi_startproc
ARM GAS  /tmp/cc65ENol.s 			page 46


 2566              		@ args = 0, pretend = 0, frame = 0
 2567              		@ frame_needed = 0, uses_anonymous_args = 0
 2568              		@ link register save eliminated.
 2569              	.LVL195:
 2570              		.loc 1 1702 0
 2571 0000 094B     		ldr	r3, .L254
 2572              		.loc 1 1696 0
 2573 0002 10B4     		push	{r4}
 2574              		.cfi_def_cfa_offset 4
 2575              		.cfi_offset 4, -4
 2576              		.loc 1 1703 0
 2577 0004 5322     		movs	r2, #83
 2578              		.loc 1 1702 0
 2579 0006 CA24     		movs	r4, #202
 2580 0008 5C62     		str	r4, [r3, #36]
 2581              		.loc 1 1703 0
 2582 000a 5A62     		str	r2, [r3, #36]
 2583              		.loc 1 1706 0
 2584 000c 9A68     		ldr	r2, [r3, #8]
 2585              		.loc 1 1713 0
 2586 000e 5DF8044B 		ldr	r4, [sp], #4
 2587              		.cfi_restore 4
 2588              		.cfi_def_cfa_offset 0
 2589              		.loc 1 1706 0
 2590 0012 22F4E002 		bic	r2, r2, #7340032
 2591 0016 9A60     		str	r2, [r3, #8]
 2592              		.loc 1 1709 0
 2593 0018 9A68     		ldr	r2, [r3, #8]
 2594 001a 1143     		orrs	r1, r1, r2
 2595              	.LVL196:
 2596 001c 0143     		orrs	r1, r1, r0
 2597              		.loc 1 1712 0
 2598 001e FF22     		movs	r2, #255
 2599              		.loc 1 1709 0
 2600 0020 9960     		str	r1, [r3, #8]
 2601              		.loc 1 1712 0
 2602 0022 5A62     		str	r2, [r3, #36]
 2603              		.loc 1 1713 0
 2604 0024 7047     		bx	lr
 2605              	.L255:
 2606 0026 00BF     		.align	2
 2607              	.L254:
 2608 0028 00280040 		.word	1073752064
 2609              		.cfi_endproc
 2610              	.LFE139:
 2611              		.size	RTC_OutputConfig, .-RTC_OutputConfig
 2612              		.section	.text.RTC_CoarseCalibConfig,"ax",%progbits
 2613              		.align	1
 2614              		.p2align 4,,15
 2615              		.global	RTC_CoarseCalibConfig
 2616              		.syntax unified
 2617              		.thumb
 2618              		.thumb_func
 2619              		.fpu fpv4-sp-d16
 2620              		.type	RTC_CoarseCalibConfig, %function
 2621              	RTC_CoarseCalibConfig:
 2622              	.LFB140:
ARM GAS  /tmp/cc65ENol.s 			page 47


 2623              		.loc 1 1750 0
 2624              		.cfi_startproc
 2625              		@ args = 0, pretend = 0, frame = 0
 2626              		@ frame_needed = 0, uses_anonymous_args = 0
 2627              	.LVL197:
 2628 0000 70B5     		push	{r4, r5, r6, lr}
 2629              		.cfi_def_cfa_offset 16
 2630              		.cfi_offset 4, -16
 2631              		.cfi_offset 5, -12
 2632              		.cfi_offset 6, -8
 2633              		.cfi_offset 14, -4
 2634              		.loc 1 1758 0
 2635 0002 0A4C     		ldr	r4, .L262
 2636 0004 CA22     		movs	r2, #202
 2637              		.loc 1 1759 0
 2638 0006 5323     		movs	r3, #83
 2639              		.loc 1 1758 0
 2640 0008 6262     		str	r2, [r4, #36]
 2641              		.loc 1 1759 0
 2642 000a 6362     		str	r3, [r4, #36]
 2643              		.loc 1 1750 0
 2644 000c 0546     		mov	r5, r0
 2645 000e 0E46     		mov	r6, r1
 2646              		.loc 1 1762 0
 2647 0010 FFF7FEFF 		bl	RTC_EnterInitMode
 2648              	.LVL198:
 2649 0014 30B1     		cbz	r0, .L257
 2650              		.loc 1 1769 0
 2651 0016 3543     		orrs	r5, r5, r6
 2652              	.LVL199:
 2653 0018 A561     		str	r5, [r4, #24]
 2654              	.LBB200:
 2655              	.LBB201:
 2656              		.loc 1 598 0
 2657 001a E368     		ldr	r3, [r4, #12]
 2658 001c 23F08003 		bic	r3, r3, #128
 2659 0020 E360     		str	r3, [r4, #12]
 2660              	.LVL200:
 2661              	.LBE201:
 2662              	.LBE200:
 2663              		.loc 1 1773 0
 2664 0022 0120     		movs	r0, #1
 2665              	.LVL201:
 2666              	.L257:
 2667              		.loc 1 1777 0
 2668 0024 014B     		ldr	r3, .L262
 2669 0026 FF22     		movs	r2, #255
 2670 0028 5A62     		str	r2, [r3, #36]
 2671              		.loc 1 1780 0
 2672 002a 70BD     		pop	{r4, r5, r6, pc}
 2673              	.LVL202:
 2674              	.L263:
 2675              		.align	2
 2676              	.L262:
 2677 002c 00280040 		.word	1073752064
 2678              		.cfi_endproc
 2679              	.LFE140:
ARM GAS  /tmp/cc65ENol.s 			page 48


 2680              		.size	RTC_CoarseCalibConfig, .-RTC_CoarseCalibConfig
 2681              		.section	.text.RTC_CoarseCalibCmd,"ax",%progbits
 2682              		.align	1
 2683              		.p2align 4,,15
 2684              		.global	RTC_CoarseCalibCmd
 2685              		.syntax unified
 2686              		.thumb
 2687              		.thumb_func
 2688              		.fpu fpv4-sp-d16
 2689              		.type	RTC_CoarseCalibCmd, %function
 2690              	RTC_CoarseCalibCmd:
 2691              	.LFB141:
 2692              		.loc 1 1791 0
 2693              		.cfi_startproc
 2694              		@ args = 0, pretend = 0, frame = 0
 2695              		@ frame_needed = 0, uses_anonymous_args = 0
 2696              	.LVL203:
 2697 0000 38B5     		push	{r3, r4, r5, lr}
 2698              		.cfi_def_cfa_offset 16
 2699              		.cfi_offset 3, -16
 2700              		.cfi_offset 4, -12
 2701              		.cfi_offset 5, -8
 2702              		.cfi_offset 14, -4
 2703              		.loc 1 1798 0
 2704 0002 0E4C     		ldr	r4, .L273
 2705 0004 CA22     		movs	r2, #202
 2706              		.loc 1 1799 0
 2707 0006 5323     		movs	r3, #83
 2708              		.loc 1 1798 0
 2709 0008 6262     		str	r2, [r4, #36]
 2710              		.loc 1 1799 0
 2711 000a 6362     		str	r3, [r4, #36]
 2712              		.loc 1 1791 0
 2713 000c 0546     		mov	r5, r0
 2714              		.loc 1 1802 0
 2715 000e FFF7FEFF 		bl	RTC_EnterInitMode
 2716              	.LVL204:
 2717 0012 50B1     		cbz	r0, .L265
 2718              		.loc 1 1811 0
 2719 0014 A368     		ldr	r3, [r4, #8]
 2720              		.loc 1 1808 0
 2721 0016 65B9     		cbnz	r5, .L272
 2722              		.loc 1 1816 0
 2723 0018 23F08003 		bic	r3, r3, #128
 2724 001c A360     		str	r3, [r4, #8]
 2725              	.L267:
 2726              	.LBB202:
 2727              	.LBB203:
 2728              		.loc 1 598 0
 2729 001e 074A     		ldr	r2, .L273
 2730 0020 D368     		ldr	r3, [r2, #12]
 2731 0022 23F08003 		bic	r3, r3, #128
 2732 0026 D360     		str	r3, [r2, #12]
 2733              	.LVL205:
 2734              	.LBE203:
 2735              	.LBE202:
 2736              		.loc 1 1821 0
ARM GAS  /tmp/cc65ENol.s 			page 49


 2737 0028 0120     		movs	r0, #1
 2738              	.LVL206:
 2739              	.L265:
 2740              		.loc 1 1825 0
 2741 002a 044B     		ldr	r3, .L273
 2742 002c FF22     		movs	r2, #255
 2743 002e 5A62     		str	r2, [r3, #36]
 2744              		.loc 1 1828 0
 2745 0030 38BD     		pop	{r3, r4, r5, pc}
 2746              	.LVL207:
 2747              	.L272:
 2748              		.loc 1 1811 0
 2749 0032 43F08003 		orr	r3, r3, #128
 2750 0036 A360     		str	r3, [r4, #8]
 2751 0038 F1E7     		b	.L267
 2752              	.L274:
 2753 003a 00BF     		.align	2
 2754              	.L273:
 2755 003c 00280040 		.word	1073752064
 2756              		.cfi_endproc
 2757              	.LFE141:
 2758              		.size	RTC_CoarseCalibCmd, .-RTC_CoarseCalibCmd
 2759              		.section	.text.RTC_CalibOutputCmd,"ax",%progbits
 2760              		.align	1
 2761              		.p2align 4,,15
 2762              		.global	RTC_CalibOutputCmd
 2763              		.syntax unified
 2764              		.thumb
 2765              		.thumb_func
 2766              		.fpu fpv4-sp-d16
 2767              		.type	RTC_CalibOutputCmd, %function
 2768              	RTC_CalibOutputCmd:
 2769              	.LFB142:
 2770              		.loc 1 1837 0
 2771              		.cfi_startproc
 2772              		@ args = 0, pretend = 0, frame = 0
 2773              		@ frame_needed = 0, uses_anonymous_args = 0
 2774              		@ link register save eliminated.
 2775              	.LVL208:
 2776              		.loc 1 1842 0
 2777 0000 0A4B     		ldr	r3, .L279
 2778              		.loc 1 1843 0
 2779 0002 5322     		movs	r2, #83
 2780              		.loc 1 1842 0
 2781 0004 CA21     		movs	r1, #202
 2782 0006 5962     		str	r1, [r3, #36]
 2783              		.loc 1 1843 0
 2784 0008 5A62     		str	r2, [r3, #36]
 2785              		.loc 1 1848 0
 2786 000a 9A68     		ldr	r2, [r3, #8]
 2787              		.loc 1 1845 0
 2788 000c 30B9     		cbnz	r0, .L278
 2789              		.loc 1 1853 0
 2790 000e 22F40002 		bic	r2, r2, #8388608
 2791 0012 9A60     		str	r2, [r3, #8]
 2792              		.loc 1 1857 0
 2793 0014 054B     		ldr	r3, .L279
ARM GAS  /tmp/cc65ENol.s 			page 50


 2794 0016 FF22     		movs	r2, #255
 2795 0018 5A62     		str	r2, [r3, #36]
 2796              		.loc 1 1858 0
 2797 001a 7047     		bx	lr
 2798              	.L278:
 2799              		.loc 1 1848 0
 2800 001c 42F40002 		orr	r2, r2, #8388608
 2801 0020 9A60     		str	r2, [r3, #8]
 2802              		.loc 1 1857 0
 2803 0022 024B     		ldr	r3, .L279
 2804 0024 FF22     		movs	r2, #255
 2805 0026 5A62     		str	r2, [r3, #36]
 2806              		.loc 1 1858 0
 2807 0028 7047     		bx	lr
 2808              	.L280:
 2809 002a 00BF     		.align	2
 2810              	.L279:
 2811 002c 00280040 		.word	1073752064
 2812              		.cfi_endproc
 2813              	.LFE142:
 2814              		.size	RTC_CalibOutputCmd, .-RTC_CalibOutputCmd
 2815              		.section	.text.RTC_CalibOutputConfig,"ax",%progbits
 2816              		.align	1
 2817              		.p2align 4,,15
 2818              		.global	RTC_CalibOutputConfig
 2819              		.syntax unified
 2820              		.thumb
 2821              		.thumb_func
 2822              		.fpu fpv4-sp-d16
 2823              		.type	RTC_CalibOutputConfig, %function
 2824              	RTC_CalibOutputConfig:
 2825              	.LFB143:
 2826              		.loc 1 1869 0
 2827              		.cfi_startproc
 2828              		@ args = 0, pretend = 0, frame = 0
 2829              		@ frame_needed = 0, uses_anonymous_args = 0
 2830              		@ link register save eliminated.
 2831              	.LVL209:
 2832              		.loc 1 1874 0
 2833 0000 074B     		ldr	r3, .L282
 2834 0002 CA21     		movs	r1, #202
 2835              		.loc 1 1875 0
 2836 0004 5322     		movs	r2, #83
 2837              		.loc 1 1874 0
 2838 0006 5962     		str	r1, [r3, #36]
 2839              		.loc 1 1875 0
 2840 0008 5A62     		str	r2, [r3, #36]
 2841              		.loc 1 1878 0
 2842 000a 9A68     		ldr	r2, [r3, #8]
 2843 000c 22F40022 		bic	r2, r2, #524288
 2844 0010 9A60     		str	r2, [r3, #8]
 2845              		.loc 1 1881 0
 2846 0012 9A68     		ldr	r2, [r3, #8]
 2847              		.loc 1 1884 0
 2848 0014 FF21     		movs	r1, #255
 2849              		.loc 1 1881 0
 2850 0016 1043     		orrs	r0, r0, r2
ARM GAS  /tmp/cc65ENol.s 			page 51


 2851              	.LVL210:
 2852 0018 9860     		str	r0, [r3, #8]
 2853              		.loc 1 1884 0
 2854 001a 5962     		str	r1, [r3, #36]
 2855              		.loc 1 1885 0
 2856 001c 7047     		bx	lr
 2857              	.L283:
 2858 001e 00BF     		.align	2
 2859              	.L282:
 2860 0020 00280040 		.word	1073752064
 2861              		.cfi_endproc
 2862              	.LFE143:
 2863              		.size	RTC_CalibOutputConfig, .-RTC_CalibOutputConfig
 2864              		.section	.text.RTC_SmoothCalibConfig,"ax",%progbits
 2865              		.align	1
 2866              		.p2align 4,,15
 2867              		.global	RTC_SmoothCalibConfig
 2868              		.syntax unified
 2869              		.thumb
 2870              		.thumb_func
 2871              		.fpu fpv4-sp-d16
 2872              		.type	RTC_SmoothCalibConfig, %function
 2873              	RTC_SmoothCalibConfig:
 2874              	.LFB144:
 2875              		.loc 1 1907 0
 2876              		.cfi_startproc
 2877              		@ args = 0, pretend = 0, frame = 0
 2878              		@ frame_needed = 0, uses_anonymous_args = 0
 2879              		@ link register save eliminated.
 2880              	.LVL211:
 2881 0000 30B4     		push	{r4, r5}
 2882              		.cfi_def_cfa_offset 8
 2883              		.cfi_offset 4, -8
 2884              		.cfi_offset 5, -4
 2885              		.loc 1 1917 0
 2886 0002 114D     		ldr	r5, .L301
 2887 0004 CA24     		movs	r4, #202
 2888              		.loc 1 1918 0
 2889 0006 5323     		movs	r3, #83
 2890              		.loc 1 1917 0
 2891 0008 6C62     		str	r4, [r5, #36]
 2892              		.loc 1 1918 0
 2893 000a 6B62     		str	r3, [r5, #36]
 2894              		.loc 1 1921 0
 2895 000c EB68     		ldr	r3, [r5, #12]
 2896 000e DC03     		lsls	r4, r3, #15
 2897 0010 0AD5     		bpl	.L285
 2898              		.loc 1 1924 0
 2899 0012 EB68     		ldr	r3, [r5, #12]
 2900 0014 DB03     		lsls	r3, r3, #15
 2901 0016 07D5     		bpl	.L285
 2902 0018 4FF40033 		mov	r3, #131072
 2903 001c 01E0     		b	.L286
 2904              	.LVL212:
 2905              	.L300:
 2906              		.loc 1 1924 0 is_stmt 0 discriminator 1
 2907 001e 013B     		subs	r3, r3, #1
ARM GAS  /tmp/cc65ENol.s 			page 52


 2908              	.LVL213:
 2909 0020 02D0     		beq	.L285
 2910              	.LVL214:
 2911              	.L286:
 2912              		.loc 1 1924 0
 2913 0022 EC68     		ldr	r4, [r5, #12]
 2914 0024 E403     		lsls	r4, r4, #15
 2915 0026 FAD4     		bmi	.L300
 2916              	.LVL215:
 2917              	.L285:
 2918              		.loc 1 1931 0 is_stmt 1
 2919 0028 074B     		ldr	r3, .L301
 2920 002a DC68     		ldr	r4, [r3, #12]
 2921 002c E403     		lsls	r4, r4, #15
 2922 002e 08D4     		bmi	.L288
 2923              		.loc 1 1934 0
 2924 0030 1143     		orrs	r1, r1, r2
 2925              	.LVL216:
 2926 0032 0843     		orrs	r0, r0, r1
 2927              	.LVL217:
 2928 0034 D863     		str	r0, [r3, #60]
 2929              	.LVL218:
 2930              		.loc 1 1936 0
 2931 0036 0120     		movs	r0, #1
 2932              	.LVL219:
 2933              	.L287:
 2934              		.loc 1 1944 0
 2935 0038 034B     		ldr	r3, .L301
 2936 003a FF22     		movs	r2, #255
 2937              	.LVL220:
 2938 003c 5A62     		str	r2, [r3, #36]
 2939              		.loc 1 1947 0
 2940 003e 30BC     		pop	{r4, r5}
 2941              		.cfi_remember_state
 2942              		.cfi_restore 5
 2943              		.cfi_restore 4
 2944              		.cfi_def_cfa_offset 0
 2945 0040 7047     		bx	lr
 2946              	.LVL221:
 2947              	.L288:
 2948              		.cfi_restore_state
 2949              		.loc 1 1940 0
 2950 0042 0020     		movs	r0, #0
 2951              	.LVL222:
 2952 0044 F8E7     		b	.L287
 2953              	.L302:
 2954 0046 00BF     		.align	2
 2955              	.L301:
 2956 0048 00280040 		.word	1073752064
 2957              		.cfi_endproc
 2958              	.LFE144:
 2959              		.size	RTC_SmoothCalibConfig, .-RTC_SmoothCalibConfig
 2960              		.section	.text.RTC_TimeStampCmd,"ax",%progbits
 2961              		.align	1
 2962              		.p2align 4,,15
 2963              		.global	RTC_TimeStampCmd
 2964              		.syntax unified
ARM GAS  /tmp/cc65ENol.s 			page 53


 2965              		.thumb
 2966              		.thumb_func
 2967              		.fpu fpv4-sp-d16
 2968              		.type	RTC_TimeStampCmd, %function
 2969              	RTC_TimeStampCmd:
 2970              	.LFB145:
 2971              		.loc 1 1981 0
 2972              		.cfi_startproc
 2973              		@ args = 0, pretend = 0, frame = 0
 2974              		@ frame_needed = 0, uses_anonymous_args = 0
 2975              		@ link register save eliminated.
 2976              	.LVL223:
 2977              		.loc 1 1989 0
 2978 0000 0B4B     		ldr	r3, .L308
 2979 0002 9B68     		ldr	r3, [r3, #8]
 2980 0004 23F40063 		bic	r3, r3, #2048
 2981              		.loc 1 1981 0
 2982 0008 10B4     		push	{r4}
 2983              		.cfi_def_cfa_offset 4
 2984              		.cfi_offset 4, -4
 2985              		.loc 1 1989 0
 2986 000a 23F00803 		bic	r3, r3, #8
 2987              	.LVL224:
 2988              		.loc 1 1992 0
 2989 000e 59B9     		cbnz	r1, .L307
 2990              		.loc 1 1998 0
 2991 0010 0343     		orrs	r3, r3, r0
 2992              	.LVL225:
 2993              	.L305:
 2994              		.loc 1 2002 0
 2995 0012 074A     		ldr	r2, .L308
 2996 0014 CA24     		movs	r4, #202
 2997              		.loc 1 2003 0
 2998 0016 5320     		movs	r0, #83
 2999              	.LVL226:
 3000              		.loc 1 2009 0
 3001 0018 FF21     		movs	r1, #255
 3002              	.LVL227:
 3003              		.loc 1 2002 0
 3004 001a 5462     		str	r4, [r2, #36]
 3005              		.loc 1 2003 0
 3006 001c 5062     		str	r0, [r2, #36]
 3007              		.loc 1 2010 0
 3008 001e 5DF8044B 		ldr	r4, [sp], #4
 3009              		.cfi_remember_state
 3010              		.cfi_restore 4
 3011              		.cfi_def_cfa_offset 0
 3012              		.loc 1 2006 0
 3013 0022 9360     		str	r3, [r2, #8]
 3014              		.loc 1 2009 0
 3015 0024 5162     		str	r1, [r2, #36]
 3016              		.loc 1 2010 0
 3017 0026 7047     		bx	lr
 3018              	.LVL228:
 3019              	.L307:
 3020              		.cfi_restore_state
 3021 0028 43F40063 		orr	r3, r3, #2048
ARM GAS  /tmp/cc65ENol.s 			page 54


 3022              	.LVL229:
 3023              		.loc 1 1994 0
 3024 002c 0343     		orrs	r3, r3, r0
 3025              	.LVL230:
 3026 002e F0E7     		b	.L305
 3027              	.L309:
 3028              		.align	2
 3029              	.L308:
 3030 0030 00280040 		.word	1073752064
 3031              		.cfi_endproc
 3032              	.LFE145:
 3033              		.size	RTC_TimeStampCmd, .-RTC_TimeStampCmd
 3034              		.section	.text.RTC_GetTimeStamp,"ax",%progbits
 3035              		.align	1
 3036              		.p2align 4,,15
 3037              		.global	RTC_GetTimeStamp
 3038              		.syntax unified
 3039              		.thumb
 3040              		.thumb_func
 3041              		.fpu fpv4-sp-d16
 3042              		.type	RTC_GetTimeStamp, %function
 3043              	RTC_GetTimeStamp:
 3044              	.LFB146:
 3045              		.loc 1 2026 0
 3046              		.cfi_startproc
 3047              		@ args = 0, pretend = 0, frame = 0
 3048              		@ frame_needed = 0, uses_anonymous_args = 0
 3049              	.LVL231:
 3050              		.loc 1 2033 0
 3051 0000 2D4B     		ldr	r3, .L313
 3052              		.loc 1 2026 0
 3053 0002 2DE9F043 		push	{r4, r5, r6, r7, r8, r9, lr}
 3054              		.cfi_def_cfa_offset 28
 3055              		.cfi_offset 4, -28
 3056              		.cfi_offset 5, -24
 3057              		.cfi_offset 6, -20
 3058              		.cfi_offset 7, -16
 3059              		.cfi_offset 8, -12
 3060              		.cfi_offset 9, -8
 3061              		.cfi_offset 14, -4
 3062              		.loc 1 2033 0
 3063 0006 1C6B     		ldr	r4, [r3, #48]
 3064              		.loc 1 2034 0
 3065 0008 5B6B     		ldr	r3, [r3, #52]
 3066              		.loc 1 2033 0
 3067 000a 04F07F34 		and	r4, r4, #2139062143
 3068 000e 24F0FE44 		bic	r4, r4, #2130706432
 3069              	.LVL232:
 3070              		.loc 1 2034 0
 3071 0012 23F07F43 		bic	r3, r3, #-16777216
 3072 0016 23F0C003 		bic	r3, r3, #192
 3073              	.LVL233:
 3074              		.loc 1 2037 0
 3075 001a 260C     		lsrs	r6, r4, #16
 3076              		.loc 1 2044 0
 3077 001c C3F3072E 		ubfx	lr, r3, #8, #8
 3078              		.loc 1 2040 0
ARM GAS  /tmp/cc65ENol.s 			page 55


 3079 0020 06F04007 		and	r7, r6, #64
 3080 0024 CF70     		strb	r7, [r1, #3]
 3081              		.loc 1 2038 0
 3082 0026 C4F3062C 		ubfx	ip, r4, #8, #7
 3083              		.loc 1 2045 0
 3084 002a DFB2     		uxtb	r7, r3
 3085              		.loc 1 2037 0
 3086 002c 06F03F08 		and	r8, r6, #63
 3087              		.loc 1 2039 0
 3088 0030 E4B2     		uxtb	r4, r4
 3089              	.LVL234:
 3090              		.loc 1 2043 0
 3091 0032 4FF00009 		mov	r9, #0
 3092              		.loc 1 2044 0
 3093 0036 0EF01F05 		and	r5, lr, #31
 3094              		.loc 1 2046 0
 3095 003a C3F34233 		ubfx	r3, r3, #13, #3
 3096              	.LVL235:
 3097              		.loc 1 2037 0
 3098 003e 81F80080 		strb	r8, [r1]
 3099              		.loc 1 2038 0
 3100 0042 81F801C0 		strb	ip, [r1, #1]
 3101              		.loc 1 2039 0
 3102 0046 8C70     		strb	r4, [r1, #2]
 3103              		.loc 1 2043 0
 3104 0048 82F80390 		strb	r9, [r2, #3]
 3105              		.loc 1 2044 0
 3106 004c 5570     		strb	r5, [r2, #1]
 3107              		.loc 1 2045 0
 3108 004e 9770     		strb	r7, [r2, #2]
 3109              		.loc 1 2046 0
 3110 0050 1370     		strb	r3, [r2]
 3111              		.loc 1 2049 0
 3112 0052 70BB     		cbnz	r0, .L310
 3113              	.LBB204:
 3114              	.LBB205:
 3115              		.loc 1 2743 0
 3116 0054 2D09     		lsrs	r5, r5, #4
 3117              	.LBE205:
 3118              	.LBE204:
 3119              	.LBB208:
 3120              	.LBB209:
 3121 0056 4FEA1810 		lsr	r0, r8, #4
 3122              	.LVL236:
 3123              	.LBE209:
 3124              	.LBE208:
 3125              	.LBB213:
 3126              	.LBB206:
 3127 005a 4FEA8508 		lsl	r8, r5, #2
 3128 005e 4544     		add	r5, r5, r8
 3129              		.loc 1 2744 0
 3130 0060 0EF00F0E 		and	lr, lr, #15
 3131              	.LBE206:
 3132              	.LBE213:
 3133              	.LBB214:
 3134              	.LBB210:
 3135              		.loc 1 2743 0
ARM GAS  /tmp/cc65ENol.s 			page 56


 3136 0064 00EB8000 		add	r0, r0, r0, lsl #2
 3137              	.LBE210:
 3138              	.LBE214:
 3139              	.LBB215:
 3140              	.LBB216:
 3141 0068 4FEA1C19 		lsr	r9, ip, #4
 3142              	.LBE216:
 3143              	.LBE215:
 3144              	.LBB219:
 3145              	.LBB220:
 3146 006c 4FEA1418 		lsr	r8, r4, #4
 3147              	.LBE220:
 3148              	.LBE219:
 3149              	.LBB223:
 3150              	.LBB207:
 3151              		.loc 1 2744 0
 3152 0070 0EEB450E 		add	lr, lr, r5, lsl #1
 3153              	.LBE207:
 3154              	.LBE223:
 3155              	.LBB224:
 3156              	.LBB211:
 3157 0074 06F00F06 		and	r6, r6, #15
 3158              	.LBE211:
 3159              	.LBE224:
 3160              	.LBB225:
 3161              	.LBB226:
 3162              		.loc 1 2743 0
 3163 0078 3D09     		lsrs	r5, r7, #4
 3164              	.LBE226:
 3165              	.LBE225:
 3166              	.LBB229:
 3167              	.LBB212:
 3168              		.loc 1 2744 0
 3169 007a 06EB4006 		add	r6, r6, r0, lsl #1
 3170              	.LBE212:
 3171              	.LBE229:
 3172              	.LBB230:
 3173              	.LBB217:
 3174              		.loc 1 2743 0
 3175 007e 09EB8909 		add	r9, r9, r9, lsl #2
 3176              		.loc 1 2744 0
 3177 0082 0CF00F0C 		and	ip, ip, #15
 3178              	.LBE217:
 3179              	.LBE230:
 3180              	.LBB231:
 3181              	.LBB221:
 3182              		.loc 1 2743 0
 3183 0086 08EB8808 		add	r8, r8, r8, lsl #2
 3184              		.loc 1 2744 0
 3185 008a 04F00F04 		and	r4, r4, #15
 3186              	.LBE221:
 3187              	.LBE231:
 3188              	.LBB232:
 3189              	.LBB227:
 3190              		.loc 1 2743 0
 3191 008e 05EB8505 		add	r5, r5, r5, lsl #2
 3192              		.loc 1 2744 0
ARM GAS  /tmp/cc65ENol.s 			page 57


 3193 0092 07F00F00 		and	r0, r7, #15
 3194              	.LBE227:
 3195              	.LBE232:
 3196              	.LBB233:
 3197              	.LBB218:
 3198 0096 0CEB490C 		add	ip, ip, r9, lsl #1
 3199              	.LBE218:
 3200              	.LBE233:
 3201              	.LBB234:
 3202              	.LBB222:
 3203 009a 04EB4804 		add	r4, r4, r8, lsl #1
 3204              	.LBE222:
 3205              	.LBE234:
 3206              	.LBB235:
 3207              	.LBB228:
 3208 009e 00EB4500 		add	r0, r0, r5, lsl #1
 3209              	.LBE228:
 3210              	.LBE235:
 3211              		.loc 1 2052 0
 3212 00a2 0E70     		strb	r6, [r1]
 3213              		.loc 1 2053 0
 3214 00a4 81F801C0 		strb	ip, [r1, #1]
 3215              		.loc 1 2054 0
 3216 00a8 8C70     		strb	r4, [r1, #2]
 3217              		.loc 1 2057 0
 3218 00aa 82F801E0 		strb	lr, [r2, #1]
 3219              		.loc 1 2059 0
 3220 00ae 1370     		strb	r3, [r2]
 3221              		.loc 1 2058 0
 3222 00b0 9070     		strb	r0, [r2, #2]
 3223              	.L310:
 3224              		.loc 1 2061 0
 3225 00b2 BDE8F083 		pop	{r4, r5, r6, r7, r8, r9, pc}
 3226              	.L314:
 3227 00b6 00BF     		.align	2
 3228              	.L313:
 3229 00b8 00280040 		.word	1073752064
 3230              		.cfi_endproc
 3231              	.LFE146:
 3232              		.size	RTC_GetTimeStamp, .-RTC_GetTimeStamp
 3233              		.section	.text.RTC_GetTimeStampSubSecond,"ax",%progbits
 3234              		.align	1
 3235              		.p2align 4,,15
 3236              		.global	RTC_GetTimeStampSubSecond
 3237              		.syntax unified
 3238              		.thumb
 3239              		.thumb_func
 3240              		.fpu fpv4-sp-d16
 3241              		.type	RTC_GetTimeStampSubSecond, %function
 3242              	RTC_GetTimeStampSubSecond:
 3243              	.LFB147:
 3244              		.loc 1 2069 0
 3245              		.cfi_startproc
 3246              		@ args = 0, pretend = 0, frame = 0
 3247              		@ frame_needed = 0, uses_anonymous_args = 0
 3248              		@ link register save eliminated.
 3249              		.loc 1 2071 0
ARM GAS  /tmp/cc65ENol.s 			page 58


 3250 0000 014B     		ldr	r3, .L316
 3251 0002 986B     		ldr	r0, [r3, #56]
 3252              		.loc 1 2072 0
 3253 0004 7047     		bx	lr
 3254              	.L317:
 3255 0006 00BF     		.align	2
 3256              	.L316:
 3257 0008 00280040 		.word	1073752064
 3258              		.cfi_endproc
 3259              	.LFE147:
 3260              		.size	RTC_GetTimeStampSubSecond, .-RTC_GetTimeStampSubSecond
 3261              		.section	.text.RTC_TamperTriggerConfig,"ax",%progbits
 3262              		.align	1
 3263              		.p2align 4,,15
 3264              		.global	RTC_TamperTriggerConfig
 3265              		.syntax unified
 3266              		.thumb
 3267              		.thumb_func
 3268              		.fpu fpv4-sp-d16
 3269              		.type	RTC_TamperTriggerConfig, %function
 3270              	RTC_TamperTriggerConfig:
 3271              	.LFB148:
 3272              		.loc 1 2104 0
 3273              		.cfi_startproc
 3274              		@ args = 0, pretend = 0, frame = 0
 3275              		@ frame_needed = 0, uses_anonymous_args = 0
 3276              		@ link register save eliminated.
 3277              	.LVL237:
 3278              		.loc 1 2112 0
 3279 0000 054A     		ldr	r2, .L322
 3280 0002 4000     		lsls	r0, r0, #1
 3281              	.LVL238:
 3282 0004 136C     		ldr	r3, [r2, #64]
 3283              		.loc 1 2109 0
 3284 0006 11B1     		cbz	r1, .L321
 3285              		.loc 1 2117 0
 3286 0008 1843     		orrs	r0, r0, r3
 3287 000a 1064     		str	r0, [r2, #64]
 3288              		.loc 1 2119 0
 3289 000c 7047     		bx	lr
 3290              	.L321:
 3291              		.loc 1 2112 0
 3292 000e 23EA0000 		bic	r0, r3, r0
 3293 0012 1064     		str	r0, [r2, #64]
 3294 0014 7047     		bx	lr
 3295              	.L323:
 3296 0016 00BF     		.align	2
 3297              	.L322:
 3298 0018 00280040 		.word	1073752064
 3299              		.cfi_endproc
 3300              	.LFE148:
 3301              		.size	RTC_TamperTriggerConfig, .-RTC_TamperTriggerConfig
 3302              		.section	.text.RTC_TamperCmd,"ax",%progbits
 3303              		.align	1
 3304              		.p2align 4,,15
 3305              		.global	RTC_TamperCmd
 3306              		.syntax unified
ARM GAS  /tmp/cc65ENol.s 			page 59


 3307              		.thumb
 3308              		.thumb_func
 3309              		.fpu fpv4-sp-d16
 3310              		.type	RTC_TamperCmd, %function
 3311              	RTC_TamperCmd:
 3312              	.LFB149:
 3313              		.loc 1 2130 0
 3314              		.cfi_startproc
 3315              		@ args = 0, pretend = 0, frame = 0
 3316              		@ frame_needed = 0, uses_anonymous_args = 0
 3317              		@ link register save eliminated.
 3318              	.LVL239:
 3319              		.loc 1 2138 0
 3320 0000 044A     		ldr	r2, .L328
 3321 0002 136C     		ldr	r3, [r2, #64]
 3322              		.loc 1 2135 0
 3323 0004 19B9     		cbnz	r1, .L327
 3324              		.loc 1 2143 0
 3325 0006 23EA0000 		bic	r0, r3, r0
 3326              	.LVL240:
 3327 000a 1064     		str	r0, [r2, #64]
 3328              		.loc 1 2145 0
 3329 000c 7047     		bx	lr
 3330              	.LVL241:
 3331              	.L327:
 3332              		.loc 1 2138 0
 3333 000e 1843     		orrs	r0, r0, r3
 3334              	.LVL242:
 3335 0010 1064     		str	r0, [r2, #64]
 3336 0012 7047     		bx	lr
 3337              	.L329:
 3338              		.align	2
 3339              	.L328:
 3340 0014 00280040 		.word	1073752064
 3341              		.cfi_endproc
 3342              	.LFE149:
 3343              		.size	RTC_TamperCmd, .-RTC_TamperCmd
 3344              		.section	.text.RTC_TamperFilterConfig,"ax",%progbits
 3345              		.align	1
 3346              		.p2align 4,,15
 3347              		.global	RTC_TamperFilterConfig
 3348              		.syntax unified
 3349              		.thumb
 3350              		.thumb_func
 3351              		.fpu fpv4-sp-d16
 3352              		.type	RTC_TamperFilterConfig, %function
 3353              	RTC_TamperFilterConfig:
 3354              	.LFB150:
 3355              		.loc 1 2161 0
 3356              		.cfi_startproc
 3357              		@ args = 0, pretend = 0, frame = 0
 3358              		@ frame_needed = 0, uses_anonymous_args = 0
 3359              		@ link register save eliminated.
 3360              	.LVL243:
 3361              		.loc 1 2166 0
 3362 0000 044B     		ldr	r3, .L331
 3363 0002 1A6C     		ldr	r2, [r3, #64]
ARM GAS  /tmp/cc65ENol.s 			page 60


 3364 0004 22F4C052 		bic	r2, r2, #6144
 3365 0008 1A64     		str	r2, [r3, #64]
 3366              		.loc 1 2169 0
 3367 000a 1A6C     		ldr	r2, [r3, #64]
 3368 000c 1043     		orrs	r0, r0, r2
 3369              	.LVL244:
 3370 000e 1864     		str	r0, [r3, #64]
 3371              		.loc 1 2170 0
 3372 0010 7047     		bx	lr
 3373              	.L332:
 3374 0012 00BF     		.align	2
 3375              	.L331:
 3376 0014 00280040 		.word	1073752064
 3377              		.cfi_endproc
 3378              	.LFE150:
 3379              		.size	RTC_TamperFilterConfig, .-RTC_TamperFilterConfig
 3380              		.section	.text.RTC_TamperSamplingFreqConfig,"ax",%progbits
 3381              		.align	1
 3382              		.p2align 4,,15
 3383              		.global	RTC_TamperSamplingFreqConfig
 3384              		.syntax unified
 3385              		.thumb
 3386              		.thumb_func
 3387              		.fpu fpv4-sp-d16
 3388              		.type	RTC_TamperSamplingFreqConfig, %function
 3389              	RTC_TamperSamplingFreqConfig:
 3390              	.LFB151:
 3391              		.loc 1 2195 0
 3392              		.cfi_startproc
 3393              		@ args = 0, pretend = 0, frame = 0
 3394              		@ frame_needed = 0, uses_anonymous_args = 0
 3395              		@ link register save eliminated.
 3396              	.LVL245:
 3397              		.loc 1 2200 0
 3398 0000 044B     		ldr	r3, .L334
 3399 0002 1A6C     		ldr	r2, [r3, #64]
 3400 0004 22F4E062 		bic	r2, r2, #1792
 3401 0008 1A64     		str	r2, [r3, #64]
 3402              		.loc 1 2203 0
 3403 000a 1A6C     		ldr	r2, [r3, #64]
 3404 000c 1043     		orrs	r0, r0, r2
 3405              	.LVL246:
 3406 000e 1864     		str	r0, [r3, #64]
 3407              		.loc 1 2204 0
 3408 0010 7047     		bx	lr
 3409              	.L335:
 3410 0012 00BF     		.align	2
 3411              	.L334:
 3412 0014 00280040 		.word	1073752064
 3413              		.cfi_endproc
 3414              	.LFE151:
 3415              		.size	RTC_TamperSamplingFreqConfig, .-RTC_TamperSamplingFreqConfig
 3416              		.section	.text.RTC_TamperPinsPrechargeDuration,"ax",%progbits
 3417              		.align	1
 3418              		.p2align 4,,15
 3419              		.global	RTC_TamperPinsPrechargeDuration
 3420              		.syntax unified
ARM GAS  /tmp/cc65ENol.s 			page 61


 3421              		.thumb
 3422              		.thumb_func
 3423              		.fpu fpv4-sp-d16
 3424              		.type	RTC_TamperPinsPrechargeDuration, %function
 3425              	RTC_TamperPinsPrechargeDuration:
 3426              	.LFB152:
 3427              		.loc 1 2218 0
 3428              		.cfi_startproc
 3429              		@ args = 0, pretend = 0, frame = 0
 3430              		@ frame_needed = 0, uses_anonymous_args = 0
 3431              		@ link register save eliminated.
 3432              	.LVL247:
 3433              		.loc 1 2223 0
 3434 0000 044B     		ldr	r3, .L337
 3435 0002 1A6C     		ldr	r2, [r3, #64]
 3436 0004 22F4C042 		bic	r2, r2, #24576
 3437 0008 1A64     		str	r2, [r3, #64]
 3438              		.loc 1 2226 0
 3439 000a 1A6C     		ldr	r2, [r3, #64]
 3440 000c 1043     		orrs	r0, r0, r2
 3441              	.LVL248:
 3442 000e 1864     		str	r0, [r3, #64]
 3443              		.loc 1 2227 0
 3444 0010 7047     		bx	lr
 3445              	.L338:
 3446 0012 00BF     		.align	2
 3447              	.L337:
 3448 0014 00280040 		.word	1073752064
 3449              		.cfi_endproc
 3450              	.LFE152:
 3451              		.size	RTC_TamperPinsPrechargeDuration, .-RTC_TamperPinsPrechargeDuration
 3452              		.section	.text.RTC_TimeStampOnTamperDetectionCmd,"ax",%progbits
 3453              		.align	1
 3454              		.p2align 4,,15
 3455              		.global	RTC_TimeStampOnTamperDetectionCmd
 3456              		.syntax unified
 3457              		.thumb
 3458              		.thumb_func
 3459              		.fpu fpv4-sp-d16
 3460              		.type	RTC_TimeStampOnTamperDetectionCmd, %function
 3461              	RTC_TimeStampOnTamperDetectionCmd:
 3462              	.LFB153:
 3463              		.loc 1 2238 0
 3464              		.cfi_startproc
 3465              		@ args = 0, pretend = 0, frame = 0
 3466              		@ frame_needed = 0, uses_anonymous_args = 0
 3467              		@ link register save eliminated.
 3468              	.LVL249:
 3469              		.loc 1 2245 0
 3470 0000 054A     		ldr	r2, .L343
 3471 0002 136C     		ldr	r3, [r2, #64]
 3472              		.loc 1 2242 0
 3473 0004 18B9     		cbnz	r0, .L342
 3474              		.loc 1 2250 0
 3475 0006 23F08003 		bic	r3, r3, #128
 3476 000a 1364     		str	r3, [r2, #64]
 3477              		.loc 1 2252 0
ARM GAS  /tmp/cc65ENol.s 			page 62


 3478 000c 7047     		bx	lr
 3479              	.L342:
 3480              		.loc 1 2245 0
 3481 000e 43F08003 		orr	r3, r3, #128
 3482 0012 1364     		str	r3, [r2, #64]
 3483 0014 7047     		bx	lr
 3484              	.L344:
 3485 0016 00BF     		.align	2
 3486              	.L343:
 3487 0018 00280040 		.word	1073752064
 3488              		.cfi_endproc
 3489              	.LFE153:
 3490              		.size	RTC_TimeStampOnTamperDetectionCmd, .-RTC_TimeStampOnTamperDetectionCmd
 3491              		.section	.text.RTC_TamperPullUpCmd,"ax",%progbits
 3492              		.align	1
 3493              		.p2align 4,,15
 3494              		.global	RTC_TamperPullUpCmd
 3495              		.syntax unified
 3496              		.thumb
 3497              		.thumb_func
 3498              		.fpu fpv4-sp-d16
 3499              		.type	RTC_TamperPullUpCmd, %function
 3500              	RTC_TamperPullUpCmd:
 3501              	.LFB154:
 3502              		.loc 1 2261 0
 3503              		.cfi_startproc
 3504              		@ args = 0, pretend = 0, frame = 0
 3505              		@ frame_needed = 0, uses_anonymous_args = 0
 3506              		@ link register save eliminated.
 3507              	.LVL250:
 3508              		.loc 1 2268 0
 3509 0000 054A     		ldr	r2, .L349
 3510 0002 136C     		ldr	r3, [r2, #64]
 3511              		.loc 1 2265 0
 3512 0004 18B9     		cbnz	r0, .L348
 3513              		.loc 1 2273 0
 3514 0006 43F40043 		orr	r3, r3, #32768
 3515 000a 1364     		str	r3, [r2, #64]
 3516              		.loc 1 2275 0
 3517 000c 7047     		bx	lr
 3518              	.L348:
 3519              		.loc 1 2268 0
 3520 000e 23F40043 		bic	r3, r3, #32768
 3521 0012 1364     		str	r3, [r2, #64]
 3522 0014 7047     		bx	lr
 3523              	.L350:
 3524 0016 00BF     		.align	2
 3525              	.L349:
 3526 0018 00280040 		.word	1073752064
 3527              		.cfi_endproc
 3528              	.LFE154:
 3529              		.size	RTC_TamperPullUpCmd, .-RTC_TamperPullUpCmd
 3530              		.section	.text.RTC_WriteBackupRegister,"ax",%progbits
 3531              		.align	1
 3532              		.p2align 4,,15
 3533              		.global	RTC_WriteBackupRegister
 3534              		.syntax unified
ARM GAS  /tmp/cc65ENol.s 			page 63


 3535              		.thumb
 3536              		.thumb_func
 3537              		.fpu fpv4-sp-d16
 3538              		.type	RTC_WriteBackupRegister, %function
 3539              	RTC_WriteBackupRegister:
 3540              	.LFB155:
 3541              		.loc 1 2302 0
 3542              		.cfi_startproc
 3543              		@ args = 0, pretend = 0, frame = 8
 3544              		@ frame_needed = 0, uses_anonymous_args = 0
 3545              		@ link register save eliminated.
 3546              	.LVL251:
 3547 0000 82B0     		sub	sp, sp, #8
 3548              		.cfi_def_cfa_offset 8
 3549              		.loc 1 2303 0
 3550 0002 0022     		movs	r2, #0
 3551              		.loc 1 2308 0
 3552 0004 054B     		ldr	r3, .L353
 3553              		.loc 1 2303 0
 3554 0006 0192     		str	r2, [sp, #4]
 3555              		.loc 1 2308 0
 3556 0008 0193     		str	r3, [sp, #4]
 3557              		.loc 1 2309 0
 3558 000a 019B     		ldr	r3, [sp, #4]
 3559 000c 03EB8000 		add	r0, r3, r0, lsl #2
 3560              	.LVL252:
 3561 0010 0190     		str	r0, [sp, #4]
 3562              		.loc 1 2312 0
 3563 0012 019B     		ldr	r3, [sp, #4]
 3564 0014 1960     		str	r1, [r3]
 3565              		.loc 1 2313 0
 3566 0016 02B0     		add	sp, sp, #8
 3567              		.cfi_def_cfa_offset 0
 3568              		@ sp needed
 3569 0018 7047     		bx	lr
 3570              	.L354:
 3571 001a 00BF     		.align	2
 3572              	.L353:
 3573 001c 50280040 		.word	1073752144
 3574              		.cfi_endproc
 3575              	.LFE155:
 3576              		.size	RTC_WriteBackupRegister, .-RTC_WriteBackupRegister
 3577              		.section	.text.RTC_ReadBackupRegister,"ax",%progbits
 3578              		.align	1
 3579              		.p2align 4,,15
 3580              		.global	RTC_ReadBackupRegister
 3581              		.syntax unified
 3582              		.thumb
 3583              		.thumb_func
 3584              		.fpu fpv4-sp-d16
 3585              		.type	RTC_ReadBackupRegister, %function
 3586              	RTC_ReadBackupRegister:
 3587              	.LFB156:
 3588              		.loc 1 2323 0
 3589              		.cfi_startproc
 3590              		@ args = 0, pretend = 0, frame = 8
 3591              		@ frame_needed = 0, uses_anonymous_args = 0
ARM GAS  /tmp/cc65ENol.s 			page 64


 3592              		@ link register save eliminated.
 3593              	.LVL253:
 3594 0000 82B0     		sub	sp, sp, #8
 3595              		.cfi_def_cfa_offset 8
 3596              		.loc 1 2324 0
 3597 0002 0022     		movs	r2, #0
 3598              		.loc 1 2329 0
 3599 0004 054B     		ldr	r3, .L357
 3600              		.loc 1 2324 0
 3601 0006 0192     		str	r2, [sp, #4]
 3602              		.loc 1 2329 0
 3603 0008 0193     		str	r3, [sp, #4]
 3604              		.loc 1 2330 0
 3605 000a 019B     		ldr	r3, [sp, #4]
 3606 000c 03EB8000 		add	r0, r3, r0, lsl #2
 3607              	.LVL254:
 3608 0010 0190     		str	r0, [sp, #4]
 3609              		.loc 1 2333 0
 3610 0012 019B     		ldr	r3, [sp, #4]
 3611 0014 1868     		ldr	r0, [r3]
 3612              		.loc 1 2334 0
 3613 0016 02B0     		add	sp, sp, #8
 3614              		.cfi_def_cfa_offset 0
 3615              		@ sp needed
 3616 0018 7047     		bx	lr
 3617              	.L358:
 3618 001a 00BF     		.align	2
 3619              	.L357:
 3620 001c 50280040 		.word	1073752144
 3621              		.cfi_endproc
 3622              	.LFE156:
 3623              		.size	RTC_ReadBackupRegister, .-RTC_ReadBackupRegister
 3624              		.section	.text.RTC_TamperPinSelection,"ax",%progbits
 3625              		.align	1
 3626              		.p2align 4,,15
 3627              		.global	RTC_TamperPinSelection
 3628              		.syntax unified
 3629              		.thumb
 3630              		.thumb_func
 3631              		.fpu fpv4-sp-d16
 3632              		.type	RTC_TamperPinSelection, %function
 3633              	RTC_TamperPinSelection:
 3634              	.LFB157:
 3635              		.loc 1 2363 0
 3636              		.cfi_startproc
 3637              		@ args = 0, pretend = 0, frame = 0
 3638              		@ frame_needed = 0, uses_anonymous_args = 0
 3639              		@ link register save eliminated.
 3640              	.LVL255:
 3641              		.loc 1 2367 0
 3642 0000 044B     		ldr	r3, .L360
 3643 0002 1A6C     		ldr	r2, [r3, #64]
 3644 0004 22F48032 		bic	r2, r2, #65536
 3645 0008 1A64     		str	r2, [r3, #64]
 3646              		.loc 1 2368 0
 3647 000a 1A6C     		ldr	r2, [r3, #64]
 3648 000c 1043     		orrs	r0, r0, r2
ARM GAS  /tmp/cc65ENol.s 			page 65


 3649              	.LVL256:
 3650 000e 1864     		str	r0, [r3, #64]
 3651              		.loc 1 2369 0
 3652 0010 7047     		bx	lr
 3653              	.L361:
 3654 0012 00BF     		.align	2
 3655              	.L360:
 3656 0014 00280040 		.word	1073752064
 3657              		.cfi_endproc
 3658              	.LFE157:
 3659              		.size	RTC_TamperPinSelection, .-RTC_TamperPinSelection
 3660              		.section	.text.RTC_TimeStampPinSelection,"ax",%progbits
 3661              		.align	1
 3662              		.p2align 4,,15
 3663              		.global	RTC_TimeStampPinSelection
 3664              		.syntax unified
 3665              		.thumb
 3666              		.thumb_func
 3667              		.fpu fpv4-sp-d16
 3668              		.type	RTC_TimeStampPinSelection, %function
 3669              	RTC_TimeStampPinSelection:
 3670              	.LFB158:
 3671              		.loc 1 2380 0
 3672              		.cfi_startproc
 3673              		@ args = 0, pretend = 0, frame = 0
 3674              		@ frame_needed = 0, uses_anonymous_args = 0
 3675              		@ link register save eliminated.
 3676              	.LVL257:
 3677              		.loc 1 2384 0
 3678 0000 044B     		ldr	r3, .L363
 3679 0002 1A6C     		ldr	r2, [r3, #64]
 3680 0004 22F40032 		bic	r2, r2, #131072
 3681 0008 1A64     		str	r2, [r3, #64]
 3682              		.loc 1 2385 0
 3683 000a 1A6C     		ldr	r2, [r3, #64]
 3684 000c 1043     		orrs	r0, r0, r2
 3685              	.LVL258:
 3686 000e 1864     		str	r0, [r3, #64]
 3687              		.loc 1 2386 0
 3688 0010 7047     		bx	lr
 3689              	.L364:
 3690 0012 00BF     		.align	2
 3691              	.L363:
 3692 0014 00280040 		.word	1073752064
 3693              		.cfi_endproc
 3694              	.LFE158:
 3695              		.size	RTC_TimeStampPinSelection, .-RTC_TimeStampPinSelection
 3696              		.section	.text.RTC_OutputTypeConfig,"ax",%progbits
 3697              		.align	1
 3698              		.p2align 4,,15
 3699              		.global	RTC_OutputTypeConfig
 3700              		.syntax unified
 3701              		.thumb
 3702              		.thumb_func
 3703              		.fpu fpv4-sp-d16
 3704              		.type	RTC_OutputTypeConfig, %function
 3705              	RTC_OutputTypeConfig:
ARM GAS  /tmp/cc65ENol.s 			page 66


 3706              	.LFB159:
 3707              		.loc 1 2399 0
 3708              		.cfi_startproc
 3709              		@ args = 0, pretend = 0, frame = 0
 3710              		@ frame_needed = 0, uses_anonymous_args = 0
 3711              		@ link register save eliminated.
 3712              	.LVL259:
 3713              		.loc 1 2403 0
 3714 0000 044B     		ldr	r3, .L366
 3715 0002 1A6C     		ldr	r2, [r3, #64]
 3716 0004 22F48022 		bic	r2, r2, #262144
 3717 0008 1A64     		str	r2, [r3, #64]
 3718              		.loc 1 2404 0
 3719 000a 1A6C     		ldr	r2, [r3, #64]
 3720 000c 1043     		orrs	r0, r0, r2
 3721              	.LVL260:
 3722 000e 1864     		str	r0, [r3, #64]
 3723              		.loc 1 2405 0
 3724 0010 7047     		bx	lr
 3725              	.L367:
 3726 0012 00BF     		.align	2
 3727              	.L366:
 3728 0014 00280040 		.word	1073752064
 3729              		.cfi_endproc
 3730              	.LFE159:
 3731              		.size	RTC_OutputTypeConfig, .-RTC_OutputTypeConfig
 3732              		.section	.text.RTC_SynchroShiftConfig,"ax",%progbits
 3733              		.align	1
 3734              		.p2align 4,,15
 3735              		.global	RTC_SynchroShiftConfig
 3736              		.syntax unified
 3737              		.thumb
 3738              		.thumb_func
 3739              		.fpu fpv4-sp-d16
 3740              		.type	RTC_SynchroShiftConfig, %function
 3741              	RTC_SynchroShiftConfig:
 3742              	.LFB160:
 3743              		.loc 1 2437 0
 3744              		.cfi_startproc
 3745              		@ args = 0, pretend = 0, frame = 0
 3746              		@ frame_needed = 0, uses_anonymous_args = 0
 3747              	.LVL261:
 3748 0000 10B5     		push	{r4, lr}
 3749              		.cfi_def_cfa_offset 8
 3750              		.cfi_offset 4, -8
 3751              		.cfi_offset 14, -4
 3752              		.loc 1 2446 0
 3753 0002 184C     		ldr	r4, .L387
 3754 0004 CA22     		movs	r2, #202
 3755              		.loc 1 2447 0
 3756 0006 5323     		movs	r3, #83
 3757              		.loc 1 2446 0
 3758 0008 6262     		str	r2, [r4, #36]
 3759              		.loc 1 2447 0
 3760 000a 6362     		str	r3, [r4, #36]
 3761              		.loc 1 2450 0
 3762 000c E368     		ldr	r3, [r4, #12]
ARM GAS  /tmp/cc65ENol.s 			page 67


 3763 000e 1A07     		lsls	r2, r3, #28
 3764 0010 0AD5     		bpl	.L369
 3765              		.loc 1 2453 0
 3766 0012 E368     		ldr	r3, [r4, #12]
 3767 0014 1B07     		lsls	r3, r3, #28
 3768 0016 07D5     		bpl	.L369
 3769 0018 4FF48053 		mov	r3, #4096
 3770 001c 01E0     		b	.L370
 3771              	.LVL262:
 3772              	.L385:
 3773              		.loc 1 2453 0 is_stmt 0 discriminator 1
 3774 001e 013B     		subs	r3, r3, #1
 3775              	.LVL263:
 3776 0020 02D0     		beq	.L369
 3777              	.LVL264:
 3778              	.L370:
 3779              		.loc 1 2453 0
 3780 0022 E268     		ldr	r2, [r4, #12]
 3781 0024 1207     		lsls	r2, r2, #28
 3782 0026 FAD4     		bmi	.L385
 3783              	.LVL265:
 3784              	.L369:
 3785              		.loc 1 2460 0 is_stmt 1
 3786 0028 0E4A     		ldr	r2, .L387
 3787 002a D368     		ldr	r3, [r2, #12]
 3788 002c 13F00803 		ands	r3, r3, #8
 3789 0030 07D1     		bne	.L372
 3790              		.loc 1 2463 0
 3791 0032 9468     		ldr	r4, [r2, #8]
 3792 0034 E406     		lsls	r4, r4, #27
 3793 0036 09D5     		bpl	.L386
 3794              		.loc 1 2484 0
 3795 0038 1846     		mov	r0, r3
 3796              	.LVL266:
 3797              		.loc 1 2488 0
 3798 003a 0A4B     		ldr	r3, .L387
 3799 003c FF22     		movs	r2, #255
 3800 003e 5A62     		str	r2, [r3, #36]
 3801              		.loc 1 2491 0
 3802 0040 10BD     		pop	{r4, pc}
 3803              	.LVL267:
 3804              	.L372:
 3805              		.loc 1 2488 0
 3806 0042 084B     		ldr	r3, .L387
 3807 0044 FF22     		movs	r2, #255
 3808              		.loc 1 2484 0
 3809 0046 0020     		movs	r0, #0
 3810              	.LVL268:
 3811              		.loc 1 2488 0
 3812 0048 5A62     		str	r2, [r3, #36]
 3813              		.loc 1 2491 0
 3814 004a 10BD     		pop	{r4, pc}
 3815              	.LVL269:
 3816              	.L386:
 3817              		.loc 1 2466 0
 3818 004c 0143     		orrs	r1, r1, r0
 3819              	.LVL270:
ARM GAS  /tmp/cc65ENol.s 			page 68


 3820 004e D162     		str	r1, [r2, #44]
 3821              		.loc 1 2468 0
 3822 0050 FFF7FEFF 		bl	RTC_WaitForSynchro
 3823              	.LVL271:
 3824              		.loc 1 2488 0
 3825 0054 034B     		ldr	r3, .L387
 3826              		.loc 1 2479 0
 3827 0056 0030     		adds	r0, r0, #0
 3828              		.loc 1 2488 0
 3829 0058 4FF0FF02 		mov	r2, #255
 3830              		.loc 1 2479 0
 3831 005c 18BF     		it	ne
 3832 005e 0120     		movne	r0, #1
 3833              	.LVL272:
 3834              		.loc 1 2488 0
 3835 0060 5A62     		str	r2, [r3, #36]
 3836              		.loc 1 2491 0
 3837 0062 10BD     		pop	{r4, pc}
 3838              	.L388:
 3839              		.align	2
 3840              	.L387:
 3841 0064 00280040 		.word	1073752064
 3842              		.cfi_endproc
 3843              	.LFE160:
 3844              		.size	RTC_SynchroShiftConfig, .-RTC_SynchroShiftConfig
 3845              		.section	.text.RTC_ITConfig,"ax",%progbits
 3846              		.align	1
 3847              		.p2align 4,,15
 3848              		.global	RTC_ITConfig
 3849              		.syntax unified
 3850              		.thumb
 3851              		.thumb_func
 3852              		.fpu fpv4-sp-d16
 3853              		.type	RTC_ITConfig, %function
 3854              	RTC_ITConfig:
 3855              	.LFB161:
 3856              		.loc 1 2556 0
 3857              		.cfi_startproc
 3858              		@ args = 0, pretend = 0, frame = 0
 3859              		@ frame_needed = 0, uses_anonymous_args = 0
 3860              		@ link register save eliminated.
 3861              	.LVL273:
 3862              		.loc 1 2562 0
 3863 0000 0F4B     		ldr	r3, .L394
 3864              		.loc 1 2556 0
 3865 0002 10B4     		push	{r4}
 3866              		.cfi_def_cfa_offset 4
 3867              		.cfi_offset 4, -4
 3868              		.loc 1 2563 0
 3869 0004 5322     		movs	r2, #83
 3870              		.loc 1 2562 0
 3871 0006 CA24     		movs	r4, #202
 3872 0008 5C62     		str	r4, [r3, #36]
 3873              		.loc 1 2563 0
 3874 000a 5A62     		str	r2, [r3, #36]
 3875 000c 20F00404 		bic	r4, r0, #4
 3876              		.loc 1 2568 0
ARM GAS  /tmp/cc65ENol.s 			page 69


 3877 0010 9A68     		ldr	r2, [r3, #8]
 3878 0012 00F00400 		and	r0, r0, #4
 3879              	.LVL274:
 3880              		.loc 1 2565 0
 3881 0016 61B9     		cbnz	r1, .L393
 3882              		.loc 1 2575 0
 3883 0018 22EA0402 		bic	r2, r2, r4
 3884 001c 9A60     		str	r2, [r3, #8]
 3885              		.loc 1 2577 0
 3886 001e 1A6C     		ldr	r2, [r3, #64]
 3887 0020 22EA0000 		bic	r0, r2, r0
 3888 0024 1864     		str	r0, [r3, #64]
 3889              	.L391:
 3890              		.loc 1 2580 0
 3891 0026 064B     		ldr	r3, .L394
 3892              		.loc 1 2581 0
 3893 0028 5DF8044B 		ldr	r4, [sp], #4
 3894              		.cfi_remember_state
 3895              		.cfi_restore 4
 3896              		.cfi_def_cfa_offset 0
 3897              		.loc 1 2580 0
 3898 002c FF22     		movs	r2, #255
 3899 002e 5A62     		str	r2, [r3, #36]
 3900              		.loc 1 2581 0
 3901 0030 7047     		bx	lr
 3902              	.L393:
 3903              		.cfi_restore_state
 3904              		.loc 1 2568 0
 3905 0032 2243     		orrs	r2, r2, r4
 3906 0034 9A60     		str	r2, [r3, #8]
 3907              		.loc 1 2570 0
 3908 0036 1A6C     		ldr	r2, [r3, #64]
 3909 0038 1043     		orrs	r0, r0, r2
 3910 003a 1864     		str	r0, [r3, #64]
 3911 003c F3E7     		b	.L391
 3912              	.L395:
 3913 003e 00BF     		.align	2
 3914              	.L394:
 3915 0040 00280040 		.word	1073752064
 3916              		.cfi_endproc
 3917              	.LFE161:
 3918              		.size	RTC_ITConfig, .-RTC_ITConfig
 3919              		.section	.text.RTC_GetFlagStatus,"ax",%progbits
 3920              		.align	1
 3921              		.p2align 4,,15
 3922              		.global	RTC_GetFlagStatus
 3923              		.syntax unified
 3924              		.thumb
 3925              		.thumb_func
 3926              		.fpu fpv4-sp-d16
 3927              		.type	RTC_GetFlagStatus, %function
 3928              	RTC_GetFlagStatus:
 3929              	.LFB162:
 3930              		.loc 1 2604 0
 3931              		.cfi_startproc
 3932              		@ args = 0, pretend = 0, frame = 0
 3933              		@ frame_needed = 0, uses_anonymous_args = 0
ARM GAS  /tmp/cc65ENol.s 			page 70


 3934              		@ link register save eliminated.
 3935              	.LVL275:
 3936              		.loc 1 2612 0
 3937 0000 044B     		ldr	r3, .L397
 3938 0002 054A     		ldr	r2, .L397+4
 3939 0004 DB68     		ldr	r3, [r3, #12]
 3940              	.LVL276:
 3941 0006 1340     		ands	r3, r3, r2
 3942              	.LVL277:
 3943              		.loc 1 2615 0
 3944 0008 0342     		tst	r3, r0
 3945              		.loc 1 2624 0
 3946 000a 14BF     		ite	ne
 3947 000c 0120     		movne	r0, #1
 3948              	.LVL278:
 3949 000e 0020     		moveq	r0, #0
 3950 0010 7047     		bx	lr
 3951              	.L398:
 3952 0012 00BF     		.align	2
 3953              	.L397:
 3954 0014 00280040 		.word	1073752064
 3955 0018 7F3F0100 		.word	81791
 3956              		.cfi_endproc
 3957              	.LFE162:
 3958              		.size	RTC_GetFlagStatus, .-RTC_GetFlagStatus
 3959              		.section	.text.RTC_ClearFlag,"ax",%progbits
 3960              		.align	1
 3961              		.p2align 4,,15
 3962              		.global	RTC_ClearFlag
 3963              		.syntax unified
 3964              		.thumb
 3965              		.thumb_func
 3966              		.fpu fpv4-sp-d16
 3967              		.type	RTC_ClearFlag, %function
 3968              	RTC_ClearFlag:
 3969              	.LFB163:
 3970              		.loc 1 2640 0
 3971              		.cfi_startproc
 3972              		@ args = 0, pretend = 0, frame = 0
 3973              		@ frame_needed = 0, uses_anonymous_args = 0
 3974              		@ link register save eliminated.
 3975              	.LVL279:
 3976              		.loc 1 2645 0
 3977 0000 054A     		ldr	r2, .L400
 3978 0002 D368     		ldr	r3, [r2, #12]
 3979 0004 80B2     		uxth	r0, r0
 3980              	.LVL280:
 3981 0006 40F08000 		orr	r0, r0, #128
 3982 000a 03F08003 		and	r3, r3, #128
 3983 000e 63EA0003 		orn	r3, r3, r0
 3984 0012 D360     		str	r3, [r2, #12]
 3985              		.loc 1 2646 0
 3986 0014 7047     		bx	lr
 3987              	.L401:
 3988 0016 00BF     		.align	2
 3989              	.L400:
 3990 0018 00280040 		.word	1073752064
ARM GAS  /tmp/cc65ENol.s 			page 71


 3991              		.cfi_endproc
 3992              	.LFE163:
 3993              		.size	RTC_ClearFlag, .-RTC_ClearFlag
 3994              		.section	.text.RTC_GetITStatus,"ax",%progbits
 3995              		.align	1
 3996              		.p2align 4,,15
 3997              		.global	RTC_GetITStatus
 3998              		.syntax unified
 3999              		.thumb
 4000              		.thumb_func
 4001              		.fpu fpv4-sp-d16
 4002              		.type	RTC_GetITStatus, %function
 4003              	RTC_GetITStatus:
 4004              	.LFB164:
 4005              		.loc 1 2660 0
 4006              		.cfi_startproc
 4007              		@ args = 0, pretend = 0, frame = 0
 4008              		@ frame_needed = 0, uses_anonymous_args = 0
 4009              		@ link register save eliminated.
 4010              	.LVL281:
 4011              		.loc 1 2668 0
 4012 0000 0949     		ldr	r1, .L405
 4013 0002 0B6C     		ldr	r3, [r1, #64]
 4014              	.LVL282:
 4015              		.loc 1 2671 0
 4016 0004 8A68     		ldr	r2, [r1, #8]
 4017              		.loc 1 2674 0
 4018 0006 C968     		ldr	r1, [r1, #12]
 4019              	.LVL283:
 4020              		.loc 1 2668 0
 4021 0008 03F00403 		and	r3, r3, #4
 4022              	.LVL284:
 4023              		.loc 1 2671 0
 4024 000c 03EAD033 		and	r3, r3, r0, lsr #15
 4025 0010 0240     		ands	r2, r2, r0
 4026              		.loc 1 2677 0
 4027 0012 1343     		orrs	r3, r3, r2
 4028 0014 06D0     		beq	.L404
 4029              		.loc 1 2677 0 is_stmt 0 discriminator 1
 4030 0016 89B2     		uxth	r1, r1
 4031              	.LVL285:
 4032 0018 11EA1013 		ands	r3, r1, r0, lsr #4
 4033              		.loc 1 2679 0 is_stmt 1 discriminator 1
 4034 001c 14BF     		ite	ne
 4035 001e 0120     		movne	r0, #1
 4036              	.LVL286:
 4037 0020 0020     		moveq	r0, #0
 4038 0022 7047     		bx	lr
 4039              	.LVL287:
 4040              	.L404:
 4041              		.loc 1 2683 0
 4042 0024 1846     		mov	r0, r3
 4043              	.LVL288:
 4044              		.loc 1 2686 0
 4045 0026 7047     		bx	lr
 4046              	.L406:
 4047              		.align	2
ARM GAS  /tmp/cc65ENol.s 			page 72


 4048              	.L405:
 4049 0028 00280040 		.word	1073752064
 4050              		.cfi_endproc
 4051              	.LFE164:
 4052              		.size	RTC_GetITStatus, .-RTC_GetITStatus
 4053              		.section	.text.RTC_ClearITPendingBit,"ax",%progbits
 4054              		.align	1
 4055              		.p2align 4,,15
 4056              		.global	RTC_ClearITPendingBit
 4057              		.syntax unified
 4058              		.thumb
 4059              		.thumb_func
 4060              		.fpu fpv4-sp-d16
 4061              		.type	RTC_ClearITPendingBit, %function
 4062              	RTC_ClearITPendingBit:
 4063              	.LFB165:
 4064              		.loc 1 2700 0
 4065              		.cfi_startproc
 4066              		@ args = 0, pretend = 0, frame = 0
 4067              		@ frame_needed = 0, uses_anonymous_args = 0
 4068              		@ link register save eliminated.
 4069              	.LVL289:
 4070              		.loc 1 2710 0
 4071 0000 054A     		ldr	r2, .L408
 4072 0002 D368     		ldr	r3, [r2, #12]
 4073 0004 C0F30F10 		ubfx	r0, r0, #4, #16
 4074              	.LVL290:
 4075 0008 40F08000 		orr	r0, r0, #128
 4076 000c 03F08003 		and	r3, r3, #128
 4077 0010 63EA0003 		orn	r3, r3, r0
 4078 0014 D360     		str	r3, [r2, #12]
 4079              		.loc 1 2711 0
 4080 0016 7047     		bx	lr
 4081              	.L409:
 4082              		.align	2
 4083              	.L408:
 4084 0018 00280040 		.word	1073752064
 4085              		.cfi_endproc
 4086              	.LFE165:
 4087              		.size	RTC_ClearITPendingBit, .-RTC_ClearITPendingBit
 4088              		.text
 4089              	.Letext0:
 4090              		.file 2 "/usr/arm-none-eabi/include/machine/_default_types.h"
 4091              		.file 3 "/usr/arm-none-eabi/include/sys/_stdint.h"
 4092              		.file 4 "ChibiOS_2.6.6/os/hal/platforms/STM32F4xx/stm32f4xx.h"
 4093              		.file 5 "ChibiOS_2.6.6/ext/stdperiph_stm32f4/inc/stm32f4xx_rtc.h"
 4094              		.file 6 "ChibiOS_2.6.6/os/ports/common/ARMCMx/CMSIS/include/core_cm4.h"
 4095              		.section	.debug_info,"",%progbits
 4096              	.Ldebug_info0:
 4097 0000 DF150000 		.4byte	0x15df
 4098 0004 0400     		.2byte	0x4
 4099 0006 00000000 		.4byte	.Ldebug_abbrev0
 4100 000a 04       		.byte	0x4
 4101 000b 01       		.uleb128 0x1
 4102 000c 61050000 		.4byte	.LASF188
 4103 0010 0C       		.byte	0xc
 4104 0011 CC040000 		.4byte	.LASF189
ARM GAS  /tmp/cc65ENol.s 			page 73


 4105 0015 49040000 		.4byte	.LASF190
 4106 0019 F0020000 		.4byte	.Ldebug_ranges0+0x2f0
 4107 001d 00000000 		.4byte	0
 4108 0021 00000000 		.4byte	.Ldebug_line0
 4109 0025 02       		.uleb128 0x2
 4110 0026 01       		.byte	0x1
 4111 0027 06       		.byte	0x6
 4112 0028 60010000 		.4byte	.LASF0
 4113 002c 03       		.uleb128 0x3
 4114 002d 76000000 		.4byte	.LASF4
 4115 0031 02       		.byte	0x2
 4116 0032 2B       		.byte	0x2b
 4117 0033 37000000 		.4byte	0x37
 4118 0037 02       		.uleb128 0x2
 4119 0038 01       		.byte	0x1
 4120 0039 08       		.byte	0x8
 4121 003a 10080000 		.4byte	.LASF1
 4122 003e 02       		.uleb128 0x2
 4123 003f 02       		.byte	0x2
 4124 0040 05       		.byte	0x5
 4125 0041 7F080000 		.4byte	.LASF2
 4126 0045 02       		.uleb128 0x2
 4127 0046 02       		.byte	0x2
 4128 0047 07       		.byte	0x7
 4129 0048 DE090000 		.4byte	.LASF3
 4130 004c 03       		.uleb128 0x3
 4131 004d AB090000 		.4byte	.LASF5
 4132 0051 02       		.byte	0x2
 4133 0052 4D       		.byte	0x4d
 4134 0053 57000000 		.4byte	0x57
 4135 0057 02       		.uleb128 0x2
 4136 0058 04       		.byte	0x4
 4137 0059 05       		.byte	0x5
 4138 005a D5010000 		.4byte	.LASF6
 4139 005e 03       		.uleb128 0x3
 4140 005f A6020000 		.4byte	.LASF7
 4141 0063 02       		.byte	0x2
 4142 0064 4F       		.byte	0x4f
 4143 0065 69000000 		.4byte	0x69
 4144 0069 02       		.uleb128 0x2
 4145 006a 04       		.byte	0x4
 4146 006b 07       		.byte	0x7
 4147 006c CE030000 		.4byte	.LASF8
 4148 0070 02       		.uleb128 0x2
 4149 0071 08       		.byte	0x8
 4150 0072 05       		.byte	0x5
 4151 0073 52010000 		.4byte	.LASF9
 4152 0077 02       		.uleb128 0x2
 4153 0078 08       		.byte	0x8
 4154 0079 07       		.byte	0x7
 4155 007a D0000000 		.4byte	.LASF10
 4156 007e 04       		.uleb128 0x4
 4157 007f 04       		.byte	0x4
 4158 0080 05       		.byte	0x5
 4159 0081 696E7400 		.ascii	"int\000"
 4160 0085 02       		.uleb128 0x2
 4161 0086 04       		.byte	0x4
ARM GAS  /tmp/cc65ENol.s 			page 74


 4162 0087 07       		.byte	0x7
 4163 0088 5B090000 		.4byte	.LASF11
 4164 008c 03       		.uleb128 0x3
 4165 008d D50A0000 		.4byte	.LASF12
 4166 0091 03       		.byte	0x3
 4167 0092 18       		.byte	0x18
 4168 0093 2C000000 		.4byte	0x2c
 4169 0097 03       		.uleb128 0x3
 4170 0098 08080000 		.4byte	.LASF13
 4171 009c 03       		.byte	0x3
 4172 009d 2C       		.byte	0x2c
 4173 009e 4C000000 		.4byte	0x4c
 4174 00a2 05       		.uleb128 0x5
 4175 00a3 97000000 		.4byte	0x97
 4176 00a7 03       		.uleb128 0x3
 4177 00a8 E4080000 		.4byte	.LASF14
 4178 00ac 03       		.byte	0x3
 4179 00ad 30       		.byte	0x30
 4180 00ae 5E000000 		.4byte	0x5e
 4181 00b2 05       		.uleb128 0x5
 4182 00b3 A7000000 		.4byte	0xa7
 4183 00b7 06       		.uleb128 0x6
 4184 00b8 1A010000 		.4byte	.LASF191
 4185 00bc 06       		.byte	0x6
 4186 00bd 9806     		.2byte	0x698
 4187 00bf A2000000 		.4byte	0xa2
 4188 00c3 07       		.uleb128 0x7
 4189 00c4 07       		.byte	0x7
 4190 00c5 01       		.byte	0x1
 4191 00c6 37000000 		.4byte	0x37
 4192 00ca 04       		.byte	0x4
 4193 00cb F701     		.2byte	0x1f7
 4194 00cd DE000000 		.4byte	0xde
 4195 00d1 08       		.uleb128 0x8
 4196 00d2 69030000 		.4byte	.LASF15
 4197 00d6 00       		.byte	0
 4198 00d7 09       		.uleb128 0x9
 4199 00d8 53455400 		.ascii	"SET\000"
 4200 00dc 01       		.byte	0x1
 4201 00dd 00       		.byte	0
 4202 00de 0A       		.uleb128 0xa
 4203 00df 48000000 		.4byte	.LASF16
 4204 00e3 04       		.byte	0x4
 4205 00e4 F701     		.2byte	0x1f7
 4206 00e6 C3000000 		.4byte	0xc3
 4207 00ea 0A       		.uleb128 0xa
 4208 00eb 32030000 		.4byte	.LASF17
 4209 00ef 04       		.byte	0x4
 4210 00f0 F701     		.2byte	0x1f7
 4211 00f2 C3000000 		.4byte	0xc3
 4212 00f6 07       		.uleb128 0x7
 4213 00f7 07       		.byte	0x7
 4214 00f8 01       		.byte	0x1
 4215 00f9 37000000 		.4byte	0x37
 4216 00fd 04       		.byte	0x4
 4217 00fe F901     		.2byte	0x1f9
 4218 0100 11010000 		.4byte	0x111
ARM GAS  /tmp/cc65ENol.s 			page 75


 4219 0104 08       		.uleb128 0x8
 4220 0105 C1000000 		.4byte	.LASF18
 4221 0109 00       		.byte	0
 4222 010a 08       		.uleb128 0x8
 4223 010b 31020000 		.4byte	.LASF19
 4224 010f 01       		.byte	0x1
 4225 0110 00       		.byte	0
 4226 0111 0A       		.uleb128 0xa
 4227 0112 F9060000 		.4byte	.LASF20
 4228 0116 04       		.byte	0x4
 4229 0117 F901     		.2byte	0x1f9
 4230 0119 F6000000 		.4byte	0xf6
 4231 011d 07       		.uleb128 0x7
 4232 011e 07       		.byte	0x7
 4233 011f 01       		.byte	0x1
 4234 0120 37000000 		.4byte	0x37
 4235 0124 04       		.byte	0x4
 4236 0125 FC01     		.2byte	0x1fc
 4237 0127 38010000 		.4byte	0x138
 4238 012b 08       		.uleb128 0x8
 4239 012c B0060000 		.4byte	.LASF21
 4240 0130 00       		.byte	0
 4241 0131 08       		.uleb128 0x8
 4242 0132 E20A0000 		.4byte	.LASF22
 4243 0136 01       		.byte	0x1
 4244 0137 00       		.byte	0
 4245 0138 0A       		.uleb128 0xa
 4246 0139 BF020000 		.4byte	.LASF23
 4247 013d 04       		.byte	0x4
 4248 013e FC01     		.2byte	0x1fc
 4249 0140 1D010000 		.4byte	0x11d
 4250 0144 0B       		.uleb128 0xb
 4251 0145 A0       		.byte	0xa0
 4252 0146 04       		.byte	0x4
 4253 0147 8104     		.2byte	0x481
 4254 0149 53030000 		.4byte	0x353
 4255 014d 0C       		.uleb128 0xc
 4256 014e 545200   		.ascii	"TR\000"
 4257 0151 04       		.byte	0x4
 4258 0152 8304     		.2byte	0x483
 4259 0154 B2000000 		.4byte	0xb2
 4260 0158 00       		.byte	0
 4261 0159 0C       		.uleb128 0xc
 4262 015a 445200   		.ascii	"DR\000"
 4263 015d 04       		.byte	0x4
 4264 015e 8404     		.2byte	0x484
 4265 0160 B2000000 		.4byte	0xb2
 4266 0164 04       		.byte	0x4
 4267 0165 0C       		.uleb128 0xc
 4268 0166 435200   		.ascii	"CR\000"
 4269 0169 04       		.byte	0x4
 4270 016a 8504     		.2byte	0x485
 4271 016c B2000000 		.4byte	0xb2
 4272 0170 08       		.byte	0x8
 4273 0171 0C       		.uleb128 0xc
 4274 0172 49535200 		.ascii	"ISR\000"
 4275 0176 04       		.byte	0x4
ARM GAS  /tmp/cc65ENol.s 			page 76


 4276 0177 8604     		.2byte	0x486
 4277 0179 B2000000 		.4byte	0xb2
 4278 017d 0C       		.byte	0xc
 4279 017e 0D       		.uleb128 0xd
 4280 017f 74030000 		.4byte	.LASF24
 4281 0183 04       		.byte	0x4
 4282 0184 8704     		.2byte	0x487
 4283 0186 B2000000 		.4byte	0xb2
 4284 018a 10       		.byte	0x10
 4285 018b 0D       		.uleb128 0xd
 4286 018c 0F090000 		.4byte	.LASF25
 4287 0190 04       		.byte	0x4
 4288 0191 8804     		.2byte	0x488
 4289 0193 B2000000 		.4byte	0xb2
 4290 0197 14       		.byte	0x14
 4291 0198 0D       		.uleb128 0xd
 4292 0199 00000000 		.4byte	.LASF26
 4293 019d 04       		.byte	0x4
 4294 019e 8904     		.2byte	0x489
 4295 01a0 B2000000 		.4byte	0xb2
 4296 01a4 18       		.byte	0x18
 4297 01a5 0D       		.uleb128 0xd
 4298 01a6 6A070000 		.4byte	.LASF27
 4299 01aa 04       		.byte	0x4
 4300 01ab 8A04     		.2byte	0x48a
 4301 01ad B2000000 		.4byte	0xb2
 4302 01b1 1C       		.byte	0x1c
 4303 01b2 0D       		.uleb128 0xd
 4304 01b3 CA080000 		.4byte	.LASF28
 4305 01b7 04       		.byte	0x4
 4306 01b8 8B04     		.2byte	0x48b
 4307 01ba B2000000 		.4byte	0xb2
 4308 01be 20       		.byte	0x20
 4309 01bf 0C       		.uleb128 0xc
 4310 01c0 57505200 		.ascii	"WPR\000"
 4311 01c4 04       		.byte	0x4
 4312 01c5 8C04     		.2byte	0x48c
 4313 01c7 B2000000 		.4byte	0xb2
 4314 01cb 24       		.byte	0x24
 4315 01cc 0C       		.uleb128 0xc
 4316 01cd 53535200 		.ascii	"SSR\000"
 4317 01d1 04       		.byte	0x4
 4318 01d2 8D04     		.2byte	0x48d
 4319 01d4 B2000000 		.4byte	0xb2
 4320 01d8 28       		.byte	0x28
 4321 01d9 0D       		.uleb128 0xd
 4322 01da 6F0A0000 		.4byte	.LASF29
 4323 01de 04       		.byte	0x4
 4324 01df 8E04     		.2byte	0x48e
 4325 01e1 B2000000 		.4byte	0xb2
 4326 01e5 2C       		.byte	0x2c
 4327 01e6 0D       		.uleb128 0xd
 4328 01e7 A1040000 		.4byte	.LASF30
 4329 01eb 04       		.byte	0x4
 4330 01ec 8F04     		.2byte	0x48f
 4331 01ee B2000000 		.4byte	0xb2
 4332 01f2 30       		.byte	0x30
ARM GAS  /tmp/cc65ENol.s 			page 77


 4333 01f3 0D       		.uleb128 0xd
 4334 01f4 6F030000 		.4byte	.LASF31
 4335 01f8 04       		.byte	0x4
 4336 01f9 9004     		.2byte	0x490
 4337 01fb B2000000 		.4byte	0xb2
 4338 01ff 34       		.byte	0x34
 4339 0200 0D       		.uleb128 0xd
 4340 0201 98010000 		.4byte	.LASF32
 4341 0205 04       		.byte	0x4
 4342 0206 9104     		.2byte	0x491
 4343 0208 B2000000 		.4byte	0xb2
 4344 020c 38       		.byte	0x38
 4345 020d 0D       		.uleb128 0xd
 4346 020e AB060000 		.4byte	.LASF33
 4347 0212 04       		.byte	0x4
 4348 0213 9204     		.2byte	0x492
 4349 0215 B2000000 		.4byte	0xb2
 4350 0219 3C       		.byte	0x3c
 4351 021a 0D       		.uleb128 0xd
 4352 021b 6A040000 		.4byte	.LASF34
 4353 021f 04       		.byte	0x4
 4354 0220 9304     		.2byte	0x493
 4355 0222 B2000000 		.4byte	0xb2
 4356 0226 40       		.byte	0x40
 4357 0227 0D       		.uleb128 0xd
 4358 0228 3B030000 		.4byte	.LASF35
 4359 022c 04       		.byte	0x4
 4360 022d 9404     		.2byte	0x494
 4361 022f B2000000 		.4byte	0xb2
 4362 0233 44       		.byte	0x44
 4363 0234 0D       		.uleb128 0xd
 4364 0235 06020000 		.4byte	.LASF36
 4365 0239 04       		.byte	0x4
 4366 023a 9504     		.2byte	0x495
 4367 023c B2000000 		.4byte	0xb2
 4368 0240 48       		.byte	0x48
 4369 0241 0D       		.uleb128 0xd
 4370 0242 4A0A0000 		.4byte	.LASF37
 4371 0246 04       		.byte	0x4
 4372 0247 9604     		.2byte	0x496
 4373 0249 A7000000 		.4byte	0xa7
 4374 024d 4C       		.byte	0x4c
 4375 024e 0D       		.uleb128 0xd
 4376 024f A9080000 		.4byte	.LASF38
 4377 0253 04       		.byte	0x4
 4378 0254 9704     		.2byte	0x497
 4379 0256 B2000000 		.4byte	0xb2
 4380 025a 50       		.byte	0x50
 4381 025b 0D       		.uleb128 0xd
 4382 025c CB090000 		.4byte	.LASF39
 4383 0260 04       		.byte	0x4
 4384 0261 9804     		.2byte	0x498
 4385 0263 B2000000 		.4byte	0xb2
 4386 0267 54       		.byte	0x54
 4387 0268 0D       		.uleb128 0xd
 4388 0269 5A0B0000 		.4byte	.LASF40
 4389 026d 04       		.byte	0x4
ARM GAS  /tmp/cc65ENol.s 			page 78


 4390 026e 9904     		.2byte	0x499
 4391 0270 B2000000 		.4byte	0xb2
 4392 0274 58       		.byte	0x58
 4393 0275 0D       		.uleb128 0xd
 4394 0276 99000000 		.4byte	.LASF41
 4395 027a 04       		.byte	0x4
 4396 027b 9A04     		.2byte	0x49a
 4397 027d B2000000 		.4byte	0xb2
 4398 0281 5C       		.byte	0x5c
 4399 0282 0D       		.uleb128 0xd
 4400 0283 00020000 		.4byte	.LASF42
 4401 0287 04       		.byte	0x4
 4402 0288 9B04     		.2byte	0x49b
 4403 028a B2000000 		.4byte	0xb2
 4404 028e 60       		.byte	0x60
 4405 028f 0D       		.uleb128 0xd
 4406 0290 8A030000 		.4byte	.LASF43
 4407 0294 04       		.byte	0x4
 4408 0295 9C04     		.2byte	0x49c
 4409 0297 B2000000 		.4byte	0xb2
 4410 029b 64       		.byte	0x64
 4411 029c 0D       		.uleb128 0xd
 4412 029d 0D050000 		.4byte	.LASF44
 4413 02a1 04       		.byte	0x4
 4414 02a2 9D04     		.2byte	0x49d
 4415 02a4 B2000000 		.4byte	0xb2
 4416 02a8 68       		.byte	0x68
 4417 02a9 0D       		.uleb128 0xd
 4418 02aa 81070000 		.4byte	.LASF45
 4419 02ae 04       		.byte	0x4
 4420 02af 9E04     		.2byte	0x49e
 4421 02b1 B2000000 		.4byte	0xb2
 4422 02b5 6C       		.byte	0x6c
 4423 02b6 0D       		.uleb128 0xd
 4424 02b7 D1090000 		.4byte	.LASF46
 4425 02bb 04       		.byte	0x4
 4426 02bc 9F04     		.2byte	0x49f
 4427 02be B2000000 		.4byte	0xb2
 4428 02c2 70       		.byte	0x70
 4429 02c3 0D       		.uleb128 0xd
 4430 02c4 690A0000 		.4byte	.LASF47
 4431 02c8 04       		.byte	0x4
 4432 02c9 A004     		.2byte	0x4a0
 4433 02cb B2000000 		.4byte	0xb2
 4434 02cf 74       		.byte	0x74
 4435 02d0 0D       		.uleb128 0xd
 4436 02d1 9A040000 		.4byte	.LASF48
 4437 02d5 04       		.byte	0x4
 4438 02d6 A104     		.2byte	0x4a1
 4439 02d8 B2000000 		.4byte	0xb2
 4440 02dc 78       		.byte	0x78
 4441 02dd 0D       		.uleb128 0xd
 4442 02de 2B070000 		.4byte	.LASF49
 4443 02e2 04       		.byte	0x4
 4444 02e3 A204     		.2byte	0x4a2
 4445 02e5 B2000000 		.4byte	0xb2
 4446 02e9 7C       		.byte	0x7c
ARM GAS  /tmp/cc65ENol.s 			page 79


 4447 02ea 0D       		.uleb128 0xd
 4448 02eb B7080000 		.4byte	.LASF50
 4449 02ef 04       		.byte	0x4
 4450 02f0 A304     		.2byte	0x4a3
 4451 02f2 B2000000 		.4byte	0xb2
 4452 02f6 80       		.byte	0x80
 4453 02f7 0D       		.uleb128 0xd
 4454 02f8 D7090000 		.4byte	.LASF51
 4455 02fc 04       		.byte	0x4
 4456 02fd A404     		.2byte	0x4a4
 4457 02ff B2000000 		.4byte	0xb2
 4458 0303 84       		.byte	0x84
 4459 0304 0D       		.uleb128 0xd
 4460 0305 8B0B0000 		.4byte	.LASF52
 4461 0309 04       		.byte	0x4
 4462 030a A504     		.2byte	0x4a5
 4463 030c B2000000 		.4byte	0xb2
 4464 0310 88       		.byte	0x88
 4465 0311 0D       		.uleb128 0xd
 4466 0312 C9000000 		.4byte	.LASF53
 4467 0316 04       		.byte	0x4
 4468 0317 A604     		.2byte	0x4a6
 4469 0319 B2000000 		.4byte	0xb2
 4470 031d 8C       		.byte	0x8c
 4471 031e 0D       		.uleb128 0xd
 4472 031f 2A020000 		.4byte	.LASF54
 4473 0323 04       		.byte	0x4
 4474 0324 A704     		.2byte	0x4a7
 4475 0326 B2000000 		.4byte	0xb2
 4476 032a 90       		.byte	0x90
 4477 032b 0D       		.uleb128 0xd
 4478 032c C7030000 		.4byte	.LASF55
 4479 0330 04       		.byte	0x4
 4480 0331 A804     		.2byte	0x4a8
 4481 0333 B2000000 		.4byte	0xb2
 4482 0337 94       		.byte	0x94
 4483 0338 0D       		.uleb128 0xd
 4484 0339 38050000 		.4byte	.LASF56
 4485 033d 04       		.byte	0x4
 4486 033e A904     		.2byte	0x4a9
 4487 0340 B2000000 		.4byte	0xb2
 4488 0344 98       		.byte	0x98
 4489 0345 0D       		.uleb128 0xd
 4490 0346 A2070000 		.4byte	.LASF57
 4491 034a 04       		.byte	0x4
 4492 034b AA04     		.2byte	0x4aa
 4493 034d B2000000 		.4byte	0xb2
 4494 0351 9C       		.byte	0x9c
 4495 0352 00       		.byte	0
 4496 0353 0A       		.uleb128 0xa
 4497 0354 27010000 		.4byte	.LASF58
 4498 0358 04       		.byte	0x4
 4499 0359 AB04     		.2byte	0x4ab
 4500 035b 44010000 		.4byte	0x144
 4501 035f 0E       		.uleb128 0xe
 4502 0360 0C       		.byte	0xc
 4503 0361 05       		.byte	0x5
ARM GAS  /tmp/cc65ENol.s 			page 80


 4504 0362 35       		.byte	0x35
 4505 0363 8C030000 		.4byte	0x38c
 4506 0367 0F       		.uleb128 0xf
 4507 0368 D8060000 		.4byte	.LASF59
 4508 036c 05       		.byte	0x5
 4509 036d 37       		.byte	0x37
 4510 036e A7000000 		.4byte	0xa7
 4511 0372 00       		.byte	0
 4512 0373 0F       		.uleb128 0xf
 4513 0374 13050000 		.4byte	.LASF60
 4514 0378 05       		.byte	0x5
 4515 0379 3A       		.byte	0x3a
 4516 037a A7000000 		.4byte	0xa7
 4517 037e 04       		.byte	0x4
 4518 037f 0F       		.uleb128 0xf
 4519 0380 180A0000 		.4byte	.LASF61
 4520 0384 05       		.byte	0x5
 4521 0385 3D       		.byte	0x3d
 4522 0386 A7000000 		.4byte	0xa7
 4523 038a 08       		.byte	0x8
 4524 038b 00       		.byte	0
 4525 038c 03       		.uleb128 0x3
 4526 038d 3E0B0000 		.4byte	.LASF62
 4527 0391 05       		.byte	0x5
 4528 0392 3F       		.byte	0x3f
 4529 0393 5F030000 		.4byte	0x35f
 4530 0397 0E       		.uleb128 0xe
 4531 0398 04       		.byte	0x4
 4532 0399 05       		.byte	0x5
 4533 039a 44       		.byte	0x44
 4534 039b D0030000 		.4byte	0x3d0
 4535 039f 0F       		.uleb128 0xf
 4536 03a0 E7010000 		.4byte	.LASF63
 4537 03a4 05       		.byte	0x5
 4538 03a5 46       		.byte	0x46
 4539 03a6 8C000000 		.4byte	0x8c
 4540 03aa 00       		.byte	0
 4541 03ab 0F       		.uleb128 0xf
 4542 03ac BE080000 		.4byte	.LASF64
 4543 03b0 05       		.byte	0x5
 4544 03b1 4B       		.byte	0x4b
 4545 03b2 8C000000 		.4byte	0x8c
 4546 03b6 01       		.byte	0x1
 4547 03b7 0F       		.uleb128 0xf
 4548 03b8 30040000 		.4byte	.LASF65
 4549 03bc 05       		.byte	0x5
 4550 03bd 4E       		.byte	0x4e
 4551 03be 8C000000 		.4byte	0x8c
 4552 03c2 02       		.byte	0x2
 4553 03c3 0F       		.uleb128 0xf
 4554 03c4 B5090000 		.4byte	.LASF66
 4555 03c8 05       		.byte	0x5
 4556 03c9 51       		.byte	0x51
 4557 03ca 8C000000 		.4byte	0x8c
 4558 03ce 03       		.byte	0x3
 4559 03cf 00       		.byte	0
 4560 03d0 03       		.uleb128 0x3
ARM GAS  /tmp/cc65ENol.s 			page 81


 4561 03d1 44070000 		.4byte	.LASF67
 4562 03d5 05       		.byte	0x5
 4563 03d6 53       		.byte	0x53
 4564 03d7 97030000 		.4byte	0x397
 4565 03db 0E       		.uleb128 0xe
 4566 03dc 04       		.byte	0x4
 4567 03dd 05       		.byte	0x5
 4568 03de 58       		.byte	0x58
 4569 03df 14040000 		.4byte	0x414
 4570 03e3 0F       		.uleb128 0xf
 4571 03e4 E0030000 		.4byte	.LASF68
 4572 03e8 05       		.byte	0x5
 4573 03e9 5A       		.byte	0x5a
 4574 03ea 8C000000 		.4byte	0x8c
 4575 03ee 00       		.byte	0
 4576 03ef 0F       		.uleb128 0xf
 4577 03f0 400A0000 		.4byte	.LASF69
 4578 03f4 05       		.byte	0x5
 4579 03f5 5D       		.byte	0x5d
 4580 03f6 8C000000 		.4byte	0x8c
 4581 03fa 01       		.byte	0x1
 4582 03fb 0F       		.uleb128 0xf
 4583 03fc 04050000 		.4byte	.LASF70
 4584 0400 05       		.byte	0x5
 4585 0401 60       		.byte	0x60
 4586 0402 8C000000 		.4byte	0x8c
 4587 0406 02       		.byte	0x2
 4588 0407 0F       		.uleb128 0xf
 4589 0408 AA0A0000 		.4byte	.LASF71
 4590 040c 05       		.byte	0x5
 4591 040d 63       		.byte	0x63
 4592 040e 8C000000 		.4byte	0x8c
 4593 0412 03       		.byte	0x3
 4594 0413 00       		.byte	0
 4595 0414 03       		.uleb128 0x3
 4596 0415 71070000 		.4byte	.LASF72
 4597 0419 05       		.byte	0x5
 4598 041a 65       		.byte	0x65
 4599 041b DB030000 		.4byte	0x3db
 4600 041f 0E       		.uleb128 0xe
 4601 0420 10       		.byte	0x10
 4602 0421 05       		.byte	0x5
 4603 0422 6A       		.byte	0x6a
 4604 0423 58040000 		.4byte	0x458
 4605 0427 0F       		.uleb128 0xf
 4606 0428 BD090000 		.4byte	.LASF73
 4607 042c 05       		.byte	0x5
 4608 042d 6C       		.byte	0x6c
 4609 042e D0030000 		.4byte	0x3d0
 4610 0432 00       		.byte	0
 4611 0433 0F       		.uleb128 0xf
 4612 0434 94070000 		.4byte	.LASF74
 4613 0438 05       		.byte	0x5
 4614 0439 6E       		.byte	0x6e
 4615 043a A7000000 		.4byte	0xa7
 4616 043e 04       		.byte	0x4
 4617 043f 0F       		.uleb128 0xf
ARM GAS  /tmp/cc65ENol.s 			page 82


 4618 0440 280A0000 		.4byte	.LASF75
 4619 0444 05       		.byte	0x5
 4620 0445 71       		.byte	0x71
 4621 0446 A7000000 		.4byte	0xa7
 4622 044a 08       		.byte	0x8
 4623 044b 0F       		.uleb128 0xf
 4624 044c 540A0000 		.4byte	.LASF76
 4625 0450 05       		.byte	0x5
 4626 0451 74       		.byte	0x74
 4627 0452 8C000000 		.4byte	0x8c
 4628 0456 0C       		.byte	0xc
 4629 0457 00       		.byte	0
 4630 0458 03       		.uleb128 0x3
 4631 0459 09010000 		.4byte	.LASF77
 4632 045d 05       		.byte	0x5
 4633 045e 79       		.byte	0x79
 4634 045f 1F040000 		.4byte	0x41f
 4635 0463 10       		.uleb128 0x10
 4636 0464 EA0A0000 		.4byte	.LASF78
 4637 0468 01       		.byte	0x1
 4638 0469 B40A     		.2byte	0xab4
 4639 046b 8C000000 		.4byte	0x8c
 4640 046f 01       		.byte	0x1
 4641 0470 8D040000 		.4byte	0x48d
 4642 0474 11       		.uleb128 0x11
 4643 0475 CF0A0000 		.4byte	.LASF80
 4644 0479 01       		.byte	0x1
 4645 047a B40A     		.2byte	0xab4
 4646 047c 8C000000 		.4byte	0x8c
 4647 0480 12       		.uleb128 0x12
 4648 0481 746D7000 		.ascii	"tmp\000"
 4649 0485 01       		.byte	0x1
 4650 0486 B60A     		.2byte	0xab6
 4651 0488 8C000000 		.4byte	0x8c
 4652 048c 00       		.byte	0
 4653 048d 10       		.uleb128 0x10
 4654 048e B30A0000 		.4byte	.LASF79
 4655 0492 01       		.byte	0x1
 4656 0493 A20A     		.2byte	0xaa2
 4657 0495 8C000000 		.4byte	0x8c
 4658 0499 01       		.byte	0x1
 4659 049a B7040000 		.4byte	0x4b7
 4660 049e 11       		.uleb128 0x11
 4661 049f CF0A0000 		.4byte	.LASF80
 4662 04a3 01       		.byte	0x1
 4663 04a4 A20A     		.2byte	0xaa2
 4664 04a6 8C000000 		.4byte	0x8c
 4665 04aa 13       		.uleb128 0x13
 4666 04ab AF080000 		.4byte	.LASF81
 4667 04af 01       		.byte	0x1
 4668 04b0 A40A     		.2byte	0xaa4
 4669 04b2 8C000000 		.4byte	0x8c
 4670 04b6 00       		.byte	0
 4671 04b7 14       		.uleb128 0x14
 4672 04b8 14090000 		.4byte	.LASF86
 4673 04bc 01       		.byte	0x1
 4674 04bd 8B0A     		.2byte	0xa8b
ARM GAS  /tmp/cc65ENol.s 			page 83


 4675 04bf 00000000 		.4byte	.LFB165
 4676 04c3 1C000000 		.4byte	.LFE165-.LFB165
 4677 04c7 01       		.uleb128 0x1
 4678 04c8 9C       		.byte	0x9c
 4679 04c9 EE040000 		.4byte	0x4ee
 4680 04cd 15       		.uleb128 0x15
 4681 04ce 920B0000 		.4byte	.LASF82
 4682 04d2 01       		.byte	0x1
 4683 04d3 8B0A     		.2byte	0xa8b
 4684 04d5 A7000000 		.4byte	0xa7
 4685 04d9 00000000 		.4byte	.LLST103
 4686 04dd 16       		.uleb128 0x16
 4687 04de 9E010000 		.4byte	.LASF83
 4688 04e2 01       		.byte	0x1
 4689 04e3 8D0A     		.2byte	0xa8d
 4690 04e5 A7000000 		.4byte	0xa7
 4691 04e9 21000000 		.4byte	.LLST104
 4692 04ed 00       		.byte	0
 4693 04ee 17       		.uleb128 0x17
 4694 04ef CB020000 		.4byte	.LASF89
 4695 04f3 01       		.byte	0x1
 4696 04f4 630A     		.2byte	0xa63
 4697 04f6 EA000000 		.4byte	0xea
 4698 04fa 00000000 		.4byte	.LFB164
 4699 04fe 2C000000 		.4byte	.LFE164-.LFB164
 4700 0502 01       		.uleb128 0x1
 4701 0503 9C       		.byte	0x9c
 4702 0504 49050000 		.4byte	0x549
 4703 0508 15       		.uleb128 0x15
 4704 0509 920B0000 		.4byte	.LASF82
 4705 050d 01       		.byte	0x1
 4706 050e 630A     		.2byte	0xa63
 4707 0510 A7000000 		.4byte	0xa7
 4708 0514 48000000 		.4byte	.LLST99
 4709 0518 16       		.uleb128 0x16
 4710 0519 F2020000 		.4byte	.LASF84
 4711 051d 01       		.byte	0x1
 4712 051e 650A     		.2byte	0xa65
 4713 0520 EA000000 		.4byte	0xea
 4714 0524 82000000 		.4byte	.LLST100
 4715 0528 16       		.uleb128 0x16
 4716 0529 9E010000 		.4byte	.LASF83
 4717 052d 01       		.byte	0x1
 4718 052e 660A     		.2byte	0xa66
 4719 0530 A7000000 		.4byte	0xa7
 4720 0534 A1000000 		.4byte	.LLST101
 4721 0538 16       		.uleb128 0x16
 4722 0539 B70B0000 		.4byte	.LASF85
 4723 053d 01       		.byte	0x1
 4724 053e 660A     		.2byte	0xa66
 4725 0540 A7000000 		.4byte	0xa7
 4726 0544 FB000000 		.4byte	.LLST102
 4727 0548 00       		.byte	0
 4728 0549 14       		.uleb128 0x14
 4729 054a 10000000 		.4byte	.LASF87
 4730 054e 01       		.byte	0x1
 4731 054f 4F0A     		.2byte	0xa4f
ARM GAS  /tmp/cc65ENol.s 			page 84


 4732 0551 00000000 		.4byte	.LFB163
 4733 0555 1C000000 		.4byte	.LFE163-.LFB163
 4734 0559 01       		.uleb128 0x1
 4735 055a 9C       		.byte	0x9c
 4736 055b 70050000 		.4byte	0x570
 4737 055f 15       		.uleb128 0x15
 4738 0560 DE010000 		.4byte	.LASF88
 4739 0564 01       		.byte	0x1
 4740 0565 4F0A     		.2byte	0xa4f
 4741 0567 A7000000 		.4byte	0xa7
 4742 056b 29010000 		.4byte	.LLST98
 4743 056f 00       		.byte	0
 4744 0570 17       		.uleb128 0x17
 4745 0571 5D020000 		.4byte	.LASF90
 4746 0575 01       		.byte	0x1
 4747 0576 2B0A     		.2byte	0xa2b
 4748 0578 DE000000 		.4byte	0xde
 4749 057c 00000000 		.4byte	.LFB162
 4750 0580 1C000000 		.4byte	.LFE162-.LFB162
 4751 0584 01       		.uleb128 0x1
 4752 0585 9C       		.byte	0x9c
 4753 0586 BB050000 		.4byte	0x5bb
 4754 058a 15       		.uleb128 0x15
 4755 058b DE010000 		.4byte	.LASF88
 4756 058f 01       		.byte	0x1
 4757 0590 2B0A     		.2byte	0xa2b
 4758 0592 A7000000 		.4byte	0xa7
 4759 0596 4A010000 		.4byte	.LLST95
 4760 059a 16       		.uleb128 0x16
 4761 059b F2020000 		.4byte	.LASF84
 4762 059f 01       		.byte	0x1
 4763 05a0 2D0A     		.2byte	0xa2d
 4764 05a2 DE000000 		.4byte	0xde
 4765 05a6 6B010000 		.4byte	.LLST96
 4766 05aa 16       		.uleb128 0x16
 4767 05ab 9E010000 		.4byte	.LASF83
 4768 05af 01       		.byte	0x1
 4769 05b0 2E0A     		.2byte	0xa2e
 4770 05b2 A7000000 		.4byte	0xa7
 4771 05b6 97010000 		.4byte	.LLST97
 4772 05ba 00       		.byte	0
 4773 05bb 14       		.uleb128 0x14
 4774 05bc 5C030000 		.4byte	.LASF91
 4775 05c0 01       		.byte	0x1
 4776 05c1 FB09     		.2byte	0x9fb
 4777 05c3 00000000 		.4byte	.LFB161
 4778 05c7 44000000 		.4byte	.LFE161-.LFB161
 4779 05cb 01       		.uleb128 0x1
 4780 05cc 9C       		.byte	0x9c
 4781 05cd F0050000 		.4byte	0x5f0
 4782 05d1 15       		.uleb128 0x15
 4783 05d2 920B0000 		.4byte	.LASF82
 4784 05d6 01       		.byte	0x1
 4785 05d7 FB09     		.2byte	0x9fb
 4786 05d9 A7000000 		.4byte	0xa7
 4787 05dd C9010000 		.4byte	.LLST94
 4788 05e1 18       		.uleb128 0x18
ARM GAS  /tmp/cc65ENol.s 			page 85


 4789 05e2 07000000 		.4byte	.LASF92
 4790 05e6 01       		.byte	0x1
 4791 05e7 FB09     		.2byte	0x9fb
 4792 05e9 11010000 		.4byte	0x111
 4793 05ed 01       		.uleb128 0x1
 4794 05ee 51       		.byte	0x51
 4795 05ef 00       		.byte	0
 4796 05f0 17       		.uleb128 0x17
 4797 05f1 8F020000 		.4byte	.LASF93
 4798 05f5 01       		.byte	0x1
 4799 05f6 8409     		.2byte	0x984
 4800 05f8 38010000 		.4byte	0x138
 4801 05fc 00000000 		.4byte	.LFB160
 4802 0600 68000000 		.4byte	.LFE160-.LFB160
 4803 0604 01       		.uleb128 0x1
 4804 0605 9C       		.byte	0x9c
 4805 0606 54060000 		.4byte	0x654
 4806 060a 15       		.uleb128 0x15
 4807 060b 8F090000 		.4byte	.LASF94
 4808 060f 01       		.byte	0x1
 4809 0610 8409     		.2byte	0x984
 4810 0612 A7000000 		.4byte	0xa7
 4811 0616 EA010000 		.4byte	.LLST90
 4812 061a 15       		.uleb128 0x15
 4813 061b EC030000 		.4byte	.LASF95
 4814 061f 01       		.byte	0x1
 4815 0620 8409     		.2byte	0x984
 4816 0622 A7000000 		.4byte	0xa7
 4817 0626 3D020000 		.4byte	.LLST91
 4818 062a 16       		.uleb128 0x16
 4819 062b A30A0000 		.4byte	.LASF96
 4820 062f 01       		.byte	0x1
 4821 0630 8609     		.2byte	0x986
 4822 0632 38010000 		.4byte	0x138
 4823 0636 5E020000 		.4byte	.LLST92
 4824 063a 16       		.uleb128 0x16
 4825 063b 990B0000 		.4byte	.LASF97
 4826 063f 01       		.byte	0x1
 4827 0640 8709     		.2byte	0x987
 4828 0642 A7000000 		.4byte	0xa7
 4829 0646 AB020000 		.4byte	.LLST93
 4830 064a 19       		.uleb128 0x19
 4831 064b 54000000 		.4byte	.LVL271
 4832 064f 03140000 		.4byte	0x1403
 4833 0653 00       		.byte	0
 4834 0654 14       		.uleb128 0x14
 4835 0655 030A0000 		.4byte	.LASF98
 4836 0659 01       		.byte	0x1
 4837 065a 5E09     		.2byte	0x95e
 4838 065c 00000000 		.4byte	.LFB159
 4839 0660 18000000 		.4byte	.LFE159-.LFB159
 4840 0664 01       		.uleb128 0x1
 4841 0665 9C       		.byte	0x9c
 4842 0666 7B060000 		.4byte	0x67b
 4843 066a 15       		.uleb128 0x15
 4844 066b 0C0B0000 		.4byte	.LASF99
 4845 066f 01       		.byte	0x1
ARM GAS  /tmp/cc65ENol.s 			page 86


 4846 0670 5E09     		.2byte	0x95e
 4847 0672 A7000000 		.4byte	0xa7
 4848 0676 F2020000 		.4byte	.LLST89
 4849 067a 00       		.byte	0
 4850 067b 14       		.uleb128 0x14
 4851 067c 600B0000 		.4byte	.LASF100
 4852 0680 01       		.byte	0x1
 4853 0681 4B09     		.2byte	0x94b
 4854 0683 00000000 		.4byte	.LFB158
 4855 0687 18000000 		.4byte	.LFE158-.LFB158
 4856 068b 01       		.uleb128 0x1
 4857 068c 9C       		.byte	0x9c
 4858 068d A2060000 		.4byte	0x6a2
 4859 0691 15       		.uleb128 0x15
 4860 0692 7E020000 		.4byte	.LASF101
 4861 0696 01       		.byte	0x1
 4862 0697 4B09     		.2byte	0x94b
 4863 0699 A7000000 		.4byte	0xa7
 4864 069d 13030000 		.4byte	.LLST88
 4865 06a1 00       		.byte	0
 4866 06a2 14       		.uleb128 0x14
 4867 06a3 F8080000 		.4byte	.LASF102
 4868 06a7 01       		.byte	0x1
 4869 06a8 3A09     		.2byte	0x93a
 4870 06aa 00000000 		.4byte	.LFB157
 4871 06ae 18000000 		.4byte	.LFE157-.LFB157
 4872 06b2 01       		.uleb128 0x1
 4873 06b3 9C       		.byte	0x9c
 4874 06b4 C9060000 		.4byte	0x6c9
 4875 06b8 15       		.uleb128 0x15
 4876 06b9 B1020000 		.4byte	.LASF103
 4877 06bd 01       		.byte	0x1
 4878 06be 3A09     		.2byte	0x93a
 4879 06c0 A7000000 		.4byte	0xa7
 4880 06c4 34030000 		.4byte	.LLST87
 4881 06c8 00       		.byte	0
 4882 06c9 17       		.uleb128 0x17
 4883 06ca 9F030000 		.4byte	.LASF104
 4884 06ce 01       		.byte	0x1
 4885 06cf 1209     		.2byte	0x912
 4886 06d1 A7000000 		.4byte	0xa7
 4887 06d5 00000000 		.4byte	.LFB156
 4888 06d9 20000000 		.4byte	.LFE156-.LFB156
 4889 06dd 01       		.uleb128 0x1
 4890 06de 9C       		.byte	0x9c
 4891 06df 03070000 		.4byte	0x703
 4892 06e3 15       		.uleb128 0x15
 4893 06e4 ED080000 		.4byte	.LASF105
 4894 06e8 01       		.byte	0x1
 4895 06e9 1209     		.2byte	0x912
 4896 06eb A7000000 		.4byte	0xa7
 4897 06ef 55030000 		.4byte	.LLST86
 4898 06f3 1A       		.uleb128 0x1a
 4899 06f4 746D7000 		.ascii	"tmp\000"
 4900 06f8 01       		.byte	0x1
 4901 06f9 1409     		.2byte	0x914
 4902 06fb B2000000 		.4byte	0xb2
ARM GAS  /tmp/cc65ENol.s 			page 87


 4903 06ff 02       		.uleb128 0x2
 4904 0700 91       		.byte	0x91
 4905 0701 7C       		.sleb128 -4
 4906 0702 00       		.byte	0
 4907 0703 14       		.uleb128 0x14
 4908 0704 5C080000 		.4byte	.LASF106
 4909 0708 01       		.byte	0x1
 4910 0709 FD08     		.2byte	0x8fd
 4911 070b 00000000 		.4byte	.LFB155
 4912 070f 20000000 		.4byte	.LFE155-.LFB155
 4913 0713 01       		.uleb128 0x1
 4914 0714 9C       		.byte	0x9c
 4915 0715 47070000 		.4byte	0x747
 4916 0719 15       		.uleb128 0x15
 4917 071a ED080000 		.4byte	.LASF105
 4918 071e 01       		.byte	0x1
 4919 071f FD08     		.2byte	0x8fd
 4920 0721 A7000000 		.4byte	0xa7
 4921 0725 76030000 		.4byte	.LLST85
 4922 0729 18       		.uleb128 0x18
 4923 072a DD0A0000 		.4byte	.LASF107
 4924 072e 01       		.byte	0x1
 4925 072f FD08     		.2byte	0x8fd
 4926 0731 A7000000 		.4byte	0xa7
 4927 0735 01       		.uleb128 0x1
 4928 0736 51       		.byte	0x51
 4929 0737 1A       		.uleb128 0x1a
 4930 0738 746D7000 		.ascii	"tmp\000"
 4931 073c 01       		.byte	0x1
 4932 073d FF08     		.2byte	0x8ff
 4933 073f B2000000 		.4byte	0xb2
 4934 0743 02       		.uleb128 0x2
 4935 0744 91       		.byte	0x91
 4936 0745 7C       		.sleb128 -4
 4937 0746 00       		.byte	0
 4938 0747 14       		.uleb128 0x14
 4939 0748 A30B0000 		.4byte	.LASF108
 4940 074c 01       		.byte	0x1
 4941 074d D408     		.2byte	0x8d4
 4942 074f 00000000 		.4byte	.LFB154
 4943 0753 1C000000 		.4byte	.LFE154-.LFB154
 4944 0757 01       		.uleb128 0x1
 4945 0758 9C       		.byte	0x9c
 4946 0759 6C070000 		.4byte	0x76c
 4947 075d 18       		.uleb128 0x18
 4948 075e 07000000 		.4byte	.LASF92
 4949 0762 01       		.byte	0x1
 4950 0763 D408     		.2byte	0x8d4
 4951 0765 11010000 		.4byte	0x111
 4952 0769 01       		.uleb128 0x1
 4953 076a 50       		.byte	0x50
 4954 076b 00       		.byte	0
 4955 076c 14       		.uleb128 0x14
 4956 076d 09070000 		.4byte	.LASF109
 4957 0771 01       		.byte	0x1
 4958 0772 BD08     		.2byte	0x8bd
 4959 0774 00000000 		.4byte	.LFB153
ARM GAS  /tmp/cc65ENol.s 			page 88


 4960 0778 1C000000 		.4byte	.LFE153-.LFB153
 4961 077c 01       		.uleb128 0x1
 4962 077d 9C       		.byte	0x9c
 4963 077e 91070000 		.4byte	0x791
 4964 0782 18       		.uleb128 0x18
 4965 0783 07000000 		.4byte	.LASF92
 4966 0787 01       		.byte	0x1
 4967 0788 BD08     		.2byte	0x8bd
 4968 078a 11010000 		.4byte	0x111
 4969 078e 01       		.uleb128 0x1
 4970 078f 50       		.byte	0x50
 4971 0790 00       		.byte	0
 4972 0791 14       		.uleb128 0x14
 4973 0792 89080000 		.4byte	.LASF110
 4974 0796 01       		.byte	0x1
 4975 0797 A908     		.2byte	0x8a9
 4976 0799 00000000 		.4byte	.LFB152
 4977 079d 18000000 		.4byte	.LFE152-.LFB152
 4978 07a1 01       		.uleb128 0x1
 4979 07a2 9C       		.byte	0x9c
 4980 07a3 B8070000 		.4byte	0x7b8
 4981 07a7 15       		.uleb128 0x15
 4982 07a8 73090000 		.4byte	.LASF111
 4983 07ac 01       		.byte	0x1
 4984 07ad A908     		.2byte	0x8a9
 4985 07af A7000000 		.4byte	0xa7
 4986 07b3 97030000 		.4byte	.LLST84
 4987 07b7 00       		.byte	0
 4988 07b8 14       		.uleb128 0x14
 4989 07b9 C40B0000 		.4byte	.LASF112
 4990 07bd 01       		.byte	0x1
 4991 07be 9208     		.2byte	0x892
 4992 07c0 00000000 		.4byte	.LFB151
 4993 07c4 18000000 		.4byte	.LFE151-.LFB151
 4994 07c8 01       		.uleb128 0x1
 4995 07c9 9C       		.byte	0x9c
 4996 07ca DF070000 		.4byte	0x7df
 4997 07ce 15       		.uleb128 0x15
 4998 07cf 31080000 		.4byte	.LASF113
 4999 07d3 01       		.byte	0x1
 5000 07d4 9208     		.2byte	0x892
 5001 07d6 A7000000 		.4byte	0xa7
 5002 07da B8030000 		.4byte	.LLST83
 5003 07de 00       		.byte	0
 5004 07df 14       		.uleb128 0x14
 5005 07e0 DB020000 		.4byte	.LASF114
 5006 07e4 01       		.byte	0x1
 5007 07e5 7008     		.2byte	0x870
 5008 07e7 00000000 		.4byte	.LFB150
 5009 07eb 18000000 		.4byte	.LFE150-.LFB150
 5010 07ef 01       		.uleb128 0x1
 5011 07f0 9C       		.byte	0x9c
 5012 07f1 06080000 		.4byte	0x806
 5013 07f5 15       		.uleb128 0x15
 5014 07f6 2A090000 		.4byte	.LASF115
 5015 07fa 01       		.byte	0x1
 5016 07fb 7008     		.2byte	0x870
ARM GAS  /tmp/cc65ENol.s 			page 89


 5017 07fd A7000000 		.4byte	0xa7
 5018 0801 D9030000 		.4byte	.LLST82
 5019 0805 00       		.byte	0
 5020 0806 14       		.uleb128 0x14
 5021 0807 44010000 		.4byte	.LASF116
 5022 080b 01       		.byte	0x1
 5023 080c 5108     		.2byte	0x851
 5024 080e 00000000 		.4byte	.LFB149
 5025 0812 18000000 		.4byte	.LFE149-.LFB149
 5026 0816 01       		.uleb128 0x1
 5027 0817 9C       		.byte	0x9c
 5028 0818 3B080000 		.4byte	0x83b
 5029 081c 15       		.uleb128 0x15
 5030 081d 70040000 		.4byte	.LASF117
 5031 0821 01       		.byte	0x1
 5032 0822 5108     		.2byte	0x851
 5033 0824 A7000000 		.4byte	0xa7
 5034 0828 FA030000 		.4byte	.LLST81
 5035 082c 18       		.uleb128 0x18
 5036 082d 07000000 		.4byte	.LASF92
 5037 0831 01       		.byte	0x1
 5038 0832 5108     		.2byte	0x851
 5039 0834 11010000 		.4byte	0x111
 5040 0838 01       		.uleb128 0x1
 5041 0839 51       		.byte	0x51
 5042 083a 00       		.byte	0
 5043 083b 14       		.uleb128 0x14
 5044 083c A9070000 		.4byte	.LASF118
 5045 0840 01       		.byte	0x1
 5046 0841 3708     		.2byte	0x837
 5047 0843 00000000 		.4byte	.LFB148
 5048 0847 1C000000 		.4byte	.LFE148-.LFB148
 5049 084b 01       		.uleb128 0x1
 5050 084c 9C       		.byte	0x9c
 5051 084d 70080000 		.4byte	0x870
 5052 0851 15       		.uleb128 0x15
 5053 0852 70040000 		.4byte	.LASF117
 5054 0856 01       		.byte	0x1
 5055 0857 3708     		.2byte	0x837
 5056 0859 A7000000 		.4byte	0xa7
 5057 085d 34040000 		.4byte	.LLST80
 5058 0861 18       		.uleb128 0x18
 5059 0862 E7060000 		.4byte	.LASF119
 5060 0866 01       		.byte	0x1
 5061 0867 3708     		.2byte	0x837
 5062 0869 A7000000 		.4byte	0xa7
 5063 086d 01       		.uleb128 0x1
 5064 086e 51       		.byte	0x51
 5065 086f 00       		.byte	0
 5066 0870 1B       		.uleb128 0x1b
 5067 0871 BE060000 		.4byte	.LASF142
 5068 0875 01       		.byte	0x1
 5069 0876 1408     		.2byte	0x814
 5070 0878 A7000000 		.4byte	0xa7
 5071 087c 00000000 		.4byte	.LFB147
 5072 0880 0C000000 		.4byte	.LFE147-.LFB147
 5073 0884 01       		.uleb128 0x1
ARM GAS  /tmp/cc65ENol.s 			page 90


 5074 0885 9C       		.byte	0x9c
 5075 0886 14       		.uleb128 0x14
 5076 0887 79030000 		.4byte	.LASF120
 5077 088b 01       		.byte	0x1
 5078 088c E807     		.2byte	0x7e8
 5079 088e 00000000 		.4byte	.LFB146
 5080 0892 BC000000 		.4byte	.LFE146-.LFB146
 5081 0896 01       		.uleb128 0x1
 5082 0897 9C       		.byte	0x9c
 5083 0898 9E090000 		.4byte	0x99e
 5084 089c 15       		.uleb128 0x15
 5085 089d 68090000 		.4byte	.LASF121
 5086 08a1 01       		.byte	0x1
 5087 08a2 E807     		.2byte	0x7e8
 5088 08a4 A7000000 		.4byte	0xa7
 5089 08a8 55040000 		.4byte	.LLST77
 5090 08ac 18       		.uleb128 0x18
 5091 08ad 86040000 		.4byte	.LASF122
 5092 08b1 01       		.byte	0x1
 5093 08b2 E807     		.2byte	0x7e8
 5094 08b4 9E090000 		.4byte	0x99e
 5095 08b8 01       		.uleb128 0x1
 5096 08b9 51       		.byte	0x51
 5097 08ba 18       		.uleb128 0x18
 5098 08bb 48080000 		.4byte	.LASF123
 5099 08bf 01       		.byte	0x1
 5100 08c0 E907     		.2byte	0x7e9
 5101 08c2 A4090000 		.4byte	0x9a4
 5102 08c6 01       		.uleb128 0x1
 5103 08c7 52       		.byte	0x52
 5104 08c8 16       		.uleb128 0x16
 5105 08c9 22020000 		.4byte	.LASF124
 5106 08cd 01       		.byte	0x1
 5107 08ce EB07     		.2byte	0x7eb
 5108 08d0 A7000000 		.4byte	0xa7
 5109 08d4 76040000 		.4byte	.LLST78
 5110 08d8 16       		.uleb128 0x16
 5111 08d9 B6060000 		.4byte	.LASF125
 5112 08dd 01       		.byte	0x1
 5113 08de EB07     		.2byte	0x7eb
 5114 08e0 A7000000 		.4byte	0xa7
 5115 08e4 95040000 		.4byte	.LLST79
 5116 08e8 1C       		.uleb128 0x1c
 5117 08e9 63040000 		.4byte	0x463
 5118 08ed 54000000 		.4byte	.LBB204
 5119 08f1 48020000 		.4byte	.Ldebug_ranges0+0x248
 5120 08f5 01       		.byte	0x1
 5121 08f6 0908     		.2byte	0x809
 5122 08f8 0D090000 		.4byte	0x90d
 5123 08fc 1D       		.uleb128 0x1d
 5124 08fd 74040000 		.4byte	0x474
 5125 0901 1E       		.uleb128 0x1e
 5126 0902 48020000 		.4byte	.Ldebug_ranges0+0x248
 5127 0906 1F       		.uleb128 0x1f
 5128 0907 80040000 		.4byte	0x480
 5129 090b 00       		.byte	0
 5130 090c 00       		.byte	0
ARM GAS  /tmp/cc65ENol.s 			page 91


 5131 090d 1C       		.uleb128 0x1c
 5132 090e 63040000 		.4byte	0x463
 5133 0912 56000000 		.4byte	.LBB208
 5134 0916 68020000 		.4byte	.Ldebug_ranges0+0x268
 5135 091a 01       		.byte	0x1
 5136 091b 0408     		.2byte	0x804
 5137 091d 32090000 		.4byte	0x932
 5138 0921 1D       		.uleb128 0x1d
 5139 0922 74040000 		.4byte	0x474
 5140 0926 1E       		.uleb128 0x1e
 5141 0927 68020000 		.4byte	.Ldebug_ranges0+0x268
 5142 092b 1F       		.uleb128 0x1f
 5143 092c 80040000 		.4byte	0x480
 5144 0930 00       		.byte	0
 5145 0931 00       		.byte	0
 5146 0932 1C       		.uleb128 0x1c
 5147 0933 63040000 		.4byte	0x463
 5148 0937 68000000 		.4byte	.LBB215
 5149 093b 90020000 		.4byte	.Ldebug_ranges0+0x290
 5150 093f 01       		.byte	0x1
 5151 0940 0508     		.2byte	0x805
 5152 0942 57090000 		.4byte	0x957
 5153 0946 1D       		.uleb128 0x1d
 5154 0947 74040000 		.4byte	0x474
 5155 094b 1E       		.uleb128 0x1e
 5156 094c 90020000 		.4byte	.Ldebug_ranges0+0x290
 5157 0950 1F       		.uleb128 0x1f
 5158 0951 80040000 		.4byte	0x480
 5159 0955 00       		.byte	0
 5160 0956 00       		.byte	0
 5161 0957 1C       		.uleb128 0x1c
 5162 0958 63040000 		.4byte	0x463
 5163 095c 6C000000 		.4byte	.LBB219
 5164 0960 B0020000 		.4byte	.Ldebug_ranges0+0x2b0
 5165 0964 01       		.byte	0x1
 5166 0965 0608     		.2byte	0x806
 5167 0967 7C090000 		.4byte	0x97c
 5168 096b 1D       		.uleb128 0x1d
 5169 096c 74040000 		.4byte	0x474
 5170 0970 1E       		.uleb128 0x1e
 5171 0971 B0020000 		.4byte	.Ldebug_ranges0+0x2b0
 5172 0975 1F       		.uleb128 0x1f
 5173 0976 80040000 		.4byte	0x480
 5174 097a 00       		.byte	0
 5175 097b 00       		.byte	0
 5176 097c 20       		.uleb128 0x20
 5177 097d 63040000 		.4byte	0x463
 5178 0981 78000000 		.4byte	.LBB225
 5179 0985 D0020000 		.4byte	.Ldebug_ranges0+0x2d0
 5180 0989 01       		.byte	0x1
 5181 098a 0A08     		.2byte	0x80a
 5182 098c 1D       		.uleb128 0x1d
 5183 098d 74040000 		.4byte	0x474
 5184 0991 1E       		.uleb128 0x1e
 5185 0992 D0020000 		.4byte	.Ldebug_ranges0+0x2d0
 5186 0996 1F       		.uleb128 0x1f
 5187 0997 80040000 		.4byte	0x480
ARM GAS  /tmp/cc65ENol.s 			page 92


 5188 099b 00       		.byte	0
 5189 099c 00       		.byte	0
 5190 099d 00       		.byte	0
 5191 099e 21       		.uleb128 0x21
 5192 099f 04       		.byte	0x4
 5193 09a0 D0030000 		.4byte	0x3d0
 5194 09a4 21       		.uleb128 0x21
 5195 09a5 04       		.byte	0x4
 5196 09a6 14040000 		.4byte	0x414
 5197 09aa 14       		.uleb128 0x14
 5198 09ab 33010000 		.4byte	.LASF126
 5199 09af 01       		.byte	0x1
 5200 09b0 BC07     		.2byte	0x7bc
 5201 09b2 00000000 		.4byte	.LFB145
 5202 09b6 34000000 		.4byte	.LFE145-.LFB145
 5203 09ba 01       		.uleb128 0x1
 5204 09bb 9C       		.byte	0x9c
 5205 09bc F1090000 		.4byte	0x9f1
 5206 09c0 15       		.uleb128 0x15
 5207 09c1 F1090000 		.4byte	.LASF127
 5208 09c5 01       		.byte	0x1
 5209 09c6 BC07     		.2byte	0x7bc
 5210 09c8 A7000000 		.4byte	0xa7
 5211 09cc B4040000 		.4byte	.LLST74
 5212 09d0 15       		.uleb128 0x15
 5213 09d1 07000000 		.4byte	.LASF92
 5214 09d5 01       		.byte	0x1
 5215 09d6 BC07     		.2byte	0x7bc
 5216 09d8 11010000 		.4byte	0x111
 5217 09dc E0040000 		.4byte	.LLST75
 5218 09e0 16       		.uleb128 0x16
 5219 09e1 9E010000 		.4byte	.LASF83
 5220 09e5 01       		.byte	0x1
 5221 09e6 BE07     		.2byte	0x7be
 5222 09e8 A7000000 		.4byte	0xa7
 5223 09ec 0C050000 		.4byte	.LLST76
 5224 09f0 00       		.byte	0
 5225 09f1 17       		.uleb128 0x17
 5226 09f2 E10B0000 		.4byte	.LASF128
 5227 09f6 01       		.byte	0x1
 5228 09f7 7007     		.2byte	0x770
 5229 09f9 38010000 		.4byte	0x138
 5230 09fd 00000000 		.4byte	.LFB144
 5231 0a01 4C000000 		.4byte	.LFE144-.LFB144
 5232 0a05 01       		.uleb128 0x1
 5233 0a06 9C       		.byte	0x9c
 5234 0a07 5C0A0000 		.4byte	0xa5c
 5235 0a0b 15       		.uleb128 0x15
 5236 0a0c FC020000 		.4byte	.LASF129
 5237 0a10 01       		.byte	0x1
 5238 0a11 7007     		.2byte	0x770
 5239 0a13 A7000000 		.4byte	0xa7
 5240 0a17 36050000 		.4byte	.LLST69
 5241 0a1b 15       		.uleb128 0x15
 5242 0a1c BB010000 		.4byte	.LASF130
 5243 0a20 01       		.byte	0x1
 5244 0a21 7107     		.2byte	0x771
ARM GAS  /tmp/cc65ENol.s 			page 93


 5245 0a23 A7000000 		.4byte	0xa7
 5246 0a27 70050000 		.4byte	.LLST70
 5247 0a2b 15       		.uleb128 0x15
 5248 0a2c 12030000 		.4byte	.LASF131
 5249 0a30 01       		.byte	0x1
 5250 0a31 7207     		.2byte	0x772
 5251 0a33 A7000000 		.4byte	0xa7
 5252 0a37 9C050000 		.4byte	.LLST71
 5253 0a3b 16       		.uleb128 0x16
 5254 0a3c A30A0000 		.4byte	.LASF96
 5255 0a40 01       		.byte	0x1
 5256 0a41 7407     		.2byte	0x774
 5257 0a43 38010000 		.4byte	0x138
 5258 0a47 C8050000 		.4byte	.LLST72
 5259 0a4b 16       		.uleb128 0x16
 5260 0a4c 3C040000 		.4byte	.LASF132
 5261 0a50 01       		.byte	0x1
 5262 0a51 7507     		.2byte	0x775
 5263 0a53 A7000000 		.4byte	0xa7
 5264 0a57 FF050000 		.4byte	.LLST73
 5265 0a5b 00       		.byte	0
 5266 0a5c 14       		.uleb128 0x14
 5267 0a5d A5010000 		.4byte	.LASF133
 5268 0a61 01       		.byte	0x1
 5269 0a62 4C07     		.2byte	0x74c
 5270 0a64 00000000 		.4byte	.LFB143
 5271 0a68 24000000 		.4byte	.LFE143-.LFB143
 5272 0a6c 01       		.uleb128 0x1
 5273 0a6d 9C       		.byte	0x9c
 5274 0a6e 830A0000 		.4byte	0xa83
 5275 0a72 15       		.uleb128 0x15
 5276 0a73 85060000 		.4byte	.LASF134
 5277 0a77 01       		.byte	0x1
 5278 0a78 4C07     		.2byte	0x74c
 5279 0a7a A7000000 		.4byte	0xa7
 5280 0a7e 4A060000 		.4byte	.LLST68
 5281 0a82 00       		.byte	0
 5282 0a83 14       		.uleb128 0x14
 5283 0a84 F90A0000 		.4byte	.LASF135
 5284 0a88 01       		.byte	0x1
 5285 0a89 2C07     		.2byte	0x72c
 5286 0a8b 00000000 		.4byte	.LFB142
 5287 0a8f 30000000 		.4byte	.LFE142-.LFB142
 5288 0a93 01       		.uleb128 0x1
 5289 0a94 9C       		.byte	0x9c
 5290 0a95 A80A0000 		.4byte	0xaa8
 5291 0a99 18       		.uleb128 0x18
 5292 0a9a 07000000 		.4byte	.LASF92
 5293 0a9e 01       		.byte	0x1
 5294 0a9f 2C07     		.2byte	0x72c
 5295 0aa1 11010000 		.4byte	0x111
 5296 0aa5 01       		.uleb128 0x1
 5297 0aa6 50       		.byte	0x50
 5298 0aa7 00       		.byte	0
 5299 0aa8 17       		.uleb128 0x17
 5300 0aa9 35000000 		.4byte	.LASF136
 5301 0aad 01       		.byte	0x1
ARM GAS  /tmp/cc65ENol.s 			page 94


 5302 0aae FE06     		.2byte	0x6fe
 5303 0ab0 38010000 		.4byte	0x138
 5304 0ab4 00000000 		.4byte	.LFB141
 5305 0ab8 40000000 		.4byte	.LFE141-.LFB141
 5306 0abc 01       		.uleb128 0x1
 5307 0abd 9C       		.byte	0x9c
 5308 0abe FC0A0000 		.4byte	0xafc
 5309 0ac2 15       		.uleb128 0x15
 5310 0ac3 07000000 		.4byte	.LASF92
 5311 0ac7 01       		.byte	0x1
 5312 0ac8 FE06     		.2byte	0x6fe
 5313 0aca 11010000 		.4byte	0x111
 5314 0ace 6B060000 		.4byte	.LLST66
 5315 0ad2 16       		.uleb128 0x16
 5316 0ad3 A30A0000 		.4byte	.LASF96
 5317 0ad7 01       		.byte	0x1
 5318 0ad8 0007     		.2byte	0x700
 5319 0ada 38010000 		.4byte	0x138
 5320 0ade 8C060000 		.4byte	.LLST67
 5321 0ae2 22       		.uleb128 0x22
 5322 0ae3 4D140000 		.4byte	0x144d
 5323 0ae7 1E000000 		.4byte	.LBB202
 5324 0aeb 0A000000 		.4byte	.LBE202-.LBB202
 5325 0aef 01       		.byte	0x1
 5326 0af0 1B07     		.2byte	0x71b
 5327 0af2 19       		.uleb128 0x19
 5328 0af3 12000000 		.4byte	.LVL204
 5329 0af7 56140000 		.4byte	0x1456
 5330 0afb 00       		.byte	0
 5331 0afc 17       		.uleb128 0x17
 5332 0afd 8D0A0000 		.4byte	.LASF137
 5333 0b01 01       		.byte	0x1
 5334 0b02 D506     		.2byte	0x6d5
 5335 0b04 38010000 		.4byte	0x138
 5336 0b08 00000000 		.4byte	.LFB140
 5337 0b0c 30000000 		.4byte	.LFE140-.LFB140
 5338 0b10 01       		.uleb128 0x1
 5339 0b11 9C       		.byte	0x9c
 5340 0b12 600B0000 		.4byte	0xb60
 5341 0b16 15       		.uleb128 0x15
 5342 0b17 FA070000 		.4byte	.LASF138
 5343 0b1b 01       		.byte	0x1
 5344 0b1c D506     		.2byte	0x6d5
 5345 0b1e A7000000 		.4byte	0xa7
 5346 0b22 C3060000 		.4byte	.LLST63
 5347 0b26 15       		.uleb128 0x15
 5348 0b27 CF0A0000 		.4byte	.LASF80
 5349 0b2b 01       		.byte	0x1
 5350 0b2c D506     		.2byte	0x6d5
 5351 0b2e A7000000 		.4byte	0xa7
 5352 0b32 EF060000 		.4byte	.LLST64
 5353 0b36 16       		.uleb128 0x16
 5354 0b37 A30A0000 		.4byte	.LASF96
 5355 0b3b 01       		.byte	0x1
 5356 0b3c D706     		.2byte	0x6d7
 5357 0b3e 38010000 		.4byte	0x138
 5358 0b42 1B070000 		.4byte	.LLST65
ARM GAS  /tmp/cc65ENol.s 			page 95


 5359 0b46 22       		.uleb128 0x22
 5360 0b47 4D140000 		.4byte	0x144d
 5361 0b4b 1A000000 		.4byte	.LBB200
 5362 0b4f 08000000 		.4byte	.LBE200-.LBB200
 5363 0b53 01       		.byte	0x1
 5364 0b54 EB06     		.2byte	0x6eb
 5365 0b56 19       		.uleb128 0x19
 5366 0b57 14000000 		.4byte	.LVL198
 5367 0b5b 56140000 		.4byte	0x1456
 5368 0b5f 00       		.byte	0
 5369 0b60 14       		.uleb128 0x14
 5370 0b61 A6040000 		.4byte	.LASF139
 5371 0b65 01       		.byte	0x1
 5372 0b66 9F06     		.2byte	0x69f
 5373 0b68 00000000 		.4byte	.LFB139
 5374 0b6c 2C000000 		.4byte	.LFE139-.LFB139
 5375 0b70 01       		.uleb128 0x1
 5376 0b71 9C       		.byte	0x9c
 5377 0b72 950B0000 		.4byte	0xb95
 5378 0b76 18       		.uleb128 0x18
 5379 0b77 7B040000 		.4byte	.LASF140
 5380 0b7b 01       		.byte	0x1
 5381 0b7c 9F06     		.2byte	0x69f
 5382 0b7e A7000000 		.4byte	0xa7
 5383 0b82 01       		.uleb128 0x1
 5384 0b83 50       		.byte	0x50
 5385 0b84 15       		.uleb128 0x15
 5386 0b85 1E080000 		.4byte	.LASF141
 5387 0b89 01       		.byte	0x1
 5388 0b8a 9F06     		.2byte	0x69f
 5389 0b8c A7000000 		.4byte	0xa7
 5390 0b90 46070000 		.4byte	.LLST62
 5391 0b94 00       		.byte	0
 5392 0b95 1B       		.uleb128 0x1b
 5393 0b96 E7000000 		.4byte	.LASF143
 5394 0b9a 01       		.byte	0x1
 5395 0b9b 7806     		.2byte	0x678
 5396 0b9d A7000000 		.4byte	0xa7
 5397 0ba1 00000000 		.4byte	.LFB138
 5398 0ba5 10000000 		.4byte	.LFE138-.LFB138
 5399 0ba9 01       		.uleb128 0x1
 5400 0baa 9C       		.byte	0x9c
 5401 0bab 14       		.uleb128 0x14
 5402 0bac A8000000 		.4byte	.LASF144
 5403 0bb0 01       		.byte	0x1
 5404 0bb1 5D06     		.2byte	0x65d
 5405 0bb3 00000000 		.4byte	.LFB137
 5406 0bb7 2C000000 		.4byte	.LFE137-.LFB137
 5407 0bbb 01       		.uleb128 0x1
 5408 0bbc 9C       		.byte	0x9c
 5409 0bbd E00B0000 		.4byte	0xbe0
 5410 0bc1 18       		.uleb128 0x18
 5411 0bc2 53000000 		.4byte	.LASF145
 5412 0bc6 01       		.byte	0x1
 5413 0bc7 5D06     		.2byte	0x65d
 5414 0bc9 A7000000 		.4byte	0xa7
 5415 0bcd 01       		.uleb128 0x1
ARM GAS  /tmp/cc65ENol.s 			page 96


 5416 0bce 50       		.byte	0x50
 5417 0bcf 15       		.uleb128 0x15
 5418 0bd0 1D040000 		.4byte	.LASF146
 5419 0bd4 01       		.byte	0x1
 5420 0bd5 5D06     		.2byte	0x65d
 5421 0bd7 A7000000 		.4byte	0xa7
 5422 0bdb 67070000 		.4byte	.LLST61
 5423 0bdf 00       		.byte	0
 5424 0be0 17       		.uleb128 0x17
 5425 0be1 8A010000 		.4byte	.LASF147
 5426 0be5 01       		.byte	0x1
 5427 0be6 1006     		.2byte	0x610
 5428 0be8 38010000 		.4byte	0x138
 5429 0bec 00000000 		.4byte	.LFB136
 5430 0bf0 5C000000 		.4byte	.LFE136-.LFB136
 5431 0bf4 01       		.uleb128 0x1
 5432 0bf5 9C       		.byte	0x9c
 5433 0bf6 3A0C0000 		.4byte	0xc3a
 5434 0bfa 15       		.uleb128 0x15
 5435 0bfb 07000000 		.4byte	.LASF92
 5436 0bff 01       		.byte	0x1
 5437 0c00 1006     		.2byte	0x610
 5438 0c02 11010000 		.4byte	0x111
 5439 0c06 88070000 		.4byte	.LLST58
 5440 0c0a 23       		.uleb128 0x23
 5441 0c0b 12040000 		.4byte	.LASF148
 5442 0c0f 01       		.byte	0x1
 5443 0c10 1206     		.2byte	0x612
 5444 0c12 B2000000 		.4byte	0xb2
 5445 0c16 02       		.uleb128 0x2
 5446 0c17 91       		.byte	0x91
 5447 0c18 74       		.sleb128 -12
 5448 0c19 16       		.uleb128 0x16
 5449 0c1a 7E010000 		.4byte	.LASF149
 5450 0c1e 01       		.byte	0x1
 5451 0c1f 1306     		.2byte	0x613
 5452 0c21 A7000000 		.4byte	0xa7
 5453 0c25 C2070000 		.4byte	.LLST59
 5454 0c29 16       		.uleb128 0x16
 5455 0c2a A30A0000 		.4byte	.LASF96
 5456 0c2e 01       		.byte	0x1
 5457 0c2f 1406     		.2byte	0x614
 5458 0c31 38010000 		.4byte	0x138
 5459 0c35 F8070000 		.4byte	.LLST60
 5460 0c39 00       		.byte	0
 5461 0c3a 1B       		.uleb128 0x1b
 5462 0c3b B7040000 		.4byte	.LASF150
 5463 0c3f 01       		.byte	0x1
 5464 0c40 0406     		.2byte	0x604
 5465 0c42 A7000000 		.4byte	0xa7
 5466 0c46 00000000 		.4byte	.LFB135
 5467 0c4a 0C000000 		.4byte	.LFE135-.LFB135
 5468 0c4e 01       		.uleb128 0x1
 5469 0c4f 9C       		.byte	0x9c
 5470 0c50 14       		.uleb128 0x14
 5471 0c51 290B0000 		.4byte	.LASF151
 5472 0c55 01       		.byte	0x1
ARM GAS  /tmp/cc65ENol.s 			page 97


 5473 0c56 EF05     		.2byte	0x5ef
 5474 0c58 00000000 		.4byte	.LFB134
 5475 0c5c 1C000000 		.4byte	.LFE134-.LFB134
 5476 0c60 01       		.uleb128 0x1
 5477 0c61 9C       		.byte	0x9c
 5478 0c62 750C0000 		.4byte	0xc75
 5479 0c66 18       		.uleb128 0x18
 5480 0c67 32070000 		.4byte	.LASF152
 5481 0c6b 01       		.byte	0x1
 5482 0c6c EF05     		.2byte	0x5ef
 5483 0c6e A7000000 		.4byte	0xa7
 5484 0c72 01       		.uleb128 0x1
 5485 0c73 50       		.byte	0x50
 5486 0c74 00       		.byte	0
 5487 0c75 14       		.uleb128 0x14
 5488 0c76 95060000 		.4byte	.LASF153
 5489 0c7a 01       		.byte	0x1
 5490 0c7b D405     		.2byte	0x5d4
 5491 0c7d 00000000 		.4byte	.LFB133
 5492 0c81 24000000 		.4byte	.LFE133-.LFB133
 5493 0c85 01       		.uleb128 0x1
 5494 0c86 9C       		.byte	0x9c
 5495 0c87 9C0C0000 		.4byte	0xc9c
 5496 0c8b 15       		.uleb128 0x15
 5497 0c8c CE070000 		.4byte	.LASF154
 5498 0c90 01       		.byte	0x1
 5499 0c91 D405     		.2byte	0x5d4
 5500 0c93 A7000000 		.4byte	0xa7
 5501 0c97 2F080000 		.4byte	.LLST57
 5502 0c9b 00       		.byte	0
 5503 0c9c 17       		.uleb128 0x17
 5504 0c9d 54070000 		.4byte	.LASF155
 5505 0ca1 01       		.byte	0x1
 5506 0ca2 A305     		.2byte	0x5a3
 5507 0ca4 A7000000 		.4byte	0xa7
 5508 0ca8 00000000 		.4byte	.LFB132
 5509 0cac 18000000 		.4byte	.LFE132-.LFB132
 5510 0cb0 01       		.uleb128 0x1
 5511 0cb1 9C       		.byte	0x9c
 5512 0cb2 D70C0000 		.4byte	0xcd7
 5513 0cb6 15       		.uleb128 0x15
 5514 0cb7 44020000 		.4byte	.LASF156
 5515 0cbb 01       		.byte	0x1
 5516 0cbc A305     		.2byte	0x5a3
 5517 0cbe A7000000 		.4byte	0xa7
 5518 0cc2 50080000 		.4byte	.LLST55
 5519 0cc6 16       		.uleb128 0x16
 5520 0cc7 9E010000 		.4byte	.LASF83
 5521 0ccb 01       		.byte	0x1
 5522 0ccc A505     		.2byte	0x5a5
 5523 0cce A7000000 		.4byte	0xa7
 5524 0cd2 71080000 		.4byte	.LLST56
 5525 0cd6 00       		.byte	0
 5526 0cd7 14       		.uleb128 0x14
 5527 0cd8 80000000 		.4byte	.LASF157
 5528 0cdc 01       		.byte	0x1
 5529 0cdd 7A05     		.2byte	0x57a
ARM GAS  /tmp/cc65ENol.s 			page 98


 5530 0cdf 00000000 		.4byte	.LFB131
 5531 0ce3 28000000 		.4byte	.LFE131-.LFB131
 5532 0ce7 01       		.uleb128 0x1
 5533 0ce8 9C       		.byte	0x9c
 5534 0ce9 2A0D0000 		.4byte	0xd2a
 5535 0ced 18       		.uleb128 0x18
 5536 0cee 44020000 		.4byte	.LASF156
 5537 0cf2 01       		.byte	0x1
 5538 0cf3 7A05     		.2byte	0x57a
 5539 0cf5 A7000000 		.4byte	0xa7
 5540 0cf9 01       		.uleb128 0x1
 5541 0cfa 50       		.byte	0x50
 5542 0cfb 18       		.uleb128 0x18
 5543 0cfc 44030000 		.4byte	.LASF158
 5544 0d00 01       		.byte	0x1
 5545 0d01 7A05     		.2byte	0x57a
 5546 0d03 A7000000 		.4byte	0xa7
 5547 0d07 01       		.uleb128 0x1
 5548 0d08 51       		.byte	0x51
 5549 0d09 15       		.uleb128 0x15
 5550 0d0a 1E000000 		.4byte	.LASF159
 5551 0d0e 01       		.byte	0x1
 5552 0d0f 7A05     		.2byte	0x57a
 5553 0d11 A7000000 		.4byte	0xa7
 5554 0d15 90080000 		.4byte	.LLST53
 5555 0d19 16       		.uleb128 0x16
 5556 0d1a 9E010000 		.4byte	.LASF83
 5557 0d1e 01       		.byte	0x1
 5558 0d1f 7C05     		.2byte	0x57c
 5559 0d21 A7000000 		.4byte	0xa7
 5560 0d25 B1080000 		.4byte	.LLST54
 5561 0d29 00       		.byte	0
 5562 0d2a 17       		.uleb128 0x17
 5563 0d2b C1070000 		.4byte	.LASF160
 5564 0d2f 01       		.byte	0x1
 5565 0d30 1C05     		.2byte	0x51c
 5566 0d32 38010000 		.4byte	0x138
 5567 0d36 00000000 		.4byte	.LFB130
 5568 0d3a 5C000000 		.4byte	.LFE130-.LFB130
 5569 0d3e 01       		.uleb128 0x1
 5570 0d3f 9C       		.byte	0x9c
 5571 0d40 940D0000 		.4byte	0xd94
 5572 0d44 15       		.uleb128 0x15
 5573 0d45 44020000 		.4byte	.LASF156
 5574 0d49 01       		.byte	0x1
 5575 0d4a 1C05     		.2byte	0x51c
 5576 0d4c A7000000 		.4byte	0xa7
 5577 0d50 E1080000 		.4byte	.LLST49
 5578 0d54 15       		.uleb128 0x15
 5579 0d55 07000000 		.4byte	.LASF92
 5580 0d59 01       		.byte	0x1
 5581 0d5a 1C05     		.2byte	0x51c
 5582 0d5c 11010000 		.4byte	0x111
 5583 0d60 1B090000 		.4byte	.LLST50
 5584 0d64 23       		.uleb128 0x23
 5585 0d65 9E090000 		.4byte	.LASF161
 5586 0d69 01       		.byte	0x1
ARM GAS  /tmp/cc65ENol.s 			page 99


 5587 0d6a 1E05     		.2byte	0x51e
 5588 0d6c B2000000 		.4byte	0xb2
 5589 0d70 02       		.uleb128 0x2
 5590 0d71 91       		.byte	0x91
 5591 0d72 74       		.sleb128 -12
 5592 0d73 16       		.uleb128 0x16
 5593 0d74 4E0B0000 		.4byte	.LASF162
 5594 0d78 01       		.byte	0x1
 5595 0d79 1F05     		.2byte	0x51f
 5596 0d7b A7000000 		.4byte	0xa7
 5597 0d7f 47090000 		.4byte	.LLST51
 5598 0d83 16       		.uleb128 0x16
 5599 0d84 A30A0000 		.4byte	.LASF96
 5600 0d88 01       		.byte	0x1
 5601 0d89 2005     		.2byte	0x520
 5602 0d8b 38010000 		.4byte	0x138
 5603 0d8f 7D090000 		.4byte	.LLST52
 5604 0d93 00       		.byte	0
 5605 0d94 14       		.uleb128 0x14
 5606 0d95 C20A0000 		.4byte	.LASF163
 5607 0d99 01       		.byte	0x1
 5608 0d9a E604     		.2byte	0x4e6
 5609 0d9c 00000000 		.4byte	.LFB129
 5610 0da0 9C000000 		.4byte	.LFE129-.LFB129
 5611 0da4 01       		.uleb128 0x1
 5612 0da5 9C       		.byte	0x9c
 5613 0da6 790E0000 		.4byte	0xe79
 5614 0daa 15       		.uleb128 0x15
 5615 0dab 68090000 		.4byte	.LASF121
 5616 0daf 01       		.byte	0x1
 5617 0db0 E604     		.2byte	0x4e6
 5618 0db2 A7000000 		.4byte	0xa7
 5619 0db6 B4090000 		.4byte	.LLST46
 5620 0dba 15       		.uleb128 0x15
 5621 0dbb 44020000 		.4byte	.LASF156
 5622 0dbf 01       		.byte	0x1
 5623 0dc0 E604     		.2byte	0x4e6
 5624 0dc2 A7000000 		.4byte	0xa7
 5625 0dc6 D5090000 		.4byte	.LLST47
 5626 0dca 18       		.uleb128 0x18
 5627 0dcb 66000000 		.4byte	.LASF164
 5628 0dcf 01       		.byte	0x1
 5629 0dd0 E604     		.2byte	0x4e6
 5630 0dd2 790E0000 		.4byte	0xe79
 5631 0dd6 01       		.uleb128 0x1
 5632 0dd7 52       		.byte	0x52
 5633 0dd8 16       		.uleb128 0x16
 5634 0dd9 9E010000 		.4byte	.LASF83
 5635 0ddd 01       		.byte	0x1
 5636 0dde E804     		.2byte	0x4e8
 5637 0de0 A7000000 		.4byte	0xa7
 5638 0de4 F6090000 		.4byte	.LLST48
 5639 0de8 1C       		.uleb128 0x1c
 5640 0de9 63040000 		.4byte	0x463
 5641 0ded 4E000000 		.4byte	.LBB168
 5642 0df1 A8010000 		.4byte	.Ldebug_ranges0+0x1a8
 5643 0df5 01       		.byte	0x1
ARM GAS  /tmp/cc65ENol.s 			page 100


 5644 0df6 0605     		.2byte	0x506
 5645 0df8 0D0E0000 		.4byte	0xe0d
 5646 0dfc 1D       		.uleb128 0x1d
 5647 0dfd 74040000 		.4byte	0x474
 5648 0e01 1E       		.uleb128 0x1e
 5649 0e02 A8010000 		.4byte	.Ldebug_ranges0+0x1a8
 5650 0e06 1F       		.uleb128 0x1f
 5651 0e07 80040000 		.4byte	0x480
 5652 0e0b 00       		.byte	0
 5653 0e0c 00       		.byte	0
 5654 0e0d 1C       		.uleb128 0x1c
 5655 0e0e 63040000 		.4byte	0x463
 5656 0e12 50000000 		.4byte	.LBB173
 5657 0e16 D0010000 		.4byte	.Ldebug_ranges0+0x1d0
 5658 0e1a 01       		.byte	0x1
 5659 0e1b 0805     		.2byte	0x508
 5660 0e1d 320E0000 		.4byte	0xe32
 5661 0e21 1D       		.uleb128 0x1d
 5662 0e22 74040000 		.4byte	0x474
 5663 0e26 1E       		.uleb128 0x1e
 5664 0e27 D0010000 		.4byte	.Ldebug_ranges0+0x1d0
 5665 0e2b 1F       		.uleb128 0x1f
 5666 0e2c 80040000 		.4byte	0x480
 5667 0e30 00       		.byte	0
 5668 0e31 00       		.byte	0
 5669 0e32 1C       		.uleb128 0x1c
 5670 0e33 63040000 		.4byte	0x463
 5671 0e37 52000000 		.4byte	.LBB178
 5672 0e3b F8010000 		.4byte	.Ldebug_ranges0+0x1f8
 5673 0e3f 01       		.byte	0x1
 5674 0e40 0A05     		.2byte	0x50a
 5675 0e42 570E0000 		.4byte	0xe57
 5676 0e46 1D       		.uleb128 0x1d
 5677 0e47 74040000 		.4byte	0x474
 5678 0e4b 1E       		.uleb128 0x1e
 5679 0e4c F8010000 		.4byte	.Ldebug_ranges0+0x1f8
 5680 0e50 1F       		.uleb128 0x1f
 5681 0e51 80040000 		.4byte	0x480
 5682 0e55 00       		.byte	0
 5683 0e56 00       		.byte	0
 5684 0e57 20       		.uleb128 0x20
 5685 0e58 63040000 		.4byte	0x463
 5686 0e5c 56000000 		.4byte	.LBB183
 5687 0e60 20020000 		.4byte	.Ldebug_ranges0+0x220
 5688 0e64 01       		.byte	0x1
 5689 0e65 0C05     		.2byte	0x50c
 5690 0e67 1D       		.uleb128 0x1d
 5691 0e68 74040000 		.4byte	0x474
 5692 0e6c 1E       		.uleb128 0x1e
 5693 0e6d 20020000 		.4byte	.Ldebug_ranges0+0x220
 5694 0e71 1F       		.uleb128 0x1f
 5695 0e72 80040000 		.4byte	0x480
 5696 0e76 00       		.byte	0
 5697 0e77 00       		.byte	0
 5698 0e78 00       		.byte	0
 5699 0e79 21       		.uleb128 0x21
 5700 0e7a 04       		.byte	0x4
ARM GAS  /tmp/cc65ENol.s 			page 101


 5701 0e7b 58040000 		.4byte	0x458
 5702 0e7f 14       		.uleb128 0x14
 5703 0e80 47090000 		.4byte	.LASF165
 5704 0e84 01       		.byte	0x1
 5705 0e85 C804     		.2byte	0x4c8
 5706 0e87 00000000 		.4byte	.LFB128
 5707 0e8b 0E000000 		.4byte	.LFE128-.LFB128
 5708 0e8f 01       		.uleb128 0x1
 5709 0e90 9C       		.byte	0x9c
 5710 0e91 A40E0000 		.4byte	0xea4
 5711 0e95 18       		.uleb128 0x18
 5712 0e96 66000000 		.4byte	.LASF164
 5713 0e9a 01       		.byte	0x1
 5714 0e9b C804     		.2byte	0x4c8
 5715 0e9d 790E0000 		.4byte	0xe79
 5716 0ea1 01       		.uleb128 0x1
 5717 0ea2 50       		.byte	0x50
 5718 0ea3 00       		.byte	0
 5719 0ea4 14       		.uleb128 0x14
 5720 0ea5 87070000 		.4byte	.LASF166
 5721 0ea9 01       		.byte	0x1
 5722 0eaa 5904     		.2byte	0x459
 5723 0eac 00000000 		.4byte	.LFB127
 5724 0eb0 00010000 		.4byte	.LFE127-.LFB127
 5725 0eb4 01       		.uleb128 0x1
 5726 0eb5 9C       		.byte	0x9c
 5727 0eb6 A90F0000 		.4byte	0xfa9
 5728 0eba 15       		.uleb128 0x15
 5729 0ebb 68090000 		.4byte	.LASF121
 5730 0ebf 01       		.byte	0x1
 5731 0ec0 5904     		.2byte	0x459
 5732 0ec2 A7000000 		.4byte	0xa7
 5733 0ec6 150A0000 		.4byte	.LLST35
 5734 0eca 18       		.uleb128 0x18
 5735 0ecb 44020000 		.4byte	.LASF156
 5736 0ecf 01       		.byte	0x1
 5737 0ed0 5904     		.2byte	0x459
 5738 0ed2 A7000000 		.4byte	0xa7
 5739 0ed6 01       		.uleb128 0x1
 5740 0ed7 51       		.byte	0x51
 5741 0ed8 15       		.uleb128 0x15
 5742 0ed9 66000000 		.4byte	.LASF164
 5743 0edd 01       		.byte	0x1
 5744 0ede 5904     		.2byte	0x459
 5745 0ee0 790E0000 		.4byte	0xe79
 5746 0ee4 680A0000 		.4byte	.LLST36
 5747 0ee8 16       		.uleb128 0x16
 5748 0ee9 9E010000 		.4byte	.LASF83
 5749 0eed 01       		.byte	0x1
 5750 0eee 5B04     		.2byte	0x45b
 5751 0ef0 A7000000 		.4byte	0xa7
 5752 0ef4 AD0A0000 		.4byte	.LLST37
 5753 0ef8 1C       		.uleb128 0x1c
 5754 0ef9 8D040000 		.4byte	0x48d
 5755 0efd 14000000 		.4byte	.LBB150
 5756 0f01 40010000 		.4byte	.Ldebug_ranges0+0x140
 5757 0f05 01       		.byte	0x1
ARM GAS  /tmp/cc65ENol.s 			page 102


 5758 0f06 A504     		.2byte	0x4a5
 5759 0f08 250F0000 		.4byte	0xf25
 5760 0f0c 24       		.uleb128 0x24
 5761 0f0d 9E040000 		.4byte	0x49e
 5762 0f11 EF0A0000 		.4byte	.LLST38
 5763 0f15 1E       		.uleb128 0x1e
 5764 0f16 40010000 		.4byte	.Ldebug_ranges0+0x140
 5765 0f1a 25       		.uleb128 0x25
 5766 0f1b AA040000 		.4byte	0x4aa
 5767 0f1f 180B0000 		.4byte	.LLST39
 5768 0f23 00       		.byte	0
 5769 0f24 00       		.byte	0
 5770 0f25 1C       		.uleb128 0x1c
 5771 0f26 8D040000 		.4byte	0x48d
 5772 0f2a 2E000000 		.4byte	.LBB153
 5773 0f2e 58010000 		.4byte	.Ldebug_ranges0+0x158
 5774 0f32 01       		.byte	0x1
 5775 0f33 A604     		.2byte	0x4a6
 5776 0f35 520F0000 		.4byte	0xf52
 5777 0f39 24       		.uleb128 0x24
 5778 0f3a 9E040000 		.4byte	0x49e
 5779 0f3e 4E0B0000 		.4byte	.LLST40
 5780 0f42 1E       		.uleb128 0x1e
 5781 0f43 58010000 		.4byte	.Ldebug_ranges0+0x158
 5782 0f47 25       		.uleb128 0x25
 5783 0f48 AA040000 		.4byte	0x4aa
 5784 0f4c 6C0B0000 		.4byte	.LLST41
 5785 0f50 00       		.byte	0
 5786 0f51 00       		.byte	0
 5787 0f52 1C       		.uleb128 0x1c
 5788 0f53 8D040000 		.4byte	0x48d
 5789 0f57 4E000000 		.4byte	.LBB157
 5790 0f5b 70010000 		.4byte	.Ldebug_ranges0+0x170
 5791 0f5f 01       		.byte	0x1
 5792 0f60 A704     		.2byte	0x4a7
 5793 0f62 7F0F0000 		.4byte	0xf7f
 5794 0f66 24       		.uleb128 0x24
 5795 0f67 9E040000 		.4byte	0x49e
 5796 0f6b 960B0000 		.4byte	.LLST42
 5797 0f6f 1E       		.uleb128 0x1e
 5798 0f70 70010000 		.4byte	.Ldebug_ranges0+0x170
 5799 0f74 25       		.uleb128 0x25
 5800 0f75 AA040000 		.4byte	0x4aa
 5801 0f79 BF0B0000 		.4byte	.LLST43
 5802 0f7d 00       		.byte	0
 5803 0f7e 00       		.byte	0
 5804 0f7f 20       		.uleb128 0x20
 5805 0f80 8D040000 		.4byte	0x48d
 5806 0f84 6A000000 		.4byte	.LBB162
 5807 0f88 90010000 		.4byte	.Ldebug_ranges0+0x190
 5808 0f8c 01       		.byte	0x1
 5809 0f8d A904     		.2byte	0x4a9
 5810 0f8f 24       		.uleb128 0x24
 5811 0f90 9E040000 		.4byte	0x49e
 5812 0f94 F50B0000 		.4byte	.LLST44
 5813 0f98 1E       		.uleb128 0x1e
 5814 0f99 90010000 		.4byte	.Ldebug_ranges0+0x190
ARM GAS  /tmp/cc65ENol.s 			page 103


 5815 0f9d 25       		.uleb128 0x25
 5816 0f9e AA040000 		.4byte	0x4aa
 5817 0fa2 130C0000 		.4byte	.LLST45
 5818 0fa6 00       		.byte	0
 5819 0fa7 00       		.byte	0
 5820 0fa8 00       		.byte	0
 5821 0fa9 14       		.uleb128 0x14
 5822 0faa 3B090000 		.4byte	.LASF167
 5823 0fae 01       		.byte	0x1
 5824 0faf 1D04     		.2byte	0x41d
 5825 0fb1 00000000 		.4byte	.LFB126
 5826 0fb5 60000000 		.4byte	.LFE126-.LFB126
 5827 0fb9 01       		.uleb128 0x1
 5828 0fba 9C       		.byte	0x9c
 5829 0fbb 59100000 		.4byte	0x1059
 5830 0fbf 15       		.uleb128 0x15
 5831 0fc0 68090000 		.4byte	.LASF121
 5832 0fc4 01       		.byte	0x1
 5833 0fc5 1D04     		.2byte	0x41d
 5834 0fc7 A7000000 		.4byte	0xa7
 5835 0fcb 3D0C0000 		.4byte	.LLST33
 5836 0fcf 18       		.uleb128 0x18
 5837 0fd0 52050000 		.4byte	.LASF168
 5838 0fd4 01       		.byte	0x1
 5839 0fd5 1D04     		.2byte	0x41d
 5840 0fd7 A4090000 		.4byte	0x9a4
 5841 0fdb 01       		.uleb128 0x1
 5842 0fdc 51       		.byte	0x51
 5843 0fdd 16       		.uleb128 0x16
 5844 0fde 9E010000 		.4byte	.LASF83
 5845 0fe2 01       		.byte	0x1
 5846 0fe3 1F04     		.2byte	0x41f
 5847 0fe5 A7000000 		.4byte	0xa7
 5848 0fe9 5E0C0000 		.4byte	.LLST34
 5849 0fed 1C       		.uleb128 0x1c
 5850 0fee 63040000 		.4byte	0x463
 5851 0ff2 28000000 		.4byte	.LBB130
 5852 0ff6 D8000000 		.4byte	.Ldebug_ranges0+0xd8
 5853 0ffa 01       		.byte	0x1
 5854 0ffb 3204     		.2byte	0x432
 5855 0ffd 12100000 		.4byte	0x1012
 5856 1001 1D       		.uleb128 0x1d
 5857 1002 74040000 		.4byte	0x474
 5858 1006 1E       		.uleb128 0x1e
 5859 1007 D8000000 		.4byte	.Ldebug_ranges0+0xd8
 5860 100b 1F       		.uleb128 0x1f
 5861 100c 80040000 		.4byte	0x480
 5862 1010 00       		.byte	0
 5863 1011 00       		.byte	0
 5864 1012 1C       		.uleb128 0x1c
 5865 1013 63040000 		.4byte	0x463
 5866 1017 2C000000 		.4byte	.LBB135
 5867 101b 00010000 		.4byte	.Ldebug_ranges0+0x100
 5868 101f 01       		.byte	0x1
 5869 1020 3104     		.2byte	0x431
 5870 1022 37100000 		.4byte	0x1037
 5871 1026 1D       		.uleb128 0x1d
ARM GAS  /tmp/cc65ENol.s 			page 104


 5872 1027 74040000 		.4byte	0x474
 5873 102b 1E       		.uleb128 0x1e
 5874 102c 00010000 		.4byte	.Ldebug_ranges0+0x100
 5875 1030 1F       		.uleb128 0x1f
 5876 1031 80040000 		.4byte	0x480
 5877 1035 00       		.byte	0
 5878 1036 00       		.byte	0
 5879 1037 20       		.uleb128 0x20
 5880 1038 63040000 		.4byte	0x463
 5881 103c 30000000 		.4byte	.LBB140
 5882 1040 20010000 		.4byte	.Ldebug_ranges0+0x120
 5883 1044 01       		.byte	0x1
 5884 1045 3304     		.2byte	0x433
 5885 1047 1D       		.uleb128 0x1d
 5886 1048 74040000 		.4byte	0x474
 5887 104c 1E       		.uleb128 0x1e
 5888 104d 20010000 		.4byte	.Ldebug_ranges0+0x120
 5889 1051 1F       		.uleb128 0x1f
 5890 1052 80040000 		.4byte	0x480
 5891 1056 00       		.byte	0
 5892 1057 00       		.byte	0
 5893 1058 00       		.byte	0
 5894 1059 14       		.uleb128 0x14
 5895 105a 0F020000 		.4byte	.LASF169
 5896 105e 01       		.byte	0x1
 5897 105f 0A04     		.2byte	0x40a
 5898 1061 00000000 		.4byte	.LFB125
 5899 1065 0E000000 		.4byte	.LFE125-.LFB125
 5900 1069 01       		.uleb128 0x1
 5901 106a 9C       		.byte	0x9c
 5902 106b 7E100000 		.4byte	0x107e
 5903 106f 18       		.uleb128 0x18
 5904 1070 52050000 		.4byte	.LASF168
 5905 1074 01       		.byte	0x1
 5906 1075 0A04     		.2byte	0x40a
 5907 1077 A4090000 		.4byte	0x9a4
 5908 107b 01       		.uleb128 0x1
 5909 107c 50       		.byte	0x50
 5910 107d 00       		.byte	0
 5911 107e 17       		.uleb128 0x17
 5912 107f 38020000 		.4byte	.LASF170
 5913 1083 01       		.byte	0x1
 5914 1084 AF03     		.2byte	0x3af
 5915 1086 38010000 		.4byte	0x138
 5916 108a 00000000 		.4byte	.LFB124
 5917 108e D4000000 		.4byte	.LFE124-.LFB124
 5918 1092 01       		.uleb128 0x1
 5919 1093 9C       		.byte	0x9c
 5920 1094 86110000 		.4byte	0x1186
 5921 1098 15       		.uleb128 0x15
 5922 1099 68090000 		.4byte	.LASF121
 5923 109d 01       		.byte	0x1
 5924 109e AF03     		.2byte	0x3af
 5925 10a0 A7000000 		.4byte	0xa7
 5926 10a4 7D0C0000 		.4byte	.LLST23
 5927 10a8 15       		.uleb128 0x15
 5928 10a9 52050000 		.4byte	.LASF168
ARM GAS  /tmp/cc65ENol.s 			page 105


 5929 10ad 01       		.byte	0x1
 5930 10ae AF03     		.2byte	0x3af
 5931 10b0 A4090000 		.4byte	0x9a4
 5932 10b4 B70C0000 		.4byte	.LLST24
 5933 10b8 16       		.uleb128 0x16
 5934 10b9 9E010000 		.4byte	.LASF83
 5935 10bd 01       		.byte	0x1
 5936 10be B103     		.2byte	0x3b1
 5937 10c0 A7000000 		.4byte	0xa7
 5938 10c4 F10C0000 		.4byte	.LLST25
 5939 10c8 16       		.uleb128 0x16
 5940 10c9 A30A0000 		.4byte	.LASF96
 5941 10cd 01       		.byte	0x1
 5942 10ce B203     		.2byte	0x3b2
 5943 10d0 38010000 		.4byte	0x138
 5944 10d4 270D0000 		.4byte	.LLST26
 5945 10d8 26       		.uleb128 0x26
 5946 10d9 8D040000 		.4byte	0x48d
 5947 10dd 1E000000 		.4byte	.LBB118
 5948 10e1 18000000 		.4byte	.LBE118-.LBB118
 5949 10e5 01       		.byte	0x1
 5950 10e6 D503     		.2byte	0x3d5
 5951 10e8 09110000 		.4byte	0x1109
 5952 10ec 24       		.uleb128 0x24
 5953 10ed 9E040000 		.4byte	0x49e
 5954 10f1 5D0D0000 		.4byte	.LLST27
 5955 10f5 27       		.uleb128 0x27
 5956 10f6 1E000000 		.4byte	.LBB119
 5957 10fa 18000000 		.4byte	.LBE119-.LBB119
 5958 10fe 25       		.uleb128 0x25
 5959 10ff AA040000 		.4byte	0x4aa
 5960 1103 870D0000 		.4byte	.LLST28
 5961 1107 00       		.byte	0
 5962 1108 00       		.byte	0
 5963 1109 1C       		.uleb128 0x1c
 5964 110a 8D040000 		.4byte	0x48d
 5965 110e 38000000 		.4byte	.LBB120
 5966 1112 A8000000 		.4byte	.Ldebug_ranges0+0xa8
 5967 1116 01       		.byte	0x1
 5968 1117 D603     		.2byte	0x3d6
 5969 1119 36110000 		.4byte	0x1136
 5970 111d 24       		.uleb128 0x24
 5971 111e 9E040000 		.4byte	0x49e
 5972 1122 B10D0000 		.4byte	.LLST29
 5973 1126 1E       		.uleb128 0x1e
 5974 1127 A8000000 		.4byte	.Ldebug_ranges0+0xa8
 5975 112b 25       		.uleb128 0x25
 5976 112c AA040000 		.4byte	0x4aa
 5977 1130 EA0D0000 		.4byte	.LLST30
 5978 1134 00       		.byte	0
 5979 1135 00       		.byte	0
 5980 1136 1C       		.uleb128 0x1c
 5981 1137 8D040000 		.4byte	0x48d
 5982 113b 56000000 		.4byte	.LBB124
 5983 113f C0000000 		.4byte	.Ldebug_ranges0+0xc0
 5984 1143 01       		.byte	0x1
 5985 1144 D703     		.2byte	0x3d7
ARM GAS  /tmp/cc65ENol.s 			page 106


 5986 1146 63110000 		.4byte	0x1163
 5987 114a 24       		.uleb128 0x24
 5988 114b 9E040000 		.4byte	0x49e
 5989 114f 140E0000 		.4byte	.LLST31
 5990 1153 1E       		.uleb128 0x1e
 5991 1154 C0000000 		.4byte	.Ldebug_ranges0+0xc0
 5992 1158 25       		.uleb128 0x25
 5993 1159 AA040000 		.4byte	0x4aa
 5994 115d 410E0000 		.4byte	.LLST32
 5995 1161 00       		.byte	0
 5996 1162 00       		.byte	0
 5997 1163 22       		.uleb128 0x22
 5998 1164 4D140000 		.4byte	0x144d
 5999 1168 96000000 		.4byte	.LBB128
 6000 116c 08000000 		.4byte	.LBE128-.LBB128
 6001 1170 01       		.byte	0x1
 6002 1171 EA03     		.2byte	0x3ea
 6003 1173 19       		.uleb128 0x19
 6004 1174 8A000000 		.4byte	.LVL104
 6005 1178 56140000 		.4byte	0x1456
 6006 117c 19       		.uleb128 0x19
 6007 117d BE000000 		.4byte	.LVL110
 6008 1181 03140000 		.4byte	0x1403
 6009 1185 00       		.byte	0
 6010 1186 17       		.uleb128 0x17
 6011 1187 7A0B0000 		.4byte	.LASF171
 6012 118b 01       		.byte	0x1
 6013 118c 9603     		.2byte	0x396
 6014 118e A7000000 		.4byte	0xa7
 6015 1192 00000000 		.4byte	.LFB123
 6016 1196 0C000000 		.4byte	.LFE123-.LFB123
 6017 119a 01       		.uleb128 0x1
 6018 119b 9C       		.byte	0x9c
 6019 119c B1110000 		.4byte	0x11b1
 6020 11a0 16       		.uleb128 0x16
 6021 11a1 9E010000 		.4byte	.LASF83
 6022 11a5 01       		.byte	0x1
 6023 11a6 9803     		.2byte	0x398
 6024 11a8 A7000000 		.4byte	0xa7
 6025 11ac 6B0E0000 		.4byte	.LLST22
 6026 11b0 00       		.byte	0
 6027 11b1 14       		.uleb128 0x14
 6028 11b2 EE070000 		.4byte	.LASF172
 6029 11b6 01       		.byte	0x1
 6030 11b7 7503     		.2byte	0x375
 6031 11b9 00000000 		.4byte	.LFB122
 6032 11bd 60000000 		.4byte	.LFE122-.LFB122
 6033 11c1 01       		.uleb128 0x1
 6034 11c2 9C       		.byte	0x9c
 6035 11c3 61120000 		.4byte	0x1261
 6036 11c7 15       		.uleb128 0x15
 6037 11c8 68090000 		.4byte	.LASF121
 6038 11cc 01       		.byte	0x1
 6039 11cd 7503     		.2byte	0x375
 6040 11cf A7000000 		.4byte	0xa7
 6041 11d3 8A0E0000 		.4byte	.LLST20
 6042 11d7 18       		.uleb128 0x18
ARM GAS  /tmp/cc65ENol.s 			page 107


 6043 11d8 6F020000 		.4byte	.LASF173
 6044 11dc 01       		.byte	0x1
 6045 11dd 7503     		.2byte	0x375
 6046 11df 9E090000 		.4byte	0x99e
 6047 11e3 01       		.uleb128 0x1
 6048 11e4 51       		.byte	0x51
 6049 11e5 16       		.uleb128 0x16
 6050 11e6 9E010000 		.4byte	.LASF83
 6051 11ea 01       		.byte	0x1
 6052 11eb 7703     		.2byte	0x377
 6053 11ed A7000000 		.4byte	0xa7
 6054 11f1 AB0E0000 		.4byte	.LLST21
 6055 11f5 1C       		.uleb128 0x1c
 6056 11f6 63040000 		.4byte	0x463
 6057 11fa 28000000 		.4byte	.LBB100
 6058 11fe 48000000 		.4byte	.Ldebug_ranges0+0x48
 6059 1202 01       		.byte	0x1
 6060 1203 8A03     		.2byte	0x38a
 6061 1205 1A120000 		.4byte	0x121a
 6062 1209 1D       		.uleb128 0x1d
 6063 120a 74040000 		.4byte	0x474
 6064 120e 1E       		.uleb128 0x1e
 6065 120f 48000000 		.4byte	.Ldebug_ranges0+0x48
 6066 1213 1F       		.uleb128 0x1f
 6067 1214 80040000 		.4byte	0x480
 6068 1218 00       		.byte	0
 6069 1219 00       		.byte	0
 6070 121a 1C       		.uleb128 0x1c
 6071 121b 63040000 		.4byte	0x463
 6072 121f 2E000000 		.4byte	.LBB104
 6073 1223 68000000 		.4byte	.Ldebug_ranges0+0x68
 6074 1227 01       		.byte	0x1
 6075 1228 8903     		.2byte	0x389
 6076 122a 3F120000 		.4byte	0x123f
 6077 122e 1D       		.uleb128 0x1d
 6078 122f 74040000 		.4byte	0x474
 6079 1233 1E       		.uleb128 0x1e
 6080 1234 68000000 		.4byte	.Ldebug_ranges0+0x68
 6081 1238 1F       		.uleb128 0x1f
 6082 1239 80040000 		.4byte	0x480
 6083 123d 00       		.byte	0
 6084 123e 00       		.byte	0
 6085 123f 20       		.uleb128 0x20
 6086 1240 63040000 		.4byte	0x463
 6087 1244 30000000 		.4byte	.LBB108
 6088 1248 88000000 		.4byte	.Ldebug_ranges0+0x88
 6089 124c 01       		.byte	0x1
 6090 124d 8B03     		.2byte	0x38b
 6091 124f 1D       		.uleb128 0x1d
 6092 1250 74040000 		.4byte	0x474
 6093 1254 1E       		.uleb128 0x1e
 6094 1255 88000000 		.4byte	.Ldebug_ranges0+0x88
 6095 1259 1F       		.uleb128 0x1f
 6096 125a 80040000 		.4byte	0x480
 6097 125e 00       		.byte	0
 6098 125f 00       		.byte	0
 6099 1260 00       		.byte	0
ARM GAS  /tmp/cc65ENol.s 			page 108


 6100 1261 14       		.uleb128 0x14
 6101 1262 3F050000 		.4byte	.LASF174
 6102 1266 01       		.byte	0x1
 6103 1267 6203     		.2byte	0x362
 6104 1269 00000000 		.4byte	.LFB121
 6105 126d 0C000000 		.4byte	.LFE121-.LFB121
 6106 1271 01       		.uleb128 0x1
 6107 1272 9C       		.byte	0x9c
 6108 1273 86120000 		.4byte	0x1286
 6109 1277 18       		.uleb128 0x18
 6110 1278 6F020000 		.4byte	.LASF173
 6111 127c 01       		.byte	0x1
 6112 127d 6203     		.2byte	0x362
 6113 127f 9E090000 		.4byte	0x99e
 6114 1283 01       		.uleb128 0x1
 6115 1284 50       		.byte	0x50
 6116 1285 00       		.byte	0
 6117 1286 17       		.uleb128 0x17
 6118 1287 FD000000 		.4byte	.LASF175
 6119 128b 01       		.byte	0x1
 6120 128c FB02     		.2byte	0x2fb
 6121 128e 38010000 		.4byte	0x138
 6122 1292 00000000 		.4byte	.LFB120
 6123 1296 E8000000 		.4byte	.LFE120-.LFB120
 6124 129a 01       		.uleb128 0x1
 6125 129b 9C       		.byte	0x9c
 6126 129c 8A130000 		.4byte	0x138a
 6127 12a0 15       		.uleb128 0x15
 6128 12a1 68090000 		.4byte	.LASF121
 6129 12a5 01       		.byte	0x1
 6130 12a6 FB02     		.2byte	0x2fb
 6131 12a8 A7000000 		.4byte	0xa7
 6132 12ac CA0E0000 		.4byte	.LLST10
 6133 12b0 15       		.uleb128 0x15
 6134 12b1 6F020000 		.4byte	.LASF173
 6135 12b5 01       		.byte	0x1
 6136 12b6 FB02     		.2byte	0x2fb
 6137 12b8 9E090000 		.4byte	0x99e
 6138 12bc 360F0000 		.4byte	.LLST11
 6139 12c0 16       		.uleb128 0x16
 6140 12c1 9E010000 		.4byte	.LASF83
 6141 12c5 01       		.byte	0x1
 6142 12c6 FD02     		.2byte	0x2fd
 6143 12c8 A7000000 		.4byte	0xa7
 6144 12cc 940F0000 		.4byte	.LLST12
 6145 12d0 16       		.uleb128 0x16
 6146 12d1 A30A0000 		.4byte	.LASF96
 6147 12d5 01       		.byte	0x1
 6148 12d6 FE02     		.2byte	0x2fe
 6149 12d8 38010000 		.4byte	0x138
 6150 12dc E20F0000 		.4byte	.LLST13
 6151 12e0 1C       		.uleb128 0x1c
 6152 12e1 8D040000 		.4byte	0x48d
 6153 12e5 14000000 		.4byte	.LBB86
 6154 12e9 00000000 		.4byte	.Ldebug_ranges0+0
 6155 12ed 01       		.byte	0x1
 6156 12ee 2D03     		.2byte	0x32d
ARM GAS  /tmp/cc65ENol.s 			page 109


 6157 12f0 0D130000 		.4byte	0x130d
 6158 12f4 24       		.uleb128 0x24
 6159 12f5 9E040000 		.4byte	0x49e
 6160 12f9 24100000 		.4byte	.LLST14
 6161 12fd 1E       		.uleb128 0x1e
 6162 12fe 00000000 		.4byte	.Ldebug_ranges0+0
 6163 1302 25       		.uleb128 0x25
 6164 1303 AA040000 		.4byte	0x4aa
 6165 1307 4D100000 		.4byte	.LLST15
 6166 130b 00       		.byte	0
 6167 130c 00       		.byte	0
 6168 130d 1C       		.uleb128 0x1c
 6169 130e 8D040000 		.4byte	0x48d
 6170 1312 2E000000 		.4byte	.LBB89
 6171 1316 18000000 		.4byte	.Ldebug_ranges0+0x18
 6172 131a 01       		.byte	0x1
 6173 131b 2E03     		.2byte	0x32e
 6174 131d 3A130000 		.4byte	0x133a
 6175 1321 24       		.uleb128 0x24
 6176 1322 9E040000 		.4byte	0x49e
 6177 1326 83100000 		.4byte	.LLST16
 6178 132a 1E       		.uleb128 0x1e
 6179 132b 18000000 		.4byte	.Ldebug_ranges0+0x18
 6180 132f 25       		.uleb128 0x25
 6181 1330 AA040000 		.4byte	0x4aa
 6182 1334 A1100000 		.4byte	.LLST17
 6183 1338 00       		.byte	0
 6184 1339 00       		.byte	0
 6185 133a 1C       		.uleb128 0x1c
 6186 133b 8D040000 		.4byte	0x48d
 6187 133f 4E000000 		.4byte	.LBB93
 6188 1343 30000000 		.4byte	.Ldebug_ranges0+0x30
 6189 1347 01       		.byte	0x1
 6190 1348 2F03     		.2byte	0x32f
 6191 134a 67130000 		.4byte	0x1367
 6192 134e 24       		.uleb128 0x24
 6193 134f 9E040000 		.4byte	0x49e
 6194 1353 CB100000 		.4byte	.LLST18
 6195 1357 1E       		.uleb128 0x1e
 6196 1358 30000000 		.4byte	.Ldebug_ranges0+0x30
 6197 135c 25       		.uleb128 0x25
 6198 135d AA040000 		.4byte	0x4aa
 6199 1361 E9100000 		.4byte	.LLST19
 6200 1365 00       		.byte	0
 6201 1366 00       		.byte	0
 6202 1367 22       		.uleb128 0x22
 6203 1368 4D140000 		.4byte	0x144d
 6204 136c A8000000 		.4byte	.LBB97
 6205 1370 08000000 		.4byte	.LBE97-.LBB97
 6206 1374 01       		.byte	0x1
 6207 1375 4203     		.2byte	0x342
 6208 1377 19       		.uleb128 0x19
 6209 1378 9C000000 		.4byte	.LVL63
 6210 137c 56140000 		.4byte	0x1456
 6211 1380 19       		.uleb128 0x19
 6212 1381 D0000000 		.4byte	.LVL68
 6213 1385 03140000 		.4byte	0x1403
ARM GAS  /tmp/cc65ENol.s 			page 110


 6214 1389 00       		.byte	0
 6215 138a 14       		.uleb128 0x14
 6216 138b 24050000 		.4byte	.LASF176
 6217 138f 01       		.byte	0x1
 6218 1390 C402     		.2byte	0x2c4
 6219 1392 00000000 		.4byte	.LFB119
 6220 1396 30000000 		.4byte	.LFE119-.LFB119
 6221 139a 01       		.uleb128 0x1
 6222 139b 9C       		.byte	0x9c
 6223 139c AF130000 		.4byte	0x13af
 6224 13a0 18       		.uleb128 0x18
 6225 13a1 07000000 		.4byte	.LASF92
 6226 13a5 01       		.byte	0x1
 6227 13a6 C402     		.2byte	0x2c4
 6228 13a8 11010000 		.4byte	0x111
 6229 13ac 01       		.uleb128 0x1
 6230 13ad 50       		.byte	0x50
 6231 13ae 00       		.byte	0
 6232 13af 17       		.uleb128 0x17
 6233 13b0 DE070000 		.4byte	.LASF177
 6234 13b4 01       		.byte	0x1
 6235 13b5 9402     		.2byte	0x294
 6236 13b7 38010000 		.4byte	0x138
 6237 13bb 00000000 		.4byte	.LFB118
 6238 13bf 40000000 		.4byte	.LFE118-.LFB118
 6239 13c3 01       		.uleb128 0x1
 6240 13c4 9C       		.byte	0x9c
 6241 13c5 03140000 		.4byte	0x1403
 6242 13c9 15       		.uleb128 0x15
 6243 13ca 07000000 		.4byte	.LASF92
 6244 13ce 01       		.byte	0x1
 6245 13cf 9402     		.2byte	0x294
 6246 13d1 11010000 		.4byte	0x111
 6247 13d5 13110000 		.4byte	.LLST8
 6248 13d9 16       		.uleb128 0x16
 6249 13da A30A0000 		.4byte	.LASF96
 6250 13de 01       		.byte	0x1
 6251 13df 9602     		.2byte	0x296
 6252 13e1 38010000 		.4byte	0x138
 6253 13e5 34110000 		.4byte	.LLST9
 6254 13e9 22       		.uleb128 0x22
 6255 13ea 4D140000 		.4byte	0x144d
 6256 13ee 1E000000 		.4byte	.LBB84
 6257 13f2 0A000000 		.4byte	.LBE84-.LBB84
 6258 13f6 01       		.byte	0x1
 6259 13f7 B102     		.2byte	0x2b1
 6260 13f9 19       		.uleb128 0x19
 6261 13fa 12000000 		.4byte	.LVL31
 6262 13fe 56140000 		.4byte	0x1456
 6263 1402 00       		.byte	0
 6264 1403 17       		.uleb128 0x17
 6265 1404 D1080000 		.4byte	.LASF178
 6266 1408 01       		.byte	0x1
 6267 1409 6902     		.2byte	0x269
 6268 140b 38010000 		.4byte	0x138
 6269 140f 00000000 		.4byte	.LFB117
 6270 1413 44000000 		.4byte	.LFE117-.LFB117
ARM GAS  /tmp/cc65ENol.s 			page 111


 6271 1417 01       		.uleb128 0x1
 6272 1418 9C       		.byte	0x9c
 6273 1419 4D140000 		.4byte	0x144d
 6274 141d 23       		.uleb128 0x23
 6275 141e 90030000 		.4byte	.LASF179
 6276 1422 01       		.byte	0x1
 6277 1423 6B02     		.2byte	0x26b
 6278 1425 B2000000 		.4byte	0xb2
 6279 1429 02       		.uleb128 0x2
 6280 142a 91       		.byte	0x91
 6281 142b 7C       		.sleb128 -4
 6282 142c 16       		.uleb128 0x16
 6283 142d A30A0000 		.4byte	.LASF96
 6284 1431 01       		.byte	0x1
 6285 1432 6C02     		.2byte	0x26c
 6286 1434 38010000 		.4byte	0x138
 6287 1438 6B110000 		.4byte	.LLST4
 6288 143c 16       		.uleb128 0x16
 6289 143d 1B0B0000 		.4byte	.LASF180
 6290 1441 01       		.byte	0x1
 6291 1442 6D02     		.2byte	0x26d
 6292 1444 A7000000 		.4byte	0xa7
 6293 1448 91110000 		.4byte	.LLST5
 6294 144c 00       		.byte	0
 6295 144d 28       		.uleb128 0x28
 6296 144e B6030000 		.4byte	.LASF192
 6297 1452 01       		.byte	0x1
 6298 1453 5302     		.2byte	0x253
 6299 1455 01       		.byte	0x1
 6300 1456 29       		.uleb128 0x29
 6301 1457 6C010000 		.4byte	.LASF193
 6302 145b 01       		.byte	0x1
 6303 145c 2602     		.2byte	0x226
 6304 145e 38010000 		.4byte	0x138
 6305 1462 01       		.byte	0x1
 6306 1463 8C140000 		.4byte	0x148c
 6307 1467 13       		.uleb128 0x13
 6308 1468 06040000 		.4byte	.LASF181
 6309 146c 01       		.byte	0x1
 6310 146d 2802     		.2byte	0x228
 6311 146f B2000000 		.4byte	0xb2
 6312 1473 13       		.uleb128 0x13
 6313 1474 A30A0000 		.4byte	.LASF96
 6314 1478 01       		.byte	0x1
 6315 1479 2902     		.2byte	0x229
 6316 147b 38010000 		.4byte	0x138
 6317 147f 13       		.uleb128 0x13
 6318 1480 FB030000 		.4byte	.LASF182
 6319 1484 01       		.byte	0x1
 6320 1485 2A02     		.2byte	0x22a
 6321 1487 A7000000 		.4byte	0xa7
 6322 148b 00       		.byte	0
 6323 148c 14       		.uleb128 0x14
 6324 148d 760A0000 		.4byte	.LASF183
 6325 1491 01       		.byte	0x1
 6326 1492 0B02     		.2byte	0x20b
 6327 1494 00000000 		.4byte	.LFB114
ARM GAS  /tmp/cc65ENol.s 			page 112


 6328 1498 18000000 		.4byte	.LFE114-.LFB114
 6329 149c 01       		.uleb128 0x1
 6330 149d 9C       		.byte	0x9c
 6331 149e B1140000 		.4byte	0x14b1
 6332 14a2 18       		.uleb128 0x18
 6333 14a3 07000000 		.4byte	.LASF92
 6334 14a7 01       		.byte	0x1
 6335 14a8 0B02     		.2byte	0x20b
 6336 14aa 11010000 		.4byte	0x111
 6337 14ae 01       		.uleb128 0x1
 6338 14af 50       		.byte	0x50
 6339 14b0 00       		.byte	0
 6340 14b1 14       		.uleb128 0x14
 6341 14b2 4E020000 		.4byte	.LASF184
 6342 14b6 01       		.byte	0x1
 6343 14b7 F501     		.2byte	0x1f5
 6344 14b9 00000000 		.4byte	.LFB113
 6345 14bd 0C000000 		.4byte	.LFE113-.LFB113
 6346 14c1 01       		.uleb128 0x1
 6347 14c2 9C       		.byte	0x9c
 6348 14c3 D6140000 		.4byte	0x14d6
 6349 14c7 18       		.uleb128 0x18
 6350 14c8 F1010000 		.4byte	.LASF185
 6351 14cc 01       		.byte	0x1
 6352 14cd F501     		.2byte	0x1f5
 6353 14cf D6140000 		.4byte	0x14d6
 6354 14d3 01       		.uleb128 0x1
 6355 14d4 50       		.byte	0x50
 6356 14d5 00       		.byte	0
 6357 14d6 21       		.uleb128 0x21
 6358 14d7 04       		.byte	0x4
 6359 14d8 8C030000 		.4byte	0x38c
 6360 14dc 17       		.uleb128 0x17
 6361 14dd 9F000000 		.4byte	.LASF186
 6362 14e1 01       		.byte	0x1
 6363 14e2 C701     		.2byte	0x1c7
 6364 14e4 38010000 		.4byte	0x138
 6365 14e8 00000000 		.4byte	.LFB112
 6366 14ec 48000000 		.4byte	.LFE112-.LFB112
 6367 14f0 01       		.uleb128 0x1
 6368 14f1 9C       		.byte	0x9c
 6369 14f2 30150000 		.4byte	0x1530
 6370 14f6 15       		.uleb128 0x15
 6371 14f7 F1010000 		.4byte	.LASF185
 6372 14fb 01       		.byte	0x1
 6373 14fc C701     		.2byte	0x1c7
 6374 14fe D6140000 		.4byte	0x14d6
 6375 1502 BB110000 		.4byte	.LLST2
 6376 1506 16       		.uleb128 0x16
 6377 1507 A30A0000 		.4byte	.LASF96
 6378 150b 01       		.byte	0x1
 6379 150c C901     		.2byte	0x1c9
 6380 150e 38010000 		.4byte	0x138
 6381 1512 E7110000 		.4byte	.LLST3
 6382 1516 22       		.uleb128 0x22
 6383 1517 4D140000 		.4byte	0x144d
 6384 151b 32000000 		.4byte	.LBB82
ARM GAS  /tmp/cc65ENol.s 			page 113


 6385 151f 08000000 		.4byte	.LBE82-.LBB82
 6386 1523 01       		.byte	0x1
 6387 1524 E501     		.2byte	0x1e5
 6388 1526 19       		.uleb128 0x19
 6389 1527 12000000 		.4byte	.LVL10
 6390 152b 56140000 		.4byte	0x1456
 6391 152f 00       		.byte	0
 6392 1530 17       		.uleb128 0x17
 6393 1531 74080000 		.4byte	.LASF187
 6394 1535 01       		.byte	0x1
 6395 1536 7501     		.2byte	0x175
 6396 1538 38010000 		.4byte	0x138
 6397 153c 00000000 		.4byte	.LFB111
 6398 1540 8C000000 		.4byte	.LFE111-.LFB111
 6399 1544 01       		.uleb128 0x1
 6400 1545 9C       		.byte	0x9c
 6401 1546 8C150000 		.4byte	0x158c
 6402 154a 23       		.uleb128 0x23
 6403 154b 12040000 		.4byte	.LASF148
 6404 154f 01       		.byte	0x1
 6405 1550 7701     		.2byte	0x177
 6406 1552 B2000000 		.4byte	0xb2
 6407 1556 02       		.uleb128 0x2
 6408 1557 91       		.byte	0x91
 6409 1558 6C       		.sleb128 -20
 6410 1559 16       		.uleb128 0x16
 6411 155a 7E010000 		.4byte	.LASF149
 6412 155e 01       		.byte	0x1
 6413 155f 7801     		.2byte	0x178
 6414 1561 A7000000 		.4byte	0xa7
 6415 1565 12120000 		.4byte	.LLST6
 6416 1569 16       		.uleb128 0x16
 6417 156a A30A0000 		.4byte	.LASF96
 6418 156e 01       		.byte	0x1
 6419 156f 7901     		.2byte	0x179
 6420 1571 38010000 		.4byte	0x138
 6421 1575 3C120000 		.4byte	.LLST7
 6422 1579 19       		.uleb128 0x19
 6423 157a 16000000 		.4byte	.LVL22
 6424 157e 56140000 		.4byte	0x1456
 6425 1582 19       		.uleb128 0x19
 6426 1583 7A000000 		.4byte	.LVL29
 6427 1587 03140000 		.4byte	0x1403
 6428 158b 00       		.byte	0
 6429 158c 2A       		.uleb128 0x2a
 6430 158d 56140000 		.4byte	0x1456
 6431 1591 00000000 		.4byte	.LFB115
 6432 1595 44000000 		.4byte	.LFE115-.LFB115
 6433 1599 01       		.uleb128 0x1
 6434 159a 9C       		.byte	0x9c
 6435 159b D3150000 		.4byte	0x15d3
 6436 159f 2B       		.uleb128 0x2b
 6437 15a0 67140000 		.4byte	0x1467
 6438 15a4 02       		.uleb128 0x2
 6439 15a5 91       		.byte	0x91
 6440 15a6 7C       		.sleb128 -4
 6441 15a7 25       		.uleb128 0x25
ARM GAS  /tmp/cc65ENol.s 			page 114


 6442 15a8 73140000 		.4byte	0x1473
 6443 15ac 67120000 		.4byte	.LLST0
 6444 15b0 25       		.uleb128 0x25
 6445 15b1 7F140000 		.4byte	0x147f
 6446 15b5 9D120000 		.4byte	.LLST1
 6447 15b9 27       		.uleb128 0x27
 6448 15ba 2C000000 		.4byte	.LBB81
 6449 15be 08000000 		.4byte	.LBE81-.LBB81
 6450 15c2 1F       		.uleb128 0x1f
 6451 15c3 9F150000 		.4byte	0x159f
 6452 15c7 1F       		.uleb128 0x1f
 6453 15c8 A7150000 		.4byte	0x15a7
 6454 15cc 1F       		.uleb128 0x1f
 6455 15cd B0150000 		.4byte	0x15b0
 6456 15d1 00       		.byte	0
 6457 15d2 00       		.byte	0
 6458 15d3 2C       		.uleb128 0x2c
 6459 15d4 4D140000 		.4byte	0x144d
 6460 15d8 00000000 		.4byte	.LFB116
 6461 15dc 10000000 		.4byte	.LFE116-.LFB116
 6462 15e0 01       		.uleb128 0x1
 6463 15e1 9C       		.byte	0x9c
 6464 15e2 00       		.byte	0
 6465              		.section	.debug_abbrev,"",%progbits
 6466              	.Ldebug_abbrev0:
 6467 0000 01       		.uleb128 0x1
 6468 0001 11       		.uleb128 0x11
 6469 0002 01       		.byte	0x1
 6470 0003 25       		.uleb128 0x25
 6471 0004 0E       		.uleb128 0xe
 6472 0005 13       		.uleb128 0x13
 6473 0006 0B       		.uleb128 0xb
 6474 0007 03       		.uleb128 0x3
 6475 0008 0E       		.uleb128 0xe
 6476 0009 1B       		.uleb128 0x1b
 6477 000a 0E       		.uleb128 0xe
 6478 000b 55       		.uleb128 0x55
 6479 000c 17       		.uleb128 0x17
 6480 000d 11       		.uleb128 0x11
 6481 000e 01       		.uleb128 0x1
 6482 000f 10       		.uleb128 0x10
 6483 0010 17       		.uleb128 0x17
 6484 0011 00       		.byte	0
 6485 0012 00       		.byte	0
 6486 0013 02       		.uleb128 0x2
 6487 0014 24       		.uleb128 0x24
 6488 0015 00       		.byte	0
 6489 0016 0B       		.uleb128 0xb
 6490 0017 0B       		.uleb128 0xb
 6491 0018 3E       		.uleb128 0x3e
 6492 0019 0B       		.uleb128 0xb
 6493 001a 03       		.uleb128 0x3
 6494 001b 0E       		.uleb128 0xe
 6495 001c 00       		.byte	0
 6496 001d 00       		.byte	0
 6497 001e 03       		.uleb128 0x3
 6498 001f 16       		.uleb128 0x16
ARM GAS  /tmp/cc65ENol.s 			page 115


 6499 0020 00       		.byte	0
 6500 0021 03       		.uleb128 0x3
 6501 0022 0E       		.uleb128 0xe
 6502 0023 3A       		.uleb128 0x3a
 6503 0024 0B       		.uleb128 0xb
 6504 0025 3B       		.uleb128 0x3b
 6505 0026 0B       		.uleb128 0xb
 6506 0027 49       		.uleb128 0x49
 6507 0028 13       		.uleb128 0x13
 6508 0029 00       		.byte	0
 6509 002a 00       		.byte	0
 6510 002b 04       		.uleb128 0x4
 6511 002c 24       		.uleb128 0x24
 6512 002d 00       		.byte	0
 6513 002e 0B       		.uleb128 0xb
 6514 002f 0B       		.uleb128 0xb
 6515 0030 3E       		.uleb128 0x3e
 6516 0031 0B       		.uleb128 0xb
 6517 0032 03       		.uleb128 0x3
 6518 0033 08       		.uleb128 0x8
 6519 0034 00       		.byte	0
 6520 0035 00       		.byte	0
 6521 0036 05       		.uleb128 0x5
 6522 0037 35       		.uleb128 0x35
 6523 0038 00       		.byte	0
 6524 0039 49       		.uleb128 0x49
 6525 003a 13       		.uleb128 0x13
 6526 003b 00       		.byte	0
 6527 003c 00       		.byte	0
 6528 003d 06       		.uleb128 0x6
 6529 003e 34       		.uleb128 0x34
 6530 003f 00       		.byte	0
 6531 0040 03       		.uleb128 0x3
 6532 0041 0E       		.uleb128 0xe
 6533 0042 3A       		.uleb128 0x3a
 6534 0043 0B       		.uleb128 0xb
 6535 0044 3B       		.uleb128 0x3b
 6536 0045 05       		.uleb128 0x5
 6537 0046 49       		.uleb128 0x49
 6538 0047 13       		.uleb128 0x13
 6539 0048 3F       		.uleb128 0x3f
 6540 0049 19       		.uleb128 0x19
 6541 004a 3C       		.uleb128 0x3c
 6542 004b 19       		.uleb128 0x19
 6543 004c 00       		.byte	0
 6544 004d 00       		.byte	0
 6545 004e 07       		.uleb128 0x7
 6546 004f 04       		.uleb128 0x4
 6547 0050 01       		.byte	0x1
 6548 0051 3E       		.uleb128 0x3e
 6549 0052 0B       		.uleb128 0xb
 6550 0053 0B       		.uleb128 0xb
 6551 0054 0B       		.uleb128 0xb
 6552 0055 49       		.uleb128 0x49
 6553 0056 13       		.uleb128 0x13
 6554 0057 3A       		.uleb128 0x3a
 6555 0058 0B       		.uleb128 0xb
ARM GAS  /tmp/cc65ENol.s 			page 116


 6556 0059 3B       		.uleb128 0x3b
 6557 005a 05       		.uleb128 0x5
 6558 005b 01       		.uleb128 0x1
 6559 005c 13       		.uleb128 0x13
 6560 005d 00       		.byte	0
 6561 005e 00       		.byte	0
 6562 005f 08       		.uleb128 0x8
 6563 0060 28       		.uleb128 0x28
 6564 0061 00       		.byte	0
 6565 0062 03       		.uleb128 0x3
 6566 0063 0E       		.uleb128 0xe
 6567 0064 1C       		.uleb128 0x1c
 6568 0065 0B       		.uleb128 0xb
 6569 0066 00       		.byte	0
 6570 0067 00       		.byte	0
 6571 0068 09       		.uleb128 0x9
 6572 0069 28       		.uleb128 0x28
 6573 006a 00       		.byte	0
 6574 006b 03       		.uleb128 0x3
 6575 006c 08       		.uleb128 0x8
 6576 006d 1C       		.uleb128 0x1c
 6577 006e 0B       		.uleb128 0xb
 6578 006f 00       		.byte	0
 6579 0070 00       		.byte	0
 6580 0071 0A       		.uleb128 0xa
 6581 0072 16       		.uleb128 0x16
 6582 0073 00       		.byte	0
 6583 0074 03       		.uleb128 0x3
 6584 0075 0E       		.uleb128 0xe
 6585 0076 3A       		.uleb128 0x3a
 6586 0077 0B       		.uleb128 0xb
 6587 0078 3B       		.uleb128 0x3b
 6588 0079 05       		.uleb128 0x5
 6589 007a 49       		.uleb128 0x49
 6590 007b 13       		.uleb128 0x13
 6591 007c 00       		.byte	0
 6592 007d 00       		.byte	0
 6593 007e 0B       		.uleb128 0xb
 6594 007f 13       		.uleb128 0x13
 6595 0080 01       		.byte	0x1
 6596 0081 0B       		.uleb128 0xb
 6597 0082 0B       		.uleb128 0xb
 6598 0083 3A       		.uleb128 0x3a
 6599 0084 0B       		.uleb128 0xb
 6600 0085 3B       		.uleb128 0x3b
 6601 0086 05       		.uleb128 0x5
 6602 0087 01       		.uleb128 0x1
 6603 0088 13       		.uleb128 0x13
 6604 0089 00       		.byte	0
 6605 008a 00       		.byte	0
 6606 008b 0C       		.uleb128 0xc
 6607 008c 0D       		.uleb128 0xd
 6608 008d 00       		.byte	0
 6609 008e 03       		.uleb128 0x3
 6610 008f 08       		.uleb128 0x8
 6611 0090 3A       		.uleb128 0x3a
 6612 0091 0B       		.uleb128 0xb
ARM GAS  /tmp/cc65ENol.s 			page 117


 6613 0092 3B       		.uleb128 0x3b
 6614 0093 05       		.uleb128 0x5
 6615 0094 49       		.uleb128 0x49
 6616 0095 13       		.uleb128 0x13
 6617 0096 38       		.uleb128 0x38
 6618 0097 0B       		.uleb128 0xb
 6619 0098 00       		.byte	0
 6620 0099 00       		.byte	0
 6621 009a 0D       		.uleb128 0xd
 6622 009b 0D       		.uleb128 0xd
 6623 009c 00       		.byte	0
 6624 009d 03       		.uleb128 0x3
 6625 009e 0E       		.uleb128 0xe
 6626 009f 3A       		.uleb128 0x3a
 6627 00a0 0B       		.uleb128 0xb
 6628 00a1 3B       		.uleb128 0x3b
 6629 00a2 05       		.uleb128 0x5
 6630 00a3 49       		.uleb128 0x49
 6631 00a4 13       		.uleb128 0x13
 6632 00a5 38       		.uleb128 0x38
 6633 00a6 0B       		.uleb128 0xb
 6634 00a7 00       		.byte	0
 6635 00a8 00       		.byte	0
 6636 00a9 0E       		.uleb128 0xe
 6637 00aa 13       		.uleb128 0x13
 6638 00ab 01       		.byte	0x1
 6639 00ac 0B       		.uleb128 0xb
 6640 00ad 0B       		.uleb128 0xb
 6641 00ae 3A       		.uleb128 0x3a
 6642 00af 0B       		.uleb128 0xb
 6643 00b0 3B       		.uleb128 0x3b
 6644 00b1 0B       		.uleb128 0xb
 6645 00b2 01       		.uleb128 0x1
 6646 00b3 13       		.uleb128 0x13
 6647 00b4 00       		.byte	0
 6648 00b5 00       		.byte	0
 6649 00b6 0F       		.uleb128 0xf
 6650 00b7 0D       		.uleb128 0xd
 6651 00b8 00       		.byte	0
 6652 00b9 03       		.uleb128 0x3
 6653 00ba 0E       		.uleb128 0xe
 6654 00bb 3A       		.uleb128 0x3a
 6655 00bc 0B       		.uleb128 0xb
 6656 00bd 3B       		.uleb128 0x3b
 6657 00be 0B       		.uleb128 0xb
 6658 00bf 49       		.uleb128 0x49
 6659 00c0 13       		.uleb128 0x13
 6660 00c1 38       		.uleb128 0x38
 6661 00c2 0B       		.uleb128 0xb
 6662 00c3 00       		.byte	0
 6663 00c4 00       		.byte	0
 6664 00c5 10       		.uleb128 0x10
 6665 00c6 2E       		.uleb128 0x2e
 6666 00c7 01       		.byte	0x1
 6667 00c8 03       		.uleb128 0x3
 6668 00c9 0E       		.uleb128 0xe
 6669 00ca 3A       		.uleb128 0x3a
ARM GAS  /tmp/cc65ENol.s 			page 118


 6670 00cb 0B       		.uleb128 0xb
 6671 00cc 3B       		.uleb128 0x3b
 6672 00cd 05       		.uleb128 0x5
 6673 00ce 27       		.uleb128 0x27
 6674 00cf 19       		.uleb128 0x19
 6675 00d0 49       		.uleb128 0x49
 6676 00d1 13       		.uleb128 0x13
 6677 00d2 20       		.uleb128 0x20
 6678 00d3 0B       		.uleb128 0xb
 6679 00d4 01       		.uleb128 0x1
 6680 00d5 13       		.uleb128 0x13
 6681 00d6 00       		.byte	0
 6682 00d7 00       		.byte	0
 6683 00d8 11       		.uleb128 0x11
 6684 00d9 05       		.uleb128 0x5
 6685 00da 00       		.byte	0
 6686 00db 03       		.uleb128 0x3
 6687 00dc 0E       		.uleb128 0xe
 6688 00dd 3A       		.uleb128 0x3a
 6689 00de 0B       		.uleb128 0xb
 6690 00df 3B       		.uleb128 0x3b
 6691 00e0 05       		.uleb128 0x5
 6692 00e1 49       		.uleb128 0x49
 6693 00e2 13       		.uleb128 0x13
 6694 00e3 00       		.byte	0
 6695 00e4 00       		.byte	0
 6696 00e5 12       		.uleb128 0x12
 6697 00e6 34       		.uleb128 0x34
 6698 00e7 00       		.byte	0
 6699 00e8 03       		.uleb128 0x3
 6700 00e9 08       		.uleb128 0x8
 6701 00ea 3A       		.uleb128 0x3a
 6702 00eb 0B       		.uleb128 0xb
 6703 00ec 3B       		.uleb128 0x3b
 6704 00ed 05       		.uleb128 0x5
 6705 00ee 49       		.uleb128 0x49
 6706 00ef 13       		.uleb128 0x13
 6707 00f0 00       		.byte	0
 6708 00f1 00       		.byte	0
 6709 00f2 13       		.uleb128 0x13
 6710 00f3 34       		.uleb128 0x34
 6711 00f4 00       		.byte	0
 6712 00f5 03       		.uleb128 0x3
 6713 00f6 0E       		.uleb128 0xe
 6714 00f7 3A       		.uleb128 0x3a
 6715 00f8 0B       		.uleb128 0xb
 6716 00f9 3B       		.uleb128 0x3b
 6717 00fa 05       		.uleb128 0x5
 6718 00fb 49       		.uleb128 0x49
 6719 00fc 13       		.uleb128 0x13
 6720 00fd 00       		.byte	0
 6721 00fe 00       		.byte	0
 6722 00ff 14       		.uleb128 0x14
 6723 0100 2E       		.uleb128 0x2e
 6724 0101 01       		.byte	0x1
 6725 0102 3F       		.uleb128 0x3f
 6726 0103 19       		.uleb128 0x19
ARM GAS  /tmp/cc65ENol.s 			page 119


 6727 0104 03       		.uleb128 0x3
 6728 0105 0E       		.uleb128 0xe
 6729 0106 3A       		.uleb128 0x3a
 6730 0107 0B       		.uleb128 0xb
 6731 0108 3B       		.uleb128 0x3b
 6732 0109 05       		.uleb128 0x5
 6733 010a 27       		.uleb128 0x27
 6734 010b 19       		.uleb128 0x19
 6735 010c 11       		.uleb128 0x11
 6736 010d 01       		.uleb128 0x1
 6737 010e 12       		.uleb128 0x12
 6738 010f 06       		.uleb128 0x6
 6739 0110 40       		.uleb128 0x40
 6740 0111 18       		.uleb128 0x18
 6741 0112 9742     		.uleb128 0x2117
 6742 0114 19       		.uleb128 0x19
 6743 0115 01       		.uleb128 0x1
 6744 0116 13       		.uleb128 0x13
 6745 0117 00       		.byte	0
 6746 0118 00       		.byte	0
 6747 0119 15       		.uleb128 0x15
 6748 011a 05       		.uleb128 0x5
 6749 011b 00       		.byte	0
 6750 011c 03       		.uleb128 0x3
 6751 011d 0E       		.uleb128 0xe
 6752 011e 3A       		.uleb128 0x3a
 6753 011f 0B       		.uleb128 0xb
 6754 0120 3B       		.uleb128 0x3b
 6755 0121 05       		.uleb128 0x5
 6756 0122 49       		.uleb128 0x49
 6757 0123 13       		.uleb128 0x13
 6758 0124 02       		.uleb128 0x2
 6759 0125 17       		.uleb128 0x17
 6760 0126 00       		.byte	0
 6761 0127 00       		.byte	0
 6762 0128 16       		.uleb128 0x16
 6763 0129 34       		.uleb128 0x34
 6764 012a 00       		.byte	0
 6765 012b 03       		.uleb128 0x3
 6766 012c 0E       		.uleb128 0xe
 6767 012d 3A       		.uleb128 0x3a
 6768 012e 0B       		.uleb128 0xb
 6769 012f 3B       		.uleb128 0x3b
 6770 0130 05       		.uleb128 0x5
 6771 0131 49       		.uleb128 0x49
 6772 0132 13       		.uleb128 0x13
 6773 0133 02       		.uleb128 0x2
 6774 0134 17       		.uleb128 0x17
 6775 0135 00       		.byte	0
 6776 0136 00       		.byte	0
 6777 0137 17       		.uleb128 0x17
 6778 0138 2E       		.uleb128 0x2e
 6779 0139 01       		.byte	0x1
 6780 013a 3F       		.uleb128 0x3f
 6781 013b 19       		.uleb128 0x19
 6782 013c 03       		.uleb128 0x3
 6783 013d 0E       		.uleb128 0xe
ARM GAS  /tmp/cc65ENol.s 			page 120


 6784 013e 3A       		.uleb128 0x3a
 6785 013f 0B       		.uleb128 0xb
 6786 0140 3B       		.uleb128 0x3b
 6787 0141 05       		.uleb128 0x5
 6788 0142 27       		.uleb128 0x27
 6789 0143 19       		.uleb128 0x19
 6790 0144 49       		.uleb128 0x49
 6791 0145 13       		.uleb128 0x13
 6792 0146 11       		.uleb128 0x11
 6793 0147 01       		.uleb128 0x1
 6794 0148 12       		.uleb128 0x12
 6795 0149 06       		.uleb128 0x6
 6796 014a 40       		.uleb128 0x40
 6797 014b 18       		.uleb128 0x18
 6798 014c 9742     		.uleb128 0x2117
 6799 014e 19       		.uleb128 0x19
 6800 014f 01       		.uleb128 0x1
 6801 0150 13       		.uleb128 0x13
 6802 0151 00       		.byte	0
 6803 0152 00       		.byte	0
 6804 0153 18       		.uleb128 0x18
 6805 0154 05       		.uleb128 0x5
 6806 0155 00       		.byte	0
 6807 0156 03       		.uleb128 0x3
 6808 0157 0E       		.uleb128 0xe
 6809 0158 3A       		.uleb128 0x3a
 6810 0159 0B       		.uleb128 0xb
 6811 015a 3B       		.uleb128 0x3b
 6812 015b 05       		.uleb128 0x5
 6813 015c 49       		.uleb128 0x49
 6814 015d 13       		.uleb128 0x13
 6815 015e 02       		.uleb128 0x2
 6816 015f 18       		.uleb128 0x18
 6817 0160 00       		.byte	0
 6818 0161 00       		.byte	0
 6819 0162 19       		.uleb128 0x19
 6820 0163 898201   		.uleb128 0x4109
 6821 0166 00       		.byte	0
 6822 0167 11       		.uleb128 0x11
 6823 0168 01       		.uleb128 0x1
 6824 0169 31       		.uleb128 0x31
 6825 016a 13       		.uleb128 0x13
 6826 016b 00       		.byte	0
 6827 016c 00       		.byte	0
 6828 016d 1A       		.uleb128 0x1a
 6829 016e 34       		.uleb128 0x34
 6830 016f 00       		.byte	0
 6831 0170 03       		.uleb128 0x3
 6832 0171 08       		.uleb128 0x8
 6833 0172 3A       		.uleb128 0x3a
 6834 0173 0B       		.uleb128 0xb
 6835 0174 3B       		.uleb128 0x3b
 6836 0175 05       		.uleb128 0x5
 6837 0176 49       		.uleb128 0x49
 6838 0177 13       		.uleb128 0x13
 6839 0178 02       		.uleb128 0x2
 6840 0179 18       		.uleb128 0x18
ARM GAS  /tmp/cc65ENol.s 			page 121


 6841 017a 00       		.byte	0
 6842 017b 00       		.byte	0
 6843 017c 1B       		.uleb128 0x1b
 6844 017d 2E       		.uleb128 0x2e
 6845 017e 00       		.byte	0
 6846 017f 3F       		.uleb128 0x3f
 6847 0180 19       		.uleb128 0x19
 6848 0181 03       		.uleb128 0x3
 6849 0182 0E       		.uleb128 0xe
 6850 0183 3A       		.uleb128 0x3a
 6851 0184 0B       		.uleb128 0xb
 6852 0185 3B       		.uleb128 0x3b
 6853 0186 05       		.uleb128 0x5
 6854 0187 27       		.uleb128 0x27
 6855 0188 19       		.uleb128 0x19
 6856 0189 49       		.uleb128 0x49
 6857 018a 13       		.uleb128 0x13
 6858 018b 11       		.uleb128 0x11
 6859 018c 01       		.uleb128 0x1
 6860 018d 12       		.uleb128 0x12
 6861 018e 06       		.uleb128 0x6
 6862 018f 40       		.uleb128 0x40
 6863 0190 18       		.uleb128 0x18
 6864 0191 9742     		.uleb128 0x2117
 6865 0193 19       		.uleb128 0x19
 6866 0194 00       		.byte	0
 6867 0195 00       		.byte	0
 6868 0196 1C       		.uleb128 0x1c
 6869 0197 1D       		.uleb128 0x1d
 6870 0198 01       		.byte	0x1
 6871 0199 31       		.uleb128 0x31
 6872 019a 13       		.uleb128 0x13
 6873 019b 52       		.uleb128 0x52
 6874 019c 01       		.uleb128 0x1
 6875 019d 55       		.uleb128 0x55
 6876 019e 17       		.uleb128 0x17
 6877 019f 58       		.uleb128 0x58
 6878 01a0 0B       		.uleb128 0xb
 6879 01a1 59       		.uleb128 0x59
 6880 01a2 05       		.uleb128 0x5
 6881 01a3 01       		.uleb128 0x1
 6882 01a4 13       		.uleb128 0x13
 6883 01a5 00       		.byte	0
 6884 01a6 00       		.byte	0
 6885 01a7 1D       		.uleb128 0x1d
 6886 01a8 05       		.uleb128 0x5
 6887 01a9 00       		.byte	0
 6888 01aa 31       		.uleb128 0x31
 6889 01ab 13       		.uleb128 0x13
 6890 01ac 00       		.byte	0
 6891 01ad 00       		.byte	0
 6892 01ae 1E       		.uleb128 0x1e
 6893 01af 0B       		.uleb128 0xb
 6894 01b0 01       		.byte	0x1
 6895 01b1 55       		.uleb128 0x55
 6896 01b2 17       		.uleb128 0x17
 6897 01b3 00       		.byte	0
ARM GAS  /tmp/cc65ENol.s 			page 122


 6898 01b4 00       		.byte	0
 6899 01b5 1F       		.uleb128 0x1f
 6900 01b6 34       		.uleb128 0x34
 6901 01b7 00       		.byte	0
 6902 01b8 31       		.uleb128 0x31
 6903 01b9 13       		.uleb128 0x13
 6904 01ba 00       		.byte	0
 6905 01bb 00       		.byte	0
 6906 01bc 20       		.uleb128 0x20
 6907 01bd 1D       		.uleb128 0x1d
 6908 01be 01       		.byte	0x1
 6909 01bf 31       		.uleb128 0x31
 6910 01c0 13       		.uleb128 0x13
 6911 01c1 52       		.uleb128 0x52
 6912 01c2 01       		.uleb128 0x1
 6913 01c3 55       		.uleb128 0x55
 6914 01c4 17       		.uleb128 0x17
 6915 01c5 58       		.uleb128 0x58
 6916 01c6 0B       		.uleb128 0xb
 6917 01c7 59       		.uleb128 0x59
 6918 01c8 05       		.uleb128 0x5
 6919 01c9 00       		.byte	0
 6920 01ca 00       		.byte	0
 6921 01cb 21       		.uleb128 0x21
 6922 01cc 0F       		.uleb128 0xf
 6923 01cd 00       		.byte	0
 6924 01ce 0B       		.uleb128 0xb
 6925 01cf 0B       		.uleb128 0xb
 6926 01d0 49       		.uleb128 0x49
 6927 01d1 13       		.uleb128 0x13
 6928 01d2 00       		.byte	0
 6929 01d3 00       		.byte	0
 6930 01d4 22       		.uleb128 0x22
 6931 01d5 1D       		.uleb128 0x1d
 6932 01d6 00       		.byte	0
 6933 01d7 31       		.uleb128 0x31
 6934 01d8 13       		.uleb128 0x13
 6935 01d9 11       		.uleb128 0x11
 6936 01da 01       		.uleb128 0x1
 6937 01db 12       		.uleb128 0x12
 6938 01dc 06       		.uleb128 0x6
 6939 01dd 58       		.uleb128 0x58
 6940 01de 0B       		.uleb128 0xb
 6941 01df 59       		.uleb128 0x59
 6942 01e0 05       		.uleb128 0x5
 6943 01e1 00       		.byte	0
 6944 01e2 00       		.byte	0
 6945 01e3 23       		.uleb128 0x23
 6946 01e4 34       		.uleb128 0x34
 6947 01e5 00       		.byte	0
 6948 01e6 03       		.uleb128 0x3
 6949 01e7 0E       		.uleb128 0xe
 6950 01e8 3A       		.uleb128 0x3a
 6951 01e9 0B       		.uleb128 0xb
 6952 01ea 3B       		.uleb128 0x3b
 6953 01eb 05       		.uleb128 0x5
 6954 01ec 49       		.uleb128 0x49
ARM GAS  /tmp/cc65ENol.s 			page 123


 6955 01ed 13       		.uleb128 0x13
 6956 01ee 02       		.uleb128 0x2
 6957 01ef 18       		.uleb128 0x18
 6958 01f0 00       		.byte	0
 6959 01f1 00       		.byte	0
 6960 01f2 24       		.uleb128 0x24
 6961 01f3 05       		.uleb128 0x5
 6962 01f4 00       		.byte	0
 6963 01f5 31       		.uleb128 0x31
 6964 01f6 13       		.uleb128 0x13
 6965 01f7 02       		.uleb128 0x2
 6966 01f8 17       		.uleb128 0x17
 6967 01f9 00       		.byte	0
 6968 01fa 00       		.byte	0
 6969 01fb 25       		.uleb128 0x25
 6970 01fc 34       		.uleb128 0x34
 6971 01fd 00       		.byte	0
 6972 01fe 31       		.uleb128 0x31
 6973 01ff 13       		.uleb128 0x13
 6974 0200 02       		.uleb128 0x2
 6975 0201 17       		.uleb128 0x17
 6976 0202 00       		.byte	0
 6977 0203 00       		.byte	0
 6978 0204 26       		.uleb128 0x26
 6979 0205 1D       		.uleb128 0x1d
 6980 0206 01       		.byte	0x1
 6981 0207 31       		.uleb128 0x31
 6982 0208 13       		.uleb128 0x13
 6983 0209 11       		.uleb128 0x11
 6984 020a 01       		.uleb128 0x1
 6985 020b 12       		.uleb128 0x12
 6986 020c 06       		.uleb128 0x6
 6987 020d 58       		.uleb128 0x58
 6988 020e 0B       		.uleb128 0xb
 6989 020f 59       		.uleb128 0x59
 6990 0210 05       		.uleb128 0x5
 6991 0211 01       		.uleb128 0x1
 6992 0212 13       		.uleb128 0x13
 6993 0213 00       		.byte	0
 6994 0214 00       		.byte	0
 6995 0215 27       		.uleb128 0x27
 6996 0216 0B       		.uleb128 0xb
 6997 0217 01       		.byte	0x1
 6998 0218 11       		.uleb128 0x11
 6999 0219 01       		.uleb128 0x1
 7000 021a 12       		.uleb128 0x12
 7001 021b 06       		.uleb128 0x6
 7002 021c 00       		.byte	0
 7003 021d 00       		.byte	0
 7004 021e 28       		.uleb128 0x28
 7005 021f 2E       		.uleb128 0x2e
 7006 0220 00       		.byte	0
 7007 0221 3F       		.uleb128 0x3f
 7008 0222 19       		.uleb128 0x19
 7009 0223 03       		.uleb128 0x3
 7010 0224 0E       		.uleb128 0xe
 7011 0225 3A       		.uleb128 0x3a
ARM GAS  /tmp/cc65ENol.s 			page 124


 7012 0226 0B       		.uleb128 0xb
 7013 0227 3B       		.uleb128 0x3b
 7014 0228 05       		.uleb128 0x5
 7015 0229 27       		.uleb128 0x27
 7016 022a 19       		.uleb128 0x19
 7017 022b 20       		.uleb128 0x20
 7018 022c 0B       		.uleb128 0xb
 7019 022d 00       		.byte	0
 7020 022e 00       		.byte	0
 7021 022f 29       		.uleb128 0x29
 7022 0230 2E       		.uleb128 0x2e
 7023 0231 01       		.byte	0x1
 7024 0232 3F       		.uleb128 0x3f
 7025 0233 19       		.uleb128 0x19
 7026 0234 03       		.uleb128 0x3
 7027 0235 0E       		.uleb128 0xe
 7028 0236 3A       		.uleb128 0x3a
 7029 0237 0B       		.uleb128 0xb
 7030 0238 3B       		.uleb128 0x3b
 7031 0239 05       		.uleb128 0x5
 7032 023a 27       		.uleb128 0x27
 7033 023b 19       		.uleb128 0x19
 7034 023c 49       		.uleb128 0x49
 7035 023d 13       		.uleb128 0x13
 7036 023e 20       		.uleb128 0x20
 7037 023f 0B       		.uleb128 0xb
 7038 0240 01       		.uleb128 0x1
 7039 0241 13       		.uleb128 0x13
 7040 0242 00       		.byte	0
 7041 0243 00       		.byte	0
 7042 0244 2A       		.uleb128 0x2a
 7043 0245 2E       		.uleb128 0x2e
 7044 0246 01       		.byte	0x1
 7045 0247 31       		.uleb128 0x31
 7046 0248 13       		.uleb128 0x13
 7047 0249 11       		.uleb128 0x11
 7048 024a 01       		.uleb128 0x1
 7049 024b 12       		.uleb128 0x12
 7050 024c 06       		.uleb128 0x6
 7051 024d 40       		.uleb128 0x40
 7052 024e 18       		.uleb128 0x18
 7053 024f 9742     		.uleb128 0x2117
 7054 0251 19       		.uleb128 0x19
 7055 0252 01       		.uleb128 0x1
 7056 0253 13       		.uleb128 0x13
 7057 0254 00       		.byte	0
 7058 0255 00       		.byte	0
 7059 0256 2B       		.uleb128 0x2b
 7060 0257 34       		.uleb128 0x34
 7061 0258 00       		.byte	0
 7062 0259 31       		.uleb128 0x31
 7063 025a 13       		.uleb128 0x13
 7064 025b 02       		.uleb128 0x2
 7065 025c 18       		.uleb128 0x18
 7066 025d 00       		.byte	0
 7067 025e 00       		.byte	0
 7068 025f 2C       		.uleb128 0x2c
ARM GAS  /tmp/cc65ENol.s 			page 125


 7069 0260 2E       		.uleb128 0x2e
 7070 0261 00       		.byte	0
 7071 0262 31       		.uleb128 0x31
 7072 0263 13       		.uleb128 0x13
 7073 0264 11       		.uleb128 0x11
 7074 0265 01       		.uleb128 0x1
 7075 0266 12       		.uleb128 0x12
 7076 0267 06       		.uleb128 0x6
 7077 0268 40       		.uleb128 0x40
 7078 0269 18       		.uleb128 0x18
 7079 026a 9742     		.uleb128 0x2117
 7080 026c 19       		.uleb128 0x19
 7081 026d 00       		.byte	0
 7082 026e 00       		.byte	0
 7083 026f 00       		.byte	0
 7084              		.section	.debug_loc,"",%progbits
 7085              	.Ldebug_loc0:
 7086              	.LLST103:
 7087 0000 00000000 		.4byte	.LVL289
 7088 0004 08000000 		.4byte	.LVL290
 7089 0008 0100     		.2byte	0x1
 7090 000a 50       		.byte	0x50
 7091 000b 08000000 		.4byte	.LVL290
 7092 000f 1C000000 		.4byte	.LFE165
 7093 0013 0400     		.2byte	0x4
 7094 0015 F3       		.byte	0xf3
 7095 0016 01       		.uleb128 0x1
 7096 0017 50       		.byte	0x50
 7097 0018 9F       		.byte	0x9f
 7098 0019 00000000 		.4byte	0
 7099 001d 00000000 		.4byte	0
 7100              	.LLST104:
 7101 0021 00000000 		.4byte	.LVL289
 7102 0025 08000000 		.4byte	.LVL290
 7103 0029 0500     		.2byte	0x5
 7104 002b 70       		.byte	0x70
 7105 002c 00       		.sleb128 0
 7106 002d 34       		.byte	0x34
 7107 002e 25       		.byte	0x25
 7108 002f 9F       		.byte	0x9f
 7109 0030 08000000 		.4byte	.LVL290
 7110 0034 1C000000 		.4byte	.LFE165
 7111 0038 0600     		.2byte	0x6
 7112 003a F3       		.byte	0xf3
 7113 003b 01       		.uleb128 0x1
 7114 003c 50       		.byte	0x50
 7115 003d 34       		.byte	0x34
 7116 003e 25       		.byte	0x25
 7117 003f 9F       		.byte	0x9f
 7118 0040 00000000 		.4byte	0
 7119 0044 00000000 		.4byte	0
 7120              	.LLST99:
 7121 0048 00000000 		.4byte	.LVL281
 7122 004c 20000000 		.4byte	.LVL286
 7123 0050 0100     		.2byte	0x1
 7124 0052 50       		.byte	0x50
 7125 0053 20000000 		.4byte	.LVL286
ARM GAS  /tmp/cc65ENol.s 			page 126


 7126 0057 24000000 		.4byte	.LVL287
 7127 005b 0400     		.2byte	0x4
 7128 005d F3       		.byte	0xf3
 7129 005e 01       		.uleb128 0x1
 7130 005f 50       		.byte	0x50
 7131 0060 9F       		.byte	0x9f
 7132 0061 24000000 		.4byte	.LVL287
 7133 0065 26000000 		.4byte	.LVL288
 7134 0069 0100     		.2byte	0x1
 7135 006b 50       		.byte	0x50
 7136 006c 26000000 		.4byte	.LVL288
 7137 0070 2C000000 		.4byte	.LFE164
 7138 0074 0400     		.2byte	0x4
 7139 0076 F3       		.byte	0xf3
 7140 0077 01       		.uleb128 0x1
 7141 0078 50       		.byte	0x50
 7142 0079 9F       		.byte	0x9f
 7143 007a 00000000 		.4byte	0
 7144 007e 00000000 		.4byte	0
 7145              	.LLST100:
 7146 0082 00000000 		.4byte	.LVL281
 7147 0086 26000000 		.4byte	.LVL288
 7148 008a 0200     		.2byte	0x2
 7149 008c 30       		.byte	0x30
 7150 008d 9F       		.byte	0x9f
 7151 008e 26000000 		.4byte	.LVL288
 7152 0092 2C000000 		.4byte	.LFE164
 7153 0096 0100     		.2byte	0x1
 7154 0098 50       		.byte	0x50
 7155 0099 00000000 		.4byte	0
 7156 009d 00000000 		.4byte	0
 7157              	.LLST101:
 7158 00a1 00000000 		.4byte	.LVL281
 7159 00a5 04000000 		.4byte	.LVL282
 7160 00a9 0200     		.2byte	0x2
 7161 00ab 30       		.byte	0x30
 7162 00ac 9F       		.byte	0x9f
 7163 00ad 04000000 		.4byte	.LVL282
 7164 00b1 08000000 		.4byte	.LVL283
 7165 00b5 0500     		.2byte	0x5
 7166 00b7 73       		.byte	0x73
 7167 00b8 00       		.sleb128 0
 7168 00b9 34       		.byte	0x34
 7169 00ba 1A       		.byte	0x1a
 7170 00bb 9F       		.byte	0x9f
 7171 00bc 08000000 		.4byte	.LVL283
 7172 00c0 18000000 		.4byte	.LVL285
 7173 00c4 0800     		.2byte	0x8
 7174 00c6 70       		.byte	0x70
 7175 00c7 00       		.sleb128 0
 7176 00c8 34       		.byte	0x34
 7177 00c9 25       		.byte	0x25
 7178 00ca 71       		.byte	0x71
 7179 00cb 00       		.sleb128 0
 7180 00cc 1A       		.byte	0x1a
 7181 00cd 9F       		.byte	0x9f
 7182 00ce 24000000 		.4byte	.LVL287
ARM GAS  /tmp/cc65ENol.s 			page 127


 7183 00d2 26000000 		.4byte	.LVL288
 7184 00d6 0800     		.2byte	0x8
 7185 00d8 70       		.byte	0x70
 7186 00d9 00       		.sleb128 0
 7187 00da 34       		.byte	0x34
 7188 00db 25       		.byte	0x25
 7189 00dc 71       		.byte	0x71
 7190 00dd 00       		.sleb128 0
 7191 00de 1A       		.byte	0x1a
 7192 00df 9F       		.byte	0x9f
 7193 00e0 26000000 		.4byte	.LVL288
 7194 00e4 2C000000 		.4byte	.LFE164
 7195 00e8 0900     		.2byte	0x9
 7196 00ea F3       		.byte	0xf3
 7197 00eb 01       		.uleb128 0x1
 7198 00ec 50       		.byte	0x50
 7199 00ed 34       		.byte	0x34
 7200 00ee 25       		.byte	0x25
 7201 00ef 71       		.byte	0x71
 7202 00f0 00       		.sleb128 0
 7203 00f1 1A       		.byte	0x1a
 7204 00f2 9F       		.byte	0x9f
 7205 00f3 00000000 		.4byte	0
 7206 00f7 00000000 		.4byte	0
 7207              	.LLST102:
 7208 00fb 00000000 		.4byte	.LVL281
 7209 00ff 08000000 		.4byte	.LVL283
 7210 0103 0200     		.2byte	0x2
 7211 0105 30       		.byte	0x30
 7212 0106 9F       		.byte	0x9f
 7213 0107 08000000 		.4byte	.LVL283
 7214 010b 0C000000 		.4byte	.LVL284
 7215 010f 1000     		.2byte	0x10
 7216 0111 70       		.byte	0x70
 7217 0112 00       		.sleb128 0
 7218 0113 3F       		.byte	0x3f
 7219 0114 25       		.byte	0x25
 7220 0115 73       		.byte	0x73
 7221 0116 00       		.sleb128 0
 7222 0117 1A       		.byte	0x1a
 7223 0118 34       		.byte	0x34
 7224 0119 1A       		.byte	0x1a
 7225 011a 72       		.byte	0x72
 7226 011b 00       		.sleb128 0
 7227 011c 70       		.byte	0x70
 7228 011d 00       		.sleb128 0
 7229 011e 1A       		.byte	0x1a
 7230 011f 21       		.byte	0x21
 7231 0120 9F       		.byte	0x9f
 7232 0121 00000000 		.4byte	0
 7233 0125 00000000 		.4byte	0
 7234              	.LLST98:
 7235 0129 00000000 		.4byte	.LVL279
 7236 012d 06000000 		.4byte	.LVL280
 7237 0131 0100     		.2byte	0x1
 7238 0133 50       		.byte	0x50
 7239 0134 06000000 		.4byte	.LVL280
ARM GAS  /tmp/cc65ENol.s 			page 128


 7240 0138 1C000000 		.4byte	.LFE163
 7241 013c 0400     		.2byte	0x4
 7242 013e F3       		.byte	0xf3
 7243 013f 01       		.uleb128 0x1
 7244 0140 50       		.byte	0x50
 7245 0141 9F       		.byte	0x9f
 7246 0142 00000000 		.4byte	0
 7247 0146 00000000 		.4byte	0
 7248              	.LLST95:
 7249 014a 00000000 		.4byte	.LVL275
 7250 014e 0E000000 		.4byte	.LVL278
 7251 0152 0100     		.2byte	0x1
 7252 0154 50       		.byte	0x50
 7253 0155 0E000000 		.4byte	.LVL278
 7254 0159 1C000000 		.4byte	.LFE162
 7255 015d 0400     		.2byte	0x4
 7256 015f F3       		.byte	0xf3
 7257 0160 01       		.uleb128 0x1
 7258 0161 50       		.byte	0x50
 7259 0162 9F       		.byte	0x9f
 7260 0163 00000000 		.4byte	0
 7261 0167 00000000 		.4byte	0
 7262              	.LLST96:
 7263 016b 00000000 		.4byte	.LVL275
 7264 016f 06000000 		.4byte	.LVL276
 7265 0173 0200     		.2byte	0x2
 7266 0175 30       		.byte	0x30
 7267 0176 9F       		.byte	0x9f
 7268 0177 06000000 		.4byte	.LVL276
 7269 017b 08000000 		.4byte	.LVL277
 7270 017f 0E00     		.2byte	0xe
 7271 0181 73       		.byte	0x73
 7272 0182 00       		.sleb128 0
 7273 0183 70       		.byte	0x70
 7274 0184 00       		.sleb128 0
 7275 0185 1A       		.byte	0x1a
 7276 0186 0C       		.byte	0xc
 7277 0187 7F3F0100 		.4byte	0x13f7f
 7278 018b 1A       		.byte	0x1a
 7279 018c 30       		.byte	0x30
 7280 018d 2E       		.byte	0x2e
 7281 018e 9F       		.byte	0x9f
 7282 018f 00000000 		.4byte	0
 7283 0193 00000000 		.4byte	0
 7284              	.LLST97:
 7285 0197 00000000 		.4byte	.LVL275
 7286 019b 06000000 		.4byte	.LVL276
 7287 019f 0200     		.2byte	0x2
 7288 01a1 30       		.byte	0x30
 7289 01a2 9F       		.byte	0x9f
 7290 01a3 06000000 		.4byte	.LVL276
 7291 01a7 08000000 		.4byte	.LVL277
 7292 01ab 0900     		.2byte	0x9
 7293 01ad 73       		.byte	0x73
 7294 01ae 00       		.sleb128 0
 7295 01af 0C       		.byte	0xc
 7296 01b0 7F3F0100 		.4byte	0x13f7f
ARM GAS  /tmp/cc65ENol.s 			page 129


 7297 01b4 1A       		.byte	0x1a
 7298 01b5 9F       		.byte	0x9f
 7299 01b6 08000000 		.4byte	.LVL277
 7300 01ba 1C000000 		.4byte	.LFE162
 7301 01be 0100     		.2byte	0x1
 7302 01c0 53       		.byte	0x53
 7303 01c1 00000000 		.4byte	0
 7304 01c5 00000000 		.4byte	0
 7305              	.LLST94:
 7306 01c9 00000000 		.4byte	.LVL273
 7307 01cd 16000000 		.4byte	.LVL274
 7308 01d1 0100     		.2byte	0x1
 7309 01d3 50       		.byte	0x50
 7310 01d4 16000000 		.4byte	.LVL274
 7311 01d8 44000000 		.4byte	.LFE161
 7312 01dc 0400     		.2byte	0x4
 7313 01de F3       		.byte	0xf3
 7314 01df 01       		.uleb128 0x1
 7315 01e0 50       		.byte	0x50
 7316 01e1 9F       		.byte	0x9f
 7317 01e2 00000000 		.4byte	0
 7318 01e6 00000000 		.4byte	0
 7319              	.LLST90:
 7320 01ea 00000000 		.4byte	.LVL261
 7321 01ee 3A000000 		.4byte	.LVL266
 7322 01f2 0100     		.2byte	0x1
 7323 01f4 50       		.byte	0x50
 7324 01f5 3A000000 		.4byte	.LVL266
 7325 01f9 42000000 		.4byte	.LVL267
 7326 01fd 0400     		.2byte	0x4
 7327 01ff F3       		.byte	0xf3
 7328 0200 01       		.uleb128 0x1
 7329 0201 50       		.byte	0x50
 7330 0202 9F       		.byte	0x9f
 7331 0203 42000000 		.4byte	.LVL267
 7332 0207 48000000 		.4byte	.LVL268
 7333 020b 0100     		.2byte	0x1
 7334 020d 50       		.byte	0x50
 7335 020e 48000000 		.4byte	.LVL268
 7336 0212 4C000000 		.4byte	.LVL269
 7337 0216 0400     		.2byte	0x4
 7338 0218 F3       		.byte	0xf3
 7339 0219 01       		.uleb128 0x1
 7340 021a 50       		.byte	0x50
 7341 021b 9F       		.byte	0x9f
 7342 021c 4C000000 		.4byte	.LVL269
 7343 0220 53000000 		.4byte	.LVL271-1
 7344 0224 0100     		.2byte	0x1
 7345 0226 50       		.byte	0x50
 7346 0227 53000000 		.4byte	.LVL271-1
 7347 022b 68000000 		.4byte	.LFE160
 7348 022f 0400     		.2byte	0x4
 7349 0231 F3       		.byte	0xf3
 7350 0232 01       		.uleb128 0x1
 7351 0233 50       		.byte	0x50
 7352 0234 9F       		.byte	0x9f
 7353 0235 00000000 		.4byte	0
ARM GAS  /tmp/cc65ENol.s 			page 130


 7354 0239 00000000 		.4byte	0
 7355              	.LLST91:
 7356 023d 00000000 		.4byte	.LVL261
 7357 0241 4E000000 		.4byte	.LVL270
 7358 0245 0100     		.2byte	0x1
 7359 0247 51       		.byte	0x51
 7360 0248 4E000000 		.4byte	.LVL270
 7361 024c 68000000 		.4byte	.LFE160
 7362 0250 0400     		.2byte	0x4
 7363 0252 F3       		.byte	0xf3
 7364 0253 01       		.uleb128 0x1
 7365 0254 51       		.byte	0x51
 7366 0255 9F       		.byte	0x9f
 7367 0256 00000000 		.4byte	0
 7368 025a 00000000 		.4byte	0
 7369              	.LLST92:
 7370 025e 00000000 		.4byte	.LVL261
 7371 0262 3A000000 		.4byte	.LVL266
 7372 0266 0200     		.2byte	0x2
 7373 0268 30       		.byte	0x30
 7374 0269 9F       		.byte	0x9f
 7375 026a 3A000000 		.4byte	.LVL266
 7376 026e 42000000 		.4byte	.LVL267
 7377 0272 0100     		.2byte	0x1
 7378 0274 50       		.byte	0x50
 7379 0275 42000000 		.4byte	.LVL267
 7380 0279 48000000 		.4byte	.LVL268
 7381 027d 0200     		.2byte	0x2
 7382 027f 30       		.byte	0x30
 7383 0280 9F       		.byte	0x9f
 7384 0281 48000000 		.4byte	.LVL268
 7385 0285 4C000000 		.4byte	.LVL269
 7386 0289 0100     		.2byte	0x1
 7387 028b 50       		.byte	0x50
 7388 028c 4C000000 		.4byte	.LVL269
 7389 0290 60000000 		.4byte	.LVL272
 7390 0294 0200     		.2byte	0x2
 7391 0296 30       		.byte	0x30
 7392 0297 9F       		.byte	0x9f
 7393 0298 60000000 		.4byte	.LVL272
 7394 029c 68000000 		.4byte	.LFE160
 7395 02a0 0100     		.2byte	0x1
 7396 02a2 50       		.byte	0x50
 7397 02a3 00000000 		.4byte	0
 7398 02a7 00000000 		.4byte	0
 7399              	.LLST93:
 7400 02ab 00000000 		.4byte	.LVL261
 7401 02af 1E000000 		.4byte	.LVL262
 7402 02b3 0200     		.2byte	0x2
 7403 02b5 30       		.byte	0x30
 7404 02b6 9F       		.byte	0x9f
 7405 02b7 1E000000 		.4byte	.LVL262
 7406 02bb 20000000 		.4byte	.LVL263
 7407 02bf 0700     		.2byte	0x7
 7408 02c1 0A       		.byte	0xa
 7409 02c2 0110     		.2byte	0x1001
 7410 02c4 73       		.byte	0x73
ARM GAS  /tmp/cc65ENol.s 			page 131


 7411 02c5 00       		.sleb128 0
 7412 02c6 1C       		.byte	0x1c
 7413 02c7 9F       		.byte	0x9f
 7414 02c8 20000000 		.4byte	.LVL263
 7415 02cc 22000000 		.4byte	.LVL264
 7416 02d0 0700     		.2byte	0x7
 7417 02d2 0A       		.byte	0xa
 7418 02d3 0010     		.2byte	0x1000
 7419 02d5 73       		.byte	0x73
 7420 02d6 00       		.sleb128 0
 7421 02d7 1C       		.byte	0x1c
 7422 02d8 9F       		.byte	0x9f
 7423 02d9 22000000 		.4byte	.LVL264
 7424 02dd 28000000 		.4byte	.LVL265
 7425 02e1 0700     		.2byte	0x7
 7426 02e3 0A       		.byte	0xa
 7427 02e4 0110     		.2byte	0x1001
 7428 02e6 73       		.byte	0x73
 7429 02e7 00       		.sleb128 0
 7430 02e8 1C       		.byte	0x1c
 7431 02e9 9F       		.byte	0x9f
 7432 02ea 00000000 		.4byte	0
 7433 02ee 00000000 		.4byte	0
 7434              	.LLST89:
 7435 02f2 00000000 		.4byte	.LVL259
 7436 02f6 0E000000 		.4byte	.LVL260
 7437 02fa 0100     		.2byte	0x1
 7438 02fc 50       		.byte	0x50
 7439 02fd 0E000000 		.4byte	.LVL260
 7440 0301 18000000 		.4byte	.LFE159
 7441 0305 0400     		.2byte	0x4
 7442 0307 F3       		.byte	0xf3
 7443 0308 01       		.uleb128 0x1
 7444 0309 50       		.byte	0x50
 7445 030a 9F       		.byte	0x9f
 7446 030b 00000000 		.4byte	0
 7447 030f 00000000 		.4byte	0
 7448              	.LLST88:
 7449 0313 00000000 		.4byte	.LVL257
 7450 0317 0E000000 		.4byte	.LVL258
 7451 031b 0100     		.2byte	0x1
 7452 031d 50       		.byte	0x50
 7453 031e 0E000000 		.4byte	.LVL258
 7454 0322 18000000 		.4byte	.LFE158
 7455 0326 0400     		.2byte	0x4
 7456 0328 F3       		.byte	0xf3
 7457 0329 01       		.uleb128 0x1
 7458 032a 50       		.byte	0x50
 7459 032b 9F       		.byte	0x9f
 7460 032c 00000000 		.4byte	0
 7461 0330 00000000 		.4byte	0
 7462              	.LLST87:
 7463 0334 00000000 		.4byte	.LVL255
 7464 0338 0E000000 		.4byte	.LVL256
 7465 033c 0100     		.2byte	0x1
 7466 033e 50       		.byte	0x50
 7467 033f 0E000000 		.4byte	.LVL256
ARM GAS  /tmp/cc65ENol.s 			page 132


 7468 0343 18000000 		.4byte	.LFE157
 7469 0347 0400     		.2byte	0x4
 7470 0349 F3       		.byte	0xf3
 7471 034a 01       		.uleb128 0x1
 7472 034b 50       		.byte	0x50
 7473 034c 9F       		.byte	0x9f
 7474 034d 00000000 		.4byte	0
 7475 0351 00000000 		.4byte	0
 7476              	.LLST86:
 7477 0355 00000000 		.4byte	.LVL253
 7478 0359 10000000 		.4byte	.LVL254
 7479 035d 0100     		.2byte	0x1
 7480 035f 50       		.byte	0x50
 7481 0360 10000000 		.4byte	.LVL254
 7482 0364 20000000 		.4byte	.LFE156
 7483 0368 0400     		.2byte	0x4
 7484 036a F3       		.byte	0xf3
 7485 036b 01       		.uleb128 0x1
 7486 036c 50       		.byte	0x50
 7487 036d 9F       		.byte	0x9f
 7488 036e 00000000 		.4byte	0
 7489 0372 00000000 		.4byte	0
 7490              	.LLST85:
 7491 0376 00000000 		.4byte	.LVL251
 7492 037a 10000000 		.4byte	.LVL252
 7493 037e 0100     		.2byte	0x1
 7494 0380 50       		.byte	0x50
 7495 0381 10000000 		.4byte	.LVL252
 7496 0385 20000000 		.4byte	.LFE155
 7497 0389 0400     		.2byte	0x4
 7498 038b F3       		.byte	0xf3
 7499 038c 01       		.uleb128 0x1
 7500 038d 50       		.byte	0x50
 7501 038e 9F       		.byte	0x9f
 7502 038f 00000000 		.4byte	0
 7503 0393 00000000 		.4byte	0
 7504              	.LLST84:
 7505 0397 00000000 		.4byte	.LVL247
 7506 039b 0E000000 		.4byte	.LVL248
 7507 039f 0100     		.2byte	0x1
 7508 03a1 50       		.byte	0x50
 7509 03a2 0E000000 		.4byte	.LVL248
 7510 03a6 18000000 		.4byte	.LFE152
 7511 03aa 0400     		.2byte	0x4
 7512 03ac F3       		.byte	0xf3
 7513 03ad 01       		.uleb128 0x1
 7514 03ae 50       		.byte	0x50
 7515 03af 9F       		.byte	0x9f
 7516 03b0 00000000 		.4byte	0
 7517 03b4 00000000 		.4byte	0
 7518              	.LLST83:
 7519 03b8 00000000 		.4byte	.LVL245
 7520 03bc 0E000000 		.4byte	.LVL246
 7521 03c0 0100     		.2byte	0x1
 7522 03c2 50       		.byte	0x50
 7523 03c3 0E000000 		.4byte	.LVL246
 7524 03c7 18000000 		.4byte	.LFE151
ARM GAS  /tmp/cc65ENol.s 			page 133


 7525 03cb 0400     		.2byte	0x4
 7526 03cd F3       		.byte	0xf3
 7527 03ce 01       		.uleb128 0x1
 7528 03cf 50       		.byte	0x50
 7529 03d0 9F       		.byte	0x9f
 7530 03d1 00000000 		.4byte	0
 7531 03d5 00000000 		.4byte	0
 7532              	.LLST82:
 7533 03d9 00000000 		.4byte	.LVL243
 7534 03dd 0E000000 		.4byte	.LVL244
 7535 03e1 0100     		.2byte	0x1
 7536 03e3 50       		.byte	0x50
 7537 03e4 0E000000 		.4byte	.LVL244
 7538 03e8 18000000 		.4byte	.LFE150
 7539 03ec 0400     		.2byte	0x4
 7540 03ee F3       		.byte	0xf3
 7541 03ef 01       		.uleb128 0x1
 7542 03f0 50       		.byte	0x50
 7543 03f1 9F       		.byte	0x9f
 7544 03f2 00000000 		.4byte	0
 7545 03f6 00000000 		.4byte	0
 7546              	.LLST81:
 7547 03fa 00000000 		.4byte	.LVL239
 7548 03fe 0A000000 		.4byte	.LVL240
 7549 0402 0100     		.2byte	0x1
 7550 0404 50       		.byte	0x50
 7551 0405 0A000000 		.4byte	.LVL240
 7552 0409 0E000000 		.4byte	.LVL241
 7553 040d 0400     		.2byte	0x4
 7554 040f F3       		.byte	0xf3
 7555 0410 01       		.uleb128 0x1
 7556 0411 50       		.byte	0x50
 7557 0412 9F       		.byte	0x9f
 7558 0413 0E000000 		.4byte	.LVL241
 7559 0417 10000000 		.4byte	.LVL242
 7560 041b 0100     		.2byte	0x1
 7561 041d 50       		.byte	0x50
 7562 041e 10000000 		.4byte	.LVL242
 7563 0422 18000000 		.4byte	.LFE149
 7564 0426 0400     		.2byte	0x4
 7565 0428 F3       		.byte	0xf3
 7566 0429 01       		.uleb128 0x1
 7567 042a 50       		.byte	0x50
 7568 042b 9F       		.byte	0x9f
 7569 042c 00000000 		.4byte	0
 7570 0430 00000000 		.4byte	0
 7571              	.LLST80:
 7572 0434 00000000 		.4byte	.LVL237
 7573 0438 04000000 		.4byte	.LVL238
 7574 043c 0100     		.2byte	0x1
 7575 043e 50       		.byte	0x50
 7576 043f 04000000 		.4byte	.LVL238
 7577 0443 1C000000 		.4byte	.LFE148
 7578 0447 0400     		.2byte	0x4
 7579 0449 F3       		.byte	0xf3
 7580 044a 01       		.uleb128 0x1
 7581 044b 50       		.byte	0x50
ARM GAS  /tmp/cc65ENol.s 			page 134


 7582 044c 9F       		.byte	0x9f
 7583 044d 00000000 		.4byte	0
 7584 0451 00000000 		.4byte	0
 7585              	.LLST77:
 7586 0455 00000000 		.4byte	.LVL231
 7587 0459 5A000000 		.4byte	.LVL236
 7588 045d 0100     		.2byte	0x1
 7589 045f 50       		.byte	0x50
 7590 0460 5A000000 		.4byte	.LVL236
 7591 0464 BC000000 		.4byte	.LFE146
 7592 0468 0400     		.2byte	0x4
 7593 046a F3       		.byte	0xf3
 7594 046b 01       		.uleb128 0x1
 7595 046c 50       		.byte	0x50
 7596 046d 9F       		.byte	0x9f
 7597 046e 00000000 		.4byte	0
 7598 0472 00000000 		.4byte	0
 7599              	.LLST78:
 7600 0476 00000000 		.4byte	.LVL231
 7601 047a 12000000 		.4byte	.LVL232
 7602 047e 0200     		.2byte	0x2
 7603 0480 30       		.byte	0x30
 7604 0481 9F       		.byte	0x9f
 7605 0482 12000000 		.4byte	.LVL232
 7606 0486 32000000 		.4byte	.LVL234
 7607 048a 0100     		.2byte	0x1
 7608 048c 54       		.byte	0x54
 7609 048d 00000000 		.4byte	0
 7610 0491 00000000 		.4byte	0
 7611              	.LLST79:
 7612 0495 00000000 		.4byte	.LVL231
 7613 0499 1A000000 		.4byte	.LVL233
 7614 049d 0200     		.2byte	0x2
 7615 049f 30       		.byte	0x30
 7616 04a0 9F       		.byte	0x9f
 7617 04a1 1A000000 		.4byte	.LVL233
 7618 04a5 3E000000 		.4byte	.LVL235
 7619 04a9 0100     		.2byte	0x1
 7620 04ab 53       		.byte	0x53
 7621 04ac 00000000 		.4byte	0
 7622 04b0 00000000 		.4byte	0
 7623              	.LLST74:
 7624 04b4 00000000 		.4byte	.LVL223
 7625 04b8 18000000 		.4byte	.LVL226
 7626 04bc 0100     		.2byte	0x1
 7627 04be 50       		.byte	0x50
 7628 04bf 18000000 		.4byte	.LVL226
 7629 04c3 28000000 		.4byte	.LVL228
 7630 04c7 0400     		.2byte	0x4
 7631 04c9 F3       		.byte	0xf3
 7632 04ca 01       		.uleb128 0x1
 7633 04cb 50       		.byte	0x50
 7634 04cc 9F       		.byte	0x9f
 7635 04cd 28000000 		.4byte	.LVL228
 7636 04d1 34000000 		.4byte	.LFE145
 7637 04d5 0100     		.2byte	0x1
 7638 04d7 50       		.byte	0x50
ARM GAS  /tmp/cc65ENol.s 			page 135


 7639 04d8 00000000 		.4byte	0
 7640 04dc 00000000 		.4byte	0
 7641              	.LLST75:
 7642 04e0 00000000 		.4byte	.LVL223
 7643 04e4 1A000000 		.4byte	.LVL227
 7644 04e8 0100     		.2byte	0x1
 7645 04ea 51       		.byte	0x51
 7646 04eb 1A000000 		.4byte	.LVL227
 7647 04ef 28000000 		.4byte	.LVL228
 7648 04f3 0400     		.2byte	0x4
 7649 04f5 F3       		.byte	0xf3
 7650 04f6 01       		.uleb128 0x1
 7651 04f7 51       		.byte	0x51
 7652 04f8 9F       		.byte	0x9f
 7653 04f9 28000000 		.4byte	.LVL228
 7654 04fd 34000000 		.4byte	.LFE145
 7655 0501 0100     		.2byte	0x1
 7656 0503 51       		.byte	0x51
 7657 0504 00000000 		.4byte	0
 7658 0508 00000000 		.4byte	0
 7659              	.LLST76:
 7660 050c 00000000 		.4byte	.LVL223
 7661 0510 0E000000 		.4byte	.LVL224
 7662 0514 0200     		.2byte	0x2
 7663 0516 30       		.byte	0x30
 7664 0517 9F       		.byte	0x9f
 7665 0518 0E000000 		.4byte	.LVL224
 7666 051c 2C000000 		.4byte	.LVL229
 7667 0520 0100     		.2byte	0x1
 7668 0522 53       		.byte	0x53
 7669 0523 2E000000 		.4byte	.LVL230
 7670 0527 34000000 		.4byte	.LFE145
 7671 052b 0100     		.2byte	0x1
 7672 052d 53       		.byte	0x53
 7673 052e 00000000 		.4byte	0
 7674 0532 00000000 		.4byte	0
 7675              	.LLST69:
 7676 0536 00000000 		.4byte	.LVL211
 7677 053a 34000000 		.4byte	.LVL217
 7678 053e 0100     		.2byte	0x1
 7679 0540 50       		.byte	0x50
 7680 0541 34000000 		.4byte	.LVL217
 7681 0545 42000000 		.4byte	.LVL221
 7682 0549 0400     		.2byte	0x4
 7683 054b F3       		.byte	0xf3
 7684 054c 01       		.uleb128 0x1
 7685 054d 50       		.byte	0x50
 7686 054e 9F       		.byte	0x9f
 7687 054f 42000000 		.4byte	.LVL221
 7688 0553 44000000 		.4byte	.LVL222
 7689 0557 0100     		.2byte	0x1
 7690 0559 50       		.byte	0x50
 7691 055a 44000000 		.4byte	.LVL222
 7692 055e 4C000000 		.4byte	.LFE144
 7693 0562 0400     		.2byte	0x4
 7694 0564 F3       		.byte	0xf3
 7695 0565 01       		.uleb128 0x1
ARM GAS  /tmp/cc65ENol.s 			page 136


 7696 0566 50       		.byte	0x50
 7697 0567 9F       		.byte	0x9f
 7698 0568 00000000 		.4byte	0
 7699 056c 00000000 		.4byte	0
 7700              	.LLST70:
 7701 0570 00000000 		.4byte	.LVL211
 7702 0574 32000000 		.4byte	.LVL216
 7703 0578 0100     		.2byte	0x1
 7704 057a 51       		.byte	0x51
 7705 057b 32000000 		.4byte	.LVL216
 7706 057f 42000000 		.4byte	.LVL221
 7707 0583 0400     		.2byte	0x4
 7708 0585 F3       		.byte	0xf3
 7709 0586 01       		.uleb128 0x1
 7710 0587 51       		.byte	0x51
 7711 0588 9F       		.byte	0x9f
 7712 0589 42000000 		.4byte	.LVL221
 7713 058d 4C000000 		.4byte	.LFE144
 7714 0591 0100     		.2byte	0x1
 7715 0593 51       		.byte	0x51
 7716 0594 00000000 		.4byte	0
 7717 0598 00000000 		.4byte	0
 7718              	.LLST71:
 7719 059c 00000000 		.4byte	.LVL211
 7720 05a0 3C000000 		.4byte	.LVL220
 7721 05a4 0100     		.2byte	0x1
 7722 05a6 52       		.byte	0x52
 7723 05a7 3C000000 		.4byte	.LVL220
 7724 05ab 42000000 		.4byte	.LVL221
 7725 05af 0400     		.2byte	0x4
 7726 05b1 F3       		.byte	0xf3
 7727 05b2 01       		.uleb128 0x1
 7728 05b3 52       		.byte	0x52
 7729 05b4 9F       		.byte	0x9f
 7730 05b5 42000000 		.4byte	.LVL221
 7731 05b9 4C000000 		.4byte	.LFE144
 7732 05bd 0100     		.2byte	0x1
 7733 05bf 52       		.byte	0x52
 7734 05c0 00000000 		.4byte	0
 7735 05c4 00000000 		.4byte	0
 7736              	.LLST72:
 7737 05c8 00000000 		.4byte	.LVL211
 7738 05cc 36000000 		.4byte	.LVL218
 7739 05d0 0200     		.2byte	0x2
 7740 05d2 30       		.byte	0x30
 7741 05d3 9F       		.byte	0x9f
 7742 05d4 36000000 		.4byte	.LVL218
 7743 05d8 38000000 		.4byte	.LVL219
 7744 05dc 0200     		.2byte	0x2
 7745 05de 31       		.byte	0x31
 7746 05df 9F       		.byte	0x9f
 7747 05e0 38000000 		.4byte	.LVL219
 7748 05e4 42000000 		.4byte	.LVL221
 7749 05e8 0100     		.2byte	0x1
 7750 05ea 50       		.byte	0x50
 7751 05eb 42000000 		.4byte	.LVL221
 7752 05ef 4C000000 		.4byte	.LFE144
ARM GAS  /tmp/cc65ENol.s 			page 137


 7753 05f3 0200     		.2byte	0x2
 7754 05f5 30       		.byte	0x30
 7755 05f6 9F       		.byte	0x9f
 7756 05f7 00000000 		.4byte	0
 7757 05fb 00000000 		.4byte	0
 7758              	.LLST73:
 7759 05ff 00000000 		.4byte	.LVL211
 7760 0603 1E000000 		.4byte	.LVL212
 7761 0607 0200     		.2byte	0x2
 7762 0609 30       		.byte	0x30
 7763 060a 9F       		.byte	0x9f
 7764 060b 1E000000 		.4byte	.LVL212
 7765 060f 20000000 		.4byte	.LVL213
 7766 0613 0900     		.2byte	0x9
 7767 0615 0C       		.byte	0xc
 7768 0616 01000200 		.4byte	0x20001
 7769 061a 73       		.byte	0x73
 7770 061b 00       		.sleb128 0
 7771 061c 1C       		.byte	0x1c
 7772 061d 9F       		.byte	0x9f
 7773 061e 20000000 		.4byte	.LVL213
 7774 0622 22000000 		.4byte	.LVL214
 7775 0626 0700     		.2byte	0x7
 7776 0628 40       		.byte	0x40
 7777 0629 3D       		.byte	0x3d
 7778 062a 24       		.byte	0x24
 7779 062b 73       		.byte	0x73
 7780 062c 00       		.sleb128 0
 7781 062d 1C       		.byte	0x1c
 7782 062e 9F       		.byte	0x9f
 7783 062f 22000000 		.4byte	.LVL214
 7784 0633 28000000 		.4byte	.LVL215
 7785 0637 0900     		.2byte	0x9
 7786 0639 0C       		.byte	0xc
 7787 063a 01000200 		.4byte	0x20001
 7788 063e 73       		.byte	0x73
 7789 063f 00       		.sleb128 0
 7790 0640 1C       		.byte	0x1c
 7791 0641 9F       		.byte	0x9f
 7792 0642 00000000 		.4byte	0
 7793 0646 00000000 		.4byte	0
 7794              	.LLST68:
 7795 064a 00000000 		.4byte	.LVL209
 7796 064e 18000000 		.4byte	.LVL210
 7797 0652 0100     		.2byte	0x1
 7798 0654 50       		.byte	0x50
 7799 0655 18000000 		.4byte	.LVL210
 7800 0659 24000000 		.4byte	.LFE143
 7801 065d 0400     		.2byte	0x4
 7802 065f F3       		.byte	0xf3
 7803 0660 01       		.uleb128 0x1
 7804 0661 50       		.byte	0x50
 7805 0662 9F       		.byte	0x9f
 7806 0663 00000000 		.4byte	0
 7807 0667 00000000 		.4byte	0
 7808              	.LLST66:
 7809 066b 00000000 		.4byte	.LVL203
ARM GAS  /tmp/cc65ENol.s 			page 138


 7810 066f 11000000 		.4byte	.LVL204-1
 7811 0673 0100     		.2byte	0x1
 7812 0675 50       		.byte	0x50
 7813 0676 11000000 		.4byte	.LVL204-1
 7814 067a 40000000 		.4byte	.LFE141
 7815 067e 0400     		.2byte	0x4
 7816 0680 F3       		.byte	0xf3
 7817 0681 01       		.uleb128 0x1
 7818 0682 50       		.byte	0x50
 7819 0683 9F       		.byte	0x9f
 7820 0684 00000000 		.4byte	0
 7821 0688 00000000 		.4byte	0
 7822              	.LLST67:
 7823 068c 00000000 		.4byte	.LVL203
 7824 0690 28000000 		.4byte	.LVL205
 7825 0694 0200     		.2byte	0x2
 7826 0696 30       		.byte	0x30
 7827 0697 9F       		.byte	0x9f
 7828 0698 28000000 		.4byte	.LVL205
 7829 069c 2A000000 		.4byte	.LVL206
 7830 06a0 0200     		.2byte	0x2
 7831 06a2 31       		.byte	0x31
 7832 06a3 9F       		.byte	0x9f
 7833 06a4 2A000000 		.4byte	.LVL206
 7834 06a8 32000000 		.4byte	.LVL207
 7835 06ac 0100     		.2byte	0x1
 7836 06ae 50       		.byte	0x50
 7837 06af 32000000 		.4byte	.LVL207
 7838 06b3 40000000 		.4byte	.LFE141
 7839 06b7 0200     		.2byte	0x2
 7840 06b9 30       		.byte	0x30
 7841 06ba 9F       		.byte	0x9f
 7842 06bb 00000000 		.4byte	0
 7843 06bf 00000000 		.4byte	0
 7844              	.LLST63:
 7845 06c3 00000000 		.4byte	.LVL197
 7846 06c7 13000000 		.4byte	.LVL198-1
 7847 06cb 0100     		.2byte	0x1
 7848 06cd 50       		.byte	0x50
 7849 06ce 13000000 		.4byte	.LVL198-1
 7850 06d2 18000000 		.4byte	.LVL199
 7851 06d6 0100     		.2byte	0x1
 7852 06d8 55       		.byte	0x55
 7853 06d9 18000000 		.4byte	.LVL199
 7854 06dd 30000000 		.4byte	.LFE140
 7855 06e1 0400     		.2byte	0x4
 7856 06e3 F3       		.byte	0xf3
 7857 06e4 01       		.uleb128 0x1
 7858 06e5 50       		.byte	0x50
 7859 06e6 9F       		.byte	0x9f
 7860 06e7 00000000 		.4byte	0
 7861 06eb 00000000 		.4byte	0
 7862              	.LLST64:
 7863 06ef 00000000 		.4byte	.LVL197
 7864 06f3 13000000 		.4byte	.LVL198-1
 7865 06f7 0100     		.2byte	0x1
 7866 06f9 51       		.byte	0x51
ARM GAS  /tmp/cc65ENol.s 			page 139


 7867 06fa 13000000 		.4byte	.LVL198-1
 7868 06fe 2C000000 		.4byte	.LVL202
 7869 0702 0100     		.2byte	0x1
 7870 0704 56       		.byte	0x56
 7871 0705 2C000000 		.4byte	.LVL202
 7872 0709 30000000 		.4byte	.LFE140
 7873 070d 0400     		.2byte	0x4
 7874 070f F3       		.byte	0xf3
 7875 0710 01       		.uleb128 0x1
 7876 0711 51       		.byte	0x51
 7877 0712 9F       		.byte	0x9f
 7878 0713 00000000 		.4byte	0
 7879 0717 00000000 		.4byte	0
 7880              	.LLST65:
 7881 071b 00000000 		.4byte	.LVL197
 7882 071f 22000000 		.4byte	.LVL200
 7883 0723 0200     		.2byte	0x2
 7884 0725 30       		.byte	0x30
 7885 0726 9F       		.byte	0x9f
 7886 0727 22000000 		.4byte	.LVL200
 7887 072b 24000000 		.4byte	.LVL201
 7888 072f 0200     		.2byte	0x2
 7889 0731 31       		.byte	0x31
 7890 0732 9F       		.byte	0x9f
 7891 0733 24000000 		.4byte	.LVL201
 7892 0737 30000000 		.4byte	.LFE140
 7893 073b 0100     		.2byte	0x1
 7894 073d 50       		.byte	0x50
 7895 073e 00000000 		.4byte	0
 7896 0742 00000000 		.4byte	0
 7897              	.LLST62:
 7898 0746 00000000 		.4byte	.LVL195
 7899 074a 1C000000 		.4byte	.LVL196
 7900 074e 0100     		.2byte	0x1
 7901 0750 51       		.byte	0x51
 7902 0751 1C000000 		.4byte	.LVL196
 7903 0755 2C000000 		.4byte	.LFE139
 7904 0759 0400     		.2byte	0x4
 7905 075b F3       		.byte	0xf3
 7906 075c 01       		.uleb128 0x1
 7907 075d 51       		.byte	0x51
 7908 075e 9F       		.byte	0x9f
 7909 075f 00000000 		.4byte	0
 7910 0763 00000000 		.4byte	0
 7911              	.LLST61:
 7912 0767 00000000 		.4byte	.LVL193
 7913 076b 1C000000 		.4byte	.LVL194
 7914 076f 0100     		.2byte	0x1
 7915 0771 51       		.byte	0x51
 7916 0772 1C000000 		.4byte	.LVL194
 7917 0776 2C000000 		.4byte	.LFE137
 7918 077a 0400     		.2byte	0x4
 7919 077c F3       		.byte	0xf3
 7920 077d 01       		.uleb128 0x1
 7921 077e 51       		.byte	0x51
 7922 077f 9F       		.byte	0x9f
 7923 0780 00000000 		.4byte	0
ARM GAS  /tmp/cc65ENol.s 			page 140


 7924 0784 00000000 		.4byte	0
 7925              	.LLST58:
 7926 0788 00000000 		.4byte	.LVL183
 7927 078c 3A000000 		.4byte	.LVL188
 7928 0790 0100     		.2byte	0x1
 7929 0792 50       		.byte	0x50
 7930 0793 3A000000 		.4byte	.LVL188
 7931 0797 4C000000 		.4byte	.LVL190
 7932 079b 0400     		.2byte	0x4
 7933 079d F3       		.byte	0xf3
 7934 079e 01       		.uleb128 0x1
 7935 079f 50       		.byte	0x50
 7936 07a0 9F       		.byte	0x9f
 7937 07a1 4C000000 		.4byte	.LVL190
 7938 07a5 54000000 		.4byte	.LVL192
 7939 07a9 0100     		.2byte	0x1
 7940 07ab 50       		.byte	0x50
 7941 07ac 54000000 		.4byte	.LVL192
 7942 07b0 5C000000 		.4byte	.LFE136
 7943 07b4 0400     		.2byte	0x4
 7944 07b6 F3       		.byte	0xf3
 7945 07b7 01       		.uleb128 0x1
 7946 07b8 50       		.byte	0x50
 7947 07b9 9F       		.byte	0x9f
 7948 07ba 00000000 		.4byte	0
 7949 07be 00000000 		.4byte	0
 7950              	.LLST59:
 7951 07c2 0E000000 		.4byte	.LVL184
 7952 07c6 20000000 		.4byte	.LVL185
 7953 07ca 0200     		.2byte	0x2
 7954 07cc 30       		.byte	0x30
 7955 07cd 9F       		.byte	0x9f
 7956 07ce 20000000 		.4byte	.LVL185
 7957 07d2 22000000 		.4byte	.LVL186
 7958 07d6 0100     		.2byte	0x1
 7959 07d8 52       		.byte	0x52
 7960 07d9 34000000 		.4byte	.LVL187
 7961 07dd 3E000000 		.4byte	.LVL189
 7962 07e1 0100     		.2byte	0x1
 7963 07e3 52       		.byte	0x52
 7964 07e4 4C000000 		.4byte	.LVL190
 7965 07e8 5C000000 		.4byte	.LFE136
 7966 07ec 0200     		.2byte	0x2
 7967 07ee 30       		.byte	0x30
 7968 07ef 9F       		.byte	0x9f
 7969 07f0 00000000 		.4byte	0
 7970 07f4 00000000 		.4byte	0
 7971              	.LLST60:
 7972 07f8 0E000000 		.4byte	.LVL184
 7973 07fc 3E000000 		.4byte	.LVL189
 7974 0800 0200     		.2byte	0x2
 7975 0802 30       		.byte	0x30
 7976 0803 9F       		.byte	0x9f
 7977 0804 3E000000 		.4byte	.LVL189
 7978 0808 4C000000 		.4byte	.LVL190
 7979 080c 0100     		.2byte	0x1
 7980 080e 50       		.byte	0x50
ARM GAS  /tmp/cc65ENol.s 			page 141


 7981 080f 4C000000 		.4byte	.LVL190
 7982 0813 52000000 		.4byte	.LVL191
 7983 0817 0200     		.2byte	0x2
 7984 0819 30       		.byte	0x30
 7985 081a 9F       		.byte	0x9f
 7986 081b 52000000 		.4byte	.LVL191
 7987 081f 5C000000 		.4byte	.LFE136
 7988 0823 0200     		.2byte	0x2
 7989 0825 31       		.byte	0x31
 7990 0826 9F       		.byte	0x9f
 7991 0827 00000000 		.4byte	0
 7992 082b 00000000 		.4byte	0
 7993              	.LLST57:
 7994 082f 00000000 		.4byte	.LVL180
 7995 0833 18000000 		.4byte	.LVL181
 7996 0837 0100     		.2byte	0x1
 7997 0839 50       		.byte	0x50
 7998 083a 18000000 		.4byte	.LVL181
 7999 083e 24000000 		.4byte	.LFE133
 8000 0842 0400     		.2byte	0x4
 8001 0844 F3       		.byte	0xf3
 8002 0845 01       		.uleb128 0x1
 8003 0846 50       		.byte	0x50
 8004 0847 9F       		.byte	0x9f
 8005 0848 00000000 		.4byte	0
 8006 084c 00000000 		.4byte	0
 8007              	.LLST55:
 8008 0850 00000000 		.4byte	.LVL177
 8009 0854 0A000000 		.4byte	.LVL178
 8010 0858 0100     		.2byte	0x1
 8011 085a 50       		.byte	0x50
 8012 085b 0A000000 		.4byte	.LVL178
 8013 085f 18000000 		.4byte	.LFE132
 8014 0863 0400     		.2byte	0x4
 8015 0865 F3       		.byte	0xf3
 8016 0866 01       		.uleb128 0x1
 8017 0867 50       		.byte	0x50
 8018 0868 9F       		.byte	0x9f
 8019 0869 00000000 		.4byte	0
 8020 086d 00000000 		.4byte	0
 8021              	.LLST56:
 8022 0871 00000000 		.4byte	.LVL177
 8023 0875 10000000 		.4byte	.LVL179
 8024 0879 0200     		.2byte	0x2
 8025 087b 30       		.byte	0x30
 8026 087c 9F       		.byte	0x9f
 8027 087d 10000000 		.4byte	.LVL179
 8028 0881 18000000 		.4byte	.LFE132
 8029 0885 0100     		.2byte	0x1
 8030 0887 50       		.byte	0x50
 8031 0888 00000000 		.4byte	0
 8032 088c 00000000 		.4byte	0
 8033              	.LLST53:
 8034 0890 00000000 		.4byte	.LVL174
 8035 0894 06000000 		.4byte	.LVL175
 8036 0898 0100     		.2byte	0x1
 8037 089a 52       		.byte	0x52
ARM GAS  /tmp/cc65ENol.s 			page 142


 8038 089b 06000000 		.4byte	.LVL175
 8039 089f 28000000 		.4byte	.LFE131
 8040 08a3 0400     		.2byte	0x4
 8041 08a5 F3       		.byte	0xf3
 8042 08a6 01       		.uleb128 0x1
 8043 08a7 52       		.byte	0x52
 8044 08a8 9F       		.byte	0x9f
 8045 08a9 00000000 		.4byte	0
 8046 08ad 00000000 		.4byte	0
 8047              	.LLST54:
 8048 08b1 00000000 		.4byte	.LVL174
 8049 08b5 06000000 		.4byte	.LVL175
 8050 08b9 0200     		.2byte	0x2
 8051 08bb 30       		.byte	0x30
 8052 08bc 9F       		.byte	0x9f
 8053 08bd 06000000 		.4byte	.LVL175
 8054 08c1 1C000000 		.4byte	.LVL176
 8055 08c5 0100     		.2byte	0x1
 8056 08c7 52       		.byte	0x52
 8057 08c8 1C000000 		.4byte	.LVL176
 8058 08cc 28000000 		.4byte	.LFE131
 8059 08d0 0700     		.2byte	0x7
 8060 08d2 F3       		.byte	0xf3
 8061 08d3 01       		.uleb128 0x1
 8062 08d4 52       		.byte	0x52
 8063 08d5 71       		.byte	0x71
 8064 08d6 00       		.sleb128 0
 8065 08d7 21       		.byte	0x21
 8066 08d8 9F       		.byte	0x9f
 8067 08d9 00000000 		.4byte	0
 8068 08dd 00000000 		.4byte	0
 8069              	.LLST49:
 8070 08e1 00000000 		.4byte	.LVL163
 8071 08e5 1E000000 		.4byte	.LVL165
 8072 08e9 0100     		.2byte	0x1
 8073 08eb 50       		.byte	0x50
 8074 08ec 1E000000 		.4byte	.LVL165
 8075 08f0 50000000 		.4byte	.LVL171
 8076 08f4 0400     		.2byte	0x4
 8077 08f6 F3       		.byte	0xf3
 8078 08f7 01       		.uleb128 0x1
 8079 08f8 50       		.byte	0x50
 8080 08f9 9F       		.byte	0x9f
 8081 08fa 50000000 		.4byte	.LVL171
 8082 08fe 52000000 		.4byte	.LVL172
 8083 0902 0100     		.2byte	0x1
 8084 0904 50       		.byte	0x50
 8085 0905 52000000 		.4byte	.LVL172
 8086 0909 5C000000 		.4byte	.LFE130
 8087 090d 0400     		.2byte	0x4
 8088 090f F3       		.byte	0xf3
 8089 0910 01       		.uleb128 0x1
 8090 0911 50       		.byte	0x50
 8091 0912 9F       		.byte	0x9f
 8092 0913 00000000 		.4byte	0
 8093 0917 00000000 		.4byte	0
 8094              	.LLST50:
ARM GAS  /tmp/cc65ENol.s 			page 143


 8095 091b 00000000 		.4byte	.LVL163
 8096 091f 20000000 		.4byte	.LVL166
 8097 0923 0100     		.2byte	0x1
 8098 0925 51       		.byte	0x51
 8099 0926 20000000 		.4byte	.LVL166
 8100 092a 50000000 		.4byte	.LVL171
 8101 092e 0400     		.2byte	0x4
 8102 0930 F3       		.byte	0xf3
 8103 0931 01       		.uleb128 0x1
 8104 0932 51       		.byte	0x51
 8105 0933 9F       		.byte	0x9f
 8106 0934 50000000 		.4byte	.LVL171
 8107 0938 5C000000 		.4byte	.LFE130
 8108 093c 0100     		.2byte	0x1
 8109 093e 51       		.byte	0x51
 8110 093f 00000000 		.4byte	0
 8111 0943 00000000 		.4byte	0
 8112              	.LLST51:
 8113 0947 0E000000 		.4byte	.LVL164
 8114 094b 22000000 		.4byte	.LVL167
 8115 094f 0200     		.2byte	0x2
 8116 0951 30       		.byte	0x30
 8117 0952 9F       		.byte	0x9f
 8118 0953 22000000 		.4byte	.LVL167
 8119 0957 24000000 		.4byte	.LVL168
 8120 095b 0100     		.2byte	0x1
 8121 095d 52       		.byte	0x52
 8122 095e 36000000 		.4byte	.LVL169
 8123 0962 44000000 		.4byte	.LVL170
 8124 0966 0100     		.2byte	0x1
 8125 0968 52       		.byte	0x52
 8126 0969 50000000 		.4byte	.LVL171
 8127 096d 5C000000 		.4byte	.LFE130
 8128 0971 0200     		.2byte	0x2
 8129 0973 30       		.byte	0x30
 8130 0974 9F       		.byte	0x9f
 8131 0975 00000000 		.4byte	0
 8132 0979 00000000 		.4byte	0
 8133              	.LLST52:
 8134 097d 0E000000 		.4byte	.LVL164
 8135 0981 44000000 		.4byte	.LVL170
 8136 0985 0200     		.2byte	0x2
 8137 0987 30       		.byte	0x30
 8138 0988 9F       		.byte	0x9f
 8139 0989 44000000 		.4byte	.LVL170
 8140 098d 50000000 		.4byte	.LVL171
 8141 0991 0100     		.2byte	0x1
 8142 0993 50       		.byte	0x50
 8143 0994 50000000 		.4byte	.LVL171
 8144 0998 54000000 		.4byte	.LVL173
 8145 099c 0200     		.2byte	0x2
 8146 099e 30       		.byte	0x30
 8147 099f 9F       		.byte	0x9f
 8148 09a0 54000000 		.4byte	.LVL173
 8149 09a4 5C000000 		.4byte	.LFE130
 8150 09a8 0200     		.2byte	0x2
 8151 09aa 31       		.byte	0x31
ARM GAS  /tmp/cc65ENol.s 			page 144


 8152 09ab 9F       		.byte	0x9f
 8153 09ac 00000000 		.4byte	0
 8154 09b0 00000000 		.4byte	0
 8155              	.LLST46:
 8156 09b4 00000000 		.4byte	.LVL157
 8157 09b8 56000000 		.4byte	.LVL162
 8158 09bc 0100     		.2byte	0x1
 8159 09be 50       		.byte	0x50
 8160 09bf 56000000 		.4byte	.LVL162
 8161 09c3 9C000000 		.4byte	.LFE129
 8162 09c7 0400     		.2byte	0x4
 8163 09c9 F3       		.byte	0xf3
 8164 09ca 01       		.uleb128 0x1
 8165 09cb 50       		.byte	0x50
 8166 09cc 9F       		.byte	0x9f
 8167 09cd 00000000 		.4byte	0
 8168 09d1 00000000 		.4byte	0
 8169              	.LLST47:
 8170 09d5 00000000 		.4byte	.LVL157
 8171 09d9 14000000 		.4byte	.LVL160
 8172 09dd 0100     		.2byte	0x1
 8173 09df 51       		.byte	0x51
 8174 09e0 14000000 		.4byte	.LVL160
 8175 09e4 9C000000 		.4byte	.LFE129
 8176 09e8 0400     		.2byte	0x4
 8177 09ea F3       		.byte	0xf3
 8178 09eb 01       		.uleb128 0x1
 8179 09ec 51       		.byte	0x51
 8180 09ed 9F       		.byte	0x9f
 8181 09ee 00000000 		.4byte	0
 8182 09f2 00000000 		.4byte	0
 8183              	.LLST48:
 8184 09f6 00000000 		.4byte	.LVL157
 8185 09fa 0A000000 		.4byte	.LVL158
 8186 09fe 0200     		.2byte	0x2
 8187 0a00 30       		.byte	0x30
 8188 0a01 9F       		.byte	0x9f
 8189 0a02 0A000000 		.4byte	.LVL158
 8190 0a06 38000000 		.4byte	.LVL161
 8191 0a0a 0100     		.2byte	0x1
 8192 0a0c 53       		.byte	0x53
 8193 0a0d 00000000 		.4byte	0
 8194 0a11 00000000 		.4byte	0
 8195              	.LLST35:
 8196 0a15 00000000 		.4byte	.LVL117
 8197 0a19 1A000000 		.4byte	.LVL119
 8198 0a1d 0100     		.2byte	0x1
 8199 0a1f 50       		.byte	0x50
 8200 0a20 1A000000 		.4byte	.LVL119
 8201 0a24 9E000000 		.4byte	.LVL148
 8202 0a28 0400     		.2byte	0x4
 8203 0a2a F3       		.byte	0xf3
 8204 0a2b 01       		.uleb128 0x1
 8205 0a2c 50       		.byte	0x50
 8206 0a2d 9F       		.byte	0x9f
 8207 0a2e 9E000000 		.4byte	.LVL148
 8208 0a32 A0000000 		.4byte	.LVL149
ARM GAS  /tmp/cc65ENol.s 			page 145


 8209 0a36 0100     		.2byte	0x1
 8210 0a38 50       		.byte	0x50
 8211 0a39 A0000000 		.4byte	.LVL149
 8212 0a3d EC000000 		.4byte	.LVL153
 8213 0a41 0400     		.2byte	0x4
 8214 0a43 F3       		.byte	0xf3
 8215 0a44 01       		.uleb128 0x1
 8216 0a45 50       		.byte	0x50
 8217 0a46 9F       		.byte	0x9f
 8218 0a47 EC000000 		.4byte	.LVL153
 8219 0a4b F6000000 		.4byte	.LVL155
 8220 0a4f 0100     		.2byte	0x1
 8221 0a51 50       		.byte	0x50
 8222 0a52 F6000000 		.4byte	.LVL155
 8223 0a56 00010000 		.4byte	.LFE127
 8224 0a5a 0400     		.2byte	0x4
 8225 0a5c F3       		.byte	0xf3
 8226 0a5d 01       		.uleb128 0x1
 8227 0a5e 50       		.byte	0x50
 8228 0a5f 9F       		.byte	0x9f
 8229 0a60 00000000 		.4byte	0
 8230 0a64 00000000 		.4byte	0
 8231              	.LLST36:
 8232 0a68 00000000 		.4byte	.LVL117
 8233 0a6c 8A000000 		.4byte	.LVL146
 8234 0a70 0100     		.2byte	0x1
 8235 0a72 52       		.byte	0x52
 8236 0a73 8A000000 		.4byte	.LVL146
 8237 0a77 9E000000 		.4byte	.LVL148
 8238 0a7b 0400     		.2byte	0x4
 8239 0a7d F3       		.byte	0xf3
 8240 0a7e 01       		.uleb128 0x1
 8241 0a7f 52       		.byte	0x52
 8242 0a80 9F       		.byte	0x9f
 8243 0a81 9E000000 		.4byte	.LVL148
 8244 0a85 C6000000 		.4byte	.LVL150
 8245 0a89 0100     		.2byte	0x1
 8246 0a8b 52       		.byte	0x52
 8247 0a8c C6000000 		.4byte	.LVL150
 8248 0a90 E6000000 		.4byte	.LVL152
 8249 0a94 0400     		.2byte	0x4
 8250 0a96 F3       		.byte	0xf3
 8251 0a97 01       		.uleb128 0x1
 8252 0a98 52       		.byte	0x52
 8253 0a99 9F       		.byte	0x9f
 8254 0a9a E6000000 		.4byte	.LVL152
 8255 0a9e 00010000 		.4byte	.LFE127
 8256 0aa2 0100     		.2byte	0x1
 8257 0aa4 52       		.byte	0x52
 8258 0aa5 00000000 		.4byte	0
 8259 0aa9 00000000 		.4byte	0
 8260              	.LLST37:
 8261 0aad 00000000 		.4byte	.LVL117
 8262 0ab1 9C000000 		.4byte	.LVL147
 8263 0ab5 0200     		.2byte	0x2
 8264 0ab7 30       		.byte	0x30
 8265 0ab8 9F       		.byte	0x9f
ARM GAS  /tmp/cc65ENol.s 			page 146


 8266 0ab9 9C000000 		.4byte	.LVL147
 8267 0abd 9E000000 		.4byte	.LVL148
 8268 0ac1 0100     		.2byte	0x1
 8269 0ac3 55       		.byte	0x55
 8270 0ac4 9E000000 		.4byte	.LVL148
 8271 0ac8 C6000000 		.4byte	.LVL150
 8272 0acc 0200     		.2byte	0x2
 8273 0ace 30       		.byte	0x30
 8274 0acf 9F       		.byte	0x9f
 8275 0ad0 C6000000 		.4byte	.LVL150
 8276 0ad4 E4000000 		.4byte	.LVL151
 8277 0ad8 0100     		.2byte	0x1
 8278 0ada 55       		.byte	0x55
 8279 0adb E6000000 		.4byte	.LVL152
 8280 0adf 00010000 		.4byte	.LFE127
 8281 0ae3 0200     		.2byte	0x2
 8282 0ae5 30       		.byte	0x30
 8283 0ae6 9F       		.byte	0x9f
 8284 0ae7 00000000 		.4byte	0
 8285 0aeb 00000000 		.4byte	0
 8286              	.LLST38:
 8287 0aef 14000000 		.4byte	.LVL118
 8288 0af3 1C000000 		.4byte	.LVL120
 8289 0af7 0100     		.2byte	0x1
 8290 0af9 53       		.byte	0x53
 8291 0afa 24000000 		.4byte	.LVL122
 8292 0afe 2A000000 		.4byte	.LVL124
 8293 0b02 0100     		.2byte	0x1
 8294 0b04 53       		.byte	0x53
 8295 0b05 F2000000 		.4byte	.LVL154
 8296 0b09 F6000000 		.4byte	.LVL155
 8297 0b0d 0100     		.2byte	0x1
 8298 0b0f 53       		.byte	0x53
 8299 0b10 00000000 		.4byte	0
 8300 0b14 00000000 		.4byte	0
 8301              	.LLST39:
 8302 0b18 14000000 		.4byte	.LVL118
 8303 0b1c 1A000000 		.4byte	.LVL119
 8304 0b20 0200     		.2byte	0x2
 8305 0b22 30       		.byte	0x30
 8306 0b23 9F       		.byte	0x9f
 8307 0b24 1A000000 		.4byte	.LVL119
 8308 0b28 20000000 		.4byte	.LVL121
 8309 0b2c 0100     		.2byte	0x1
 8310 0b2e 50       		.byte	0x50
 8311 0b2f 24000000 		.4byte	.LVL122
 8312 0b33 28000000 		.4byte	.LVL123
 8313 0b37 0100     		.2byte	0x1
 8314 0b39 50       		.byte	0x50
 8315 0b3a F2000000 		.4byte	.LVL154
 8316 0b3e F6000000 		.4byte	.LVL155
 8317 0b42 0200     		.2byte	0x2
 8318 0b44 30       		.byte	0x30
 8319 0b45 9F       		.byte	0x9f
 8320 0b46 00000000 		.4byte	0
 8321 0b4a 00000000 		.4byte	0
 8322              	.LLST40:
ARM GAS  /tmp/cc65ENol.s 			page 147


 8323 0b4e 2C000000 		.4byte	.LVL125
 8324 0b52 3C000000 		.4byte	.LVL127
 8325 0b56 0100     		.2byte	0x1
 8326 0b58 50       		.byte	0x50
 8327 0b59 44000000 		.4byte	.LVL129
 8328 0b5d 4A000000 		.4byte	.LVL131
 8329 0b61 0100     		.2byte	0x1
 8330 0b63 50       		.byte	0x50
 8331 0b64 00000000 		.4byte	0
 8332 0b68 00000000 		.4byte	0
 8333              	.LLST41:
 8334 0b6c 2C000000 		.4byte	.LVL125
 8335 0b70 3A000000 		.4byte	.LVL126
 8336 0b74 0200     		.2byte	0x2
 8337 0b76 30       		.byte	0x30
 8338 0b77 9F       		.byte	0x9f
 8339 0b78 3A000000 		.4byte	.LVL126
 8340 0b7c 40000000 		.4byte	.LVL128
 8341 0b80 0100     		.2byte	0x1
 8342 0b82 54       		.byte	0x54
 8343 0b83 44000000 		.4byte	.LVL129
 8344 0b87 48000000 		.4byte	.LVL130
 8345 0b8b 0100     		.2byte	0x1
 8346 0b8d 54       		.byte	0x54
 8347 0b8e 00000000 		.4byte	0
 8348 0b92 00000000 		.4byte	0
 8349              	.LLST42:
 8350 0b96 4C000000 		.4byte	.LVL132
 8351 0b9a 5A000000 		.4byte	.LVL134
 8352 0b9e 0100     		.2byte	0x1
 8353 0ba0 55       		.byte	0x55
 8354 0ba1 62000000 		.4byte	.LVL136
 8355 0ba5 68000000 		.4byte	.LVL138
 8356 0ba9 0100     		.2byte	0x1
 8357 0bab 55       		.byte	0x55
 8358 0bac F6000000 		.4byte	.LVL155
 8359 0bb0 00010000 		.4byte	.LFE127
 8360 0bb4 0100     		.2byte	0x1
 8361 0bb6 55       		.byte	0x55
 8362 0bb7 00000000 		.4byte	0
 8363 0bbb 00000000 		.4byte	0
 8364              	.LLST43:
 8365 0bbf 4C000000 		.4byte	.LVL132
 8366 0bc3 58000000 		.4byte	.LVL133
 8367 0bc7 0200     		.2byte	0x2
 8368 0bc9 30       		.byte	0x30
 8369 0bca 9F       		.byte	0x9f
 8370 0bcb 58000000 		.4byte	.LVL133
 8371 0bcf 5E000000 		.4byte	.LVL135
 8372 0bd3 0100     		.2byte	0x1
 8373 0bd5 50       		.byte	0x50
 8374 0bd6 62000000 		.4byte	.LVL136
 8375 0bda 66000000 		.4byte	.LVL137
 8376 0bde 0100     		.2byte	0x1
 8377 0be0 50       		.byte	0x50
 8378 0be1 F6000000 		.4byte	.LVL155
 8379 0be5 00010000 		.4byte	.LFE127
ARM GAS  /tmp/cc65ENol.s 			page 148


 8380 0be9 0200     		.2byte	0x2
 8381 0beb 30       		.byte	0x30
 8382 0bec 9F       		.byte	0x9f
 8383 0bed 00000000 		.4byte	0
 8384 0bf1 00000000 		.4byte	0
 8385              	.LLST44:
 8386 0bf5 6A000000 		.4byte	.LVL139
 8387 0bf9 78000000 		.4byte	.LVL141
 8388 0bfd 0100     		.2byte	0x1
 8389 0bff 50       		.byte	0x50
 8390 0c00 80000000 		.4byte	.LVL143
 8391 0c04 86000000 		.4byte	.LVL145
 8392 0c08 0100     		.2byte	0x1
 8393 0c0a 50       		.byte	0x50
 8394 0c0b 00000000 		.4byte	0
 8395 0c0f 00000000 		.4byte	0
 8396              	.LLST45:
 8397 0c13 6A000000 		.4byte	.LVL139
 8398 0c17 76000000 		.4byte	.LVL140
 8399 0c1b 0200     		.2byte	0x2
 8400 0c1d 30       		.byte	0x30
 8401 0c1e 9F       		.byte	0x9f
 8402 0c1f 76000000 		.4byte	.LVL140
 8403 0c23 7C000000 		.4byte	.LVL142
 8404 0c27 0100     		.2byte	0x1
 8405 0c29 57       		.byte	0x57
 8406 0c2a 80000000 		.4byte	.LVL143
 8407 0c2e 84000000 		.4byte	.LVL144
 8408 0c32 0100     		.2byte	0x1
 8409 0c34 57       		.byte	0x57
 8410 0c35 00000000 		.4byte	0
 8411 0c39 00000000 		.4byte	0
 8412              	.LLST33:
 8413 0c3d 00000000 		.4byte	.LVL113
 8414 0c41 2C000000 		.4byte	.LVL116
 8415 0c45 0100     		.2byte	0x1
 8416 0c47 50       		.byte	0x50
 8417 0c48 2C000000 		.4byte	.LVL116
 8418 0c4c 60000000 		.4byte	.LFE126
 8419 0c50 0400     		.2byte	0x4
 8420 0c52 F3       		.byte	0xf3
 8421 0c53 01       		.uleb128 0x1
 8422 0c54 50       		.byte	0x50
 8423 0c55 9F       		.byte	0x9f
 8424 0c56 00000000 		.4byte	0
 8425 0c5a 00000000 		.4byte	0
 8426              	.LLST34:
 8427 0c5e 00000000 		.4byte	.LVL113
 8428 0c62 0C000000 		.4byte	.LVL114
 8429 0c66 0200     		.2byte	0x2
 8430 0c68 30       		.byte	0x30
 8431 0c69 9F       		.byte	0x9f
 8432 0c6a 0C000000 		.4byte	.LVL114
 8433 0c6e 1E000000 		.4byte	.LVL115
 8434 0c72 0100     		.2byte	0x1
 8435 0c74 53       		.byte	0x53
 8436 0c75 00000000 		.4byte	0
ARM GAS  /tmp/cc65ENol.s 			page 149


 8437 0c79 00000000 		.4byte	0
 8438              	.LLST23:
 8439 0c7d 00000000 		.4byte	.LVL79
 8440 0c81 60000000 		.4byte	.LVL96
 8441 0c85 0100     		.2byte	0x1
 8442 0c87 50       		.byte	0x50
 8443 0c88 60000000 		.4byte	.LVL96
 8444 0c8c AE000000 		.4byte	.LVL107
 8445 0c90 0400     		.2byte	0x4
 8446 0c92 F3       		.byte	0xf3
 8447 0c93 01       		.uleb128 0x1
 8448 0c94 50       		.byte	0x50
 8449 0c95 9F       		.byte	0x9f
 8450 0c96 AE000000 		.4byte	.LVL107
 8451 0c9a BA000000 		.4byte	.LVL109
 8452 0c9e 0100     		.2byte	0x1
 8453 0ca0 50       		.byte	0x50
 8454 0ca1 BA000000 		.4byte	.LVL109
 8455 0ca5 D4000000 		.4byte	.LFE124
 8456 0ca9 0400     		.2byte	0x4
 8457 0cab F3       		.byte	0xf3
 8458 0cac 01       		.uleb128 0x1
 8459 0cad 50       		.byte	0x50
 8460 0cae 9F       		.byte	0x9f
 8461 0caf 00000000 		.4byte	0
 8462 0cb3 00000000 		.4byte	0
 8463              	.LLST24:
 8464 0cb7 00000000 		.4byte	.LVL79
 8465 0cbb 42000000 		.4byte	.LVL88
 8466 0cbf 0100     		.2byte	0x1
 8467 0cc1 51       		.byte	0x51
 8468 0cc2 42000000 		.4byte	.LVL88
 8469 0cc6 AE000000 		.4byte	.LVL107
 8470 0cca 0400     		.2byte	0x4
 8471 0ccc F3       		.byte	0xf3
 8472 0ccd 01       		.uleb128 0x1
 8473 0cce 51       		.byte	0x51
 8474 0ccf 9F       		.byte	0x9f
 8475 0cd0 AE000000 		.4byte	.LVL107
 8476 0cd4 BA000000 		.4byte	.LVL109
 8477 0cd8 0100     		.2byte	0x1
 8478 0cda 51       		.byte	0x51
 8479 0cdb BA000000 		.4byte	.LVL109
 8480 0cdf D4000000 		.4byte	.LFE124
 8481 0ce3 0400     		.2byte	0x4
 8482 0ce5 F3       		.byte	0xf3
 8483 0ce6 01       		.uleb128 0x1
 8484 0ce7 51       		.byte	0x51
 8485 0ce8 9F       		.byte	0x9f
 8486 0ce9 00000000 		.4byte	0
 8487 0ced 00000000 		.4byte	0
 8488              	.LLST25:
 8489 0cf1 00000000 		.4byte	.LVL79
 8490 0cf5 7C000000 		.4byte	.LVL103
 8491 0cf9 0200     		.2byte	0x2
 8492 0cfb 30       		.byte	0x30
 8493 0cfc 9F       		.byte	0x9f
ARM GAS  /tmp/cc65ENol.s 			page 150


 8494 0cfd 7C000000 		.4byte	.LVL103
 8495 0d01 90000000 		.4byte	.LVL105
 8496 0d05 0100     		.2byte	0x1
 8497 0d07 55       		.byte	0x55
 8498 0d08 AE000000 		.4byte	.LVL107
 8499 0d0c B8000000 		.4byte	.LVL108
 8500 0d10 0200     		.2byte	0x2
 8501 0d12 30       		.byte	0x30
 8502 0d13 9F       		.byte	0x9f
 8503 0d14 B8000000 		.4byte	.LVL108
 8504 0d18 BA000000 		.4byte	.LVL109
 8505 0d1c 0100     		.2byte	0x1
 8506 0d1e 55       		.byte	0x55
 8507 0d1f 00000000 		.4byte	0
 8508 0d23 00000000 		.4byte	0
 8509              	.LLST26:
 8510 0d27 00000000 		.4byte	.LVL79
 8511 0d2b A6000000 		.4byte	.LVL106
 8512 0d2f 0200     		.2byte	0x2
 8513 0d31 30       		.byte	0x30
 8514 0d32 9F       		.byte	0x9f
 8515 0d33 A6000000 		.4byte	.LVL106
 8516 0d37 AE000000 		.4byte	.LVL107
 8517 0d3b 0100     		.2byte	0x1
 8518 0d3d 50       		.byte	0x50
 8519 0d3e AE000000 		.4byte	.LVL107
 8520 0d42 CA000000 		.4byte	.LVL111
 8521 0d46 0200     		.2byte	0x2
 8522 0d48 30       		.byte	0x30
 8523 0d49 9F       		.byte	0x9f
 8524 0d4a CA000000 		.4byte	.LVL111
 8525 0d4e D4000000 		.4byte	.LFE124
 8526 0d52 0100     		.2byte	0x1
 8527 0d54 50       		.byte	0x50
 8528 0d55 00000000 		.4byte	0
 8529 0d59 00000000 		.4byte	0
 8530              	.LLST27:
 8531 0d5d 1E000000 		.4byte	.LVL80
 8532 0d61 26000000 		.4byte	.LVL81
 8533 0d65 0200     		.2byte	0x2
 8534 0d67 71       		.byte	0x71
 8535 0d68 03       		.sleb128 3
 8536 0d69 26000000 		.4byte	.LVL81
 8537 0d6d 28000000 		.4byte	.LVL82
 8538 0d71 0100     		.2byte	0x1
 8539 0d73 53       		.byte	0x53
 8540 0d74 30000000 		.4byte	.LVL84
 8541 0d78 36000000 		.4byte	.LVL86
 8542 0d7c 0100     		.2byte	0x1
 8543 0d7e 53       		.byte	0x53
 8544 0d7f 00000000 		.4byte	0
 8545 0d83 00000000 		.4byte	0
 8546              	.LLST28:
 8547 0d87 1E000000 		.4byte	.LVL80
 8548 0d8b 26000000 		.4byte	.LVL81
 8549 0d8f 0200     		.2byte	0x2
 8550 0d91 30       		.byte	0x30
ARM GAS  /tmp/cc65ENol.s 			page 151


 8551 0d92 9F       		.byte	0x9f
 8552 0d93 26000000 		.4byte	.LVL81
 8553 0d97 2C000000 		.4byte	.LVL83
 8554 0d9b 0100     		.2byte	0x1
 8555 0d9d 52       		.byte	0x52
 8556 0d9e 30000000 		.4byte	.LVL84
 8557 0da2 34000000 		.4byte	.LVL85
 8558 0da6 0100     		.2byte	0x1
 8559 0da8 52       		.byte	0x52
 8560 0da9 00000000 		.4byte	0
 8561 0dad 00000000 		.4byte	0
 8562              	.LLST29:
 8563 0db1 3E000000 		.4byte	.LVL87
 8564 0db5 42000000 		.4byte	.LVL88
 8565 0db9 0200     		.2byte	0x2
 8566 0dbb 71       		.byte	0x71
 8567 0dbc 01       		.sleb128 1
 8568 0dbd 42000000 		.4byte	.LVL88
 8569 0dc1 44000000 		.4byte	.LVL89
 8570 0dc5 0500     		.2byte	0x5
 8571 0dc7 F3       		.byte	0xf3
 8572 0dc8 01       		.uleb128 0x1
 8573 0dc9 51       		.byte	0x51
 8574 0dca 23       		.byte	0x23
 8575 0dcb 01       		.uleb128 0x1
 8576 0dcc 44000000 		.4byte	.LVL89
 8577 0dd0 46000000 		.4byte	.LVL90
 8578 0dd4 0100     		.2byte	0x1
 8579 0dd6 54       		.byte	0x54
 8580 0dd7 4E000000 		.4byte	.LVL92
 8581 0ddb 54000000 		.4byte	.LVL94
 8582 0ddf 0100     		.2byte	0x1
 8583 0de1 54       		.byte	0x54
 8584 0de2 00000000 		.4byte	0
 8585 0de6 00000000 		.4byte	0
 8586              	.LLST30:
 8587 0dea 3E000000 		.4byte	.LVL87
 8588 0dee 44000000 		.4byte	.LVL89
 8589 0df2 0200     		.2byte	0x2
 8590 0df4 30       		.byte	0x30
 8591 0df5 9F       		.byte	0x9f
 8592 0df6 44000000 		.4byte	.LVL89
 8593 0dfa 4A000000 		.4byte	.LVL91
 8594 0dfe 0100     		.2byte	0x1
 8595 0e00 51       		.byte	0x51
 8596 0e01 4E000000 		.4byte	.LVL92
 8597 0e05 52000000 		.4byte	.LVL93
 8598 0e09 0100     		.2byte	0x1
 8599 0e0b 51       		.byte	0x51
 8600 0e0c 00000000 		.4byte	0
 8601 0e10 00000000 		.4byte	0
 8602              	.LLST31:
 8603 0e14 5C000000 		.4byte	.LVL95
 8604 0e18 62000000 		.4byte	.LVL97
 8605 0e1c 0500     		.2byte	0x5
 8606 0e1e F3       		.byte	0xf3
 8607 0e1f 01       		.uleb128 0x1
ARM GAS  /tmp/cc65ENol.s 			page 152


 8608 0e20 51       		.byte	0x51
 8609 0e21 23       		.byte	0x23
 8610 0e22 02       		.uleb128 0x2
 8611 0e23 62000000 		.4byte	.LVL97
 8612 0e27 64000000 		.4byte	.LVL98
 8613 0e2b 0100     		.2byte	0x1
 8614 0e2d 55       		.byte	0x55
 8615 0e2e 6C000000 		.4byte	.LVL100
 8616 0e32 72000000 		.4byte	.LVL102
 8617 0e36 0100     		.2byte	0x1
 8618 0e38 55       		.byte	0x55
 8619 0e39 00000000 		.4byte	0
 8620 0e3d 00000000 		.4byte	0
 8621              	.LLST32:
 8622 0e41 5C000000 		.4byte	.LVL95
 8623 0e45 62000000 		.4byte	.LVL97
 8624 0e49 0200     		.2byte	0x2
 8625 0e4b 30       		.byte	0x30
 8626 0e4c 9F       		.byte	0x9f
 8627 0e4d 62000000 		.4byte	.LVL97
 8628 0e51 68000000 		.4byte	.LVL99
 8629 0e55 0100     		.2byte	0x1
 8630 0e57 50       		.byte	0x50
 8631 0e58 6C000000 		.4byte	.LVL100
 8632 0e5c 70000000 		.4byte	.LVL101
 8633 0e60 0100     		.2byte	0x1
 8634 0e62 50       		.byte	0x50
 8635 0e63 00000000 		.4byte	0
 8636 0e67 00000000 		.4byte	0
 8637              	.LLST22:
 8638 0e6b 00000000 		.4byte	.LVL77
 8639 0e6f 04000000 		.4byte	.LVL78
 8640 0e73 0200     		.2byte	0x2
 8641 0e75 30       		.byte	0x30
 8642 0e76 9F       		.byte	0x9f
 8643 0e77 04000000 		.4byte	.LVL78
 8644 0e7b 0C000000 		.4byte	.LFE123
 8645 0e7f 0100     		.2byte	0x1
 8646 0e81 50       		.byte	0x50
 8647 0e82 00000000 		.4byte	0
 8648 0e86 00000000 		.4byte	0
 8649              	.LLST20:
 8650 0e8a 00000000 		.4byte	.LVL73
 8651 0e8e 2A000000 		.4byte	.LVL76
 8652 0e92 0100     		.2byte	0x1
 8653 0e94 50       		.byte	0x50
 8654 0e95 2A000000 		.4byte	.LVL76
 8655 0e99 60000000 		.4byte	.LFE122
 8656 0e9d 0400     		.2byte	0x4
 8657 0e9f F3       		.byte	0xf3
 8658 0ea0 01       		.uleb128 0x1
 8659 0ea1 50       		.byte	0x50
 8660 0ea2 9F       		.byte	0x9f
 8661 0ea3 00000000 		.4byte	0
 8662 0ea7 00000000 		.4byte	0
 8663              	.LLST21:
 8664 0eab 00000000 		.4byte	.LVL73
ARM GAS  /tmp/cc65ENol.s 			page 153


 8665 0eaf 0C000000 		.4byte	.LVL74
 8666 0eb3 0200     		.2byte	0x2
 8667 0eb5 30       		.byte	0x30
 8668 0eb6 9F       		.byte	0x9f
 8669 0eb7 0C000000 		.4byte	.LVL74
 8670 0ebb 1E000000 		.4byte	.LVL75
 8671 0ebf 0100     		.2byte	0x1
 8672 0ec1 53       		.byte	0x53
 8673 0ec2 00000000 		.4byte	0
 8674 0ec6 00000000 		.4byte	0
 8675              	.LLST10:
 8676 0eca 00000000 		.4byte	.LVL36
 8677 0ece 2A000000 		.4byte	.LVL43
 8678 0ed2 0100     		.2byte	0x1
 8679 0ed4 50       		.byte	0x50
 8680 0ed5 2A000000 		.4byte	.LVL43
 8681 0ed9 76000000 		.4byte	.LVL59
 8682 0edd 0400     		.2byte	0x4
 8683 0edf F3       		.byte	0xf3
 8684 0ee0 01       		.uleb128 0x1
 8685 0ee1 50       		.byte	0x50
 8686 0ee2 9F       		.byte	0x9f
 8687 0ee3 76000000 		.4byte	.LVL59
 8688 0ee7 82000000 		.4byte	.LVL60
 8689 0eeb 0100     		.2byte	0x1
 8690 0eed 50       		.byte	0x50
 8691 0eee 82000000 		.4byte	.LVL60
 8692 0ef2 C0000000 		.4byte	.LVL66
 8693 0ef6 0400     		.2byte	0x4
 8694 0ef8 F3       		.byte	0xf3
 8695 0ef9 01       		.uleb128 0x1
 8696 0efa 50       		.byte	0x50
 8697 0efb 9F       		.byte	0x9f
 8698 0efc C0000000 		.4byte	.LVL66
 8699 0f00 CC000000 		.4byte	.LVL67
 8700 0f04 0100     		.2byte	0x1
 8701 0f06 50       		.byte	0x50
 8702 0f07 CC000000 		.4byte	.LVL67
 8703 0f0b E0000000 		.4byte	.LVL70
 8704 0f0f 0400     		.2byte	0x4
 8705 0f11 F3       		.byte	0xf3
 8706 0f12 01       		.uleb128 0x1
 8707 0f13 50       		.byte	0x50
 8708 0f14 9F       		.byte	0x9f
 8709 0f15 E0000000 		.4byte	.LVL70
 8710 0f19 E2000000 		.4byte	.LVL71
 8711 0f1d 0100     		.2byte	0x1
 8712 0f1f 50       		.byte	0x50
 8713 0f20 E2000000 		.4byte	.LVL71
 8714 0f24 E8000000 		.4byte	.LFE120
 8715 0f28 0400     		.2byte	0x4
 8716 0f2a F3       		.byte	0xf3
 8717 0f2b 01       		.uleb128 0x1
 8718 0f2c 50       		.byte	0x50
 8719 0f2d 9F       		.byte	0x9f
 8720 0f2e 00000000 		.4byte	0
 8721 0f32 00000000 		.4byte	0
ARM GAS  /tmp/cc65ENol.s 			page 154


 8722              	.LLST11:
 8723 0f36 00000000 		.4byte	.LVL36
 8724 0f3a 4C000000 		.4byte	.LVL51
 8725 0f3e 0100     		.2byte	0x1
 8726 0f40 51       		.byte	0x51
 8727 0f41 4C000000 		.4byte	.LVL51
 8728 0f45 76000000 		.4byte	.LVL59
 8729 0f49 0400     		.2byte	0x4
 8730 0f4b F3       		.byte	0xf3
 8731 0f4c 01       		.uleb128 0x1
 8732 0f4d 51       		.byte	0x51
 8733 0f4e 9F       		.byte	0x9f
 8734 0f4f 76000000 		.4byte	.LVL59
 8735 0f53 86000000 		.4byte	.LVL61
 8736 0f57 0100     		.2byte	0x1
 8737 0f59 51       		.byte	0x51
 8738 0f5a 86000000 		.4byte	.LVL61
 8739 0f5e C0000000 		.4byte	.LVL66
 8740 0f62 0400     		.2byte	0x4
 8741 0f64 F3       		.byte	0xf3
 8742 0f65 01       		.uleb128 0x1
 8743 0f66 51       		.byte	0x51
 8744 0f67 9F       		.byte	0x9f
 8745 0f68 C0000000 		.4byte	.LVL66
 8746 0f6c CC000000 		.4byte	.LVL67
 8747 0f70 0100     		.2byte	0x1
 8748 0f72 51       		.byte	0x51
 8749 0f73 CC000000 		.4byte	.LVL67
 8750 0f77 E0000000 		.4byte	.LVL70
 8751 0f7b 0400     		.2byte	0x4
 8752 0f7d F3       		.byte	0xf3
 8753 0f7e 01       		.uleb128 0x1
 8754 0f7f 51       		.byte	0x51
 8755 0f80 9F       		.byte	0x9f
 8756 0f81 E0000000 		.4byte	.LVL70
 8757 0f85 E8000000 		.4byte	.LFE120
 8758 0f89 0100     		.2byte	0x1
 8759 0f8b 51       		.byte	0x51
 8760 0f8c 00000000 		.4byte	0
 8761 0f90 00000000 		.4byte	0
 8762              	.LLST12:
 8763 0f94 00000000 		.4byte	.LVL36
 8764 0f98 74000000 		.4byte	.LVL58
 8765 0f9c 0200     		.2byte	0x2
 8766 0f9e 30       		.byte	0x30
 8767 0f9f 9F       		.byte	0x9f
 8768 0fa0 74000000 		.4byte	.LVL58
 8769 0fa4 76000000 		.4byte	.LVL59
 8770 0fa8 0100     		.2byte	0x1
 8771 0faa 54       		.byte	0x54
 8772 0fab 76000000 		.4byte	.LVL59
 8773 0faf 8E000000 		.4byte	.LVL62
 8774 0fb3 0200     		.2byte	0x2
 8775 0fb5 30       		.byte	0x30
 8776 0fb6 9F       		.byte	0x9f
 8777 0fb7 8E000000 		.4byte	.LVL62
 8778 0fbb A2000000 		.4byte	.LVL64
ARM GAS  /tmp/cc65ENol.s 			page 155


 8779 0fbf 0100     		.2byte	0x1
 8780 0fc1 54       		.byte	0x54
 8781 0fc2 C0000000 		.4byte	.LVL66
 8782 0fc6 CC000000 		.4byte	.LVL67
 8783 0fca 0200     		.2byte	0x2
 8784 0fcc 30       		.byte	0x30
 8785 0fcd 9F       		.byte	0x9f
 8786 0fce E0000000 		.4byte	.LVL70
 8787 0fd2 E8000000 		.4byte	.LFE120
 8788 0fd6 0200     		.2byte	0x2
 8789 0fd8 30       		.byte	0x30
 8790 0fd9 9F       		.byte	0x9f
 8791 0fda 00000000 		.4byte	0
 8792 0fde 00000000 		.4byte	0
 8793              	.LLST13:
 8794 0fe2 00000000 		.4byte	.LVL36
 8795 0fe6 B8000000 		.4byte	.LVL65
 8796 0fea 0200     		.2byte	0x2
 8797 0fec 30       		.byte	0x30
 8798 0fed 9F       		.byte	0x9f
 8799 0fee B8000000 		.4byte	.LVL65
 8800 0ff2 C0000000 		.4byte	.LVL66
 8801 0ff6 0100     		.2byte	0x1
 8802 0ff8 50       		.byte	0x50
 8803 0ff9 C0000000 		.4byte	.LVL66
 8804 0ffd DC000000 		.4byte	.LVL69
 8805 1001 0200     		.2byte	0x2
 8806 1003 30       		.byte	0x30
 8807 1004 9F       		.byte	0x9f
 8808 1005 DC000000 		.4byte	.LVL69
 8809 1009 E0000000 		.4byte	.LVL70
 8810 100d 0100     		.2byte	0x1
 8811 100f 50       		.byte	0x50
 8812 1010 E0000000 		.4byte	.LVL70
 8813 1014 E8000000 		.4byte	.LFE120
 8814 1018 0200     		.2byte	0x2
 8815 101a 30       		.byte	0x30
 8816 101b 9F       		.byte	0x9f
 8817 101c 00000000 		.4byte	0
 8818 1020 00000000 		.4byte	0
 8819              	.LLST14:
 8820 1024 14000000 		.4byte	.LVL37
 8821 1028 1C000000 		.4byte	.LVL39
 8822 102c 0100     		.2byte	0x1
 8823 102e 52       		.byte	0x52
 8824 102f 24000000 		.4byte	.LVL41
 8825 1033 2A000000 		.4byte	.LVL43
 8826 1037 0100     		.2byte	0x1
 8827 1039 52       		.byte	0x52
 8828 103a E0000000 		.4byte	.LVL70
 8829 103e E8000000 		.4byte	.LFE120
 8830 1042 0100     		.2byte	0x1
 8831 1044 52       		.byte	0x52
 8832 1045 00000000 		.4byte	0
 8833 1049 00000000 		.4byte	0
 8834              	.LLST15:
 8835 104d 14000000 		.4byte	.LVL37
ARM GAS  /tmp/cc65ENol.s 			page 156


 8836 1051 1A000000 		.4byte	.LVL38
 8837 1055 0200     		.2byte	0x2
 8838 1057 30       		.byte	0x30
 8839 1058 9F       		.byte	0x9f
 8840 1059 1A000000 		.4byte	.LVL38
 8841 105d 20000000 		.4byte	.LVL40
 8842 1061 0100     		.2byte	0x1
 8843 1063 53       		.byte	0x53
 8844 1064 24000000 		.4byte	.LVL41
 8845 1068 28000000 		.4byte	.LVL42
 8846 106c 0100     		.2byte	0x1
 8847 106e 53       		.byte	0x53
 8848 106f E0000000 		.4byte	.LVL70
 8849 1073 E8000000 		.4byte	.LFE120
 8850 1077 0200     		.2byte	0x2
 8851 1079 30       		.byte	0x30
 8852 107a 9F       		.byte	0x9f
 8853 107b 00000000 		.4byte	0
 8854 107f 00000000 		.4byte	0
 8855              	.LLST16:
 8856 1083 2C000000 		.4byte	.LVL44
 8857 1087 3C000000 		.4byte	.LVL46
 8858 108b 0100     		.2byte	0x1
 8859 108d 53       		.byte	0x53
 8860 108e 44000000 		.4byte	.LVL48
 8861 1092 4A000000 		.4byte	.LVL50
 8862 1096 0100     		.2byte	0x1
 8863 1098 53       		.byte	0x53
 8864 1099 00000000 		.4byte	0
 8865 109d 00000000 		.4byte	0
 8866              	.LLST17:
 8867 10a1 2C000000 		.4byte	.LVL44
 8868 10a5 3A000000 		.4byte	.LVL45
 8869 10a9 0200     		.2byte	0x2
 8870 10ab 30       		.byte	0x30
 8871 10ac 9F       		.byte	0x9f
 8872 10ad 3A000000 		.4byte	.LVL45
 8873 10b1 40000000 		.4byte	.LVL47
 8874 10b5 0100     		.2byte	0x1
 8875 10b7 50       		.byte	0x50
 8876 10b8 44000000 		.4byte	.LVL48
 8877 10bc 48000000 		.4byte	.LVL49
 8878 10c0 0100     		.2byte	0x1
 8879 10c2 50       		.byte	0x50
 8880 10c3 00000000 		.4byte	0
 8881 10c7 00000000 		.4byte	0
 8882              	.LLST18:
 8883 10cb 4C000000 		.4byte	.LVL51
 8884 10cf 5C000000 		.4byte	.LVL53
 8885 10d3 0100     		.2byte	0x1
 8886 10d5 51       		.byte	0x51
 8887 10d6 64000000 		.4byte	.LVL55
 8888 10da 6A000000 		.4byte	.LVL57
 8889 10de 0100     		.2byte	0x1
 8890 10e0 51       		.byte	0x51
 8891 10e1 00000000 		.4byte	0
 8892 10e5 00000000 		.4byte	0
ARM GAS  /tmp/cc65ENol.s 			page 157


 8893              	.LLST19:
 8894 10e9 4C000000 		.4byte	.LVL51
 8895 10ed 5A000000 		.4byte	.LVL52
 8896 10f1 0200     		.2byte	0x2
 8897 10f3 30       		.byte	0x30
 8898 10f4 9F       		.byte	0x9f
 8899 10f5 5A000000 		.4byte	.LVL52
 8900 10f9 60000000 		.4byte	.LVL54
 8901 10fd 0100     		.2byte	0x1
 8902 10ff 50       		.byte	0x50
 8903 1100 64000000 		.4byte	.LVL55
 8904 1104 68000000 		.4byte	.LVL56
 8905 1108 0100     		.2byte	0x1
 8906 110a 50       		.byte	0x50
 8907 110b 00000000 		.4byte	0
 8908 110f 00000000 		.4byte	0
 8909              	.LLST8:
 8910 1113 00000000 		.4byte	.LVL30
 8911 1117 11000000 		.4byte	.LVL31-1
 8912 111b 0100     		.2byte	0x1
 8913 111d 50       		.byte	0x50
 8914 111e 11000000 		.4byte	.LVL31-1
 8915 1122 40000000 		.4byte	.LFE118
 8916 1126 0400     		.2byte	0x4
 8917 1128 F3       		.byte	0xf3
 8918 1129 01       		.uleb128 0x1
 8919 112a 50       		.byte	0x50
 8920 112b 9F       		.byte	0x9f
 8921 112c 00000000 		.4byte	0
 8922 1130 00000000 		.4byte	0
 8923              	.LLST9:
 8924 1134 00000000 		.4byte	.LVL30
 8925 1138 28000000 		.4byte	.LVL32
 8926 113c 0200     		.2byte	0x2
 8927 113e 30       		.byte	0x30
 8928 113f 9F       		.byte	0x9f
 8929 1140 28000000 		.4byte	.LVL32
 8930 1144 2A000000 		.4byte	.LVL33
 8931 1148 0200     		.2byte	0x2
 8932 114a 31       		.byte	0x31
 8933 114b 9F       		.byte	0x9f
 8934 114c 2A000000 		.4byte	.LVL33
 8935 1150 32000000 		.4byte	.LVL34
 8936 1154 0100     		.2byte	0x1
 8937 1156 50       		.byte	0x50
 8938 1157 32000000 		.4byte	.LVL34
 8939 115b 40000000 		.4byte	.LFE118
 8940 115f 0200     		.2byte	0x2
 8941 1161 30       		.byte	0x30
 8942 1162 9F       		.byte	0x9f
 8943 1163 00000000 		.4byte	0
 8944 1167 00000000 		.4byte	0
 8945              	.LLST4:
 8946 116b 0C000000 		.4byte	.LVL14
 8947 116f 34000000 		.4byte	.LVL18
 8948 1173 0200     		.2byte	0x2
 8949 1175 30       		.byte	0x30
ARM GAS  /tmp/cc65ENol.s 			page 158


 8950 1176 9F       		.byte	0x9f
 8951 1177 34000000 		.4byte	.LVL18
 8952 117b 3A000000 		.4byte	.LVL20
 8953 117f 0800     		.2byte	0x8
 8954 1181 70       		.byte	0x70
 8955 1182 00       		.sleb128 0
 8956 1183 08       		.byte	0x8
 8957 1184 20       		.byte	0x20
 8958 1185 1A       		.byte	0x1a
 8959 1186 30       		.byte	0x30
 8960 1187 2E       		.byte	0x2e
 8961 1188 9F       		.byte	0x9f
 8962 1189 00000000 		.4byte	0
 8963 118d 00000000 		.4byte	0
 8964              	.LLST5:
 8965 1191 0C000000 		.4byte	.LVL14
 8966 1195 1A000000 		.4byte	.LVL15
 8967 1199 0200     		.2byte	0x2
 8968 119b 30       		.byte	0x30
 8969 119c 9F       		.byte	0x9f
 8970 119d 1A000000 		.4byte	.LVL15
 8971 11a1 1C000000 		.4byte	.LVL16
 8972 11a5 0100     		.2byte	0x1
 8973 11a7 52       		.byte	0x52
 8974 11a8 2E000000 		.4byte	.LVL17
 8975 11ac 36000000 		.4byte	.LVL19
 8976 11b0 0100     		.2byte	0x1
 8977 11b2 52       		.byte	0x52
 8978 11b3 00000000 		.4byte	0
 8979 11b7 00000000 		.4byte	0
 8980              	.LLST2:
 8981 11bb 00000000 		.4byte	.LVL9
 8982 11bf 11000000 		.4byte	.LVL10-1
 8983 11c3 0100     		.2byte	0x1
 8984 11c5 50       		.byte	0x50
 8985 11c6 11000000 		.4byte	.LVL10-1
 8986 11ca 44000000 		.4byte	.LVL13
 8987 11ce 0100     		.2byte	0x1
 8988 11d0 55       		.byte	0x55
 8989 11d1 44000000 		.4byte	.LVL13
 8990 11d5 48000000 		.4byte	.LFE112
 8991 11d9 0400     		.2byte	0x4
 8992 11db F3       		.byte	0xf3
 8993 11dc 01       		.uleb128 0x1
 8994 11dd 50       		.byte	0x50
 8995 11de 9F       		.byte	0x9f
 8996 11df 00000000 		.4byte	0
 8997 11e3 00000000 		.4byte	0
 8998              	.LLST3:
 8999 11e7 00000000 		.4byte	.LVL9
 9000 11eb 3A000000 		.4byte	.LVL11
 9001 11ef 0200     		.2byte	0x2
 9002 11f1 30       		.byte	0x30
 9003 11f2 9F       		.byte	0x9f
 9004 11f3 3A000000 		.4byte	.LVL11
 9005 11f7 3C000000 		.4byte	.LVL12
 9006 11fb 0200     		.2byte	0x2
ARM GAS  /tmp/cc65ENol.s 			page 159


 9007 11fd 31       		.byte	0x31
 9008 11fe 9F       		.byte	0x9f
 9009 11ff 3C000000 		.4byte	.LVL12
 9010 1203 48000000 		.4byte	.LFE112
 9011 1207 0100     		.2byte	0x1
 9012 1209 50       		.byte	0x50
 9013 120a 00000000 		.4byte	0
 9014 120e 00000000 		.4byte	0
 9015              	.LLST6:
 9016 1212 0E000000 		.4byte	.LVL21
 9017 1216 2A000000 		.4byte	.LVL23
 9018 121a 0200     		.2byte	0x2
 9019 121c 30       		.byte	0x30
 9020 121d 9F       		.byte	0x9f
 9021 121e 2A000000 		.4byte	.LVL23
 9022 1222 2C000000 		.4byte	.LVL24
 9023 1226 0100     		.2byte	0x1
 9024 1228 52       		.byte	0x52
 9025 1229 3E000000 		.4byte	.LVL25
 9026 122d 44000000 		.4byte	.LVL26
 9027 1231 0100     		.2byte	0x1
 9028 1233 52       		.byte	0x52
 9029 1234 00000000 		.4byte	0
 9030 1238 00000000 		.4byte	0
 9031              	.LLST7:
 9032 123c 0E000000 		.4byte	.LVL21
 9033 1240 4A000000 		.4byte	.LVL27
 9034 1244 0200     		.2byte	0x2
 9035 1246 30       		.byte	0x30
 9036 1247 9F       		.byte	0x9f
 9037 1248 4A000000 		.4byte	.LVL27
 9038 124c 54000000 		.4byte	.LVL28
 9039 1250 0100     		.2byte	0x1
 9040 1252 50       		.byte	0x50
 9041 1253 54000000 		.4byte	.LVL28
 9042 1257 8C000000 		.4byte	.LFE111
 9043 125b 0200     		.2byte	0x2
 9044 125d 30       		.byte	0x30
 9045 125e 9F       		.byte	0x9f
 9046 125f 00000000 		.4byte	0
 9047 1263 00000000 		.4byte	0
 9048              	.LLST0:
 9049 1267 08000000 		.4byte	.LVL2
 9050 126b 34000000 		.4byte	.LVL6
 9051 126f 0200     		.2byte	0x2
 9052 1271 30       		.byte	0x30
 9053 1272 9F       		.byte	0x9f
 9054 1273 34000000 		.4byte	.LVL6
 9055 1277 38000000 		.4byte	.LVL7
 9056 127b 0100     		.2byte	0x1
 9057 127d 50       		.byte	0x50
 9058 127e 38000000 		.4byte	.LVL7
 9059 1282 3A000000 		.4byte	.LVL8
 9060 1286 0200     		.2byte	0x2
 9061 1288 30       		.byte	0x30
 9062 1289 9F       		.byte	0x9f
 9063 128a 3A000000 		.4byte	.LVL8
ARM GAS  /tmp/cc65ENol.s 			page 160


 9064 128e 44000000 		.4byte	.LFE115
 9065 1292 0100     		.2byte	0x1
 9066 1294 50       		.byte	0x50
 9067 1295 00000000 		.4byte	0
 9068 1299 00000000 		.4byte	0
 9069              	.LLST1:
 9070 129d 08000000 		.4byte	.LVL2
 9071 12a1 16000000 		.4byte	.LVL3
 9072 12a5 0200     		.2byte	0x2
 9073 12a7 30       		.byte	0x30
 9074 12a8 9F       		.byte	0x9f
 9075 12a9 16000000 		.4byte	.LVL3
 9076 12ad 18000000 		.4byte	.LVL4
 9077 12b1 0100     		.2byte	0x1
 9078 12b3 52       		.byte	0x52
 9079 12b4 2A000000 		.4byte	.LVL5
 9080 12b8 38000000 		.4byte	.LVL7
 9081 12bc 0100     		.2byte	0x1
 9082 12be 52       		.byte	0x52
 9083 12bf 38000000 		.4byte	.LVL7
 9084 12c3 44000000 		.4byte	.LFE115
 9085 12c7 0200     		.2byte	0x2
 9086 12c9 30       		.byte	0x30
 9087 12ca 9F       		.byte	0x9f
 9088 12cb 00000000 		.4byte	0
 9089 12cf 00000000 		.4byte	0
 9090              		.section	.debug_aranges,"",%progbits
 9091 0000 CC010000 		.4byte	0x1cc
 9092 0004 0200     		.2byte	0x2
 9093 0006 00000000 		.4byte	.Ldebug_info0
 9094 000a 04       		.byte	0x4
 9095 000b 00       		.byte	0
 9096 000c 0000     		.2byte	0
 9097 000e 0000     		.2byte	0
 9098 0010 00000000 		.4byte	.LFB113
 9099 0014 0C000000 		.4byte	.LFE113-.LFB113
 9100 0018 00000000 		.4byte	.LFB114
 9101 001c 18000000 		.4byte	.LFE114-.LFB114
 9102 0020 00000000 		.4byte	.LFB115
 9103 0024 44000000 		.4byte	.LFE115-.LFB115
 9104 0028 00000000 		.4byte	.LFB112
 9105 002c 48000000 		.4byte	.LFE112-.LFB112
 9106 0030 00000000 		.4byte	.LFB116
 9107 0034 10000000 		.4byte	.LFE116-.LFB116
 9108 0038 00000000 		.4byte	.LFB117
 9109 003c 44000000 		.4byte	.LFE117-.LFB117
 9110 0040 00000000 		.4byte	.LFB111
 9111 0044 8C000000 		.4byte	.LFE111-.LFB111
 9112 0048 00000000 		.4byte	.LFB118
 9113 004c 40000000 		.4byte	.LFE118-.LFB118
 9114 0050 00000000 		.4byte	.LFB119
 9115 0054 30000000 		.4byte	.LFE119-.LFB119
 9116 0058 00000000 		.4byte	.LFB120
 9117 005c E8000000 		.4byte	.LFE120-.LFB120
 9118 0060 00000000 		.4byte	.LFB121
 9119 0064 0C000000 		.4byte	.LFE121-.LFB121
 9120 0068 00000000 		.4byte	.LFB122
ARM GAS  /tmp/cc65ENol.s 			page 161


 9121 006c 60000000 		.4byte	.LFE122-.LFB122
 9122 0070 00000000 		.4byte	.LFB123
 9123 0074 0C000000 		.4byte	.LFE123-.LFB123
 9124 0078 00000000 		.4byte	.LFB124
 9125 007c D4000000 		.4byte	.LFE124-.LFB124
 9126 0080 00000000 		.4byte	.LFB125
 9127 0084 0E000000 		.4byte	.LFE125-.LFB125
 9128 0088 00000000 		.4byte	.LFB126
 9129 008c 60000000 		.4byte	.LFE126-.LFB126
 9130 0090 00000000 		.4byte	.LFB127
 9131 0094 00010000 		.4byte	.LFE127-.LFB127
 9132 0098 00000000 		.4byte	.LFB128
 9133 009c 0E000000 		.4byte	.LFE128-.LFB128
 9134 00a0 00000000 		.4byte	.LFB129
 9135 00a4 9C000000 		.4byte	.LFE129-.LFB129
 9136 00a8 00000000 		.4byte	.LFB130
 9137 00ac 5C000000 		.4byte	.LFE130-.LFB130
 9138 00b0 00000000 		.4byte	.LFB131
 9139 00b4 28000000 		.4byte	.LFE131-.LFB131
 9140 00b8 00000000 		.4byte	.LFB132
 9141 00bc 18000000 		.4byte	.LFE132-.LFB132
 9142 00c0 00000000 		.4byte	.LFB133
 9143 00c4 24000000 		.4byte	.LFE133-.LFB133
 9144 00c8 00000000 		.4byte	.LFB134
 9145 00cc 1C000000 		.4byte	.LFE134-.LFB134
 9146 00d0 00000000 		.4byte	.LFB135
 9147 00d4 0C000000 		.4byte	.LFE135-.LFB135
 9148 00d8 00000000 		.4byte	.LFB136
 9149 00dc 5C000000 		.4byte	.LFE136-.LFB136
 9150 00e0 00000000 		.4byte	.LFB137
 9151 00e4 2C000000 		.4byte	.LFE137-.LFB137
 9152 00e8 00000000 		.4byte	.LFB138
 9153 00ec 10000000 		.4byte	.LFE138-.LFB138
 9154 00f0 00000000 		.4byte	.LFB139
 9155 00f4 2C000000 		.4byte	.LFE139-.LFB139
 9156 00f8 00000000 		.4byte	.LFB140
 9157 00fc 30000000 		.4byte	.LFE140-.LFB140
 9158 0100 00000000 		.4byte	.LFB141
 9159 0104 40000000 		.4byte	.LFE141-.LFB141
 9160 0108 00000000 		.4byte	.LFB142
 9161 010c 30000000 		.4byte	.LFE142-.LFB142
 9162 0110 00000000 		.4byte	.LFB143
 9163 0114 24000000 		.4byte	.LFE143-.LFB143
 9164 0118 00000000 		.4byte	.LFB144
 9165 011c 4C000000 		.4byte	.LFE144-.LFB144
 9166 0120 00000000 		.4byte	.LFB145
 9167 0124 34000000 		.4byte	.LFE145-.LFB145
 9168 0128 00000000 		.4byte	.LFB146
 9169 012c BC000000 		.4byte	.LFE146-.LFB146
 9170 0130 00000000 		.4byte	.LFB147
 9171 0134 0C000000 		.4byte	.LFE147-.LFB147
 9172 0138 00000000 		.4byte	.LFB148
 9173 013c 1C000000 		.4byte	.LFE148-.LFB148
 9174 0140 00000000 		.4byte	.LFB149
 9175 0144 18000000 		.4byte	.LFE149-.LFB149
 9176 0148 00000000 		.4byte	.LFB150
 9177 014c 18000000 		.4byte	.LFE150-.LFB150
ARM GAS  /tmp/cc65ENol.s 			page 162


 9178 0150 00000000 		.4byte	.LFB151
 9179 0154 18000000 		.4byte	.LFE151-.LFB151
 9180 0158 00000000 		.4byte	.LFB152
 9181 015c 18000000 		.4byte	.LFE152-.LFB152
 9182 0160 00000000 		.4byte	.LFB153
 9183 0164 1C000000 		.4byte	.LFE153-.LFB153
 9184 0168 00000000 		.4byte	.LFB154
 9185 016c 1C000000 		.4byte	.LFE154-.LFB154
 9186 0170 00000000 		.4byte	.LFB155
 9187 0174 20000000 		.4byte	.LFE155-.LFB155
 9188 0178 00000000 		.4byte	.LFB156
 9189 017c 20000000 		.4byte	.LFE156-.LFB156
 9190 0180 00000000 		.4byte	.LFB157
 9191 0184 18000000 		.4byte	.LFE157-.LFB157
 9192 0188 00000000 		.4byte	.LFB158
 9193 018c 18000000 		.4byte	.LFE158-.LFB158
 9194 0190 00000000 		.4byte	.LFB159
 9195 0194 18000000 		.4byte	.LFE159-.LFB159
 9196 0198 00000000 		.4byte	.LFB160
 9197 019c 68000000 		.4byte	.LFE160-.LFB160
 9198 01a0 00000000 		.4byte	.LFB161
 9199 01a4 44000000 		.4byte	.LFE161-.LFB161
 9200 01a8 00000000 		.4byte	.LFB162
 9201 01ac 1C000000 		.4byte	.LFE162-.LFB162
 9202 01b0 00000000 		.4byte	.LFB163
 9203 01b4 1C000000 		.4byte	.LFE163-.LFB163
 9204 01b8 00000000 		.4byte	.LFB164
 9205 01bc 2C000000 		.4byte	.LFE164-.LFB164
 9206 01c0 00000000 		.4byte	.LFB165
 9207 01c4 1C000000 		.4byte	.LFE165-.LFB165
 9208 01c8 00000000 		.4byte	0
 9209 01cc 00000000 		.4byte	0
 9210              		.section	.debug_ranges,"",%progbits
 9211              	.Ldebug_ranges0:
 9212 0000 14000000 		.4byte	.LBB86
 9213 0004 2A000000 		.4byte	.LBE86
 9214 0008 E0000000 		.4byte	.LBB99
 9215 000c E8000000 		.4byte	.LBE99
 9216 0010 00000000 		.4byte	0
 9217 0014 00000000 		.4byte	0
 9218 0018 2E000000 		.4byte	.LBB89
 9219 001c 30000000 		.4byte	.LBE89
 9220 0020 34000000 		.4byte	.LBB92
 9221 0024 4A000000 		.4byte	.LBE92
 9222 0028 00000000 		.4byte	0
 9223 002c 00000000 		.4byte	0
 9224 0030 4E000000 		.4byte	.LBB93
 9225 0034 50000000 		.4byte	.LBE93
 9226 0038 54000000 		.4byte	.LBB96
 9227 003c 6A000000 		.4byte	.LBE96
 9228 0040 00000000 		.4byte	0
 9229 0044 00000000 		.4byte	0
 9230 0048 28000000 		.4byte	.LBB100
 9231 004c 2E000000 		.4byte	.LBE100
 9232 0050 3A000000 		.4byte	.LBB113
 9233 0054 3E000000 		.4byte	.LBE113
 9234 0058 4A000000 		.4byte	.LBB116
ARM GAS  /tmp/cc65ENol.s 			page 163


 9235 005c 4E000000 		.4byte	.LBE116
 9236 0060 00000000 		.4byte	0
 9237 0064 00000000 		.4byte	0
 9238 0068 2E000000 		.4byte	.LBB104
 9239 006c 30000000 		.4byte	.LBE104
 9240 0070 32000000 		.4byte	.LBB112
 9241 0074 3A000000 		.4byte	.LBE112
 9242 0078 46000000 		.4byte	.LBB115
 9243 007c 4A000000 		.4byte	.LBE115
 9244 0080 00000000 		.4byte	0
 9245 0084 00000000 		.4byte	0
 9246 0088 30000000 		.4byte	.LBB108
 9247 008c 32000000 		.4byte	.LBE108
 9248 0090 3E000000 		.4byte	.LBB114
 9249 0094 46000000 		.4byte	.LBE114
 9250 0098 4E000000 		.4byte	.LBB117
 9251 009c 52000000 		.4byte	.LBE117
 9252 00a0 00000000 		.4byte	0
 9253 00a4 00000000 		.4byte	0
 9254 00a8 38000000 		.4byte	.LBB120
 9255 00ac 3A000000 		.4byte	.LBE120
 9256 00b0 3E000000 		.4byte	.LBB123
 9257 00b4 54000000 		.4byte	.LBE123
 9258 00b8 00000000 		.4byte	0
 9259 00bc 00000000 		.4byte	0
 9260 00c0 56000000 		.4byte	.LBB124
 9261 00c4 58000000 		.4byte	.LBE124
 9262 00c8 5C000000 		.4byte	.LBB127
 9263 00cc 72000000 		.4byte	.LBE127
 9264 00d0 00000000 		.4byte	0
 9265 00d4 00000000 		.4byte	0
 9266 00d8 28000000 		.4byte	.LBB130
 9267 00dc 2C000000 		.4byte	.LBE130
 9268 00e0 2E000000 		.4byte	.LBB139
 9269 00e4 30000000 		.4byte	.LBE139
 9270 00e8 32000000 		.4byte	.LBB144
 9271 00ec 36000000 		.4byte	.LBE144
 9272 00f0 46000000 		.4byte	.LBB147
 9273 00f4 4A000000 		.4byte	.LBE147
 9274 00f8 00000000 		.4byte	0
 9275 00fc 00000000 		.4byte	0
 9276 0100 2C000000 		.4byte	.LBB135
 9277 0104 2E000000 		.4byte	.LBE135
 9278 0108 36000000 		.4byte	.LBB145
 9279 010c 3E000000 		.4byte	.LBE145
 9280 0110 4A000000 		.4byte	.LBB148
 9281 0114 4E000000 		.4byte	.LBE148
 9282 0118 00000000 		.4byte	0
 9283 011c 00000000 		.4byte	0
 9284 0120 30000000 		.4byte	.LBB140
 9285 0124 32000000 		.4byte	.LBE140
 9286 0128 3E000000 		.4byte	.LBB146
 9287 012c 46000000 		.4byte	.LBE146
 9288 0130 4E000000 		.4byte	.LBB149
 9289 0134 52000000 		.4byte	.LBE149
 9290 0138 00000000 		.4byte	0
 9291 013c 00000000 		.4byte	0
ARM GAS  /tmp/cc65ENol.s 			page 164


 9292 0140 14000000 		.4byte	.LBB150
 9293 0144 2A000000 		.4byte	.LBE150
 9294 0148 F2000000 		.4byte	.LBB166
 9295 014c F6000000 		.4byte	.LBE166
 9296 0150 00000000 		.4byte	0
 9297 0154 00000000 		.4byte	0
 9298 0158 2E000000 		.4byte	.LBB153
 9299 015c 30000000 		.4byte	.LBE153
 9300 0160 34000000 		.4byte	.LBB156
 9301 0164 4A000000 		.4byte	.LBE156
 9302 0168 00000000 		.4byte	0
 9303 016c 00000000 		.4byte	0
 9304 0170 4E000000 		.4byte	.LBB157
 9305 0174 50000000 		.4byte	.LBE157
 9306 0178 54000000 		.4byte	.LBB161
 9307 017c 68000000 		.4byte	.LBE161
 9308 0180 F6000000 		.4byte	.LBB167
 9309 0184 00010000 		.4byte	.LBE167
 9310 0188 00000000 		.4byte	0
 9311 018c 00000000 		.4byte	0
 9312 0190 6A000000 		.4byte	.LBB162
 9313 0194 6C000000 		.4byte	.LBE162
 9314 0198 70000000 		.4byte	.LBB165
 9315 019c 86000000 		.4byte	.LBE165
 9316 01a0 00000000 		.4byte	0
 9317 01a4 00000000 		.4byte	0
 9318 01a8 4E000000 		.4byte	.LBB168
 9319 01ac 50000000 		.4byte	.LBE168
 9320 01b0 5A000000 		.4byte	.LBB188
 9321 01b4 5E000000 		.4byte	.LBE188
 9322 01b8 6A000000 		.4byte	.LBB192
 9323 01bc 6E000000 		.4byte	.LBE192
 9324 01c0 7A000000 		.4byte	.LBB196
 9325 01c4 7E000000 		.4byte	.LBE196
 9326 01c8 00000000 		.4byte	0
 9327 01cc 00000000 		.4byte	0
 9328 01d0 50000000 		.4byte	.LBB173
 9329 01d4 52000000 		.4byte	.LBE173
 9330 01d8 5E000000 		.4byte	.LBB189
 9331 01dc 62000000 		.4byte	.LBE189
 9332 01e0 6E000000 		.4byte	.LBB193
 9333 01e4 72000000 		.4byte	.LBE193
 9334 01e8 7E000000 		.4byte	.LBB197
 9335 01ec 82000000 		.4byte	.LBE197
 9336 01f0 00000000 		.4byte	0
 9337 01f4 00000000 		.4byte	0
 9338 01f8 52000000 		.4byte	.LBB178
 9339 01fc 56000000 		.4byte	.LBE178
 9340 0200 62000000 		.4byte	.LBB190
 9341 0204 66000000 		.4byte	.LBE190
 9342 0208 72000000 		.4byte	.LBB194
 9343 020c 76000000 		.4byte	.LBE194
 9344 0210 82000000 		.4byte	.LBB198
 9345 0214 86000000 		.4byte	.LBE198
 9346 0218 00000000 		.4byte	0
 9347 021c 00000000 		.4byte	0
 9348 0220 56000000 		.4byte	.LBB183
ARM GAS  /tmp/cc65ENol.s 			page 165


 9349 0224 5A000000 		.4byte	.LBE183
 9350 0228 66000000 		.4byte	.LBB191
 9351 022c 6A000000 		.4byte	.LBE191
 9352 0230 76000000 		.4byte	.LBB195
 9353 0234 7A000000 		.4byte	.LBE195
 9354 0238 86000000 		.4byte	.LBB199
 9355 023c 8A000000 		.4byte	.LBE199
 9356 0240 00000000 		.4byte	0
 9357 0244 00000000 		.4byte	0
 9358 0248 54000000 		.4byte	.LBB204
 9359 024c 56000000 		.4byte	.LBE204
 9360 0250 5A000000 		.4byte	.LBB213
 9361 0254 64000000 		.4byte	.LBE213
 9362 0258 70000000 		.4byte	.LBB223
 9363 025c 74000000 		.4byte	.LBE223
 9364 0260 00000000 		.4byte	0
 9365 0264 00000000 		.4byte	0
 9366 0268 56000000 		.4byte	.LBB208
 9367 026c 5A000000 		.4byte	.LBE208
 9368 0270 64000000 		.4byte	.LBB214
 9369 0274 68000000 		.4byte	.LBE214
 9370 0278 74000000 		.4byte	.LBB224
 9371 027c 78000000 		.4byte	.LBE224
 9372 0280 7A000000 		.4byte	.LBB229
 9373 0284 7E000000 		.4byte	.LBE229
 9374 0288 00000000 		.4byte	0
 9375 028c 00000000 		.4byte	0
 9376 0290 68000000 		.4byte	.LBB215
 9377 0294 6C000000 		.4byte	.LBE215
 9378 0298 7E000000 		.4byte	.LBB230
 9379 029c 86000000 		.4byte	.LBE230
 9380 02a0 96000000 		.4byte	.LBB233
 9381 02a4 9A000000 		.4byte	.LBE233
 9382 02a8 00000000 		.4byte	0
 9383 02ac 00000000 		.4byte	0
 9384 02b0 6C000000 		.4byte	.LBB219
 9385 02b4 70000000 		.4byte	.LBE219
 9386 02b8 86000000 		.4byte	.LBB231
 9387 02bc 8E000000 		.4byte	.LBE231
 9388 02c0 9A000000 		.4byte	.LBB234
 9389 02c4 9E000000 		.4byte	.LBE234
 9390 02c8 00000000 		.4byte	0
 9391 02cc 00000000 		.4byte	0
 9392 02d0 78000000 		.4byte	.LBB225
 9393 02d4 7A000000 		.4byte	.LBE225
 9394 02d8 8E000000 		.4byte	.LBB232
 9395 02dc 96000000 		.4byte	.LBE232
 9396 02e0 9E000000 		.4byte	.LBB235
 9397 02e4 A2000000 		.4byte	.LBE235
 9398 02e8 00000000 		.4byte	0
 9399 02ec 00000000 		.4byte	0
 9400 02f0 00000000 		.4byte	.LFB113
 9401 02f4 0C000000 		.4byte	.LFE113
 9402 02f8 00000000 		.4byte	.LFB114
 9403 02fc 18000000 		.4byte	.LFE114
 9404 0300 00000000 		.4byte	.LFB115
 9405 0304 44000000 		.4byte	.LFE115
ARM GAS  /tmp/cc65ENol.s 			page 166


 9406 0308 00000000 		.4byte	.LFB112
 9407 030c 48000000 		.4byte	.LFE112
 9408 0310 00000000 		.4byte	.LFB116
 9409 0314 10000000 		.4byte	.LFE116
 9410 0318 00000000 		.4byte	.LFB117
 9411 031c 44000000 		.4byte	.LFE117
 9412 0320 00000000 		.4byte	.LFB111
 9413 0324 8C000000 		.4byte	.LFE111
 9414 0328 00000000 		.4byte	.LFB118
 9415 032c 40000000 		.4byte	.LFE118
 9416 0330 00000000 		.4byte	.LFB119
 9417 0334 30000000 		.4byte	.LFE119
 9418 0338 00000000 		.4byte	.LFB120
 9419 033c E8000000 		.4byte	.LFE120
 9420 0340 00000000 		.4byte	.LFB121
 9421 0344 0C000000 		.4byte	.LFE121
 9422 0348 00000000 		.4byte	.LFB122
 9423 034c 60000000 		.4byte	.LFE122
 9424 0350 00000000 		.4byte	.LFB123
 9425 0354 0C000000 		.4byte	.LFE123
 9426 0358 00000000 		.4byte	.LFB124
 9427 035c D4000000 		.4byte	.LFE124
 9428 0360 00000000 		.4byte	.LFB125
 9429 0364 0E000000 		.4byte	.LFE125
 9430 0368 00000000 		.4byte	.LFB126
 9431 036c 60000000 		.4byte	.LFE126
 9432 0370 00000000 		.4byte	.LFB127
 9433 0374 00010000 		.4byte	.LFE127
 9434 0378 00000000 		.4byte	.LFB128
 9435 037c 0E000000 		.4byte	.LFE128
 9436 0380 00000000 		.4byte	.LFB129
 9437 0384 9C000000 		.4byte	.LFE129
 9438 0388 00000000 		.4byte	.LFB130
 9439 038c 5C000000 		.4byte	.LFE130
 9440 0390 00000000 		.4byte	.LFB131
 9441 0394 28000000 		.4byte	.LFE131
 9442 0398 00000000 		.4byte	.LFB132
 9443 039c 18000000 		.4byte	.LFE132
 9444 03a0 00000000 		.4byte	.LFB133
 9445 03a4 24000000 		.4byte	.LFE133
 9446 03a8 00000000 		.4byte	.LFB134
 9447 03ac 1C000000 		.4byte	.LFE134
 9448 03b0 00000000 		.4byte	.LFB135
 9449 03b4 0C000000 		.4byte	.LFE135
 9450 03b8 00000000 		.4byte	.LFB136
 9451 03bc 5C000000 		.4byte	.LFE136
 9452 03c0 00000000 		.4byte	.LFB137
 9453 03c4 2C000000 		.4byte	.LFE137
 9454 03c8 00000000 		.4byte	.LFB138
 9455 03cc 10000000 		.4byte	.LFE138
 9456 03d0 00000000 		.4byte	.LFB139
 9457 03d4 2C000000 		.4byte	.LFE139
 9458 03d8 00000000 		.4byte	.LFB140
 9459 03dc 30000000 		.4byte	.LFE140
 9460 03e0 00000000 		.4byte	.LFB141
 9461 03e4 40000000 		.4byte	.LFE141
 9462 03e8 00000000 		.4byte	.LFB142
ARM GAS  /tmp/cc65ENol.s 			page 167


 9463 03ec 30000000 		.4byte	.LFE142
 9464 03f0 00000000 		.4byte	.LFB143
 9465 03f4 24000000 		.4byte	.LFE143
 9466 03f8 00000000 		.4byte	.LFB144
 9467 03fc 4C000000 		.4byte	.LFE144
 9468 0400 00000000 		.4byte	.LFB145
 9469 0404 34000000 		.4byte	.LFE145
 9470 0408 00000000 		.4byte	.LFB146
 9471 040c BC000000 		.4byte	.LFE146
 9472 0410 00000000 		.4byte	.LFB147
 9473 0414 0C000000 		.4byte	.LFE147
 9474 0418 00000000 		.4byte	.LFB148
 9475 041c 1C000000 		.4byte	.LFE148
 9476 0420 00000000 		.4byte	.LFB149
 9477 0424 18000000 		.4byte	.LFE149
 9478 0428 00000000 		.4byte	.LFB150
 9479 042c 18000000 		.4byte	.LFE150
 9480 0430 00000000 		.4byte	.LFB151
 9481 0434 18000000 		.4byte	.LFE151
 9482 0438 00000000 		.4byte	.LFB152
 9483 043c 18000000 		.4byte	.LFE152
 9484 0440 00000000 		.4byte	.LFB153
 9485 0444 1C000000 		.4byte	.LFE153
 9486 0448 00000000 		.4byte	.LFB154
 9487 044c 1C000000 		.4byte	.LFE154
 9488 0450 00000000 		.4byte	.LFB155
 9489 0454 20000000 		.4byte	.LFE155
 9490 0458 00000000 		.4byte	.LFB156
 9491 045c 20000000 		.4byte	.LFE156
 9492 0460 00000000 		.4byte	.LFB157
 9493 0464 18000000 		.4byte	.LFE157
 9494 0468 00000000 		.4byte	.LFB158
 9495 046c 18000000 		.4byte	.LFE158
 9496 0470 00000000 		.4byte	.LFB159
 9497 0474 18000000 		.4byte	.LFE159
 9498 0478 00000000 		.4byte	.LFB160
 9499 047c 68000000 		.4byte	.LFE160
 9500 0480 00000000 		.4byte	.LFB161
 9501 0484 44000000 		.4byte	.LFE161
 9502 0488 00000000 		.4byte	.LFB162
 9503 048c 1C000000 		.4byte	.LFE162
 9504 0490 00000000 		.4byte	.LFB163
 9505 0494 1C000000 		.4byte	.LFE163
 9506 0498 00000000 		.4byte	.LFB164
 9507 049c 2C000000 		.4byte	.LFE164
 9508 04a0 00000000 		.4byte	.LFB165
 9509 04a4 1C000000 		.4byte	.LFE165
 9510 04a8 00000000 		.4byte	0
 9511 04ac 00000000 		.4byte	0
 9512              		.section	.debug_line,"",%progbits
 9513              	.Ldebug_line0:
 9514 0000 ED090000 		.section	.debug_str,"MS",%progbits,1
 9514      02006501 
 9514      00000201 
 9514      FB0E0D00 
 9514      01010101 
 9515              	.LASF26:
ARM GAS  /tmp/cc65ENol.s 			page 168


 9516 0000 43414C49 		.ascii	"CALIBR\000"
 9516      425200
 9517              	.LASF92:
 9518 0007 4E657753 		.ascii	"NewState\000"
 9518      74617465 
 9518      00
 9519              	.LASF87:
 9520 0010 5254435F 		.ascii	"RTC_ClearFlag\000"
 9520      436C6561 
 9520      72466C61 
 9520      6700
 9521              	.LASF159:
 9522 001e 5254435F 		.ascii	"RTC_AlarmSubSecondMask\000"
 9522      416C6172 
 9522      6D537562 
 9522      5365636F 
 9522      6E644D61 
 9523              	.LASF136:
 9524 0035 5254435F 		.ascii	"RTC_CoarseCalibCmd\000"
 9524      436F6172 
 9524      73654361 
 9524      6C696243 
 9524      6D6400
 9525              	.LASF16:
 9526 0048 466C6167 		.ascii	"FlagStatus\000"
 9526      53746174 
 9526      757300
 9527              	.LASF145:
 9528 0053 5254435F 		.ascii	"RTC_DayLightSaving\000"
 9528      4461794C 
 9528      69676874 
 9528      53617669 
 9528      6E6700
 9529              	.LASF164:
 9530 0066 5254435F 		.ascii	"RTC_AlarmStruct\000"
 9530      416C6172 
 9530      6D537472 
 9530      75637400 
 9531              	.LASF4:
 9532 0076 5F5F7569 		.ascii	"__uint8_t\000"
 9532      6E74385F 
 9532      7400
 9533              	.LASF157:
 9534 0080 5254435F 		.ascii	"RTC_AlarmSubSecondConfig\000"
 9534      416C6172 
 9534      6D537562 
 9534      5365636F 
 9534      6E64436F 
 9535              	.LASF41:
 9536 0099 424B5033 		.ascii	"BKP3R\000"
 9536      5200
 9537              	.LASF186:
 9538 009f 5254435F 		.ascii	"RTC_Init\000"
 9538      496E6974 
 9538      00
 9539              	.LASF144:
 9540 00a8 5254435F 		.ascii	"RTC_DayLightSavingConfig\000"
ARM GAS  /tmp/cc65ENol.s 			page 169


 9540      4461794C 
 9540      69676874 
 9540      53617669 
 9540      6E67436F 
 9541              	.LASF18:
 9542 00c1 44495341 		.ascii	"DISABLE\000"
 9542      424C4500 
 9543              	.LASF53:
 9544 00c9 424B5031 		.ascii	"BKP15R\000"
 9544      355200
 9545              	.LASF10:
 9546 00d0 6C6F6E67 		.ascii	"long long unsigned int\000"
 9546      206C6F6E 
 9546      6720756E 
 9546      7369676E 
 9546      65642069 
 9547              	.LASF143:
 9548 00e7 5254435F 		.ascii	"RTC_GetStoreOperation\000"
 9548      47657453 
 9548      746F7265 
 9548      4F706572 
 9548      6174696F 
 9549              	.LASF175:
 9550 00fd 5254435F 		.ascii	"RTC_SetTime\000"
 9550      53657454 
 9550      696D6500 
 9551              	.LASF77:
 9552 0109 5254435F 		.ascii	"RTC_AlarmTypeDef\000"
 9552      416C6172 
 9552      6D547970 
 9552      65446566 
 9552      00
 9553              	.LASF191:
 9554 011a 49544D5F 		.ascii	"ITM_RxBuffer\000"
 9554      52784275 
 9554      66666572 
 9554      00
 9555              	.LASF58:
 9556 0127 5254435F 		.ascii	"RTC_TypeDef\000"
 9556      54797065 
 9556      44656600 
 9557              	.LASF126:
 9558 0133 5254435F 		.ascii	"RTC_TimeStampCmd\000"
 9558      54696D65 
 9558      5374616D 
 9558      70436D64 
 9558      00
 9559              	.LASF116:
 9560 0144 5254435F 		.ascii	"RTC_TamperCmd\000"
 9560      54616D70 
 9560      6572436D 
 9560      6400
 9561              	.LASF9:
 9562 0152 6C6F6E67 		.ascii	"long long int\000"
 9562      206C6F6E 
 9562      6720696E 
 9562      7400
ARM GAS  /tmp/cc65ENol.s 			page 170


 9563              	.LASF0:
 9564 0160 7369676E 		.ascii	"signed char\000"
 9564      65642063 
 9564      68617200 
 9565              	.LASF193:
 9566 016c 5254435F 		.ascii	"RTC_EnterInitMode\000"
 9566      456E7465 
 9566      72496E69 
 9566      744D6F64 
 9566      6500
 9567              	.LASF149:
 9568 017e 77757477 		.ascii	"wutwfstatus\000"
 9568      66737461 
 9568      74757300 
 9569              	.LASF147:
 9570 018a 5254435F 		.ascii	"RTC_WakeUpCmd\000"
 9570      57616B65 
 9570      5570436D 
 9570      6400
 9571              	.LASF32:
 9572 0198 54535353 		.ascii	"TSSSR\000"
 9572      5200
 9573              	.LASF83:
 9574 019e 746D7072 		.ascii	"tmpreg\000"
 9574      656700
 9575              	.LASF133:
 9576 01a5 5254435F 		.ascii	"RTC_CalibOutputConfig\000"
 9576      43616C69 
 9576      624F7574 
 9576      70757443 
 9576      6F6E6669 
 9577              	.LASF130:
 9578 01bb 5254435F 		.ascii	"RTC_SmoothCalibPlusPulses\000"
 9578      536D6F6F 
 9578      74684361 
 9578      6C696250 
 9578      6C757350 
 9579              	.LASF6:
 9580 01d5 6C6F6E67 		.ascii	"long int\000"
 9580      20696E74 
 9580      00
 9581              	.LASF88:
 9582 01de 5254435F 		.ascii	"RTC_FLAG\000"
 9582      464C4147 
 9582      00
 9583              	.LASF63:
 9584 01e7 5254435F 		.ascii	"RTC_Hours\000"
 9584      486F7572 
 9584      7300
 9585              	.LASF185:
 9586 01f1 5254435F 		.ascii	"RTC_InitStruct\000"
 9586      496E6974 
 9586      53747275 
 9586      637400
 9587              	.LASF42:
 9588 0200 424B5034 		.ascii	"BKP4R\000"
 9588      5200
ARM GAS  /tmp/cc65ENol.s 			page 171


 9589              	.LASF36:
 9590 0206 414C524D 		.ascii	"ALRMBSSR\000"
 9590      42535352 
 9590      00
 9591              	.LASF169:
 9592 020f 5254435F 		.ascii	"RTC_DateStructInit\000"
 9592      44617465 
 9592      53747275 
 9592      6374496E 
 9592      697400
 9593              	.LASF124:
 9594 0222 746D7074 		.ascii	"tmptime\000"
 9594      696D6500 
 9595              	.LASF54:
 9596 022a 424B5031 		.ascii	"BKP16R\000"
 9596      365200
 9597              	.LASF19:
 9598 0231 454E4142 		.ascii	"ENABLE\000"
 9598      4C4500
 9599              	.LASF170:
 9600 0238 5254435F 		.ascii	"RTC_SetDate\000"
 9600      53657444 
 9600      61746500 
 9601              	.LASF156:
 9602 0244 5254435F 		.ascii	"RTC_Alarm\000"
 9602      416C6172 
 9602      6D00
 9603              	.LASF184:
 9604 024e 5254435F 		.ascii	"RTC_StructInit\000"
 9604      53747275 
 9604      6374496E 
 9604      697400
 9605              	.LASF90:
 9606 025d 5254435F 		.ascii	"RTC_GetFlagStatus\000"
 9606      47657446 
 9606      6C616753 
 9606      74617475 
 9606      7300
 9607              	.LASF173:
 9608 026f 5254435F 		.ascii	"RTC_TimeStruct\000"
 9608      54696D65 
 9608      53747275 
 9608      637400
 9609              	.LASF101:
 9610 027e 5254435F 		.ascii	"RTC_TimeStampPin\000"
 9610      54696D65 
 9610      5374616D 
 9610      7050696E 
 9610      00
 9611              	.LASF93:
 9612 028f 5254435F 		.ascii	"RTC_SynchroShiftConfig\000"
 9612      53796E63 
 9612      68726F53 
 9612      68696674 
 9612      436F6E66 
 9613              	.LASF7:
 9614 02a6 5F5F7569 		.ascii	"__uint32_t\000"
ARM GAS  /tmp/cc65ENol.s 			page 172


 9614      6E743332 
 9614      5F7400
 9615              	.LASF103:
 9616 02b1 5254435F 		.ascii	"RTC_TamperPin\000"
 9616      54616D70 
 9616      65725069 
 9616      6E00
 9617              	.LASF23:
 9618 02bf 4572726F 		.ascii	"ErrorStatus\000"
 9618      72537461 
 9618      74757300 
 9619              	.LASF89:
 9620 02cb 5254435F 		.ascii	"RTC_GetITStatus\000"
 9620      47657449 
 9620      54537461 
 9620      74757300 
 9621              	.LASF114:
 9622 02db 5254435F 		.ascii	"RTC_TamperFilterConfig\000"
 9622      54616D70 
 9622      65724669 
 9622      6C746572 
 9622      436F6E66 
 9623              	.LASF84:
 9624 02f2 62697473 		.ascii	"bitstatus\000"
 9624      74617475 
 9624      7300
 9625              	.LASF129:
 9626 02fc 5254435F 		.ascii	"RTC_SmoothCalibPeriod\000"
 9626      536D6F6F 
 9626      74684361 
 9626      6C696250 
 9626      6572696F 
 9627              	.LASF131:
 9628 0312 5254435F 		.ascii	"RTC_SmouthCalibMinusPulsesValue\000"
 9628      536D6F75 
 9628      74684361 
 9628      6C69624D 
 9628      696E7573 
 9629              	.LASF17:
 9630 0332 49545374 		.ascii	"ITStatus\000"
 9630      61747573 
 9630      00
 9631              	.LASF35:
 9632 033b 414C524D 		.ascii	"ALRMASSR\000"
 9632      41535352 
 9632      00
 9633              	.LASF158:
 9634 0344 5254435F 		.ascii	"RTC_AlarmSubSecondValue\000"
 9634      416C6172 
 9634      6D537562 
 9634      5365636F 
 9634      6E645661 
 9635              	.LASF91:
 9636 035c 5254435F 		.ascii	"RTC_ITConfig\000"
 9636      4954436F 
 9636      6E666967 
 9636      00
ARM GAS  /tmp/cc65ENol.s 			page 173


 9637              	.LASF15:
 9638 0369 52455345 		.ascii	"RESET\000"
 9638      5400
 9639              	.LASF31:
 9640 036f 54534452 		.ascii	"TSDR\000"
 9640      00
 9641              	.LASF24:
 9642 0374 50524552 		.ascii	"PRER\000"
 9642      00
 9643              	.LASF120:
 9644 0379 5254435F 		.ascii	"RTC_GetTimeStamp\000"
 9644      47657454 
 9644      696D6553 
 9644      74616D70 
 9644      00
 9645              	.LASF43:
 9646 038a 424B5035 		.ascii	"BKP5R\000"
 9646      5200
 9647              	.LASF179:
 9648 0390 73796E63 		.ascii	"synchrocounter\000"
 9648      68726F63 
 9648      6F756E74 
 9648      657200
 9649              	.LASF104:
 9650 039f 5254435F 		.ascii	"RTC_ReadBackupRegister\000"
 9650      52656164 
 9650      4261636B 
 9650      75705265 
 9650      67697374 
 9651              	.LASF192:
 9652 03b6 5254435F 		.ascii	"RTC_ExitInitMode\000"
 9652      45786974 
 9652      496E6974 
 9652      4D6F6465 
 9652      00
 9653              	.LASF55:
 9654 03c7 424B5031 		.ascii	"BKP17R\000"
 9654      375200
 9655              	.LASF8:
 9656 03ce 6C6F6E67 		.ascii	"long unsigned int\000"
 9656      20756E73 
 9656      69676E65 
 9656      6420696E 
 9656      7400
 9657              	.LASF68:
 9658 03e0 5254435F 		.ascii	"RTC_WeekDay\000"
 9658      5765656B 
 9658      44617900 
 9659              	.LASF95:
 9660 03ec 5254435F 		.ascii	"RTC_ShiftSubFS\000"
 9660      53686966 
 9660      74537562 
 9660      465300
 9661              	.LASF182:
 9662 03fb 696E6974 		.ascii	"initstatus\000"
 9662      73746174 
 9662      757300
ARM GAS  /tmp/cc65ENol.s 			page 174


 9663              	.LASF181:
 9664 0406 696E6974 		.ascii	"initcounter\000"
 9664      636F756E 
 9664      74657200 
 9665              	.LASF148:
 9666 0412 77757463 		.ascii	"wutcounter\000"
 9666      6F756E74 
 9666      657200
 9667              	.LASF146:
 9668 041d 5254435F 		.ascii	"RTC_StoreOperation\000"
 9668      53746F72 
 9668      654F7065 
 9668      72617469 
 9668      6F6E00
 9669              	.LASF65:
 9670 0430 5254435F 		.ascii	"RTC_Seconds\000"
 9670      5365636F 
 9670      6E647300 
 9671              	.LASF132:
 9672 043c 72656361 		.ascii	"recalpfcount\000"
 9672      6C706663 
 9672      6F756E74 
 9672      00
 9673              	.LASF190:
 9674 0449 2F686F6D 		.ascii	"/home/renan/BLDC/bldc-bootloader\000"
 9674      652F7265 
 9674      6E616E2F 
 9674      424C4443 
 9674      2F626C64 
 9675              	.LASF34:
 9676 046a 54414643 		.ascii	"TAFCR\000"
 9676      5200
 9677              	.LASF117:
 9678 0470 5254435F 		.ascii	"RTC_Tamper\000"
 9678      54616D70 
 9678      657200
 9679              	.LASF140:
 9680 047b 5254435F 		.ascii	"RTC_Output\000"
 9680      4F757470 
 9680      757400
 9681              	.LASF122:
 9682 0486 5254435F 		.ascii	"RTC_StampTimeStruct\000"
 9682      5374616D 
 9682      7054696D 
 9682      65537472 
 9682      75637400 
 9683              	.LASF48:
 9684 049a 424B5031 		.ascii	"BKP10R\000"
 9684      305200
 9685              	.LASF30:
 9686 04a1 54535452 		.ascii	"TSTR\000"
 9686      00
 9687              	.LASF139:
 9688 04a6 5254435F 		.ascii	"RTC_OutputConfig\000"
 9688      4F757470 
 9688      7574436F 
 9688      6E666967 
ARM GAS  /tmp/cc65ENol.s 			page 175


 9688      00
 9689              	.LASF150:
 9690 04b7 5254435F 		.ascii	"RTC_GetWakeUpCounter\000"
 9690      47657457 
 9690      616B6555 
 9690      70436F75 
 9690      6E746572 
 9691              	.LASF189:
 9692 04cc 43686962 		.ascii	"ChibiOS_2.6.6/ext/stdperiph_stm32f4/src/stm32f4xx_r"
 9692      694F535F 
 9692      322E362E 
 9692      362F6578 
 9692      742F7374 
 9693 04ff 74632E63 		.ascii	"tc.c\000"
 9693      00
 9694              	.LASF70:
 9695 0504 5254435F 		.ascii	"RTC_Date\000"
 9695      44617465 
 9695      00
 9696              	.LASF44:
 9697 050d 424B5036 		.ascii	"BKP6R\000"
 9697      5200
 9698              	.LASF60:
 9699 0513 5254435F 		.ascii	"RTC_AsynchPrediv\000"
 9699      4173796E 
 9699      63685072 
 9699      65646976 
 9699      00
 9700              	.LASF176:
 9701 0524 5254435F 		.ascii	"RTC_BypassShadowCmd\000"
 9701      42797061 
 9701      73735368 
 9701      61646F77 
 9701      436D6400 
 9702              	.LASF56:
 9703 0538 424B5031 		.ascii	"BKP18R\000"
 9703      385200
 9704              	.LASF174:
 9705 053f 5254435F 		.ascii	"RTC_TimeStructInit\000"
 9705      54696D65 
 9705      53747275 
 9705      6374496E 
 9705      697400
 9706              	.LASF168:
 9707 0552 5254435F 		.ascii	"RTC_DateStruct\000"
 9707      44617465 
 9707      53747275 
 9707      637400
 9708              	.LASF188:
 9709 0561 474E5520 		.ascii	"GNU C99 7.3.1 20180622 (release) [ARM/embedded-7-br"
 9709      43393920 
 9709      372E332E 
 9709      31203230 
 9709      31383036 
 9710 0594 616E6368 		.ascii	"anch revision 261907] -mcpu=cortex-m4 -mfloat-abi=h"
 9710      20726576 
 9710      6973696F 
ARM GAS  /tmp/cc65ENol.s 			page 176


 9710      6E203236 
 9710      31393037 
 9711 05c7 61726420 		.ascii	"ard -mfpu=fpv4-sp-d16 -mno-thumb-interwork -mthumb "
 9711      2D6D6670 
 9711      753D6670 
 9711      76342D73 
 9711      702D6431 
 9712 05fa 2D676764 		.ascii	"-ggdb -O2 -std=gnu99 -fomit-frame-pointer -falign-f"
 9712      62202D4F 
 9712      32202D73 
 9712      74643D67 
 9712      6E753939 
 9713 062d 756E6374 		.ascii	"unctions=16 -ffunction-sections -fdata-sections -fn"
 9713      696F6E73 
 9713      3D313620 
 9713      2D666675 
 9713      6E637469 
 9714 0660 6F2D636F 		.ascii	"o-common -fsingle-precision-constant\000"
 9714      6D6D6F6E 
 9714      202D6673 
 9714      696E676C 
 9714      652D7072 
 9715              	.LASF134:
 9716 0685 5254435F 		.ascii	"RTC_CalibOutput\000"
 9716      43616C69 
 9716      624F7574 
 9716      70757400 
 9717              	.LASF153:
 9718 0695 5254435F 		.ascii	"RTC_WakeUpClockConfig\000"
 9718      57616B65 
 9718      5570436C 
 9718      6F636B43 
 9718      6F6E6669 
 9719              	.LASF33:
 9720 06ab 43414C52 		.ascii	"CALR\000"
 9720      00
 9721              	.LASF21:
 9722 06b0 4552524F 		.ascii	"ERROR\000"
 9722      5200
 9723              	.LASF125:
 9724 06b6 746D7064 		.ascii	"tmpdate\000"
 9724      61746500 
 9725              	.LASF142:
 9726 06be 5254435F 		.ascii	"RTC_GetTimeStampSubSecond\000"
 9726      47657454 
 9726      696D6553 
 9726      74616D70 
 9726      53756253 
 9727              	.LASF59:
 9728 06d8 5254435F 		.ascii	"RTC_HourFormat\000"
 9728      486F7572 
 9728      466F726D 
 9728      617400
 9729              	.LASF119:
 9730 06e7 5254435F 		.ascii	"RTC_TamperTrigger\000"
 9730      54616D70 
 9730      65725472 
ARM GAS  /tmp/cc65ENol.s 			page 177


 9730      69676765 
 9730      7200
 9731              	.LASF20:
 9732 06f9 46756E63 		.ascii	"FunctionalState\000"
 9732      74696F6E 
 9732      616C5374 
 9732      61746500 
 9733              	.LASF109:
 9734 0709 5254435F 		.ascii	"RTC_TimeStampOnTamperDetectionCmd\000"
 9734      54696D65 
 9734      5374616D 
 9734      704F6E54 
 9734      616D7065 
 9735              	.LASF49:
 9736 072b 424B5031 		.ascii	"BKP11R\000"
 9736      315200
 9737              	.LASF152:
 9738 0732 5254435F 		.ascii	"RTC_WakeUpCounter\000"
 9738      57616B65 
 9738      5570436F 
 9738      756E7465 
 9738      7200
 9739              	.LASF67:
 9740 0744 5254435F 		.ascii	"RTC_TimeTypeDef\000"
 9740      54696D65 
 9740      54797065 
 9740      44656600 
 9741              	.LASF155:
 9742 0754 5254435F 		.ascii	"RTC_GetAlarmSubSecond\000"
 9742      47657441 
 9742      6C61726D 
 9742      53756253 
 9742      65636F6E 
 9743              	.LASF27:
 9744 076a 414C524D 		.ascii	"ALRMAR\000"
 9744      415200
 9745              	.LASF72:
 9746 0771 5254435F 		.ascii	"RTC_DateTypeDef\000"
 9746      44617465 
 9746      54797065 
 9746      44656600 
 9747              	.LASF45:
 9748 0781 424B5037 		.ascii	"BKP7R\000"
 9748      5200
 9749              	.LASF166:
 9750 0787 5254435F 		.ascii	"RTC_SetAlarm\000"
 9750      53657441 
 9750      6C61726D 
 9750      00
 9751              	.LASF74:
 9752 0794 5254435F 		.ascii	"RTC_AlarmMask\000"
 9752      416C6172 
 9752      6D4D6173 
 9752      6B00
 9753              	.LASF57:
 9754 07a2 424B5031 		.ascii	"BKP19R\000"
 9754      395200
ARM GAS  /tmp/cc65ENol.s 			page 178


 9755              	.LASF118:
 9756 07a9 5254435F 		.ascii	"RTC_TamperTriggerConfig\000"
 9756      54616D70 
 9756      65725472 
 9756      69676765 
 9756      72436F6E 
 9757              	.LASF160:
 9758 07c1 5254435F 		.ascii	"RTC_AlarmCmd\000"
 9758      416C6172 
 9758      6D436D64 
 9758      00
 9759              	.LASF154:
 9760 07ce 5254435F 		.ascii	"RTC_WakeUpClock\000"
 9760      57616B65 
 9760      5570436C 
 9760      6F636B00 
 9761              	.LASF177:
 9762 07de 5254435F 		.ascii	"RTC_RefClockCmd\000"
 9762      52656643 
 9762      6C6F636B 
 9762      436D6400 
 9763              	.LASF172:
 9764 07ee 5254435F 		.ascii	"RTC_GetTime\000"
 9764      47657454 
 9764      696D6500 
 9765              	.LASF138:
 9766 07fa 5254435F 		.ascii	"RTC_CalibSign\000"
 9766      43616C69 
 9766      62536967 
 9766      6E00
 9767              	.LASF13:
 9768 0808 696E7433 		.ascii	"int32_t\000"
 9768      325F7400 
 9769              	.LASF1:
 9770 0810 756E7369 		.ascii	"unsigned char\000"
 9770      676E6564 
 9770      20636861 
 9770      7200
 9771              	.LASF141:
 9772 081e 5254435F 		.ascii	"RTC_OutputPolarity\000"
 9772      4F757470 
 9772      7574506F 
 9772      6C617269 
 9772      747900
 9773              	.LASF113:
 9774 0831 5254435F 		.ascii	"RTC_TamperSamplingFreq\000"
 9774      54616D70 
 9774      65725361 
 9774      6D706C69 
 9774      6E674672 
 9775              	.LASF123:
 9776 0848 5254435F 		.ascii	"RTC_StampDateStruct\000"
 9776      5374616D 
 9776      70446174 
 9776      65537472 
 9776      75637400 
 9777              	.LASF106:
ARM GAS  /tmp/cc65ENol.s 			page 179


 9778 085c 5254435F 		.ascii	"RTC_WriteBackupRegister\000"
 9778      57726974 
 9778      65426163 
 9778      6B757052 
 9778      65676973 
 9779              	.LASF187:
 9780 0874 5254435F 		.ascii	"RTC_DeInit\000"
 9780      4465496E 
 9780      697400
 9781              	.LASF2:
 9782 087f 73686F72 		.ascii	"short int\000"
 9782      7420696E 
 9782      7400
 9783              	.LASF110:
 9784 0889 5254435F 		.ascii	"RTC_TamperPinsPrechargeDuration\000"
 9784      54616D70 
 9784      65725069 
 9784      6E735072 
 9784      65636861 
 9785              	.LASF38:
 9786 08a9 424B5030 		.ascii	"BKP0R\000"
 9786      5200
 9787              	.LASF81:
 9788 08af 62636468 		.ascii	"bcdhigh\000"
 9788      69676800 
 9789              	.LASF50:
 9790 08b7 424B5031 		.ascii	"BKP12R\000"
 9790      325200
 9791              	.LASF64:
 9792 08be 5254435F 		.ascii	"RTC_Minutes\000"
 9792      4D696E75 
 9792      74657300 
 9793              	.LASF28:
 9794 08ca 414C524D 		.ascii	"ALRMBR\000"
 9794      425200
 9795              	.LASF178:
 9796 08d1 5254435F 		.ascii	"RTC_WaitForSynchro\000"
 9796      57616974 
 9796      466F7253 
 9796      796E6368 
 9796      726F00
 9797              	.LASF14:
 9798 08e4 75696E74 		.ascii	"uint32_t\000"
 9798      33325F74 
 9798      00
 9799              	.LASF105:
 9800 08ed 5254435F 		.ascii	"RTC_BKP_DR\000"
 9800      424B505F 
 9800      445200
 9801              	.LASF102:
 9802 08f8 5254435F 		.ascii	"RTC_TamperPinSelection\000"
 9802      54616D70 
 9802      65725069 
 9802      6E53656C 
 9802      65637469 
 9803              	.LASF25:
 9804 090f 57555452 		.ascii	"WUTR\000"
ARM GAS  /tmp/cc65ENol.s 			page 180


 9804      00
 9805              	.LASF86:
 9806 0914 5254435F 		.ascii	"RTC_ClearITPendingBit\000"
 9806      436C6561 
 9806      72495450 
 9806      656E6469 
 9806      6E674269 
 9807              	.LASF115:
 9808 092a 5254435F 		.ascii	"RTC_TamperFilter\000"
 9808      54616D70 
 9808      65724669 
 9808      6C746572 
 9808      00
 9809              	.LASF167:
 9810 093b 5254435F 		.ascii	"RTC_GetDate\000"
 9810      47657444 
 9810      61746500 
 9811              	.LASF165:
 9812 0947 5254435F 		.ascii	"RTC_AlarmStructInit\000"
 9812      416C6172 
 9812      6D537472 
 9812      75637449 
 9812      6E697400 
 9813              	.LASF11:
 9814 095b 756E7369 		.ascii	"unsigned int\000"
 9814      676E6564 
 9814      20696E74 
 9814      00
 9815              	.LASF121:
 9816 0968 5254435F 		.ascii	"RTC_Format\000"
 9816      466F726D 
 9816      617400
 9817              	.LASF111:
 9818 0973 5254435F 		.ascii	"RTC_TamperPrechargeDuration\000"
 9818      54616D70 
 9818      65725072 
 9818      65636861 
 9818      72676544 
 9819              	.LASF94:
 9820 098f 5254435F 		.ascii	"RTC_ShiftAdd1S\000"
 9820      53686966 
 9820      74416464 
 9820      315300
 9821              	.LASF161:
 9822 099e 616C6172 		.ascii	"alarmcounter\000"
 9822      6D636F75 
 9822      6E746572 
 9822      00
 9823              	.LASF5:
 9824 09ab 5F5F696E 		.ascii	"__int32_t\000"
 9824      7433325F 
 9824      7400
 9825              	.LASF66:
 9826 09b5 5254435F 		.ascii	"RTC_H12\000"
 9826      48313200 
 9827              	.LASF73:
 9828 09bd 5254435F 		.ascii	"RTC_AlarmTime\000"
ARM GAS  /tmp/cc65ENol.s 			page 181


 9828      416C6172 
 9828      6D54696D 
 9828      6500
 9829              	.LASF39:
 9830 09cb 424B5031 		.ascii	"BKP1R\000"
 9830      5200
 9831              	.LASF46:
 9832 09d1 424B5038 		.ascii	"BKP8R\000"
 9832      5200
 9833              	.LASF51:
 9834 09d7 424B5031 		.ascii	"BKP13R\000"
 9834      335200
 9835              	.LASF3:
 9836 09de 73686F72 		.ascii	"short unsigned int\000"
 9836      7420756E 
 9836      7369676E 
 9836      65642069 
 9836      6E7400
 9837              	.LASF127:
 9838 09f1 5254435F 		.ascii	"RTC_TimeStampEdge\000"
 9838      54696D65 
 9838      5374616D 
 9838      70456467 
 9838      6500
 9839              	.LASF98:
 9840 0a03 5254435F 		.ascii	"RTC_OutputTypeConfig\000"
 9840      4F757470 
 9840      75745479 
 9840      7065436F 
 9840      6E666967 
 9841              	.LASF61:
 9842 0a18 5254435F 		.ascii	"RTC_SynchPrediv\000"
 9842      53796E63 
 9842      68507265 
 9842      64697600 
 9843              	.LASF75:
 9844 0a28 5254435F 		.ascii	"RTC_AlarmDateWeekDaySel\000"
 9844      416C6172 
 9844      6D446174 
 9844      65576565 
 9844      6B446179 
 9845              	.LASF69:
 9846 0a40 5254435F 		.ascii	"RTC_Month\000"
 9846      4D6F6E74 
 9846      6800
 9847              	.LASF37:
 9848 0a4a 52455345 		.ascii	"RESERVED7\000"
 9848      52564544 
 9848      3700
 9849              	.LASF76:
 9850 0a54 5254435F 		.ascii	"RTC_AlarmDateWeekDay\000"
 9850      416C6172 
 9850      6D446174 
 9850      65576565 
 9850      6B446179 
 9851              	.LASF47:
 9852 0a69 424B5039 		.ascii	"BKP9R\000"
ARM GAS  /tmp/cc65ENol.s 			page 182


 9852      5200
 9853              	.LASF29:
 9854 0a6f 53484946 		.ascii	"SHIFTR\000"
 9854      545200
 9855              	.LASF183:
 9856 0a76 5254435F 		.ascii	"RTC_WriteProtectionCmd\000"
 9856      57726974 
 9856      6550726F 
 9856      74656374 
 9856      696F6E43 
 9857              	.LASF137:
 9858 0a8d 5254435F 		.ascii	"RTC_CoarseCalibConfig\000"
 9858      436F6172 
 9858      73654361 
 9858      6C696243 
 9858      6F6E6669 
 9859              	.LASF96:
 9860 0aa3 73746174 		.ascii	"status\000"
 9860      757300
 9861              	.LASF71:
 9862 0aaa 5254435F 		.ascii	"RTC_Year\000"
 9862      59656172 
 9862      00
 9863              	.LASF79:
 9864 0ab3 5254435F 		.ascii	"RTC_ByteToBcd2\000"
 9864      42797465 
 9864      546F4263 
 9864      643200
 9865              	.LASF163:
 9866 0ac2 5254435F 		.ascii	"RTC_GetAlarm\000"
 9866      47657441 
 9866      6C61726D 
 9866      00
 9867              	.LASF80:
 9868 0acf 56616C75 		.ascii	"Value\000"
 9868      6500
 9869              	.LASF12:
 9870 0ad5 75696E74 		.ascii	"uint8_t\000"
 9870      385F7400 
 9871              	.LASF107:
 9872 0add 44617461 		.ascii	"Data\000"
 9872      00
 9873              	.LASF22:
 9874 0ae2 53554343 		.ascii	"SUCCESS\000"
 9874      45535300 
 9875              	.LASF78:
 9876 0aea 5254435F 		.ascii	"RTC_Bcd2ToByte\000"
 9876      42636432 
 9876      546F4279 
 9876      746500
 9877              	.LASF135:
 9878 0af9 5254435F 		.ascii	"RTC_CalibOutputCmd\000"
 9878      43616C69 
 9878      624F7574 
 9878      70757443 
 9878      6D6400
 9879              	.LASF99:
ARM GAS  /tmp/cc65ENol.s 			page 183


 9880 0b0c 5254435F 		.ascii	"RTC_OutputType\000"
 9880      4F757470 
 9880      75745479 
 9880      706500
 9881              	.LASF180:
 9882 0b1b 73796E63 		.ascii	"synchrostatus\000"
 9882      68726F73 
 9882      74617475 
 9882      7300
 9883              	.LASF151:
 9884 0b29 5254435F 		.ascii	"RTC_SetWakeUpCounter\000"
 9884      53657457 
 9884      616B6555 
 9884      70436F75 
 9884      6E746572 
 9885              	.LASF62:
 9886 0b3e 5254435F 		.ascii	"RTC_InitTypeDef\000"
 9886      496E6974 
 9886      54797065 
 9886      44656600 
 9887              	.LASF162:
 9888 0b4e 616C6172 		.ascii	"alarmstatus\000"
 9888      6D737461 
 9888      74757300 
 9889              	.LASF40:
 9890 0b5a 424B5032 		.ascii	"BKP2R\000"
 9890      5200
 9891              	.LASF100:
 9892 0b60 5254435F 		.ascii	"RTC_TimeStampPinSelection\000"
 9892      54696D65 
 9892      5374616D 
 9892      7050696E 
 9892      53656C65 
 9893              	.LASF171:
 9894 0b7a 5254435F 		.ascii	"RTC_GetSubSecond\000"
 9894      47657453 
 9894      75625365 
 9894      636F6E64 
 9894      00
 9895              	.LASF52:
 9896 0b8b 424B5031 		.ascii	"BKP14R\000"
 9896      345200
 9897              	.LASF82:
 9898 0b92 5254435F 		.ascii	"RTC_IT\000"
 9898      495400
 9899              	.LASF97:
 9900 0b99 73687066 		.ascii	"shpfcount\000"
 9900      636F756E 
 9900      7400
 9901              	.LASF108:
 9902 0ba3 5254435F 		.ascii	"RTC_TamperPullUpCmd\000"
 9902      54616D70 
 9902      65725075 
 9902      6C6C5570 
 9902      436D6400 
 9903              	.LASF85:
 9904 0bb7 656E6162 		.ascii	"enablestatus\000"
ARM GAS  /tmp/cc65ENol.s 			page 184


 9904      6C657374 
 9904      61747573 
 9904      00
 9905              	.LASF112:
 9906 0bc4 5254435F 		.ascii	"RTC_TamperSamplingFreqConfig\000"
 9906      54616D70 
 9906      65725361 
 9906      6D706C69 
 9906      6E674672 
 9907              	.LASF128:
 9908 0be1 5254435F 		.ascii	"RTC_SmoothCalibConfig\000"
 9908      536D6F6F 
 9908      74684361 
 9908      6C696243 
 9908      6F6E6669 
 9909              		.ident	"GCC: (GNU Tools for Arm Embedded Processors 7-2018-q3-update) 7.3.1 20180622 (release) [AR
ARM GAS  /tmp/cc65ENol.s 			page 185


DEFINED SYMBOLS
                            *ABS*:0000000000000000 stm32f4xx_rtc.c
     /tmp/cc65ENol.s:18     .text.RTC_StructInit:0000000000000000 $t
     /tmp/cc65ENol.s:26     .text.RTC_StructInit:0000000000000000 RTC_StructInit
     /tmp/cc65ENol.s:46     .text.RTC_WriteProtectionCmd:0000000000000000 $t
     /tmp/cc65ENol.s:54     .text.RTC_WriteProtectionCmd:0000000000000000 RTC_WriteProtectionCmd
     /tmp/cc65ENol.s:84     .text.RTC_WriteProtectionCmd:0000000000000014 $d
     /tmp/cc65ENol.s:89     .text.RTC_EnterInitMode:0000000000000000 $t
     /tmp/cc65ENol.s:97     .text.RTC_EnterInitMode:0000000000000000 RTC_EnterInitMode
     /tmp/cc65ENol.s:172    .text.RTC_EnterInitMode:0000000000000040 $d
     /tmp/cc65ENol.s:177    .text.RTC_Init:0000000000000000 $t
     /tmp/cc65ENol.s:185    .text.RTC_Init:0000000000000000 RTC_Init
     /tmp/cc65ENol.s:253    .text.RTC_Init:0000000000000044 $d
     /tmp/cc65ENol.s:258    .text.RTC_ExitInitMode:0000000000000000 $t
     /tmp/cc65ENol.s:266    .text.RTC_ExitInitMode:0000000000000000 RTC_ExitInitMode
     /tmp/cc65ENol.s:283    .text.RTC_ExitInitMode:000000000000000c $d
     /tmp/cc65ENol.s:288    .text.RTC_WaitForSynchro:0000000000000000 $t
     /tmp/cc65ENol.s:296    .text.RTC_WaitForSynchro:0000000000000000 RTC_WaitForSynchro
     /tmp/cc65ENol.s:367    .text.RTC_WaitForSynchro:0000000000000040 $d
     /tmp/cc65ENol.s:372    .text.RTC_DeInit:0000000000000000 $t
     /tmp/cc65ENol.s:380    .text.RTC_DeInit:0000000000000000 RTC_DeInit
     /tmp/cc65ENol.s:511    .text.RTC_DeInit:0000000000000084 $d
     /tmp/cc65ENol.s:517    .text.RTC_RefClockCmd:0000000000000000 $t
     /tmp/cc65ENol.s:525    .text.RTC_RefClockCmd:0000000000000000 RTC_RefClockCmd
     /tmp/cc65ENol.s:590    .text.RTC_RefClockCmd:000000000000003c $d
     /tmp/cc65ENol.s:595    .text.RTC_BypassShadowCmd:0000000000000000 $t
     /tmp/cc65ENol.s:603    .text.RTC_BypassShadowCmd:0000000000000000 RTC_BypassShadowCmd
     /tmp/cc65ENol.s:646    .text.RTC_BypassShadowCmd:000000000000002c $d
     /tmp/cc65ENol.s:651    .text.RTC_SetTime:0000000000000000 $t
     /tmp/cc65ENol.s:659    .text.RTC_SetTime:0000000000000000 RTC_SetTime
     /tmp/cc65ENol.s:915    .text.RTC_SetTime:00000000000000e4 $d
     /tmp/cc65ENol.s:922    .text.RTC_TimeStructInit:0000000000000000 $t
     /tmp/cc65ENol.s:930    .text.RTC_TimeStructInit:0000000000000000 RTC_TimeStructInit
     /tmp/cc65ENol.s:953    .text.RTC_GetTime:0000000000000000 $t
     /tmp/cc65ENol.s:961    .text.RTC_GetTime:0000000000000000 RTC_GetTime
     /tmp/cc65ENol.s:1072   .text.RTC_GetTime:000000000000005c $d
     /tmp/cc65ENol.s:1077   .text.RTC_GetSubSecond:0000000000000000 $t
     /tmp/cc65ENol.s:1085   .text.RTC_GetSubSecond:0000000000000000 RTC_GetSubSecond
     /tmp/cc65ENol.s:1104   .text.RTC_GetSubSecond:0000000000000008 $d
     /tmp/cc65ENol.s:1109   .text.RTC_SetDate:0000000000000000 $t
     /tmp/cc65ENol.s:1117   .text.RTC_SetDate:0000000000000000 RTC_SetDate
     /tmp/cc65ENol.s:1340   .text.RTC_SetDate:00000000000000d0 $d
     /tmp/cc65ENol.s:1345   .text.RTC_DateStructInit:0000000000000000 $t
     /tmp/cc65ENol.s:1353   .text.RTC_DateStructInit:0000000000000000 RTC_DateStructInit
     /tmp/cc65ENol.s:1378   .text.RTC_GetDate:0000000000000000 $t
     /tmp/cc65ENol.s:1386   .text.RTC_GetDate:0000000000000000 RTC_GetDate
     /tmp/cc65ENol.s:1504   .text.RTC_GetDate:000000000000005c $d
     /tmp/cc65ENol.s:1509   .text.RTC_SetAlarm:0000000000000000 $t
     /tmp/cc65ENol.s:1517   .text.RTC_SetAlarm:0000000000000000 RTC_SetAlarm
     /tmp/cc65ENol.s:1803   .text.RTC_SetAlarm:00000000000000fc $d
     /tmp/cc65ENol.s:1810   .text.RTC_AlarmStructInit:0000000000000000 $t
     /tmp/cc65ENol.s:1818   .text.RTC_AlarmStructInit:0000000000000000 RTC_AlarmStructInit
     /tmp/cc65ENol.s:1841   .text.RTC_GetAlarm:0000000000000000 $t
     /tmp/cc65ENol.s:1849   .text.RTC_GetAlarm:0000000000000000 RTC_GetAlarm
     /tmp/cc65ENol.s:2013   .text.RTC_GetAlarm:0000000000000098 $d
     /tmp/cc65ENol.s:2018   .text.RTC_AlarmCmd:0000000000000000 $t
     /tmp/cc65ENol.s:2026   .text.RTC_AlarmCmd:0000000000000000 RTC_AlarmCmd
ARM GAS  /tmp/cc65ENol.s 			page 186


     /tmp/cc65ENol.s:2128   .text.RTC_AlarmCmd:0000000000000058 $d
     /tmp/cc65ENol.s:2133   .text.RTC_AlarmSubSecondConfig:0000000000000000 $t
     /tmp/cc65ENol.s:2141   .text.RTC_AlarmSubSecondConfig:0000000000000000 RTC_AlarmSubSecondConfig
     /tmp/cc65ENol.s:2187   .text.RTC_AlarmSubSecondConfig:0000000000000024 $d
     /tmp/cc65ENol.s:2192   .text.RTC_GetAlarmSubSecond:0000000000000000 $t
     /tmp/cc65ENol.s:2200   .text.RTC_GetAlarmSubSecond:0000000000000000 RTC_GetAlarmSubSecond
     /tmp/cc65ENol.s:2225   .text.RTC_GetAlarmSubSecond:0000000000000014 $d
     /tmp/cc65ENol.s:2230   .text.RTC_WakeUpClockConfig:0000000000000000 $t
     /tmp/cc65ENol.s:2238   .text.RTC_WakeUpClockConfig:0000000000000000 RTC_WakeUpClockConfig
     /tmp/cc65ENol.s:2274   .text.RTC_WakeUpClockConfig:0000000000000020 $d
     /tmp/cc65ENol.s:2279   .text.RTC_SetWakeUpCounter:0000000000000000 $t
     /tmp/cc65ENol.s:2287   .text.RTC_SetWakeUpCounter:0000000000000000 RTC_SetWakeUpCounter
     /tmp/cc65ENol.s:2324   .text.RTC_SetWakeUpCounter:0000000000000018 $d
     /tmp/cc65ENol.s:2329   .text.RTC_GetWakeUpCounter:0000000000000000 $t
     /tmp/cc65ENol.s:2337   .text.RTC_GetWakeUpCounter:0000000000000000 RTC_GetWakeUpCounter
     /tmp/cc65ENol.s:2353   .text.RTC_GetWakeUpCounter:0000000000000008 $d
     /tmp/cc65ENol.s:2358   .text.RTC_WakeUpCmd:0000000000000000 $t
     /tmp/cc65ENol.s:2366   .text.RTC_WakeUpCmd:0000000000000000 RTC_WakeUpCmd
     /tmp/cc65ENol.s:2461   .text.RTC_WakeUpCmd:0000000000000058 $d
     /tmp/cc65ENol.s:2466   .text.RTC_DayLightSavingConfig:0000000000000000 $t
     /tmp/cc65ENol.s:2474   .text.RTC_DayLightSavingConfig:0000000000000000 RTC_DayLightSavingConfig
     /tmp/cc65ENol.s:2520   .text.RTC_DayLightSavingConfig:0000000000000028 $d
     /tmp/cc65ENol.s:2525   .text.RTC_GetStoreOperation:0000000000000000 $t
     /tmp/cc65ENol.s:2533   .text.RTC_GetStoreOperation:0000000000000000 RTC_GetStoreOperation
     /tmp/cc65ENol.s:2549   .text.RTC_GetStoreOperation:000000000000000c $d
     /tmp/cc65ENol.s:2554   .text.RTC_OutputConfig:0000000000000000 $t
     /tmp/cc65ENol.s:2562   .text.RTC_OutputConfig:0000000000000000 RTC_OutputConfig
     /tmp/cc65ENol.s:2608   .text.RTC_OutputConfig:0000000000000028 $d
     /tmp/cc65ENol.s:2613   .text.RTC_CoarseCalibConfig:0000000000000000 $t
     /tmp/cc65ENol.s:2621   .text.RTC_CoarseCalibConfig:0000000000000000 RTC_CoarseCalibConfig
     /tmp/cc65ENol.s:2677   .text.RTC_CoarseCalibConfig:000000000000002c $d
     /tmp/cc65ENol.s:2682   .text.RTC_CoarseCalibCmd:0000000000000000 $t
     /tmp/cc65ENol.s:2690   .text.RTC_CoarseCalibCmd:0000000000000000 RTC_CoarseCalibCmd
     /tmp/cc65ENol.s:2755   .text.RTC_CoarseCalibCmd:000000000000003c $d
     /tmp/cc65ENol.s:2760   .text.RTC_CalibOutputCmd:0000000000000000 $t
     /tmp/cc65ENol.s:2768   .text.RTC_CalibOutputCmd:0000000000000000 RTC_CalibOutputCmd
     /tmp/cc65ENol.s:2811   .text.RTC_CalibOutputCmd:000000000000002c $d
     /tmp/cc65ENol.s:2816   .text.RTC_CalibOutputConfig:0000000000000000 $t
     /tmp/cc65ENol.s:2824   .text.RTC_CalibOutputConfig:0000000000000000 RTC_CalibOutputConfig
     /tmp/cc65ENol.s:2860   .text.RTC_CalibOutputConfig:0000000000000020 $d
     /tmp/cc65ENol.s:2865   .text.RTC_SmoothCalibConfig:0000000000000000 $t
     /tmp/cc65ENol.s:2873   .text.RTC_SmoothCalibConfig:0000000000000000 RTC_SmoothCalibConfig
     /tmp/cc65ENol.s:2956   .text.RTC_SmoothCalibConfig:0000000000000048 $d
     /tmp/cc65ENol.s:2961   .text.RTC_TimeStampCmd:0000000000000000 $t
     /tmp/cc65ENol.s:2969   .text.RTC_TimeStampCmd:0000000000000000 RTC_TimeStampCmd
     /tmp/cc65ENol.s:3030   .text.RTC_TimeStampCmd:0000000000000030 $d
     /tmp/cc65ENol.s:3035   .text.RTC_GetTimeStamp:0000000000000000 $t
     /tmp/cc65ENol.s:3043   .text.RTC_GetTimeStamp:0000000000000000 RTC_GetTimeStamp
     /tmp/cc65ENol.s:3229   .text.RTC_GetTimeStamp:00000000000000b8 $d
     /tmp/cc65ENol.s:3234   .text.RTC_GetTimeStampSubSecond:0000000000000000 $t
     /tmp/cc65ENol.s:3242   .text.RTC_GetTimeStampSubSecond:0000000000000000 RTC_GetTimeStampSubSecond
     /tmp/cc65ENol.s:3257   .text.RTC_GetTimeStampSubSecond:0000000000000008 $d
     /tmp/cc65ENol.s:3262   .text.RTC_TamperTriggerConfig:0000000000000000 $t
     /tmp/cc65ENol.s:3270   .text.RTC_TamperTriggerConfig:0000000000000000 RTC_TamperTriggerConfig
     /tmp/cc65ENol.s:3298   .text.RTC_TamperTriggerConfig:0000000000000018 $d
     /tmp/cc65ENol.s:3303   .text.RTC_TamperCmd:0000000000000000 $t
     /tmp/cc65ENol.s:3311   .text.RTC_TamperCmd:0000000000000000 RTC_TamperCmd
ARM GAS  /tmp/cc65ENol.s 			page 187


     /tmp/cc65ENol.s:3340   .text.RTC_TamperCmd:0000000000000014 $d
     /tmp/cc65ENol.s:3345   .text.RTC_TamperFilterConfig:0000000000000000 $t
     /tmp/cc65ENol.s:3353   .text.RTC_TamperFilterConfig:0000000000000000 RTC_TamperFilterConfig
     /tmp/cc65ENol.s:3376   .text.RTC_TamperFilterConfig:0000000000000014 $d
     /tmp/cc65ENol.s:3381   .text.RTC_TamperSamplingFreqConfig:0000000000000000 $t
     /tmp/cc65ENol.s:3389   .text.RTC_TamperSamplingFreqConfig:0000000000000000 RTC_TamperSamplingFreqConfig
     /tmp/cc65ENol.s:3412   .text.RTC_TamperSamplingFreqConfig:0000000000000014 $d
     /tmp/cc65ENol.s:3417   .text.RTC_TamperPinsPrechargeDuration:0000000000000000 $t
     /tmp/cc65ENol.s:3425   .text.RTC_TamperPinsPrechargeDuration:0000000000000000 RTC_TamperPinsPrechargeDuration
     /tmp/cc65ENol.s:3448   .text.RTC_TamperPinsPrechargeDuration:0000000000000014 $d
     /tmp/cc65ENol.s:3453   .text.RTC_TimeStampOnTamperDetectionCmd:0000000000000000 $t
     /tmp/cc65ENol.s:3461   .text.RTC_TimeStampOnTamperDetectionCmd:0000000000000000 RTC_TimeStampOnTamperDetectionCmd
     /tmp/cc65ENol.s:3487   .text.RTC_TimeStampOnTamperDetectionCmd:0000000000000018 $d
     /tmp/cc65ENol.s:3492   .text.RTC_TamperPullUpCmd:0000000000000000 $t
     /tmp/cc65ENol.s:3500   .text.RTC_TamperPullUpCmd:0000000000000000 RTC_TamperPullUpCmd
     /tmp/cc65ENol.s:3526   .text.RTC_TamperPullUpCmd:0000000000000018 $d
     /tmp/cc65ENol.s:3531   .text.RTC_WriteBackupRegister:0000000000000000 $t
     /tmp/cc65ENol.s:3539   .text.RTC_WriteBackupRegister:0000000000000000 RTC_WriteBackupRegister
     /tmp/cc65ENol.s:3573   .text.RTC_WriteBackupRegister:000000000000001c $d
     /tmp/cc65ENol.s:3578   .text.RTC_ReadBackupRegister:0000000000000000 $t
     /tmp/cc65ENol.s:3586   .text.RTC_ReadBackupRegister:0000000000000000 RTC_ReadBackupRegister
     /tmp/cc65ENol.s:3620   .text.RTC_ReadBackupRegister:000000000000001c $d
     /tmp/cc65ENol.s:3625   .text.RTC_TamperPinSelection:0000000000000000 $t
     /tmp/cc65ENol.s:3633   .text.RTC_TamperPinSelection:0000000000000000 RTC_TamperPinSelection
     /tmp/cc65ENol.s:3656   .text.RTC_TamperPinSelection:0000000000000014 $d
     /tmp/cc65ENol.s:3661   .text.RTC_TimeStampPinSelection:0000000000000000 $t
     /tmp/cc65ENol.s:3669   .text.RTC_TimeStampPinSelection:0000000000000000 RTC_TimeStampPinSelection
     /tmp/cc65ENol.s:3692   .text.RTC_TimeStampPinSelection:0000000000000014 $d
     /tmp/cc65ENol.s:3697   .text.RTC_OutputTypeConfig:0000000000000000 $t
     /tmp/cc65ENol.s:3705   .text.RTC_OutputTypeConfig:0000000000000000 RTC_OutputTypeConfig
     /tmp/cc65ENol.s:3728   .text.RTC_OutputTypeConfig:0000000000000014 $d
     /tmp/cc65ENol.s:3733   .text.RTC_SynchroShiftConfig:0000000000000000 $t
     /tmp/cc65ENol.s:3741   .text.RTC_SynchroShiftConfig:0000000000000000 RTC_SynchroShiftConfig
     /tmp/cc65ENol.s:3841   .text.RTC_SynchroShiftConfig:0000000000000064 $d
     /tmp/cc65ENol.s:3846   .text.RTC_ITConfig:0000000000000000 $t
     /tmp/cc65ENol.s:3854   .text.RTC_ITConfig:0000000000000000 RTC_ITConfig
     /tmp/cc65ENol.s:3915   .text.RTC_ITConfig:0000000000000040 $d
     /tmp/cc65ENol.s:3920   .text.RTC_GetFlagStatus:0000000000000000 $t
     /tmp/cc65ENol.s:3928   .text.RTC_GetFlagStatus:0000000000000000 RTC_GetFlagStatus
     /tmp/cc65ENol.s:3954   .text.RTC_GetFlagStatus:0000000000000014 $d
     /tmp/cc65ENol.s:3960   .text.RTC_ClearFlag:0000000000000000 $t
     /tmp/cc65ENol.s:3968   .text.RTC_ClearFlag:0000000000000000 RTC_ClearFlag
     /tmp/cc65ENol.s:3990   .text.RTC_ClearFlag:0000000000000018 $d
     /tmp/cc65ENol.s:3995   .text.RTC_GetITStatus:0000000000000000 $t
     /tmp/cc65ENol.s:4003   .text.RTC_GetITStatus:0000000000000000 RTC_GetITStatus
     /tmp/cc65ENol.s:4049   .text.RTC_GetITStatus:0000000000000028 $d
     /tmp/cc65ENol.s:4054   .text.RTC_ClearITPendingBit:0000000000000000 $t
     /tmp/cc65ENol.s:4062   .text.RTC_ClearITPendingBit:0000000000000000 RTC_ClearITPendingBit
     /tmp/cc65ENol.s:4084   .text.RTC_ClearITPendingBit:0000000000000018 $d

NO UNDEFINED SYMBOLS
