ARM GAS  /tmp/ccxi9t6b.s 			page 1


   1              		.cpu cortex-m4
   2              		.eabi_attribute 27, 1
   3              		.eabi_attribute 28, 1
   4              		.eabi_attribute 20, 1
   5              		.eabi_attribute 21, 1
   6              		.eabi_attribute 23, 3
   7              		.eabi_attribute 24, 1
   8              		.eabi_attribute 25, 1
   9              		.eabi_attribute 26, 1
  10              		.eabi_attribute 30, 2
  11              		.eabi_attribute 34, 1
  12              		.eabi_attribute 18, 4
  13              		.file	"stm32f4xx_flash.c"
  14              		.text
  15              	.Ltext0:
  16              		.cfi_sections	.debug_frame
  17              		.section	.text.FLASH_SetLatency,"ax",%progbits
  18              		.align	1
  19              		.p2align 4,,15
  20              		.global	FLASH_SetLatency
  21              		.syntax unified
  22              		.thumb
  23              		.thumb_func
  24              		.fpu fpv4-sp-d16
  25              		.type	FLASH_SetLatency, %function
  26              	FLASH_SetLatency:
  27              	.LFB111:
  28              		.file 1 "ChibiOS_2.6.6/ext/stdperiph_stm32f4/src/stm32f4xx_flash.c"
  29              		.loc 1 173 0
  30              		.cfi_startproc
  31              		@ args = 0, pretend = 0, frame = 0
  32              		@ frame_needed = 0, uses_anonymous_args = 0
  33              		@ link register save eliminated.
  34              	.LVL0:
  35              		.loc 1 178 0
  36 0000 014B     		ldr	r3, .L3
  37 0002 C0B2     		uxtb	r0, r0
  38              	.LVL1:
  39 0004 1870     		strb	r0, [r3]
  40              		.loc 1 179 0
  41 0006 7047     		bx	lr
  42              	.L4:
  43              		.align	2
  44              	.L3:
  45 0008 003C0240 		.word	1073888256
  46              		.cfi_endproc
  47              	.LFE111:
  48              		.size	FLASH_SetLatency, .-FLASH_SetLatency
  49              		.section	.text.FLASH_PrefetchBufferCmd,"ax",%progbits
  50              		.align	1
  51              		.p2align 4,,15
  52              		.global	FLASH_PrefetchBufferCmd
  53              		.syntax unified
  54              		.thumb
  55              		.thumb_func
  56              		.fpu fpv4-sp-d16
  57              		.type	FLASH_PrefetchBufferCmd, %function
ARM GAS  /tmp/ccxi9t6b.s 			page 2


  58              	FLASH_PrefetchBufferCmd:
  59              	.LFB112:
  60              		.loc 1 188 0
  61              		.cfi_startproc
  62              		@ args = 0, pretend = 0, frame = 0
  63              		@ frame_needed = 0, uses_anonymous_args = 0
  64              		@ link register save eliminated.
  65              	.LVL2:
  66              		.loc 1 195 0
  67 0000 054A     		ldr	r2, .L9
  68 0002 1368     		ldr	r3, [r2]
  69              		.loc 1 193 0
  70 0004 18B9     		cbnz	r0, .L8
  71              		.loc 1 199 0
  72 0006 23F48073 		bic	r3, r3, #256
  73 000a 1360     		str	r3, [r2]
  74              		.loc 1 201 0
  75 000c 7047     		bx	lr
  76              	.L8:
  77              		.loc 1 195 0
  78 000e 43F48073 		orr	r3, r3, #256
  79 0012 1360     		str	r3, [r2]
  80 0014 7047     		bx	lr
  81              	.L10:
  82 0016 00BF     		.align	2
  83              	.L9:
  84 0018 003C0240 		.word	1073888256
  85              		.cfi_endproc
  86              	.LFE112:
  87              		.size	FLASH_PrefetchBufferCmd, .-FLASH_PrefetchBufferCmd
  88              		.section	.text.FLASH_InstructionCacheCmd,"ax",%progbits
  89              		.align	1
  90              		.p2align 4,,15
  91              		.global	FLASH_InstructionCacheCmd
  92              		.syntax unified
  93              		.thumb
  94              		.thumb_func
  95              		.fpu fpv4-sp-d16
  96              		.type	FLASH_InstructionCacheCmd, %function
  97              	FLASH_InstructionCacheCmd:
  98              	.LFB113:
  99              		.loc 1 210 0
 100              		.cfi_startproc
 101              		@ args = 0, pretend = 0, frame = 0
 102              		@ frame_needed = 0, uses_anonymous_args = 0
 103              		@ link register save eliminated.
 104              	.LVL3:
 105              		.loc 1 216 0
 106 0000 054A     		ldr	r2, .L15
 107 0002 1368     		ldr	r3, [r2]
 108              		.loc 1 214 0
 109 0004 18B9     		cbnz	r0, .L14
 110              		.loc 1 220 0
 111 0006 23F40073 		bic	r3, r3, #512
 112 000a 1360     		str	r3, [r2]
 113              		.loc 1 222 0
 114 000c 7047     		bx	lr
ARM GAS  /tmp/ccxi9t6b.s 			page 3


 115              	.L14:
 116              		.loc 1 216 0
 117 000e 43F40073 		orr	r3, r3, #512
 118 0012 1360     		str	r3, [r2]
 119 0014 7047     		bx	lr
 120              	.L16:
 121 0016 00BF     		.align	2
 122              	.L15:
 123 0018 003C0240 		.word	1073888256
 124              		.cfi_endproc
 125              	.LFE113:
 126              		.size	FLASH_InstructionCacheCmd, .-FLASH_InstructionCacheCmd
 127              		.section	.text.FLASH_DataCacheCmd,"ax",%progbits
 128              		.align	1
 129              		.p2align 4,,15
 130              		.global	FLASH_DataCacheCmd
 131              		.syntax unified
 132              		.thumb
 133              		.thumb_func
 134              		.fpu fpv4-sp-d16
 135              		.type	FLASH_DataCacheCmd, %function
 136              	FLASH_DataCacheCmd:
 137              	.LFB114:
 138              		.loc 1 231 0
 139              		.cfi_startproc
 140              		@ args = 0, pretend = 0, frame = 0
 141              		@ frame_needed = 0, uses_anonymous_args = 0
 142              		@ link register save eliminated.
 143              	.LVL4:
 144              		.loc 1 237 0
 145 0000 054A     		ldr	r2, .L21
 146 0002 1368     		ldr	r3, [r2]
 147              		.loc 1 235 0
 148 0004 18B9     		cbnz	r0, .L20
 149              		.loc 1 241 0
 150 0006 23F48063 		bic	r3, r3, #1024
 151 000a 1360     		str	r3, [r2]
 152              		.loc 1 243 0
 153 000c 7047     		bx	lr
 154              	.L20:
 155              		.loc 1 237 0
 156 000e 43F48063 		orr	r3, r3, #1024
 157 0012 1360     		str	r3, [r2]
 158 0014 7047     		bx	lr
 159              	.L22:
 160 0016 00BF     		.align	2
 161              	.L21:
 162 0018 003C0240 		.word	1073888256
 163              		.cfi_endproc
 164              	.LFE114:
 165              		.size	FLASH_DataCacheCmd, .-FLASH_DataCacheCmd
 166              		.section	.text.FLASH_InstructionCacheReset,"ax",%progbits
 167              		.align	1
 168              		.p2align 4,,15
 169              		.global	FLASH_InstructionCacheReset
 170              		.syntax unified
 171              		.thumb
ARM GAS  /tmp/ccxi9t6b.s 			page 4


 172              		.thumb_func
 173              		.fpu fpv4-sp-d16
 174              		.type	FLASH_InstructionCacheReset, %function
 175              	FLASH_InstructionCacheReset:
 176              	.LFB115:
 177              		.loc 1 252 0
 178              		.cfi_startproc
 179              		@ args = 0, pretend = 0, frame = 0
 180              		@ frame_needed = 0, uses_anonymous_args = 0
 181              		@ link register save eliminated.
 182              		.loc 1 253 0
 183 0000 024A     		ldr	r2, .L24
 184 0002 1368     		ldr	r3, [r2]
 185 0004 43F40063 		orr	r3, r3, #2048
 186 0008 1360     		str	r3, [r2]
 187              		.loc 1 254 0
 188 000a 7047     		bx	lr
 189              	.L25:
 190              		.align	2
 191              	.L24:
 192 000c 003C0240 		.word	1073888256
 193              		.cfi_endproc
 194              	.LFE115:
 195              		.size	FLASH_InstructionCacheReset, .-FLASH_InstructionCacheReset
 196              		.section	.text.FLASH_DataCacheReset,"ax",%progbits
 197              		.align	1
 198              		.p2align 4,,15
 199              		.global	FLASH_DataCacheReset
 200              		.syntax unified
 201              		.thumb
 202              		.thumb_func
 203              		.fpu fpv4-sp-d16
 204              		.type	FLASH_DataCacheReset, %function
 205              	FLASH_DataCacheReset:
 206              	.LFB116:
 207              		.loc 1 263 0
 208              		.cfi_startproc
 209              		@ args = 0, pretend = 0, frame = 0
 210              		@ frame_needed = 0, uses_anonymous_args = 0
 211              		@ link register save eliminated.
 212              		.loc 1 264 0
 213 0000 024A     		ldr	r2, .L27
 214 0002 1368     		ldr	r3, [r2]
 215 0004 43F48053 		orr	r3, r3, #4096
 216 0008 1360     		str	r3, [r2]
 217              		.loc 1 265 0
 218 000a 7047     		bx	lr
 219              	.L28:
 220              		.align	2
 221              	.L27:
 222 000c 003C0240 		.word	1073888256
 223              		.cfi_endproc
 224              	.LFE116:
 225              		.size	FLASH_DataCacheReset, .-FLASH_DataCacheReset
 226              		.section	.text.FLASH_Unlock,"ax",%progbits
 227              		.align	1
 228              		.p2align 4,,15
ARM GAS  /tmp/ccxi9t6b.s 			page 5


 229              		.global	FLASH_Unlock
 230              		.syntax unified
 231              		.thumb
 232              		.thumb_func
 233              		.fpu fpv4-sp-d16
 234              		.type	FLASH_Unlock, %function
 235              	FLASH_Unlock:
 236              	.LFB117:
 237              		.loc 1 307 0
 238              		.cfi_startproc
 239              		@ args = 0, pretend = 0, frame = 0
 240              		@ frame_needed = 0, uses_anonymous_args = 0
 241              		@ link register save eliminated.
 242              		.loc 1 308 0
 243 0000 044B     		ldr	r3, .L31
 244 0002 1A69     		ldr	r2, [r3, #16]
 245 0004 002A     		cmp	r2, #0
 246 0006 03DA     		bge	.L29
 247              		.loc 1 311 0
 248 0008 0349     		ldr	r1, .L31+4
 249              		.loc 1 312 0
 250 000a 044A     		ldr	r2, .L31+8
 251              		.loc 1 311 0
 252 000c 5960     		str	r1, [r3, #4]
 253              		.loc 1 312 0
 254 000e 5A60     		str	r2, [r3, #4]
 255              	.L29:
 256              		.loc 1 314 0
 257 0010 7047     		bx	lr
 258              	.L32:
 259 0012 00BF     		.align	2
 260              	.L31:
 261 0014 003C0240 		.word	1073888256
 262 0018 23016745 		.word	1164378403
 263 001c AB89EFCD 		.word	-839939669
 264              		.cfi_endproc
 265              	.LFE117:
 266              		.size	FLASH_Unlock, .-FLASH_Unlock
 267              		.section	.text.FLASH_Lock,"ax",%progbits
 268              		.align	1
 269              		.p2align 4,,15
 270              		.global	FLASH_Lock
 271              		.syntax unified
 272              		.thumb
 273              		.thumb_func
 274              		.fpu fpv4-sp-d16
 275              		.type	FLASH_Lock, %function
 276              	FLASH_Lock:
 277              	.LFB118:
 278              		.loc 1 322 0
 279              		.cfi_startproc
 280              		@ args = 0, pretend = 0, frame = 0
 281              		@ frame_needed = 0, uses_anonymous_args = 0
 282              		@ link register save eliminated.
 283              		.loc 1 324 0
 284 0000 024A     		ldr	r2, .L34
 285 0002 1369     		ldr	r3, [r2, #16]
ARM GAS  /tmp/ccxi9t6b.s 			page 6


 286 0004 43F00043 		orr	r3, r3, #-2147483648
 287 0008 1361     		str	r3, [r2, #16]
 288              		.loc 1 325 0
 289 000a 7047     		bx	lr
 290              	.L35:
 291              		.align	2
 292              	.L34:
 293 000c 003C0240 		.word	1073888256
 294              		.cfi_endproc
 295              	.LFE118:
 296              		.size	FLASH_Lock, .-FLASH_Lock
 297              		.section	.text.FLASH_OB_Unlock,"ax",%progbits
 298              		.align	1
 299              		.p2align 4,,15
 300              		.global	FLASH_OB_Unlock
 301              		.syntax unified
 302              		.thumb
 303              		.thumb_func
 304              		.fpu fpv4-sp-d16
 305              		.type	FLASH_OB_Unlock, %function
 306              	FLASH_OB_Unlock:
 307              	.LFB125:
 308              		.loc 1 665 0
 309              		.cfi_startproc
 310              		@ args = 0, pretend = 0, frame = 0
 311              		@ frame_needed = 0, uses_anonymous_args = 0
 312              		@ link register save eliminated.
 313              		.loc 1 666 0
 314 0000 044B     		ldr	r3, .L41
 315 0002 5A69     		ldr	r2, [r3, #20]
 316 0004 D207     		lsls	r2, r2, #31
 317 0006 03D5     		bpl	.L36
 318              		.loc 1 669 0
 319 0008 0349     		ldr	r1, .L41+4
 320              		.loc 1 670 0
 321 000a 044A     		ldr	r2, .L41+8
 322              		.loc 1 669 0
 323 000c 9960     		str	r1, [r3, #8]
 324              		.loc 1 670 0
 325 000e 9A60     		str	r2, [r3, #8]
 326              	.L36:
 327              		.loc 1 672 0
 328 0010 7047     		bx	lr
 329              	.L42:
 330 0012 00BF     		.align	2
 331              	.L41:
 332 0014 003C0240 		.word	1073888256
 333 0018 3B2A1908 		.word	135866939
 334 001c 7F6E5D4C 		.word	1281191551
 335              		.cfi_endproc
 336              	.LFE125:
 337              		.size	FLASH_OB_Unlock, .-FLASH_OB_Unlock
 338              		.section	.text.FLASH_OB_Lock,"ax",%progbits
 339              		.align	1
 340              		.p2align 4,,15
 341              		.global	FLASH_OB_Lock
 342              		.syntax unified
ARM GAS  /tmp/ccxi9t6b.s 			page 7


 343              		.thumb
 344              		.thumb_func
 345              		.fpu fpv4-sp-d16
 346              		.type	FLASH_OB_Lock, %function
 347              	FLASH_OB_Lock:
 348              	.LFB126:
 349              		.loc 1 680 0
 350              		.cfi_startproc
 351              		@ args = 0, pretend = 0, frame = 0
 352              		@ frame_needed = 0, uses_anonymous_args = 0
 353              		@ link register save eliminated.
 354              		.loc 1 682 0
 355 0000 024A     		ldr	r2, .L44
 356 0002 5369     		ldr	r3, [r2, #20]
 357 0004 43F00103 		orr	r3, r3, #1
 358 0008 5361     		str	r3, [r2, #20]
 359              		.loc 1 683 0
 360 000a 7047     		bx	lr
 361              	.L45:
 362              		.align	2
 363              	.L44:
 364 000c 003C0240 		.word	1073888256
 365              		.cfi_endproc
 366              	.LFE126:
 367              		.size	FLASH_OB_Lock, .-FLASH_OB_Lock
 368              		.section	.text.FLASH_OB_BORConfig,"ax",%progbits
 369              		.align	1
 370              		.p2align 4,,15
 371              		.global	FLASH_OB_BORConfig
 372              		.syntax unified
 373              		.thumb
 374              		.thumb_func
 375              		.fpu fpv4-sp-d16
 376              		.type	FLASH_OB_BORConfig, %function
 377              	FLASH_OB_BORConfig:
 378              	.LFB130:
 379              		.loc 1 796 0
 380              		.cfi_startproc
 381              		@ args = 0, pretend = 0, frame = 0
 382              		@ frame_needed = 0, uses_anonymous_args = 0
 383              		@ link register save eliminated.
 384              	.LVL5:
 385              		.loc 1 801 0
 386 0000 044B     		ldr	r3, .L47
 387 0002 1A78     		ldrb	r2, [r3]	@ zero_extendqisi2
 388 0004 02F0F302 		and	r2, r2, #243
 389 0008 1A70     		strb	r2, [r3]
 390              		.loc 1 802 0
 391 000a 1A78     		ldrb	r2, [r3]	@ zero_extendqisi2
 392 000c 1043     		orrs	r0, r0, r2
 393              	.LVL6:
 394 000e 1870     		strb	r0, [r3]
 395              		.loc 1 804 0
 396 0010 7047     		bx	lr
 397              	.L48:
 398 0012 00BF     		.align	2
 399              	.L47:
ARM GAS  /tmp/ccxi9t6b.s 			page 8


 400 0014 143C0240 		.word	1073888276
 401              		.cfi_endproc
 402              	.LFE130:
 403              		.size	FLASH_OB_BORConfig, .-FLASH_OB_BORConfig
 404              		.section	.text.FLASH_OB_GetUser,"ax",%progbits
 405              		.align	1
 406              		.p2align 4,,15
 407              		.global	FLASH_OB_GetUser
 408              		.syntax unified
 409              		.thumb
 410              		.thumb_func
 411              		.fpu fpv4-sp-d16
 412              		.type	FLASH_OB_GetUser, %function
 413              	FLASH_OB_GetUser:
 414              	.LFB132:
 415              		.loc 1 832 0
 416              		.cfi_startproc
 417              		@ args = 0, pretend = 0, frame = 0
 418              		@ frame_needed = 0, uses_anonymous_args = 0
 419              		@ link register save eliminated.
 420              		.loc 1 834 0
 421 0000 024B     		ldr	r3, .L50
 422 0002 5869     		ldr	r0, [r3, #20]
 423              		.loc 1 835 0
 424 0004 C0F34710 		ubfx	r0, r0, #5, #8
 425 0008 7047     		bx	lr
 426              	.L51:
 427 000a 00BF     		.align	2
 428              	.L50:
 429 000c 003C0240 		.word	1073888256
 430              		.cfi_endproc
 431              	.LFE132:
 432              		.size	FLASH_OB_GetUser, .-FLASH_OB_GetUser
 433              		.section	.text.FLASH_OB_GetWRP,"ax",%progbits
 434              		.align	1
 435              		.p2align 4,,15
 436              		.global	FLASH_OB_GetWRP
 437              		.syntax unified
 438              		.thumb
 439              		.thumb_func
 440              		.fpu fpv4-sp-d16
 441              		.type	FLASH_OB_GetWRP, %function
 442              	FLASH_OB_GetWRP:
 443              	.LFB133:
 444              		.loc 1 843 0
 445              		.cfi_startproc
 446              		@ args = 0, pretend = 0, frame = 0
 447              		@ frame_needed = 0, uses_anonymous_args = 0
 448              		@ link register save eliminated.
 449              		.loc 1 845 0
 450 0000 014B     		ldr	r3, .L53
 451 0002 1888     		ldrh	r0, [r3]
 452              		.loc 1 846 0
 453 0004 7047     		bx	lr
 454              	.L54:
 455 0006 00BF     		.align	2
 456              	.L53:
ARM GAS  /tmp/ccxi9t6b.s 			page 9


 457 0008 163C0240 		.word	1073888278
 458              		.cfi_endproc
 459              	.LFE133:
 460              		.size	FLASH_OB_GetWRP, .-FLASH_OB_GetWRP
 461              		.section	.text.FLASH_OB_GetRDP,"ax",%progbits
 462              		.align	1
 463              		.p2align 4,,15
 464              		.global	FLASH_OB_GetRDP
 465              		.syntax unified
 466              		.thumb
 467              		.thumb_func
 468              		.fpu fpv4-sp-d16
 469              		.type	FLASH_OB_GetRDP, %function
 470              	FLASH_OB_GetRDP:
 471              	.LFB134:
 472              		.loc 1 856 0
 473              		.cfi_startproc
 474              		@ args = 0, pretend = 0, frame = 0
 475              		@ frame_needed = 0, uses_anonymous_args = 0
 476              		@ link register save eliminated.
 477              	.LVL7:
 478              		.loc 1 859 0
 479 0000 024B     		ldr	r3, .L56
 480 0002 1878     		ldrb	r0, [r3]	@ zero_extendqisi2
 481              	.LVL8:
 482              		.loc 1 868 0
 483 0004 AA38     		subs	r0, r0, #170
 484              	.LVL9:
 485 0006 18BF     		it	ne
 486 0008 0120     		movne	r0, #1
 487 000a 7047     		bx	lr
 488              	.L57:
 489              		.align	2
 490              	.L56:
 491 000c 153C0240 		.word	1073888277
 492              		.cfi_endproc
 493              	.LFE134:
 494              		.size	FLASH_OB_GetRDP, .-FLASH_OB_GetRDP
 495              		.section	.text.FLASH_OB_GetBOR,"ax",%progbits
 496              		.align	1
 497              		.p2align 4,,15
 498              		.global	FLASH_OB_GetBOR
 499              		.syntax unified
 500              		.thumb
 501              		.thumb_func
 502              		.fpu fpv4-sp-d16
 503              		.type	FLASH_OB_GetBOR, %function
 504              	FLASH_OB_GetBOR:
 505              	.LFB135:
 506              		.loc 1 880 0
 507              		.cfi_startproc
 508              		@ args = 0, pretend = 0, frame = 0
 509              		@ frame_needed = 0, uses_anonymous_args = 0
 510              		@ link register save eliminated.
 511              		.loc 1 882 0
 512 0000 024B     		ldr	r3, .L59
 513 0002 1878     		ldrb	r0, [r3]	@ zero_extendqisi2
ARM GAS  /tmp/ccxi9t6b.s 			page 10


 514              		.loc 1 883 0
 515 0004 00F00C00 		and	r0, r0, #12
 516 0008 7047     		bx	lr
 517              	.L60:
 518 000a 00BF     		.align	2
 519              	.L59:
 520 000c 143C0240 		.word	1073888276
 521              		.cfi_endproc
 522              	.LFE135:
 523              		.size	FLASH_OB_GetBOR, .-FLASH_OB_GetBOR
 524              		.section	.text.FLASH_ITConfig,"ax",%progbits
 525              		.align	1
 526              		.p2align 4,,15
 527              		.global	FLASH_ITConfig
 528              		.syntax unified
 529              		.thumb
 530              		.thumb_func
 531              		.fpu fpv4-sp-d16
 532              		.type	FLASH_ITConfig, %function
 533              	FLASH_ITConfig:
 534              	.LFB136:
 535              		.loc 1 910 0
 536              		.cfi_startproc
 537              		@ args = 0, pretend = 0, frame = 0
 538              		@ frame_needed = 0, uses_anonymous_args = 0
 539              		@ link register save eliminated.
 540              	.LVL10:
 541              		.loc 1 918 0
 542 0000 044A     		ldr	r2, .L65
 543 0002 1369     		ldr	r3, [r2, #16]
 544              		.loc 1 915 0
 545 0004 19B9     		cbnz	r1, .L64
 546              		.loc 1 923 0
 547 0006 23EA0000 		bic	r0, r3, r0
 548              	.LVL11:
 549 000a 1061     		str	r0, [r2, #16]
 550              		.loc 1 925 0
 551 000c 7047     		bx	lr
 552              	.LVL12:
 553              	.L64:
 554              		.loc 1 918 0
 555 000e 1843     		orrs	r0, r0, r3
 556              	.LVL13:
 557 0010 1061     		str	r0, [r2, #16]
 558 0012 7047     		bx	lr
 559              	.L66:
 560              		.align	2
 561              	.L65:
 562 0014 003C0240 		.word	1073888256
 563              		.cfi_endproc
 564              	.LFE136:
 565              		.size	FLASH_ITConfig, .-FLASH_ITConfig
 566              		.section	.text.FLASH_GetFlagStatus,"ax",%progbits
 567              		.align	1
 568              		.p2align 4,,15
 569              		.global	FLASH_GetFlagStatus
 570              		.syntax unified
ARM GAS  /tmp/ccxi9t6b.s 			page 11


 571              		.thumb
 572              		.thumb_func
 573              		.fpu fpv4-sp-d16
 574              		.type	FLASH_GetFlagStatus, %function
 575              	FLASH_GetFlagStatus:
 576              	.LFB137:
 577              		.loc 1 941 0
 578              		.cfi_startproc
 579              		@ args = 0, pretend = 0, frame = 0
 580              		@ frame_needed = 0, uses_anonymous_args = 0
 581              		@ link register save eliminated.
 582              	.LVL14:
 583              		.loc 1 946 0
 584 0000 034B     		ldr	r3, .L68
 585 0002 DB68     		ldr	r3, [r3, #12]
 586              	.LVL15:
 587 0004 0342     		tst	r3, r0
 588              		.loc 1 956 0
 589 0006 14BF     		ite	ne
 590 0008 0120     		movne	r0, #1
 591              	.LVL16:
 592 000a 0020     		moveq	r0, #0
 593 000c 7047     		bx	lr
 594              	.L69:
 595 000e 00BF     		.align	2
 596              	.L68:
 597 0010 003C0240 		.word	1073888256
 598              		.cfi_endproc
 599              	.LFE137:
 600              		.size	FLASH_GetFlagStatus, .-FLASH_GetFlagStatus
 601              		.section	.text.FLASH_ClearFlag,"ax",%progbits
 602              		.align	1
 603              		.p2align 4,,15
 604              		.global	FLASH_ClearFlag
 605              		.syntax unified
 606              		.thumb
 607              		.thumb_func
 608              		.fpu fpv4-sp-d16
 609              		.type	FLASH_ClearFlag, %function
 610              	FLASH_ClearFlag:
 611              	.LFB138:
 612              		.loc 1 971 0
 613              		.cfi_startproc
 614              		@ args = 0, pretend = 0, frame = 0
 615              		@ frame_needed = 0, uses_anonymous_args = 0
 616              		@ link register save eliminated.
 617              	.LVL17:
 618              		.loc 1 976 0
 619 0000 014B     		ldr	r3, .L71
 620 0002 D860     		str	r0, [r3, #12]
 621              		.loc 1 977 0
 622 0004 7047     		bx	lr
 623              	.L72:
 624 0006 00BF     		.align	2
 625              	.L71:
 626 0008 003C0240 		.word	1073888256
 627              		.cfi_endproc
ARM GAS  /tmp/ccxi9t6b.s 			page 12


 628              	.LFE138:
 629              		.size	FLASH_ClearFlag, .-FLASH_ClearFlag
 630              		.section	.text.FLASH_GetStatus,"ax",%progbits
 631              		.align	1
 632              		.p2align 4,,15
 633              		.global	FLASH_GetStatus
 634              		.syntax unified
 635              		.thumb
 636              		.thumb_func
 637              		.fpu fpv4-sp-d16
 638              		.type	FLASH_GetStatus, %function
 639              	FLASH_GetStatus:
 640              	.LFB139:
 641              		.loc 1 986 0
 642              		.cfi_startproc
 643              		@ args = 0, pretend = 0, frame = 0
 644              		@ frame_needed = 0, uses_anonymous_args = 0
 645              		@ link register save eliminated.
 646              	.LVL18:
 647              		.loc 1 989 0
 648 0000 0B4B     		ldr	r3, .L79
 649 0002 DA68     		ldr	r2, [r3, #12]
 650 0004 D103     		lsls	r1, r2, #15
 651 0006 0DD4     		bmi	.L75
 652              		.loc 1 995 0
 653 0008 DA68     		ldr	r2, [r3, #12]
 654 000a D206     		lsls	r2, r2, #27
 655 000c 0CD4     		bmi	.L76
 656              		.loc 1 1001 0
 657 000e DA68     		ldr	r2, [r3, #12]
 658 0010 12F0EF0F 		tst	r2, #239
 659 0014 0AD1     		bne	.L77
 660              	.LBB4:
 661              	.LBB5:
 662              		.loc 1 1007 0
 663 0016 DB68     		ldr	r3, [r3, #12]
 664 0018 13F0020F 		tst	r3, #2
 665              		.loc 1 1013 0
 666 001c 14BF     		ite	ne
 667 001e 0720     		movne	r0, #7
 668 0020 0820     		moveq	r0, #8
 669 0022 7047     		bx	lr
 670              	.L75:
 671              	.LBE5:
 672              	.LBE4:
 673              		.loc 1 991 0
 674 0024 0120     		movs	r0, #1
 675 0026 7047     		bx	lr
 676              	.L76:
 677              		.loc 1 997 0
 678 0028 0520     		movs	r0, #5
 679 002a 7047     		bx	lr
 680              	.L77:
 681              		.loc 1 1003 0
 682 002c 0620     		movs	r0, #6
 683              	.LVL19:
 684              		.loc 1 1020 0
ARM GAS  /tmp/ccxi9t6b.s 			page 13


 685 002e 7047     		bx	lr
 686              	.L80:
 687              		.align	2
 688              	.L79:
 689 0030 003C0240 		.word	1073888256
 690              		.cfi_endproc
 691              	.LFE139:
 692              		.size	FLASH_GetStatus, .-FLASH_GetStatus
 693              		.section	.text.FLASH_WaitForLastOperation,"ax",%progbits
 694              		.align	1
 695              		.p2align 4,,15
 696              		.global	FLASH_WaitForLastOperation
 697              		.syntax unified
 698              		.thumb
 699              		.thumb_func
 700              		.fpu fpv4-sp-d16
 701              		.type	FLASH_WaitForLastOperation, %function
 702              	FLASH_WaitForLastOperation:
 703              	.LFB140:
 704              		.loc 1 1029 0
 705              		.cfi_startproc
 706              		@ args = 0, pretend = 0, frame = 8
 707              		@ frame_needed = 0, uses_anonymous_args = 0
 708 0000 00B5     		push	{lr}
 709              		.cfi_def_cfa_offset 4
 710              		.cfi_offset 14, -4
 711 0002 83B0     		sub	sp, sp, #12
 712              		.cfi_def_cfa_offset 16
 713              		.loc 1 1030 0
 714 0004 0823     		movs	r3, #8
 715 0006 8DF80730 		strb	r3, [sp, #7]
 716              	.L87:
 717              		.loc 1 1033 0
 718 000a FFF7FEFF 		bl	FLASH_GetStatus
 719              	.LVL20:
 720 000e 8DF80700 		strb	r0, [sp, #7]
 721              		.loc 1 1038 0
 722 0012 9DF80730 		ldrb	r3, [sp, #7]	@ zero_extendqisi2
 723 0016 012B     		cmp	r3, #1
 724 0018 F7D0     		beq	.L87
 725              		.loc 1 1043 0
 726 001a 9DF80700 		ldrb	r0, [sp, #7]	@ zero_extendqisi2
 727              		.loc 1 1044 0
 728 001e 03B0     		add	sp, sp, #12
 729              		.cfi_def_cfa_offset 4
 730              		@ sp needed
 731 0020 5DF804FB 		ldr	pc, [sp], #4
 732              		.cfi_endproc
 733              	.LFE140:
 734              		.size	FLASH_WaitForLastOperation, .-FLASH_WaitForLastOperation
 735              		.section	.text.FLASH_EraseSector,"ax",%progbits
 736              		.align	1
 737              		.p2align 4,,15
 738              		.global	FLASH_EraseSector
 739              		.syntax unified
 740              		.thumb
 741              		.thumb_func
ARM GAS  /tmp/ccxi9t6b.s 			page 14


 742              		.fpu fpv4-sp-d16
 743              		.type	FLASH_EraseSector, %function
 744              	FLASH_EraseSector:
 745              	.LFB119:
 746              		.loc 1 348 0
 747              		.cfi_startproc
 748              		@ args = 0, pretend = 0, frame = 0
 749              		@ frame_needed = 0, uses_anonymous_args = 0
 750              	.LVL21:
 751 0000 70B5     		push	{r4, r5, r6, lr}
 752              		.cfi_def_cfa_offset 16
 753              		.cfi_offset 4, -16
 754              		.cfi_offset 5, -12
 755              		.cfi_offset 6, -8
 756              		.cfi_offset 14, -4
 757              		.loc 1 348 0
 758 0002 0646     		mov	r6, r0
 759              		.loc 1 356 0
 760 0004 61B1     		cbz	r1, .L91
 761              		.loc 1 360 0
 762 0006 0129     		cmp	r1, #1
 763 0008 2FD0     		beq	.L92
 764              		.loc 1 364 0
 765 000a 0229     		cmp	r1, #2
 766              		.loc 1 370 0
 767 000c 0CBF     		ite	eq
 768 000e 4FF40074 		moveq	r4, #512
 769 0012 4FF44074 		movne	r4, #768
 770              	.LVL22:
 771              		.loc 1 373 0
 772 0016 FFF7FEFF 		bl	FLASH_WaitForLastOperation
 773              	.LVL23:
 774              		.loc 1 375 0
 775 001a 0828     		cmp	r0, #8
 776 001c 05D0     		beq	.L95
 777              	.L90:
 778              		.loc 1 393 0
 779 001e 70BD     		pop	{r4, r5, r6, pc}
 780              	.LVL24:
 781              	.L91:
 782              		.loc 1 358 0
 783 0020 0C46     		mov	r4, r1
 784              	.L89:
 785              	.LVL25:
 786              		.loc 1 373 0
 787 0022 FFF7FEFF 		bl	FLASH_WaitForLastOperation
 788              	.LVL26:
 789              		.loc 1 375 0
 790 0026 0828     		cmp	r0, #8
 791 0028 F9D1     		bne	.L90
 792              	.L95:
 793              		.loc 1 378 0
 794 002a 114D     		ldr	r5, .L96
 795 002c 2B69     		ldr	r3, [r5, #16]
 796 002e 23F44073 		bic	r3, r3, #768
 797 0032 2B61     		str	r3, [r5, #16]
 798              		.loc 1 379 0
ARM GAS  /tmp/ccxi9t6b.s 			page 15


 799 0034 2969     		ldr	r1, [r5, #16]
 800 0036 2143     		orrs	r1, r1, r4
 801 0038 2961     		str	r1, [r5, #16]
 802              		.loc 1 380 0
 803 003a 2B69     		ldr	r3, [r5, #16]
 804 003c 23F0F803 		bic	r3, r3, #248
 805 0040 2B61     		str	r3, [r5, #16]
 806              		.loc 1 381 0
 807 0042 2869     		ldr	r0, [r5, #16]
 808              	.LVL27:
 809 0044 40F00200 		orr	r0, r0, #2
 810 0048 3043     		orrs	r0, r0, r6
 811 004a 2861     		str	r0, [r5, #16]
 812              		.loc 1 382 0
 813 004c 2B69     		ldr	r3, [r5, #16]
 814 004e 43F48033 		orr	r3, r3, #65536
 815 0052 2B61     		str	r3, [r5, #16]
 816              		.loc 1 385 0
 817 0054 FFF7FEFF 		bl	FLASH_WaitForLastOperation
 818              	.LVL28:
 819              		.loc 1 388 0
 820 0058 2B69     		ldr	r3, [r5, #16]
 821 005a 23F00203 		bic	r3, r3, #2
 822 005e 2B61     		str	r3, [r5, #16]
 823              		.loc 1 389 0
 824 0060 2B69     		ldr	r3, [r5, #16]
 825 0062 23F0F803 		bic	r3, r3, #248
 826 0066 2B61     		str	r3, [r5, #16]
 827              		.loc 1 393 0
 828 0068 70BD     		pop	{r4, r5, r6, pc}
 829              	.LVL29:
 830              	.L92:
 831              		.loc 1 362 0
 832 006a 4FF48074 		mov	r4, #256
 833 006e D8E7     		b	.L89
 834              	.L97:
 835              		.align	2
 836              	.L96:
 837 0070 003C0240 		.word	1073888256
 838              		.cfi_endproc
 839              	.LFE119:
 840              		.size	FLASH_EraseSector, .-FLASH_EraseSector
 841              		.section	.text.FLASH_EraseAllSectors,"ax",%progbits
 842              		.align	1
 843              		.p2align 4,,15
 844              		.global	FLASH_EraseAllSectors
 845              		.syntax unified
 846              		.thumb
 847              		.thumb_func
 848              		.fpu fpv4-sp-d16
 849              		.type	FLASH_EraseAllSectors, %function
 850              	FLASH_EraseAllSectors:
 851              	.LFB120:
 852              		.loc 1 413 0
 853              		.cfi_startproc
 854              		@ args = 0, pretend = 0, frame = 0
 855              		@ frame_needed = 0, uses_anonymous_args = 0
ARM GAS  /tmp/ccxi9t6b.s 			page 16


 856              	.LVL30:
 857 0000 38B5     		push	{r3, r4, r5, lr}
 858              		.cfi_def_cfa_offset 16
 859              		.cfi_offset 3, -16
 860              		.cfi_offset 4, -12
 861              		.cfi_offset 5, -8
 862              		.cfi_offset 14, -4
 863              		.loc 1 413 0
 864 0002 0446     		mov	r4, r0
 865              		.loc 1 418 0
 866 0004 FFF7FEFF 		bl	FLASH_WaitForLastOperation
 867              	.LVL31:
 868              		.loc 1 421 0
 869 0008 3CB1     		cbz	r4, .L99
 870              		.loc 1 425 0
 871 000a 012C     		cmp	r4, #1
 872 000c 1FD0     		beq	.L102
 873              		.loc 1 429 0
 874 000e 022C     		cmp	r4, #2
 875              		.loc 1 435 0
 876 0010 0CBF     		ite	eq
 877 0012 4FF40074 		moveq	r4, #512
 878 0016 4FF44074 		movne	r4, #768
 879              	.L99:
 880              	.LVL32:
 881              		.loc 1 437 0
 882 001a 0828     		cmp	r0, #8
 883 001c 00D0     		beq	.L105
 884              	.L100:
 885              		.loc 1 454 0
 886 001e 38BD     		pop	{r3, r4, r5, pc}
 887              	.LVL33:
 888              	.L105:
 889              		.loc 1 440 0
 890 0020 0D4D     		ldr	r5, .L106
 891 0022 2B69     		ldr	r3, [r5, #16]
 892 0024 23F44073 		bic	r3, r3, #768
 893 0028 2B61     		str	r3, [r5, #16]
 894              		.loc 1 441 0
 895 002a 2B69     		ldr	r3, [r5, #16]
 896 002c 1C43     		orrs	r4, r4, r3
 897              	.LVL34:
 898 002e 2C61     		str	r4, [r5, #16]
 899              		.loc 1 442 0
 900 0030 2B69     		ldr	r3, [r5, #16]
 901 0032 43F00403 		orr	r3, r3, #4
 902 0036 2B61     		str	r3, [r5, #16]
 903              		.loc 1 443 0
 904 0038 2B69     		ldr	r3, [r5, #16]
 905 003a 43F48033 		orr	r3, r3, #65536
 906 003e 2B61     		str	r3, [r5, #16]
 907              		.loc 1 446 0
 908 0040 FFF7FEFF 		bl	FLASH_WaitForLastOperation
 909              	.LVL35:
 910              		.loc 1 449 0
 911 0044 2B69     		ldr	r3, [r5, #16]
 912 0046 23F00403 		bic	r3, r3, #4
ARM GAS  /tmp/ccxi9t6b.s 			page 17


 913 004a 2B61     		str	r3, [r5, #16]
 914              		.loc 1 454 0
 915 004c 38BD     		pop	{r3, r4, r5, pc}
 916              	.LVL36:
 917              	.L102:
 918              		.loc 1 437 0
 919 004e 0828     		cmp	r0, #8
 920              		.loc 1 427 0
 921 0050 4FF48074 		mov	r4, #256
 922              	.LVL37:
 923              		.loc 1 437 0
 924 0054 E3D1     		bne	.L100
 925 0056 E3E7     		b	.L105
 926              	.L107:
 927              		.align	2
 928              	.L106:
 929 0058 003C0240 		.word	1073888256
 930              		.cfi_endproc
 931              	.LFE120:
 932              		.size	FLASH_EraseAllSectors, .-FLASH_EraseAllSectors
 933              		.section	.text.FLASH_ProgramDoubleWord,"ax",%progbits
 934              		.align	1
 935              		.p2align 4,,15
 936              		.global	FLASH_ProgramDoubleWord
 937              		.syntax unified
 938              		.thumb
 939              		.thumb_func
 940              		.fpu fpv4-sp-d16
 941              		.type	FLASH_ProgramDoubleWord, %function
 942              	FLASH_ProgramDoubleWord:
 943              	.LFB121:
 944              		.loc 1 466 0
 945              		.cfi_startproc
 946              		@ args = 0, pretend = 0, frame = 0
 947              		@ frame_needed = 0, uses_anonymous_args = 0
 948              	.LVL38:
 949 0000 F8B5     		push	{r3, r4, r5, r6, r7, lr}
 950              		.cfi_def_cfa_offset 24
 951              		.cfi_offset 3, -24
 952              		.cfi_offset 4, -20
 953              		.cfi_offset 5, -16
 954              		.cfi_offset 6, -12
 955              		.cfi_offset 7, -8
 956              		.cfi_offset 14, -4
 957              		.loc 1 466 0
 958 0002 0546     		mov	r5, r0
 959 0004 1646     		mov	r6, r2
 960 0006 1F46     		mov	r7, r3
 961              		.loc 1 473 0
 962 0008 FFF7FEFF 		bl	FLASH_WaitForLastOperation
 963              	.LVL39:
 964              		.loc 1 475 0
 965 000c 0828     		cmp	r0, #8
 966 000e 00D0     		beq	.L111
 967              		.loc 1 492 0
 968 0010 F8BD     		pop	{r3, r4, r5, r6, r7, pc}
 969              	.LVL40:
ARM GAS  /tmp/ccxi9t6b.s 			page 18


 970              	.L111:
 971              		.loc 1 478 0
 972 0012 0B4C     		ldr	r4, .L112
 973 0014 2369     		ldr	r3, [r4, #16]
 974 0016 23F44073 		bic	r3, r3, #768
 975 001a 2361     		str	r3, [r4, #16]
 976              		.loc 1 479 0
 977 001c 2369     		ldr	r3, [r4, #16]
 978 001e 43F44073 		orr	r3, r3, #768
 979 0022 2361     		str	r3, [r4, #16]
 980              		.loc 1 480 0
 981 0024 2369     		ldr	r3, [r4, #16]
 982 0026 43F00103 		orr	r3, r3, #1
 983 002a 2361     		str	r3, [r4, #16]
 984              		.loc 1 482 0
 985 002c C5E90067 		strd	r6, [r5]
 986              		.loc 1 485 0
 987 0030 FFF7FEFF 		bl	FLASH_WaitForLastOperation
 988              	.LVL41:
 989              		.loc 1 488 0
 990 0034 2369     		ldr	r3, [r4, #16]
 991 0036 23F00103 		bic	r3, r3, #1
 992 003a 2361     		str	r3, [r4, #16]
 993              		.loc 1 492 0
 994 003c F8BD     		pop	{r3, r4, r5, r6, r7, pc}
 995              	.LVL42:
 996              	.L113:
 997 003e 00BF     		.align	2
 998              	.L112:
 999 0040 003C0240 		.word	1073888256
 1000              		.cfi_endproc
 1001              	.LFE121:
 1002              		.size	FLASH_ProgramDoubleWord, .-FLASH_ProgramDoubleWord
 1003              		.section	.text.FLASH_ProgramWord,"ax",%progbits
 1004              		.align	1
 1005              		.p2align 4,,15
 1006              		.global	FLASH_ProgramWord
 1007              		.syntax unified
 1008              		.thumb
 1009              		.thumb_func
 1010              		.fpu fpv4-sp-d16
 1011              		.type	FLASH_ProgramWord, %function
 1012              	FLASH_ProgramWord:
 1013              	.LFB122:
 1014              		.loc 1 504 0
 1015              		.cfi_startproc
 1016              		@ args = 0, pretend = 0, frame = 0
 1017              		@ frame_needed = 0, uses_anonymous_args = 0
 1018              	.LVL43:
 1019 0000 70B5     		push	{r4, r5, r6, lr}
 1020              		.cfi_def_cfa_offset 16
 1021              		.cfi_offset 4, -16
 1022              		.cfi_offset 5, -12
 1023              		.cfi_offset 6, -8
 1024              		.cfi_offset 14, -4
 1025              		.loc 1 504 0
 1026 0002 0546     		mov	r5, r0
ARM GAS  /tmp/ccxi9t6b.s 			page 19


 1027 0004 0E46     		mov	r6, r1
 1028              		.loc 1 511 0
 1029 0006 FFF7FEFF 		bl	FLASH_WaitForLastOperation
 1030              	.LVL44:
 1031              		.loc 1 513 0
 1032 000a 0828     		cmp	r0, #8
 1033 000c 00D0     		beq	.L117
 1034              		.loc 1 530 0
 1035 000e 70BD     		pop	{r4, r5, r6, pc}
 1036              	.LVL45:
 1037              	.L117:
 1038              		.loc 1 516 0
 1039 0010 0A4C     		ldr	r4, .L118
 1040 0012 2369     		ldr	r3, [r4, #16]
 1041 0014 23F44073 		bic	r3, r3, #768
 1042 0018 2361     		str	r3, [r4, #16]
 1043              		.loc 1 517 0
 1044 001a 2369     		ldr	r3, [r4, #16]
 1045 001c 43F40073 		orr	r3, r3, #512
 1046 0020 2361     		str	r3, [r4, #16]
 1047              		.loc 1 518 0
 1048 0022 2369     		ldr	r3, [r4, #16]
 1049 0024 43F00103 		orr	r3, r3, #1
 1050 0028 2361     		str	r3, [r4, #16]
 1051              		.loc 1 520 0
 1052 002a 2E60     		str	r6, [r5]
 1053              		.loc 1 523 0
 1054 002c FFF7FEFF 		bl	FLASH_WaitForLastOperation
 1055              	.LVL46:
 1056              		.loc 1 526 0
 1057 0030 2369     		ldr	r3, [r4, #16]
 1058 0032 23F00103 		bic	r3, r3, #1
 1059 0036 2361     		str	r3, [r4, #16]
 1060              		.loc 1 530 0
 1061 0038 70BD     		pop	{r4, r5, r6, pc}
 1062              	.LVL47:
 1063              	.L119:
 1064 003a 00BF     		.align	2
 1065              	.L118:
 1066 003c 003C0240 		.word	1073888256
 1067              		.cfi_endproc
 1068              	.LFE122:
 1069              		.size	FLASH_ProgramWord, .-FLASH_ProgramWord
 1070              		.section	.text.FLASH_ProgramHalfWord,"ax",%progbits
 1071              		.align	1
 1072              		.p2align 4,,15
 1073              		.global	FLASH_ProgramHalfWord
 1074              		.syntax unified
 1075              		.thumb
 1076              		.thumb_func
 1077              		.fpu fpv4-sp-d16
 1078              		.type	FLASH_ProgramHalfWord, %function
 1079              	FLASH_ProgramHalfWord:
 1080              	.LFB123:
 1081              		.loc 1 542 0
 1082              		.cfi_startproc
 1083              		@ args = 0, pretend = 0, frame = 0
ARM GAS  /tmp/ccxi9t6b.s 			page 20


 1084              		@ frame_needed = 0, uses_anonymous_args = 0
 1085              	.LVL48:
 1086 0000 70B5     		push	{r4, r5, r6, lr}
 1087              		.cfi_def_cfa_offset 16
 1088              		.cfi_offset 4, -16
 1089              		.cfi_offset 5, -12
 1090              		.cfi_offset 6, -8
 1091              		.cfi_offset 14, -4
 1092              		.loc 1 542 0
 1093 0002 0546     		mov	r5, r0
 1094 0004 0E46     		mov	r6, r1
 1095              		.loc 1 549 0
 1096 0006 FFF7FEFF 		bl	FLASH_WaitForLastOperation
 1097              	.LVL49:
 1098              		.loc 1 551 0
 1099 000a 0828     		cmp	r0, #8
 1100 000c 00D0     		beq	.L123
 1101              		.loc 1 568 0
 1102 000e 70BD     		pop	{r4, r5, r6, pc}
 1103              	.LVL50:
 1104              	.L123:
 1105              		.loc 1 554 0
 1106 0010 0A4C     		ldr	r4, .L124
 1107 0012 2369     		ldr	r3, [r4, #16]
 1108 0014 23F44073 		bic	r3, r3, #768
 1109 0018 2361     		str	r3, [r4, #16]
 1110              		.loc 1 555 0
 1111 001a 2369     		ldr	r3, [r4, #16]
 1112 001c 43F48073 		orr	r3, r3, #256
 1113 0020 2361     		str	r3, [r4, #16]
 1114              		.loc 1 556 0
 1115 0022 2369     		ldr	r3, [r4, #16]
 1116 0024 43F00103 		orr	r3, r3, #1
 1117 0028 2361     		str	r3, [r4, #16]
 1118              		.loc 1 558 0
 1119 002a 2E80     		strh	r6, [r5]	@ movhi
 1120              		.loc 1 561 0
 1121 002c FFF7FEFF 		bl	FLASH_WaitForLastOperation
 1122              	.LVL51:
 1123              		.loc 1 564 0
 1124 0030 2369     		ldr	r3, [r4, #16]
 1125 0032 23F00103 		bic	r3, r3, #1
 1126 0036 2361     		str	r3, [r4, #16]
 1127              		.loc 1 568 0
 1128 0038 70BD     		pop	{r4, r5, r6, pc}
 1129              	.LVL52:
 1130              	.L125:
 1131 003a 00BF     		.align	2
 1132              	.L124:
 1133 003c 003C0240 		.word	1073888256
 1134              		.cfi_endproc
 1135              	.LFE123:
 1136              		.size	FLASH_ProgramHalfWord, .-FLASH_ProgramHalfWord
 1137              		.section	.text.FLASH_ProgramByte,"ax",%progbits
 1138              		.align	1
 1139              		.p2align 4,,15
 1140              		.global	FLASH_ProgramByte
ARM GAS  /tmp/ccxi9t6b.s 			page 21


 1141              		.syntax unified
 1142              		.thumb
 1143              		.thumb_func
 1144              		.fpu fpv4-sp-d16
 1145              		.type	FLASH_ProgramByte, %function
 1146              	FLASH_ProgramByte:
 1147              	.LFB124:
 1148              		.loc 1 580 0
 1149              		.cfi_startproc
 1150              		@ args = 0, pretend = 0, frame = 0
 1151              		@ frame_needed = 0, uses_anonymous_args = 0
 1152              	.LVL53:
 1153 0000 70B5     		push	{r4, r5, r6, lr}
 1154              		.cfi_def_cfa_offset 16
 1155              		.cfi_offset 4, -16
 1156              		.cfi_offset 5, -12
 1157              		.cfi_offset 6, -8
 1158              		.cfi_offset 14, -4
 1159              		.loc 1 580 0
 1160 0002 0546     		mov	r5, r0
 1161 0004 0E46     		mov	r6, r1
 1162              		.loc 1 587 0
 1163 0006 FFF7FEFF 		bl	FLASH_WaitForLastOperation
 1164              	.LVL54:
 1165              		.loc 1 589 0
 1166 000a 0828     		cmp	r0, #8
 1167 000c 00D0     		beq	.L129
 1168              		.loc 1 607 0
 1169 000e 70BD     		pop	{r4, r5, r6, pc}
 1170              	.LVL55:
 1171              	.L129:
 1172              		.loc 1 592 0
 1173 0010 094C     		ldr	r4, .L130
 1174 0012 2369     		ldr	r3, [r4, #16]
 1175 0014 23F44073 		bic	r3, r3, #768
 1176 0018 2361     		str	r3, [r4, #16]
 1177              		.loc 1 593 0
 1178 001a 2369     		ldr	r3, [r4, #16]
 1179 001c 2361     		str	r3, [r4, #16]
 1180              		.loc 1 594 0
 1181 001e 2369     		ldr	r3, [r4, #16]
 1182 0020 43F00103 		orr	r3, r3, #1
 1183 0024 2361     		str	r3, [r4, #16]
 1184              		.loc 1 596 0
 1185 0026 2E70     		strb	r6, [r5]
 1186              		.loc 1 599 0
 1187 0028 FFF7FEFF 		bl	FLASH_WaitForLastOperation
 1188              	.LVL56:
 1189              		.loc 1 602 0
 1190 002c 2369     		ldr	r3, [r4, #16]
 1191 002e 23F00103 		bic	r3, r3, #1
 1192 0032 2361     		str	r3, [r4, #16]
 1193              		.loc 1 607 0
 1194 0034 70BD     		pop	{r4, r5, r6, pc}
 1195              	.LVL57:
 1196              	.L131:
 1197 0036 00BF     		.align	2
ARM GAS  /tmp/ccxi9t6b.s 			page 22


 1198              	.L130:
 1199 0038 003C0240 		.word	1073888256
 1200              		.cfi_endproc
 1201              	.LFE124:
 1202              		.size	FLASH_ProgramByte, .-FLASH_ProgramByte
 1203              		.section	.text.FLASH_OB_WRPConfig,"ax",%progbits
 1204              		.align	1
 1205              		.p2align 4,,15
 1206              		.global	FLASH_OB_WRPConfig
 1207              		.syntax unified
 1208              		.thumb
 1209              		.thumb_func
 1210              		.fpu fpv4-sp-d16
 1211              		.type	FLASH_OB_WRPConfig, %function
 1212              	FLASH_OB_WRPConfig:
 1213              	.LFB127:
 1214              		.loc 1 696 0
 1215              		.cfi_startproc
 1216              		@ args = 0, pretend = 0, frame = 0
 1217              		@ frame_needed = 0, uses_anonymous_args = 0
 1218              	.LVL58:
 1219 0000 38B5     		push	{r3, r4, r5, lr}
 1220              		.cfi_def_cfa_offset 16
 1221              		.cfi_offset 3, -16
 1222              		.cfi_offset 4, -12
 1223              		.cfi_offset 5, -8
 1224              		.cfi_offset 14, -4
 1225              		.loc 1 696 0
 1226 0002 0446     		mov	r4, r0
 1227 0004 0D46     		mov	r5, r1
 1228              		.loc 1 703 0
 1229 0006 FFF7FEFF 		bl	FLASH_WaitForLastOperation
 1230              	.LVL59:
 1231              		.loc 1 705 0
 1232 000a 0828     		cmp	r0, #8
 1233 000c 00D0     		beq	.L136
 1234              		.loc 1 716 0
 1235 000e 38BD     		pop	{r3, r4, r5, pc}
 1236              	.LVL60:
 1237              	.L136:
 1238 0010 A4B2     		uxth	r4, r4
 1239              	.LVL61:
 1240              		.loc 1 707 0
 1241 0012 25B9     		cbnz	r5, .L137
 1242              		.loc 1 713 0
 1243 0014 054B     		ldr	r3, .L138
 1244 0016 1A88     		ldrh	r2, [r3]
 1245 0018 1443     		orrs	r4, r4, r2
 1246 001a 1C80     		strh	r4, [r3]	@ movhi
 1247              		.loc 1 716 0
 1248 001c 38BD     		pop	{r3, r4, r5, pc}
 1249              	.L137:
 1250              		.loc 1 709 0
 1251 001e 034A     		ldr	r2, .L138
 1252 0020 1388     		ldrh	r3, [r2]
 1253 0022 23EA0404 		bic	r4, r3, r4
 1254 0026 1480     		strh	r4, [r2]	@ movhi
ARM GAS  /tmp/ccxi9t6b.s 			page 23


 1255              		.loc 1 716 0
 1256 0028 38BD     		pop	{r3, r4, r5, pc}
 1257              	.L139:
 1258 002a 00BF     		.align	2
 1259              	.L138:
 1260 002c 163C0240 		.word	1073888278
 1261              		.cfi_endproc
 1262              	.LFE127:
 1263              		.size	FLASH_OB_WRPConfig, .-FLASH_OB_WRPConfig
 1264              		.section	.text.FLASH_OB_RDPConfig,"ax",%progbits
 1265              		.align	1
 1266              		.p2align 4,,15
 1267              		.global	FLASH_OB_RDPConfig
 1268              		.syntax unified
 1269              		.thumb
 1270              		.thumb_func
 1271              		.fpu fpv4-sp-d16
 1272              		.type	FLASH_OB_RDPConfig, %function
 1273              	FLASH_OB_RDPConfig:
 1274              	.LFB128:
 1275              		.loc 1 731 0
 1276              		.cfi_startproc
 1277              		@ args = 0, pretend = 0, frame = 0
 1278              		@ frame_needed = 0, uses_anonymous_args = 0
 1279              	.LVL62:
 1280 0000 10B5     		push	{r4, lr}
 1281              		.cfi_def_cfa_offset 8
 1282              		.cfi_offset 4, -8
 1283              		.cfi_offset 14, -4
 1284              		.loc 1 731 0
 1285 0002 0446     		mov	r4, r0
 1286              		.loc 1 737 0
 1287 0004 FFF7FEFF 		bl	FLASH_WaitForLastOperation
 1288              	.LVL63:
 1289              		.loc 1 739 0
 1290 0008 0828     		cmp	r0, #8
 1291              		.loc 1 741 0
 1292 000a 04BF     		itt	eq
 1293 000c 014B     		ldreq	r3, .L143
 1294 000e 1C70     		strbeq	r4, [r3]
 1295              		.loc 1 744 0
 1296 0010 10BD     		pop	{r4, pc}
 1297              	.L144:
 1298 0012 00BF     		.align	2
 1299              	.L143:
 1300 0014 153C0240 		.word	1073888277
 1301              		.cfi_endproc
 1302              	.LFE128:
 1303              		.size	FLASH_OB_RDPConfig, .-FLASH_OB_RDPConfig
 1304              		.section	.text.FLASH_OB_UserConfig,"ax",%progbits
 1305              		.align	1
 1306              		.p2align 4,,15
 1307              		.global	FLASH_OB_UserConfig
 1308              		.syntax unified
 1309              		.thumb
 1310              		.thumb_func
 1311              		.fpu fpv4-sp-d16
ARM GAS  /tmp/ccxi9t6b.s 			page 24


 1312              		.type	FLASH_OB_UserConfig, %function
 1313              	FLASH_OB_UserConfig:
 1314              	.LFB129:
 1315              		.loc 1 763 0
 1316              		.cfi_startproc
 1317              		@ args = 0, pretend = 0, frame = 0
 1318              		@ frame_needed = 0, uses_anonymous_args = 0
 1319              	.LVL64:
 1320 0000 70B5     		push	{r4, r5, r6, lr}
 1321              		.cfi_def_cfa_offset 16
 1322              		.cfi_offset 4, -16
 1323              		.cfi_offset 5, -12
 1324              		.cfi_offset 6, -8
 1325              		.cfi_offset 14, -4
 1326              		.loc 1 763 0
 1327 0002 0646     		mov	r6, r0
 1328 0004 0C46     		mov	r4, r1
 1329 0006 1546     		mov	r5, r2
 1330              		.loc 1 773 0
 1331 0008 FFF7FEFF 		bl	FLASH_WaitForLastOperation
 1332              	.LVL65:
 1333              		.loc 1 775 0
 1334 000c 0828     		cmp	r0, #8
 1335 000e 00D0     		beq	.L148
 1336              		.loc 1 783 0
 1337 0010 70BD     		pop	{r4, r5, r6, pc}
 1338              	.L148:
 1339              		.loc 1 778 0
 1340 0012 044A     		ldr	r2, .L149
 1341 0014 1378     		ldrb	r3, [r2]	@ zero_extendqisi2
 1342              	.LVL66:
 1343 0016 03F00F03 		and	r3, r3, #15
 1344              	.LVL67:
 1345              		.loc 1 781 0
 1346 001a 1E43     		orrs	r6, r6, r3
 1347 001c 3543     		orrs	r5, r5, r6
 1348 001e 2C43     		orrs	r4, r4, r5
 1349 0020 1470     		strb	r4, [r2]
 1350              		.loc 1 783 0
 1351 0022 70BD     		pop	{r4, r5, r6, pc}
 1352              	.L150:
 1353              		.align	2
 1354              	.L149:
 1355 0024 143C0240 		.word	1073888276
 1356              		.cfi_endproc
 1357              	.LFE129:
 1358              		.size	FLASH_OB_UserConfig, .-FLASH_OB_UserConfig
 1359              		.section	.text.FLASH_OB_Launch,"ax",%progbits
 1360              		.align	1
 1361              		.p2align 4,,15
 1362              		.global	FLASH_OB_Launch
 1363              		.syntax unified
 1364              		.thumb
 1365              		.thumb_func
 1366              		.fpu fpv4-sp-d16
 1367              		.type	FLASH_OB_Launch, %function
 1368              	FLASH_OB_Launch:
ARM GAS  /tmp/ccxi9t6b.s 			page 25


 1369              	.LFB131:
 1370              		.loc 1 813 0
 1371              		.cfi_startproc
 1372              		@ args = 0, pretend = 0, frame = 0
 1373              		@ frame_needed = 0, uses_anonymous_args = 0
 1374              		@ link register save eliminated.
 1375              	.LVL68:
 1376              		.loc 1 817 0
 1377 0000 034A     		ldr	r2, .L152
 1378 0002 1378     		ldrb	r3, [r2]	@ zero_extendqisi2
 1379 0004 43F00203 		orr	r3, r3, #2
 1380 0008 1370     		strb	r3, [r2]
 1381              		.loc 1 820 0
 1382 000a FFF7FEBF 		b	FLASH_WaitForLastOperation
 1383              	.LVL69:
 1384              	.L153:
 1385 000e 00BF     		.align	2
 1386              	.L152:
 1387 0010 143C0240 		.word	1073888276
 1388              		.cfi_endproc
 1389              	.LFE131:
 1390              		.size	FLASH_OB_Launch, .-FLASH_OB_Launch
 1391              		.text
 1392              	.Letext0:
 1393              		.file 2 "/usr/arm-none-eabi/include/machine/_default_types.h"
 1394              		.file 3 "/usr/arm-none-eabi/include/sys/_stdint.h"
 1395              		.file 4 "ChibiOS_2.6.6/os/hal/platforms/STM32F4xx/stm32f4xx.h"
 1396              		.file 5 "ChibiOS_2.6.6/ext/stdperiph_stm32f4/inc/stm32f4xx_flash.h"
 1397              		.file 6 "ChibiOS_2.6.6/os/ports/common/ARMCMx/CMSIS/include/core_cm4.h"