ARM GAS  /tmp/ccAZvk4J.s 			page 1


   1              		.cpu cortex-m4
   2              		.eabi_attribute 27, 1
   3              		.eabi_attribute 28, 1
   4              		.eabi_attribute 20, 1
   5              		.eabi_attribute 21, 1
   6              		.eabi_attribute 23, 3
   7              		.eabi_attribute 24, 1
   8              		.eabi_attribute 25, 1
   9              		.eabi_attribute 26, 1
  10              		.eabi_attribute 30, 2
  11              		.eabi_attribute 34, 1
  12              		.eabi_attribute 18, 4
  13              		.file	"stm32f4xx_spi.c"
  14              		.text
  15              	.Ltext0:
  16              		.cfi_sections	.debug_frame
  17              		.section	.text.SPI_I2S_DeInit,"ax",%progbits
  18              		.align	1
  19              		.p2align 4,,15
  20              		.global	SPI_I2S_DeInit
  21              		.syntax unified
  22              		.thumb
  23              		.thumb_func
  24              		.fpu fpv4-sp-d16
  25              		.type	SPI_I2S_DeInit, %function
  26              	SPI_I2S_DeInit:
  27              	.LFB111:
  28              		.file 1 "ChibiOS_2.6.6/ext/stdperiph_stm32f4/src/stm32f4xx_spi.c"
  29              		.loc 1 225 0
  30              		.cfi_startproc
  31              		@ args = 0, pretend = 0, frame = 0
  32              		@ frame_needed = 0, uses_anonymous_args = 0
  33              	.LVL0:
  34 0000 08B5     		push	{r3, lr}
  35              		.cfi_def_cfa_offset 8
  36              		.cfi_offset 3, -8
  37              		.cfi_offset 14, -4
  38              		.loc 1 229 0
  39 0002 174B     		ldr	r3, .L10
  40 0004 9842     		cmp	r0, r3
  41 0006 06D0     		beq	.L7
  42              		.loc 1 236 0
  43 0008 164B     		ldr	r3, .L10+4
  44 000a 9842     		cmp	r0, r3
  45 000c 1BD0     		beq	.L8
  46              		.loc 1 245 0
  47 000e 164B     		ldr	r3, .L10+8
  48 0010 9842     		cmp	r0, r3
  49 0012 0CD0     		beq	.L9
  50              		.loc 1 253 0
  51 0014 08BD     		pop	{r3, pc}
  52              	.L7:
  53              		.loc 1 232 0
  54 0016 0121     		movs	r1, #1
  55 0018 4FF48050 		mov	r0, #4096
  56              	.LVL1:
  57 001c FFF7FEFF 		bl	RCC_APB2PeriphResetCmd
ARM GAS  /tmp/ccAZvk4J.s 			page 2


  58              	.LVL2:
  59              		.loc 1 234 0
  60 0020 0021     		movs	r1, #0
  61 0022 4FF48050 		mov	r0, #4096
  62              		.loc 1 253 0
  63 0026 BDE80840 		pop	{r3, lr}
  64              		.cfi_remember_state
  65              		.cfi_restore 14
  66              		.cfi_restore 3
  67              		.cfi_def_cfa_offset 0
  68              		.loc 1 234 0
  69 002a FFF7FEBF 		b	RCC_APB2PeriphResetCmd
  70              	.LVL3:
  71              	.L9:
  72              		.cfi_restore_state
  73              		.loc 1 248 0
  74 002e 0121     		movs	r1, #1
  75 0030 4FF40040 		mov	r0, #32768
  76              	.LVL4:
  77 0034 FFF7FEFF 		bl	RCC_APB1PeriphResetCmd
  78              	.LVL5:
  79              		.loc 1 250 0
  80 0038 0021     		movs	r1, #0
  81 003a 4FF40040 		mov	r0, #32768
  82              		.loc 1 253 0
  83 003e BDE80840 		pop	{r3, lr}
  84              		.cfi_remember_state
  85              		.cfi_restore 14
  86              		.cfi_restore 3
  87              		.cfi_def_cfa_offset 0
  88              		.loc 1 250 0
  89 0042 FFF7FEBF 		b	RCC_APB1PeriphResetCmd
  90              	.LVL6:
  91              	.L8:
  92              		.cfi_restore_state
  93              		.loc 1 239 0
  94 0046 0121     		movs	r1, #1
  95 0048 4FF48040 		mov	r0, #16384
  96              	.LVL7:
  97 004c FFF7FEFF 		bl	RCC_APB1PeriphResetCmd
  98              	.LVL8:
  99              		.loc 1 241 0
 100 0050 0021     		movs	r1, #0
 101 0052 4FF48040 		mov	r0, #16384
 102              		.loc 1 253 0
 103 0056 BDE80840 		pop	{r3, lr}
 104              		.cfi_restore 14
 105              		.cfi_restore 3
 106              		.cfi_def_cfa_offset 0
 107              		.loc 1 241 0
 108 005a FFF7FEBF 		b	RCC_APB1PeriphResetCmd
 109              	.LVL9:
 110              	.L11:
 111 005e 00BF     		.align	2
 112              	.L10:
 113 0060 00300140 		.word	1073819648
 114 0064 00380040 		.word	1073756160
ARM GAS  /tmp/ccAZvk4J.s 			page 3


 115 0068 003C0040 		.word	1073757184
 116              		.cfi_endproc
 117              	.LFE111:
 118              		.size	SPI_I2S_DeInit, .-SPI_I2S_DeInit
 119              		.section	.text.SPI_Init,"ax",%progbits
 120              		.align	1
 121              		.p2align 4,,15
 122              		.global	SPI_Init
 123              		.syntax unified
 124              		.thumb
 125              		.thumb_func
 126              		.fpu fpv4-sp-d16
 127              		.type	SPI_Init, %function
 128              	SPI_Init:
 129              	.LFB112:
 130              		.loc 1 264 0
 131              		.cfi_startproc
 132              		@ args = 0, pretend = 0, frame = 0
 133              		@ frame_needed = 0, uses_anonymous_args = 0
 134              		@ link register save eliminated.
 135              	.LVL10:
 136              		.loc 1 294 0
 137 0000 0B88     		ldrh	r3, [r1]
 138 0002 8A88     		ldrh	r2, [r1, #4]
 139              		.loc 1 264 0
 140 0004 30B4     		push	{r4, r5}
 141              		.cfi_def_cfa_offset 8
 142              		.cfi_offset 4, -8
 143              		.cfi_offset 5, -4
 144              		.loc 1 294 0
 145 0006 4C88     		ldrh	r4, [r1, #2]
 146 0008 CD88     		ldrh	r5, [r1, #6]
 147 000a 2343     		orrs	r3, r3, r4
 148 000c 1343     		orrs	r3, r3, r2
 149 000e 0C89     		ldrh	r4, [r1, #8]
 150 0010 4A89     		ldrh	r2, [r1, #10]
 151 0012 2B43     		orrs	r3, r3, r5
 152 0014 2343     		orrs	r3, r3, r4
 153 0016 8D89     		ldrh	r5, [r1, #12]
 154 0018 CC89     		ldrh	r4, [r1, #14]
 155              		.loc 1 305 0
 156 001a 098A     		ldrh	r1, [r1, #16]
 157              	.LVL11:
 158              		.loc 1 294 0
 159 001c 1343     		orrs	r3, r3, r2
 160              		.loc 1 283 0
 161 001e 0288     		ldrh	r2, [r0]
 162              	.LVL12:
 163              		.loc 1 294 0
 164 0020 2B43     		orrs	r3, r3, r5
 165 0022 2343     		orrs	r3, r3, r4
 166              		.loc 1 285 0
 167 0024 02F44152 		and	r2, r2, #12352
 168              	.LVL13:
 169              		.loc 1 294 0
 170 0028 1343     		orrs	r3, r3, r2
 171              	.LVL14:
ARM GAS  /tmp/ccAZvk4J.s 			page 4


 172              		.loc 1 299 0
 173 002a 0380     		strh	r3, [r0]	@ movhi
 174              		.loc 1 302 0
 175 002c 838B     		ldrh	r3, [r0, #28]
 176              	.LVL15:
 177 002e 23F40063 		bic	r3, r3, #2048
 178 0032 1B04     		lsls	r3, r3, #16
 179 0034 1B0C     		lsrs	r3, r3, #16
 180 0036 8383     		strh	r3, [r0, #28]	@ movhi
 181              	.LVL16:
 182              		.loc 1 306 0
 183 0038 30BC     		pop	{r4, r5}
 184              		.cfi_restore 5
 185              		.cfi_restore 4
 186              		.cfi_def_cfa_offset 0
 187              	.LVL17:
 188              		.loc 1 305 0
 189 003a 0182     		strh	r1, [r0, #16]	@ movhi
 190              		.loc 1 306 0
 191 003c 7047     		bx	lr
 192              		.cfi_endproc
 193              	.LFE112:
 194              		.size	SPI_Init, .-SPI_Init
 195 003e 00BF     		.section	.text.I2S_Init,"ax",%progbits
 196              		.align	1
 197              		.p2align 4,,15
 198              		.global	I2S_Init
 199              		.syntax unified
 200              		.thumb
 201              		.thumb_func
 202              		.fpu fpv4-sp-d16
 203              		.type	I2S_Init, %function
 204              	I2S_Init:
 205              	.LFB113:
 206              		.loc 1 328 0
 207              		.cfi_startproc
 208              		@ args = 0, pretend = 0, frame = 0
 209              		@ frame_needed = 0, uses_anonymous_args = 0
 210              	.LVL18:
 211              		.loc 1 346 0
 212 0000 828B     		ldrh	r2, [r0, #28]
 213 0002 2F4B     		ldr	r3, .L30
 214 0004 1340     		ands	r3, r3, r2
 215              		.loc 1 347 0
 216 0006 0222     		movs	r2, #2
 217              		.loc 1 328 0
 218 0008 2DE9F041 		push	{r4, r5, r6, r7, r8, lr}
 219              		.cfi_def_cfa_offset 24
 220              		.cfi_offset 4, -24
 221              		.cfi_offset 5, -20
 222              		.cfi_offset 6, -16
 223              		.cfi_offset 7, -12
 224              		.cfi_offset 8, -8
 225              		.cfi_offset 14, -4
 226              		.loc 1 346 0
 227 000c 8383     		strh	r3, [r0, #28]	@ movhi
 228              		.loc 1 353 0
ARM GAS  /tmp/ccAZvk4J.s 			page 5


 229 000e 8E68     		ldr	r6, [r1, #8]
 230              		.loc 1 347 0
 231 0010 0284     		strh	r2, [r0, #32]	@ movhi
 232              		.loc 1 350 0
 233 0012 848B     		ldrh	r4, [r0, #28]
 234 0014 8A88     		ldrh	r2, [r1, #4]
 235 0016 CD88     		ldrh	r5, [r1, #6]
 236              		.loc 1 353 0
 237 0018 022E     		cmp	r6, #2
 238              		.loc 1 350 0
 239 001a A4B2     		uxth	r4, r4
 240              	.LVL19:
 241              		.loc 1 353 0
 242 001c 38D0     		beq	.L21
 243              		.loc 1 389 0
 244 001e 294B     		ldr	r3, .L30+4
 245 0020 9F68     		ldr	r7, [r3, #8]
 246              		.loc 1 370 0
 247 0022 002A     		cmp	r2, #0
 248 0024 0CBF     		ite	eq
 249 0026 4FF0010E 		moveq	lr, #1
 250 002a 4FF0020E 		movne	lr, #2
 251              	.LVL20:
 252              		.loc 1 389 0
 253 002e 3F02     		lsls	r7, r7, #8
 254 0030 3DD4     		bmi	.L28
 255              	.L18:
 256              		.loc 1 395 0
 257 0032 DFF89080 		ldr	r8, .L30+4
 258              		.loc 1 406 0
 259 0036 DFF894C0 		ldr	ip, .L30+12
 260              		.loc 1 395 0
 261 003a D8F88430 		ldr	r3, [r8, #132]
 262              	.LVL21:
 263              		.loc 1 399 0
 264 003e D8F88470 		ldr	r7, [r8, #132]
 265              	.LVL22:
 266              		.loc 1 403 0
 267 0042 D8F80480 		ldr	r8, [r8, #4]
 268              	.LVL23:
 269              		.loc 1 410 0
 270 0046 B5F5007F 		cmp	r5, #512
 271              		.loc 1 395 0
 272 004a C3F38813 		ubfx	r3, r3, #6, #9
 273              	.LVL24:
 274              		.loc 1 399 0
 275 004e C7F30277 		ubfx	r7, r7, #28, #3
 276              	.LVL25:
 277              		.loc 1 403 0
 278 0052 08F03F08 		and	r8, r8, #63
 279              	.LVL26:
 280              		.loc 1 406 0
 281 0056 BCFBF8FC 		udiv	ip, ip, r8
 282 005a 03FB0CF3 		mul	r3, r3, ip
 283 005e B3FBF7F3 		udiv	r3, r3, r7
 284              	.LVL27:
 285              		.loc 1 413 0
ARM GAS  /tmp/ccAZvk4J.s 			page 6


 286 0062 0EBF     		itee	eq
 287 0064 1B0A     		lsreq	r3, r3, #8
 288              	.LVL28:
 289              		.loc 1 418 0
 290 0066 4FEA4E1E 		lslne	lr, lr, #5
 291              	.LVL29:
 292 006a B3FBFEF3 		udivne	r3, r3, lr
 293 006e 03EB8303 		add	r3, r3, r3, lsl #2
 294 0072 5B00     		lsls	r3, r3, #1
 295 0074 B3FBF6F3 		udiv	r3, r3, r6
 296              		.loc 1 422 0
 297 0078 134E     		ldr	r6, .L30+8
 298              		.loc 1 418 0
 299 007a 0533     		adds	r3, r3, #5
 300 007c 9BB2     		uxth	r3, r3
 301              	.LVL30:
 302              		.loc 1 422 0
 303 007e A6FB0363 		umull	r6, r3, r6, r3
 304              	.LVL31:
 305 0082 DB08     		lsrs	r3, r3, #3
 306              	.LVL32:
 307              		.loc 1 428 0
 308 0084 5E08     		lsrs	r6, r3, #1
 309              		.loc 1 435 0
 310 0086 B71E     		subs	r7, r6, #2
 311 0088 FD2F     		cmp	r7, #253
 312              		.loc 1 428 0
 313 008a 03F00103 		and	r3, r3, #1
 314              	.LVL33:
 315              		.loc 1 435 0
 316 008e 13D9     		bls	.L29
 317              	.LVL34:
 318              	.L21:
 319              		.loc 1 370 0
 320 0090 0223     		movs	r3, #2
 321              	.L16:
 322              		.loc 1 446 0
 323 0092 0E88     		ldrh	r6, [r1]
 324 0094 3243     		orrs	r2, r2, r6
 325 0096 4E88     		ldrh	r6, [r1, #2]
 326 0098 8989     		ldrh	r1, [r1, #12]
 327              	.LVL35:
 328 009a 42F40062 		orr	r2, r2, #2048
 329 009e 3243     		orrs	r2, r2, r6
 330 00a0 0A43     		orrs	r2, r2, r1
 331              		.loc 1 443 0
 332 00a2 1D43     		orrs	r5, r5, r3
 333              		.loc 1 446 0
 334 00a4 1443     		orrs	r4, r4, r2
 335              	.LVL36:
 336              		.loc 1 443 0
 337 00a6 0584     		strh	r5, [r0, #32]	@ movhi
 338              		.loc 1 451 0
 339 00a8 8483     		strh	r4, [r0, #28]	@ movhi
 340              		.loc 1 452 0
 341 00aa BDE8F081 		pop	{r4, r5, r6, r7, r8, pc}
 342              	.LVL37:
ARM GAS  /tmp/ccAZvk4J.s 			page 7


 343              	.L28:
 344              		.loc 1 391 0
 345 00ae 9F68     		ldr	r7, [r3, #8]
 346 00b0 27F40007 		bic	r7, r7, #8388608
 347 00b4 9F60     		str	r7, [r3, #8]
 348 00b6 BCE7     		b	.L18
 349              	.LVL38:
 350              	.L29:
 351 00b8 46EA0323 		orr	r3, r6, r3, lsl #8
 352              	.LVL39:
 353 00bc E9E7     		b	.L16
 354              	.L31:
 355 00be 00BF     		.align	2
 356              	.L30:
 357 00c0 40F0FFFF 		.word	-4032
 358 00c4 00380240 		.word	1073887232
 359 00c8 CDCCCCCC 		.word	-858993459
 360 00cc 00127A00 		.word	8000000
 361              		.cfi_endproc
 362              	.LFE113:
 363              		.size	I2S_Init, .-I2S_Init
 364              		.section	.text.SPI_StructInit,"ax",%progbits
 365              		.align	1
 366              		.p2align 4,,15
 367              		.global	SPI_StructInit
 368              		.syntax unified
 369              		.thumb
 370              		.thumb_func
 371              		.fpu fpv4-sp-d16
 372              		.type	SPI_StructInit, %function
 373              	SPI_StructInit:
 374              	.LFB114:
 375              		.loc 1 460 0
 376              		.cfi_startproc
 377              		@ args = 0, pretend = 0, frame = 0
 378              		@ frame_needed = 0, uses_anonymous_args = 0
 379              		@ link register save eliminated.
 380              	.LVL40:
 381              		.loc 1 463 0
 382 0000 0023     		movs	r3, #0
 383              		.loc 1 479 0
 384 0002 0722     		movs	r2, #7
 385 0004 0282     		strh	r2, [r0, #16]	@ movhi
 386              		.loc 1 463 0
 387 0006 0380     		strh	r3, [r0]	@ movhi
 388              		.loc 1 465 0
 389 0008 4380     		strh	r3, [r0, #2]	@ movhi
 390              		.loc 1 467 0
 391 000a 8380     		strh	r3, [r0, #4]	@ movhi
 392              		.loc 1 469 0
 393 000c C380     		strh	r3, [r0, #6]	@ movhi
 394              		.loc 1 471 0
 395 000e 0381     		strh	r3, [r0, #8]	@ movhi
 396              		.loc 1 473 0
 397 0010 4381     		strh	r3, [r0, #10]	@ movhi
 398              		.loc 1 475 0
 399 0012 8381     		strh	r3, [r0, #12]	@ movhi
ARM GAS  /tmp/ccAZvk4J.s 			page 8


 400              		.loc 1 477 0
 401 0014 C381     		strh	r3, [r0, #14]	@ movhi
 402              		.loc 1 480 0
 403 0016 7047     		bx	lr
 404              		.cfi_endproc
 405              	.LFE114:
 406              		.size	SPI_StructInit, .-SPI_StructInit
 407              		.section	.text.I2S_StructInit,"ax",%progbits
 408              		.align	1
 409              		.p2align 4,,15
 410              		.global	I2S_StructInit
 411              		.syntax unified
 412              		.thumb
 413              		.thumb_func
 414              		.fpu fpv4-sp-d16
 415              		.type	I2S_StructInit, %function
 416              	I2S_StructInit:
 417              	.LFB115:
 418              		.loc 1 488 0
 419              		.cfi_startproc
 420              		@ args = 0, pretend = 0, frame = 0
 421              		@ frame_needed = 0, uses_anonymous_args = 0
 422              		@ link register save eliminated.
 423              	.LVL41:
 424              		.loc 1 491 0
 425 0000 0023     		movs	r3, #0
 426              		.loc 1 500 0
 427 0002 0222     		movs	r2, #2
 428 0004 8260     		str	r2, [r0, #8]
 429              		.loc 1 494 0
 430 0006 C0E90033 		strd	r3, r3, [r0]
 431              		.loc 1 503 0
 432 000a 8381     		strh	r3, [r0, #12]	@ movhi
 433              		.loc 1 507 0
 434 000c 7047     		bx	lr
 435              		.cfi_endproc
 436              	.LFE115:
 437              		.size	I2S_StructInit, .-I2S_StructInit
 438 000e 00BF     		.section	.text.SPI_Cmd,"ax",%progbits
 439              		.align	1
 440              		.p2align 4,,15
 441              		.global	SPI_Cmd
 442              		.syntax unified
 443              		.thumb
 444              		.thumb_func
 445              		.fpu fpv4-sp-d16
 446              		.type	SPI_Cmd, %function
 447              	SPI_Cmd:
 448              	.LFB116:
 449              		.loc 1 517 0
 450              		.cfi_startproc
 451              		@ args = 0, pretend = 0, frame = 0
 452              		@ frame_needed = 0, uses_anonymous_args = 0
 453              		@ link register save eliminated.
 454              	.LVL42:
 455              		.loc 1 524 0
 456 0000 0388     		ldrh	r3, [r0]
ARM GAS  /tmp/ccAZvk4J.s 			page 9


 457              		.loc 1 521 0
 458 0002 29B9     		cbnz	r1, .L37
 459              		.loc 1 529 0
 460 0004 23F04003 		bic	r3, r3, #64
 461 0008 1B04     		lsls	r3, r3, #16
 462 000a 1B0C     		lsrs	r3, r3, #16
 463 000c 0380     		strh	r3, [r0]	@ movhi
 464              		.loc 1 531 0
 465 000e 7047     		bx	lr
 466              	.L37:
 467              		.loc 1 524 0
 468 0010 43F04003 		orr	r3, r3, #64
 469 0014 0380     		strh	r3, [r0]	@ movhi
 470 0016 7047     		bx	lr
 471              		.cfi_endproc
 472              	.LFE116:
 473              		.size	SPI_Cmd, .-SPI_Cmd
 474              		.section	.text.I2S_Cmd,"ax",%progbits
 475              		.align	1
 476              		.p2align 4,,15
 477              		.global	I2S_Cmd
 478              		.syntax unified
 479              		.thumb
 480              		.thumb_func
 481              		.fpu fpv4-sp-d16
 482              		.type	I2S_Cmd, %function
 483              	I2S_Cmd:
 484              	.LFB117:
 485              		.loc 1 542 0
 486              		.cfi_startproc
 487              		@ args = 0, pretend = 0, frame = 0
 488              		@ frame_needed = 0, uses_anonymous_args = 0
 489              		@ link register save eliminated.
 490              	.LVL43:
 491              		.loc 1 550 0
 492 0000 838B     		ldrh	r3, [r0, #28]
 493              		.loc 1 547 0
 494 0002 29B9     		cbnz	r1, .L41
 495              		.loc 1 555 0
 496 0004 23F48063 		bic	r3, r3, #1024
 497 0008 1B04     		lsls	r3, r3, #16
 498 000a 1B0C     		lsrs	r3, r3, #16
 499 000c 8383     		strh	r3, [r0, #28]	@ movhi
 500              		.loc 1 557 0
 501 000e 7047     		bx	lr
 502              	.L41:
 503              		.loc 1 550 0
 504 0010 43F48063 		orr	r3, r3, #1024
 505 0014 8383     		strh	r3, [r0, #28]	@ movhi
 506 0016 7047     		bx	lr
 507              		.cfi_endproc
 508              	.LFE117:
 509              		.size	I2S_Cmd, .-I2S_Cmd
 510              		.section	.text.SPI_DataSizeConfig,"ax",%progbits
 511              		.align	1
 512              		.p2align 4,,15
 513              		.global	SPI_DataSizeConfig
ARM GAS  /tmp/ccAZvk4J.s 			page 10


 514              		.syntax unified
 515              		.thumb
 516              		.thumb_func
 517              		.fpu fpv4-sp-d16
 518              		.type	SPI_DataSizeConfig, %function
 519              	SPI_DataSizeConfig:
 520              	.LFB118:
 521              		.loc 1 569 0
 522              		.cfi_startproc
 523              		@ args = 0, pretend = 0, frame = 0
 524              		@ frame_needed = 0, uses_anonymous_args = 0
 525              		@ link register save eliminated.
 526              	.LVL44:
 527              		.loc 1 574 0
 528 0000 0388     		ldrh	r3, [r0]
 529 0002 23F40063 		bic	r3, r3, #2048
 530 0006 1B04     		lsls	r3, r3, #16
 531 0008 1B0C     		lsrs	r3, r3, #16
 532 000a 0380     		strh	r3, [r0]	@ movhi
 533              		.loc 1 576 0
 534 000c 0388     		ldrh	r3, [r0]
 535 000e 1943     		orrs	r1, r1, r3
 536              	.LVL45:
 537 0010 0180     		strh	r1, [r0]	@ movhi
 538              		.loc 1 577 0
 539 0012 7047     		bx	lr
 540              		.cfi_endproc
 541              	.LFE118:
 542              		.size	SPI_DataSizeConfig, .-SPI_DataSizeConfig
 543              		.section	.text.SPI_BiDirectionalLineConfig,"ax",%progbits
 544              		.align	1
 545              		.p2align 4,,15
 546              		.global	SPI_BiDirectionalLineConfig
 547              		.syntax unified
 548              		.thumb
 549              		.thumb_func
 550              		.fpu fpv4-sp-d16
 551              		.type	SPI_BiDirectionalLineConfig, %function
 552              	SPI_BiDirectionalLineConfig:
 553              	.LFB119:
 554              		.loc 1 589 0
 555              		.cfi_startproc
 556              		@ args = 0, pretend = 0, frame = 0
 557              		@ frame_needed = 0, uses_anonymous_args = 0
 558              		@ link register save eliminated.
 559              	.LVL46:
 560              		.loc 1 596 0
 561 0000 0388     		ldrh	r3, [r0]
 562              		.loc 1 593 0
 563 0002 B1F5804F 		cmp	r1, #16384
 564              		.loc 1 601 0
 565 0006 1BBF     		ittet	ne
 566 0008 23F48043 		bicne	r3, r3, #16384
 567 000c 1B04     		lslne	r3, r3, #16
 568              		.loc 1 596 0
 569 000e 43F48043 		orreq	r3, r3, #16384
 570              		.loc 1 601 0
ARM GAS  /tmp/ccAZvk4J.s 			page 11


 571 0012 1B0C     		lsrne	r3, r3, #16
 572 0014 0380     		strh	r3, [r0]	@ movhi
 573              		.loc 1 603 0
 574 0016 7047     		bx	lr
 575              		.cfi_endproc
 576              	.LFE119:
 577              		.size	SPI_BiDirectionalLineConfig, .-SPI_BiDirectionalLineConfig
 578              		.section	.text.SPI_NSSInternalSoftwareConfig,"ax",%progbits
 579              		.align	1
 580              		.p2align 4,,15
 581              		.global	SPI_NSSInternalSoftwareConfig
 582              		.syntax unified
 583              		.thumb
 584              		.thumb_func
 585              		.fpu fpv4-sp-d16
 586              		.type	SPI_NSSInternalSoftwareConfig, %function
 587              	SPI_NSSInternalSoftwareConfig:
 588              	.LFB120:
 589              		.loc 1 615 0
 590              		.cfi_startproc
 591              		@ args = 0, pretend = 0, frame = 0
 592              		@ frame_needed = 0, uses_anonymous_args = 0
 593              		@ link register save eliminated.
 594              	.LVL47:
 595              		.loc 1 619 0
 596 0000 4FF6FF63 		movw	r3, #65279
 597 0004 9942     		cmp	r1, r3
 598              		.loc 1 622 0
 599 0006 0388     		ldrh	r3, [r0]
 600              		.loc 1 627 0
 601 0008 05BF     		ittet	eq
 602 000a 23F48073 		biceq	r3, r3, #256
 603 000e 1B04     		lsleq	r3, r3, #16
 604              		.loc 1 622 0
 605 0010 43F48073 		orrne	r3, r3, #256
 606              		.loc 1 627 0
 607 0014 1B0C     		lsreq	r3, r3, #16
 608 0016 0380     		strh	r3, [r0]	@ movhi
 609              		.loc 1 629 0
 610 0018 7047     		bx	lr
 611              		.cfi_endproc
 612              	.LFE120:
 613              		.size	SPI_NSSInternalSoftwareConfig, .-SPI_NSSInternalSoftwareConfig
 614 001a 00BF     		.section	.text.SPI_SSOutputCmd,"ax",%progbits
 615              		.align	1
 616              		.p2align 4,,15
 617              		.global	SPI_SSOutputCmd
 618              		.syntax unified
 619              		.thumb
 620              		.thumb_func
 621              		.fpu fpv4-sp-d16
 622              		.type	SPI_SSOutputCmd, %function
 623              	SPI_SSOutputCmd:
 624              	.LFB121:
 625              		.loc 1 639 0
 626              		.cfi_startproc
 627              		@ args = 0, pretend = 0, frame = 0
ARM GAS  /tmp/ccAZvk4J.s 			page 12


 628              		@ frame_needed = 0, uses_anonymous_args = 0
 629              		@ link register save eliminated.
 630              	.LVL48:
 631              		.loc 1 646 0
 632 0000 8388     		ldrh	r3, [r0, #4]
 633              		.loc 1 643 0
 634 0002 29B9     		cbnz	r1, .L52
 635              		.loc 1 651 0
 636 0004 23F00403 		bic	r3, r3, #4
 637 0008 1B04     		lsls	r3, r3, #16
 638 000a 1B0C     		lsrs	r3, r3, #16
 639 000c 8380     		strh	r3, [r0, #4]	@ movhi
 640              		.loc 1 653 0
 641 000e 7047     		bx	lr
 642              	.L52:
 643              		.loc 1 646 0
 644 0010 43F00403 		orr	r3, r3, #4
 645 0014 8380     		strh	r3, [r0, #4]	@ movhi
 646 0016 7047     		bx	lr
 647              		.cfi_endproc
 648              	.LFE121:
 649              		.size	SPI_SSOutputCmd, .-SPI_SSOutputCmd
 650              		.section	.text.SPI_TIModeCmd,"ax",%progbits
 651              		.align	1
 652              		.p2align 4,,15
 653              		.global	SPI_TIModeCmd
 654              		.syntax unified
 655              		.thumb
 656              		.thumb_func
 657              		.fpu fpv4-sp-d16
 658              		.type	SPI_TIModeCmd, %function
 659              	SPI_TIModeCmd:
 660              	.LFB122:
 661              		.loc 1 670 0
 662              		.cfi_startproc
 663              		@ args = 0, pretend = 0, frame = 0
 664              		@ frame_needed = 0, uses_anonymous_args = 0
 665              		@ link register save eliminated.
 666              	.LVL49:
 667              		.loc 1 678 0
 668 0000 8388     		ldrh	r3, [r0, #4]
 669              		.loc 1 675 0
 670 0002 29B9     		cbnz	r1, .L56
 671              		.loc 1 683 0
 672 0004 23F01003 		bic	r3, r3, #16
 673 0008 1B04     		lsls	r3, r3, #16
 674 000a 1B0C     		lsrs	r3, r3, #16
 675 000c 8380     		strh	r3, [r0, #4]	@ movhi
 676              		.loc 1 685 0
 677 000e 7047     		bx	lr
 678              	.L56:
 679              		.loc 1 678 0
 680 0010 43F01003 		orr	r3, r3, #16
 681 0014 8380     		strh	r3, [r0, #4]	@ movhi
 682 0016 7047     		bx	lr
 683              		.cfi_endproc
 684              	.LFE122:
ARM GAS  /tmp/ccAZvk4J.s 			page 13


 685              		.size	SPI_TIModeCmd, .-SPI_TIModeCmd
 686              		.section	.text.I2S_FullDuplexConfig,"ax",%progbits
 687              		.align	1
 688              		.p2align 4,,15
 689              		.global	I2S_FullDuplexConfig
 690              		.syntax unified
 691              		.thumb
 692              		.thumb_func
 693              		.fpu fpv4-sp-d16
 694              		.type	I2S_FullDuplexConfig, %function
 695              	I2S_FullDuplexConfig:
 696              	.LFB123:
 697              		.loc 1 707 0
 698              		.cfi_startproc
 699              		@ args = 0, pretend = 0, frame = 0
 700              		@ frame_needed = 0, uses_anonymous_args = 0
 701              		@ link register save eliminated.
 702              	.LVL50:
 703 0000 30B4     		push	{r4, r5}
 704              		.cfi_def_cfa_offset 8
 705              		.cfi_offset 4, -8
 706              		.cfi_offset 5, -4
 707              		.loc 1 719 0
 708 0002 0E4A     		ldr	r2, .L61
 709 0004 858B     		ldrh	r5, [r0, #28]
 710 0006 8C88     		ldrh	r4, [r1, #4]
 711 0008 4B88     		ldrh	r3, [r1, #2]
 712 000a 2A40     		ands	r2, r2, r5
 713 000c 8283     		strh	r2, [r0, #28]	@ movhi
 714              		.loc 1 720 0
 715 000e 0225     		movs	r5, #2
 716              		.loc 1 726 0
 717 0010 0A88     		ldrh	r2, [r1]
 718              		.loc 1 720 0
 719 0012 0584     		strh	r5, [r0, #32]	@ movhi
 720 0014 2343     		orrs	r3, r3, r4
 721 0016 8C89     		ldrh	r4, [r1, #12]
 722              		.loc 1 723 0
 723 0018 818B     		ldrh	r1, [r0, #28]
 724              	.LVL51:
 725              		.loc 1 726 0
 726 001a 22F40072 		bic	r2, r2, #512
 727 001e 43F40063 		orr	r3, r3, #2048
 728 0022 2343     		orrs	r3, r3, r4
 729 0024 002A     		cmp	r2, #0
 730 0026 43EA0103 		orr	r3, r3, r1
 731              		.loc 1 734 0
 732 002a 0CBF     		ite	eq
 733 002c 4FF48072 		moveq	r2, #256
 734 0030 0022     		movne	r2, #0
 735              	.LVL52:
 736              		.loc 1 740 0
 737 0032 1343     		orrs	r3, r3, r2
 738              	.LVL53:
 739              		.loc 1 745 0
 740 0034 8383     		strh	r3, [r0, #28]	@ movhi
 741              		.loc 1 746 0
ARM GAS  /tmp/ccAZvk4J.s 			page 14


 742 0036 30BC     		pop	{r4, r5}
 743              		.cfi_restore 5
 744              		.cfi_restore 4
 745              		.cfi_def_cfa_offset 0
 746 0038 7047     		bx	lr
 747              	.L62:
 748 003a 00BF     		.align	2
 749              	.L61:
 750 003c 40F0FFFF 		.word	-4032
 751              		.cfi_endproc
 752              	.LFE123:
 753              		.size	I2S_FullDuplexConfig, .-I2S_FullDuplexConfig
 754              		.section	.text.SPI_I2S_ReceiveData,"ax",%progbits
 755              		.align	1
 756              		.p2align 4,,15
 757              		.global	SPI_I2S_ReceiveData
 758              		.syntax unified
 759              		.thumb
 760              		.thumb_func
 761              		.fpu fpv4-sp-d16
 762              		.type	SPI_I2S_ReceiveData, %function
 763              	SPI_I2S_ReceiveData:
 764              	.LFB124:
 765              		.loc 1 782 0
 766              		.cfi_startproc
 767              		@ args = 0, pretend = 0, frame = 0
 768              		@ frame_needed = 0, uses_anonymous_args = 0
 769              		@ link register save eliminated.
 770              	.LVL54:
 771              		.loc 1 787 0
 772 0000 8089     		ldrh	r0, [r0, #12]
 773              	.LVL55:
 774              		.loc 1 788 0
 775 0002 7047     		bx	lr
 776              		.cfi_endproc
 777              	.LFE124:
 778              		.size	SPI_I2S_ReceiveData, .-SPI_I2S_ReceiveData
 779              		.section	.text.SPI_I2S_SendData,"ax",%progbits
 780              		.align	1
 781              		.p2align 4,,15
 782              		.global	SPI_I2S_SendData
 783              		.syntax unified
 784              		.thumb
 785              		.thumb_func
 786              		.fpu fpv4-sp-d16
 787              		.type	SPI_I2S_SendData, %function
 788              	SPI_I2S_SendData:
 789              	.LFB125:
 790              		.loc 1 798 0
 791              		.cfi_startproc
 792              		@ args = 0, pretend = 0, frame = 0
 793              		@ frame_needed = 0, uses_anonymous_args = 0
 794              		@ link register save eliminated.
 795              	.LVL56:
 796              		.loc 1 803 0
 797 0000 8181     		strh	r1, [r0, #12]	@ movhi
 798              		.loc 1 804 0
ARM GAS  /tmp/ccAZvk4J.s 			page 15


 799 0002 7047     		bx	lr
 800              		.cfi_endproc
 801              	.LFE125:
 802              		.size	SPI_I2S_SendData, .-SPI_I2S_SendData
 803              		.section	.text.SPI_CalculateCRC,"ax",%progbits
 804              		.align	1
 805              		.p2align 4,,15
 806              		.global	SPI_CalculateCRC
 807              		.syntax unified
 808              		.thumb
 809              		.thumb_func
 810              		.fpu fpv4-sp-d16
 811              		.type	SPI_CalculateCRC, %function
 812              	SPI_CalculateCRC:
 813              	.LFB126:
 814              		.loc 1 887 0
 815              		.cfi_startproc
 816              		@ args = 0, pretend = 0, frame = 0
 817              		@ frame_needed = 0, uses_anonymous_args = 0
 818              		@ link register save eliminated.
 819              	.LVL57:
 820              		.loc 1 894 0
 821 0000 0388     		ldrh	r3, [r0]
 822              		.loc 1 891 0
 823 0002 29B9     		cbnz	r1, .L68
 824              		.loc 1 899 0
 825 0004 23F40053 		bic	r3, r3, #8192
 826 0008 1B04     		lsls	r3, r3, #16
 827 000a 1B0C     		lsrs	r3, r3, #16
 828 000c 0380     		strh	r3, [r0]	@ movhi
 829              		.loc 1 901 0
 830 000e 7047     		bx	lr
 831              	.L68:
 832              		.loc 1 894 0
 833 0010 43F40053 		orr	r3, r3, #8192
 834 0014 0380     		strh	r3, [r0]	@ movhi
 835 0016 7047     		bx	lr
 836              		.cfi_endproc
 837              	.LFE126:
 838              		.size	SPI_CalculateCRC, .-SPI_CalculateCRC
 839              		.section	.text.SPI_TransmitCRC,"ax",%progbits
 840              		.align	1
 841              		.p2align 4,,15
 842              		.global	SPI_TransmitCRC
 843              		.syntax unified
 844              		.thumb
 845              		.thumb_func
 846              		.fpu fpv4-sp-d16
 847              		.type	SPI_TransmitCRC, %function
 848              	SPI_TransmitCRC:
 849              	.LFB127:
 850              		.loc 1 909 0
 851              		.cfi_startproc
 852              		@ args = 0, pretend = 0, frame = 0
 853              		@ frame_needed = 0, uses_anonymous_args = 0
 854              		@ link register save eliminated.
 855              	.LVL58:
ARM GAS  /tmp/ccAZvk4J.s 			page 16


 856              		.loc 1 914 0
 857 0000 0388     		ldrh	r3, [r0]
 858 0002 43F48053 		orr	r3, r3, #4096
 859 0006 0380     		strh	r3, [r0]	@ movhi
 860              		.loc 1 915 0
 861 0008 7047     		bx	lr
 862              		.cfi_endproc
 863              	.LFE127:
 864              		.size	SPI_TransmitCRC, .-SPI_TransmitCRC
 865 000a 00BF     		.section	.text.SPI_GetCRC,"ax",%progbits
 866              		.align	1
 867              		.p2align 4,,15
 868              		.global	SPI_GetCRC
 869              		.syntax unified
 870              		.thumb
 871              		.thumb_func
 872              		.fpu fpv4-sp-d16
 873              		.type	SPI_GetCRC, %function
 874              	SPI_GetCRC:
 875              	.LFB128:
 876              		.loc 1 927 0
 877              		.cfi_startproc
 878              		@ args = 0, pretend = 0, frame = 0
 879              		@ frame_needed = 0, uses_anonymous_args = 0
 880              		@ link register save eliminated.
 881              	.LVL59:
 882              		.loc 1 932 0
 883 0000 0129     		cmp	r1, #1
 884              		.loc 1 935 0
 885 0002 14BF     		ite	ne
 886 0004 008B     		ldrhne	r0, [r0, #24]
 887              	.LVL60:
 888              		.loc 1 940 0
 889 0006 808A     		ldrheq	r0, [r0, #20]
 890 0008 80B2     		uxth	r0, r0
 891              	.LVL61:
 892              		.loc 1 944 0
 893 000a 7047     		bx	lr
 894              		.cfi_endproc
 895              	.LFE128:
 896              		.size	SPI_GetCRC, .-SPI_GetCRC
 897              		.section	.text.SPI_GetCRCPolynomial,"ax",%progbits
 898              		.align	1
 899              		.p2align 4,,15
 900              		.global	SPI_GetCRCPolynomial
 901              		.syntax unified
 902              		.thumb
 903              		.thumb_func
 904              		.fpu fpv4-sp-d16
 905              		.type	SPI_GetCRCPolynomial, %function
 906              	SPI_GetCRCPolynomial:
 907              	.LFB129:
 908              		.loc 1 952 0
 909              		.cfi_startproc
 910              		@ args = 0, pretend = 0, frame = 0
 911              		@ frame_needed = 0, uses_anonymous_args = 0
 912              		@ link register save eliminated.
ARM GAS  /tmp/ccAZvk4J.s 			page 17


 913              	.LVL62:
 914              		.loc 1 957 0
 915 0000 008A     		ldrh	r0, [r0, #16]
 916              	.LVL63:
 917              		.loc 1 958 0
 918 0002 7047     		bx	lr
 919              		.cfi_endproc
 920              	.LFE129:
 921              		.size	SPI_GetCRCPolynomial, .-SPI_GetCRCPolynomial
 922              		.section	.text.SPI_I2S_DMACmd,"ax",%progbits
 923              		.align	1
 924              		.p2align 4,,15
 925              		.global	SPI_I2S_DMACmd
 926              		.syntax unified
 927              		.thumb
 928              		.thumb_func
 929              		.fpu fpv4-sp-d16
 930              		.type	SPI_I2S_DMACmd, %function
 931              	SPI_I2S_DMACmd:
 932              	.LFB130:
 933              		.loc 1 989 0
 934              		.cfi_startproc
 935              		@ args = 0, pretend = 0, frame = 0
 936              		@ frame_needed = 0, uses_anonymous_args = 0
 937              		@ link register save eliminated.
 938              	.LVL64:
 939              		.loc 1 998 0
 940 0000 8388     		ldrh	r3, [r0, #4]
 941              		.loc 1 995 0
 942 0002 1AB9     		cbnz	r2, .L77
 943              		.loc 1 1003 0
 944 0004 23EA0101 		bic	r1, r3, r1
 945              	.LVL65:
 946 0008 8180     		strh	r1, [r0, #4]	@ movhi
 947              		.loc 1 1005 0
 948 000a 7047     		bx	lr
 949              	.LVL66:
 950              	.L77:
 951              		.loc 1 998 0
 952 000c 1943     		orrs	r1, r1, r3
 953              	.LVL67:
 954 000e 8180     		strh	r1, [r0, #4]	@ movhi
 955 0010 7047     		bx	lr
 956              		.cfi_endproc
 957              	.LFE130:
 958              		.size	SPI_I2S_DMACmd, .-SPI_I2S_DMACmd
 959              		.section	.text.SPI_I2S_ITConfig,"ax",%progbits
 960              		.align	1
 961              		.p2align 4,,15
 962              		.global	SPI_I2S_ITConfig
 963              		.syntax unified
 964              		.thumb
 965              		.thumb_func
 966              		.fpu fpv4-sp-d16
 967              		.type	SPI_I2S_ITConfig, %function
 968              	SPI_I2S_ITConfig:
 969              	.LFB131:
ARM GAS  /tmp/ccAZvk4J.s 			page 18


 970              		.loc 1 1098 0
 971              		.cfi_startproc
 972              		@ args = 0, pretend = 0, frame = 0
 973              		@ frame_needed = 0, uses_anonymous_args = 0
 974              		@ link register save eliminated.
 975              	.LVL68:
 976              		.loc 1 1110 0
 977 0000 0123     		movs	r3, #1
 978 0002 0909     		lsrs	r1, r1, #4
 979              	.LVL69:
 980 0004 03FA01F1 		lsl	r1, r3, r1
 981 0008 89B2     		uxth	r1, r1
 982              	.LVL70:
 983              		.loc 1 1115 0
 984 000a 8388     		ldrh	r3, [r0, #4]
 985              		.loc 1 1112 0
 986 000c 1AB9     		cbnz	r2, .L81
 987              		.loc 1 1120 0
 988 000e 23EA0101 		bic	r1, r3, r1
 989              	.LVL71:
 990 0012 8180     		strh	r1, [r0, #4]	@ movhi
 991              		.loc 1 1122 0
 992 0014 7047     		bx	lr
 993              	.LVL72:
 994              	.L81:
 995              		.loc 1 1115 0
 996 0016 1943     		orrs	r1, r1, r3
 997              	.LVL73:
 998 0018 8180     		strh	r1, [r0, #4]	@ movhi
 999 001a 7047     		bx	lr
 1000              		.cfi_endproc
 1001              	.LFE131:
 1002              		.size	SPI_I2S_ITConfig, .-SPI_I2S_ITConfig
 1003              		.section	.text.SPI_I2S_GetFlagStatus,"ax",%progbits
 1004              		.align	1
 1005              		.p2align 4,,15
 1006              		.global	SPI_I2S_GetFlagStatus
 1007              		.syntax unified
 1008              		.thumb
 1009              		.thumb_func
 1010              		.fpu fpv4-sp-d16
 1011              		.type	SPI_I2S_GetFlagStatus, %function
 1012              	SPI_I2S_GetFlagStatus:
 1013              	.LFB132:
 1014              		.loc 1 1142 0
 1015              		.cfi_startproc
 1016              		@ args = 0, pretend = 0, frame = 0
 1017              		@ frame_needed = 0, uses_anonymous_args = 0
 1018              		@ link register save eliminated.
 1019              	.LVL74:
 1020              		.loc 1 1149 0
 1021 0000 0389     		ldrh	r3, [r0, #8]
 1022              	.LVL75:
 1023 0002 1942     		tst	r1, r3
 1024              		.loc 1 1161 0
 1025 0004 14BF     		ite	ne
 1026 0006 0120     		movne	r0, #1
ARM GAS  /tmp/ccAZvk4J.s 			page 19


 1027              	.LVL76:
 1028 0008 0020     		moveq	r0, #0
 1029 000a 7047     		bx	lr
 1030              		.cfi_endproc
 1031              	.LFE132:
 1032              		.size	SPI_I2S_GetFlagStatus, .-SPI_I2S_GetFlagStatus
 1033              		.section	.text.SPI_I2S_ClearFlag,"ax",%progbits
 1034              		.align	1
 1035              		.p2align 4,,15
 1036              		.global	SPI_I2S_ClearFlag
 1037              		.syntax unified
 1038              		.thumb
 1039              		.thumb_func
 1040              		.fpu fpv4-sp-d16
 1041              		.type	SPI_I2S_ClearFlag, %function
 1042              	SPI_I2S_ClearFlag:
 1043              	.LFB133:
 1044              		.loc 1 1183 0
 1045              		.cfi_startproc
 1046              		@ args = 0, pretend = 0, frame = 0
 1047              		@ frame_needed = 0, uses_anonymous_args = 0
 1048              		@ link register save eliminated.
 1049              	.LVL77:
 1050              		.loc 1 1189 0
 1051 0000 C943     		mvns	r1, r1
 1052              	.LVL78:
 1053 0002 89B2     		uxth	r1, r1
 1054 0004 0181     		strh	r1, [r0, #8]	@ movhi
 1055              		.loc 1 1190 0
 1056 0006 7047     		bx	lr
 1057              		.cfi_endproc
 1058              	.LFE133:
 1059              		.size	SPI_I2S_ClearFlag, .-SPI_I2S_ClearFlag
 1060              		.section	.text.SPI_I2S_GetITStatus,"ax",%progbits
 1061              		.align	1
 1062              		.p2align 4,,15
 1063              		.global	SPI_I2S_GetITStatus
 1064              		.syntax unified
 1065              		.thumb
 1066              		.thumb_func
 1067              		.fpu fpv4-sp-d16
 1068              		.type	SPI_I2S_GetITStatus, %function
 1069              	SPI_I2S_GetITStatus:
 1070              	.LFB134:
 1071              		.loc 1 1208 0
 1072              		.cfi_startproc
 1073              		@ args = 0, pretend = 0, frame = 0
 1074              		@ frame_needed = 0, uses_anonymous_args = 0
 1075              		@ link register save eliminated.
 1076              	.LVL79:
 1077              		.loc 1 1226 0
 1078 0000 8288     		ldrh	r2, [r0, #4]
 1079              		.loc 1 1208 0
 1080 0002 10B4     		push	{r4}
 1081              		.cfi_def_cfa_offset 4
 1082              		.cfi_offset 4, -4
 1083              		.loc 1 1217 0
ARM GAS  /tmp/ccAZvk4J.s 			page 20


 1084 0004 0123     		movs	r3, #1
 1085              		.loc 1 1229 0
 1086 0006 0489     		ldrh	r4, [r0, #8]
 1087              		.loc 1 1217 0
 1088 0008 01F00F00 		and	r0, r1, #15
 1089              	.LVL80:
 1090 000c 03FA00F0 		lsl	r0, r3, r0
 1091              	.LVL81:
 1092              		.loc 1 1229 0
 1093 0010 2040     		ands	r0, r0, r4
 1094 0012 06D0     		beq	.L85
 1095              		.loc 1 1223 0 discriminator 1
 1096 0014 0909     		lsrs	r1, r1, #4
 1097              	.LVL82:
 1098 0016 92B2     		uxth	r2, r2
 1099 0018 8B40     		lsls	r3, r3, r1
 1100              		.loc 1 1229 0 discriminator 1
 1101 001a 1A42     		tst	r2, r3
 1102              		.loc 1 1232 0 discriminator 1
 1103 001c 14BF     		ite	ne
 1104 001e 0120     		movne	r0, #1
 1105 0020 0020     		moveq	r0, #0
 1106              	.LVL83:
 1107              	.L85:
 1108              		.loc 1 1241 0
 1109 0022 5DF8044B 		ldr	r4, [sp], #4
 1110              		.cfi_restore 4
 1111              		.cfi_def_cfa_offset 0
 1112 0026 7047     		bx	lr
 1113              		.cfi_endproc
 1114              	.LFE134:
 1115              		.size	SPI_I2S_GetITStatus, .-SPI_I2S_GetITStatus
 1116              		.section	.text.SPI_I2S_ClearITPendingBit,"ax",%progbits
 1117              		.align	1
 1118              		.p2align 4,,15
 1119              		.global	SPI_I2S_ClearITPendingBit
 1120              		.syntax unified
 1121              		.thumb
 1122              		.thumb_func
 1123              		.fpu fpv4-sp-d16
 1124              		.type	SPI_I2S_ClearITPendingBit, %function
 1125              	SPI_I2S_ClearITPendingBit:
 1126              	.LFB135:
 1127              		.loc 1 1263 0
 1128              		.cfi_startproc
 1129              		@ args = 0, pretend = 0, frame = 0
 1130              		@ frame_needed = 0, uses_anonymous_args = 0
 1131              		@ link register save eliminated.
 1132              	.LVL84:
 1133              		.loc 1 1270 0
 1134 0000 01F00F01 		and	r1, r1, #15
 1135              	.LVL85:
 1136 0004 0123     		movs	r3, #1
 1137 0006 03FA01F1 		lsl	r1, r3, r1
 1138              		.loc 1 1273 0
 1139 000a C943     		mvns	r1, r1
 1140 000c 89B2     		uxth	r1, r1
ARM GAS  /tmp/ccAZvk4J.s 			page 21


 1141 000e 0181     		strh	r1, [r0, #8]	@ movhi
 1142              		.loc 1 1274 0
 1143 0010 7047     		bx	lr
 1144              		.cfi_endproc
 1145              	.LFE135:
 1146              		.size	SPI_I2S_ClearITPendingBit, .-SPI_I2S_ClearITPendingBit
 1147 0012 00BF     		.text
 1148              	.Letext0:
 1149              		.file 2 "/usr/arm-none-eabi/include/machine/_default_types.h"
 1150              		.file 3 "/usr/arm-none-eabi/include/sys/_stdint.h"
 1151              		.file 4 "ChibiOS_2.6.6/os/hal/platforms/STM32F4xx/stm32f4xx.h"
 1152              		.file 5 "ChibiOS_2.6.6/ext/stdperiph_stm32f4/inc/stm32f4xx_spi.h"
 1153              		.file 6 "ChibiOS_2.6.6/ext/stdperiph_stm32f4/inc/stm32f4xx_rcc.h"
 1154              		.file 7 "ChibiOS_2.6.6/os/ports/common/ARMCMx/CMSIS/include/core_cm4.h"