ARM GAS  /tmp/ccyqJ3iz.s 			page 1


   1              		.cpu cortex-m4
   2              		.eabi_attribute 27, 1
   3              		.eabi_attribute 28, 1
   4              		.eabi_attribute 20, 1
   5              		.eabi_attribute 21, 1
   6              		.eabi_attribute 23, 3
   7              		.eabi_attribute 24, 1
   8              		.eabi_attribute 25, 1
   9              		.eabi_attribute 26, 1
  10              		.eabi_attribute 30, 2
  11              		.eabi_attribute 34, 1
  12              		.eabi_attribute 18, 4
  13              		.file	"stm32f4xx_hash_sha1.c"
  14              		.text
  15              	.Ltext0:
  16              		.cfi_sections	.debug_frame
  17              		.section	.text.HASH_SHA1,"ax",%progbits
  18              		.align	1
  19              		.p2align 4,,15
  20              		.global	HASH_SHA1
  21              		.syntax unified
  22              		.thumb
  23              		.thumb_func
  24              		.fpu fpv4-sp-d16
  25              		.type	HASH_SHA1, %function
  26              	HASH_SHA1:
  27              	.LFB111:
  28              		.file 1 "ChibiOS_2.6.6/ext/stdperiph_stm32f4/src/stm32f4xx_hash_sha1.c"
  29              		.loc 1 94 0
  30              		.cfi_startproc
  31              		@ args = 0, pretend = 0, frame = 48
  32              		@ frame_needed = 0, uses_anonymous_args = 0
  33              	.LVL0:
  34 0000 F0B5     		push	{r4, r5, r6, r7, lr}
  35              		.cfi_def_cfa_offset 20
  36              		.cfi_offset 4, -20
  37              		.cfi_offset 5, -16
  38              		.cfi_offset 6, -12
  39              		.cfi_offset 7, -8
  40              		.cfi_offset 14, -4
  41              		.loc 1 106 0
  42 0002 01F00303 		and	r3, r1, #3
  43              		.loc 1 94 0
  44 0006 8DB0     		sub	sp, sp, #52
  45              		.cfi_def_cfa_offset 72
  46              		.loc 1 106 0
  47 0008 DB00     		lsls	r3, r3, #3
  48              		.loc 1 97 0
  49 000a 0024     		movs	r4, #0
  50              		.loc 1 94 0
  51 000c 0D46     		mov	r5, r1
  52              		.loc 1 97 0
  53 000e ADF80640 		strh	r4, [sp, #6]	@ movhi
  54              	.LVL1:
  55              		.loc 1 94 0
  56 0012 0746     		mov	r7, r0
  57 0014 1646     		mov	r6, r2
ARM GAS  /tmp/ccyqJ3iz.s 			page 2


  58              		.loc 1 99 0
  59 0016 0294     		str	r4, [sp, #8]
  60              	.LVL2:
  61              		.loc 1 106 0
  62 0018 ADF80630 		strh	r3, [sp, #6]	@ movhi
  63              		.loc 1 109 0
  64 001c FFF7FEFF 		bl	HASH_DeInit
  65              	.LVL3:
  66              		.loc 1 114 0
  67 0020 2023     		movs	r3, #32
  68              		.loc 1 115 0
  69 0022 03A8     		add	r0, sp, #12
  70              		.loc 1 113 0
  71 0024 CDE90344 		strd	r4, r4, [sp, #12]
  72              		.loc 1 114 0
  73 0028 0593     		str	r3, [sp, #20]
  74              		.loc 1 115 0
  75 002a FFF7FEFF 		bl	HASH_Init
  76              	.LVL4:
  77              		.loc 1 118 0
  78 002e BDF80600 		ldrh	r0, [sp, #6]
  79 0032 FFF7FEFF 		bl	HASH_SetLastWordValidBitsNbr
  80              	.LVL5:
  81              		.loc 1 121 0
  82 0036 3DB1     		cbz	r5, .L2
  83              		.loc 1 102 0
  84 0038 3C46     		mov	r4, r7
  85              	.LVL6:
  86              	.L3:
  87              		.loc 1 123 0 discriminator 3
  88 003a 54F8040B 		ldr	r0, [r4], #4
  89              	.LVL7:
  90 003e FFF7FEFF 		bl	HASH_DataIn
  91              	.LVL8:
  92              		.loc 1 121 0 discriminator 3
  93 0042 E31B     		subs	r3, r4, r7
  94 0044 AB42     		cmp	r3, r5
  95 0046 F8D3     		bcc	.L3
  96              	.LVL9:
  97              	.L2:
  98              		.loc 1 128 0
  99 0048 FFF7FEFF 		bl	HASH_StartDigest
 100              	.LVL10:
 101 004c 00E0     		b	.L5
 102              	.LVL11:
 103              	.L16:
 104              		.loc 1 135 0 discriminator 1
 105 004e 68B1     		cbz	r0, .L6
 106              	.LVL12:
 107              	.L5:
 108              		.loc 1 133 0 discriminator 2
 109 0050 0820     		movs	r0, #8
 110 0052 FFF7FEFF 		bl	HASH_GetFlagStatus
 111              	.LVL13:
 112              		.loc 1 134 0 discriminator 2
 113 0056 029B     		ldr	r3, [sp, #8]
 114 0058 0133     		adds	r3, r3, #1
ARM GAS  /tmp/ccyqJ3iz.s 			page 3


 115 005a 0293     		str	r3, [sp, #8]
 116              		.loc 1 135 0 discriminator 2
 117 005c 029B     		ldr	r3, [sp, #8]
 118 005e B3F5803F 		cmp	r3, #65536
 119 0062 F4D1     		bne	.L16
 120              		.loc 1 137 0
 121 0064 10B1     		cbz	r0, .L6
 122              		.loc 1 139 0
 123 0066 0020     		movs	r0, #0
 124              	.LVL14:
 125              		.loc 1 156 0
 126 0068 0DB0     		add	sp, sp, #52
 127              		.cfi_remember_state
 128              		.cfi_def_cfa_offset 20
 129              		@ sp needed
 130 006a F0BD     		pop	{r4, r5, r6, r7, pc}
 131              	.LVL15:
 132              	.L6:
 133              		.cfi_restore_state
 134              		.loc 1 144 0
 135 006c 07A8     		add	r0, sp, #28
 136              	.LVL16:
 137 006e FFF7FEFF 		bl	HASH_GetDigest
 138              	.LVL17:
 139              	.LBB22:
 140              	.LBB23:
 141              		.file 2 "ChibiOS_2.6.6/os/ports/common/ARMCMx/CMSIS/include/core_cmInstr.h"
 142              		.loc 2 369 0
 143 0072 079B     		ldr	r3, [sp, #28]
 144              		.syntax unified
 145              	@ 369 "ChibiOS_2.6.6/os/ports/common/ARMCMx/CMSIS/include/core_cmInstr.h" 1
 146 0074 1BBA     		rev r3, r3
 147              	@ 0 "" 2
 148              	.LVL18:
 149              		.thumb
 150              		.syntax unified
 151              	.LBE23:
 152              	.LBE22:
 153              		.loc 1 145 0
 154 0076 3360     		str	r3, [r6]
 155              	.LVL19:
 156              	.LBB24:
 157              	.LBB25:
 158              		.loc 2 369 0
 159 0078 089B     		ldr	r3, [sp, #32]
 160              		.syntax unified
 161              	@ 369 "ChibiOS_2.6.6/os/ports/common/ARMCMx/CMSIS/include/core_cmInstr.h" 1
 162 007a 1BBA     		rev r3, r3
 163              	@ 0 "" 2
 164              	.LVL20:
 165              		.thumb
 166              		.syntax unified
 167              	.LBE25:
 168              	.LBE24:
 169              		.loc 1 147 0
 170 007c 7360     		str	r3, [r6, #4]
 171              	.LVL21:
ARM GAS  /tmp/ccyqJ3iz.s 			page 4


 172              	.LBB26:
 173              	.LBB27:
 174              		.loc 2 369 0
 175 007e 099B     		ldr	r3, [sp, #36]
 176              		.syntax unified
 177              	@ 369 "ChibiOS_2.6.6/os/ports/common/ARMCMx/CMSIS/include/core_cmInstr.h" 1
 178 0080 1BBA     		rev r3, r3
 179              	@ 0 "" 2
 180              	.LVL22:
 181              		.thumb
 182              		.syntax unified
 183              	.LBE27:
 184              	.LBE26:
 185              		.loc 1 149 0
 186 0082 B360     		str	r3, [r6, #8]
 187              	.LVL23:
 188              	.LBB28:
 189              	.LBB29:
 190              		.loc 2 369 0
 191 0084 0A9B     		ldr	r3, [sp, #40]
 192              		.syntax unified
 193              	@ 369 "ChibiOS_2.6.6/os/ports/common/ARMCMx/CMSIS/include/core_cmInstr.h" 1
 194 0086 1BBA     		rev r3, r3
 195              	@ 0 "" 2
 196              	.LVL24:
 197              		.thumb
 198              		.syntax unified
 199              	.LBE29:
 200              	.LBE28:
 201              		.loc 1 151 0
 202 0088 F360     		str	r3, [r6, #12]
 203              	.LVL25:
 204              	.LBB30:
 205              	.LBB31:
 206              		.loc 2 369 0
 207 008a 0B9B     		ldr	r3, [sp, #44]
 208              		.syntax unified
 209              	@ 369 "ChibiOS_2.6.6/os/ports/common/ARMCMx/CMSIS/include/core_cmInstr.h" 1
 210 008c 1BBA     		rev r3, r3
 211              	@ 0 "" 2
 212              	.LVL26:
 213              		.thumb
 214              		.syntax unified
 215              	.LBE31:
 216              	.LBE30:
 217              		.loc 1 101 0
 218 008e 0120     		movs	r0, #1
 219              		.loc 1 153 0
 220 0090 3361     		str	r3, [r6, #16]
 221              	.LVL27:
 222              		.loc 1 156 0
 223 0092 0DB0     		add	sp, sp, #52
 224              		.cfi_def_cfa_offset 20
 225              		@ sp needed
 226 0094 F0BD     		pop	{r4, r5, r6, r7, pc}
 227              		.cfi_endproc
 228              	.LFE111:
ARM GAS  /tmp/ccyqJ3iz.s 			page 5


 229              		.size	HASH_SHA1, .-HASH_SHA1
 230 0096 00BF     		.section	.text.HMAC_SHA1,"ax",%progbits
 231              		.align	1
 232              		.p2align 4,,15
 233              		.global	HMAC_SHA1
 234              		.syntax unified
 235              		.thumb
 236              		.thumb_func
 237              		.fpu fpv4-sp-d16
 238              		.type	HMAC_SHA1, %function
 239              	HMAC_SHA1:
 240              	.LFB112:
 241              		.loc 1 171 0
 242              		.cfi_startproc
 243              		@ args = 4, pretend = 0, frame = 48
 244              		@ frame_needed = 0, uses_anonymous_args = 0
 245              	.LVL28:
 246 0000 2DE9F041 		push	{r4, r5, r6, r7, r8, lr}
 247              		.cfi_def_cfa_offset 24
 248              		.cfi_offset 4, -24
 249              		.cfi_offset 5, -20
 250              		.cfi_offset 6, -16
 251              		.cfi_offset 7, -12
 252              		.cfi_offset 8, -8
 253              		.cfi_offset 14, -4
 254 0004 0D46     		mov	r5, r1
 255 0006 8CB0     		sub	sp, sp, #48
 256              		.cfi_def_cfa_offset 72
 257              		.loc 1 185 0
 258 0008 03F00301 		and	r1, r3, #3
 259              	.LVL29:
 260              		.loc 1 171 0
 261 000c 1F46     		mov	r7, r3
 262              		.loc 1 188 0
 263 000e 05F00303 		and	r3, r5, #3
 264              	.LVL30:
 265              		.loc 1 174 0
 266 0012 0024     		movs	r4, #0
 267              		.loc 1 188 0
 268 0014 DB00     		lsls	r3, r3, #3
 269              		.loc 1 185 0
 270 0016 C900     		lsls	r1, r1, #3
 271              		.loc 1 174 0
 272 0018 ADF80440 		strh	r4, [sp, #4]	@ movhi
 273              		.loc 1 171 0
 274 001c 9046     		mov	r8, r2
 275              		.loc 1 175 0
 276 001e ADF80640 		strh	r4, [sp, #6]	@ movhi
 277              	.LVL31:
 278              		.loc 1 171 0
 279 0022 0646     		mov	r6, r0
 280              		.loc 1 177 0
 281 0024 0294     		str	r4, [sp, #8]
 282              	.LVL32:
 283              		.loc 1 185 0
 284 0026 ADF80410 		strh	r1, [sp, #4]	@ movhi
 285              		.loc 1 188 0
ARM GAS  /tmp/ccyqJ3iz.s 			page 6


 286 002a ADF80630 		strh	r3, [sp, #6]	@ movhi
 287              		.loc 1 191 0
 288 002e FFF7FEFF 		bl	HASH_DeInit
 289              	.LVL33:
 290              		.loc 1 195 0
 291 0032 4022     		movs	r2, #64
 292              		.loc 1 196 0
 293 0034 2023     		movs	r3, #32
 294              		.loc 1 197 0
 295 0036 9542     		cmp	r5, r2
 296              		.loc 1 195 0
 297 0038 CDE90342 		strd	r4, r2, [sp, #12]
 298              		.loc 1 196 0
 299 003c 0593     		str	r3, [sp, #20]
 300              		.loc 1 197 0
 301 003e 24D9     		bls	.L18
 302              		.loc 1 200 0
 303 0040 4FF48033 		mov	r3, #65536
 304              		.loc 1 207 0
 305 0044 03A8     		add	r0, sp, #12
 306              		.loc 1 200 0
 307 0046 0693     		str	r3, [sp, #24]
 308              		.loc 1 207 0
 309 0048 FFF7FEFF 		bl	HASH_Init
 310              	.LVL34:
 311              		.loc 1 210 0
 312 004c BDF80600 		ldrh	r0, [sp, #6]
 313 0050 FFF7FEFF 		bl	HASH_SetLastWordValidBitsNbr
 314              	.LVL35:
 315              	.L19:
 316              		.loc 1 171 0 discriminator 3
 317 0054 3446     		mov	r4, r6
 318              	.LVL36:
 319              	.L21:
 320              		.loc 1 215 0 discriminator 3
 321 0056 54F8040B 		ldr	r0, [r4], #4
 322              	.LVL37:
 323 005a FFF7FEFF 		bl	HASH_DataIn
 324              	.LVL38:
 325              		.loc 1 213 0 discriminator 3
 326 005e A31B     		subs	r3, r4, r6
 327 0060 AB42     		cmp	r3, r5
 328 0062 F8D3     		bcc	.L21
 329              	.LVL39:
 330              	.L20:
 331              		.loc 1 220 0
 332 0064 FFF7FEFF 		bl	HASH_StartDigest
 333              	.LVL40:
 334 0068 00E0     		b	.L23
 335              	.LVL41:
 336              	.L56:
 337              		.loc 1 227 0 discriminator 1
 338 006a C8B1     		cbz	r0, .L24
 339              	.LVL42:
 340              	.L23:
 341              		.loc 1 225 0 discriminator 2
 342 006c 0820     		movs	r0, #8
ARM GAS  /tmp/ccyqJ3iz.s 			page 7


 343 006e FFF7FEFF 		bl	HASH_GetFlagStatus
 344              	.LVL43:
 345              		.loc 1 226 0 discriminator 2
 346 0072 029B     		ldr	r3, [sp, #8]
 347 0074 0133     		adds	r3, r3, #1
 348 0076 0293     		str	r3, [sp, #8]
 349              		.loc 1 227 0 discriminator 2
 350 0078 029B     		ldr	r3, [sp, #8]
 351 007a B3F5803F 		cmp	r3, #65536
 352 007e F4D1     		bne	.L56
 353              		.loc 1 229 0
 354 0080 70B1     		cbz	r0, .L24
 355              	.LVL44:
 356              	.L31:
 357              		.loc 1 231 0
 358 0082 0020     		movs	r0, #0
 359              	.LVL45:
 360              	.L25:
 361              		.loc 1 306 0
 362 0084 0CB0     		add	sp, sp, #48
 363              		.cfi_remember_state
 364              		.cfi_def_cfa_offset 24
 365              		@ sp needed
 366 0086 BDE8F081 		pop	{r4, r5, r6, r7, r8, pc}
 367              	.LVL46:
 368              	.L18:
 369              		.cfi_restore_state
 370              		.loc 1 207 0
 371 008a 03A8     		add	r0, sp, #12
 372              		.loc 1 205 0
 373 008c 0694     		str	r4, [sp, #24]
 374              		.loc 1 207 0
 375 008e FFF7FEFF 		bl	HASH_Init
 376              	.LVL47:
 377              		.loc 1 210 0
 378 0092 BDF80600 		ldrh	r0, [sp, #6]
 379 0096 FFF7FEFF 		bl	HASH_SetLastWordValidBitsNbr
 380              	.LVL48:
 381              		.loc 1 213 0
 382 009a 002D     		cmp	r5, #0
 383 009c DAD1     		bne	.L19
 384 009e E1E7     		b	.L20
 385              	.LVL49:
 386              	.L24:
 387              		.loc 1 236 0
 388 00a0 BDF80400 		ldrh	r0, [sp, #4]
 389              	.LVL50:
 390 00a4 FFF7FEFF 		bl	HASH_SetLastWordValidBitsNbr
 391              	.LVL51:
 392              		.loc 1 239 0
 393 00a8 47B1     		cbz	r7, .L26
 394              		.loc 1 181 0
 395 00aa 4446     		mov	r4, r8
 396              	.LVL52:
 397              	.L27:
 398              		.loc 1 241 0 discriminator 3
 399 00ac 54F8040B 		ldr	r0, [r4], #4
ARM GAS  /tmp/ccyqJ3iz.s 			page 8


 400              	.LVL53:
 401 00b0 FFF7FEFF 		bl	HASH_DataIn
 402              	.LVL54:
 403              		.loc 1 239 0 discriminator 3
 404 00b4 A4EB0803 		sub	r3, r4, r8
 405 00b8 BB42     		cmp	r3, r7
 406 00ba F7D3     		bcc	.L27
 407              	.LVL55:
 408              	.L26:
 409              		.loc 1 246 0
 410 00bc FFF7FEFF 		bl	HASH_StartDigest
 411              	.LVL56:
 412              		.loc 1 250 0
 413 00c0 0023     		movs	r3, #0
 414 00c2 0293     		str	r3, [sp, #8]
 415 00c4 00E0     		b	.L29
 416              	.LVL57:
 417              	.L57:
 418              		.loc 1 255 0 discriminator 1
 419 00c6 58B1     		cbz	r0, .L30
 420              	.LVL58:
 421              	.L29:
 422              		.loc 1 253 0 discriminator 2
 423 00c8 0820     		movs	r0, #8
 424 00ca FFF7FEFF 		bl	HASH_GetFlagStatus
 425              	.LVL59:
 426              		.loc 1 254 0 discriminator 2
 427 00ce 029B     		ldr	r3, [sp, #8]
 428 00d0 0133     		adds	r3, r3, #1
 429 00d2 0293     		str	r3, [sp, #8]
 430              		.loc 1 255 0 discriminator 2
 431 00d4 029B     		ldr	r3, [sp, #8]
 432 00d6 B3F5803F 		cmp	r3, #65536
 433 00da F4D1     		bne	.L57
 434              		.loc 1 257 0
 435 00dc 0028     		cmp	r0, #0
 436 00de D0D1     		bne	.L31
 437              	.L30:
 438              		.loc 1 264 0
 439 00e0 BDF80600 		ldrh	r0, [sp, #6]
 440              	.LVL60:
 441 00e4 FFF7FEFF 		bl	HASH_SetLastWordValidBitsNbr
 442              	.LVL61:
 443              		.loc 1 268 0
 444 00e8 3DB1     		cbz	r5, .L32
 445              		.loc 1 267 0
 446 00ea 3446     		mov	r4, r6
 447              	.LVL62:
 448              	.L33:
 449              		.loc 1 270 0 discriminator 3
 450 00ec 54F8040B 		ldr	r0, [r4], #4
 451              	.LVL63:
 452 00f0 FFF7FEFF 		bl	HASH_DataIn
 453              	.LVL64:
 454              		.loc 1 268 0 discriminator 3
 455 00f4 A31B     		subs	r3, r4, r6
 456 00f6 AB42     		cmp	r3, r5
ARM GAS  /tmp/ccyqJ3iz.s 			page 9


 457 00f8 F8D3     		bcc	.L33
 458              	.LVL65:
 459              	.L32:
 460              		.loc 1 275 0
 461 00fa FFF7FEFF 		bl	HASH_StartDigest
 462              	.LVL66:
 463              		.loc 1 278 0
 464 00fe 0023     		movs	r3, #0
 465 0100 0293     		str	r3, [sp, #8]
 466 0102 00E0     		b	.L35
 467              	.LVL67:
 468              	.L58:
 469              		.loc 1 283 0 discriminator 1
 470 0104 58B1     		cbz	r0, .L36
 471              	.LVL68:
 472              	.L35:
 473              		.loc 1 281 0 discriminator 2
 474 0106 0820     		movs	r0, #8
 475 0108 FFF7FEFF 		bl	HASH_GetFlagStatus
 476              	.LVL69:
 477              		.loc 1 282 0 discriminator 2
 478 010c 029B     		ldr	r3, [sp, #8]
 479 010e 0133     		adds	r3, r3, #1
 480 0110 0293     		str	r3, [sp, #8]
 481              		.loc 1 283 0 discriminator 2
 482 0112 029B     		ldr	r3, [sp, #8]
 483 0114 B3F5803F 		cmp	r3, #65536
 484 0118 F4D1     		bne	.L58
 485              		.loc 1 285 0
 486 011a 0028     		cmp	r0, #0
 487 011c B1D1     		bne	.L31
 488              	.L36:
 489              		.loc 1 292 0
 490 011e 07A8     		add	r0, sp, #28
 491              	.LVL70:
 492 0120 FFF7FEFF 		bl	HASH_GetDigest
 493              	.LVL71:
 494              	.LBB32:
 495              	.LBB33:
 496              		.loc 2 369 0
 497 0124 079B     		ldr	r3, [sp, #28]
 498              		.syntax unified
 499              	@ 369 "ChibiOS_2.6.6/os/ports/common/ARMCMx/CMSIS/include/core_cmInstr.h" 1
 500 0126 1BBA     		rev r3, r3
 501              	@ 0 "" 2
 502              	.LVL72:
 503              		.thumb
 504              		.syntax unified
 505              	.LBE33:
 506              	.LBE32:
 507              		.loc 1 293 0
 508 0128 129A     		ldr	r2, [sp, #72]
 509 012a 1360     		str	r3, [r2]
 510              	.LVL73:
 511              	.LBB34:
 512              	.LBB35:
 513              		.loc 2 369 0
ARM GAS  /tmp/ccyqJ3iz.s 			page 10


 514 012c 089B     		ldr	r3, [sp, #32]
 515              		.syntax unified
 516              	@ 369 "ChibiOS_2.6.6/os/ports/common/ARMCMx/CMSIS/include/core_cmInstr.h" 1
 517 012e 1BBA     		rev r3, r3
 518              	@ 0 "" 2
 519              	.LVL74:
 520              		.thumb
 521              		.syntax unified
 522              	.LBE35:
 523              	.LBE34:
 524              		.loc 1 295 0
 525 0130 5360     		str	r3, [r2, #4]
 526              	.LVL75:
 527              	.LBB36:
 528              	.LBB37:
 529              		.loc 2 369 0
 530 0132 099B     		ldr	r3, [sp, #36]
 531              		.syntax unified
 532              	@ 369 "ChibiOS_2.6.6/os/ports/common/ARMCMx/CMSIS/include/core_cmInstr.h" 1
 533 0134 1BBA     		rev r3, r3
 534              	@ 0 "" 2
 535              	.LVL76:
 536              		.thumb
 537              		.syntax unified
 538              	.LBE37:
 539              	.LBE36:
 540              		.loc 1 297 0
 541 0136 9360     		str	r3, [r2, #8]
 542              	.LVL77:
 543              	.LBB38:
 544              	.LBB39:
 545              		.loc 2 369 0
 546 0138 0A9B     		ldr	r3, [sp, #40]
 547              		.syntax unified
 548              	@ 369 "ChibiOS_2.6.6/os/ports/common/ARMCMx/CMSIS/include/core_cmInstr.h" 1
 549 013a 1BBA     		rev r3, r3
 550              	@ 0 "" 2
 551              	.LVL78:
 552              		.thumb
 553              		.syntax unified
 554              	.LBE39:
 555              	.LBE38:
 556              		.loc 1 299 0
 557 013c D360     		str	r3, [r2, #12]
 558              	.LVL79:
 559              	.LBB40:
 560              	.LBB41:
 561              		.loc 2 369 0
 562 013e 0B9B     		ldr	r3, [sp, #44]
 563              		.syntax unified
 564              	@ 369 "ChibiOS_2.6.6/os/ports/common/ARMCMx/CMSIS/include/core_cmInstr.h" 1
 565 0140 1BBA     		rev r3, r3
 566              	@ 0 "" 2
 567              	.LVL80:
 568              		.thumb
 569              		.syntax unified
 570              	.LBE41:
ARM GAS  /tmp/ccyqJ3iz.s 			page 11


 571              	.LBE40:
 572              		.loc 1 179 0
 573 0142 0120     		movs	r0, #1
 574              		.loc 1 301 0
 575 0144 1361     		str	r3, [r2, #16]
 576 0146 9DE7     		b	.L25
 577              		.cfi_endproc
 578              	.LFE112:
 579              		.size	HMAC_SHA1, .-HMAC_SHA1
 580              		.text
 581              	.Letext0:
 582              		.file 3 "/usr/arm-none-eabi/include/machine/_default_types.h"
 583              		.file 4 "/usr/arm-none-eabi/include/sys/_stdint.h"
 584              		.file 5 "ChibiOS_2.6.6/os/hal/platforms/STM32F4xx/stm32f4xx.h"
 585              		.file 6 "ChibiOS_2.6.6/ext/stdperiph_stm32f4/inc/stm32f4xx_hash.h"
 586              		.file 7 "ChibiOS_2.6.6/os/ports/common/ARMCMx/CMSIS/include/core_cm4.h"
 587              		.section	.debug_info,"",%progbits
 588              	.Ldebug_info0:
 589 0000 C8060000 		.4byte	0x6c8
 590 0004 0400     		.2byte	0x4
 591 0006 00000000 		.4byte	.Ldebug_abbrev0
 592 000a 04       		.byte	0x4
 593 000b 01       		.uleb128 0x1
 594 000c B5010000 		.4byte	.LASF51
 595 0010 0C       		.byte	0xc
 596 0011 26010000 		.4byte	.LASF52
 597 0015 AB030000 		.4byte	.LASF53
 598 0019 00000000 		.4byte	.Ldebug_ranges0+0
 599 001d 00000000 		.4byte	0
 600 0021 00000000 		.4byte	.Ldebug_line0
 601 0025 02       		.uleb128 0x2
 602 0026 01       		.byte	0x1
 603 0027 06       		.byte	0x6
 604 0028 DE030000 		.4byte	.LASF0
 605 002c 03       		.uleb128 0x3
 606 002d 14000000 		.4byte	.LASF3
 607 0031 03       		.byte	0x3
 608 0032 2B       		.byte	0x2b
 609 0033 37000000 		.4byte	0x37
 610 0037 02       		.uleb128 0x2
 611 0038 01       		.byte	0x1
 612 0039 08       		.byte	0x8
 613 003a A8000000 		.4byte	.LASF1
 614 003e 02       		.uleb128 0x2
 615 003f 02       		.byte	0x2
 616 0040 05       		.byte	0x5
 617 0041 98030000 		.4byte	.LASF2
 618 0045 03       		.uleb128 0x3
 619 0046 07010000 		.4byte	.LASF4
 620 004a 03       		.byte	0x3
 621 004b 39       		.byte	0x39
 622 004c 50000000 		.4byte	0x50
 623 0050 02       		.uleb128 0x2
 624 0051 02       		.byte	0x2
 625 0052 07       		.byte	0x7
 626 0053 EA030000 		.4byte	.LASF5
 627 0057 03       		.uleb128 0x3
ARM GAS  /tmp/ccyqJ3iz.s 			page 12


 628 0058 4F000000 		.4byte	.LASF6
 629 005c 03       		.byte	0x3
 630 005d 4D       		.byte	0x4d
 631 005e 62000000 		.4byte	0x62
 632 0062 02       		.uleb128 0x2
 633 0063 04       		.byte	0x4
 634 0064 05       		.byte	0x5
 635 0065 D5030000 		.4byte	.LASF7
 636 0069 03       		.uleb128 0x3
 637 006a 64010000 		.4byte	.LASF8
 638 006e 03       		.byte	0x3
 639 006f 4F       		.byte	0x4f
 640 0070 74000000 		.4byte	0x74
 641 0074 02       		.uleb128 0x2
 642 0075 04       		.byte	0x4
 643 0076 07       		.byte	0x7
 644 0077 CA000000 		.4byte	.LASF9
 645 007b 02       		.uleb128 0x2
 646 007c 08       		.byte	0x8
 647 007d 05       		.byte	0x5
 648 007e 56030000 		.4byte	.LASF10
 649 0082 02       		.uleb128 0x2
 650 0083 08       		.byte	0x8
 651 0084 07       		.byte	0x7
 652 0085 E6020000 		.4byte	.LASF11
 653 0089 04       		.uleb128 0x4
 654 008a 04       		.byte	0x4
 655 008b 05       		.byte	0x5
 656 008c 696E7400 		.ascii	"int\000"
 657 0090 02       		.uleb128 0x2
 658 0091 04       		.byte	0x4
 659 0092 07       		.byte	0x7
 660 0093 D9020000 		.4byte	.LASF12
 661 0097 03       		.uleb128 0x3
 662 0098 FD020000 		.4byte	.LASF13
 663 009c 04       		.byte	0x4
 664 009d 18       		.byte	0x18
 665 009e 2C000000 		.4byte	0x2c
 666 00a2 03       		.uleb128 0x3
 667 00a3 A2030000 		.4byte	.LASF14
 668 00a7 04       		.byte	0x4
 669 00a8 24       		.byte	0x24
 670 00a9 45000000 		.4byte	0x45
 671 00ad 05       		.uleb128 0x5
 672 00ae A2000000 		.4byte	0xa2
 673 00b2 03       		.uleb128 0x3
 674 00b3 3D030000 		.4byte	.LASF15
 675 00b7 04       		.byte	0x4
 676 00b8 2C       		.byte	0x2c
 677 00b9 57000000 		.4byte	0x57
 678 00bd 05       		.uleb128 0x5
 679 00be B2000000 		.4byte	0xb2
 680 00c2 03       		.uleb128 0x3
 681 00c3 CC030000 		.4byte	.LASF16
 682 00c7 04       		.byte	0x4
 683 00c8 30       		.byte	0x30
 684 00c9 69000000 		.4byte	0x69
ARM GAS  /tmp/ccyqJ3iz.s 			page 13


 685 00cd 05       		.uleb128 0x5
 686 00ce C2000000 		.4byte	0xc2
 687 00d2 06       		.uleb128 0x6
 688 00d3 C2000000 		.4byte	0xc2
 689 00d7 E2000000 		.4byte	0xe2
 690 00db 07       		.uleb128 0x7
 691 00dc 90000000 		.4byte	0x90
 692 00e0 04       		.byte	0x4
 693 00e1 00       		.byte	0
 694 00e2 08       		.uleb128 0x8
 695 00e3 FA000000 		.4byte	.LASF54
 696 00e7 07       		.byte	0x7
 697 00e8 9806     		.2byte	0x698
 698 00ea BD000000 		.4byte	0xbd
 699 00ee 09       		.uleb128 0x9
 700 00ef 07       		.byte	0x7
 701 00f0 01       		.byte	0x1
 702 00f1 37000000 		.4byte	0x37
 703 00f5 05       		.byte	0x5
 704 00f6 F701     		.2byte	0x1f7
 705 00f8 09010000 		.4byte	0x109
 706 00fc 0A       		.uleb128 0xa
 707 00fd DC000000 		.4byte	.LASF17
 708 0101 00       		.byte	0
 709 0102 0B       		.uleb128 0xb
 710 0103 53455400 		.ascii	"SET\000"
 711 0107 01       		.byte	0x1
 712 0108 00       		.byte	0
 713 0109 09       		.uleb128 0x9
 714 010a 07       		.byte	0x7
 715 010b 01       		.byte	0x1
 716 010c 37000000 		.4byte	0x37
 717 0110 05       		.byte	0x5
 718 0111 FC01     		.2byte	0x1fc
 719 0113 24010000 		.4byte	0x124
 720 0117 0A       		.uleb128 0xa
 721 0118 37030000 		.4byte	.LASF18
 722 011c 00       		.byte	0
 723 011d 0A       		.uleb128 0xa
 724 011e B6000000 		.4byte	.LASF19
 725 0122 01       		.byte	0x1
 726 0123 00       		.byte	0
 727 0124 0C       		.uleb128 0xc
 728 0125 BE000000 		.4byte	.LASF20
 729 0129 05       		.byte	0x5
 730 012a FC01     		.2byte	0x1fc
 731 012c 09010000 		.4byte	0x109
 732 0130 0D       		.uleb128 0xd
 733 0131 10       		.byte	0x10
 734 0132 06       		.byte	0x6
 735 0133 35       		.byte	0x35
 736 0134 69010000 		.4byte	0x169
 737 0138 0E       		.uleb128 0xe
 738 0139 8D000000 		.4byte	.LASF21
 739 013d 06       		.byte	0x6
 740 013e 37       		.byte	0x37
 741 013f C2000000 		.4byte	0xc2
ARM GAS  /tmp/ccyqJ3iz.s 			page 14


 742 0143 00       		.byte	0
 743 0144 0E       		.uleb128 0xe
 744 0145 80010000 		.4byte	.LASF22
 745 0149 06       		.byte	0x6
 746 014a 39       		.byte	0x39
 747 014b C2000000 		.4byte	0xc2
 748 014f 04       		.byte	0x4
 749 0150 0E       		.uleb128 0xe
 750 0151 1E000000 		.4byte	.LASF23
 751 0155 06       		.byte	0x6
 752 0156 3B       		.byte	0x3b
 753 0157 C2000000 		.4byte	0xc2
 754 015b 08       		.byte	0x8
 755 015c 0E       		.uleb128 0xe
 756 015d FD030000 		.4byte	.LASF24
 757 0161 06       		.byte	0x6
 758 0162 3E       		.byte	0x3e
 759 0163 C2000000 		.4byte	0xc2
 760 0167 0C       		.byte	0xc
 761 0168 00       		.byte	0
 762 0169 03       		.uleb128 0x3
 763 016a 05030000 		.4byte	.LASF25
 764 016e 06       		.byte	0x6
 765 016f 40       		.byte	0x40
 766 0170 30010000 		.4byte	0x130
 767 0174 0D       		.uleb128 0xd
 768 0175 14       		.byte	0x14
 769 0176 06       		.byte	0x6
 770 0177 45       		.byte	0x45
 771 0178 89010000 		.4byte	0x189
 772 017c 0E       		.uleb128 0xe
 773 017d 21010000 		.4byte	.LASF26
 774 0181 06       		.byte	0x6
 775 0182 47       		.byte	0x47
 776 0183 D2000000 		.4byte	0xd2
 777 0187 00       		.byte	0
 778 0188 00       		.byte	0
 779 0189 03       		.uleb128 0x3
 780 018a 8E010000 		.4byte	.LASF27
 781 018e 06       		.byte	0x6
 782 018f 49       		.byte	0x49
 783 0190 74010000 		.4byte	0x174
 784 0194 0F       		.uleb128 0xf
 785 0195 87030000 		.4byte	.LASF42
 786 0199 01       		.byte	0x1
 787 019a A9       		.byte	0xa9
 788 019b 24010000 		.4byte	0x124
 789 019f 00000000 		.4byte	.LFB112
 790 01a3 48010000 		.4byte	.LFE112-.LFB112
 791 01a7 01       		.uleb128 0x1
 792 01a8 9C       		.byte	0x9c
 793 01a9 4E040000 		.4byte	0x44e
 794 01ad 10       		.uleb128 0x10
 795 01ae 4B657900 		.ascii	"Key\000"
 796 01b2 01       		.byte	0x1
 797 01b3 A9       		.byte	0xa9
 798 01b4 4E040000 		.4byte	0x44e
ARM GAS  /tmp/ccyqJ3iz.s 			page 15


 799 01b8 00000000 		.4byte	.LLST13
 800 01bc 11       		.uleb128 0x11
 801 01bd 91030000 		.4byte	.LASF28
 802 01c1 01       		.byte	0x1
 803 01c2 A9       		.byte	0xa9
 804 01c3 C2000000 		.4byte	0xc2
 805 01c7 1E000000 		.4byte	.LLST14
 806 01cb 11       		.uleb128 0x11
 807 01cc 7A010000 		.4byte	.LASF29
 808 01d0 01       		.byte	0x1
 809 01d1 A9       		.byte	0xa9
 810 01d2 4E040000 		.4byte	0x44e
 811 01d6 3C000000 		.4byte	.LLST15
 812 01da 11       		.uleb128 0x11
 813 01db 9D010000 		.4byte	.LASF30
 814 01df 01       		.byte	0x1
 815 01e0 AA       		.byte	0xaa
 816 01e1 C2000000 		.4byte	0xc2
 817 01e5 5A000000 		.4byte	.LLST16
 818 01e9 11       		.uleb128 0x11
 819 01ea 6E030000 		.4byte	.LASF31
 820 01ee 01       		.byte	0x1
 821 01ef AA       		.byte	0xaa
 822 01f0 4E040000 		.4byte	0x44e
 823 01f4 78000000 		.4byte	.LLST17
 824 01f8 12       		.uleb128 0x12
 825 01f9 E2000000 		.4byte	.LASF32
 826 01fd 01       		.byte	0x1
 827 01fe AC       		.byte	0xac
 828 01ff 69010000 		.4byte	0x169
 829 0203 02       		.uleb128 0x2
 830 0204 91       		.byte	0x91
 831 0205 44       		.sleb128 -60
 832 0206 12       		.uleb128 0x12
 833 0207 A2010000 		.4byte	.LASF33
 834 020b 01       		.byte	0x1
 835 020c AD       		.byte	0xad
 836 020d 89010000 		.4byte	0x189
 837 0211 02       		.uleb128 0x2
 838 0212 91       		.byte	0x91
 839 0213 54       		.sleb128 -44
 840 0214 12       		.uleb128 0x12
 841 0215 27030000 		.4byte	.LASF34
 842 0219 01       		.byte	0x1
 843 021a AE       		.byte	0xae
 844 021b AD000000 		.4byte	0xad
 845 021f 03       		.uleb128 0x3
 846 0220 91       		.byte	0x91
 847 0221 BC7F     		.sleb128 -68
 848 0223 12       		.uleb128 0x12
 849 0224 12010000 		.4byte	.LASF35
 850 0228 01       		.byte	0x1
 851 0229 AF       		.byte	0xaf
 852 022a AD000000 		.4byte	0xad
 853 022e 03       		.uleb128 0x3
 854 022f 91       		.byte	0x91
 855 0230 BE7F     		.sleb128 -66
ARM GAS  /tmp/ccyqJ3iz.s 			page 16


 856 0232 13       		.uleb128 0x13
 857 0233 6900     		.ascii	"i\000"
 858 0235 01       		.byte	0x1
 859 0236 B0       		.byte	0xb0
 860 0237 C2000000 		.4byte	0xc2
 861 023b 98000000 		.4byte	.LLST18
 862 023f 12       		.uleb128 0x12
 863 0240 A0000000 		.4byte	.LASF36
 864 0244 01       		.byte	0x1
 865 0245 B1       		.byte	0xb1
 866 0246 CD000000 		.4byte	0xcd
 867 024a 02       		.uleb128 0x2
 868 024b 91       		.byte	0x91
 869 024c 40       		.sleb128 -64
 870 024d 14       		.uleb128 0x14
 871 024e 6C000000 		.4byte	.LASF37
 872 0252 01       		.byte	0x1
 873 0253 B2       		.byte	0xb2
 874 0254 C2000000 		.4byte	0xc2
 875 0258 66010000 		.4byte	.LLST19
 876 025c 14       		.uleb128 0x14
 877 025d 77000000 		.4byte	.LASF38
 878 0261 01       		.byte	0x1
 879 0262 B3       		.byte	0xb3
 880 0263 24010000 		.4byte	0x124
 881 0267 D3010000 		.4byte	.LLST20
 882 026b 14       		.uleb128 0x14
 883 026c 00000000 		.4byte	.LASF39
 884 0270 01       		.byte	0x1
 885 0271 B4       		.byte	0xb4
 886 0272 C2000000 		.4byte	0xc2
 887 0276 FE010000 		.4byte	.LLST21
 888 027a 14       		.uleb128 0x14
 889 027b 64030000 		.4byte	.LASF40
 890 027f 01       		.byte	0x1
 891 0280 B5       		.byte	0xb5
 892 0281 C2000000 		.4byte	0xc2
 893 0285 78020000 		.4byte	.LLST22
 894 0289 14       		.uleb128 0x14
 895 028a 6F010000 		.4byte	.LASF41
 896 028e 01       		.byte	0x1
 897 028f B6       		.byte	0xb6
 898 0290 C2000000 		.4byte	0xc2
 899 0294 C4020000 		.4byte	.LLST23
 900 0298 15       		.uleb128 0x15
 901 0299 54060000 		.4byte	0x654
 902 029d 24010000 		.4byte	.LBB32
 903 02a1 04000000 		.4byte	.LBE32-.LBB32
 904 02a5 01       		.byte	0x1
 905 02a6 2501     		.2byte	0x125
 906 02a8 C5020000 		.4byte	0x2c5
 907 02ac 16       		.uleb128 0x16
 908 02ad 65060000 		.4byte	0x665
 909 02b1 18030000 		.4byte	.LLST24
 910 02b5 17       		.uleb128 0x17
 911 02b6 24010000 		.4byte	.LBB33
 912 02ba 04000000 		.4byte	.LBE33-.LBB33
ARM GAS  /tmp/ccyqJ3iz.s 			page 17


 913 02be 18       		.uleb128 0x18
 914 02bf 71060000 		.4byte	0x671
 915 02c3 00       		.byte	0
 916 02c4 00       		.byte	0
 917 02c5 15       		.uleb128 0x15
 918 02c6 54060000 		.4byte	0x654
 919 02ca 2C010000 		.4byte	.LBB34
 920 02ce 04000000 		.4byte	.LBE34-.LBB34
 921 02d2 01       		.byte	0x1
 922 02d3 2701     		.2byte	0x127
 923 02d5 F2020000 		.4byte	0x2f2
 924 02d9 16       		.uleb128 0x16
 925 02da 65060000 		.4byte	0x665
 926 02de 2C030000 		.4byte	.LLST25
 927 02e2 17       		.uleb128 0x17
 928 02e3 2C010000 		.4byte	.LBB35
 929 02e7 04000000 		.4byte	.LBE35-.LBB35
 930 02eb 18       		.uleb128 0x18
 931 02ec 71060000 		.4byte	0x671
 932 02f0 00       		.byte	0
 933 02f1 00       		.byte	0
 934 02f2 15       		.uleb128 0x15
 935 02f3 54060000 		.4byte	0x654
 936 02f7 32010000 		.4byte	.LBB36
 937 02fb 04000000 		.4byte	.LBE36-.LBB36
 938 02ff 01       		.byte	0x1
 939 0300 2901     		.2byte	0x129
 940 0302 1F030000 		.4byte	0x31f
 941 0306 16       		.uleb128 0x16
 942 0307 65060000 		.4byte	0x665
 943 030b 40030000 		.4byte	.LLST26
 944 030f 17       		.uleb128 0x17
 945 0310 32010000 		.4byte	.LBB37
 946 0314 04000000 		.4byte	.LBE37-.LBB37
 947 0318 18       		.uleb128 0x18
 948 0319 71060000 		.4byte	0x671
 949 031d 00       		.byte	0
 950 031e 00       		.byte	0
 951 031f 15       		.uleb128 0x15
 952 0320 54060000 		.4byte	0x654
 953 0324 38010000 		.4byte	.LBB38
 954 0328 04000000 		.4byte	.LBE38-.LBB38
 955 032c 01       		.byte	0x1
 956 032d 2B01     		.2byte	0x12b
 957 032f 4C030000 		.4byte	0x34c
 958 0333 16       		.uleb128 0x16
 959 0334 65060000 		.4byte	0x665
 960 0338 54030000 		.4byte	.LLST27
 961 033c 17       		.uleb128 0x17
 962 033d 38010000 		.4byte	.LBB39
 963 0341 04000000 		.4byte	.LBE39-.LBB39
 964 0345 18       		.uleb128 0x18
 965 0346 71060000 		.4byte	0x671
 966 034a 00       		.byte	0
 967 034b 00       		.byte	0
 968 034c 15       		.uleb128 0x15
 969 034d 54060000 		.4byte	0x654
ARM GAS  /tmp/ccyqJ3iz.s 			page 18


 970 0351 3E010000 		.4byte	.LBB40
 971 0355 04000000 		.4byte	.LBE40-.LBB40
 972 0359 01       		.byte	0x1
 973 035a 2D01     		.2byte	0x12d
 974 035c 79030000 		.4byte	0x379
 975 0360 16       		.uleb128 0x16
 976 0361 65060000 		.4byte	0x665
 977 0365 68030000 		.4byte	.LLST28
 978 0369 17       		.uleb128 0x17
 979 036a 3E010000 		.4byte	.LBB41
 980 036e 04000000 		.4byte	.LBE41-.LBB41
 981 0372 18       		.uleb128 0x18
 982 0373 71060000 		.4byte	0x671
 983 0377 00       		.byte	0
 984 0378 00       		.byte	0
 985 0379 19       		.uleb128 0x19
 986 037a 32000000 		.4byte	.LVL33
 987 037e 7E060000 		.4byte	0x67e
 988 0382 1A       		.uleb128 0x1a
 989 0383 4C000000 		.4byte	.LVL34
 990 0387 89060000 		.4byte	0x689
 991 038b 96030000 		.4byte	0x396
 992 038f 1B       		.uleb128 0x1b
 993 0390 01       		.uleb128 0x1
 994 0391 50       		.byte	0x50
 995 0392 02       		.uleb128 0x2
 996 0393 91       		.byte	0x91
 997 0394 44       		.sleb128 -60
 998 0395 00       		.byte	0
 999 0396 19       		.uleb128 0x19
 1000 0397 54000000 		.4byte	.LVL35
 1001 039b 94060000 		.4byte	0x694
 1002 039f 19       		.uleb128 0x19
 1003 03a0 5E000000 		.4byte	.LVL38
 1004 03a4 9F060000 		.4byte	0x69f
 1005 03a8 19       		.uleb128 0x19
 1006 03a9 68000000 		.4byte	.LVL40
 1007 03ad AA060000 		.4byte	0x6aa
 1008 03b1 1A       		.uleb128 0x1a
 1009 03b2 72000000 		.4byte	.LVL43
 1010 03b6 B5060000 		.4byte	0x6b5
 1011 03ba C4030000 		.4byte	0x3c4
 1012 03be 1B       		.uleb128 0x1b
 1013 03bf 01       		.uleb128 0x1
 1014 03c0 50       		.byte	0x50
 1015 03c1 01       		.uleb128 0x1
 1016 03c2 38       		.byte	0x38
 1017 03c3 00       		.byte	0
 1018 03c4 1A       		.uleb128 0x1a
 1019 03c5 92000000 		.4byte	.LVL47
 1020 03c9 89060000 		.4byte	0x689
 1021 03cd D8030000 		.4byte	0x3d8
 1022 03d1 1B       		.uleb128 0x1b
 1023 03d2 01       		.uleb128 0x1
 1024 03d3 50       		.byte	0x50
 1025 03d4 02       		.uleb128 0x2
 1026 03d5 91       		.byte	0x91
ARM GAS  /tmp/ccyqJ3iz.s 			page 19


 1027 03d6 44       		.sleb128 -60
 1028 03d7 00       		.byte	0
 1029 03d8 19       		.uleb128 0x19
 1030 03d9 9A000000 		.4byte	.LVL48
 1031 03dd 94060000 		.4byte	0x694
 1032 03e1 19       		.uleb128 0x19
 1033 03e2 A8000000 		.4byte	.LVL51
 1034 03e6 94060000 		.4byte	0x694
 1035 03ea 19       		.uleb128 0x19
 1036 03eb B4000000 		.4byte	.LVL54
 1037 03ef 9F060000 		.4byte	0x69f
 1038 03f3 19       		.uleb128 0x19
 1039 03f4 C0000000 		.4byte	.LVL56
 1040 03f8 AA060000 		.4byte	0x6aa
 1041 03fc 1A       		.uleb128 0x1a
 1042 03fd CE000000 		.4byte	.LVL59
 1043 0401 B5060000 		.4byte	0x6b5
 1044 0405 0F040000 		.4byte	0x40f
 1045 0409 1B       		.uleb128 0x1b
 1046 040a 01       		.uleb128 0x1
 1047 040b 50       		.byte	0x50
 1048 040c 01       		.uleb128 0x1
 1049 040d 38       		.byte	0x38
 1050 040e 00       		.byte	0
 1051 040f 19       		.uleb128 0x19
 1052 0410 E8000000 		.4byte	.LVL61
 1053 0414 94060000 		.4byte	0x694
 1054 0418 19       		.uleb128 0x19
 1055 0419 F4000000 		.4byte	.LVL64
 1056 041d 9F060000 		.4byte	0x69f
 1057 0421 19       		.uleb128 0x19
 1058 0422 FE000000 		.4byte	.LVL66
 1059 0426 AA060000 		.4byte	0x6aa
 1060 042a 1A       		.uleb128 0x1a
 1061 042b 0C010000 		.4byte	.LVL69
 1062 042f B5060000 		.4byte	0x6b5
 1063 0433 3D040000 		.4byte	0x43d
 1064 0437 1B       		.uleb128 0x1b
 1065 0438 01       		.uleb128 0x1
 1066 0439 50       		.byte	0x50
 1067 043a 01       		.uleb128 0x1
 1068 043b 38       		.byte	0x38
 1069 043c 00       		.byte	0
 1070 043d 1C       		.uleb128 0x1c
 1071 043e 24010000 		.4byte	.LVL71
 1072 0442 C0060000 		.4byte	0x6c0
 1073 0446 1B       		.uleb128 0x1b
 1074 0447 01       		.uleb128 0x1
 1075 0448 50       		.byte	0x50
 1076 0449 02       		.uleb128 0x2
 1077 044a 91       		.byte	0x91
 1078 044b 54       		.sleb128 -44
 1079 044c 00       		.byte	0
 1080 044d 00       		.byte	0
 1081 044e 1D       		.uleb128 0x1d
 1082 044f 04       		.byte	0x4
 1083 0450 97000000 		.4byte	0x97
ARM GAS  /tmp/ccyqJ3iz.s 			page 20


 1084 0454 0F       		.uleb128 0xf
 1085 0455 0E040000 		.4byte	.LASF43
 1086 0459 01       		.byte	0x1
 1087 045a 5D       		.byte	0x5d
 1088 045b 24010000 		.4byte	0x124
 1089 045f 00000000 		.4byte	.LFB111
 1090 0463 96000000 		.4byte	.LFE111-.LFB111
 1091 0467 01       		.uleb128 0x1
 1092 0468 9C       		.byte	0x9c
 1093 0469 54060000 		.4byte	0x654
 1094 046d 11       		.uleb128 0x11
 1095 046e 7A010000 		.4byte	.LASF29
 1096 0472 01       		.byte	0x1
 1097 0473 5D       		.byte	0x5d
 1098 0474 4E040000 		.4byte	0x44e
 1099 0478 7C030000 		.4byte	.LLST0
 1100 047c 11       		.uleb128 0x11
 1101 047d 9D010000 		.4byte	.LASF30
 1102 0481 01       		.byte	0x1
 1103 0482 5D       		.byte	0x5d
 1104 0483 C2000000 		.4byte	0xc2
 1105 0487 9A030000 		.4byte	.LLST1
 1106 048b 11       		.uleb128 0x11
 1107 048c 6E030000 		.4byte	.LASF31
 1108 0490 01       		.byte	0x1
 1109 0491 5D       		.byte	0x5d
 1110 0492 4E040000 		.4byte	0x44e
 1111 0496 B8030000 		.4byte	.LLST2
 1112 049a 12       		.uleb128 0x12
 1113 049b E2000000 		.4byte	.LASF32
 1114 049f 01       		.byte	0x1
 1115 04a0 5F       		.byte	0x5f
 1116 04a1 69010000 		.4byte	0x169
 1117 04a5 02       		.uleb128 0x2
 1118 04a6 91       		.byte	0x91
 1119 04a7 44       		.sleb128 -60
 1120 04a8 12       		.uleb128 0x12
 1121 04a9 A2010000 		.4byte	.LASF33
 1122 04ad 01       		.byte	0x1
 1123 04ae 60       		.byte	0x60
 1124 04af 89010000 		.4byte	0x189
 1125 04b3 02       		.uleb128 0x2
 1126 04b4 91       		.byte	0x91
 1127 04b5 54       		.sleb128 -44
 1128 04b6 12       		.uleb128 0x12
 1129 04b7 27030000 		.4byte	.LASF34
 1130 04bb 01       		.byte	0x1
 1131 04bc 61       		.byte	0x61
 1132 04bd AD000000 		.4byte	0xad
 1133 04c1 03       		.uleb128 0x3
 1134 04c2 91       		.byte	0x91
 1135 04c3 BE7F     		.sleb128 -66
 1136 04c5 13       		.uleb128 0x13
 1137 04c6 6900     		.ascii	"i\000"
 1138 04c8 01       		.byte	0x1
 1139 04c9 62       		.byte	0x62
 1140 04ca C2000000 		.4byte	0xc2
ARM GAS  /tmp/ccyqJ3iz.s 			page 21


 1141 04ce D6030000 		.4byte	.LLST3
 1142 04d2 12       		.uleb128 0x12
 1143 04d3 A0000000 		.4byte	.LASF36
 1144 04d7 01       		.byte	0x1
 1145 04d8 63       		.byte	0x63
 1146 04d9 CD000000 		.4byte	0xcd
 1147 04dd 02       		.uleb128 0x2
 1148 04de 91       		.byte	0x91
 1149 04df 40       		.sleb128 -64
 1150 04e0 14       		.uleb128 0x14
 1151 04e1 6C000000 		.4byte	.LASF37
 1152 04e5 01       		.byte	0x1
 1153 04e6 64       		.byte	0x64
 1154 04e7 C2000000 		.4byte	0xc2
 1155 04eb 1C040000 		.4byte	.LLST4
 1156 04ef 14       		.uleb128 0x14
 1157 04f0 77000000 		.4byte	.LASF38
 1158 04f4 01       		.byte	0x1
 1159 04f5 65       		.byte	0x65
 1160 04f6 24010000 		.4byte	0x124
 1161 04fa 51040000 		.4byte	.LLST5
 1162 04fe 14       		.uleb128 0x14
 1163 04ff 64030000 		.4byte	.LASF40
 1164 0503 01       		.byte	0x1
 1165 0504 66       		.byte	0x66
 1166 0505 C2000000 		.4byte	0xc2
 1167 0509 87040000 		.4byte	.LLST6
 1168 050d 14       		.uleb128 0x14
 1169 050e 6F010000 		.4byte	.LASF41
 1170 0512 01       		.byte	0x1
 1171 0513 67       		.byte	0x67
 1172 0514 C2000000 		.4byte	0xc2
 1173 0518 C8040000 		.4byte	.LLST7
 1174 051c 1E       		.uleb128 0x1e
 1175 051d 54060000 		.4byte	0x654
 1176 0521 72000000 		.4byte	.LBB22
 1177 0525 04000000 		.4byte	.LBE22-.LBB22
 1178 0529 01       		.byte	0x1
 1179 052a 91       		.byte	0x91
 1180 052b 48050000 		.4byte	0x548
 1181 052f 16       		.uleb128 0x16
 1182 0530 65060000 		.4byte	0x665
 1183 0534 1A050000 		.4byte	.LLST8
 1184 0538 17       		.uleb128 0x17
 1185 0539 72000000 		.4byte	.LBB23
 1186 053d 04000000 		.4byte	.LBE23-.LBB23
 1187 0541 18       		.uleb128 0x18
 1188 0542 71060000 		.4byte	0x671
 1189 0546 00       		.byte	0
 1190 0547 00       		.byte	0
 1191 0548 1E       		.uleb128 0x1e
 1192 0549 54060000 		.4byte	0x654
 1193 054d 78000000 		.4byte	.LBB24
 1194 0551 04000000 		.4byte	.LBE24-.LBB24
 1195 0555 01       		.byte	0x1
 1196 0556 93       		.byte	0x93
 1197 0557 74050000 		.4byte	0x574
ARM GAS  /tmp/ccyqJ3iz.s 			page 22


 1198 055b 16       		.uleb128 0x16
 1199 055c 65060000 		.4byte	0x665
 1200 0560 2E050000 		.4byte	.LLST9
 1201 0564 17       		.uleb128 0x17
 1202 0565 78000000 		.4byte	.LBB25
 1203 0569 04000000 		.4byte	.LBE25-.LBB25
 1204 056d 18       		.uleb128 0x18
 1205 056e 71060000 		.4byte	0x671
 1206 0572 00       		.byte	0
 1207 0573 00       		.byte	0
 1208 0574 1E       		.uleb128 0x1e
 1209 0575 54060000 		.4byte	0x654
 1210 0579 7E000000 		.4byte	.LBB26
 1211 057d 04000000 		.4byte	.LBE26-.LBB26
 1212 0581 01       		.byte	0x1
 1213 0582 95       		.byte	0x95
 1214 0583 A0050000 		.4byte	0x5a0
 1215 0587 16       		.uleb128 0x16
 1216 0588 65060000 		.4byte	0x665
 1217 058c 42050000 		.4byte	.LLST10
 1218 0590 17       		.uleb128 0x17
 1219 0591 7E000000 		.4byte	.LBB27
 1220 0595 04000000 		.4byte	.LBE27-.LBB27
 1221 0599 18       		.uleb128 0x18
 1222 059a 71060000 		.4byte	0x671
 1223 059e 00       		.byte	0
 1224 059f 00       		.byte	0
 1225 05a0 1E       		.uleb128 0x1e
 1226 05a1 54060000 		.4byte	0x654
 1227 05a5 84000000 		.4byte	.LBB28
 1228 05a9 04000000 		.4byte	.LBE28-.LBB28
 1229 05ad 01       		.byte	0x1
 1230 05ae 97       		.byte	0x97
 1231 05af CC050000 		.4byte	0x5cc
 1232 05b3 16       		.uleb128 0x16
 1233 05b4 65060000 		.4byte	0x665
 1234 05b8 56050000 		.4byte	.LLST11
 1235 05bc 17       		.uleb128 0x17
 1236 05bd 84000000 		.4byte	.LBB29
 1237 05c1 04000000 		.4byte	.LBE29-.LBB29
 1238 05c5 18       		.uleb128 0x18
 1239 05c6 71060000 		.4byte	0x671
 1240 05ca 00       		.byte	0
 1241 05cb 00       		.byte	0
 1242 05cc 1E       		.uleb128 0x1e
 1243 05cd 54060000 		.4byte	0x654
 1244 05d1 8A000000 		.4byte	.LBB30
 1245 05d5 04000000 		.4byte	.LBE30-.LBB30
 1246 05d9 01       		.byte	0x1
 1247 05da 99       		.byte	0x99
 1248 05db F8050000 		.4byte	0x5f8
 1249 05df 16       		.uleb128 0x16
 1250 05e0 65060000 		.4byte	0x665
 1251 05e4 6A050000 		.4byte	.LLST12
 1252 05e8 17       		.uleb128 0x17
 1253 05e9 8A000000 		.4byte	.LBB31
 1254 05ed 04000000 		.4byte	.LBE31-.LBB31
ARM GAS  /tmp/ccyqJ3iz.s 			page 23


 1255 05f1 18       		.uleb128 0x18
 1256 05f2 71060000 		.4byte	0x671
 1257 05f6 00       		.byte	0
 1258 05f7 00       		.byte	0
 1259 05f8 19       		.uleb128 0x19
 1260 05f9 20000000 		.4byte	.LVL3
 1261 05fd 7E060000 		.4byte	0x67e
 1262 0601 1A       		.uleb128 0x1a
 1263 0602 2E000000 		.4byte	.LVL4
 1264 0606 89060000 		.4byte	0x689
 1265 060a 15060000 		.4byte	0x615
 1266 060e 1B       		.uleb128 0x1b
 1267 060f 01       		.uleb128 0x1
 1268 0610 50       		.byte	0x50
 1269 0611 02       		.uleb128 0x2
 1270 0612 91       		.byte	0x91
 1271 0613 44       		.sleb128 -60
 1272 0614 00       		.byte	0
 1273 0615 19       		.uleb128 0x19
 1274 0616 36000000 		.4byte	.LVL5
 1275 061a 94060000 		.4byte	0x694
 1276 061e 19       		.uleb128 0x19
 1277 061f 42000000 		.4byte	.LVL8
 1278 0623 9F060000 		.4byte	0x69f
 1279 0627 19       		.uleb128 0x19
 1280 0628 4C000000 		.4byte	.LVL10
 1281 062c AA060000 		.4byte	0x6aa
 1282 0630 1A       		.uleb128 0x1a
 1283 0631 56000000 		.4byte	.LVL13
 1284 0635 B5060000 		.4byte	0x6b5
 1285 0639 43060000 		.4byte	0x643
 1286 063d 1B       		.uleb128 0x1b
 1287 063e 01       		.uleb128 0x1
 1288 063f 50       		.byte	0x50
 1289 0640 01       		.uleb128 0x1
 1290 0641 38       		.byte	0x38
 1291 0642 00       		.byte	0
 1292 0643 1C       		.uleb128 0x1c
 1293 0644 72000000 		.4byte	.LVL17
 1294 0648 C0060000 		.4byte	0x6c0
 1295 064c 1B       		.uleb128 0x1b
 1296 064d 01       		.uleb128 0x1
 1297 064e 50       		.byte	0x50
 1298 064f 02       		.uleb128 0x2
 1299 0650 91       		.byte	0x91
 1300 0651 54       		.sleb128 -44
 1301 0652 00       		.byte	0
 1302 0653 00       		.byte	0
 1303 0654 1F       		.uleb128 0x1f
 1304 0655 75030000 		.4byte	.LASF55
 1305 0659 02       		.byte	0x2
 1306 065a 6D01     		.2byte	0x16d
 1307 065c C2000000 		.4byte	0xc2
 1308 0660 03       		.byte	0x3
 1309 0661 7E060000 		.4byte	0x67e
 1310 0665 20       		.uleb128 0x20
 1311 0666 49000000 		.4byte	.LASF56
ARM GAS  /tmp/ccyqJ3iz.s 			page 24


 1312 066a 02       		.byte	0x2
 1313 066b 6D01     		.2byte	0x16d
 1314 066d C2000000 		.4byte	0xc2
 1315 0671 21       		.uleb128 0x21
 1316 0672 16030000 		.4byte	.LASF57
 1317 0676 02       		.byte	0x2
 1318 0677 6F01     		.2byte	0x16f
 1319 0679 C2000000 		.4byte	0xc2
 1320 067d 00       		.byte	0
 1321 067e 22       		.uleb128 0x22
 1322 067f 08000000 		.4byte	.LASF44
 1323 0683 08000000 		.4byte	.LASF44
 1324 0687 06       		.byte	0x6
 1325 0688 C4       		.byte	0xc4
 1326 0689 22       		.uleb128 0x22
 1327 068a 1D030000 		.4byte	.LASF45
 1328 068e 1D030000 		.4byte	.LASF45
 1329 0692 06       		.byte	0x6
 1330 0693 C7       		.byte	0xc7
 1331 0694 22       		.uleb128 0x22
 1332 0695 2C000000 		.4byte	.LASF46
 1333 0699 2C000000 		.4byte	.LASF46
 1334 069d 06       		.byte	0x6
 1335 069e CE       		.byte	0xce
 1336 069f 22       		.uleb128 0x22
 1337 06a0 7B030000 		.4byte	.LASF47
 1338 06a4 7B030000 		.4byte	.LASF47
 1339 06a8 06       		.byte	0x6
 1340 06a9 CC       		.byte	0xcc
 1341 06aa 22       		.uleb128 0x22
 1342 06ab 45030000 		.4byte	.LASF48
 1343 06af 45030000 		.4byte	.LASF48
 1344 06b3 06       		.byte	0x6
 1345 06b4 CF       		.byte	0xcf
 1346 06b5 22       		.uleb128 0x22
 1347 06b6 59000000 		.4byte	.LASF49
 1348 06ba 59000000 		.4byte	.LASF49
 1349 06be 06       		.byte	0x6
 1350 06bf DB       		.byte	0xdb
 1351 06c0 22       		.uleb128 0x22
 1352 06c1 7E000000 		.4byte	.LASF50
 1353 06c5 7E000000 		.4byte	.LASF50
 1354 06c9 06       		.byte	0x6
 1355 06ca D0       		.byte	0xd0
 1356 06cb 00       		.byte	0
 1357              		.section	.debug_abbrev,"",%progbits
 1358              	.Ldebug_abbrev0:
 1359 0000 01       		.uleb128 0x1
 1360 0001 11       		.uleb128 0x11
 1361 0002 01       		.byte	0x1
 1362 0003 25       		.uleb128 0x25
 1363 0004 0E       		.uleb128 0xe
 1364 0005 13       		.uleb128 0x13
 1365 0006 0B       		.uleb128 0xb
 1366 0007 03       		.uleb128 0x3
 1367 0008 0E       		.uleb128 0xe
 1368 0009 1B       		.uleb128 0x1b
ARM GAS  /tmp/ccyqJ3iz.s 			page 25


 1369 000a 0E       		.uleb128 0xe
 1370 000b 55       		.uleb128 0x55
 1371 000c 17       		.uleb128 0x17
 1372 000d 11       		.uleb128 0x11
 1373 000e 01       		.uleb128 0x1
 1374 000f 10       		.uleb128 0x10
 1375 0010 17       		.uleb128 0x17
 1376 0011 00       		.byte	0
 1377 0012 00       		.byte	0
 1378 0013 02       		.uleb128 0x2
 1379 0014 24       		.uleb128 0x24
 1380 0015 00       		.byte	0
 1381 0016 0B       		.uleb128 0xb
 1382 0017 0B       		.uleb128 0xb
 1383 0018 3E       		.uleb128 0x3e
 1384 0019 0B       		.uleb128 0xb
 1385 001a 03       		.uleb128 0x3
 1386 001b 0E       		.uleb128 0xe
 1387 001c 00       		.byte	0
 1388 001d 00       		.byte	0
 1389 001e 03       		.uleb128 0x3
 1390 001f 16       		.uleb128 0x16
 1391 0020 00       		.byte	0
 1392 0021 03       		.uleb128 0x3
 1393 0022 0E       		.uleb128 0xe
 1394 0023 3A       		.uleb128 0x3a
 1395 0024 0B       		.uleb128 0xb
 1396 0025 3B       		.uleb128 0x3b
 1397 0026 0B       		.uleb128 0xb
 1398 0027 49       		.uleb128 0x49
 1399 0028 13       		.uleb128 0x13
 1400 0029 00       		.byte	0
 1401 002a 00       		.byte	0
 1402 002b 04       		.uleb128 0x4
 1403 002c 24       		.uleb128 0x24
 1404 002d 00       		.byte	0
 1405 002e 0B       		.uleb128 0xb
 1406 002f 0B       		.uleb128 0xb
 1407 0030 3E       		.uleb128 0x3e
 1408 0031 0B       		.uleb128 0xb
 1409 0032 03       		.uleb128 0x3
 1410 0033 08       		.uleb128 0x8
 1411 0034 00       		.byte	0
 1412 0035 00       		.byte	0
 1413 0036 05       		.uleb128 0x5
 1414 0037 35       		.uleb128 0x35
 1415 0038 00       		.byte	0
 1416 0039 49       		.uleb128 0x49
 1417 003a 13       		.uleb128 0x13
 1418 003b 00       		.byte	0
 1419 003c 00       		.byte	0
 1420 003d 06       		.uleb128 0x6
 1421 003e 01       		.uleb128 0x1
 1422 003f 01       		.byte	0x1
 1423 0040 49       		.uleb128 0x49
 1424 0041 13       		.uleb128 0x13
 1425 0042 01       		.uleb128 0x1
ARM GAS  /tmp/ccyqJ3iz.s 			page 26


 1426 0043 13       		.uleb128 0x13
 1427 0044 00       		.byte	0
 1428 0045 00       		.byte	0
 1429 0046 07       		.uleb128 0x7
 1430 0047 21       		.uleb128 0x21
 1431 0048 00       		.byte	0
 1432 0049 49       		.uleb128 0x49
 1433 004a 13       		.uleb128 0x13
 1434 004b 2F       		.uleb128 0x2f
 1435 004c 0B       		.uleb128 0xb
 1436 004d 00       		.byte	0
 1437 004e 00       		.byte	0
 1438 004f 08       		.uleb128 0x8
 1439 0050 34       		.uleb128 0x34
 1440 0051 00       		.byte	0
 1441 0052 03       		.uleb128 0x3
 1442 0053 0E       		.uleb128 0xe
 1443 0054 3A       		.uleb128 0x3a
 1444 0055 0B       		.uleb128 0xb
 1445 0056 3B       		.uleb128 0x3b
 1446 0057 05       		.uleb128 0x5
 1447 0058 49       		.uleb128 0x49
 1448 0059 13       		.uleb128 0x13
 1449 005a 3F       		.uleb128 0x3f
 1450 005b 19       		.uleb128 0x19
 1451 005c 3C       		.uleb128 0x3c
 1452 005d 19       		.uleb128 0x19
 1453 005e 00       		.byte	0
 1454 005f 00       		.byte	0
 1455 0060 09       		.uleb128 0x9
 1456 0061 04       		.uleb128 0x4
 1457 0062 01       		.byte	0x1
 1458 0063 3E       		.uleb128 0x3e
 1459 0064 0B       		.uleb128 0xb
 1460 0065 0B       		.uleb128 0xb
 1461 0066 0B       		.uleb128 0xb
 1462 0067 49       		.uleb128 0x49
 1463 0068 13       		.uleb128 0x13
 1464 0069 3A       		.uleb128 0x3a
 1465 006a 0B       		.uleb128 0xb
 1466 006b 3B       		.uleb128 0x3b
 1467 006c 05       		.uleb128 0x5
 1468 006d 01       		.uleb128 0x1
 1469 006e 13       		.uleb128 0x13
 1470 006f 00       		.byte	0
 1471 0070 00       		.byte	0
 1472 0071 0A       		.uleb128 0xa
 1473 0072 28       		.uleb128 0x28
 1474 0073 00       		.byte	0
 1475 0074 03       		.uleb128 0x3
 1476 0075 0E       		.uleb128 0xe
 1477 0076 1C       		.uleb128 0x1c
 1478 0077 0B       		.uleb128 0xb
 1479 0078 00       		.byte	0
 1480 0079 00       		.byte	0
 1481 007a 0B       		.uleb128 0xb
 1482 007b 28       		.uleb128 0x28
ARM GAS  /tmp/ccyqJ3iz.s 			page 27


 1483 007c 00       		.byte	0
 1484 007d 03       		.uleb128 0x3
 1485 007e 08       		.uleb128 0x8
 1486 007f 1C       		.uleb128 0x1c
 1487 0080 0B       		.uleb128 0xb
 1488 0081 00       		.byte	0
 1489 0082 00       		.byte	0
 1490 0083 0C       		.uleb128 0xc
 1491 0084 16       		.uleb128 0x16
 1492 0085 00       		.byte	0
 1493 0086 03       		.uleb128 0x3
 1494 0087 0E       		.uleb128 0xe
 1495 0088 3A       		.uleb128 0x3a
 1496 0089 0B       		.uleb128 0xb
 1497 008a 3B       		.uleb128 0x3b
 1498 008b 05       		.uleb128 0x5
 1499 008c 49       		.uleb128 0x49
 1500 008d 13       		.uleb128 0x13
 1501 008e 00       		.byte	0
 1502 008f 00       		.byte	0
 1503 0090 0D       		.uleb128 0xd
 1504 0091 13       		.uleb128 0x13
 1505 0092 01       		.byte	0x1
 1506 0093 0B       		.uleb128 0xb
 1507 0094 0B       		.uleb128 0xb
 1508 0095 3A       		.uleb128 0x3a
 1509 0096 0B       		.uleb128 0xb
 1510 0097 3B       		.uleb128 0x3b
 1511 0098 0B       		.uleb128 0xb
 1512 0099 01       		.uleb128 0x1
 1513 009a 13       		.uleb128 0x13
 1514 009b 00       		.byte	0
 1515 009c 00       		.byte	0
 1516 009d 0E       		.uleb128 0xe
 1517 009e 0D       		.uleb128 0xd
 1518 009f 00       		.byte	0
 1519 00a0 03       		.uleb128 0x3
 1520 00a1 0E       		.uleb128 0xe
 1521 00a2 3A       		.uleb128 0x3a
 1522 00a3 0B       		.uleb128 0xb
 1523 00a4 3B       		.uleb128 0x3b
 1524 00a5 0B       		.uleb128 0xb
 1525 00a6 49       		.uleb128 0x49
 1526 00a7 13       		.uleb128 0x13
 1527 00a8 38       		.uleb128 0x38
 1528 00a9 0B       		.uleb128 0xb
 1529 00aa 00       		.byte	0
 1530 00ab 00       		.byte	0
 1531 00ac 0F       		.uleb128 0xf
 1532 00ad 2E       		.uleb128 0x2e
 1533 00ae 01       		.byte	0x1
 1534 00af 3F       		.uleb128 0x3f
 1535 00b0 19       		.uleb128 0x19
 1536 00b1 03       		.uleb128 0x3
 1537 00b2 0E       		.uleb128 0xe
 1538 00b3 3A       		.uleb128 0x3a
 1539 00b4 0B       		.uleb128 0xb
ARM GAS  /tmp/ccyqJ3iz.s 			page 28


 1540 00b5 3B       		.uleb128 0x3b
 1541 00b6 0B       		.uleb128 0xb
 1542 00b7 27       		.uleb128 0x27
 1543 00b8 19       		.uleb128 0x19
 1544 00b9 49       		.uleb128 0x49
 1545 00ba 13       		.uleb128 0x13
 1546 00bb 11       		.uleb128 0x11
 1547 00bc 01       		.uleb128 0x1
 1548 00bd 12       		.uleb128 0x12
 1549 00be 06       		.uleb128 0x6
 1550 00bf 40       		.uleb128 0x40
 1551 00c0 18       		.uleb128 0x18
 1552 00c1 9742     		.uleb128 0x2117
 1553 00c3 19       		.uleb128 0x19
 1554 00c4 01       		.uleb128 0x1
 1555 00c5 13       		.uleb128 0x13
 1556 00c6 00       		.byte	0
 1557 00c7 00       		.byte	0
 1558 00c8 10       		.uleb128 0x10
 1559 00c9 05       		.uleb128 0x5
 1560 00ca 00       		.byte	0
 1561 00cb 03       		.uleb128 0x3
 1562 00cc 08       		.uleb128 0x8
 1563 00cd 3A       		.uleb128 0x3a
 1564 00ce 0B       		.uleb128 0xb
 1565 00cf 3B       		.uleb128 0x3b
 1566 00d0 0B       		.uleb128 0xb
 1567 00d1 49       		.uleb128 0x49
 1568 00d2 13       		.uleb128 0x13
 1569 00d3 02       		.uleb128 0x2
 1570 00d4 17       		.uleb128 0x17
 1571 00d5 00       		.byte	0
 1572 00d6 00       		.byte	0
 1573 00d7 11       		.uleb128 0x11
 1574 00d8 05       		.uleb128 0x5
 1575 00d9 00       		.byte	0
 1576 00da 03       		.uleb128 0x3
 1577 00db 0E       		.uleb128 0xe
 1578 00dc 3A       		.uleb128 0x3a
 1579 00dd 0B       		.uleb128 0xb
 1580 00de 3B       		.uleb128 0x3b
 1581 00df 0B       		.uleb128 0xb
 1582 00e0 49       		.uleb128 0x49
 1583 00e1 13       		.uleb128 0x13
 1584 00e2 02       		.uleb128 0x2
 1585 00e3 17       		.uleb128 0x17
 1586 00e4 00       		.byte	0
 1587 00e5 00       		.byte	0
 1588 00e6 12       		.uleb128 0x12
 1589 00e7 34       		.uleb128 0x34
 1590 00e8 00       		.byte	0
 1591 00e9 03       		.uleb128 0x3
 1592 00ea 0E       		.uleb128 0xe
 1593 00eb 3A       		.uleb128 0x3a
 1594 00ec 0B       		.uleb128 0xb
 1595 00ed 3B       		.uleb128 0x3b
 1596 00ee 0B       		.uleb128 0xb
ARM GAS  /tmp/ccyqJ3iz.s 			page 29


 1597 00ef 49       		.uleb128 0x49
 1598 00f0 13       		.uleb128 0x13
 1599 00f1 02       		.uleb128 0x2
 1600 00f2 18       		.uleb128 0x18
 1601 00f3 00       		.byte	0
 1602 00f4 00       		.byte	0
 1603 00f5 13       		.uleb128 0x13
 1604 00f6 34       		.uleb128 0x34
 1605 00f7 00       		.byte	0
 1606 00f8 03       		.uleb128 0x3
 1607 00f9 08       		.uleb128 0x8
 1608 00fa 3A       		.uleb128 0x3a
 1609 00fb 0B       		.uleb128 0xb
 1610 00fc 3B       		.uleb128 0x3b
 1611 00fd 0B       		.uleb128 0xb
 1612 00fe 49       		.uleb128 0x49
 1613 00ff 13       		.uleb128 0x13
 1614 0100 02       		.uleb128 0x2
 1615 0101 17       		.uleb128 0x17
 1616 0102 00       		.byte	0
 1617 0103 00       		.byte	0
 1618 0104 14       		.uleb128 0x14
 1619 0105 34       		.uleb128 0x34
 1620 0106 00       		.byte	0
 1621 0107 03       		.uleb128 0x3
 1622 0108 0E       		.uleb128 0xe
 1623 0109 3A       		.uleb128 0x3a
 1624 010a 0B       		.uleb128 0xb
 1625 010b 3B       		.uleb128 0x3b
 1626 010c 0B       		.uleb128 0xb
 1627 010d 49       		.uleb128 0x49
 1628 010e 13       		.uleb128 0x13
 1629 010f 02       		.uleb128 0x2
 1630 0110 17       		.uleb128 0x17
 1631 0111 00       		.byte	0
 1632 0112 00       		.byte	0
 1633 0113 15       		.uleb128 0x15
 1634 0114 1D       		.uleb128 0x1d
 1635 0115 01       		.byte	0x1
 1636 0116 31       		.uleb128 0x31
 1637 0117 13       		.uleb128 0x13
 1638 0118 11       		.uleb128 0x11
 1639 0119 01       		.uleb128 0x1
 1640 011a 12       		.uleb128 0x12
 1641 011b 06       		.uleb128 0x6
 1642 011c 58       		.uleb128 0x58
 1643 011d 0B       		.uleb128 0xb
 1644 011e 59       		.uleb128 0x59
 1645 011f 05       		.uleb128 0x5
 1646 0120 01       		.uleb128 0x1
 1647 0121 13       		.uleb128 0x13
 1648 0122 00       		.byte	0
 1649 0123 00       		.byte	0
 1650 0124 16       		.uleb128 0x16
 1651 0125 05       		.uleb128 0x5
 1652 0126 00       		.byte	0
 1653 0127 31       		.uleb128 0x31
ARM GAS  /tmp/ccyqJ3iz.s 			page 30


 1654 0128 13       		.uleb128 0x13
 1655 0129 02       		.uleb128 0x2
 1656 012a 17       		.uleb128 0x17
 1657 012b 00       		.byte	0
 1658 012c 00       		.byte	0
 1659 012d 17       		.uleb128 0x17
 1660 012e 0B       		.uleb128 0xb
 1661 012f 01       		.byte	0x1
 1662 0130 11       		.uleb128 0x11
 1663 0131 01       		.uleb128 0x1
 1664 0132 12       		.uleb128 0x12
 1665 0133 06       		.uleb128 0x6
 1666 0134 00       		.byte	0
 1667 0135 00       		.byte	0
 1668 0136 18       		.uleb128 0x18
 1669 0137 34       		.uleb128 0x34
 1670 0138 00       		.byte	0
 1671 0139 31       		.uleb128 0x31
 1672 013a 13       		.uleb128 0x13
 1673 013b 00       		.byte	0
 1674 013c 00       		.byte	0
 1675 013d 19       		.uleb128 0x19
 1676 013e 898201   		.uleb128 0x4109
 1677 0141 00       		.byte	0
 1678 0142 11       		.uleb128 0x11
 1679 0143 01       		.uleb128 0x1
 1680 0144 31       		.uleb128 0x31
 1681 0145 13       		.uleb128 0x13
 1682 0146 00       		.byte	0
 1683 0147 00       		.byte	0
 1684 0148 1A       		.uleb128 0x1a
 1685 0149 898201   		.uleb128 0x4109
 1686 014c 01       		.byte	0x1
 1687 014d 11       		.uleb128 0x11
 1688 014e 01       		.uleb128 0x1
 1689 014f 31       		.uleb128 0x31
 1690 0150 13       		.uleb128 0x13
 1691 0151 01       		.uleb128 0x1
 1692 0152 13       		.uleb128 0x13
 1693 0153 00       		.byte	0
 1694 0154 00       		.byte	0
 1695 0155 1B       		.uleb128 0x1b
 1696 0156 8A8201   		.uleb128 0x410a
 1697 0159 00       		.byte	0
 1698 015a 02       		.uleb128 0x2
 1699 015b 18       		.uleb128 0x18
 1700 015c 9142     		.uleb128 0x2111
 1701 015e 18       		.uleb128 0x18
 1702 015f 00       		.byte	0
 1703 0160 00       		.byte	0
 1704 0161 1C       		.uleb128 0x1c
 1705 0162 898201   		.uleb128 0x4109
 1706 0165 01       		.byte	0x1
 1707 0166 11       		.uleb128 0x11
 1708 0167 01       		.uleb128 0x1
 1709 0168 31       		.uleb128 0x31
 1710 0169 13       		.uleb128 0x13
ARM GAS  /tmp/ccyqJ3iz.s 			page 31


 1711 016a 00       		.byte	0
 1712 016b 00       		.byte	0
 1713 016c 1D       		.uleb128 0x1d
 1714 016d 0F       		.uleb128 0xf
 1715 016e 00       		.byte	0
 1716 016f 0B       		.uleb128 0xb
 1717 0170 0B       		.uleb128 0xb
 1718 0171 49       		.uleb128 0x49
 1719 0172 13       		.uleb128 0x13
 1720 0173 00       		.byte	0
 1721 0174 00       		.byte	0
 1722 0175 1E       		.uleb128 0x1e
 1723 0176 1D       		.uleb128 0x1d
 1724 0177 01       		.byte	0x1
 1725 0178 31       		.uleb128 0x31
 1726 0179 13       		.uleb128 0x13
 1727 017a 11       		.uleb128 0x11
 1728 017b 01       		.uleb128 0x1
 1729 017c 12       		.uleb128 0x12
 1730 017d 06       		.uleb128 0x6
 1731 017e 58       		.uleb128 0x58
 1732 017f 0B       		.uleb128 0xb
 1733 0180 59       		.uleb128 0x59
 1734 0181 0B       		.uleb128 0xb
 1735 0182 01       		.uleb128 0x1
 1736 0183 13       		.uleb128 0x13
 1737 0184 00       		.byte	0
 1738 0185 00       		.byte	0
 1739 0186 1F       		.uleb128 0x1f
 1740 0187 2E       		.uleb128 0x2e
 1741 0188 01       		.byte	0x1
 1742 0189 03       		.uleb128 0x3
 1743 018a 0E       		.uleb128 0xe
 1744 018b 3A       		.uleb128 0x3a
 1745 018c 0B       		.uleb128 0xb
 1746 018d 3B       		.uleb128 0x3b
 1747 018e 05       		.uleb128 0x5
 1748 018f 27       		.uleb128 0x27
 1749 0190 19       		.uleb128 0x19
 1750 0191 49       		.uleb128 0x49
 1751 0192 13       		.uleb128 0x13
 1752 0193 20       		.uleb128 0x20
 1753 0194 0B       		.uleb128 0xb
 1754 0195 01       		.uleb128 0x1
 1755 0196 13       		.uleb128 0x13
 1756 0197 00       		.byte	0
 1757 0198 00       		.byte	0
 1758 0199 20       		.uleb128 0x20
 1759 019a 05       		.uleb128 0x5
 1760 019b 00       		.byte	0
 1761 019c 03       		.uleb128 0x3
 1762 019d 0E       		.uleb128 0xe
 1763 019e 3A       		.uleb128 0x3a
 1764 019f 0B       		.uleb128 0xb
 1765 01a0 3B       		.uleb128 0x3b
 1766 01a1 05       		.uleb128 0x5
 1767 01a2 49       		.uleb128 0x49
ARM GAS  /tmp/ccyqJ3iz.s 			page 32


 1768 01a3 13       		.uleb128 0x13
 1769 01a4 00       		.byte	0
 1770 01a5 00       		.byte	0
 1771 01a6 21       		.uleb128 0x21
 1772 01a7 34       		.uleb128 0x34
 1773 01a8 00       		.byte	0
 1774 01a9 03       		.uleb128 0x3
 1775 01aa 0E       		.uleb128 0xe
 1776 01ab 3A       		.uleb128 0x3a
 1777 01ac 0B       		.uleb128 0xb
 1778 01ad 3B       		.uleb128 0x3b
 1779 01ae 05       		.uleb128 0x5
 1780 01af 49       		.uleb128 0x49
 1781 01b0 13       		.uleb128 0x13
 1782 01b1 00       		.byte	0
 1783 01b2 00       		.byte	0
 1784 01b3 22       		.uleb128 0x22
 1785 01b4 2E       		.uleb128 0x2e
 1786 01b5 00       		.byte	0
 1787 01b6 3F       		.uleb128 0x3f
 1788 01b7 19       		.uleb128 0x19
 1789 01b8 3C       		.uleb128 0x3c
 1790 01b9 19       		.uleb128 0x19
 1791 01ba 6E       		.uleb128 0x6e
 1792 01bb 0E       		.uleb128 0xe
 1793 01bc 03       		.uleb128 0x3
 1794 01bd 0E       		.uleb128 0xe
 1795 01be 3A       		.uleb128 0x3a
 1796 01bf 0B       		.uleb128 0xb
 1797 01c0 3B       		.uleb128 0x3b
 1798 01c1 0B       		.uleb128 0xb
 1799 01c2 00       		.byte	0
 1800 01c3 00       		.byte	0
 1801 01c4 00       		.byte	0
 1802              		.section	.debug_loc,"",%progbits
 1803              	.Ldebug_loc0:
 1804              	.LLST13:
 1805 0000 00000000 		.4byte	.LVL28
 1806 0004 31000000 		.4byte	.LVL33-1
 1807 0008 0100     		.2byte	0x1
 1808 000a 50       		.byte	0x50
 1809 000b 31000000 		.4byte	.LVL33-1
 1810 000f 48010000 		.4byte	.LFE112
 1811 0013 0100     		.2byte	0x1
 1812 0015 56       		.byte	0x56
 1813 0016 00000000 		.4byte	0
 1814 001a 00000000 		.4byte	0
 1815              	.LLST14:
 1816 001e 00000000 		.4byte	.LVL28
 1817 0022 0C000000 		.4byte	.LVL29
 1818 0026 0100     		.2byte	0x1
 1819 0028 51       		.byte	0x51
 1820 0029 0C000000 		.4byte	.LVL29
 1821 002d 48010000 		.4byte	.LFE112
 1822 0031 0100     		.2byte	0x1
 1823 0033 55       		.byte	0x55
 1824 0034 00000000 		.4byte	0
ARM GAS  /tmp/ccyqJ3iz.s 			page 33


 1825 0038 00000000 		.4byte	0
 1826              	.LLST15:
 1827 003c 00000000 		.4byte	.LVL28
 1828 0040 31000000 		.4byte	.LVL33-1
 1829 0044 0100     		.2byte	0x1
 1830 0046 52       		.byte	0x52
 1831 0047 31000000 		.4byte	.LVL33-1
 1832 004b 48010000 		.4byte	.LFE112
 1833 004f 0100     		.2byte	0x1
 1834 0051 58       		.byte	0x58
 1835 0052 00000000 		.4byte	0
 1836 0056 00000000 		.4byte	0
 1837              	.LLST16:
 1838 005a 00000000 		.4byte	.LVL28
 1839 005e 12000000 		.4byte	.LVL30
 1840 0062 0100     		.2byte	0x1
 1841 0064 53       		.byte	0x53
 1842 0065 12000000 		.4byte	.LVL30
 1843 0069 48010000 		.4byte	.LFE112
 1844 006d 0100     		.2byte	0x1
 1845 006f 57       		.byte	0x57
 1846 0070 00000000 		.4byte	0
 1847 0074 00000000 		.4byte	0
 1848              	.LLST17:
 1849 0078 00000000 		.4byte	.LVL28
 1850 007c 8A000000 		.4byte	.LVL46
 1851 0080 0200     		.2byte	0x2
 1852 0082 91       		.byte	0x91
 1853 0083 00       		.sleb128 0
 1854 0084 8A000000 		.4byte	.LVL46
 1855 0088 48010000 		.4byte	.LFE112
 1856 008c 0200     		.2byte	0x2
 1857 008e 91       		.byte	0x91
 1858 008f 00       		.sleb128 0
 1859 0090 00000000 		.4byte	0
 1860 0094 00000000 		.4byte	0
 1861              	.LLST18:
 1862 0098 22000000 		.4byte	.LVL31
 1863 009c 56000000 		.4byte	.LVL36
 1864 00a0 0200     		.2byte	0x2
 1865 00a2 30       		.byte	0x30
 1866 00a3 9F       		.byte	0x9f
 1867 00a4 56000000 		.4byte	.LVL36
 1868 00a8 5A000000 		.4byte	.LVL37
 1869 00ac 0600     		.2byte	0x6
 1870 00ae 74       		.byte	0x74
 1871 00af 00       		.sleb128 0
 1872 00b0 76       		.byte	0x76
 1873 00b1 00       		.sleb128 0
 1874 00b2 1C       		.byte	0x1c
 1875 00b3 9F       		.byte	0x9f
 1876 00b4 5A000000 		.4byte	.LVL37
 1877 00b8 5E000000 		.4byte	.LVL38
 1878 00bc 0800     		.2byte	0x8
 1879 00be 74       		.byte	0x74
 1880 00bf 00       		.sleb128 0
 1881 00c0 76       		.byte	0x76
ARM GAS  /tmp/ccyqJ3iz.s 			page 34


 1882 00c1 00       		.sleb128 0
 1883 00c2 1C       		.byte	0x1c
 1884 00c3 34       		.byte	0x34
 1885 00c4 1C       		.byte	0x1c
 1886 00c5 9F       		.byte	0x9f
 1887 00c6 5E000000 		.4byte	.LVL38
 1888 00ca 64000000 		.4byte	.LVL39
 1889 00ce 0600     		.2byte	0x6
 1890 00d0 74       		.byte	0x74
 1891 00d1 00       		.sleb128 0
 1892 00d2 76       		.byte	0x76
 1893 00d3 00       		.sleb128 0
 1894 00d4 1C       		.byte	0x1c
 1895 00d5 9F       		.byte	0x9f
 1896 00d6 8A000000 		.4byte	.LVL46
 1897 00da A0000000 		.4byte	.LVL49
 1898 00de 0200     		.2byte	0x2
 1899 00e0 30       		.byte	0x30
 1900 00e1 9F       		.byte	0x9f
 1901 00e2 A8000000 		.4byte	.LVL51
 1902 00e6 AC000000 		.4byte	.LVL52
 1903 00ea 0200     		.2byte	0x2
 1904 00ec 30       		.byte	0x30
 1905 00ed 9F       		.byte	0x9f
 1906 00ee AC000000 		.4byte	.LVL52
 1907 00f2 B0000000 		.4byte	.LVL53
 1908 00f6 0600     		.2byte	0x6
 1909 00f8 74       		.byte	0x74
 1910 00f9 00       		.sleb128 0
 1911 00fa 78       		.byte	0x78
 1912 00fb 00       		.sleb128 0
 1913 00fc 1C       		.byte	0x1c
 1914 00fd 9F       		.byte	0x9f
 1915 00fe B0000000 		.4byte	.LVL53
 1916 0102 B4000000 		.4byte	.LVL54
 1917 0106 0800     		.2byte	0x8
 1918 0108 74       		.byte	0x74
 1919 0109 00       		.sleb128 0
 1920 010a 78       		.byte	0x78
 1921 010b 00       		.sleb128 0
 1922 010c 1C       		.byte	0x1c
 1923 010d 34       		.byte	0x34
 1924 010e 1C       		.byte	0x1c
 1925 010f 9F       		.byte	0x9f
 1926 0110 B4000000 		.4byte	.LVL54
 1927 0114 BC000000 		.4byte	.LVL55
 1928 0118 0600     		.2byte	0x6
 1929 011a 74       		.byte	0x74
 1930 011b 00       		.sleb128 0
 1931 011c 78       		.byte	0x78
 1932 011d 00       		.sleb128 0
 1933 011e 1C       		.byte	0x1c
 1934 011f 9F       		.byte	0x9f
 1935 0120 E8000000 		.4byte	.LVL61
 1936 0124 EC000000 		.4byte	.LVL62
 1937 0128 0200     		.2byte	0x2
 1938 012a 30       		.byte	0x30
ARM GAS  /tmp/ccyqJ3iz.s 			page 35


 1939 012b 9F       		.byte	0x9f
 1940 012c EC000000 		.4byte	.LVL62
 1941 0130 F0000000 		.4byte	.LVL63
 1942 0134 0600     		.2byte	0x6
 1943 0136 74       		.byte	0x74
 1944 0137 00       		.sleb128 0
 1945 0138 76       		.byte	0x76
 1946 0139 00       		.sleb128 0
 1947 013a 1C       		.byte	0x1c
 1948 013b 9F       		.byte	0x9f
 1949 013c F0000000 		.4byte	.LVL63
 1950 0140 F4000000 		.4byte	.LVL64
 1951 0144 0800     		.2byte	0x8
 1952 0146 74       		.byte	0x74
 1953 0147 00       		.sleb128 0
 1954 0148 76       		.byte	0x76
 1955 0149 00       		.sleb128 0
 1956 014a 1C       		.byte	0x1c
 1957 014b 34       		.byte	0x34
 1958 014c 1C       		.byte	0x1c
 1959 014d 9F       		.byte	0x9f
 1960 014e F4000000 		.4byte	.LVL64
 1961 0152 FA000000 		.4byte	.LVL65
 1962 0156 0600     		.2byte	0x6
 1963 0158 74       		.byte	0x74
 1964 0159 00       		.sleb128 0
 1965 015a 76       		.byte	0x76
 1966 015b 00       		.sleb128 0
 1967 015c 1C       		.byte	0x1c
 1968 015d 9F       		.byte	0x9f
 1969 015e 00000000 		.4byte	0
 1970 0162 00000000 		.4byte	0
 1971              	.LLST19:
 1972 0166 26000000 		.4byte	.LVL32
 1973 016a 6A000000 		.4byte	.LVL41
 1974 016e 0200     		.2byte	0x2
 1975 0170 30       		.byte	0x30
 1976 0171 9F       		.byte	0x9f
 1977 0172 6A000000 		.4byte	.LVL41
 1978 0176 6C000000 		.4byte	.LVL42
 1979 017a 0100     		.2byte	0x1
 1980 017c 50       		.byte	0x50
 1981 017d 72000000 		.4byte	.LVL43
 1982 0181 84000000 		.4byte	.LVL45
 1983 0185 0100     		.2byte	0x1
 1984 0187 50       		.byte	0x50
 1985 0188 8A000000 		.4byte	.LVL46
 1986 018c A0000000 		.4byte	.LVL49
 1987 0190 0200     		.2byte	0x2
 1988 0192 30       		.byte	0x30
 1989 0193 9F       		.byte	0x9f
 1990 0194 A0000000 		.4byte	.LVL49
 1991 0198 A4000000 		.4byte	.LVL50
 1992 019c 0100     		.2byte	0x1
 1993 019e 50       		.byte	0x50
 1994 019f C6000000 		.4byte	.LVL57
 1995 01a3 C8000000 		.4byte	.LVL58
ARM GAS  /tmp/ccyqJ3iz.s 			page 36


 1996 01a7 0100     		.2byte	0x1
 1997 01a9 50       		.byte	0x50
 1998 01aa CE000000 		.4byte	.LVL59
 1999 01ae E4000000 		.4byte	.LVL60
 2000 01b2 0100     		.2byte	0x1
 2001 01b4 50       		.byte	0x50
 2002 01b5 04010000 		.4byte	.LVL67
 2003 01b9 06010000 		.4byte	.LVL68
 2004 01bd 0100     		.2byte	0x1
 2005 01bf 50       		.byte	0x50
 2006 01c0 0C010000 		.4byte	.LVL69
 2007 01c4 20010000 		.4byte	.LVL70
 2008 01c8 0100     		.2byte	0x1
 2009 01ca 50       		.byte	0x50
 2010 01cb 00000000 		.4byte	0
 2011 01cf 00000000 		.4byte	0
 2012              	.LLST20:
 2013 01d3 26000000 		.4byte	.LVL32
 2014 01d7 84000000 		.4byte	.LVL45
 2015 01db 0200     		.2byte	0x2
 2016 01dd 31       		.byte	0x31
 2017 01de 9F       		.byte	0x9f
 2018 01df 84000000 		.4byte	.LVL45
 2019 01e3 8A000000 		.4byte	.LVL46
 2020 01e7 0100     		.2byte	0x1
 2021 01e9 50       		.byte	0x50
 2022 01ea 8A000000 		.4byte	.LVL46
 2023 01ee 48010000 		.4byte	.LFE112
 2024 01f2 0200     		.2byte	0x2
 2025 01f4 31       		.byte	0x31
 2026 01f5 9F       		.byte	0x9f
 2027 01f6 00000000 		.4byte	0
 2028 01fa 00000000 		.4byte	0
 2029              	.LLST21:
 2030 01fe 26000000 		.4byte	.LVL32
 2031 0202 31000000 		.4byte	.LVL33-1
 2032 0206 0100     		.2byte	0x1
 2033 0208 50       		.byte	0x50
 2034 0209 31000000 		.4byte	.LVL33-1
 2035 020d 56000000 		.4byte	.LVL36
 2036 0211 0100     		.2byte	0x1
 2037 0213 56       		.byte	0x56
 2038 0214 56000000 		.4byte	.LVL36
 2039 0218 5A000000 		.4byte	.LVL37
 2040 021c 0100     		.2byte	0x1
 2041 021e 54       		.byte	0x54
 2042 021f 5A000000 		.4byte	.LVL37
 2043 0223 5E000000 		.4byte	.LVL38
 2044 0227 0300     		.2byte	0x3
 2045 0229 74       		.byte	0x74
 2046 022a 7C       		.sleb128 -4
 2047 022b 9F       		.byte	0x9f
 2048 022c 5E000000 		.4byte	.LVL38
 2049 0230 64000000 		.4byte	.LVL39
 2050 0234 0100     		.2byte	0x1
 2051 0236 54       		.byte	0x54
 2052 0237 8A000000 		.4byte	.LVL46
ARM GAS  /tmp/ccyqJ3iz.s 			page 37


 2053 023b A0000000 		.4byte	.LVL49
 2054 023f 0100     		.2byte	0x1
 2055 0241 56       		.byte	0x56
 2056 0242 E8000000 		.4byte	.LVL61
 2057 0246 EC000000 		.4byte	.LVL62
 2058 024a 0100     		.2byte	0x1
 2059 024c 56       		.byte	0x56
 2060 024d EC000000 		.4byte	.LVL62
 2061 0251 F0000000 		.4byte	.LVL63
 2062 0255 0100     		.2byte	0x1
 2063 0257 54       		.byte	0x54
 2064 0258 F0000000 		.4byte	.LVL63
 2065 025c F4000000 		.4byte	.LVL64
 2066 0260 0300     		.2byte	0x3
 2067 0262 74       		.byte	0x74
 2068 0263 7C       		.sleb128 -4
 2069 0264 9F       		.byte	0x9f
 2070 0265 F4000000 		.4byte	.LVL64
 2071 0269 FA000000 		.4byte	.LVL65
 2072 026d 0100     		.2byte	0x1
 2073 026f 54       		.byte	0x54
 2074 0270 00000000 		.4byte	0
 2075 0274 00000000 		.4byte	0
 2076              	.LLST22:
 2077 0278 26000000 		.4byte	.LVL32
 2078 027c 31000000 		.4byte	.LVL33-1
 2079 0280 0100     		.2byte	0x1
 2080 0282 52       		.byte	0x52
 2081 0283 31000000 		.4byte	.LVL33-1
 2082 0287 82000000 		.4byte	.LVL44
 2083 028b 0100     		.2byte	0x1
 2084 028d 58       		.byte	0x58
 2085 028e 8A000000 		.4byte	.LVL46
 2086 0292 AC000000 		.4byte	.LVL52
 2087 0296 0100     		.2byte	0x1
 2088 0298 58       		.byte	0x58
 2089 0299 AC000000 		.4byte	.LVL52
 2090 029d B0000000 		.4byte	.LVL53
 2091 02a1 0100     		.2byte	0x1
 2092 02a3 54       		.byte	0x54
 2093 02a4 B0000000 		.4byte	.LVL53
 2094 02a8 B4000000 		.4byte	.LVL54
 2095 02ac 0300     		.2byte	0x3
 2096 02ae 74       		.byte	0x74
 2097 02af 7C       		.sleb128 -4
 2098 02b0 9F       		.byte	0x9f
 2099 02b1 B4000000 		.4byte	.LVL54
 2100 02b5 BC000000 		.4byte	.LVL55
 2101 02b9 0100     		.2byte	0x1
 2102 02bb 54       		.byte	0x54
 2103 02bc 00000000 		.4byte	0
 2104 02c0 00000000 		.4byte	0
 2105              	.LLST23:
 2106 02c4 26000000 		.4byte	.LVL32
 2107 02c8 84000000 		.4byte	.LVL45
 2108 02cc 0200     		.2byte	0x2
 2109 02ce 91       		.byte	0x91
ARM GAS  /tmp/ccyqJ3iz.s 			page 38


 2110 02cf 00       		.sleb128 0
 2111 02d0 8A000000 		.4byte	.LVL46
 2112 02d4 2C010000 		.4byte	.LVL73
 2113 02d8 0200     		.2byte	0x2
 2114 02da 91       		.byte	0x91
 2115 02db 00       		.sleb128 0
 2116 02dc 2C010000 		.4byte	.LVL73
 2117 02e0 32010000 		.4byte	.LVL75
 2118 02e4 0300     		.2byte	0x3
 2119 02e6 72       		.byte	0x72
 2120 02e7 04       		.sleb128 4
 2121 02e8 9F       		.byte	0x9f
 2122 02e9 32010000 		.4byte	.LVL75
 2123 02ed 38010000 		.4byte	.LVL77
 2124 02f1 0300     		.2byte	0x3
 2125 02f3 72       		.byte	0x72
 2126 02f4 08       		.sleb128 8
 2127 02f5 9F       		.byte	0x9f
 2128 02f6 38010000 		.4byte	.LVL77
 2129 02fa 3E010000 		.4byte	.LVL79
 2130 02fe 0300     		.2byte	0x3
 2131 0300 72       		.byte	0x72
 2132 0301 0C       		.sleb128 12
 2133 0302 9F       		.byte	0x9f
 2134 0303 3E010000 		.4byte	.LVL79
 2135 0307 48010000 		.4byte	.LFE112
 2136 030b 0300     		.2byte	0x3
 2137 030d 72       		.byte	0x72
 2138 030e 10       		.sleb128 16
 2139 030f 9F       		.byte	0x9f
 2140 0310 00000000 		.4byte	0
 2141 0314 00000000 		.4byte	0
 2142              	.LLST24:
 2143 0318 24010000 		.4byte	.LVL71
 2144 031c 28010000 		.4byte	.LVL72
 2145 0320 0200     		.2byte	0x2
 2146 0322 91       		.byte	0x91
 2147 0323 54       		.sleb128 -44
 2148 0324 00000000 		.4byte	0
 2149 0328 00000000 		.4byte	0
 2150              	.LLST25:
 2151 032c 2C010000 		.4byte	.LVL73
 2152 0330 30010000 		.4byte	.LVL74
 2153 0334 0200     		.2byte	0x2
 2154 0336 91       		.byte	0x91
 2155 0337 58       		.sleb128 -40
 2156 0338 00000000 		.4byte	0
 2157 033c 00000000 		.4byte	0
 2158              	.LLST26:
 2159 0340 32010000 		.4byte	.LVL75
 2160 0344 36010000 		.4byte	.LVL76
 2161 0348 0200     		.2byte	0x2
 2162 034a 91       		.byte	0x91
 2163 034b 5C       		.sleb128 -36
 2164 034c 00000000 		.4byte	0
 2165 0350 00000000 		.4byte	0
 2166              	.LLST27:
ARM GAS  /tmp/ccyqJ3iz.s 			page 39


 2167 0354 38010000 		.4byte	.LVL77
 2168 0358 3C010000 		.4byte	.LVL78
 2169 035c 0200     		.2byte	0x2
 2170 035e 91       		.byte	0x91
 2171 035f 60       		.sleb128 -32
 2172 0360 00000000 		.4byte	0
 2173 0364 00000000 		.4byte	0
 2174              	.LLST28:
 2175 0368 3E010000 		.4byte	.LVL79
 2176 036c 42010000 		.4byte	.LVL80
 2177 0370 0200     		.2byte	0x2
 2178 0372 91       		.byte	0x91
 2179 0373 64       		.sleb128 -28
 2180 0374 00000000 		.4byte	0
 2181 0378 00000000 		.4byte	0
 2182              	.LLST0:
 2183 037c 00000000 		.4byte	.LVL0
 2184 0380 1F000000 		.4byte	.LVL3-1
 2185 0384 0100     		.2byte	0x1
 2186 0386 50       		.byte	0x50
 2187 0387 1F000000 		.4byte	.LVL3-1
 2188 038b 96000000 		.4byte	.LFE111
 2189 038f 0100     		.2byte	0x1
 2190 0391 57       		.byte	0x57
 2191 0392 00000000 		.4byte	0
 2192 0396 00000000 		.4byte	0
 2193              	.LLST1:
 2194 039a 00000000 		.4byte	.LVL0
 2195 039e 1F000000 		.4byte	.LVL3-1
 2196 03a2 0100     		.2byte	0x1
 2197 03a4 51       		.byte	0x51
 2198 03a5 1F000000 		.4byte	.LVL3-1
 2199 03a9 96000000 		.4byte	.LFE111
 2200 03ad 0100     		.2byte	0x1
 2201 03af 55       		.byte	0x55
 2202 03b0 00000000 		.4byte	0
 2203 03b4 00000000 		.4byte	0
 2204              	.LLST2:
 2205 03b8 00000000 		.4byte	.LVL0
 2206 03bc 1F000000 		.4byte	.LVL3-1
 2207 03c0 0100     		.2byte	0x1
 2208 03c2 52       		.byte	0x52
 2209 03c3 1F000000 		.4byte	.LVL3-1
 2210 03c7 96000000 		.4byte	.LFE111
 2211 03cb 0100     		.2byte	0x1
 2212 03cd 56       		.byte	0x56
 2213 03ce 00000000 		.4byte	0
 2214 03d2 00000000 		.4byte	0
 2215              	.LLST3:
 2216 03d6 12000000 		.4byte	.LVL1
 2217 03da 3A000000 		.4byte	.LVL6
 2218 03de 0200     		.2byte	0x2
 2219 03e0 30       		.byte	0x30
 2220 03e1 9F       		.byte	0x9f
 2221 03e2 3A000000 		.4byte	.LVL6
 2222 03e6 3E000000 		.4byte	.LVL7
 2223 03ea 0600     		.2byte	0x6
ARM GAS  /tmp/ccyqJ3iz.s 			page 40


 2224 03ec 74       		.byte	0x74
 2225 03ed 00       		.sleb128 0
 2226 03ee 77       		.byte	0x77
 2227 03ef 00       		.sleb128 0
 2228 03f0 1C       		.byte	0x1c
 2229 03f1 9F       		.byte	0x9f
 2230 03f2 3E000000 		.4byte	.LVL7
 2231 03f6 42000000 		.4byte	.LVL8
 2232 03fa 0800     		.2byte	0x8
 2233 03fc 74       		.byte	0x74
 2234 03fd 00       		.sleb128 0
 2235 03fe 77       		.byte	0x77
 2236 03ff 00       		.sleb128 0
 2237 0400 1C       		.byte	0x1c
 2238 0401 34       		.byte	0x34
 2239 0402 1C       		.byte	0x1c
 2240 0403 9F       		.byte	0x9f
 2241 0404 42000000 		.4byte	.LVL8
 2242 0408 48000000 		.4byte	.LVL9
 2243 040c 0600     		.2byte	0x6
 2244 040e 74       		.byte	0x74
 2245 040f 00       		.sleb128 0
 2246 0410 77       		.byte	0x77
 2247 0411 00       		.sleb128 0
 2248 0412 1C       		.byte	0x1c
 2249 0413 9F       		.byte	0x9f
 2250 0414 00000000 		.4byte	0
 2251 0418 00000000 		.4byte	0
 2252              	.LLST4:
 2253 041c 18000000 		.4byte	.LVL2
 2254 0420 4E000000 		.4byte	.LVL11
 2255 0424 0200     		.2byte	0x2
 2256 0426 30       		.byte	0x30
 2257 0427 9F       		.byte	0x9f
 2258 0428 4E000000 		.4byte	.LVL11
 2259 042c 50000000 		.4byte	.LVL12
 2260 0430 0100     		.2byte	0x1
 2261 0432 50       		.byte	0x50
 2262 0433 56000000 		.4byte	.LVL13
 2263 0437 68000000 		.4byte	.LVL14
 2264 043b 0100     		.2byte	0x1
 2265 043d 50       		.byte	0x50
 2266 043e 6C000000 		.4byte	.LVL15
 2267 0442 6E000000 		.4byte	.LVL16
 2268 0446 0100     		.2byte	0x1
 2269 0448 50       		.byte	0x50
 2270 0449 00000000 		.4byte	0
 2271 044d 00000000 		.4byte	0
 2272              	.LLST5:
 2273 0451 18000000 		.4byte	.LVL2
 2274 0455 68000000 		.4byte	.LVL14
 2275 0459 0200     		.2byte	0x2
 2276 045b 31       		.byte	0x31
 2277 045c 9F       		.byte	0x9f
 2278 045d 68000000 		.4byte	.LVL14
 2279 0461 6C000000 		.4byte	.LVL15
 2280 0465 0100     		.2byte	0x1
ARM GAS  /tmp/ccyqJ3iz.s 			page 41


 2281 0467 50       		.byte	0x50
 2282 0468 6C000000 		.4byte	.LVL15
 2283 046c 92000000 		.4byte	.LVL27
 2284 0470 0200     		.2byte	0x2
 2285 0472 31       		.byte	0x31
 2286 0473 9F       		.byte	0x9f
 2287 0474 92000000 		.4byte	.LVL27
 2288 0478 96000000 		.4byte	.LFE111
 2289 047c 0100     		.2byte	0x1
 2290 047e 50       		.byte	0x50
 2291 047f 00000000 		.4byte	0
 2292 0483 00000000 		.4byte	0
 2293              	.LLST6:
 2294 0487 18000000 		.4byte	.LVL2
 2295 048b 1F000000 		.4byte	.LVL3-1
 2296 048f 0100     		.2byte	0x1
 2297 0491 50       		.byte	0x50
 2298 0492 1F000000 		.4byte	.LVL3-1
 2299 0496 3A000000 		.4byte	.LVL6
 2300 049a 0100     		.2byte	0x1
 2301 049c 57       		.byte	0x57
 2302 049d 3A000000 		.4byte	.LVL6
 2303 04a1 3E000000 		.4byte	.LVL7
 2304 04a5 0100     		.2byte	0x1
 2305 04a7 54       		.byte	0x54
 2306 04a8 3E000000 		.4byte	.LVL7
 2307 04ac 42000000 		.4byte	.LVL8
 2308 04b0 0300     		.2byte	0x3
 2309 04b2 74       		.byte	0x74
 2310 04b3 7C       		.sleb128 -4
 2311 04b4 9F       		.byte	0x9f
 2312 04b5 42000000 		.4byte	.LVL8
 2313 04b9 48000000 		.4byte	.LVL9
 2314 04bd 0100     		.2byte	0x1
 2315 04bf 54       		.byte	0x54
 2316 04c0 00000000 		.4byte	0
 2317 04c4 00000000 		.4byte	0
 2318              	.LLST7:
 2319 04c8 18000000 		.4byte	.LVL2
 2320 04cc 1F000000 		.4byte	.LVL3-1
 2321 04d0 0100     		.2byte	0x1
 2322 04d2 52       		.byte	0x52
 2323 04d3 1F000000 		.4byte	.LVL3-1
 2324 04d7 78000000 		.4byte	.LVL19
 2325 04db 0100     		.2byte	0x1
 2326 04dd 56       		.byte	0x56
 2327 04de 78000000 		.4byte	.LVL19
 2328 04e2 7E000000 		.4byte	.LVL21
 2329 04e6 0300     		.2byte	0x3
 2330 04e8 76       		.byte	0x76
 2331 04e9 04       		.sleb128 4
 2332 04ea 9F       		.byte	0x9f
 2333 04eb 7E000000 		.4byte	.LVL21
 2334 04ef 84000000 		.4byte	.LVL23
 2335 04f3 0300     		.2byte	0x3
 2336 04f5 76       		.byte	0x76
 2337 04f6 08       		.sleb128 8
ARM GAS  /tmp/ccyqJ3iz.s 			page 42


 2338 04f7 9F       		.byte	0x9f
 2339 04f8 84000000 		.4byte	.LVL23
 2340 04fc 8A000000 		.4byte	.LVL25
 2341 0500 0300     		.2byte	0x3
 2342 0502 76       		.byte	0x76
 2343 0503 0C       		.sleb128 12
 2344 0504 9F       		.byte	0x9f
 2345 0505 8A000000 		.4byte	.LVL25
 2346 0509 96000000 		.4byte	.LFE111
 2347 050d 0300     		.2byte	0x3
 2348 050f 76       		.byte	0x76
 2349 0510 10       		.sleb128 16
 2350 0511 9F       		.byte	0x9f
 2351 0512 00000000 		.4byte	0
 2352 0516 00000000 		.4byte	0
 2353              	.LLST8:
 2354 051a 72000000 		.4byte	.LVL17
 2355 051e 76000000 		.4byte	.LVL18
 2356 0522 0200     		.2byte	0x2
 2357 0524 91       		.byte	0x91
 2358 0525 54       		.sleb128 -44
 2359 0526 00000000 		.4byte	0
 2360 052a 00000000 		.4byte	0
 2361              	.LLST9:
 2362 052e 78000000 		.4byte	.LVL19
 2363 0532 7C000000 		.4byte	.LVL20
 2364 0536 0200     		.2byte	0x2
 2365 0538 91       		.byte	0x91
 2366 0539 58       		.sleb128 -40
 2367 053a 00000000 		.4byte	0
 2368 053e 00000000 		.4byte	0
 2369              	.LLST10:
 2370 0542 7E000000 		.4byte	.LVL21
 2371 0546 82000000 		.4byte	.LVL22
 2372 054a 0200     		.2byte	0x2
 2373 054c 91       		.byte	0x91
 2374 054d 5C       		.sleb128 -36
 2375 054e 00000000 		.4byte	0
 2376 0552 00000000 		.4byte	0
 2377              	.LLST11:
 2378 0556 84000000 		.4byte	.LVL23
 2379 055a 88000000 		.4byte	.LVL24
 2380 055e 0200     		.2byte	0x2
 2381 0560 91       		.byte	0x91
 2382 0561 60       		.sleb128 -32
 2383 0562 00000000 		.4byte	0
 2384 0566 00000000 		.4byte	0
 2385              	.LLST12:
 2386 056a 8A000000 		.4byte	.LVL25
 2387 056e 8E000000 		.4byte	.LVL26
 2388 0572 0200     		.2byte	0x2
 2389 0574 91       		.byte	0x91
 2390 0575 64       		.sleb128 -28
 2391 0576 00000000 		.4byte	0
 2392 057a 00000000 		.4byte	0
 2393              		.section	.debug_aranges,"",%progbits
 2394 0000 24000000 		.4byte	0x24
ARM GAS  /tmp/ccyqJ3iz.s 			page 43


 2395 0004 0200     		.2byte	0x2
 2396 0006 00000000 		.4byte	.Ldebug_info0
 2397 000a 04       		.byte	0x4
 2398 000b 00       		.byte	0
 2399 000c 0000     		.2byte	0
 2400 000e 0000     		.2byte	0
 2401 0010 00000000 		.4byte	.LFB111
 2402 0014 96000000 		.4byte	.LFE111-.LFB111
 2403 0018 00000000 		.4byte	.LFB112
 2404 001c 48010000 		.4byte	.LFE112-.LFB112
 2405 0020 00000000 		.4byte	0
 2406 0024 00000000 		.4byte	0
 2407              		.section	.debug_ranges,"",%progbits
 2408              	.Ldebug_ranges0:
 2409 0000 00000000 		.4byte	.LFB111
 2410 0004 96000000 		.4byte	.LFE111
 2411 0008 00000000 		.4byte	.LFB112
 2412 000c 48010000 		.4byte	.LFE112
 2413 0010 00000000 		.4byte	0
 2414 0014 00000000 		.4byte	0
 2415              		.section	.debug_line,"",%progbits
 2416              	.Ldebug_line0:
 2417 0000 15030000 		.section	.debug_str,"MS",%progbits,1
 2417      02007E01 
 2417      00000201 
 2417      FB0E0D00 
 2417      01010101 
 2418              	.LASF39:
 2419 0000 6B657961 		.ascii	"keyaddr\000"
 2419      64647200 
 2420              	.LASF44:
 2421 0008 48415348 		.ascii	"HASH_DeInit\000"
 2421      5F446549 
 2421      6E697400 
 2422              	.LASF3:
 2423 0014 5F5F7569 		.ascii	"__uint8_t\000"
 2423      6E74385F 
 2423      7400
 2424              	.LASF23:
 2425 001e 48415348 		.ascii	"HASH_DataType\000"
 2425      5F446174 
 2425      61547970 
 2425      6500
 2426              	.LASF46:
 2427 002c 48415348 		.ascii	"HASH_SetLastWordValidBitsNbr\000"
 2427      5F536574 
 2427      4C617374 
 2427      576F7264 
 2427      56616C69 
 2428              	.LASF56:
 2429 0049 76616C75 		.ascii	"value\000"
 2429      6500
 2430              	.LASF6:
 2431 004f 5F5F696E 		.ascii	"__int32_t\000"
 2431      7433325F 
 2431      7400
 2432              	.LASF49:
ARM GAS  /tmp/ccyqJ3iz.s 			page 44


 2433 0059 48415348 		.ascii	"HASH_GetFlagStatus\000"
 2433      5F476574 
 2433      466C6167 
 2433      53746174 
 2433      757300
 2434              	.LASF37:
 2435 006c 62757379 		.ascii	"busystatus\000"
 2435      73746174 
 2435      757300
 2436              	.LASF38:
 2437 0077 73746174 		.ascii	"status\000"
 2437      757300
 2438              	.LASF50:
 2439 007e 48415348 		.ascii	"HASH_GetDigest\000"
 2439      5F476574 
 2439      44696765 
 2439      737400
 2440              	.LASF21:
 2441 008d 48415348 		.ascii	"HASH_AlgoSelection\000"
 2441      5F416C67 
 2441      6F53656C 
 2441      65637469 
 2441      6F6E00
 2442              	.LASF36:
 2443 00a0 636F756E 		.ascii	"counter\000"
 2443      74657200 
 2444              	.LASF1:
 2445 00a8 756E7369 		.ascii	"unsigned char\000"
 2445      676E6564 
 2445      20636861 
 2445      7200
 2446              	.LASF19:
 2447 00b6 53554343 		.ascii	"SUCCESS\000"
 2447      45535300 
 2448              	.LASF20:
 2449 00be 4572726F 		.ascii	"ErrorStatus\000"
 2449      72537461 
 2449      74757300 
 2450              	.LASF9:
 2451 00ca 6C6F6E67 		.ascii	"long unsigned int\000"
 2451      20756E73 
 2451      69676E65 
 2451      6420696E 
 2451      7400
 2452              	.LASF17:
 2453 00dc 52455345 		.ascii	"RESET\000"
 2453      5400
 2454              	.LASF32:
 2455 00e2 53484131 		.ascii	"SHA1_HASH_InitStructure\000"
 2455      5F484153 
 2455      485F496E 
 2455      69745374 
 2455      72756374 
 2456              	.LASF54:
 2457 00fa 49544D5F 		.ascii	"ITM_RxBuffer\000"
 2457      52784275 
 2457      66666572 
ARM GAS  /tmp/ccyqJ3iz.s 			page 45


 2457      00
 2458              	.LASF4:
 2459 0107 5F5F7569 		.ascii	"__uint16_t\000"
 2459      6E743136 
 2459      5F7400
 2460              	.LASF35:
 2461 0112 6E627661 		.ascii	"nbvalidbitskey\000"
 2461      6C696462 
 2461      6974736B 
 2461      657900
 2462              	.LASF26:
 2463 0121 44617461 		.ascii	"Data\000"
 2463      00
 2464              	.LASF52:
 2465 0126 43686962 		.ascii	"ChibiOS_2.6.6/ext/stdperiph_stm32f4/src/stm32f4xx_h"
 2465      694F535F 
 2465      322E362E 
 2465      362F6578 
 2465      742F7374 
 2466 0159 6173685F 		.ascii	"ash_sha1.c\000"
 2466      73686131 
 2466      2E6300
 2467              	.LASF8:
 2468 0164 5F5F7569 		.ascii	"__uint32_t\000"
 2468      6E743332 
 2468      5F7400
 2469              	.LASF41:
 2470 016f 6F757470 		.ascii	"outputaddr\000"
 2470      75746164 
 2470      647200
 2471              	.LASF29:
 2472 017a 496E7075 		.ascii	"Input\000"
 2472      7400
 2473              	.LASF22:
 2474 0180 48415348 		.ascii	"HASH_AlgoMode\000"
 2474      5F416C67 
 2474      6F4D6F64 
 2474      6500
 2475              	.LASF27:
 2476 018e 48415348 		.ascii	"HASH_MsgDigest\000"
 2476      5F4D7367 
 2476      44696765 
 2476      737400
 2477              	.LASF30:
 2478 019d 496C656E 		.ascii	"Ilen\000"
 2478      00
 2479              	.LASF33:
 2480 01a2 53484131 		.ascii	"SHA1_MessageDigest\000"
 2480      5F4D6573 
 2480      73616765 
 2480      44696765 
 2480      737400
 2481              	.LASF51:
 2482 01b5 474E5520 		.ascii	"GNU C99 7.3.1 20180622 (release) [ARM/embedded-7-br"
 2482      43393920 
 2482      372E332E 
 2482      31203230 
ARM GAS  /tmp/ccyqJ3iz.s 			page 46


 2482      31383036 
 2483 01e8 616E6368 		.ascii	"anch revision 261907] -mcpu=cortex-m4 -mfloat-abi=h"
 2483      20726576 
 2483      6973696F 
 2483      6E203236 
 2483      31393037 
 2484 021b 61726420 		.ascii	"ard -mfpu=fpv4-sp-d16 -mno-thumb-interwork -mthumb "
 2484      2D6D6670 
 2484      753D6670 
 2484      76342D73 
 2484      702D6431 
 2485 024e 2D676764 		.ascii	"-ggdb -O2 -std=gnu99 -fomit-frame-pointer -falign-f"
 2485      62202D4F 
 2485      32202D73 
 2485      74643D67 
 2485      6E753939 
 2486 0281 756E6374 		.ascii	"unctions=16 -ffunction-sections -fdata-sections -fn"
 2486      696F6E73 
 2486      3D313620 
 2486      2D666675 
 2486      6E637469 
 2487 02b4 6F2D636F 		.ascii	"o-common -fsingle-precision-constant\000"
 2487      6D6D6F6E 
 2487      202D6673 
 2487      696E676C 
 2487      652D7072 
 2488              	.LASF12:
 2489 02d9 756E7369 		.ascii	"unsigned int\000"
 2489      676E6564 
 2489      20696E74 
 2489      00
 2490              	.LASF11:
 2491 02e6 6C6F6E67 		.ascii	"long long unsigned int\000"
 2491      206C6F6E 
 2491      6720756E 
 2491      7369676E 
 2491      65642069 
 2492              	.LASF13:
 2493 02fd 75696E74 		.ascii	"uint8_t\000"
 2493      385F7400 
 2494              	.LASF25:
 2495 0305 48415348 		.ascii	"HASH_InitTypeDef\000"
 2495      5F496E69 
 2495      74547970 
 2495      65446566 
 2495      00
 2496              	.LASF57:
 2497 0316 72657375 		.ascii	"result\000"
 2497      6C7400
 2498              	.LASF45:
 2499 031d 48415348 		.ascii	"HASH_Init\000"
 2499      5F496E69 
 2499      7400
 2500              	.LASF34:
 2501 0327 6E627661 		.ascii	"nbvalidbitsdata\000"
 2501      6C696462 
 2501      69747364 
ARM GAS  /tmp/ccyqJ3iz.s 			page 47


 2501      61746100 
 2502              	.LASF18:
 2503 0337 4552524F 		.ascii	"ERROR\000"
 2503      5200
 2504              	.LASF15:
 2505 033d 696E7433 		.ascii	"int32_t\000"
 2505      325F7400 
 2506              	.LASF48:
 2507 0345 48415348 		.ascii	"HASH_StartDigest\000"
 2507      5F537461 
 2507      72744469 
 2507      67657374 
 2507      00
 2508              	.LASF10:
 2509 0356 6C6F6E67 		.ascii	"long long int\000"
 2509      206C6F6E 
 2509      6720696E 
 2509      7400
 2510              	.LASF40:
 2511 0364 696E7075 		.ascii	"inputaddr\000"
 2511      74616464 
 2511      7200
 2512              	.LASF31:
 2513 036e 4F757470 		.ascii	"Output\000"
 2513      757400
 2514              	.LASF55:
 2515 0375 5F5F5245 		.ascii	"__REV\000"
 2515      5600
 2516              	.LASF47:
 2517 037b 48415348 		.ascii	"HASH_DataIn\000"
 2517      5F446174 
 2517      61496E00 
 2518              	.LASF42:
 2519 0387 484D4143 		.ascii	"HMAC_SHA1\000"
 2519      5F534841 
 2519      3100
 2520              	.LASF28:
 2521 0391 4B65796C 		.ascii	"Keylen\000"
 2521      656E00
 2522              	.LASF2:
 2523 0398 73686F72 		.ascii	"short int\000"
 2523      7420696E 
 2523      7400
 2524              	.LASF14:
 2525 03a2 75696E74 		.ascii	"uint16_t\000"
 2525      31365F74 
 2525      00
 2526              	.LASF53:
 2527 03ab 2F686F6D 		.ascii	"/home/renan/BLDC/bldc-bootloader\000"
 2527      652F7265 
 2527      6E616E2F 
 2527      424C4443 
 2527      2F626C64 
 2528              	.LASF16:
 2529 03cc 75696E74 		.ascii	"uint32_t\000"
 2529      33325F74 
 2529      00
ARM GAS  /tmp/ccyqJ3iz.s 			page 48


 2530              	.LASF7:
 2531 03d5 6C6F6E67 		.ascii	"long int\000"
 2531      20696E74 
 2531      00
 2532              	.LASF0:
 2533 03de 7369676E 		.ascii	"signed char\000"
 2533      65642063 
 2533      68617200 
 2534              	.LASF5:
 2535 03ea 73686F72 		.ascii	"short unsigned int\000"
 2535      7420756E 
 2535      7369676E 
 2535      65642069 
 2535      6E7400
 2536              	.LASF24:
 2537 03fd 48415348 		.ascii	"HASH_HMACKeyType\000"
 2537      5F484D41 
 2537      434B6579 
 2537      54797065 
 2537      00
 2538              	.LASF43:
 2539 040e 48415348 		.ascii	"HASH_SHA1\000"
 2539      5F534841 
 2539      3100
 2540              		.ident	"GCC: (GNU Tools for Arm Embedded Processors 7-2018-q3-update) 7.3.1 20180622 (release) [AR
ARM GAS  /tmp/ccyqJ3iz.s 			page 49


DEFINED SYMBOLS
                            *ABS*:0000000000000000 stm32f4xx_hash_sha1.c
     /tmp/ccyqJ3iz.s:18     .text.HASH_SHA1:0000000000000000 $t
     /tmp/ccyqJ3iz.s:26     .text.HASH_SHA1:0000000000000000 HASH_SHA1
     /tmp/ccyqJ3iz.s:231    .text.HMAC_SHA1:0000000000000000 $t
     /tmp/ccyqJ3iz.s:239    .text.HMAC_SHA1:0000000000000000 HMAC_SHA1

UNDEFINED SYMBOLS
HASH_DeInit
HASH_Init
HASH_SetLastWordValidBitsNbr
HASH_DataIn
HASH_StartDigest
HASH_GetFlagStatus
HASH_GetDigest
