ARM GAS  /tmp/ccVUe6EX.s 			page 1


   1              		.cpu cortex-m4
   2              		.eabi_attribute 27, 1
   3              		.eabi_attribute 28, 1
   4              		.eabi_attribute 20, 1
   5              		.eabi_attribute 21, 1
   6              		.eabi_attribute 23, 3
   7              		.eabi_attribute 24, 1
   8              		.eabi_attribute 25, 1
   9              		.eabi_attribute 26, 1
  10              		.eabi_attribute 30, 2
  11              		.eabi_attribute 34, 1
  12              		.eabi_attribute 18, 4
  13              		.file	"stm32f4xx_hash.c"
  14              		.text
  15              	.Ltext0:
  16              		.cfi_sections	.debug_frame
  17              		.section	.text.HASH_DeInit,"ax",%progbits
  18              		.align	1
  19              		.p2align 4,,15
  20              		.global	HASH_DeInit
  21              		.syntax unified
  22              		.thumb
  23              		.thumb_func
  24              		.fpu fpv4-sp-d16
  25              		.type	HASH_DeInit, %function
  26              	HASH_DeInit:
  27              	.LFB111:
  28              		.file 1 "ChibiOS_2.6.6/ext/stdperiph_stm32f4/src/stm32f4xx_hash.c"
  29              		.loc 1 178 0
  30              		.cfi_startproc
  31              		@ args = 0, pretend = 0, frame = 0
  32              		@ frame_needed = 0, uses_anonymous_args = 0
  33 0000 08B5     		push	{r3, lr}
  34              		.cfi_def_cfa_offset 8
  35              		.cfi_offset 3, -8
  36              		.cfi_offset 14, -4
  37              		.loc 1 180 0
  38 0002 0121     		movs	r1, #1
  39 0004 2020     		movs	r0, #32
  40 0006 FFF7FEFF 		bl	RCC_AHB2PeriphResetCmd
  41              	.LVL0:
  42              		.loc 1 182 0
  43 000a 0021     		movs	r1, #0
  44 000c 2020     		movs	r0, #32
  45              		.loc 1 183 0
  46 000e BDE80840 		pop	{r3, lr}
  47              		.cfi_restore 14
  48              		.cfi_restore 3
  49              		.cfi_def_cfa_offset 0
  50              		.loc 1 182 0
  51 0012 FFF7FEBF 		b	RCC_AHB2PeriphResetCmd
  52              	.LVL1:
  53              		.cfi_endproc
  54              	.LFE111:
  55              		.size	HASH_DeInit, .-HASH_DeInit
  56 0016 00BF     		.section	.text.HASH_Init,"ax",%progbits
  57              		.align	1
ARM GAS  /tmp/ccVUe6EX.s 			page 2


  58              		.p2align 4,,15
  59              		.global	HASH_Init
  60              		.syntax unified
  61              		.thumb
  62              		.thumb_func
  63              		.fpu fpv4-sp-d16
  64              		.type	HASH_Init, %function
  65              	HASH_Init:
  66              	.LFB112:
  67              		.loc 1 198 0
  68              		.cfi_startproc
  69              		@ args = 0, pretend = 0, frame = 0
  70              		@ frame_needed = 0, uses_anonymous_args = 0
  71              		@ link register save eliminated.
  72              	.LVL2:
  73              		.loc 1 205 0
  74 0000 104A     		ldr	r2, .L7
  75 0002 1368     		ldr	r3, [r2]
  76 0004 23F48023 		bic	r3, r3, #262144
  77 0008 23F0F003 		bic	r3, r3, #240
  78              		.loc 1 198 0
  79 000c 30B4     		push	{r4, r5}
  80              		.cfi_def_cfa_offset 8
  81              		.cfi_offset 4, -8
  82              		.cfi_offset 5, -4
  83              		.loc 1 205 0
  84 000e 1360     		str	r3, [r2]
  85              		.loc 1 206 0
  86 0010 0368     		ldr	r3, [r0]
  87 0012 8568     		ldr	r5, [r0, #8]
  88 0014 1468     		ldr	r4, [r2]
  89              		.loc 1 208 0
  90 0016 4168     		ldr	r1, [r0, #4]
  91              		.loc 1 206 0
  92 0018 2B43     		orrs	r3, r3, r5
  93 001a 2343     		orrs	r3, r3, r4
  94 001c 0B43     		orrs	r3, r3, r1
  95              		.loc 1 211 0
  96 001e 4029     		cmp	r1, #64
  97              		.loc 1 206 0
  98 0020 1360     		str	r3, [r2]
  99              		.loc 1 211 0
 100 0022 07D1     		bne	.L5
 101              		.loc 1 214 0
 102 0024 1368     		ldr	r3, [r2]
 103 0026 23F48033 		bic	r3, r3, #65536
 104 002a 1360     		str	r3, [r2]
 105              		.loc 1 215 0
 106 002c C168     		ldr	r1, [r0, #12]
 107 002e 1368     		ldr	r3, [r2]
 108 0030 0B43     		orrs	r3, r3, r1
 109 0032 1360     		str	r3, [r2]
 110              	.L5:
 111              		.loc 1 220 0
 112 0034 034A     		ldr	r2, .L7
 113 0036 1368     		ldr	r3, [r2]
 114 0038 43F00403 		orr	r3, r3, #4
ARM GAS  /tmp/ccVUe6EX.s 			page 3


 115 003c 1360     		str	r3, [r2]
 116              		.loc 1 221 0
 117 003e 30BC     		pop	{r4, r5}
 118              		.cfi_restore 5
 119              		.cfi_restore 4
 120              		.cfi_def_cfa_offset 0
 121 0040 7047     		bx	lr
 122              	.L8:
 123 0042 00BF     		.align	2
 124              	.L7:
 125 0044 00040650 		.word	1342571520
 126              		.cfi_endproc
 127              	.LFE112:
 128              		.size	HASH_Init, .-HASH_Init
 129              		.section	.text.HASH_StructInit,"ax",%progbits
 130              		.align	1
 131              		.p2align 4,,15
 132              		.global	HASH_StructInit
 133              		.syntax unified
 134              		.thumb
 135              		.thumb_func
 136              		.fpu fpv4-sp-d16
 137              		.type	HASH_StructInit, %function
 138              	HASH_StructInit:
 139              	.LFB113:
 140              		.loc 1 232 0
 141              		.cfi_startproc
 142              		@ args = 0, pretend = 0, frame = 0
 143              		@ frame_needed = 0, uses_anonymous_args = 0
 144              		@ link register save eliminated.
 145              	.LVL3:
 146              		.loc 1 234 0
 147 0000 0023     		movs	r3, #0
 148              		.loc 1 237 0
 149 0002 C0E90033 		strd	r3, r3, [r0]
 150              		.loc 1 243 0
 151 0006 C0E90233 		strd	r3, r3, [r0, #8]
 152              		.loc 1 244 0
 153 000a 7047     		bx	lr
 154              		.cfi_endproc
 155              	.LFE113:
 156              		.size	HASH_StructInit, .-HASH_StructInit
 157              		.section	.text.HASH_Reset,"ax",%progbits
 158              		.align	1
 159              		.p2align 4,,15
 160              		.global	HASH_Reset
 161              		.syntax unified
 162              		.thumb
 163              		.thumb_func
 164              		.fpu fpv4-sp-d16
 165              		.type	HASH_Reset, %function
 166              	HASH_Reset:
 167              	.LFB114:
 168              		.loc 1 256 0
 169              		.cfi_startproc
 170              		@ args = 0, pretend = 0, frame = 0
 171              		@ frame_needed = 0, uses_anonymous_args = 0
ARM GAS  /tmp/ccVUe6EX.s 			page 4


 172              		@ link register save eliminated.
 173              		.loc 1 258 0
 174 0000 024A     		ldr	r2, .L11
 175 0002 1368     		ldr	r3, [r2]
 176 0004 43F00403 		orr	r3, r3, #4
 177 0008 1360     		str	r3, [r2]
 178              		.loc 1 259 0
 179 000a 7047     		bx	lr
 180              	.L12:
 181              		.align	2
 182              	.L11:
 183 000c 00040650 		.word	1342571520
 184              		.cfi_endproc
 185              	.LFE114:
 186              		.size	HASH_Reset, .-HASH_Reset
 187              		.section	.text.HASH_SetLastWordValidBitsNbr,"ax",%progbits
 188              		.align	1
 189              		.p2align 4,,15
 190              		.global	HASH_SetLastWordValidBitsNbr
 191              		.syntax unified
 192              		.thumb
 193              		.thumb_func
 194              		.fpu fpv4-sp-d16
 195              		.type	HASH_SetLastWordValidBitsNbr, %function
 196              	HASH_SetLastWordValidBitsNbr:
 197              	.LFB115:
 198              		.loc 1 298 0
 199              		.cfi_startproc
 200              		@ args = 0, pretend = 0, frame = 0
 201              		@ frame_needed = 0, uses_anonymous_args = 0
 202              		@ link register save eliminated.
 203              	.LVL4:
 204              		.loc 1 303 0
 205 0000 044B     		ldr	r3, .L14
 206 0002 9A68     		ldr	r2, [r3, #8]
 207 0004 22F01F02 		bic	r2, r2, #31
 208 0008 9A60     		str	r2, [r3, #8]
 209              		.loc 1 304 0
 210 000a 9A68     		ldr	r2, [r3, #8]
 211 000c 1043     		orrs	r0, r0, r2
 212              	.LVL5:
 213 000e 9860     		str	r0, [r3, #8]
 214              		.loc 1 305 0
 215 0010 7047     		bx	lr
 216              	.L15:
 217 0012 00BF     		.align	2
 218              	.L14:
 219 0014 00040650 		.word	1342571520
 220              		.cfi_endproc
 221              	.LFE115:
 222              		.size	HASH_SetLastWordValidBitsNbr, .-HASH_SetLastWordValidBitsNbr
 223              		.section	.text.HASH_DataIn,"ax",%progbits
 224              		.align	1
 225              		.p2align 4,,15
 226              		.global	HASH_DataIn
 227              		.syntax unified
 228              		.thumb
ARM GAS  /tmp/ccVUe6EX.s 			page 5


 229              		.thumb_func
 230              		.fpu fpv4-sp-d16
 231              		.type	HASH_DataIn, %function
 232              	HASH_DataIn:
 233              	.LFB116:
 234              		.loc 1 313 0
 235              		.cfi_startproc
 236              		@ args = 0, pretend = 0, frame = 0
 237              		@ frame_needed = 0, uses_anonymous_args = 0
 238              		@ link register save eliminated.
 239              	.LVL6:
 240              		.loc 1 315 0
 241 0000 014B     		ldr	r3, .L17
 242 0002 5860     		str	r0, [r3, #4]
 243              		.loc 1 316 0
 244 0004 7047     		bx	lr
 245              	.L18:
 246 0006 00BF     		.align	2
 247              	.L17:
 248 0008 00040650 		.word	1342571520
 249              		.cfi_endproc
 250              	.LFE116:
 251              		.size	HASH_DataIn, .-HASH_DataIn
 252              		.section	.text.HASH_GetInFIFOWordsNbr,"ax",%progbits
 253              		.align	1
 254              		.p2align 4,,15
 255              		.global	HASH_GetInFIFOWordsNbr
 256              		.syntax unified
 257              		.thumb
 258              		.thumb_func
 259              		.fpu fpv4-sp-d16
 260              		.type	HASH_GetInFIFOWordsNbr, %function
 261              	HASH_GetInFIFOWordsNbr:
 262              	.LFB117:
 263              		.loc 1 324 0
 264              		.cfi_startproc
 265              		@ args = 0, pretend = 0, frame = 0
 266              		@ frame_needed = 0, uses_anonymous_args = 0
 267              		@ link register save eliminated.
 268              		.loc 1 326 0
 269 0000 024B     		ldr	r3, .L20
 270 0002 1868     		ldr	r0, [r3]
 271              		.loc 1 327 0
 272 0004 C0F30320 		ubfx	r0, r0, #8, #4
 273 0008 7047     		bx	lr
 274              	.L21:
 275 000a 00BF     		.align	2
 276              	.L20:
 277 000c 00040650 		.word	1342571520
 278              		.cfi_endproc
 279              	.LFE117:
 280              		.size	HASH_GetInFIFOWordsNbr, .-HASH_GetInFIFOWordsNbr
 281              		.section	.text.HASH_GetDigest,"ax",%progbits
 282              		.align	1
 283              		.p2align 4,,15
 284              		.global	HASH_GetDigest
 285              		.syntax unified
ARM GAS  /tmp/ccVUe6EX.s 			page 6


 286              		.thumb
 287              		.thumb_func
 288              		.fpu fpv4-sp-d16
 289              		.type	HASH_GetDigest, %function
 290              	HASH_GetDigest:
 291              	.LFB118:
 292              		.loc 1 338 0
 293              		.cfi_startproc
 294              		@ args = 0, pretend = 0, frame = 0
 295              		@ frame_needed = 0, uses_anonymous_args = 0
 296              		@ link register save eliminated.
 297              	.LVL7:
 298              		.loc 1 340 0
 299 0000 054B     		ldr	r3, .L23
 300 0002 DA68     		ldr	r2, [r3, #12]
 301 0004 0260     		str	r2, [r0]
 302              		.loc 1 341 0
 303 0006 1A69     		ldr	r2, [r3, #16]
 304 0008 4260     		str	r2, [r0, #4]
 305              		.loc 1 342 0
 306 000a 5A69     		ldr	r2, [r3, #20]
 307 000c 8260     		str	r2, [r0, #8]
 308              		.loc 1 343 0
 309 000e 9A69     		ldr	r2, [r3, #24]
 310 0010 C260     		str	r2, [r0, #12]
 311              		.loc 1 344 0
 312 0012 DB69     		ldr	r3, [r3, #28]
 313 0014 0361     		str	r3, [r0, #16]
 314              		.loc 1 345 0
 315 0016 7047     		bx	lr
 316              	.L24:
 317              		.align	2
 318              	.L23:
 319 0018 00040650 		.word	1342571520
 320              		.cfi_endproc
 321              	.LFE118:
 322              		.size	HASH_GetDigest, .-HASH_GetDigest
 323              		.section	.text.HASH_StartDigest,"ax",%progbits
 324              		.align	1
 325              		.p2align 4,,15
 326              		.global	HASH_StartDigest
 327              		.syntax unified
 328              		.thumb
 329              		.thumb_func
 330              		.fpu fpv4-sp-d16
 331              		.type	HASH_StartDigest, %function
 332              	HASH_StartDigest:
 333              	.LFB119:
 334              		.loc 1 353 0
 335              		.cfi_startproc
 336              		@ args = 0, pretend = 0, frame = 0
 337              		@ frame_needed = 0, uses_anonymous_args = 0
 338              		@ link register save eliminated.
 339              		.loc 1 355 0
 340 0000 024A     		ldr	r2, .L26
 341 0002 9368     		ldr	r3, [r2, #8]
 342 0004 43F48073 		orr	r3, r3, #256
ARM GAS  /tmp/ccVUe6EX.s 			page 7


 343 0008 9360     		str	r3, [r2, #8]
 344              		.loc 1 356 0
 345 000a 7047     		bx	lr
 346              	.L27:
 347              		.align	2
 348              	.L26:
 349 000c 00040650 		.word	1342571520
 350              		.cfi_endproc
 351              	.LFE119:
 352              		.size	HASH_StartDigest, .-HASH_StartDigest
 353              		.section	.text.HASH_SaveContext,"ax",%progbits
 354              		.align	1
 355              		.p2align 4,,15
 356              		.global	HASH_SaveContext
 357              		.syntax unified
 358              		.thumb
 359              		.thumb_func
 360              		.fpu fpv4-sp-d16
 361              		.type	HASH_SaveContext, %function
 362              	HASH_SaveContext:
 363              	.LFB120:
 364              		.loc 1 396 0
 365              		.cfi_startproc
 366              		@ args = 0, pretend = 0, frame = 0
 367              		@ frame_needed = 0, uses_anonymous_args = 0
 368              		@ link register save eliminated.
 369              	.LVL8:
 370              		.loc 1 400 0
 371 0000 0949     		ldr	r1, .L31
 372 0002 0B6A     		ldr	r3, [r1, #32]
 373 0004 0360     		str	r3, [r0]
 374              		.loc 1 401 0
 375 0006 8B68     		ldr	r3, [r1, #8]
 376 0008 4360     		str	r3, [r0, #4]
 377              		.loc 1 402 0
 378 000a 0B68     		ldr	r3, [r1]
 379 000c 40F8083F 		str	r3, [r0, #8]!
 380              	.LVL9:
 381 0010 0023     		movs	r3, #0
 382              	.LVL10:
 383              	.L29:
 384              		.loc 1 405 0 discriminator 3
 385 0012 03F13E02 		add	r2, r3, #62
 386 0016 0133     		adds	r3, r3, #1
 387              	.LVL11:
 388 0018 51F82220 		ldr	r2, [r1, r2, lsl #2]
 389 001c 40F8042F 		str	r2, [r0, #4]!
 390              		.loc 1 403 0 discriminator 3
 391 0020 332B     		cmp	r3, #51
 392 0022 F6D1     		bne	.L29
 393              		.loc 1 407 0
 394 0024 7047     		bx	lr
 395              	.L32:
 396 0026 00BF     		.align	2
 397              	.L31:
 398 0028 00040650 		.word	1342571520
 399              		.cfi_endproc
ARM GAS  /tmp/ccVUe6EX.s 			page 8


 400              	.LFE120:
 401              		.size	HASH_SaveContext, .-HASH_SaveContext
 402              		.section	.text.HASH_RestoreContext,"ax",%progbits
 403              		.align	1
 404              		.p2align 4,,15
 405              		.global	HASH_RestoreContext
 406              		.syntax unified
 407              		.thumb
 408              		.thumb_func
 409              		.fpu fpv4-sp-d16
 410              		.type	HASH_RestoreContext, %function
 411              	HASH_RestoreContext:
 412              	.LFB121:
 413              		.loc 1 418 0
 414              		.cfi_startproc
 415              		@ args = 0, pretend = 0, frame = 0
 416              		@ frame_needed = 0, uses_anonymous_args = 0
 417              		@ link register save eliminated.
 418              	.LVL12:
 419              		.loc 1 422 0
 420 0000 0D4B     		ldr	r3, .L37
 421 0002 0268     		ldr	r2, [r0]
 422              		.loc 1 418 0
 423 0004 10B4     		push	{r4}
 424              		.cfi_def_cfa_offset 4
 425              		.cfi_offset 4, -4
 426              		.loc 1 422 0
 427 0006 1A62     		str	r2, [r3, #32]
 428              		.loc 1 423 0
 429 0008 4268     		ldr	r2, [r0, #4]
 430 000a 9A60     		str	r2, [r3, #8]
 431              		.loc 1 424 0
 432 000c 50F8082F 		ldr	r2, [r0, #8]!
 433              	.LVL13:
 434 0010 1A60     		str	r2, [r3]
 435              		.loc 1 427 0
 436 0012 1A68     		ldr	r2, [r3]
 437 0014 42F00402 		orr	r2, r2, #4
 438              		.loc 1 432 0
 439 0018 1C46     		mov	r4, r3
 440              		.loc 1 427 0
 441 001a 1A60     		str	r2, [r3]
 442 001c 0023     		movs	r3, #0
 443              	.LVL14:
 444              	.L34:
 445              		.loc 1 432 0 discriminator 3
 446 001e 03F13E02 		add	r2, r3, #62
 447 0022 0133     		adds	r3, r3, #1
 448              	.LVL15:
 449 0024 50F8041F 		ldr	r1, [r0, #4]!
 450 0028 44F82210 		str	r1, [r4, r2, lsl #2]
 451              		.loc 1 430 0 discriminator 3
 452 002c 332B     		cmp	r3, #51
 453 002e F6D1     		bne	.L34
 454              		.loc 1 434 0
 455 0030 5DF8044B 		ldr	r4, [sp], #4
 456              		.cfi_restore 4
ARM GAS  /tmp/ccVUe6EX.s 			page 9


 457              		.cfi_def_cfa_offset 0
 458 0034 7047     		bx	lr
 459              	.L38:
 460 0036 00BF     		.align	2
 461              	.L37:
 462 0038 00040650 		.word	1342571520
 463              		.cfi_endproc
 464              	.LFE121:
 465              		.size	HASH_RestoreContext, .-HASH_RestoreContext
 466              		.section	.text.HASH_DMACmd,"ax",%progbits
 467              		.align	1
 468              		.p2align 4,,15
 469              		.global	HASH_DMACmd
 470              		.syntax unified
 471              		.thumb
 472              		.thumb_func
 473              		.fpu fpv4-sp-d16
 474              		.type	HASH_DMACmd, %function
 475              	HASH_DMACmd:
 476              	.LFB122:
 477              		.loc 1 467 0
 478              		.cfi_startproc
 479              		@ args = 0, pretend = 0, frame = 0
 480              		@ frame_needed = 0, uses_anonymous_args = 0
 481              		@ link register save eliminated.
 482              	.LVL16:
 483              		.loc 1 474 0
 484 0000 054A     		ldr	r2, .L43
 485 0002 1368     		ldr	r3, [r2]
 486              		.loc 1 471 0
 487 0004 18B9     		cbnz	r0, .L42
 488              		.loc 1 479 0
 489 0006 23F00803 		bic	r3, r3, #8
 490 000a 1360     		str	r3, [r2]
 491              		.loc 1 481 0
 492 000c 7047     		bx	lr
 493              	.L42:
 494              		.loc 1 474 0
 495 000e 43F00803 		orr	r3, r3, #8
 496 0012 1360     		str	r3, [r2]
 497 0014 7047     		bx	lr
 498              	.L44:
 499 0016 00BF     		.align	2
 500              	.L43:
 501 0018 00040650 		.word	1342571520
 502              		.cfi_endproc
 503              	.LFE122:
 504              		.size	HASH_DMACmd, .-HASH_DMACmd
 505              		.section	.text.HASH_ITConfig,"ax",%progbits
 506              		.align	1
 507              		.p2align 4,,15
 508              		.global	HASH_ITConfig
 509              		.syntax unified
 510              		.thumb
 511              		.thumb_func
 512              		.fpu fpv4-sp-d16
 513              		.type	HASH_ITConfig, %function
ARM GAS  /tmp/ccVUe6EX.s 			page 10


 514              	HASH_ITConfig:
 515              	.LFB123:
 516              		.loc 1 562 0
 517              		.cfi_startproc
 518              		@ args = 0, pretend = 0, frame = 0
 519              		@ frame_needed = 0, uses_anonymous_args = 0
 520              		@ link register save eliminated.
 521              	.LVL17:
 522              		.loc 1 567 0
 523 0000 39B9     		cbnz	r1, .L48
 524              		.loc 1 575 0
 525 0002 064A     		ldr	r2, .L49
 526 0004 136A     		ldr	r3, [r2, #32]
 527 0006 23EA0000 		bic	r0, r3, r0
 528              	.LVL18:
 529 000a 00F0FF00 		and	r0, r0, #255
 530 000e 1062     		str	r0, [r2, #32]
 531              		.loc 1 577 0
 532 0010 7047     		bx	lr
 533              	.LVL19:
 534              	.L48:
 535              		.loc 1 570 0
 536 0012 024B     		ldr	r3, .L49
 537 0014 1A6A     		ldr	r2, [r3, #32]
 538 0016 1043     		orrs	r0, r0, r2
 539              	.LVL20:
 540 0018 1862     		str	r0, [r3, #32]
 541 001a 7047     		bx	lr
 542              	.L50:
 543              		.align	2
 544              	.L49:
 545 001c 00040650 		.word	1342571520
 546              		.cfi_endproc
 547              	.LFE123:
 548              		.size	HASH_ITConfig, .-HASH_ITConfig
 549              		.section	.text.HASH_GetFlagStatus,"ax",%progbits
 550              		.align	1
 551              		.p2align 4,,15
 552              		.global	HASH_GetFlagStatus
 553              		.syntax unified
 554              		.thumb
 555              		.thumb_func
 556              		.fpu fpv4-sp-d16
 557              		.type	HASH_GetFlagStatus, %function
 558              	HASH_GetFlagStatus:
 559              	.LFB124:
 560              		.loc 1 591 0
 561              		.cfi_startproc
 562              		@ args = 0, pretend = 0, frame = 0
 563              		@ frame_needed = 0, uses_anonymous_args = 0
 564              		@ link register save eliminated.
 565              	.LVL21:
 566              		.loc 1 601 0
 567 0000 044B     		ldr	r3, .L54
 568              		.loc 1 599 0
 569 0002 C204     		lsls	r2, r0, #19
 570              		.loc 1 601 0
ARM GAS  /tmp/ccVUe6EX.s 			page 11


 571 0004 4CBF     		ite	mi
 572 0006 1B68     		ldrmi	r3, [r3]
 573              	.LVL22:
 574              		.loc 1 605 0
 575 0008 5B6A     		ldrpl	r3, [r3, #36]
 576              	.LVL23:
 577              		.loc 1 609 0
 578 000a 1842     		tst	r0, r3
 579              		.loc 1 622 0
 580 000c 14BF     		ite	ne
 581 000e 0120     		movne	r0, #1
 582              	.LVL24:
 583 0010 0020     		moveq	r0, #0
 584 0012 7047     		bx	lr
 585              	.L55:
 586              		.align	2
 587              	.L54:
 588 0014 00040650 		.word	1342571520
 589              		.cfi_endproc
 590              	.LFE124:
 591              		.size	HASH_GetFlagStatus, .-HASH_GetFlagStatus
 592              		.section	.text.HASH_ClearFlag,"ax",%progbits
 593              		.align	1
 594              		.p2align 4,,15
 595              		.global	HASH_ClearFlag
 596              		.syntax unified
 597              		.thumb
 598              		.thumb_func
 599              		.fpu fpv4-sp-d16
 600              		.type	HASH_ClearFlag, %function
 601              	HASH_ClearFlag:
 602              	.LFB125:
 603              		.loc 1 632 0
 604              		.cfi_startproc
 605              		@ args = 0, pretend = 0, frame = 0
 606              		@ frame_needed = 0, uses_anonymous_args = 0
 607              		@ link register save eliminated.
 608              	.LVL25:
 609              		.loc 1 637 0
 610 0000 014B     		ldr	r3, .L57
 611 0002 C043     		mvns	r0, r0
 612              	.LVL26:
 613 0004 5862     		str	r0, [r3, #36]
 614              		.loc 1 638 0
 615 0006 7047     		bx	lr
 616              	.L58:
 617              		.align	2
 618              	.L57:
 619 0008 00040650 		.word	1342571520
 620              		.cfi_endproc
 621              	.LFE125:
 622              		.size	HASH_ClearFlag, .-HASH_ClearFlag
 623              		.section	.text.HASH_GetITStatus,"ax",%progbits
 624              		.align	1
 625              		.p2align 4,,15
 626              		.global	HASH_GetITStatus
 627              		.syntax unified
ARM GAS  /tmp/ccVUe6EX.s 			page 12


 628              		.thumb
 629              		.thumb_func
 630              		.fpu fpv4-sp-d16
 631              		.type	HASH_GetITStatus, %function
 632              	HASH_GetITStatus:
 633              	.LFB126:
 634              		.loc 1 648 0
 635              		.cfi_startproc
 636              		@ args = 0, pretend = 0, frame = 0
 637              		@ frame_needed = 0, uses_anonymous_args = 0
 638              		@ link register save eliminated.
 639              	.LVL27:
 640              		.loc 1 657 0
 641 0000 044A     		ldr	r2, .L60
 642 0002 516A     		ldr	r1, [r2, #36]
 643              	.LVL28:
 644              		.loc 1 659 0
 645 0004 136A     		ldr	r3, [r2, #32]
 646              	.LVL29:
 647 0006 0B40     		ands	r3, r3, r1
 648              	.LVL30:
 649 0008 0342     		tst	r3, r0
 650              		.loc 1 671 0
 651 000a 14BF     		ite	ne
 652 000c 0120     		movne	r0, #1
 653              	.LVL31:
 654 000e 0020     		moveq	r0, #0
 655 0010 7047     		bx	lr
 656              	.L61:
 657 0012 00BF     		.align	2
 658              	.L60:
 659 0014 00040650 		.word	1342571520
 660              		.cfi_endproc
 661              	.LFE126:
 662              		.size	HASH_GetITStatus, .-HASH_GetITStatus
 663              		.section	.text.HASH_ClearITPendingBit,"ax",%progbits
 664              		.align	1
 665              		.p2align 4,,15
 666              		.global	HASH_ClearITPendingBit
 667              		.syntax unified
 668              		.thumb
 669              		.thumb_func
 670              		.fpu fpv4-sp-d16
 671              		.type	HASH_ClearITPendingBit, %function
 672              	HASH_ClearITPendingBit:
 673              	.LFB127:
 674              		.loc 1 682 0
 675              		.cfi_startproc
 676              		@ args = 0, pretend = 0, frame = 0
 677              		@ frame_needed = 0, uses_anonymous_args = 0
 678              		@ link register save eliminated.
 679              	.LVL32:
 680              		.loc 1 687 0
 681 0000 C043     		mvns	r0, r0
 682              	.LVL33:
 683 0002 024B     		ldr	r3, .L63
 684 0004 C0B2     		uxtb	r0, r0
ARM GAS  /tmp/ccVUe6EX.s 			page 13


 685 0006 5862     		str	r0, [r3, #36]
 686              		.loc 1 688 0
 687 0008 7047     		bx	lr
 688              	.L64:
 689 000a 00BF     		.align	2
 690              	.L63:
 691 000c 00040650 		.word	1342571520
 692              		.cfi_endproc
 693              	.LFE127:
 694              		.size	HASH_ClearITPendingBit, .-HASH_ClearITPendingBit
 695              		.text
 696              	.Letext0:
 697              		.file 2 "/usr/arm-none-eabi/include/machine/_default_types.h"
 698              		.file 3 "/usr/arm-none-eabi/include/sys/_stdint.h"
 699              		.file 4 "ChibiOS_2.6.6/os/hal/platforms/STM32F4xx/stm32f4xx.h"
 700              		.file 5 "ChibiOS_2.6.6/ext/stdperiph_stm32f4/inc/stm32f4xx_hash.h"
 701              		.file 6 "ChibiOS_2.6.6/os/ports/common/ARMCMx/CMSIS/include/core_cm4.h"
 702              		.file 7 "ChibiOS_2.6.6/ext/stdperiph_stm32f4/inc/stm32f4xx_rcc.h"