ARM GAS  /tmp/ccJYvKAQ.s 			page 1


   1              		.cpu cortex-m4
   2              		.eabi_attribute 27, 1
   3              		.eabi_attribute 28, 1
   4              		.eabi_attribute 20, 1
   5              		.eabi_attribute 21, 1
   6              		.eabi_attribute 23, 3
   7              		.eabi_attribute 24, 1
   8              		.eabi_attribute 25, 1
   9              		.eabi_attribute 26, 1
  10              		.eabi_attribute 30, 2
  11              		.eabi_attribute 34, 1
  12              		.eabi_attribute 18, 4
  13              		.file	"stm32f4xx_dbgmcu.c"
  14              		.text
  15              	.Ltext0:
  16              		.cfi_sections	.debug_frame
  17              		.section	.text.DBGMCU_GetREVID,"ax",%progbits
  18              		.align	1
  19              		.p2align 4,,15
  20              		.global	DBGMCU_GetREVID
  21              		.syntax unified
  22              		.thumb
  23              		.thumb_func
  24              		.fpu fpv4-sp-d16
  25              		.type	DBGMCU_GetREVID, %function
  26              	DBGMCU_GetREVID:
  27              	.LFB111:
  28              		.file 1 "ChibiOS_2.6.6/ext/stdperiph_stm32f4/src/stm32f4xx_dbgmcu.c"
  29              		.loc 1 59 0
  30              		.cfi_startproc
  31              		@ args = 0, pretend = 0, frame = 0
  32              		@ frame_needed = 0, uses_anonymous_args = 0
  33              		@ link register save eliminated.
  34              		.loc 1 60 0
  35 0000 014B     		ldr	r3, .L3
  36 0002 1868     		ldr	r0, [r3]
  37              		.loc 1 61 0
  38 0004 000C     		lsrs	r0, r0, #16
  39 0006 7047     		bx	lr
  40              	.L4:
  41              		.align	2
  42              	.L3:
  43 0008 002004E0 		.word	-536600576
  44              		.cfi_endproc
  45              	.LFE111:
  46              		.size	DBGMCU_GetREVID, .-DBGMCU_GetREVID
  47              		.section	.text.DBGMCU_GetDEVID,"ax",%progbits
  48              		.align	1
  49              		.p2align 4,,15
  50              		.global	DBGMCU_GetDEVID
  51              		.syntax unified
  52              		.thumb
  53              		.thumb_func
  54              		.fpu fpv4-sp-d16
  55              		.type	DBGMCU_GetDEVID, %function
  56              	DBGMCU_GetDEVID:
  57              	.LFB112:
ARM GAS  /tmp/ccJYvKAQ.s 			page 2


  58              		.loc 1 69 0
  59              		.cfi_startproc
  60              		@ args = 0, pretend = 0, frame = 0
  61              		@ frame_needed = 0, uses_anonymous_args = 0
  62              		@ link register save eliminated.
  63              		.loc 1 70 0
  64 0000 024B     		ldr	r3, .L6
  65 0002 1868     		ldr	r0, [r3]
  66              		.loc 1 71 0
  67 0004 C0F30B00 		ubfx	r0, r0, #0, #12
  68 0008 7047     		bx	lr
  69              	.L7:
  70 000a 00BF     		.align	2
  71              	.L6:
  72 000c 002004E0 		.word	-536600576
  73              		.cfi_endproc
  74              	.LFE112:
  75              		.size	DBGMCU_GetDEVID, .-DBGMCU_GetDEVID
  76              		.section	.text.DBGMCU_Config,"ax",%progbits
  77              		.align	1
  78              		.p2align 4,,15
  79              		.global	DBGMCU_Config
  80              		.syntax unified
  81              		.thumb
  82              		.thumb_func
  83              		.fpu fpv4-sp-d16
  84              		.type	DBGMCU_Config, %function
  85              	DBGMCU_Config:
  86              	.LFB113:
  87              		.loc 1 85 0
  88              		.cfi_startproc
  89              		@ args = 0, pretend = 0, frame = 0
  90              		@ frame_needed = 0, uses_anonymous_args = 0
  91              		@ link register save eliminated.
  92              	.LVL0:
  93              		.loc 1 91 0
  94 0000 044A     		ldr	r2, .L12
  95 0002 5368     		ldr	r3, [r2, #4]
  96              		.loc 1 89 0
  97 0004 19B9     		cbnz	r1, .L11
  98              		.loc 1 95 0
  99 0006 23EA0000 		bic	r0, r3, r0
 100              	.LVL1:
 101 000a 5060     		str	r0, [r2, #4]
 102              		.loc 1 97 0
 103 000c 7047     		bx	lr
 104              	.LVL2:
 105              	.L11:
 106              		.loc 1 91 0
 107 000e 1843     		orrs	r0, r0, r3
 108              	.LVL3:
 109 0010 5060     		str	r0, [r2, #4]
 110 0012 7047     		bx	lr
 111              	.L13:
 112              		.align	2
 113              	.L12:
 114 0014 002004E0 		.word	-536600576
ARM GAS  /tmp/ccJYvKAQ.s 			page 3


 115              		.cfi_endproc
 116              	.LFE113:
 117              		.size	DBGMCU_Config, .-DBGMCU_Config
 118              		.section	.text.DBGMCU_APB1PeriphConfig,"ax",%progbits
 119              		.align	1
 120              		.p2align 4,,15
 121              		.global	DBGMCU_APB1PeriphConfig
 122              		.syntax unified
 123              		.thumb
 124              		.thumb_func
 125              		.fpu fpv4-sp-d16
 126              		.type	DBGMCU_APB1PeriphConfig, %function
 127              	DBGMCU_APB1PeriphConfig:
 128              	.LFB114:
 129              		.loc 1 124 0
 130              		.cfi_startproc
 131              		@ args = 0, pretend = 0, frame = 0
 132              		@ frame_needed = 0, uses_anonymous_args = 0
 133              		@ link register save eliminated.
 134              	.LVL4:
 135              		.loc 1 131 0
 136 0000 044A     		ldr	r2, .L18
 137 0002 9368     		ldr	r3, [r2, #8]
 138              		.loc 1 129 0
 139 0004 19B9     		cbnz	r1, .L17
 140              		.loc 1 135 0
 141 0006 23EA0000 		bic	r0, r3, r0
 142              	.LVL5:
 143 000a 9060     		str	r0, [r2, #8]
 144              		.loc 1 137 0
 145 000c 7047     		bx	lr
 146              	.LVL6:
 147              	.L17:
 148              		.loc 1 131 0
 149 000e 1843     		orrs	r0, r0, r3
 150              	.LVL7:
 151 0010 9060     		str	r0, [r2, #8]
 152 0012 7047     		bx	lr
 153              	.L19:
 154              		.align	2
 155              	.L18:
 156 0014 002004E0 		.word	-536600576
 157              		.cfi_endproc
 158              	.LFE114:
 159              		.size	DBGMCU_APB1PeriphConfig, .-DBGMCU_APB1PeriphConfig
 160              		.section	.text.DBGMCU_APB2PeriphConfig,"ax",%progbits
 161              		.align	1
 162              		.p2align 4,,15
 163              		.global	DBGMCU_APB2PeriphConfig
 164              		.syntax unified
 165              		.thumb
 166              		.thumb_func
 167              		.fpu fpv4-sp-d16
 168              		.type	DBGMCU_APB2PeriphConfig, %function
 169              	DBGMCU_APB2PeriphConfig:
 170              	.LFB115:
 171              		.loc 1 153 0
ARM GAS  /tmp/ccJYvKAQ.s 			page 4


 172              		.cfi_startproc
 173              		@ args = 0, pretend = 0, frame = 0
 174              		@ frame_needed = 0, uses_anonymous_args = 0
 175              		@ link register save eliminated.
 176              	.LVL8:
 177              		.loc 1 160 0
 178 0000 044A     		ldr	r2, .L24
 179 0002 D368     		ldr	r3, [r2, #12]
 180              		.loc 1 158 0
 181 0004 19B9     		cbnz	r1, .L23
 182              		.loc 1 164 0
 183 0006 23EA0000 		bic	r0, r3, r0
 184              	.LVL9:
 185 000a D060     		str	r0, [r2, #12]
 186              		.loc 1 166 0
 187 000c 7047     		bx	lr
 188              	.LVL10:
 189              	.L23:
 190              		.loc 1 160 0
 191 000e 1843     		orrs	r0, r0, r3
 192              	.LVL11:
 193 0010 D060     		str	r0, [r2, #12]
 194 0012 7047     		bx	lr
 195              	.L25:
 196              		.align	2
 197              	.L24:
 198 0014 002004E0 		.word	-536600576
 199              		.cfi_endproc
 200              	.LFE115:
 201              		.size	DBGMCU_APB2PeriphConfig, .-DBGMCU_APB2PeriphConfig
 202              		.text
 203              	.Letext0:
 204              		.file 2 "/usr/arm-none-eabi/include/machine/_default_types.h"
 205              		.file 3 "/usr/arm-none-eabi/include/sys/_stdint.h"
 206              		.file 4 "ChibiOS_2.6.6/os/hal/platforms/STM32F4xx/stm32f4xx.h"
 207              		.file 5 "ChibiOS_2.6.6/os/ports/common/ARMCMx/CMSIS/include/core_cm4.h"