ARM GAS  /tmp/ccwp7pIS.s 			page 1


   1              		.cpu cortex-m4
   2              		.eabi_attribute 27, 1
   3              		.eabi_attribute 28, 1
   4              		.eabi_attribute 20, 1
   5              		.eabi_attribute 21, 1
   6              		.eabi_attribute 23, 3
   7              		.eabi_attribute 24, 1
   8              		.eabi_attribute 25, 1
   9              		.eabi_attribute 26, 1
  10              		.eabi_attribute 30, 2
  11              		.eabi_attribute 34, 1
  12              		.eabi_attribute 18, 4
  13              		.file	"stm32f4xx_cryp.c"
  14              		.text
  15              	.Ltext0:
  16              		.cfi_sections	.debug_frame
  17              		.section	.text.CRYP_DeInit,"ax",%progbits
  18              		.align	1
  19              		.p2align 4,,15
  20              		.global	CRYP_DeInit
  21              		.syntax unified
  22              		.thumb
  23              		.thumb_func
  24              		.fpu fpv4-sp-d16
  25              		.type	CRYP_DeInit, %function
  26              	CRYP_DeInit:
  27              	.LFB111:
  28              		.file 1 "ChibiOS_2.6.6/ext/stdperiph_stm32f4/src/stm32f4xx_cryp.c"
  29              		.loc 1 222 0
  30              		.cfi_startproc
  31              		@ args = 0, pretend = 0, frame = 0
  32              		@ frame_needed = 0, uses_anonymous_args = 0
  33 0000 08B5     		push	{r3, lr}
  34              		.cfi_def_cfa_offset 8
  35              		.cfi_offset 3, -8
  36              		.cfi_offset 14, -4
  37              		.loc 1 224 0
  38 0002 0121     		movs	r1, #1
  39 0004 1020     		movs	r0, #16
  40 0006 FFF7FEFF 		bl	RCC_AHB2PeriphResetCmd
  41              	.LVL0:
  42              		.loc 1 227 0
  43 000a 0021     		movs	r1, #0
  44 000c 1020     		movs	r0, #16
  45              		.loc 1 228 0
  46 000e BDE80840 		pop	{r3, lr}
  47              		.cfi_restore 14
  48              		.cfi_restore 3
  49              		.cfi_def_cfa_offset 0
  50              		.loc 1 227 0
  51 0012 FFF7FEBF 		b	RCC_AHB2PeriphResetCmd
  52              	.LVL1:
  53              		.cfi_endproc
  54              	.LFE111:
  55              		.size	CRYP_DeInit, .-CRYP_DeInit
  56 0016 00BF     		.section	.text.CRYP_Init,"ax",%progbits
  57              		.align	1
ARM GAS  /tmp/ccwp7pIS.s 			page 2


  58              		.p2align 4,,15
  59              		.global	CRYP_Init
  60              		.syntax unified
  61              		.thumb
  62              		.thumb_func
  63              		.fpu fpv4-sp-d16
  64              		.type	CRYP_Init, %function
  65              	CRYP_Init:
  66              	.LFB112:
  67              		.loc 1 238 0
  68              		.cfi_startproc
  69              		@ args = 0, pretend = 0, frame = 0
  70              		@ frame_needed = 0, uses_anonymous_args = 0
  71              		@ link register save eliminated.
  72              	.LVL2:
  73              		.loc 1 245 0
  74 0000 154B     		ldr	r3, .L7
  75              		.loc 1 250 0
  76 0002 8188     		ldrh	r1, [r0, #4]
  77              		.loc 1 245 0
  78 0004 1A68     		ldr	r2, [r3]
  79 0006 22F40022 		bic	r2, r2, #524288
  80 000a 22F03802 		bic	r2, r2, #56
  81              		.loc 1 238 0
  82 000e 10B4     		push	{r4}
  83              		.cfi_def_cfa_offset 4
  84              		.cfi_offset 4, -4
  85              		.loc 1 245 0
  86 0010 1A60     		str	r2, [r3]
  87              		.loc 1 246 0
  88 0012 1C68     		ldr	r4, [r3]
  89 0014 4288     		ldrh	r2, [r0, #2]
  90 0016 1443     		orrs	r4, r4, r2
  91 0018 1C60     		str	r4, [r3]
  92              		.loc 1 249 0
  93 001a 1C68     		ldr	r4, [r3]
  94 001c 24F0C004 		bic	r4, r4, #192
  95 0020 1C60     		str	r4, [r3]
  96              		.loc 1 250 0
  97 0022 1C68     		ldr	r4, [r3]
  98              		.loc 1 253 0
  99 0024 22F01802 		bic	r2, r2, #24
 100              		.loc 1 250 0
 101 0028 2143     		orrs	r1, r1, r4
 102              		.loc 1 253 0
 103 002a 202A     		cmp	r2, #32
 104              		.loc 1 250 0
 105 002c 1960     		str	r1, [r3]
 106              		.loc 1 253 0
 107 002e 07D1     		bne	.L5
 108              		.loc 1 259 0
 109 0030 1968     		ldr	r1, [r3]
 110              		.loc 1 260 0
 111 0032 C288     		ldrh	r2, [r0, #6]
 112              		.loc 1 259 0
 113 0034 21F44071 		bic	r1, r1, #768
 114 0038 1960     		str	r1, [r3]
ARM GAS  /tmp/ccwp7pIS.s 			page 3


 115              		.loc 1 260 0
 116 003a 1968     		ldr	r1, [r3]
 117 003c 0A43     		orrs	r2, r2, r1
 118 003e 1A60     		str	r2, [r3]
 119              	.L5:
 120              		.loc 1 266 0
 121 0040 054B     		ldr	r3, .L7
 122              		.loc 1 267 0
 123 0042 0288     		ldrh	r2, [r0]
 124              		.loc 1 266 0
 125 0044 1968     		ldr	r1, [r3]
 126              		.loc 1 268 0
 127 0046 5DF8044B 		ldr	r4, [sp], #4
 128              		.cfi_restore 4
 129              		.cfi_def_cfa_offset 0
 130              		.loc 1 266 0
 131 004a 21F00401 		bic	r1, r1, #4
 132 004e 1960     		str	r1, [r3]
 133              		.loc 1 267 0
 134 0050 1968     		ldr	r1, [r3]
 135 0052 0A43     		orrs	r2, r2, r1
 136 0054 1A60     		str	r2, [r3]
 137              		.loc 1 268 0
 138 0056 7047     		bx	lr
 139              	.L8:
 140              		.align	2
 141              	.L7:
 142 0058 00000650 		.word	1342570496
 143              		.cfi_endproc
 144              	.LFE112:
 145              		.size	CRYP_Init, .-CRYP_Init
 146              		.section	.text.CRYP_StructInit,"ax",%progbits
 147              		.align	1
 148              		.p2align 4,,15
 149              		.global	CRYP_StructInit
 150              		.syntax unified
 151              		.thumb
 152              		.thumb_func
 153              		.fpu fpv4-sp-d16
 154              		.type	CRYP_StructInit, %function
 155              	CRYP_StructInit:
 156              	.LFB113:
 157              		.loc 1 277 0
 158              		.cfi_startproc
 159              		@ args = 0, pretend = 0, frame = 0
 160              		@ frame_needed = 0, uses_anonymous_args = 0
 161              		@ link register save eliminated.
 162              	.LVL3:
 163              		.loc 1 279 0
 164 0000 0023     		movs	r3, #0
 165 0002 0380     		strh	r3, [r0]	@ movhi
 166              		.loc 1 282 0
 167 0004 4380     		strh	r3, [r0, #2]	@ movhi
 168              		.loc 1 285 0
 169 0006 8380     		strh	r3, [r0, #4]	@ movhi
 170              		.loc 1 288 0
 171 0008 C380     		strh	r3, [r0, #6]	@ movhi
ARM GAS  /tmp/ccwp7pIS.s 			page 4


 172              		.loc 1 289 0
 173 000a 7047     		bx	lr
 174              		.cfi_endproc
 175              	.LFE113:
 176              		.size	CRYP_StructInit, .-CRYP_StructInit
 177              		.section	.text.CRYP_KeyInit,"ax",%progbits
 178              		.align	1
 179              		.p2align 4,,15
 180              		.global	CRYP_KeyInit
 181              		.syntax unified
 182              		.thumb
 183              		.thumb_func
 184              		.fpu fpv4-sp-d16
 185              		.type	CRYP_KeyInit, %function
 186              	CRYP_KeyInit:
 187              	.LFB114:
 188              		.loc 1 299 0
 189              		.cfi_startproc
 190              		@ args = 0, pretend = 0, frame = 0
 191              		@ frame_needed = 0, uses_anonymous_args = 0
 192              		@ link register save eliminated.
 193              	.LVL4:
 194              		.loc 1 301 0
 195 0000 084B     		ldr	r3, .L11
 196 0002 0268     		ldr	r2, [r0]
 197 0004 1A62     		str	r2, [r3, #32]
 198              		.loc 1 302 0
 199 0006 4268     		ldr	r2, [r0, #4]
 200 0008 5A62     		str	r2, [r3, #36]
 201              		.loc 1 303 0
 202 000a 8268     		ldr	r2, [r0, #8]
 203 000c 9A62     		str	r2, [r3, #40]
 204              		.loc 1 304 0
 205 000e C268     		ldr	r2, [r0, #12]
 206 0010 DA62     		str	r2, [r3, #44]
 207              		.loc 1 305 0
 208 0012 0269     		ldr	r2, [r0, #16]
 209 0014 1A63     		str	r2, [r3, #48]
 210              		.loc 1 306 0
 211 0016 4269     		ldr	r2, [r0, #20]
 212 0018 5A63     		str	r2, [r3, #52]
 213              		.loc 1 307 0
 214 001a 8269     		ldr	r2, [r0, #24]
 215 001c 9A63     		str	r2, [r3, #56]
 216              		.loc 1 308 0
 217 001e C269     		ldr	r2, [r0, #28]
 218 0020 DA63     		str	r2, [r3, #60]
 219              		.loc 1 309 0
 220 0022 7047     		bx	lr
 221              	.L12:
 222              		.align	2
 223              	.L11:
 224 0024 00000650 		.word	1342570496
 225              		.cfi_endproc
 226              	.LFE114:
 227              		.size	CRYP_KeyInit, .-CRYP_KeyInit
 228              		.section	.text.CRYP_KeyStructInit,"ax",%progbits
ARM GAS  /tmp/ccwp7pIS.s 			page 5


 229              		.align	1
 230              		.p2align 4,,15
 231              		.global	CRYP_KeyStructInit
 232              		.syntax unified
 233              		.thumb
 234              		.thumb_func
 235              		.fpu fpv4-sp-d16
 236              		.type	CRYP_KeyStructInit, %function
 237              	CRYP_KeyStructInit:
 238              	.LFB115:
 239              		.loc 1 318 0
 240              		.cfi_startproc
 241              		@ args = 0, pretend = 0, frame = 0
 242              		@ frame_needed = 0, uses_anonymous_args = 0
 243              		@ link register save eliminated.
 244              	.LVL5:
 245              		.loc 1 319 0
 246 0000 0023     		movs	r3, #0
 247              		.loc 1 320 0
 248 0002 C0E90033 		strd	r3, r3, [r0]
 249              		.loc 1 322 0
 250 0006 C0E90233 		strd	r3, r3, [r0, #8]
 251              		.loc 1 324 0
 252 000a C0E90433 		strd	r3, r3, [r0, #16]
 253              		.loc 1 326 0
 254 000e C0E90633 		strd	r3, r3, [r0, #24]
 255              		.loc 1 327 0
 256 0012 7047     		bx	lr
 257              		.cfi_endproc
 258              	.LFE115:
 259              		.size	CRYP_KeyStructInit, .-CRYP_KeyStructInit
 260              		.section	.text.CRYP_IVInit,"ax",%progbits
 261              		.align	1
 262              		.p2align 4,,15
 263              		.global	CRYP_IVInit
 264              		.syntax unified
 265              		.thumb
 266              		.thumb_func
 267              		.fpu fpv4-sp-d16
 268              		.type	CRYP_IVInit, %function
 269              	CRYP_IVInit:
 270              	.LFB116:
 271              		.loc 1 336 0
 272              		.cfi_startproc
 273              		@ args = 0, pretend = 0, frame = 0
 274              		@ frame_needed = 0, uses_anonymous_args = 0
 275              		@ link register save eliminated.
 276              	.LVL6:
 277              		.loc 1 337 0
 278 0000 044B     		ldr	r3, .L15
 279 0002 0268     		ldr	r2, [r0]
 280 0004 1A64     		str	r2, [r3, #64]
 281              		.loc 1 338 0
 282 0006 4268     		ldr	r2, [r0, #4]
 283 0008 5A64     		str	r2, [r3, #68]
 284              		.loc 1 339 0
 285 000a 8268     		ldr	r2, [r0, #8]
ARM GAS  /tmp/ccwp7pIS.s 			page 6


 286 000c 9A64     		str	r2, [r3, #72]
 287              		.loc 1 340 0
 288 000e C268     		ldr	r2, [r0, #12]
 289 0010 DA64     		str	r2, [r3, #76]
 290              		.loc 1 341 0
 291 0012 7047     		bx	lr
 292              	.L16:
 293              		.align	2
 294              	.L15:
 295 0014 00000650 		.word	1342570496
 296              		.cfi_endproc
 297              	.LFE116:
 298              		.size	CRYP_IVInit, .-CRYP_IVInit
 299              		.section	.text.CRYP_IVStructInit,"ax",%progbits
 300              		.align	1
 301              		.p2align 4,,15
 302              		.global	CRYP_IVStructInit
 303              		.syntax unified
 304              		.thumb
 305              		.thumb_func
 306              		.fpu fpv4-sp-d16
 307              		.type	CRYP_IVStructInit, %function
 308              	CRYP_IVStructInit:
 309              	.LFB117:
 310              		.loc 1 350 0
 311              		.cfi_startproc
 312              		@ args = 0, pretend = 0, frame = 0
 313              		@ frame_needed = 0, uses_anonymous_args = 0
 314              		@ link register save eliminated.
 315              	.LVL7:
 316              		.loc 1 351 0
 317 0000 0023     		movs	r3, #0
 318              		.loc 1 352 0
 319 0002 C0E90033 		strd	r3, r3, [r0]
 320              		.loc 1 354 0
 321 0006 C0E90233 		strd	r3, r3, [r0, #8]
 322              		.loc 1 355 0
 323 000a 7047     		bx	lr
 324              		.cfi_endproc
 325              	.LFE117:
 326              		.size	CRYP_IVStructInit, .-CRYP_IVStructInit
 327              		.section	.text.CRYP_FIFOFlush,"ax",%progbits
 328              		.align	1
 329              		.p2align 4,,15
 330              		.global	CRYP_FIFOFlush
 331              		.syntax unified
 332              		.thumb
 333              		.thumb_func
 334              		.fpu fpv4-sp-d16
 335              		.type	CRYP_FIFOFlush, %function
 336              	CRYP_FIFOFlush:
 337              	.LFB118:
 338              		.loc 1 365 0
 339              		.cfi_startproc
 340              		@ args = 0, pretend = 0, frame = 0
 341              		@ frame_needed = 0, uses_anonymous_args = 0
 342              		@ link register save eliminated.
ARM GAS  /tmp/ccwp7pIS.s 			page 7


 343              		.loc 1 367 0
 344 0000 024A     		ldr	r2, .L19
 345 0002 1368     		ldr	r3, [r2]
 346 0004 43F48043 		orr	r3, r3, #16384
 347 0008 1360     		str	r3, [r2]
 348              		.loc 1 368 0
 349 000a 7047     		bx	lr
 350              	.L20:
 351              		.align	2
 352              	.L19:
 353 000c 00000650 		.word	1342570496
 354              		.cfi_endproc
 355              	.LFE118:
 356              		.size	CRYP_FIFOFlush, .-CRYP_FIFOFlush
 357              		.section	.text.CRYP_Cmd,"ax",%progbits
 358              		.align	1
 359              		.p2align 4,,15
 360              		.global	CRYP_Cmd
 361              		.syntax unified
 362              		.thumb
 363              		.thumb_func
 364              		.fpu fpv4-sp-d16
 365              		.type	CRYP_Cmd, %function
 366              	CRYP_Cmd:
 367              	.LFB119:
 368              		.loc 1 377 0
 369              		.cfi_startproc
 370              		@ args = 0, pretend = 0, frame = 0
 371              		@ frame_needed = 0, uses_anonymous_args = 0
 372              		@ link register save eliminated.
 373              	.LVL8:
 374              		.loc 1 384 0
 375 0000 054A     		ldr	r2, .L25
 376 0002 1368     		ldr	r3, [r2]
 377              		.loc 1 381 0
 378 0004 18B9     		cbnz	r0, .L24
 379              		.loc 1 389 0
 380 0006 23F40043 		bic	r3, r3, #32768
 381 000a 1360     		str	r3, [r2]
 382              		.loc 1 391 0
 383 000c 7047     		bx	lr
 384              	.L24:
 385              		.loc 1 384 0
 386 000e 43F40043 		orr	r3, r3, #32768
 387 0012 1360     		str	r3, [r2]
 388 0014 7047     		bx	lr
 389              	.L26:
 390 0016 00BF     		.align	2
 391              	.L25:
 392 0018 00000650 		.word	1342570496
 393              		.cfi_endproc
 394              	.LFE119:
 395              		.size	CRYP_Cmd, .-CRYP_Cmd
 396              		.section	.text.CRYP_DataIn,"ax",%progbits
 397              		.align	1
 398              		.p2align 4,,15
 399              		.global	CRYP_DataIn
ARM GAS  /tmp/ccwp7pIS.s 			page 8


 400              		.syntax unified
 401              		.thumb
 402              		.thumb_func
 403              		.fpu fpv4-sp-d16
 404              		.type	CRYP_DataIn, %function
 405              	CRYP_DataIn:
 406              	.LFB120:
 407              		.loc 1 420 0
 408              		.cfi_startproc
 409              		@ args = 0, pretend = 0, frame = 0
 410              		@ frame_needed = 0, uses_anonymous_args = 0
 411              		@ link register save eliminated.
 412              	.LVL9:
 413              		.loc 1 421 0
 414 0000 014B     		ldr	r3, .L28
 415 0002 9860     		str	r0, [r3, #8]
 416              		.loc 1 422 0
 417 0004 7047     		bx	lr
 418              	.L29:
 419 0006 00BF     		.align	2
 420              	.L28:
 421 0008 00000650 		.word	1342570496
 422              		.cfi_endproc
 423              	.LFE120:
 424              		.size	CRYP_DataIn, .-CRYP_DataIn
 425              		.section	.text.CRYP_DataOut,"ax",%progbits
 426              		.align	1
 427              		.p2align 4,,15
 428              		.global	CRYP_DataOut
 429              		.syntax unified
 430              		.thumb
 431              		.thumb_func
 432              		.fpu fpv4-sp-d16
 433              		.type	CRYP_DataOut, %function
 434              	CRYP_DataOut:
 435              	.LFB121:
 436              		.loc 1 430 0
 437              		.cfi_startproc
 438              		@ args = 0, pretend = 0, frame = 0
 439              		@ frame_needed = 0, uses_anonymous_args = 0
 440              		@ link register save eliminated.
 441              		.loc 1 431 0
 442 0000 014B     		ldr	r3, .L31
 443 0002 D868     		ldr	r0, [r3, #12]
 444              		.loc 1 432 0
 445 0004 7047     		bx	lr
 446              	.L32:
 447 0006 00BF     		.align	2
 448              	.L31:
 449 0008 00000650 		.word	1342570496
 450              		.cfi_endproc
 451              	.LFE121:
 452              		.size	CRYP_DataOut, .-CRYP_DataOut
 453              		.section	.text.CRYP_SaveContext,"ax",%progbits
 454              		.align	1
 455              		.p2align 4,,15
 456              		.global	CRYP_SaveContext
ARM GAS  /tmp/ccwp7pIS.s 			page 9


 457              		.syntax unified
 458              		.thumb
 459              		.thumb_func
 460              		.fpu fpv4-sp-d16
 461              		.type	CRYP_SaveContext, %function
 462              	CRYP_SaveContext:
 463              	.LFB122:
 464              		.loc 1 474 0
 465              		.cfi_startproc
 466              		@ args = 0, pretend = 0, frame = 8
 467              		@ frame_needed = 0, uses_anonymous_args = 0
 468              		@ link register save eliminated.
 469              	.LVL10:
 470 0000 F0B4     		push	{r4, r5, r6, r7}
 471              		.cfi_def_cfa_offset 16
 472              		.cfi_offset 4, -16
 473              		.cfi_offset 5, -12
 474              		.cfi_offset 6, -8
 475              		.cfi_offset 7, -4
 476 0002 82B0     		sub	sp, sp, #8
 477              		.cfi_def_cfa_offset 24
 478              		.loc 1 480 0
 479 0004 264C     		ldr	r4, .L44
 480              		.loc 1 475 0
 481 0006 0023     		movs	r3, #0
 482 0008 0193     		str	r3, [sp, #4]
 483              	.LVL11:
 484              		.loc 1 480 0
 485 000a 2369     		ldr	r3, [r4, #16]
 486 000c 23F00103 		bic	r3, r3, #1
 487 0010 2361     		str	r3, [r4, #16]
 488              		.loc 1 486 0
 489 0012 2368     		ldr	r3, [r4]
 490              		.loc 1 492 0
 491 0014 13F0080F 		tst	r3, #8
 492 0018 14BF     		ite	ne
 493 001a 1125     		movne	r5, #17
 494 001c 1525     		moveq	r5, #21
 495              		.loc 1 500 0
 496 001e 4FF6FF76 		movw	r6, #65535
 497 0022 01E0     		b	.L36
 498              	.LVL12:
 499              	.L42:
 500              		.loc 1 500 0 is_stmt 0 discriminator 1
 501 0024 012A     		cmp	r2, #1
 502 0026 08D0     		beq	.L35
 503              	.LVL13:
 504              	.L36:
 505              		.loc 1 497 0 is_stmt 1 discriminator 2
 506 0028 6268     		ldr	r2, [r4, #4]
 507              		.loc 1 498 0 discriminator 2
 508 002a 019B     		ldr	r3, [sp, #4]
 509 002c 0133     		adds	r3, r3, #1
 510 002e 0193     		str	r3, [sp, #4]
 511              		.loc 1 500 0 discriminator 2
 512 0030 019B     		ldr	r3, [sp, #4]
 513 0032 B342     		cmp	r3, r6
ARM GAS  /tmp/ccwp7pIS.s 			page 10


 514              		.loc 1 497 0 discriminator 2
 515 0034 02EA0502 		and	r2, r2, r5
 516              	.LVL14:
 517              		.loc 1 500 0 discriminator 2
 518 0038 F4D1     		bne	.L42
 519              	.L35:
 520              		.loc 1 502 0
 521 003a 194B     		ldr	r3, .L44
 522 003c 5A68     		ldr	r2, [r3, #4]
 523              	.LVL15:
 524 003e 1540     		ands	r5, r5, r2
 525              	.LVL16:
 526 0040 012D     		cmp	r5, #1
 527 0042 04D0     		beq	.L43
 528              		.loc 1 504 0
 529 0044 0025     		movs	r5, #0
 530              	.LVL17:
 531              		.loc 1 544 0
 532 0046 2846     		mov	r0, r5
 533              	.LVL18:
 534 0048 02B0     		add	sp, sp, #8
 535              		.cfi_remember_state
 536              		.cfi_def_cfa_offset 16
 537              		@ sp needed
 538 004a F0BC     		pop	{r4, r5, r6, r7}
 539              		.cfi_restore 7
 540              		.cfi_restore 6
 541              		.cfi_restore 5
 542              		.cfi_restore 4
 543              		.cfi_def_cfa_offset 0
 544              	.LVL19:
 545 004c 7047     		bx	lr
 546              	.LVL20:
 547              	.L43:
 548              		.cfi_restore_state
 549              		.loc 1 512 0
 550 004e 1C69     		ldr	r4, [r3, #16]
 551              		.loc 1 516 0
 552 0050 144E     		ldr	r6, .L44+4
 553              		.loc 1 512 0
 554 0052 24F00204 		bic	r4, r4, #2
 555 0056 1C61     		str	r4, [r3, #16]
 556              		.loc 1 513 0
 557 0058 1C68     		ldr	r4, [r3]
 558 005a 24F40044 		bic	r4, r4, #32768
 559 005e 1C60     		str	r4, [r3]
 560              		.loc 1 516 0
 561 0060 1A68     		ldr	r2, [r3]
 562              		.loc 1 528 0
 563 0062 0C68     		ldr	r4, [r1]
 564              		.loc 1 531 0
 565 0064 CF68     		ldr	r7, [r1, #12]
 566              		.loc 1 516 0
 567 0066 3240     		ands	r2, r2, r6
 568 0068 0260     		str	r2, [r0]
 569              		.loc 1 522 0
 570 006a 1A6C     		ldr	r2, [r3, #64]
ARM GAS  /tmp/ccwp7pIS.s 			page 11


 571 006c 4260     		str	r2, [r0, #4]
 572              		.loc 1 523 0
 573 006e 5A6C     		ldr	r2, [r3, #68]
 574 0070 8260     		str	r2, [r0, #8]
 575              		.loc 1 524 0
 576 0072 9A6C     		ldr	r2, [r3, #72]
 577 0074 C260     		str	r2, [r0, #12]
 578              		.loc 1 525 0
 579 0076 DE6C     		ldr	r6, [r3, #76]
 580              		.loc 1 530 0
 581 0078 D1E90123 		ldrd	r2, r3, [r1, #4]
 582              		.loc 1 525 0
 583 007c 0661     		str	r6, [r0, #16]
 584              		.loc 1 528 0
 585 007e 4461     		str	r4, [r0, #20]
 586              		.loc 1 532 0
 587 0080 0E69     		ldr	r6, [r1, #16]
 588              		.loc 1 533 0
 589 0082 4C69     		ldr	r4, [r1, #20]
 590              		.loc 1 529 0
 591 0084 8261     		str	r2, [r0, #24]
 592              		.loc 1 530 0
 593 0086 C361     		str	r3, [r0, #28]
 594              		.loc 1 535 0
 595 0088 D1E90623 		ldrd	r2, r3, [r1, #24]
 596              		.loc 1 532 0
 597 008c C0E90876 		strd	r7, r6, [r0, #32]
 598              		.loc 1 534 0
 599 0090 C0E90A42 		strd	r4, r2, [r0, #40]
 600              		.loc 1 535 0
 601 0094 0363     		str	r3, [r0, #48]
 602              	.LVL21:
 603              		.loc 1 544 0
 604 0096 2846     		mov	r0, r5
 605              	.LVL22:
 606 0098 02B0     		add	sp, sp, #8
 607              		.cfi_def_cfa_offset 16
 608              		@ sp needed
 609 009a F0BC     		pop	{r4, r5, r6, r7}
 610              		.cfi_restore 7
 611              		.cfi_restore 6
 612              		.cfi_restore 5
 613              		.cfi_restore 4
 614              		.cfi_def_cfa_offset 0
 615              	.LVL23:
 616 009c 7047     		bx	lr
 617              	.L45:
 618 009e 00BF     		.align	2
 619              	.L44:
 620 00a0 00000650 		.word	1342570496
 621 00a4 FC030800 		.word	525308
 622              		.cfi_endproc
 623              	.LFE122:
 624              		.size	CRYP_SaveContext, .-CRYP_SaveContext
 625              		.section	.text.CRYP_RestoreContext,"ax",%progbits
 626              		.align	1
 627              		.p2align 4,,15
ARM GAS  /tmp/ccwp7pIS.s 			page 12


 628              		.global	CRYP_RestoreContext
 629              		.syntax unified
 630              		.thumb
 631              		.thumb_func
 632              		.fpu fpv4-sp-d16
 633              		.type	CRYP_RestoreContext, %function
 634              	CRYP_RestoreContext:
 635              	.LFB123:
 636              		.loc 1 558 0
 637              		.cfi_startproc
 638              		@ args = 0, pretend = 0, frame = 0
 639              		@ frame_needed = 0, uses_anonymous_args = 0
 640              		@ link register save eliminated.
 641              	.LVL24:
 642              		.loc 1 561 0
 643 0000 0F4B     		ldr	r3, .L47
 644 0002 0268     		ldr	r2, [r0]
 645 0004 1A60     		str	r2, [r3]
 646              		.loc 1 564 0
 647 0006 4269     		ldr	r2, [r0, #20]
 648 0008 1A62     		str	r2, [r3, #32]
 649              		.loc 1 565 0
 650 000a 8269     		ldr	r2, [r0, #24]
 651 000c 5A62     		str	r2, [r3, #36]
 652              		.loc 1 566 0
 653 000e C269     		ldr	r2, [r0, #28]
 654 0010 9A62     		str	r2, [r3, #40]
 655              		.loc 1 567 0
 656 0012 026A     		ldr	r2, [r0, #32]
 657 0014 DA62     		str	r2, [r3, #44]
 658              		.loc 1 568 0
 659 0016 426A     		ldr	r2, [r0, #36]
 660 0018 1A63     		str	r2, [r3, #48]
 661              		.loc 1 569 0
 662 001a 826A     		ldr	r2, [r0, #40]
 663 001c 5A63     		str	r2, [r3, #52]
 664              		.loc 1 570 0
 665 001e C26A     		ldr	r2, [r0, #44]
 666 0020 9A63     		str	r2, [r3, #56]
 667              		.loc 1 571 0
 668 0022 026B     		ldr	r2, [r0, #48]
 669 0024 DA63     		str	r2, [r3, #60]
 670              		.loc 1 574 0
 671 0026 4268     		ldr	r2, [r0, #4]
 672 0028 1A64     		str	r2, [r3, #64]
 673              		.loc 1 575 0
 674 002a 8268     		ldr	r2, [r0, #8]
 675 002c 5A64     		str	r2, [r3, #68]
 676              		.loc 1 576 0
 677 002e C268     		ldr	r2, [r0, #12]
 678 0030 9A64     		str	r2, [r3, #72]
 679              		.loc 1 577 0
 680 0032 0269     		ldr	r2, [r0, #16]
 681 0034 DA64     		str	r2, [r3, #76]
 682              		.loc 1 580 0
 683 0036 1A68     		ldr	r2, [r3]
 684 0038 42F40042 		orr	r2, r2, #32768
ARM GAS  /tmp/ccwp7pIS.s 			page 13


 685 003c 1A60     		str	r2, [r3]
 686              		.loc 1 581 0
 687 003e 7047     		bx	lr
 688              	.L48:
 689              		.align	2
 690              	.L47:
 691 0040 00000650 		.word	1342570496
 692              		.cfi_endproc
 693              	.LFE123:
 694              		.size	CRYP_RestoreContext, .-CRYP_RestoreContext
 695              		.section	.text.CRYP_DMACmd,"ax",%progbits
 696              		.align	1
 697              		.p2align 4,,15
 698              		.global	CRYP_DMACmd
 699              		.syntax unified
 700              		.thumb
 701              		.thumb_func
 702              		.fpu fpv4-sp-d16
 703              		.type	CRYP_DMACmd, %function
 704              	CRYP_DMACmd:
 705              	.LFB124:
 706              		.loc 1 619 0
 707              		.cfi_startproc
 708              		@ args = 0, pretend = 0, frame = 0
 709              		@ frame_needed = 0, uses_anonymous_args = 0
 710              		@ link register save eliminated.
 711              	.LVL25:
 712              		.loc 1 624 0
 713 0000 39B9     		cbnz	r1, .L52
 714              		.loc 1 632 0
 715 0002 064A     		ldr	r2, .L53
 716 0004 1369     		ldr	r3, [r2, #16]
 717 0006 23EA0000 		bic	r0, r3, r0
 718              	.LVL26:
 719 000a 00F0FF00 		and	r0, r0, #255
 720 000e 1061     		str	r0, [r2, #16]
 721              		.loc 1 634 0
 722 0010 7047     		bx	lr
 723              	.LVL27:
 724              	.L52:
 725              		.loc 1 627 0
 726 0012 024B     		ldr	r3, .L53
 727 0014 1A69     		ldr	r2, [r3, #16]
 728 0016 1043     		orrs	r0, r0, r2
 729              	.LVL28:
 730 0018 1861     		str	r0, [r3, #16]
 731 001a 7047     		bx	lr
 732              	.L54:
 733              		.align	2
 734              	.L53:
 735 001c 00000650 		.word	1342570496
 736              		.cfi_endproc
 737              	.LFE124:
 738              		.size	CRYP_DMACmd, .-CRYP_DMACmd
 739              		.section	.text.CRYP_ITConfig,"ax",%progbits
 740              		.align	1
 741              		.p2align 4,,15
ARM GAS  /tmp/ccwp7pIS.s 			page 14


 742              		.global	CRYP_ITConfig
 743              		.syntax unified
 744              		.thumb
 745              		.thumb_func
 746              		.fpu fpv4-sp-d16
 747              		.type	CRYP_ITConfig, %function
 748              	CRYP_ITConfig:
 749              	.LFB125:
 750              		.loc 1 744 0
 751              		.cfi_startproc
 752              		@ args = 0, pretend = 0, frame = 0
 753              		@ frame_needed = 0, uses_anonymous_args = 0
 754              		@ link register save eliminated.
 755              	.LVL29:
 756              		.loc 1 749 0
 757 0000 39B9     		cbnz	r1, .L58
 758              		.loc 1 757 0
 759 0002 064A     		ldr	r2, .L59
 760 0004 5369     		ldr	r3, [r2, #20]
 761 0006 23EA0000 		bic	r0, r3, r0
 762              	.LVL30:
 763 000a 00F0FF00 		and	r0, r0, #255
 764 000e 5061     		str	r0, [r2, #20]
 765              		.loc 1 759 0
 766 0010 7047     		bx	lr
 767              	.LVL31:
 768              	.L58:
 769              		.loc 1 752 0
 770 0012 024B     		ldr	r3, .L59
 771 0014 5A69     		ldr	r2, [r3, #20]
 772 0016 1043     		orrs	r0, r0, r2
 773              	.LVL32:
 774 0018 5861     		str	r0, [r3, #20]
 775 001a 7047     		bx	lr
 776              	.L60:
 777              		.align	2
 778              	.L59:
 779 001c 00000650 		.word	1342570496
 780              		.cfi_endproc
 781              	.LFE125:
 782              		.size	CRYP_ITConfig, .-CRYP_ITConfig
 783              		.section	.text.CRYP_GetITStatus,"ax",%progbits
 784              		.align	1
 785              		.p2align 4,,15
 786              		.global	CRYP_GetITStatus
 787              		.syntax unified
 788              		.thumb
 789              		.thumb_func
 790              		.fpu fpv4-sp-d16
 791              		.type	CRYP_GetITStatus, %function
 792              	CRYP_GetITStatus:
 793              	.LFB126:
 794              		.loc 1 772 0
 795              		.cfi_startproc
 796              		@ args = 0, pretend = 0, frame = 0
 797              		@ frame_needed = 0, uses_anonymous_args = 0
 798              		@ link register save eliminated.
ARM GAS  /tmp/ccwp7pIS.s 			page 15


 799              	.LVL33:
 800              		.loc 1 778 0
 801 0000 034B     		ldr	r3, .L62
 802 0002 DB69     		ldr	r3, [r3, #28]
 803              	.LVL34:
 804 0004 1842     		tst	r0, r3
 805              		.loc 1 790 0
 806 0006 14BF     		ite	ne
 807 0008 0120     		movne	r0, #1
 808              	.LVL35:
 809 000a 0020     		moveq	r0, #0
 810 000c 7047     		bx	lr
 811              	.L63:
 812 000e 00BF     		.align	2
 813              	.L62:
 814 0010 00000650 		.word	1342570496
 815              		.cfi_endproc
 816              	.LFE126:
 817              		.size	CRYP_GetITStatus, .-CRYP_GetITStatus
 818              		.section	.text.CRYP_GetFlagStatus,"ax",%progbits
 819              		.align	1
 820              		.p2align 4,,15
 821              		.global	CRYP_GetFlagStatus
 822              		.syntax unified
 823              		.thumb
 824              		.thumb_func
 825              		.fpu fpv4-sp-d16
 826              		.type	CRYP_GetFlagStatus, %function
 827              	CRYP_GetFlagStatus:
 828              	.LFB127:
 829              		.loc 1 806 0
 830              		.cfi_startproc
 831              		@ args = 0, pretend = 0, frame = 0
 832              		@ frame_needed = 0, uses_anonymous_args = 0
 833              		@ link register save eliminated.
 834              	.LVL36:
 835              		.loc 1 816 0
 836 0000 044B     		ldr	r3, .L67
 837              		.loc 1 814 0
 838 0002 8206     		lsls	r2, r0, #26
 839              		.loc 1 816 0
 840 0004 4CBF     		ite	mi
 841 0006 9B69     		ldrmi	r3, [r3, #24]
 842              	.LVL37:
 843              		.loc 1 820 0
 844 0008 5B68     		ldrpl	r3, [r3, #4]
 845              	.LVL38:
 846              		.loc 1 825 0
 847 000a 1842     		tst	r0, r3
 848              		.loc 1 838 0
 849 000c 14BF     		ite	ne
 850 000e 0120     		movne	r0, #1
 851              	.LVL39:
 852 0010 0020     		moveq	r0, #0
 853 0012 7047     		bx	lr
 854              	.L68:
 855              		.align	2
ARM GAS  /tmp/ccwp7pIS.s 			page 16


 856              	.L67:
 857 0014 00000650 		.word	1342570496
 858              		.cfi_endproc
 859              	.LFE127:
 860              		.size	CRYP_GetFlagStatus, .-CRYP_GetFlagStatus
 861              		.text
 862              	.Letext0:
 863              		.file 2 "/usr/arm-none-eabi/include/machine/_default_types.h"
 864              		.file 3 "/usr/arm-none-eabi/include/sys/_stdint.h"
 865              		.file 4 "ChibiOS_2.6.6/os/hal/platforms/STM32F4xx/stm32f4xx.h"
 866              		.file 5 "ChibiOS_2.6.6/ext/stdperiph_stm32f4/inc/stm32f4xx_cryp.h"
 867              		.file 6 "ChibiOS_2.6.6/os/ports/common/ARMCMx/CMSIS/include/core_cm4.h"
 868              		.file 7 "ChibiOS_2.6.6/ext/stdperiph_stm32f4/inc/stm32f4xx_rcc.h"