ARM GAS  /tmp/ccQD8hKa.s 			page 1


   1              		.cpu cortex-m4
   2              		.eabi_attribute 27, 1
   3              		.eabi_attribute 28, 1
   4              		.eabi_attribute 20, 1
   5              		.eabi_attribute 21, 1
   6              		.eabi_attribute 23, 3
   7              		.eabi_attribute 24, 1
   8              		.eabi_attribute 25, 1
   9              		.eabi_attribute 26, 1
  10              		.eabi_attribute 30, 2
  11              		.eabi_attribute 34, 1
  12              		.eabi_attribute 18, 4
  13              		.file	"stm32f4xx_rng.c"
  14              		.text
  15              	.Ltext0:
  16              		.cfi_sections	.debug_frame
  17              		.section	.text.RNG_DeInit,"ax",%progbits
  18              		.align	1
  19              		.p2align 4,,15
  20              		.global	RNG_DeInit
  21              		.syntax unified
  22              		.thumb
  23              		.thumb_func
  24              		.fpu fpv4-sp-d16
  25              		.type	RNG_DeInit, %function
  26              	RNG_DeInit:
  27              	.LFB111:
  28              		.file 1 "ChibiOS_2.6.6/ext/stdperiph_stm32f4/src/stm32f4xx_rng.c"
  29              		.loc 1 101 0
  30              		.cfi_startproc
  31              		@ args = 0, pretend = 0, frame = 0
  32              		@ frame_needed = 0, uses_anonymous_args = 0
  33 0000 08B5     		push	{r3, lr}
  34              		.cfi_def_cfa_offset 8
  35              		.cfi_offset 3, -8
  36              		.cfi_offset 14, -4
  37              		.loc 1 103 0
  38 0002 0121     		movs	r1, #1
  39 0004 4020     		movs	r0, #64
  40 0006 FFF7FEFF 		bl	RCC_AHB2PeriphResetCmd
  41              	.LVL0:
  42              		.loc 1 106 0
  43 000a 0021     		movs	r1, #0
  44 000c 4020     		movs	r0, #64
  45              		.loc 1 107 0
  46 000e BDE80840 		pop	{r3, lr}
  47              		.cfi_restore 14
  48              		.cfi_restore 3
  49              		.cfi_def_cfa_offset 0
  50              		.loc 1 106 0
  51 0012 FFF7FEBF 		b	RCC_AHB2PeriphResetCmd
  52              	.LVL1:
  53              		.cfi_endproc
  54              	.LFE111:
  55              		.size	RNG_DeInit, .-RNG_DeInit
  56 0016 00BF     		.section	.text.RNG_Cmd,"ax",%progbits
  57              		.align	1
ARM GAS  /tmp/ccQD8hKa.s 			page 2


  58              		.p2align 4,,15
  59              		.global	RNG_Cmd
  60              		.syntax unified
  61              		.thumb
  62              		.thumb_func
  63              		.fpu fpv4-sp-d16
  64              		.type	RNG_Cmd, %function
  65              	RNG_Cmd:
  66              	.LFB112:
  67              		.loc 1 116 0
  68              		.cfi_startproc
  69              		@ args = 0, pretend = 0, frame = 0
  70              		@ frame_needed = 0, uses_anonymous_args = 0
  71              		@ link register save eliminated.
  72              	.LVL2:
  73              		.loc 1 123 0
  74 0000 054A     		ldr	r2, .L8
  75 0002 1368     		ldr	r3, [r2]
  76              		.loc 1 120 0
  77 0004 18B9     		cbnz	r0, .L7
  78              		.loc 1 128 0
  79 0006 23F00403 		bic	r3, r3, #4
  80 000a 1360     		str	r3, [r2]
  81              		.loc 1 130 0
  82 000c 7047     		bx	lr
  83              	.L7:
  84              		.loc 1 123 0
  85 000e 43F00403 		orr	r3, r3, #4
  86 0012 1360     		str	r3, [r2]
  87 0014 7047     		bx	lr
  88              	.L9:
  89 0016 00BF     		.align	2
  90              	.L8:
  91 0018 00080650 		.word	1342572544
  92              		.cfi_endproc
  93              	.LFE112:
  94              		.size	RNG_Cmd, .-RNG_Cmd
  95              		.section	.text.RNG_GetRandomNumber,"ax",%progbits
  96              		.align	1
  97              		.p2align 4,,15
  98              		.global	RNG_GetRandomNumber
  99              		.syntax unified
 100              		.thumb
 101              		.thumb_func
 102              		.fpu fpv4-sp-d16
 103              		.type	RNG_GetRandomNumber, %function
 104              	RNG_GetRandomNumber:
 105              	.LFB113:
 106              		.loc 1 178 0
 107              		.cfi_startproc
 108              		@ args = 0, pretend = 0, frame = 0
 109              		@ frame_needed = 0, uses_anonymous_args = 0
 110              		@ link register save eliminated.
 111              		.loc 1 180 0
 112 0000 014B     		ldr	r3, .L11
 113 0002 9868     		ldr	r0, [r3, #8]
 114              		.loc 1 181 0
ARM GAS  /tmp/ccQD8hKa.s 			page 3


 115 0004 7047     		bx	lr
 116              	.L12:
 117 0006 00BF     		.align	2
 118              	.L11:
 119 0008 00080650 		.word	1342572544
 120              		.cfi_endproc
 121              	.LFE113:
 122              		.size	RNG_GetRandomNumber, .-RNG_GetRandomNumber
 123              		.section	.text.RNG_ITConfig,"ax",%progbits
 124              		.align	1
 125              		.p2align 4,,15
 126              		.global	RNG_ITConfig
 127              		.syntax unified
 128              		.thumb
 129              		.thumb_func
 130              		.fpu fpv4-sp-d16
 131              		.type	RNG_ITConfig, %function
 132              	RNG_ITConfig:
 133              	.LFB114:
 134              		.loc 1 275 0
 135              		.cfi_startproc
 136              		@ args = 0, pretend = 0, frame = 0
 137              		@ frame_needed = 0, uses_anonymous_args = 0
 138              		@ link register save eliminated.
 139              	.LVL3:
 140              		.loc 1 282 0
 141 0000 054A     		ldr	r2, .L17
 142 0002 1368     		ldr	r3, [r2]
 143              		.loc 1 279 0
 144 0004 18B9     		cbnz	r0, .L16
 145              		.loc 1 287 0
 146 0006 23F00803 		bic	r3, r3, #8
 147 000a 1360     		str	r3, [r2]
 148              		.loc 1 289 0
 149 000c 7047     		bx	lr
 150              	.L16:
 151              		.loc 1 282 0
 152 000e 43F00803 		orr	r3, r3, #8
 153 0012 1360     		str	r3, [r2]
 154 0014 7047     		bx	lr
 155              	.L18:
 156 0016 00BF     		.align	2
 157              	.L17:
 158 0018 00080650 		.word	1342572544
 159              		.cfi_endproc
 160              	.LFE114:
 161              		.size	RNG_ITConfig, .-RNG_ITConfig
 162              		.section	.text.RNG_GetFlagStatus,"ax",%progbits
 163              		.align	1
 164              		.p2align 4,,15
 165              		.global	RNG_GetFlagStatus
 166              		.syntax unified
 167              		.thumb
 168              		.thumb_func
 169              		.fpu fpv4-sp-d16
 170              		.type	RNG_GetFlagStatus, %function
 171              	RNG_GetFlagStatus:
ARM GAS  /tmp/ccQD8hKa.s 			page 4


 172              	.LFB115:
 173              		.loc 1 301 0
 174              		.cfi_startproc
 175              		@ args = 0, pretend = 0, frame = 0
 176              		@ frame_needed = 0, uses_anonymous_args = 0
 177              		@ link register save eliminated.
 178              	.LVL4:
 179              		.loc 1 307 0
 180 0000 034B     		ldr	r3, .L20
 181 0002 5B68     		ldr	r3, [r3, #4]
 182              	.LVL5:
 183 0004 1842     		tst	r0, r3
 184              		.loc 1 319 0
 185 0006 14BF     		ite	ne
 186 0008 0120     		movne	r0, #1
 187              	.LVL6:
 188 000a 0020     		moveq	r0, #0
 189 000c 7047     		bx	lr
 190              	.L21:
 191 000e 00BF     		.align	2
 192              	.L20:
 193 0010 00080650 		.word	1342572544
 194              		.cfi_endproc
 195              	.LFE115:
 196              		.size	RNG_GetFlagStatus, .-RNG_GetFlagStatus
 197              		.section	.text.RNG_ClearFlag,"ax",%progbits
 198              		.align	1
 199              		.p2align 4,,15
 200              		.global	RNG_ClearFlag
 201              		.syntax unified
 202              		.thumb
 203              		.thumb_func
 204              		.fpu fpv4-sp-d16
 205              		.type	RNG_ClearFlag, %function
 206              	RNG_ClearFlag:
 207              	.LFB116:
 208              		.loc 1 334 0
 209              		.cfi_startproc
 210              		@ args = 0, pretend = 0, frame = 0
 211              		@ frame_needed = 0, uses_anonymous_args = 0
 212              		@ link register save eliminated.
 213              	.LVL7:
 214              		.loc 1 338 0
 215 0000 024B     		ldr	r3, .L23
 216 0002 6FEA0010 		mvn	r0, r0, lsl #4
 217              	.LVL8:
 218 0006 5860     		str	r0, [r3, #4]
 219              		.loc 1 339 0
 220 0008 7047     		bx	lr
 221              	.L24:
 222 000a 00BF     		.align	2
 223              	.L23:
 224 000c 00080650 		.word	1342572544
 225              		.cfi_endproc
 226              	.LFE116:
 227              		.size	RNG_ClearFlag, .-RNG_ClearFlag
 228              		.section	.text.RNG_GetITStatus,"ax",%progbits
ARM GAS  /tmp/ccQD8hKa.s 			page 5


 229              		.align	1
 230              		.p2align 4,,15
 231              		.global	RNG_GetITStatus
 232              		.syntax unified
 233              		.thumb
 234              		.thumb_func
 235              		.fpu fpv4-sp-d16
 236              		.type	RNG_GetITStatus, %function
 237              	RNG_GetITStatus:
 238              	.LFB120:
 239              		.cfi_startproc
 240              		@ args = 0, pretend = 0, frame = 0
 241              		@ frame_needed = 0, uses_anonymous_args = 0
 242              		@ link register save eliminated.
 243 0000 FFF7FEBF 		b	RNG_GetFlagStatus
 244              		.cfi_endproc
 245              	.LFE120:
 246              		.size	RNG_GetITStatus, .-RNG_GetITStatus
 247              		.section	.text.RNG_ClearITPendingBit,"ax",%progbits
 248              		.align	1
 249              		.p2align 4,,15
 250              		.global	RNG_ClearITPendingBit
 251              		.syntax unified
 252              		.thumb
 253              		.thumb_func
 254              		.fpu fpv4-sp-d16
 255              		.type	RNG_ClearITPendingBit, %function
 256              	RNG_ClearITPendingBit:
 257              	.LFB118:
 258              		.loc 1 380 0
 259              		.cfi_startproc
 260              		@ args = 0, pretend = 0, frame = 0
 261              		@ frame_needed = 0, uses_anonymous_args = 0
 262              		@ link register save eliminated.
 263              	.LVL9:
 264              		.loc 1 385 0
 265 0000 C043     		mvns	r0, r0
 266              	.LVL10:
 267 0002 024B     		ldr	r3, .L27
 268 0004 C0B2     		uxtb	r0, r0
 269 0006 5860     		str	r0, [r3, #4]
 270              		.loc 1 386 0
 271 0008 7047     		bx	lr
 272              	.L28:
 273 000a 00BF     		.align	2
 274              	.L27:
 275 000c 00080650 		.word	1342572544
 276              		.cfi_endproc
 277              	.LFE118:
 278              		.size	RNG_ClearITPendingBit, .-RNG_ClearITPendingBit
 279              		.text
 280              	.Letext0:
 281              		.file 2 "/usr/arm-none-eabi/include/machine/_default_types.h"
 282              		.file 3 "/usr/arm-none-eabi/include/sys/_stdint.h"
 283              		.file 4 "ChibiOS_2.6.6/os/hal/platforms/STM32F4xx/stm32f4xx.h"
 284              		.file 5 "ChibiOS_2.6.6/os/ports/common/ARMCMx/CMSIS/include/core_cm4.h"
 285              		.file 6 "ChibiOS_2.6.6/ext/stdperiph_stm32f4/inc/stm32f4xx_rcc.h"
ARM GAS  /tmp/ccQD8hKa.s 			page 6

