ARM GAS  /tmp/ccRNJlvF.s 			page 1


   1              		.cpu cortex-m4
   2              		.eabi_attribute 27, 1
   3              		.eabi_attribute 28, 1
   4              		.eabi_attribute 20, 1
   5              		.eabi_attribute 21, 1
   6              		.eabi_attribute 23, 3
   7              		.eabi_attribute 24, 1
   8              		.eabi_attribute 25, 1
   9              		.eabi_attribute 26, 1
  10              		.eabi_attribute 30, 2
  11              		.eabi_attribute 34, 1
  12              		.eabi_attribute 18, 4
  13              		.file	"tm.c"
  14              		.text
  15              	.Ltext0:
  16              		.cfi_sections	.debug_frame
  17              		.section	.text.tm_start,"ax",%progbits
  18              		.align	1
  19              		.p2align 4,,15
  20              		.syntax unified
  21              		.thumb
  22              		.thumb_func
  23              		.fpu fpv4-sp-d16
  24              		.type	tm_start, %function
  25              	tm_start:
  26              	.LFB118:
  27              		.file 1 "ChibiOS_2.6.6/os/hal/src/tm.c"
  28              		.loc 1 69 0
  29              		.cfi_startproc
  30              		@ args = 0, pretend = 0, frame = 0
  31              		@ frame_needed = 0, uses_anonymous_args = 0
  32              		@ link register save eliminated.
  33              	.LVL0:
  34              		.loc 1 71 0
  35 0000 014B     		ldr	r3, .L3
  36 0002 5B68     		ldr	r3, [r3, #4]
  37 0004 8360     		str	r3, [r0, #8]
  38              		.loc 1 72 0
  39 0006 7047     		bx	lr
  40              	.L4:
  41              		.align	2
  42              	.L3:
  43 0008 001000E0 		.word	-536866816
  44              		.cfi_endproc
  45              	.LFE118:
  46              		.size	tm_start, .-tm_start
  47              		.section	.text.tm_stop,"ax",%progbits
  48              		.align	1
  49              		.p2align 4,,15
  50              		.syntax unified
  51              		.thumb
  52              		.thumb_func
  53              		.fpu fpv4-sp-d16
  54              		.type	tm_stop, %function
  55              	tm_stop:
  56              	.LFB119:
  57              		.loc 1 81 0
ARM GAS  /tmp/ccRNJlvF.s 			page 2


  58              		.cfi_startproc
  59              		@ args = 0, pretend = 0, frame = 0
  60              		@ frame_needed = 0, uses_anonymous_args = 0
  61              		@ link register save eliminated.
  62              	.LVL1:
  63              		.loc 1 83 0
  64 0000 0B4B     		ldr	r3, .L10
  65              		.loc 1 84 0
  66 0002 0C4A     		ldr	r2, .L10+4
  67              		.loc 1 83 0
  68 0004 5B68     		ldr	r3, [r3, #4]
  69              	.LVL2:
  70              		.loc 1 84 0
  71 0006 1168     		ldr	r1, [r2]
  72              		.loc 1 85 0
  73 0008 C268     		ldr	r2, [r0, #12]
  74              		.loc 1 81 0
  75 000a 10B4     		push	{r4}
  76              		.cfi_def_cfa_offset 4
  77              		.cfi_offset 4, -4
  78              		.loc 1 84 0
  79 000c 8468     		ldr	r4, [r0, #8]
  80 000e 1B1B     		subs	r3, r3, r4
  81              	.LVL3:
  82 0010 5B1A     		subs	r3, r3, r1
  83              		.loc 1 85 0
  84 0012 9342     		cmp	r3, r2
  85              		.loc 1 84 0
  86 0014 8360     		str	r3, [r0, #8]
  87              		.loc 1 85 0
  88 0016 06D8     		bhi	.L9
  89              		.loc 1 87 0
  90 0018 0269     		ldr	r2, [r0, #16]
  91              		.loc 1 89 0
  92 001a 5DF8044B 		ldr	r4, [sp], #4
  93              		.cfi_remember_state
  94              		.cfi_restore 4
  95              		.cfi_def_cfa_offset 0
  96              		.loc 1 87 0
  97 001e 9342     		cmp	r3, r2
  98              		.loc 1 88 0
  99 0020 38BF     		it	cc
 100 0022 0361     		strcc	r3, [r0, #16]
 101              		.loc 1 89 0
 102 0024 7047     		bx	lr
 103              	.L9:
 104              		.cfi_restore_state
 105              		.loc 1 86 0
 106 0026 C360     		str	r3, [r0, #12]
 107              		.loc 1 89 0
 108 0028 5DF8044B 		ldr	r4, [sp], #4
 109              		.cfi_restore 4
 110              		.cfi_def_cfa_offset 0
 111 002c 7047     		bx	lr
 112              	.L11:
 113 002e 00BF     		.align	2
 114              	.L10:
ARM GAS  /tmp/ccRNJlvF.s 			page 3


 115 0030 001000E0 		.word	-536866816
 116 0034 00000000 		.word	.LANCHOR0
 117              		.cfi_endproc
 118              	.LFE119:
 119              		.size	tm_stop, .-tm_stop
 120              		.section	.text.tmInit,"ax",%progbits
 121              		.align	1
 122              		.p2align 4,,15
 123              		.global	tmInit
 124              		.syntax unified
 125              		.thumb
 126              		.thumb_func
 127              		.fpu fpv4-sp-d16
 128              		.type	tmInit, %function
 129              	tmInit:
 130              	.LFB120:
 131              		.loc 1 104 0
 132              		.cfi_startproc
 133              		@ args = 0, pretend = 0, frame = 24
 134              		@ frame_needed = 0, uses_anonymous_args = 0
 135 0000 10B5     		push	{r4, lr}
 136              		.cfi_def_cfa_offset 8
 137              		.cfi_offset 4, -8
 138              		.cfi_offset 14, -4
 139 0002 86B0     		sub	sp, sp, #24
 140              		.cfi_def_cfa_offset 32
 141              	.LBB8:
 142              	.LBB9:
 143              		.loc 1 126 0
 144 0004 0A4B     		ldr	r3, .L14
 145 0006 0193     		str	r3, [sp, #4]
 146              		.loc 1 130 0
 147 0008 4FF0FF30 		mov	r0, #-1
 148              	.LBE9:
 149              	.LBE8:
 150              		.loc 1 110 0
 151 000c 0023     		movs	r3, #0
 152              	.LBB13:
 153              	.LBB10:
 154              		.loc 1 130 0
 155 000e CDE90430 		strd	r3, r0, [sp, #16]
 156              	.LBE10:
 157              	.LBE13:
 158              		.loc 1 110 0
 159 0012 084C     		ldr	r4, .L14+4
 160              	.LBB14:
 161              	.LBB15:
 162              		.loc 1 71 0
 163 0014 0849     		ldr	r1, .L14+8
 164              	.LBE15:
 165              	.LBE14:
 166              		.loc 1 110 0
 167 0016 2360     		str	r3, [r4]
 168              	.LVL4:
 169              	.LBB18:
 170              	.LBB16:
 171              		.loc 1 71 0
ARM GAS  /tmp/ccRNJlvF.s 			page 4


 172 0018 4B68     		ldr	r3, [r1, #4]
 173              	.LBE16:
 174              	.LBE18:
 175              	.LBB19:
 176              	.LBB11:
 177              		.loc 1 127 0
 178 001a 084A     		ldr	r2, .L14+12
 179              	.LBE11:
 180              	.LBE19:
 181              	.LBB20:
 182              	.LBB17:
 183              		.loc 1 71 0
 184 001c 0393     		str	r3, [sp, #12]
 185              	.LVL5:
 186              	.LBE17:
 187              	.LBE20:
 188              		.loc 1 113 0
 189 001e 01A8     		add	r0, sp, #4
 190              	.LBB21:
 191              	.LBB12:
 192              		.loc 1 127 0
 193 0020 0292     		str	r2, [sp, #8]
 194              	.LBE12:
 195              	.LBE21:
 196              		.loc 1 113 0
 197 0022 FFF7FEFF 		bl	tm_stop
 198              	.LVL6:
 199              		.loc 1 114 0
 200 0026 039B     		ldr	r3, [sp, #12]
 201 0028 2360     		str	r3, [r4]
 202              		.loc 1 115 0
 203 002a 06B0     		add	sp, sp, #24
 204              		.cfi_def_cfa_offset 8
 205              		@ sp needed
 206 002c 10BD     		pop	{r4, pc}
 207              	.L15:
 208 002e 00BF     		.align	2
 209              	.L14:
 210 0030 00000000 		.word	tm_start
 211 0034 00000000 		.word	.LANCHOR0
 212 0038 001000E0 		.word	-536866816
 213 003c 00000000 		.word	tm_stop
 214              		.cfi_endproc
 215              	.LFE120:
 216              		.size	tmInit, .-tmInit
 217              		.section	.text.tmObjectInit,"ax",%progbits
 218              		.align	1
 219              		.p2align 4,,15
 220              		.global	tmObjectInit
 221              		.syntax unified
 222              		.thumb
 223              		.thumb_func
 224              		.fpu fpv4-sp-d16
 225              		.type	tmObjectInit, %function
 226              	tmObjectInit:
 227              	.LFB121:
 228              		.loc 1 124 0
ARM GAS  /tmp/ccRNJlvF.s 			page 5


 229              		.cfi_startproc
 230              		@ args = 0, pretend = 0, frame = 0
 231              		@ frame_needed = 0, uses_anonymous_args = 0
 232              		@ link register save eliminated.
 233              	.LVL7:
 234              		.loc 1 126 0
 235 0000 054B     		ldr	r3, .L17
 236              		.loc 1 127 0
 237 0002 0649     		ldr	r1, .L17+4
 238              		.loc 1 126 0
 239 0004 0360     		str	r3, [r0]
 240              		.loc 1 130 0
 241 0006 4FF0FF32 		mov	r2, #-1
 242              		.loc 1 128 0
 243 000a 0023     		movs	r3, #0
 244              		.loc 1 127 0
 245 000c 4160     		str	r1, [r0, #4]
 246              		.loc 1 130 0
 247 000e 0261     		str	r2, [r0, #16]
 248              		.loc 1 129 0
 249 0010 C0E90233 		strd	r3, r3, [r0, #8]
 250              		.loc 1 131 0
 251 0014 7047     		bx	lr
 252              	.L18:
 253 0016 00BF     		.align	2
 254              	.L17:
 255 0018 00000000 		.word	tm_start
 256 001c 00000000 		.word	tm_stop
 257              		.cfi_endproc
 258              	.LFE121:
 259              		.size	tmObjectInit, .-tmObjectInit
 260              		.section	.bss.measurement_offset,"aw",%nobits
 261              		.align	2
 262              		.set	.LANCHOR0,. + 0
 263              		.type	measurement_offset, %object
 264              		.size	measurement_offset, 4
 265              	measurement_offset:
 266 0000 00000000 		.space	4
 267              		.text
 268              	.Letext0:
 269              		.file 2 "/usr/arm-none-eabi/include/machine/_default_types.h"
 270              		.file 3 "/usr/arm-none-eabi/include/sys/_stdint.h"
 271              		.file 4 "ChibiOS_2.6.6/os/ports/GCC/ARMCMx/chtypes.h"
 272              		.file 5 "ChibiOS_2.6.6/os/kernel/include/chlists.h"
 273              		.file 6 "ChibiOS_2.6.6/os/kernel/include/chthreads.h"
 274              		.file 7 "ChibiOS_2.6.6/os/ports/GCC/ARMCMx/chcore_v7m.h"
 275              		.file 8 "ChibiOS_2.6.6/os/ports/common/ARMCMx/nvic.h"
 276              		.file 9 "ChibiOS_2.6.6/os/kernel/include/chvt.h"
 277              		.file 10 "ChibiOS_2.6.6/os/kernel/include/chschd.h"
 278              		.file 11 "ChibiOS_2.6.6/os/kernel/include/chmtx.h"
 279              		.file 12 "ChibiOS_2.6.6/os/kernel/include/chregistry.h"
 280              		.file 13 "ChibiOS_2.6.6/os/kernel/include/chdebug.h"
 281              		.file 14 "ChibiOS_2.6.6/os/kernel/include/ch.h"
 282              		.file 15 "ChibiOS_2.6.6/os/ports/common/ARMCMx/CMSIS/include/core_cm4.h"
 283              		.file 16 "ChibiOS_2.6.6/os/hal/platforms/STM32F4xx/stm32f4xx.h"
 284              		.file 17 "ChibiOS_2.6.6/os/hal/platforms/STM32F4xx/hal_lld.h"
 285              		.file 18 "ChibiOS_2.6.6/os/hal/platforms/STM32F4xx/stm32_dma.h"
ARM GAS  /tmp/ccRNJlvF.s 			page 6


 286              		.file 19 "ChibiOS_2.6.6/os/hal/include/tm.h"
 287              		.file 20 "ChibiOS_2.6.6/os/hal/platforms/STM32/GPIOv2/pal_lld.h"
 288              		.section	.debug_info,"",%progbits
 289              	.Ldebug_info0:
 290 0000 DB0B0000 		.4byte	0xbdb
 291 0004 0400     		.2byte	0x4
 292 0006 00000000 		.4byte	.Ldebug_abbrev0
 293 000a 04       		.byte	0x4
 294 000b 01       		.uleb128 0x1
 295 000c 6C000000 		.4byte	.LASF164
 296 0010 0C       		.byte	0xc
 297 0011 13070000 		.4byte	.LASF165
 298 0015 9E030000 		.4byte	.LASF166
 299 0019 48000000 		.4byte	.Ldebug_ranges0+0x48
 300 001d 00000000 		.4byte	0
 301 0021 00000000 		.4byte	.Ldebug_line0
 302 0025 02       		.uleb128 0x2
 303 0026 04       		.byte	0x4
 304 0027 05       		.byte	0x5
 305 0028 696E7400 		.ascii	"int\000"
 306 002c 03       		.uleb128 0x3
 307 002d 04       		.byte	0x4
 308 002e 07       		.byte	0x7
 309 002f 17030000 		.4byte	.LASF0
 310 0033 03       		.uleb128 0x3
 311 0034 01       		.byte	0x1
 312 0035 06       		.byte	0x6
 313 0036 34020000 		.4byte	.LASF1
 314 003a 04       		.uleb128 0x4
 315 003b 50000000 		.4byte	.LASF4
 316 003f 02       		.byte	0x2
 317 0040 2B       		.byte	0x2b
 318 0041 45000000 		.4byte	0x45
 319 0045 03       		.uleb128 0x3
 320 0046 01       		.byte	0x1
 321 0047 08       		.byte	0x8
 322 0048 33050000 		.4byte	.LASF2
 323 004c 03       		.uleb128 0x3
 324 004d 02       		.byte	0x2
 325 004e 05       		.byte	0x5
 326 004f 5E050000 		.4byte	.LASF3
 327 0053 04       		.uleb128 0x4
 328 0054 2D060000 		.4byte	.LASF5
 329 0058 02       		.byte	0x2
 330 0059 39       		.byte	0x39
 331 005a 5E000000 		.4byte	0x5e
 332 005e 03       		.uleb128 0x3
 333 005f 02       		.byte	0x2
 334 0060 07       		.byte	0x7
 335 0061 72030000 		.4byte	.LASF6
 336 0065 04       		.uleb128 0x4
 337 0066 FC030000 		.4byte	.LASF7
 338 006a 02       		.byte	0x2
 339 006b 4D       		.byte	0x4d
 340 006c 70000000 		.4byte	0x70
 341 0070 03       		.uleb128 0x3
 342 0071 04       		.byte	0x4
ARM GAS  /tmp/ccRNJlvF.s 			page 7


 343 0072 05       		.byte	0x5
 344 0073 88020000 		.4byte	.LASF8
 345 0077 04       		.uleb128 0x4
 346 0078 62060000 		.4byte	.LASF9
 347 007c 02       		.byte	0x2
 348 007d 4F       		.byte	0x4f
 349 007e 82000000 		.4byte	0x82
 350 0082 03       		.uleb128 0x3
 351 0083 04       		.byte	0x4
 352 0084 07       		.byte	0x7
 353 0085 0E060000 		.4byte	.LASF10
 354 0089 03       		.uleb128 0x3
 355 008a 08       		.byte	0x8
 356 008b 05       		.byte	0x5
 357 008c 26020000 		.4byte	.LASF11
 358 0090 04       		.uleb128 0x4
 359 0091 C0040000 		.4byte	.LASF12
 360 0095 02       		.byte	0x2
 361 0096 69       		.byte	0x69
 362 0097 9B000000 		.4byte	0x9b
 363 009b 03       		.uleb128 0x3
 364 009c 08       		.byte	0x8
 365 009d 07       		.byte	0x7
 366 009e A4010000 		.4byte	.LASF13
 367 00a2 04       		.uleb128 0x4
 368 00a3 0B070000 		.4byte	.LASF14
 369 00a7 03       		.byte	0x3
 370 00a8 18       		.byte	0x18
 371 00a9 3A000000 		.4byte	0x3a
 372 00ad 04       		.uleb128 0x4
 373 00ae 2C030000 		.4byte	.LASF15
 374 00b2 03       		.byte	0x3
 375 00b3 24       		.byte	0x24
 376 00b4 53000000 		.4byte	0x53
 377 00b8 04       		.uleb128 0x4
 378 00b9 2B050000 		.4byte	.LASF16
 379 00bd 03       		.byte	0x3
 380 00be 2C       		.byte	0x2c
 381 00bf 65000000 		.4byte	0x65
 382 00c3 05       		.uleb128 0x5
 383 00c4 B8000000 		.4byte	0xb8
 384 00c8 04       		.uleb128 0x4
 385 00c9 E0050000 		.4byte	.LASF17
 386 00cd 03       		.byte	0x3
 387 00ce 30       		.byte	0x30
 388 00cf 77000000 		.4byte	0x77
 389 00d3 05       		.uleb128 0x5
 390 00d4 C8000000 		.4byte	0xc8
 391 00d8 04       		.uleb128 0x4
 392 00d9 40000000 		.4byte	.LASF18
 393 00dd 03       		.byte	0x3
 394 00de 3C       		.byte	0x3c
 395 00df 90000000 		.4byte	0x90
 396 00e3 03       		.uleb128 0x3
 397 00e4 01       		.byte	0x1
 398 00e5 02       		.byte	0x2
 399 00e6 25050000 		.4byte	.LASF19
ARM GAS  /tmp/ccRNJlvF.s 			page 8


 400 00ea 04       		.uleb128 0x4
 401 00eb 96050000 		.4byte	.LASF20
 402 00ef 04       		.byte	0x4
 403 00f0 2C       		.byte	0x2c
 404 00f1 A2000000 		.4byte	0xa2
 405 00f5 04       		.uleb128 0x4
 406 00f6 98020000 		.4byte	.LASF21
 407 00fa 04       		.byte	0x4
 408 00fb 2D       		.byte	0x2d
 409 00fc A2000000 		.4byte	0xa2
 410 0100 04       		.uleb128 0x4
 411 0101 DC040000 		.4byte	.LASF22
 412 0105 04       		.byte	0x4
 413 0106 2E       		.byte	0x2e
 414 0107 A2000000 		.4byte	0xa2
 415 010b 04       		.uleb128 0x4
 416 010c 04060000 		.4byte	.LASF23
 417 0110 04       		.byte	0x4
 418 0111 2F       		.byte	0x2f
 419 0112 A2000000 		.4byte	0xa2
 420 0116 04       		.uleb128 0x4
 421 0117 13050000 		.4byte	.LASF24
 422 011b 04       		.byte	0x4
 423 011c 30       		.byte	0x30
 424 011d C8000000 		.4byte	0xc8
 425 0121 04       		.uleb128 0x4
 426 0122 93030000 		.4byte	.LASF25
 427 0126 04       		.byte	0x4
 428 0127 31       		.byte	0x31
 429 0128 B8000000 		.4byte	0xb8
 430 012c 04       		.uleb128 0x4
 431 012d F0030000 		.4byte	.LASF26
 432 0131 04       		.byte	0x4
 433 0132 33       		.byte	0x33
 434 0133 C8000000 		.4byte	0xc8
 435 0137 04       		.uleb128 0x4
 436 0138 44060000 		.4byte	.LASF27
 437 013c 04       		.byte	0x4
 438 013d 35       		.byte	0x35
 439 013e C8000000 		.4byte	0xc8
 440 0142 05       		.uleb128 0x5
 441 0143 37010000 		.4byte	0x137
 442 0147 04       		.uleb128 0x4
 443 0148 06030000 		.4byte	.LASF28
 444 014c 04       		.byte	0x4
 445 014d 36       		.byte	0x36
 446 014e B8000000 		.4byte	0xb8
 447 0152 04       		.uleb128 0x4
 448 0153 F0020000 		.4byte	.LASF29
 449 0157 05       		.byte	0x5
 450 0158 2A       		.byte	0x2a
 451 0159 5D010000 		.4byte	0x15d
 452 015d 06       		.uleb128 0x6
 453 015e F0020000 		.4byte	.LASF29
 454 0162 4C       		.byte	0x4c
 455 0163 06       		.byte	0x6
 456 0164 5E       		.byte	0x5e
ARM GAS  /tmp/ccRNJlvF.s 			page 9


 457 0165 66020000 		.4byte	0x266
 458 0169 07       		.uleb128 0x7
 459 016a 8F050000 		.4byte	.LASF30
 460 016e 06       		.byte	0x6
 461 016f 5F       		.byte	0x5f
 462 0170 87020000 		.4byte	0x287
 463 0174 00       		.byte	0
 464 0175 07       		.uleb128 0x7
 465 0176 F9040000 		.4byte	.LASF31
 466 017a 06       		.byte	0x6
 467 017b 61       		.byte	0x61
 468 017c 87020000 		.4byte	0x287
 469 0180 04       		.byte	0x4
 470 0181 07       		.uleb128 0x7
 471 0182 12020000 		.4byte	.LASF32
 472 0186 06       		.byte	0x6
 473 0187 63       		.byte	0x63
 474 0188 16010000 		.4byte	0x116
 475 018c 08       		.byte	0x8
 476 018d 07       		.uleb128 0x7
 477 018e 94040000 		.4byte	.LASF33
 478 0192 06       		.byte	0x6
 479 0193 64       		.byte	0x64
 480 0194 1D040000 		.4byte	0x41d
 481 0198 0C       		.byte	0xc
 482 0199 07       		.uleb128 0x7
 483 019a B0020000 		.4byte	.LASF34
 484 019e 06       		.byte	0x6
 485 019f 66       		.byte	0x66
 486 01a0 87020000 		.4byte	0x287
 487 01a4 10       		.byte	0x10
 488 01a5 07       		.uleb128 0x7
 489 01a6 79040000 		.4byte	.LASF35
 490 01aa 06       		.byte	0x6
 491 01ab 67       		.byte	0x67
 492 01ac 87020000 		.4byte	0x287
 493 01b0 14       		.byte	0x14
 494 01b1 07       		.uleb128 0x7
 495 01b2 38070000 		.4byte	.LASF36
 496 01b6 06       		.byte	0x6
 497 01b7 6E       		.byte	0x6e
 498 01b8 6A060000 		.4byte	0x66a
 499 01bc 18       		.byte	0x18
 500 01bd 07       		.uleb128 0x7
 501 01be 0C030000 		.4byte	.LASF37
 502 01c2 06       		.byte	0x6
 503 01c3 74       		.byte	0x74
 504 01c4 7C060000 		.4byte	0x67c
 505 01c8 1C       		.byte	0x1c
 506 01c9 07       		.uleb128 0x7
 507 01ca 68050000 		.4byte	.LASF38
 508 01ce 06       		.byte	0x6
 509 01cf 79       		.byte	0x79
 510 01d0 F5000000 		.4byte	0xf5
 511 01d4 20       		.byte	0x20
 512 01d5 07       		.uleb128 0x7
 513 01d6 AD050000 		.4byte	.LASF39
ARM GAS  /tmp/ccRNJlvF.s 			page 10


 514 01da 06       		.byte	0x6
 515 01db 7D       		.byte	0x7d
 516 01dc EA000000 		.4byte	0xea
 517 01e0 21       		.byte	0x21
 518 01e1 07       		.uleb128 0x7
 519 01e2 E3060000 		.4byte	.LASF40
 520 01e6 06       		.byte	0x6
 521 01e7 82       		.byte	0x82
 522 01e8 00010000 		.4byte	0x100
 523 01ec 22       		.byte	0x22
 524 01ed 07       		.uleb128 0x7
 525 01ee 70050000 		.4byte	.LASF41
 526 01f2 06       		.byte	0x6
 527 01f3 88       		.byte	0x88
 528 01f4 0B010000 		.4byte	0x10b
 529 01f8 23       		.byte	0x23
 530 01f9 07       		.uleb128 0x7
 531 01fa 32000000 		.4byte	.LASF42
 532 01fe 06       		.byte	0x6
 533 01ff 8F       		.byte	0x8f
 534 0200 42010000 		.4byte	0x142
 535 0204 24       		.byte	0x24
 536 0205 08       		.uleb128 0x8
 537 0206 705F7500 		.ascii	"p_u\000"
 538 020a 06       		.byte	0x6
 539 020b B4       		.byte	0xb4
 540 020c 35060000 		.4byte	0x635
 541 0210 28       		.byte	0x28
 542 0211 07       		.uleb128 0x7
 543 0212 3B040000 		.4byte	.LASF43
 544 0216 06       		.byte	0x6
 545 0217 B9       		.byte	0xb9
 546 0218 AD020000 		.4byte	0x2ad
 547 021c 2C       		.byte	0x2c
 548 021d 07       		.uleb128 0x7
 549 021e 35030000 		.4byte	.LASF44
 550 0222 06       		.byte	0x6
 551 0223 BF       		.byte	0xbf
 552 0224 8D020000 		.4byte	0x28d
 553 0228 30       		.byte	0x30
 554 0229 07       		.uleb128 0x7
 555 022a A2060000 		.4byte	.LASF45
 556 022e 06       		.byte	0x6
 557 022f C3       		.byte	0xc3
 558 0230 21010000 		.4byte	0x121
 559 0234 38       		.byte	0x38
 560 0235 07       		.uleb128 0x7
 561 0236 C9050000 		.4byte	.LASF46
 562 023a 06       		.byte	0x6
 563 023b C9       		.byte	0xc9
 564 023c 2C010000 		.4byte	0x12c
 565 0240 3C       		.byte	0x3c
 566 0241 07       		.uleb128 0x7
 567 0242 54050000 		.4byte	.LASF47
 568 0246 06       		.byte	0x6
 569 0247 D0       		.byte	0xd0
 570 0248 82060000 		.4byte	0x682
ARM GAS  /tmp/ccRNJlvF.s 			page 11


 571 024c 40       		.byte	0x40
 572 024d 07       		.uleb128 0x7
 573 024e 4E060000 		.4byte	.LASF48
 574 0252 06       		.byte	0x6
 575 0253 D4       		.byte	0xd4
 576 0254 16010000 		.4byte	0x116
 577 0258 44       		.byte	0x44
 578 0259 07       		.uleb128 0x7
 579 025a 5D020000 		.4byte	.LASF49
 580 025e 06       		.byte	0x6
 581 025f DA       		.byte	0xda
 582 0260 C3020000 		.4byte	0x2c3
 583 0264 48       		.byte	0x48
 584 0265 00       		.byte	0
 585 0266 09       		.uleb128 0x9
 586 0267 08       		.byte	0x8
 587 0268 05       		.byte	0x5
 588 0269 61       		.byte	0x61
 589 026a 87020000 		.4byte	0x287
 590 026e 07       		.uleb128 0x7
 591 026f 8F050000 		.4byte	.LASF30
 592 0273 05       		.byte	0x5
 593 0274 62       		.byte	0x62
 594 0275 87020000 		.4byte	0x287
 595 0279 00       		.byte	0
 596 027a 07       		.uleb128 0x7
 597 027b F9040000 		.4byte	.LASF31
 598 027f 05       		.byte	0x5
 599 0280 64       		.byte	0x64
 600 0281 87020000 		.4byte	0x287
 601 0285 04       		.byte	0x4
 602 0286 00       		.byte	0
 603 0287 0A       		.uleb128 0xa
 604 0288 04       		.byte	0x4
 605 0289 52010000 		.4byte	0x152
 606 028d 04       		.uleb128 0x4
 607 028e 87040000 		.4byte	.LASF50
 608 0292 05       		.byte	0x5
 609 0293 66       		.byte	0x66
 610 0294 66020000 		.4byte	0x266
 611 0298 09       		.uleb128 0x9
 612 0299 04       		.byte	0x4
 613 029a 05       		.byte	0x5
 614 029b 6B       		.byte	0x6b
 615 029c AD020000 		.4byte	0x2ad
 616 02a0 07       		.uleb128 0x7
 617 02a1 8F050000 		.4byte	.LASF30
 618 02a5 05       		.byte	0x5
 619 02a6 6D       		.byte	0x6d
 620 02a7 87020000 		.4byte	0x287
 621 02ab 00       		.byte	0
 622 02ac 00       		.byte	0
 623 02ad 04       		.uleb128 0x4
 624 02ae E4030000 		.4byte	.LASF51
 625 02b2 05       		.byte	0x5
 626 02b3 70       		.byte	0x70
 627 02b4 98020000 		.4byte	0x298
ARM GAS  /tmp/ccRNJlvF.s 			page 12


 628 02b8 04       		.uleb128 0x4
 629 02b9 D8020000 		.4byte	.LASF52
 630 02bd 07       		.byte	0x7
 631 02be E5       		.byte	0xe5
 632 02bf C3020000 		.4byte	0x2c3
 633 02c3 0B       		.uleb128 0xb
 634 02c4 04       		.byte	0x4
 635 02c5 0C       		.uleb128 0xc
 636 02c6 0D040000 		.4byte	.LASF167
 637 02ca 07       		.byte	0x7
 638 02cb EB       		.byte	0xeb
 639 02cc D8000000 		.4byte	0xd8
 640 02d0 08       		.byte	0x8
 641 02d1 0D       		.uleb128 0xd
 642 02d2 A8060000 		.4byte	.LASF53
 643 02d6 64       		.byte	0x64
 644 02d7 07       		.byte	0x7
 645 02d8 0C01     		.2byte	0x10c
 646 02da 1D040000 		.4byte	0x41d
 647 02de 0E       		.uleb128 0xe
 648 02df 73313600 		.ascii	"s16\000"
 649 02e3 07       		.byte	0x7
 650 02e4 0E01     		.2byte	0x10e
 651 02e6 B8020000 		.4byte	0x2b8
 652 02ea 00       		.byte	0
 653 02eb 0E       		.uleb128 0xe
 654 02ec 73313700 		.ascii	"s17\000"
 655 02f0 07       		.byte	0x7
 656 02f1 0F01     		.2byte	0x10f
 657 02f3 B8020000 		.4byte	0x2b8
 658 02f7 04       		.byte	0x4
 659 02f8 0E       		.uleb128 0xe
 660 02f9 73313800 		.ascii	"s18\000"
 661 02fd 07       		.byte	0x7
 662 02fe 1001     		.2byte	0x110
 663 0300 B8020000 		.4byte	0x2b8
 664 0304 08       		.byte	0x8
 665 0305 0E       		.uleb128 0xe
 666 0306 73313900 		.ascii	"s19\000"
 667 030a 07       		.byte	0x7
 668 030b 1101     		.2byte	0x111
 669 030d B8020000 		.4byte	0x2b8
 670 0311 0C       		.byte	0xc
 671 0312 0E       		.uleb128 0xe
 672 0313 73323000 		.ascii	"s20\000"
 673 0317 07       		.byte	0x7
 674 0318 1201     		.2byte	0x112
 675 031a B8020000 		.4byte	0x2b8
 676 031e 10       		.byte	0x10
 677 031f 0E       		.uleb128 0xe
 678 0320 73323100 		.ascii	"s21\000"
 679 0324 07       		.byte	0x7
 680 0325 1301     		.2byte	0x113
 681 0327 B8020000 		.4byte	0x2b8
 682 032b 14       		.byte	0x14
 683 032c 0E       		.uleb128 0xe
 684 032d 73323200 		.ascii	"s22\000"
ARM GAS  /tmp/ccRNJlvF.s 			page 13


 685 0331 07       		.byte	0x7
 686 0332 1401     		.2byte	0x114
 687 0334 B8020000 		.4byte	0x2b8
 688 0338 18       		.byte	0x18
 689 0339 0E       		.uleb128 0xe
 690 033a 73323300 		.ascii	"s23\000"
 691 033e 07       		.byte	0x7
 692 033f 1501     		.2byte	0x115
 693 0341 B8020000 		.4byte	0x2b8
 694 0345 1C       		.byte	0x1c
 695 0346 0E       		.uleb128 0xe
 696 0347 73323400 		.ascii	"s24\000"
 697 034b 07       		.byte	0x7
 698 034c 1601     		.2byte	0x116
 699 034e B8020000 		.4byte	0x2b8
 700 0352 20       		.byte	0x20
 701 0353 0E       		.uleb128 0xe
 702 0354 73323500 		.ascii	"s25\000"
 703 0358 07       		.byte	0x7
 704 0359 1701     		.2byte	0x117
 705 035b B8020000 		.4byte	0x2b8
 706 035f 24       		.byte	0x24
 707 0360 0E       		.uleb128 0xe
 708 0361 73323600 		.ascii	"s26\000"
 709 0365 07       		.byte	0x7
 710 0366 1801     		.2byte	0x118
 711 0368 B8020000 		.4byte	0x2b8
 712 036c 28       		.byte	0x28
 713 036d 0E       		.uleb128 0xe
 714 036e 73323700 		.ascii	"s27\000"
 715 0372 07       		.byte	0x7
 716 0373 1901     		.2byte	0x119
 717 0375 B8020000 		.4byte	0x2b8
 718 0379 2C       		.byte	0x2c
 719 037a 0E       		.uleb128 0xe
 720 037b 73323800 		.ascii	"s28\000"
 721 037f 07       		.byte	0x7
 722 0380 1A01     		.2byte	0x11a
 723 0382 B8020000 		.4byte	0x2b8
 724 0386 30       		.byte	0x30
 725 0387 0E       		.uleb128 0xe
 726 0388 73323900 		.ascii	"s29\000"
 727 038c 07       		.byte	0x7
 728 038d 1B01     		.2byte	0x11b
 729 038f B8020000 		.4byte	0x2b8
 730 0393 34       		.byte	0x34
 731 0394 0E       		.uleb128 0xe
 732 0395 73333000 		.ascii	"s30\000"
 733 0399 07       		.byte	0x7
 734 039a 1C01     		.2byte	0x11c
 735 039c B8020000 		.4byte	0x2b8
 736 03a0 38       		.byte	0x38
 737 03a1 0E       		.uleb128 0xe
 738 03a2 73333100 		.ascii	"s31\000"
 739 03a6 07       		.byte	0x7
 740 03a7 1D01     		.2byte	0x11d
 741 03a9 B8020000 		.4byte	0x2b8
ARM GAS  /tmp/ccRNJlvF.s 			page 14


 742 03ad 3C       		.byte	0x3c
 743 03ae 0E       		.uleb128 0xe
 744 03af 723400   		.ascii	"r4\000"
 745 03b2 07       		.byte	0x7
 746 03b3 1F01     		.2byte	0x11f
 747 03b5 B8020000 		.4byte	0x2b8
 748 03b9 40       		.byte	0x40
 749 03ba 0E       		.uleb128 0xe
 750 03bb 723500   		.ascii	"r5\000"
 751 03be 07       		.byte	0x7
 752 03bf 2001     		.2byte	0x120
 753 03c1 B8020000 		.4byte	0x2b8
 754 03c5 44       		.byte	0x44
 755 03c6 0E       		.uleb128 0xe
 756 03c7 723600   		.ascii	"r6\000"
 757 03ca 07       		.byte	0x7
 758 03cb 2101     		.2byte	0x121
 759 03cd B8020000 		.4byte	0x2b8
 760 03d1 48       		.byte	0x48
 761 03d2 0E       		.uleb128 0xe
 762 03d3 723700   		.ascii	"r7\000"
 763 03d6 07       		.byte	0x7
 764 03d7 2201     		.2byte	0x122
 765 03d9 B8020000 		.4byte	0x2b8
 766 03dd 4C       		.byte	0x4c
 767 03de 0E       		.uleb128 0xe
 768 03df 723800   		.ascii	"r8\000"
 769 03e2 07       		.byte	0x7
 770 03e3 2301     		.2byte	0x123
 771 03e5 B8020000 		.4byte	0x2b8
 772 03e9 50       		.byte	0x50
 773 03ea 0E       		.uleb128 0xe
 774 03eb 723900   		.ascii	"r9\000"
 775 03ee 07       		.byte	0x7
 776 03ef 2401     		.2byte	0x124
 777 03f1 B8020000 		.4byte	0x2b8
 778 03f5 54       		.byte	0x54
 779 03f6 0E       		.uleb128 0xe
 780 03f7 72313000 		.ascii	"r10\000"
 781 03fb 07       		.byte	0x7
 782 03fc 2501     		.2byte	0x125
 783 03fe B8020000 		.4byte	0x2b8
 784 0402 58       		.byte	0x58
 785 0403 0E       		.uleb128 0xe
 786 0404 72313100 		.ascii	"r11\000"
 787 0408 07       		.byte	0x7
 788 0409 2601     		.2byte	0x126
 789 040b B8020000 		.4byte	0x2b8
 790 040f 5C       		.byte	0x5c
 791 0410 0E       		.uleb128 0xe
 792 0411 6C7200   		.ascii	"lr\000"
 793 0414 07       		.byte	0x7
 794 0415 2701     		.2byte	0x127
 795 0417 B8020000 		.4byte	0x2b8
 796 041b 60       		.byte	0x60
 797 041c 00       		.byte	0
 798 041d 0D       		.uleb128 0xd
ARM GAS  /tmp/ccRNJlvF.s 			page 15


 799 041e 92060000 		.4byte	.LASF54
 800 0422 04       		.byte	0x4
 801 0423 07       		.byte	0x7
 802 0424 3101     		.2byte	0x131
 803 0426 38040000 		.4byte	0x438
 804 042a 0E       		.uleb128 0xe
 805 042b 72313300 		.ascii	"r13\000"
 806 042f 07       		.byte	0x7
 807 0430 3201     		.2byte	0x132
 808 0432 38040000 		.4byte	0x438
 809 0436 00       		.byte	0
 810 0437 00       		.byte	0
 811 0438 0A       		.uleb128 0xa
 812 0439 04       		.byte	0x4
 813 043a D1020000 		.4byte	0x2d1
 814 043e 04       		.uleb128 0x4
 815 043f 25060000 		.4byte	.LASF55
 816 0443 08       		.byte	0x8
 817 0444 3A       		.byte	0x3a
 818 0445 D3000000 		.4byte	0xd3
 819 0449 0F       		.uleb128 0xf
 820 044a 20       		.byte	0x20
 821 044b 08       		.byte	0x8
 822 044c 0601     		.2byte	0x106
 823 044e BB040000 		.4byte	0x4bb
 824 0452 10       		.uleb128 0x10
 825 0453 20050000 		.4byte	.LASF56
 826 0457 08       		.byte	0x8
 827 0458 0701     		.2byte	0x107
 828 045a 3E040000 		.4byte	0x43e
 829 045e 00       		.byte	0
 830 045f 10       		.uleb128 0x10
 831 0460 2C040000 		.4byte	.LASF57
 832 0464 08       		.byte	0x8
 833 0465 0801     		.2byte	0x108
 834 0467 3E040000 		.4byte	0x43e
 835 046b 04       		.byte	0x4
 836 046c 10       		.uleb128 0x10
 837 046d 65020000 		.4byte	.LASF58
 838 0471 08       		.byte	0x8
 839 0472 0901     		.2byte	0x109
 840 0474 3E040000 		.4byte	0x43e
 841 0478 08       		.byte	0x8
 842 0479 10       		.uleb128 0x10
 843 047a 8C030000 		.4byte	.LASF59
 844 047e 08       		.byte	0x8
 845 047f 0A01     		.2byte	0x10a
 846 0481 3E040000 		.4byte	0x43e
 847 0485 0C       		.byte	0xc
 848 0486 10       		.uleb128 0x10
 849 0487 A7020000 		.4byte	.LASF60
 850 048b 08       		.byte	0x8
 851 048c 0B01     		.2byte	0x10b
 852 048e 3E040000 		.4byte	0x43e
 853 0492 10       		.byte	0x10
 854 0493 10       		.uleb128 0x10
 855 0494 D9050000 		.4byte	.LASF61
ARM GAS  /tmp/ccRNJlvF.s 			page 16


 856 0498 08       		.byte	0x8
 857 0499 0C01     		.2byte	0x10c
 858 049b 3E040000 		.4byte	0x43e
 859 049f 14       		.byte	0x14
 860 04a0 10       		.uleb128 0x10
 861 04a1 9A060000 		.4byte	.LASF62
 862 04a5 08       		.byte	0x8
 863 04a6 0D01     		.2byte	0x10d
 864 04a8 3E040000 		.4byte	0x43e
 865 04ac 18       		.byte	0x18
 866 04ad 10       		.uleb128 0x10
 867 04ae 1B050000 		.4byte	.LASF63
 868 04b2 08       		.byte	0x8
 869 04b3 0E01     		.2byte	0x10e
 870 04b5 3E040000 		.4byte	0x43e
 871 04b9 1C       		.byte	0x1c
 872 04ba 00       		.byte	0
 873 04bb 11       		.uleb128 0x11
 874 04bc 03070000 		.4byte	.LASF64
 875 04c0 08       		.byte	0x8
 876 04c1 0F01     		.2byte	0x10f
 877 04c3 49040000 		.4byte	0x449
 878 04c7 04       		.uleb128 0x4
 879 04c8 59060000 		.4byte	.LASF65
 880 04cc 09       		.byte	0x9
 881 04cd 58       		.byte	0x58
 882 04ce D2040000 		.4byte	0x4d2
 883 04d2 0A       		.uleb128 0xa
 884 04d3 04       		.byte	0x4
 885 04d4 D8040000 		.4byte	0x4d8
 886 04d8 12       		.uleb128 0x12
 887 04d9 E3040000 		.4byte	0x4e3
 888 04dd 13       		.uleb128 0x13
 889 04de C3020000 		.4byte	0x2c3
 890 04e2 00       		.byte	0
 891 04e3 04       		.uleb128 0x4
 892 04e4 20000000 		.4byte	.LASF66
 893 04e8 09       		.byte	0x9
 894 04e9 5D       		.byte	0x5d
 895 04ea EE040000 		.4byte	0x4ee
 896 04ee 06       		.uleb128 0x6
 897 04ef 20000000 		.4byte	.LASF66
 898 04f3 14       		.byte	0x14
 899 04f4 09       		.byte	0x9
 900 04f5 64       		.byte	0x64
 901 04f6 37050000 		.4byte	0x537
 902 04fa 07       		.uleb128 0x7
 903 04fb 24030000 		.4byte	.LASF67
 904 04ff 09       		.byte	0x9
 905 0500 65       		.byte	0x65
 906 0501 37050000 		.4byte	0x537
 907 0505 00       		.byte	0
 908 0506 07       		.uleb128 0x7
 909 0507 E1020000 		.4byte	.LASF68
 910 050b 09       		.byte	0x9
 911 050c 67       		.byte	0x67
 912 050d 37050000 		.4byte	0x537
ARM GAS  /tmp/ccRNJlvF.s 			page 17


 913 0511 04       		.byte	0x4
 914 0512 07       		.uleb128 0x7
 915 0513 33040000 		.4byte	.LASF69
 916 0517 09       		.byte	0x9
 917 0518 69       		.byte	0x69
 918 0519 37010000 		.4byte	0x137
 919 051d 08       		.byte	0x8
 920 051e 07       		.uleb128 0x7
 921 051f A6070000 		.4byte	.LASF70
 922 0523 09       		.byte	0x9
 923 0524 6A       		.byte	0x6a
 924 0525 C7040000 		.4byte	0x4c7
 925 0529 0C       		.byte	0xc
 926 052a 07       		.uleb128 0x7
 927 052b BE060000 		.4byte	.LASF71
 928 052f 09       		.byte	0x9
 929 0530 6C       		.byte	0x6c
 930 0531 C3020000 		.4byte	0x2c3
 931 0535 10       		.byte	0x10
 932 0536 00       		.byte	0
 933 0537 0A       		.uleb128 0xa
 934 0538 04       		.byte	0x4
 935 0539 E3040000 		.4byte	0x4e3
 936 053d 09       		.uleb128 0x9
 937 053e 10       		.byte	0x10
 938 053f 09       		.byte	0x9
 939 0540 76       		.byte	0x76
 940 0541 76050000 		.4byte	0x576
 941 0545 07       		.uleb128 0x7
 942 0546 24030000 		.4byte	.LASF67
 943 054a 09       		.byte	0x9
 944 054b 77       		.byte	0x77
 945 054c 37050000 		.4byte	0x537
 946 0550 00       		.byte	0
 947 0551 07       		.uleb128 0x7
 948 0552 E1020000 		.4byte	.LASF68
 949 0556 09       		.byte	0x9
 950 0557 79       		.byte	0x79
 951 0558 37050000 		.4byte	0x537
 952 055c 04       		.byte	0x4
 953 055d 07       		.uleb128 0x7
 954 055e 33040000 		.4byte	.LASF69
 955 0562 09       		.byte	0x9
 956 0563 7B       		.byte	0x7b
 957 0564 37010000 		.4byte	0x137
 958 0568 08       		.byte	0x8
 959 0569 07       		.uleb128 0x7
 960 056a 46070000 		.4byte	.LASF72
 961 056e 09       		.byte	0x9
 962 056f 7C       		.byte	0x7c
 963 0570 42010000 		.4byte	0x142
 964 0574 0C       		.byte	0xc
 965 0575 00       		.byte	0
 966 0576 04       		.uleb128 0x4
 967 0577 62070000 		.4byte	.LASF73
 968 057b 09       		.byte	0x9
 969 057c 7D       		.byte	0x7d
ARM GAS  /tmp/ccRNJlvF.s 			page 18


 970 057d 3D050000 		.4byte	0x53d
 971 0581 14       		.uleb128 0x14
 972 0582 E9020000 		.4byte	.LASF81
 973 0586 09       		.byte	0x9
 974 0587 F5       		.byte	0xf5
 975 0588 76050000 		.4byte	0x576
 976 058c 09       		.uleb128 0x9
 977 058d 1C       		.byte	0x1c
 978 058e 0A       		.byte	0xa
 979 058f 5E       		.byte	0x5e
 980 0590 DD050000 		.4byte	0x5dd
 981 0594 07       		.uleb128 0x7
 982 0595 F5050000 		.4byte	.LASF74
 983 0599 0A       		.byte	0xa
 984 059a 5F       		.byte	0x5f
 985 059b 8D020000 		.4byte	0x28d
 986 059f 00       		.byte	0
 987 05a0 07       		.uleb128 0x7
 988 05a1 7A050000 		.4byte	.LASF75
 989 05a5 0A       		.byte	0xa
 990 05a6 60       		.byte	0x60
 991 05a7 16010000 		.4byte	0x116
 992 05ab 08       		.byte	0x8
 993 05ac 07       		.uleb128 0x7
 994 05ad 81040000 		.4byte	.LASF76
 995 05b1 0A       		.byte	0xa
 996 05b2 62       		.byte	0x62
 997 05b3 1D040000 		.4byte	0x41d
 998 05b7 0C       		.byte	0xc
 999 05b8 07       		.uleb128 0x7
 1000 05b9 D0020000 		.4byte	.LASF77
 1001 05bd 0A       		.byte	0xa
 1002 05be 65       		.byte	0x65
 1003 05bf 87020000 		.4byte	0x287
 1004 05c3 10       		.byte	0x10
 1005 05c4 07       		.uleb128 0x7
 1006 05c5 B8040000 		.4byte	.LASF78
 1007 05c9 0A       		.byte	0xa
 1008 05ca 66       		.byte	0x66
 1009 05cb 87020000 		.4byte	0x287
 1010 05cf 14       		.byte	0x14
 1011 05d0 07       		.uleb128 0x7
 1012 05d1 AE040000 		.4byte	.LASF79
 1013 05d5 0A       		.byte	0xa
 1014 05d6 69       		.byte	0x69
 1015 05d7 87020000 		.4byte	0x287
 1016 05db 18       		.byte	0x18
 1017 05dc 00       		.byte	0
 1018 05dd 04       		.uleb128 0x4
 1019 05de EA060000 		.4byte	.LASF80
 1020 05e2 0A       		.byte	0xa
 1021 05e3 6B       		.byte	0x6b
 1022 05e4 8C050000 		.4byte	0x58c
 1023 05e8 14       		.uleb128 0x14
 1024 05e9 FD060000 		.4byte	.LASF82
 1025 05ed 0A       		.byte	0xa
 1026 05ee 6F       		.byte	0x6f
ARM GAS  /tmp/ccRNJlvF.s 			page 19


 1027 05ef DD050000 		.4byte	0x5dd
 1028 05f3 06       		.uleb128 0x6
 1029 05f4 45040000 		.4byte	.LASF83
 1030 05f8 10       		.byte	0x10
 1031 05f9 0B       		.byte	0xb
 1032 05fa 2C       		.byte	0x2c
 1033 05fb 24060000 		.4byte	0x624
 1034 05ff 07       		.uleb128 0x7
 1035 0600 6C020000 		.4byte	.LASF84
 1036 0604 0B       		.byte	0xb
 1037 0605 2D       		.byte	0x2d
 1038 0606 8D020000 		.4byte	0x28d
 1039 060a 00       		.byte	0
 1040 060b 07       		.uleb128 0x7
 1041 060c 78070000 		.4byte	.LASF85
 1042 0610 0B       		.byte	0xb
 1043 0611 2F       		.byte	0x2f
 1044 0612 87020000 		.4byte	0x287
 1045 0616 08       		.byte	0x8
 1046 0617 07       		.uleb128 0x7
 1047 0618 3D060000 		.4byte	.LASF86
 1048 061c 0B       		.byte	0xb
 1049 061d 31       		.byte	0x31
 1050 061e 24060000 		.4byte	0x624
 1051 0622 0C       		.byte	0xc
 1052 0623 00       		.byte	0
 1053 0624 0A       		.uleb128 0xa
 1054 0625 04       		.byte	0x4
 1055 0626 F3050000 		.4byte	0x5f3
 1056 062a 04       		.uleb128 0x4
 1057 062b 45040000 		.4byte	.LASF83
 1058 062f 0B       		.byte	0xb
 1059 0630 33       		.byte	0x33
 1060 0631 F3050000 		.4byte	0x5f3
 1061 0635 15       		.uleb128 0x15
 1062 0636 04       		.byte	0x4
 1063 0637 06       		.byte	0x6
 1064 0638 96       		.byte	0x96
 1065 0639 6A060000 		.4byte	0x66a
 1066 063d 16       		.uleb128 0x16
 1067 063e 39000000 		.4byte	.LASF87
 1068 0642 06       		.byte	0x6
 1069 0643 9D       		.byte	0x9d
 1070 0644 21010000 		.4byte	0x121
 1071 0648 16       		.uleb128 0x16
 1072 0649 E1010000 		.4byte	.LASF88
 1073 064d 06       		.byte	0x6
 1074 064e A4       		.byte	0xa4
 1075 064f 21010000 		.4byte	0x121
 1076 0653 16       		.uleb128 0x16
 1077 0654 31070000 		.4byte	.LASF89
 1078 0658 06       		.byte	0x6
 1079 0659 AB       		.byte	0xab
 1080 065a C3020000 		.4byte	0x2c3
 1081 065e 16       		.uleb128 0x16
 1082 065f 88050000 		.4byte	.LASF90
 1083 0663 06       		.byte	0x6
ARM GAS  /tmp/ccRNJlvF.s 			page 20


 1084 0664 B2       		.byte	0xb2
 1085 0665 2C010000 		.4byte	0x12c
 1086 0669 00       		.byte	0
 1087 066a 0A       		.uleb128 0xa
 1088 066b 04       		.byte	0x4
 1089 066c 77060000 		.4byte	0x677
 1090 0670 03       		.uleb128 0x3
 1091 0671 01       		.byte	0x1
 1092 0672 08       		.byte	0x8
 1093 0673 20060000 		.4byte	.LASF91
 1094 0677 17       		.uleb128 0x17
 1095 0678 70060000 		.4byte	0x670
 1096 067c 0A       		.uleb128 0xa
 1097 067d 04       		.byte	0x4
 1098 067e C5020000 		.4byte	0x2c5
 1099 0682 0A       		.uleb128 0xa
 1100 0683 04       		.byte	0x4
 1101 0684 2A060000 		.4byte	0x62a
 1102 0688 09       		.uleb128 0x9
 1103 0689 16       		.byte	0x16
 1104 068a 0C       		.byte	0xc
 1105 068b 2C       		.byte	0x2c
 1106 068c 69070000 		.4byte	0x769
 1107 0690 07       		.uleb128 0x7
 1108 0691 7A020000 		.4byte	.LASF92
 1109 0695 0C       		.byte	0xc
 1110 0696 2D       		.byte	0x2d
 1111 0697 69070000 		.4byte	0x769
 1112 069b 00       		.byte	0
 1113 069c 07       		.uleb128 0x7
 1114 069d 18040000 		.4byte	.LASF93
 1115 06a1 0C       		.byte	0xc
 1116 06a2 2E       		.byte	0x2e
 1117 06a3 A2000000 		.4byte	0xa2
 1118 06a7 04       		.byte	0x4
 1119 06a8 07       		.uleb128 0x7
 1120 06a9 9A040000 		.4byte	.LASF94
 1121 06ad 0C       		.byte	0xc
 1122 06ae 2F       		.byte	0x2f
 1123 06af A2000000 		.4byte	0xa2
 1124 06b3 05       		.byte	0x5
 1125 06b4 07       		.uleb128 0x7
 1126 06b5 51070000 		.4byte	.LASF95
 1127 06b9 0C       		.byte	0xc
 1128 06ba 30       		.byte	0x30
 1129 06bb AD000000 		.4byte	0xad
 1130 06bf 06       		.byte	0x6
 1131 06c0 07       		.uleb128 0x7
 1132 06c1 EE040000 		.4byte	.LASF96
 1133 06c5 0C       		.byte	0xc
 1134 06c6 31       		.byte	0x31
 1135 06c7 A2000000 		.4byte	0xa2
 1136 06cb 08       		.byte	0x8
 1137 06cc 07       		.uleb128 0x7
 1138 06cd 4B040000 		.4byte	.LASF97
 1139 06d1 0C       		.byte	0xc
 1140 06d2 32       		.byte	0x32
ARM GAS  /tmp/ccRNJlvF.s 			page 21


 1141 06d3 A2000000 		.4byte	0xa2
 1142 06d7 09       		.byte	0x9
 1143 06d8 07       		.uleb128 0x7
 1144 06d9 CD010000 		.4byte	.LASF98
 1145 06dd 0C       		.byte	0xc
 1146 06de 33       		.byte	0x33
 1147 06df A2000000 		.4byte	0xa2
 1148 06e3 0A       		.byte	0xa
 1149 06e4 07       		.uleb128 0x7
 1150 06e5 E9050000 		.4byte	.LASF99
 1151 06e9 0C       		.byte	0xc
 1152 06ea 34       		.byte	0x34
 1153 06eb A2000000 		.4byte	0xa2
 1154 06ef 0B       		.byte	0xb
 1155 06f0 07       		.uleb128 0x7
 1156 06f1 D8060000 		.4byte	.LASF100
 1157 06f5 0C       		.byte	0xc
 1158 06f6 35       		.byte	0x35
 1159 06f7 A2000000 		.4byte	0xa2
 1160 06fb 0C       		.byte	0xc
 1161 06fc 07       		.uleb128 0x7
 1162 06fd BC050000 		.4byte	.LASF101
 1163 0701 0C       		.byte	0xc
 1164 0702 36       		.byte	0x36
 1165 0703 A2000000 		.4byte	0xa2
 1166 0707 0D       		.byte	0xd
 1167 0708 07       		.uleb128 0x7
 1168 0709 13000000 		.4byte	.LASF102
 1169 070d 0C       		.byte	0xc
 1170 070e 37       		.byte	0x37
 1171 070f A2000000 		.4byte	0xa2
 1172 0713 0E       		.byte	0xe
 1173 0714 07       		.uleb128 0x7
 1174 0715 6D040000 		.4byte	.LASF103
 1175 0719 0C       		.byte	0xc
 1176 071a 38       		.byte	0x38
 1177 071b A2000000 		.4byte	0xa2
 1178 071f 0F       		.byte	0xf
 1179 0720 07       		.uleb128 0x7
 1180 0721 40020000 		.4byte	.LASF104
 1181 0725 0C       		.byte	0xc
 1182 0726 39       		.byte	0x39
 1183 0727 A2000000 		.4byte	0xa2
 1184 072b 10       		.byte	0x10
 1185 072c 07       		.uleb128 0x7
 1186 072d 19020000 		.4byte	.LASF105
 1187 0731 0C       		.byte	0xc
 1188 0732 3B       		.byte	0x3b
 1189 0733 A2000000 		.4byte	0xa2
 1190 0737 11       		.byte	0x11
 1191 0738 07       		.uleb128 0x7
 1192 0739 50020000 		.4byte	.LASF106
 1193 073d 0C       		.byte	0xc
 1194 073e 3C       		.byte	0x3c
 1195 073f A2000000 		.4byte	0xa2
 1196 0743 12       		.byte	0x12
 1197 0744 07       		.uleb128 0x7
ARM GAS  /tmp/ccRNJlvF.s 			page 22


 1198 0745 20040000 		.4byte	.LASF107
 1199 0749 0C       		.byte	0xc
 1200 074a 3D       		.byte	0x3d
 1201 074b A2000000 		.4byte	0xa2
 1202 074f 13       		.byte	0x13
 1203 0750 07       		.uleb128 0x7
 1204 0751 9E050000 		.4byte	.LASF108
 1205 0755 0C       		.byte	0xc
 1206 0756 3E       		.byte	0x3e
 1207 0757 A2000000 		.4byte	0xa2
 1208 075b 14       		.byte	0x14
 1209 075c 07       		.uleb128 0x7
 1210 075d BF030000 		.4byte	.LASF109
 1211 0761 0C       		.byte	0xc
 1212 0762 40       		.byte	0x40
 1213 0763 A2000000 		.4byte	0xa2
 1214 0767 15       		.byte	0x15
 1215 0768 00       		.byte	0
 1216 0769 18       		.uleb128 0x18
 1217 076a 70060000 		.4byte	0x670
 1218 076e 79070000 		.4byte	0x779
 1219 0772 19       		.uleb128 0x19
 1220 0773 2C000000 		.4byte	0x2c
 1221 0777 03       		.byte	0x3
 1222 0778 00       		.byte	0
 1223 0779 04       		.uleb128 0x4
 1224 077a 89070000 		.4byte	.LASF110
 1225 077e 0C       		.byte	0xc
 1226 077f 41       		.byte	0x41
 1227 0780 88060000 		.4byte	0x688
 1228 0784 17       		.uleb128 0x17
 1229 0785 79070000 		.4byte	0x779
 1230 0789 14       		.uleb128 0x14
 1231 078a 40030000 		.4byte	.LASF111
 1232 078e 0C       		.byte	0xc
 1233 078f 7E       		.byte	0x7e
 1234 0790 84070000 		.4byte	0x784
 1235 0794 09       		.uleb128 0x9
 1236 0795 10       		.byte	0x10
 1237 0796 0D       		.byte	0xd
 1238 0797 71       		.byte	0x71
 1239 0798 CD070000 		.4byte	0x7cd
 1240 079c 07       		.uleb128 0x7
 1241 079d FE020000 		.4byte	.LASF112
 1242 07a1 0D       		.byte	0xd
 1243 07a2 72       		.byte	0x72
 1244 07a3 37010000 		.4byte	0x137
 1245 07a7 00       		.byte	0
 1246 07a8 07       		.uleb128 0x7
 1247 07a9 A1020000 		.4byte	.LASF113
 1248 07ad 0D       		.byte	0xd
 1249 07ae 73       		.byte	0x73
 1250 07af 87020000 		.4byte	0x287
 1251 07b3 04       		.byte	0x4
 1252 07b4 07       		.uleb128 0x7
 1253 07b5 58030000 		.4byte	.LASF114
 1254 07b9 0D       		.byte	0xd
ARM GAS  /tmp/ccRNJlvF.s 			page 23


 1255 07ba 74       		.byte	0x74
 1256 07bb C3020000 		.4byte	0x2c3
 1257 07bf 08       		.byte	0x8
 1258 07c0 07       		.uleb128 0x7
 1259 07c1 F4060000 		.4byte	.LASF115
 1260 07c5 0D       		.byte	0xd
 1261 07c6 75       		.byte	0x75
 1262 07c7 A2000000 		.4byte	0xa2
 1263 07cb 0C       		.byte	0xc
 1264 07cc 00       		.byte	0
 1265 07cd 04       		.uleb128 0x4
 1266 07ce 5E040000 		.4byte	.LASF116
 1267 07d2 0D       		.byte	0xd
 1268 07d3 76       		.byte	0x76
 1269 07d4 94070000 		.4byte	0x794
 1270 07d8 1A       		.uleb128 0x1a
 1271 07d9 0804     		.2byte	0x408
 1272 07db 0D       		.byte	0xd
 1273 07dc 7B       		.byte	0x7b
 1274 07dd 06080000 		.4byte	0x806
 1275 07e1 07       		.uleb128 0x7
 1276 07e2 C8020000 		.4byte	.LASF117
 1277 07e6 0D       		.byte	0xd
 1278 07e7 7C       		.byte	0x7c
 1279 07e8 2C000000 		.4byte	0x2c
 1280 07ec 00       		.byte	0
 1281 07ed 07       		.uleb128 0x7
 1282 07ee 57040000 		.4byte	.LASF118
 1283 07f2 0D       		.byte	0xd
 1284 07f3 7D       		.byte	0x7d
 1285 07f4 06080000 		.4byte	0x806
 1286 07f8 04       		.byte	0x4
 1287 07f9 07       		.uleb128 0x7
 1288 07fa E4040000 		.4byte	.LASF119
 1289 07fe 0D       		.byte	0xd
 1290 07ff 7F       		.byte	0x7f
 1291 0800 0C080000 		.4byte	0x80c
 1292 0804 08       		.byte	0x8
 1293 0805 00       		.byte	0
 1294 0806 0A       		.uleb128 0xa
 1295 0807 04       		.byte	0x4
 1296 0808 CD070000 		.4byte	0x7cd
 1297 080c 18       		.uleb128 0x18
 1298 080d CD070000 		.4byte	0x7cd
 1299 0811 1C080000 		.4byte	0x81c
 1300 0815 19       		.uleb128 0x19
 1301 0816 2C000000 		.4byte	0x2c
 1302 081a 3F       		.byte	0x3f
 1303 081b 00       		.byte	0
 1304 081c 04       		.uleb128 0x4
 1305 081d BB010000 		.4byte	.LASF120
 1306 0821 0D       		.byte	0xd
 1307 0822 80       		.byte	0x80
 1308 0823 D8070000 		.4byte	0x7d8
 1309 0827 14       		.uleb128 0x14
 1310 0828 CB040000 		.4byte	.LASF121
 1311 082c 0D       		.byte	0xd
ARM GAS  /tmp/ccRNJlvF.s 			page 24


 1312 082d 83       		.byte	0x83
 1313 082e 1C080000 		.4byte	0x81c
 1314 0832 14       		.uleb128 0x14
 1315 0833 CB030000 		.4byte	.LASF122
 1316 0837 0D       		.byte	0xd
 1317 0838 E2       		.byte	0xe2
 1318 0839 47010000 		.4byte	0x147
 1319 083d 14       		.uleb128 0x14
 1320 083e 72060000 		.4byte	.LASF123
 1321 0842 0D       		.byte	0xd
 1322 0843 E3       		.byte	0xe3
 1323 0844 47010000 		.4byte	0x147
 1324 0848 14       		.uleb128 0x14
 1325 0849 41050000 		.4byte	.LASF124
 1326 084d 0D       		.byte	0xd
 1327 084e F5       		.byte	0xf5
 1328 084f 6A060000 		.4byte	0x66a
 1329 0853 1B       		.uleb128 0x1b
 1330 0854 C5020000 		.4byte	0x2c5
 1331 0858 08       		.byte	0x8
 1332 0859 64080000 		.4byte	0x864
 1333 085d 19       		.uleb128 0x19
 1334 085e 2C000000 		.4byte	0x2c
 1335 0862 3A       		.byte	0x3a
 1336 0863 00       		.byte	0
 1337 0864 14       		.uleb128 0x14
 1338 0865 B8020000 		.4byte	.LASF125
 1339 0869 0E       		.byte	0xe
 1340 086a 89       		.byte	0x89
 1341 086b 53080000 		.4byte	0x853
 1342 086f 1C       		.uleb128 0x1c
 1343 0870 05020000 		.4byte	.LASF126
 1344 0874 0F       		.byte	0xf
 1345 0875 9806     		.2byte	0x698
 1346 0877 C3000000 		.4byte	0xc3
 1347 087b 0F       		.uleb128 0xf
 1348 087c 18       		.byte	0x18
 1349 087d 10       		.byte	0x10
 1350 087e B102     		.2byte	0x2b1
 1351 0880 D2080000 		.4byte	0x8d2
 1352 0884 0E       		.uleb128 0xe
 1353 0885 435200   		.ascii	"CR\000"
 1354 0888 10       		.byte	0x10
 1355 0889 B302     		.2byte	0x2b3
 1356 088b D3000000 		.4byte	0xd3
 1357 088f 00       		.byte	0
 1358 0890 10       		.uleb128 0x10
 1359 0891 6D060000 		.4byte	.LASF127
 1360 0895 10       		.byte	0x10
 1361 0896 B402     		.2byte	0x2b4
 1362 0898 D3000000 		.4byte	0xd3
 1363 089c 04       		.byte	0x4
 1364 089d 0E       		.uleb128 0xe
 1365 089e 50415200 		.ascii	"PAR\000"
 1366 08a2 10       		.byte	0x10
 1367 08a3 B502     		.2byte	0x2b5
 1368 08a5 D3000000 		.4byte	0xd3
ARM GAS  /tmp/ccRNJlvF.s 			page 25


 1369 08a9 08       		.byte	0x8
 1370 08aa 10       		.uleb128 0x10
 1371 08ab 2D000000 		.4byte	.LASF128
 1372 08af 10       		.byte	0x10
 1373 08b0 B602     		.2byte	0x2b6
 1374 08b2 D3000000 		.4byte	0xd3
 1375 08b6 0C       		.byte	0xc
 1376 08b7 10       		.uleb128 0x10
 1377 08b8 AF060000 		.4byte	.LASF129
 1378 08bc 10       		.byte	0x10
 1379 08bd B702     		.2byte	0x2b7
 1380 08bf D3000000 		.4byte	0xd3
 1381 08c3 10       		.byte	0x10
 1382 08c4 0E       		.uleb128 0xe
 1383 08c5 46435200 		.ascii	"FCR\000"
 1384 08c9 10       		.byte	0x10
 1385 08ca B802     		.2byte	0x2b8
 1386 08cc D3000000 		.4byte	0xd3
 1387 08d0 14       		.byte	0x14
 1388 08d1 00       		.byte	0
 1389 08d2 11       		.uleb128 0x11
 1390 08d3 7F060000 		.4byte	.LASF130
 1391 08d7 10       		.byte	0x10
 1392 08d8 B902     		.2byte	0x2b9
 1393 08da 7B080000 		.4byte	0x87b
 1394 08de 11       		.uleb128 0x11
 1395 08df 61000000 		.4byte	.LASF131
 1396 08e3 11       		.byte	0x11
 1397 08e4 C006     		.2byte	0x6c0
 1398 08e6 C8000000 		.4byte	0xc8
 1399 08ea 09       		.uleb128 0x9
 1400 08eb 0C       		.byte	0xc
 1401 08ec 12       		.byte	0x12
 1402 08ed DA       		.byte	0xda
 1403 08ee 2F090000 		.4byte	0x92f
 1404 08f2 07       		.uleb128 0x7
 1405 08f3 90010000 		.4byte	.LASF132
 1406 08f7 12       		.byte	0x12
 1407 08f8 DB       		.byte	0xdb
 1408 08f9 2F090000 		.4byte	0x92f
 1409 08fd 00       		.byte	0
 1410 08fe 07       		.uleb128 0x7
 1411 08ff D4050000 		.4byte	.LASF133
 1412 0903 12       		.byte	0x12
 1413 0904 DC       		.byte	0xdc
 1414 0905 35090000 		.4byte	0x935
 1415 0909 04       		.byte	0x4
 1416 090a 07       		.uleb128 0x7
 1417 090b 51030000 		.4byte	.LASF134
 1418 090f 12       		.byte	0x12
 1419 0910 DD       		.byte	0xdd
 1420 0911 A2000000 		.4byte	0xa2
 1421 0915 08       		.byte	0x8
 1422 0916 07       		.uleb128 0x7
 1423 0917 B4060000 		.4byte	.LASF135
 1424 091b 12       		.byte	0x12
 1425 091c DF       		.byte	0xdf
ARM GAS  /tmp/ccRNJlvF.s 			page 26


 1426 091d A2000000 		.4byte	0xa2
 1427 0921 09       		.byte	0x9
 1428 0922 07       		.uleb128 0x7
 1429 0923 49000000 		.4byte	.LASF136
 1430 0927 12       		.byte	0x12
 1431 0928 E0       		.byte	0xe0
 1432 0929 A2000000 		.4byte	0xa2
 1433 092d 0A       		.byte	0xa
 1434 092e 00       		.byte	0
 1435 092f 0A       		.uleb128 0xa
 1436 0930 04       		.byte	0x4
 1437 0931 D2080000 		.4byte	0x8d2
 1438 0935 0A       		.uleb128 0xa
 1439 0936 04       		.byte	0x4
 1440 0937 D3000000 		.4byte	0xd3
 1441 093b 04       		.uleb128 0x4
 1442 093c 00050000 		.4byte	.LASF137
 1443 0940 12       		.byte	0x12
 1444 0941 E1       		.byte	0xe1
 1445 0942 EA080000 		.4byte	0x8ea
 1446 0946 17       		.uleb128 0x17
 1447 0947 3B090000 		.4byte	0x93b
 1448 094b 18       		.uleb128 0x18
 1449 094c 46090000 		.4byte	0x946
 1450 0950 5B090000 		.4byte	0x95b
 1451 0954 19       		.uleb128 0x19
 1452 0955 2C000000 		.4byte	0x2c
 1453 0959 0F       		.byte	0xf
 1454 095a 00       		.byte	0
 1455 095b 17       		.uleb128 0x17
 1456 095c 4B090000 		.4byte	0x94b
 1457 0960 1C       		.uleb128 0x1c
 1458 0961 EA010000 		.4byte	.LASF138
 1459 0965 12       		.byte	0x12
 1460 0966 BB01     		.2byte	0x1bb
 1461 0968 5B090000 		.4byte	0x95b
 1462 096c 04       		.uleb128 0x4
 1463 096d 62030000 		.4byte	.LASF139
 1464 0971 13       		.byte	0x13
 1465 0972 45       		.byte	0x45
 1466 0973 77090000 		.4byte	0x977
 1467 0977 06       		.uleb128 0x6
 1468 0978 62030000 		.4byte	.LASF139
 1469 097c 14       		.byte	0x14
 1470 097d 13       		.byte	0x13
 1471 097e 4A       		.byte	0x4a
 1472 097f C0090000 		.4byte	0x9c0
 1473 0983 07       		.uleb128 0x7
 1474 0984 5C070000 		.4byte	.LASF140
 1475 0988 13       		.byte	0x13
 1476 0989 4B       		.byte	0x4b
 1477 098a D1090000 		.4byte	0x9d1
 1478 098e 00       		.byte	0
 1479 098f 07       		.uleb128 0x7
 1480 0990 69070000 		.4byte	.LASF141
 1481 0994 13       		.byte	0x13
 1482 0995 4C       		.byte	0x4c
ARM GAS  /tmp/ccRNJlvF.s 			page 27


 1483 0996 D1090000 		.4byte	0x9d1
 1484 099a 04       		.byte	0x4
 1485 099b 07       		.uleb128 0x7
 1486 099c 99030000 		.4byte	.LASF142
 1487 09a0 13       		.byte	0x13
 1488 09a1 4D       		.byte	0x4d
 1489 09a2 DE080000 		.4byte	0x8de
 1490 09a6 08       		.byte	0x8
 1491 09a7 07       		.uleb128 0x7
 1492 09a8 97010000 		.4byte	.LASF143
 1493 09ac 13       		.byte	0x13
 1494 09ad 4E       		.byte	0x4e
 1495 09ae DE080000 		.4byte	0x8de
 1496 09b2 0C       		.byte	0xc
 1497 09b3 07       		.uleb128 0x7
 1498 09b4 38060000 		.4byte	.LASF144
 1499 09b8 13       		.byte	0x13
 1500 09b9 4F       		.byte	0x4f
 1501 09ba DE080000 		.4byte	0x8de
 1502 09be 10       		.byte	0x10
 1503 09bf 00       		.byte	0
 1504 09c0 12       		.uleb128 0x12
 1505 09c1 CB090000 		.4byte	0x9cb
 1506 09c5 13       		.uleb128 0x13
 1507 09c6 CB090000 		.4byte	0x9cb
 1508 09ca 00       		.byte	0
 1509 09cb 0A       		.uleb128 0xa
 1510 09cc 04       		.byte	0x4
 1511 09cd 6C090000 		.4byte	0x96c
 1512 09d1 0A       		.uleb128 0xa
 1513 09d2 04       		.byte	0x4
 1514 09d3 C0090000 		.4byte	0x9c0
 1515 09d7 09       		.uleb128 0x9
 1516 09d8 1C       		.byte	0x1c
 1517 09d9 14       		.byte	0x14
 1518 09da A3       		.byte	0xa3
 1519 09db 340A0000 		.4byte	0xa34
 1520 09df 07       		.uleb128 0x7
 1521 09e0 74020000 		.4byte	.LASF145
 1522 09e4 14       		.byte	0x14
 1523 09e5 A5       		.byte	0xa5
 1524 09e6 C8000000 		.4byte	0xc8
 1525 09ea 00       		.byte	0
 1526 09eb 07       		.uleb128 0x7
 1527 09ec 5A000000 		.4byte	.LASF146
 1528 09f0 14       		.byte	0x14
 1529 09f1 A7       		.byte	0xa7
 1530 09f2 C8000000 		.4byte	0xc8
 1531 09f6 04       		.byte	0x4
 1532 09f7 07       		.uleb128 0x7
 1533 09f8 49030000 		.4byte	.LASF147
 1534 09fc 14       		.byte	0x14
 1535 09fd A9       		.byte	0xa9
 1536 09fe C8000000 		.4byte	0xc8
 1537 0a02 08       		.byte	0x8
 1538 0a03 07       		.uleb128 0x7
 1539 0a04 DB010000 		.4byte	.LASF148
ARM GAS  /tmp/ccRNJlvF.s 			page 28


 1540 0a08 14       		.byte	0x14
 1541 0a09 AB       		.byte	0xab
 1542 0a0a C8000000 		.4byte	0xc8
 1543 0a0e 0C       		.byte	0xc
 1544 0a0f 08       		.uleb128 0x8
 1545 0a10 6F647200 		.ascii	"odr\000"
 1546 0a14 14       		.byte	0x14
 1547 0a15 AD       		.byte	0xad
 1548 0a16 C8000000 		.4byte	0xc8
 1549 0a1a 10       		.byte	0x10
 1550 0a1b 07       		.uleb128 0x7
 1551 0a1c 4F050000 		.4byte	.LASF149
 1552 0a20 14       		.byte	0x14
 1553 0a21 AF       		.byte	0xaf
 1554 0a22 C8000000 		.4byte	0xc8
 1555 0a26 14       		.byte	0x14
 1556 0a27 07       		.uleb128 0x7
 1557 0a28 A2040000 		.4byte	.LASF150
 1558 0a2c 14       		.byte	0x14
 1559 0a2d B1       		.byte	0xb1
 1560 0a2e C8000000 		.4byte	0xc8
 1561 0a32 18       		.byte	0x18
 1562 0a33 00       		.byte	0
 1563 0a34 04       		.uleb128 0x4
 1564 0a35 00000000 		.4byte	.LASF151
 1565 0a39 14       		.byte	0x14
 1566 0a3a B2       		.byte	0xb2
 1567 0a3b D7090000 		.4byte	0x9d7
 1568 0a3f 09       		.uleb128 0x9
 1569 0a40 FC       		.byte	0xfc
 1570 0a41 14       		.byte	0x14
 1571 0a42 BB       		.byte	0xbb
 1572 0a43 B40A0000 		.4byte	0xab4
 1573 0a47 07       		.uleb128 0x7
 1574 0a48 81050000 		.4byte	.LASF152
 1575 0a4c 14       		.byte	0x14
 1576 0a4d BE       		.byte	0xbe
 1577 0a4e 340A0000 		.4byte	0xa34
 1578 0a52 00       		.byte	0
 1579 0a53 07       		.uleb128 0x7
 1580 0a54 F7020000 		.4byte	.LASF153
 1581 0a58 14       		.byte	0x14
 1582 0a59 C2       		.byte	0xc2
 1583 0a5a 340A0000 		.4byte	0xa34
 1584 0a5e 1C       		.byte	0x1c
 1585 0a5f 07       		.uleb128 0x7
 1586 0a60 3F070000 		.4byte	.LASF154
 1587 0a64 14       		.byte	0x14
 1588 0a65 C6       		.byte	0xc6
 1589 0a66 340A0000 		.4byte	0xa34
 1590 0a6a 38       		.byte	0x38
 1591 0a6b 07       		.uleb128 0x7
 1592 0a6c A7040000 		.4byte	.LASF155
 1593 0a70 14       		.byte	0x14
 1594 0a71 CA       		.byte	0xca
 1595 0a72 340A0000 		.4byte	0xa34
 1596 0a76 54       		.byte	0x54
ARM GAS  /tmp/ccRNJlvF.s 			page 29


 1597 0a77 07       		.uleb128 0x7
 1598 0a78 91020000 		.4byte	.LASF156
 1599 0a7c 14       		.byte	0x14
 1600 0a7d CE       		.byte	0xce
 1601 0a7e 340A0000 		.4byte	0xa34
 1602 0a82 70       		.byte	0x70
 1603 0a83 07       		.uleb128 0x7
 1604 0a84 85030000 		.4byte	.LASF157
 1605 0a88 14       		.byte	0x14
 1606 0a89 D2       		.byte	0xd2
 1607 0a8a 340A0000 		.4byte	0xa34
 1608 0a8e 8C       		.byte	0x8c
 1609 0a8f 07       		.uleb128 0x7
 1610 0a90 06040000 		.4byte	.LASF158
 1611 0a94 14       		.byte	0x14
 1612 0a95 D6       		.byte	0xd6
 1613 0a96 340A0000 		.4byte	0xa34
 1614 0a9a A8       		.byte	0xa8
 1615 0a9b 07       		.uleb128 0x7
 1616 0a9c 9D010000 		.4byte	.LASF159
 1617 0aa0 14       		.byte	0x14
 1618 0aa1 DA       		.byte	0xda
 1619 0aa2 340A0000 		.4byte	0xa34
 1620 0aa6 C4       		.byte	0xc4
 1621 0aa7 07       		.uleb128 0x7
 1622 0aa8 B5050000 		.4byte	.LASF160
 1623 0aac 14       		.byte	0x14
 1624 0aad DE       		.byte	0xde
 1625 0aae 340A0000 		.4byte	0xa34
 1626 0ab2 E0       		.byte	0xe0
 1627 0ab3 00       		.byte	0
 1628 0ab4 04       		.uleb128 0x4
 1629 0ab5 6E070000 		.4byte	.LASF161
 1630 0ab9 14       		.byte	0x14
 1631 0aba E0       		.byte	0xe0
 1632 0abb 3F0A0000 		.4byte	0xa3f
 1633 0abf 17       		.uleb128 0x17
 1634 0ac0 B40A0000 		.4byte	0xab4
 1635 0ac4 1C       		.uleb128 0x1c
 1636 0ac5 93070000 		.4byte	.LASF162
 1637 0ac9 14       		.byte	0x14
 1638 0aca BC01     		.2byte	0x1bc
 1639 0acc BF0A0000 		.4byte	0xabf
 1640 0ad0 1D       		.uleb128 0x1d
 1641 0ad1 C5060000 		.4byte	.LASF163
 1642 0ad5 01       		.byte	0x1
 1643 0ad6 38       		.byte	0x38
 1644 0ad7 DE080000 		.4byte	0x8de
 1645 0adb 05       		.uleb128 0x5
 1646 0adc 03       		.byte	0x3
 1647 0add 00000000 		.4byte	measurement_offset
 1648 0ae1 1E       		.uleb128 0x1e
 1649 0ae2 D7030000 		.4byte	.LASF168
 1650 0ae6 01       		.byte	0x1
 1651 0ae7 7C       		.byte	0x7c
 1652 0ae8 01       		.byte	0x1
 1653 0ae9 F90A0000 		.4byte	0xaf9
ARM GAS  /tmp/ccRNJlvF.s 			page 30


 1654 0aed 1F       		.uleb128 0x1f
 1655 0aee 746D7000 		.ascii	"tmp\000"
 1656 0af2 01       		.byte	0x1
 1657 0af3 7C       		.byte	0x7c
 1658 0af4 CB090000 		.4byte	0x9cb
 1659 0af8 00       		.byte	0
 1660 0af9 20       		.uleb128 0x20
 1661 0afa FD050000 		.4byte	.LASF169
 1662 0afe 01       		.byte	0x1
 1663 0aff 68       		.byte	0x68
 1664 0b00 00000000 		.4byte	.LFB120
 1665 0b04 40000000 		.4byte	.LFE120-.LFB120
 1666 0b08 01       		.uleb128 0x1
 1667 0b09 9C       		.byte	0x9c
 1668 0b0a 620B0000 		.4byte	0xb62
 1669 0b0e 21       		.uleb128 0x21
 1670 0b0f 746D00   		.ascii	"tm\000"
 1671 0b12 01       		.byte	0x1
 1672 0b13 69       		.byte	0x69
 1673 0b14 6C090000 		.4byte	0x96c
 1674 0b18 02       		.uleb128 0x2
 1675 0b19 91       		.byte	0x91
 1676 0b1a 64       		.sleb128 -28
 1677 0b1b 22       		.uleb128 0x22
 1678 0b1c E10A0000 		.4byte	0xae1
 1679 0b20 04000000 		.4byte	.LBB8
 1680 0b24 00000000 		.4byte	.Ldebug_ranges0+0
 1681 0b28 01       		.byte	0x1
 1682 0b29 6F       		.byte	0x6f
 1683 0b2a 340B0000 		.4byte	0xb34
 1684 0b2e 23       		.uleb128 0x23
 1685 0b2f ED0A0000 		.4byte	0xaed
 1686 0b33 00       		.byte	0
 1687 0b34 22       		.uleb128 0x22
 1688 0b35 940B0000 		.4byte	0xb94
 1689 0b39 14000000 		.4byte	.LBB14
 1690 0b3d 28000000 		.4byte	.Ldebug_ranges0+0x28
 1691 0b41 01       		.byte	0x1
 1692 0b42 70       		.byte	0x70
 1693 0b43 510B0000 		.4byte	0xb51
 1694 0b47 24       		.uleb128 0x24
 1695 0b48 A00B0000 		.4byte	0xba0
 1696 0b4c 00000000 		.4byte	.LLST1
 1697 0b50 00       		.byte	0
 1698 0b51 25       		.uleb128 0x25
 1699 0b52 26000000 		.4byte	.LVL6
 1700 0b56 620B0000 		.4byte	0xb62
 1701 0b5a 26       		.uleb128 0x26
 1702 0b5b 01       		.uleb128 0x1
 1703 0b5c 50       		.byte	0x50
 1704 0b5d 02       		.uleb128 0x2
 1705 0b5e 70       		.byte	0x70
 1706 0b5f 00       		.sleb128 0
 1707 0b60 00       		.byte	0
 1708 0b61 00       		.byte	0
 1709 0b62 27       		.uleb128 0x27
 1710 0b63 FD010000 		.4byte	.LASF170
ARM GAS  /tmp/ccRNJlvF.s 			page 31


 1711 0b67 01       		.byte	0x1
 1712 0b68 51       		.byte	0x51
 1713 0b69 00000000 		.4byte	.LFB119
 1714 0b6d 38000000 		.4byte	.LFE119-.LFB119
 1715 0b71 01       		.uleb128 0x1
 1716 0b72 9C       		.byte	0x9c
 1717 0b73 940B0000 		.4byte	0xb94
 1718 0b77 28       		.uleb128 0x28
 1719 0b78 746D7000 		.ascii	"tmp\000"
 1720 0b7c 01       		.byte	0x1
 1721 0b7d 51       		.byte	0x51
 1722 0b7e CB090000 		.4byte	0x9cb
 1723 0b82 01       		.uleb128 0x1
 1724 0b83 50       		.byte	0x50
 1725 0b84 29       		.uleb128 0x29
 1726 0b85 6E6F7700 		.ascii	"now\000"
 1727 0b89 01       		.byte	0x1
 1728 0b8a 53       		.byte	0x53
 1729 0b8b DE080000 		.4byte	0x8de
 1730 0b8f 15000000 		.4byte	.LLST0
 1731 0b93 00       		.byte	0
 1732 0b94 2A       		.uleb128 0x2a
 1733 0b95 80070000 		.4byte	.LASF171
 1734 0b99 01       		.byte	0x1
 1735 0b9a 45       		.byte	0x45
 1736 0b9b 01       		.byte	0x1
 1737 0b9c AC0B0000 		.4byte	0xbac
 1738 0ba0 1F       		.uleb128 0x1f
 1739 0ba1 746D7000 		.ascii	"tmp\000"
 1740 0ba5 01       		.byte	0x1
 1741 0ba6 45       		.byte	0x45
 1742 0ba7 CB090000 		.4byte	0x9cb
 1743 0bab 00       		.byte	0
 1744 0bac 2B       		.uleb128 0x2b
 1745 0bad 940B0000 		.4byte	0xb94
 1746 0bb1 00000000 		.4byte	.LFB118
 1747 0bb5 0C000000 		.4byte	.LFE118-.LFB118
 1748 0bb9 01       		.uleb128 0x1
 1749 0bba 9C       		.byte	0x9c
 1750 0bbb C70B0000 		.4byte	0xbc7
 1751 0bbf 2C       		.uleb128 0x2c
 1752 0bc0 A00B0000 		.4byte	0xba0
 1753 0bc4 01       		.uleb128 0x1
 1754 0bc5 50       		.byte	0x50
 1755 0bc6 00       		.byte	0
 1756 0bc7 2D       		.uleb128 0x2d
 1757 0bc8 E10A0000 		.4byte	0xae1
 1758 0bcc 00000000 		.4byte	.LFB121
 1759 0bd0 20000000 		.4byte	.LFE121-.LFB121
 1760 0bd4 01       		.uleb128 0x1
 1761 0bd5 9C       		.byte	0x9c
 1762 0bd6 2C       		.uleb128 0x2c
 1763 0bd7 ED0A0000 		.4byte	0xaed
 1764 0bdb 01       		.uleb128 0x1
 1765 0bdc 50       		.byte	0x50
 1766 0bdd 00       		.byte	0
 1767 0bde 00       		.byte	0
ARM GAS  /tmp/ccRNJlvF.s 			page 32


 1768              		.section	.debug_abbrev,"",%progbits
 1769              	.Ldebug_abbrev0:
 1770 0000 01       		.uleb128 0x1
 1771 0001 11       		.uleb128 0x11
 1772 0002 01       		.byte	0x1
 1773 0003 25       		.uleb128 0x25
 1774 0004 0E       		.uleb128 0xe
 1775 0005 13       		.uleb128 0x13
 1776 0006 0B       		.uleb128 0xb
 1777 0007 03       		.uleb128 0x3
 1778 0008 0E       		.uleb128 0xe
 1779 0009 1B       		.uleb128 0x1b
 1780 000a 0E       		.uleb128 0xe
 1781 000b 55       		.uleb128 0x55
 1782 000c 17       		.uleb128 0x17
 1783 000d 11       		.uleb128 0x11
 1784 000e 01       		.uleb128 0x1
 1785 000f 10       		.uleb128 0x10
 1786 0010 17       		.uleb128 0x17
 1787 0011 00       		.byte	0
 1788 0012 00       		.byte	0
 1789 0013 02       		.uleb128 0x2
 1790 0014 24       		.uleb128 0x24
 1791 0015 00       		.byte	0
 1792 0016 0B       		.uleb128 0xb
 1793 0017 0B       		.uleb128 0xb
 1794 0018 3E       		.uleb128 0x3e
 1795 0019 0B       		.uleb128 0xb
 1796 001a 03       		.uleb128 0x3
 1797 001b 08       		.uleb128 0x8
 1798 001c 00       		.byte	0
 1799 001d 00       		.byte	0
 1800 001e 03       		.uleb128 0x3
 1801 001f 24       		.uleb128 0x24
 1802 0020 00       		.byte	0
 1803 0021 0B       		.uleb128 0xb
 1804 0022 0B       		.uleb128 0xb
 1805 0023 3E       		.uleb128 0x3e
 1806 0024 0B       		.uleb128 0xb
 1807 0025 03       		.uleb128 0x3
 1808 0026 0E       		.uleb128 0xe
 1809 0027 00       		.byte	0
 1810 0028 00       		.byte	0
 1811 0029 04       		.uleb128 0x4
 1812 002a 16       		.uleb128 0x16
 1813 002b 00       		.byte	0
 1814 002c 03       		.uleb128 0x3
 1815 002d 0E       		.uleb128 0xe
 1816 002e 3A       		.uleb128 0x3a
 1817 002f 0B       		.uleb128 0xb
 1818 0030 3B       		.uleb128 0x3b
 1819 0031 0B       		.uleb128 0xb
 1820 0032 49       		.uleb128 0x49
 1821 0033 13       		.uleb128 0x13
 1822 0034 00       		.byte	0
 1823 0035 00       		.byte	0
 1824 0036 05       		.uleb128 0x5
ARM GAS  /tmp/ccRNJlvF.s 			page 33


 1825 0037 35       		.uleb128 0x35
 1826 0038 00       		.byte	0
 1827 0039 49       		.uleb128 0x49
 1828 003a 13       		.uleb128 0x13
 1829 003b 00       		.byte	0
 1830 003c 00       		.byte	0
 1831 003d 06       		.uleb128 0x6
 1832 003e 13       		.uleb128 0x13
 1833 003f 01       		.byte	0x1
 1834 0040 03       		.uleb128 0x3
 1835 0041 0E       		.uleb128 0xe
 1836 0042 0B       		.uleb128 0xb
 1837 0043 0B       		.uleb128 0xb
 1838 0044 3A       		.uleb128 0x3a
 1839 0045 0B       		.uleb128 0xb
 1840 0046 3B       		.uleb128 0x3b
 1841 0047 0B       		.uleb128 0xb
 1842 0048 01       		.uleb128 0x1
 1843 0049 13       		.uleb128 0x13
 1844 004a 00       		.byte	0
 1845 004b 00       		.byte	0
 1846 004c 07       		.uleb128 0x7
 1847 004d 0D       		.uleb128 0xd
 1848 004e 00       		.byte	0
 1849 004f 03       		.uleb128 0x3
 1850 0050 0E       		.uleb128 0xe
 1851 0051 3A       		.uleb128 0x3a
 1852 0052 0B       		.uleb128 0xb
 1853 0053 3B       		.uleb128 0x3b
 1854 0054 0B       		.uleb128 0xb
 1855 0055 49       		.uleb128 0x49
 1856 0056 13       		.uleb128 0x13
 1857 0057 38       		.uleb128 0x38
 1858 0058 0B       		.uleb128 0xb
 1859 0059 00       		.byte	0
 1860 005a 00       		.byte	0
 1861 005b 08       		.uleb128 0x8
 1862 005c 0D       		.uleb128 0xd
 1863 005d 00       		.byte	0
 1864 005e 03       		.uleb128 0x3
 1865 005f 08       		.uleb128 0x8
 1866 0060 3A       		.uleb128 0x3a
 1867 0061 0B       		.uleb128 0xb
 1868 0062 3B       		.uleb128 0x3b
 1869 0063 0B       		.uleb128 0xb
 1870 0064 49       		.uleb128 0x49
 1871 0065 13       		.uleb128 0x13
 1872 0066 38       		.uleb128 0x38
 1873 0067 0B       		.uleb128 0xb
 1874 0068 00       		.byte	0
 1875 0069 00       		.byte	0
 1876 006a 09       		.uleb128 0x9
 1877 006b 13       		.uleb128 0x13
 1878 006c 01       		.byte	0x1
 1879 006d 0B       		.uleb128 0xb
 1880 006e 0B       		.uleb128 0xb
 1881 006f 3A       		.uleb128 0x3a
ARM GAS  /tmp/ccRNJlvF.s 			page 34


 1882 0070 0B       		.uleb128 0xb
 1883 0071 3B       		.uleb128 0x3b
 1884 0072 0B       		.uleb128 0xb
 1885 0073 01       		.uleb128 0x1
 1886 0074 13       		.uleb128 0x13
 1887 0075 00       		.byte	0
 1888 0076 00       		.byte	0
 1889 0077 0A       		.uleb128 0xa
 1890 0078 0F       		.uleb128 0xf
 1891 0079 00       		.byte	0
 1892 007a 0B       		.uleb128 0xb
 1893 007b 0B       		.uleb128 0xb
 1894 007c 49       		.uleb128 0x49
 1895 007d 13       		.uleb128 0x13
 1896 007e 00       		.byte	0
 1897 007f 00       		.byte	0
 1898 0080 0B       		.uleb128 0xb
 1899 0081 0F       		.uleb128 0xf
 1900 0082 00       		.byte	0
 1901 0083 0B       		.uleb128 0xb
 1902 0084 0B       		.uleb128 0xb
 1903 0085 00       		.byte	0
 1904 0086 00       		.byte	0
 1905 0087 0C       		.uleb128 0xc
 1906 0088 16       		.uleb128 0x16
 1907 0089 00       		.byte	0
 1908 008a 03       		.uleb128 0x3
 1909 008b 0E       		.uleb128 0xe
 1910 008c 3A       		.uleb128 0x3a
 1911 008d 0B       		.uleb128 0xb
 1912 008e 3B       		.uleb128 0x3b
 1913 008f 0B       		.uleb128 0xb
 1914 0090 49       		.uleb128 0x49
 1915 0091 13       		.uleb128 0x13
 1916 0092 8801     		.uleb128 0x88
 1917 0094 0B       		.uleb128 0xb
 1918 0095 00       		.byte	0
 1919 0096 00       		.byte	0
 1920 0097 0D       		.uleb128 0xd
 1921 0098 13       		.uleb128 0x13
 1922 0099 01       		.byte	0x1
 1923 009a 03       		.uleb128 0x3
 1924 009b 0E       		.uleb128 0xe
 1925 009c 0B       		.uleb128 0xb
 1926 009d 0B       		.uleb128 0xb
 1927 009e 3A       		.uleb128 0x3a
 1928 009f 0B       		.uleb128 0xb
 1929 00a0 3B       		.uleb128 0x3b
 1930 00a1 05       		.uleb128 0x5
 1931 00a2 01       		.uleb128 0x1
 1932 00a3 13       		.uleb128 0x13
 1933 00a4 00       		.byte	0
 1934 00a5 00       		.byte	0
 1935 00a6 0E       		.uleb128 0xe
 1936 00a7 0D       		.uleb128 0xd
 1937 00a8 00       		.byte	0
 1938 00a9 03       		.uleb128 0x3
ARM GAS  /tmp/ccRNJlvF.s 			page 35


 1939 00aa 08       		.uleb128 0x8
 1940 00ab 3A       		.uleb128 0x3a
 1941 00ac 0B       		.uleb128 0xb
 1942 00ad 3B       		.uleb128 0x3b
 1943 00ae 05       		.uleb128 0x5
 1944 00af 49       		.uleb128 0x49
 1945 00b0 13       		.uleb128 0x13
 1946 00b1 38       		.uleb128 0x38
 1947 00b2 0B       		.uleb128 0xb
 1948 00b3 00       		.byte	0
 1949 00b4 00       		.byte	0
 1950 00b5 0F       		.uleb128 0xf
 1951 00b6 13       		.uleb128 0x13
 1952 00b7 01       		.byte	0x1
 1953 00b8 0B       		.uleb128 0xb
 1954 00b9 0B       		.uleb128 0xb
 1955 00ba 3A       		.uleb128 0x3a
 1956 00bb 0B       		.uleb128 0xb
 1957 00bc 3B       		.uleb128 0x3b
 1958 00bd 05       		.uleb128 0x5
 1959 00be 01       		.uleb128 0x1
 1960 00bf 13       		.uleb128 0x13
 1961 00c0 00       		.byte	0
 1962 00c1 00       		.byte	0
 1963 00c2 10       		.uleb128 0x10
 1964 00c3 0D       		.uleb128 0xd
 1965 00c4 00       		.byte	0
 1966 00c5 03       		.uleb128 0x3
 1967 00c6 0E       		.uleb128 0xe
 1968 00c7 3A       		.uleb128 0x3a
 1969 00c8 0B       		.uleb128 0xb
 1970 00c9 3B       		.uleb128 0x3b
 1971 00ca 05       		.uleb128 0x5
 1972 00cb 49       		.uleb128 0x49
 1973 00cc 13       		.uleb128 0x13
 1974 00cd 38       		.uleb128 0x38
 1975 00ce 0B       		.uleb128 0xb
 1976 00cf 00       		.byte	0
 1977 00d0 00       		.byte	0
 1978 00d1 11       		.uleb128 0x11
 1979 00d2 16       		.uleb128 0x16
 1980 00d3 00       		.byte	0
 1981 00d4 03       		.uleb128 0x3
 1982 00d5 0E       		.uleb128 0xe
 1983 00d6 3A       		.uleb128 0x3a
 1984 00d7 0B       		.uleb128 0xb
 1985 00d8 3B       		.uleb128 0x3b
 1986 00d9 05       		.uleb128 0x5
 1987 00da 49       		.uleb128 0x49
 1988 00db 13       		.uleb128 0x13
 1989 00dc 00       		.byte	0
 1990 00dd 00       		.byte	0
 1991 00de 12       		.uleb128 0x12
 1992 00df 15       		.uleb128 0x15
 1993 00e0 01       		.byte	0x1
 1994 00e1 27       		.uleb128 0x27
 1995 00e2 19       		.uleb128 0x19
ARM GAS  /tmp/ccRNJlvF.s 			page 36


 1996 00e3 01       		.uleb128 0x1
 1997 00e4 13       		.uleb128 0x13
 1998 00e5 00       		.byte	0
 1999 00e6 00       		.byte	0
 2000 00e7 13       		.uleb128 0x13
 2001 00e8 05       		.uleb128 0x5
 2002 00e9 00       		.byte	0
 2003 00ea 49       		.uleb128 0x49
 2004 00eb 13       		.uleb128 0x13
 2005 00ec 00       		.byte	0
 2006 00ed 00       		.byte	0
 2007 00ee 14       		.uleb128 0x14
 2008 00ef 34       		.uleb128 0x34
 2009 00f0 00       		.byte	0
 2010 00f1 03       		.uleb128 0x3
 2011 00f2 0E       		.uleb128 0xe
 2012 00f3 3A       		.uleb128 0x3a
 2013 00f4 0B       		.uleb128 0xb
 2014 00f5 3B       		.uleb128 0x3b
 2015 00f6 0B       		.uleb128 0xb
 2016 00f7 49       		.uleb128 0x49
 2017 00f8 13       		.uleb128 0x13
 2018 00f9 3F       		.uleb128 0x3f
 2019 00fa 19       		.uleb128 0x19
 2020 00fb 3C       		.uleb128 0x3c
 2021 00fc 19       		.uleb128 0x19
 2022 00fd 00       		.byte	0
 2023 00fe 00       		.byte	0
 2024 00ff 15       		.uleb128 0x15
 2025 0100 17       		.uleb128 0x17
 2026 0101 01       		.byte	0x1
 2027 0102 0B       		.uleb128 0xb
 2028 0103 0B       		.uleb128 0xb
 2029 0104 3A       		.uleb128 0x3a
 2030 0105 0B       		.uleb128 0xb
 2031 0106 3B       		.uleb128 0x3b
 2032 0107 0B       		.uleb128 0xb
 2033 0108 01       		.uleb128 0x1
 2034 0109 13       		.uleb128 0x13
 2035 010a 00       		.byte	0
 2036 010b 00       		.byte	0
 2037 010c 16       		.uleb128 0x16
 2038 010d 0D       		.uleb128 0xd
 2039 010e 00       		.byte	0
 2040 010f 03       		.uleb128 0x3
 2041 0110 0E       		.uleb128 0xe
 2042 0111 3A       		.uleb128 0x3a
 2043 0112 0B       		.uleb128 0xb
 2044 0113 3B       		.uleb128 0x3b
 2045 0114 0B       		.uleb128 0xb
 2046 0115 49       		.uleb128 0x49
 2047 0116 13       		.uleb128 0x13
 2048 0117 00       		.byte	0
 2049 0118 00       		.byte	0
 2050 0119 17       		.uleb128 0x17
 2051 011a 26       		.uleb128 0x26
 2052 011b 00       		.byte	0
ARM GAS  /tmp/ccRNJlvF.s 			page 37


 2053 011c 49       		.uleb128 0x49
 2054 011d 13       		.uleb128 0x13
 2055 011e 00       		.byte	0
 2056 011f 00       		.byte	0
 2057 0120 18       		.uleb128 0x18
 2058 0121 01       		.uleb128 0x1
 2059 0122 01       		.byte	0x1
 2060 0123 49       		.uleb128 0x49
 2061 0124 13       		.uleb128 0x13
 2062 0125 01       		.uleb128 0x1
 2063 0126 13       		.uleb128 0x13
 2064 0127 00       		.byte	0
 2065 0128 00       		.byte	0
 2066 0129 19       		.uleb128 0x19
 2067 012a 21       		.uleb128 0x21
 2068 012b 00       		.byte	0
 2069 012c 49       		.uleb128 0x49
 2070 012d 13       		.uleb128 0x13
 2071 012e 2F       		.uleb128 0x2f
 2072 012f 0B       		.uleb128 0xb
 2073 0130 00       		.byte	0
 2074 0131 00       		.byte	0
 2075 0132 1A       		.uleb128 0x1a
 2076 0133 13       		.uleb128 0x13
 2077 0134 01       		.byte	0x1
 2078 0135 0B       		.uleb128 0xb
 2079 0136 05       		.uleb128 0x5
 2080 0137 3A       		.uleb128 0x3a
 2081 0138 0B       		.uleb128 0xb
 2082 0139 3B       		.uleb128 0x3b
 2083 013a 0B       		.uleb128 0xb
 2084 013b 01       		.uleb128 0x1
 2085 013c 13       		.uleb128 0x13
 2086 013d 00       		.byte	0
 2087 013e 00       		.byte	0
 2088 013f 1B       		.uleb128 0x1b
 2089 0140 01       		.uleb128 0x1
 2090 0141 01       		.byte	0x1
 2091 0142 49       		.uleb128 0x49
 2092 0143 13       		.uleb128 0x13
 2093 0144 8801     		.uleb128 0x88
 2094 0146 0B       		.uleb128 0xb
 2095 0147 01       		.uleb128 0x1
 2096 0148 13       		.uleb128 0x13
 2097 0149 00       		.byte	0
 2098 014a 00       		.byte	0
 2099 014b 1C       		.uleb128 0x1c
 2100 014c 34       		.uleb128 0x34
 2101 014d 00       		.byte	0
 2102 014e 03       		.uleb128 0x3
 2103 014f 0E       		.uleb128 0xe
 2104 0150 3A       		.uleb128 0x3a
 2105 0151 0B       		.uleb128 0xb
 2106 0152 3B       		.uleb128 0x3b
 2107 0153 05       		.uleb128 0x5
 2108 0154 49       		.uleb128 0x49
 2109 0155 13       		.uleb128 0x13
ARM GAS  /tmp/ccRNJlvF.s 			page 38


 2110 0156 3F       		.uleb128 0x3f
 2111 0157 19       		.uleb128 0x19
 2112 0158 3C       		.uleb128 0x3c
 2113 0159 19       		.uleb128 0x19
 2114 015a 00       		.byte	0
 2115 015b 00       		.byte	0
 2116 015c 1D       		.uleb128 0x1d
 2117 015d 34       		.uleb128 0x34
 2118 015e 00       		.byte	0
 2119 015f 03       		.uleb128 0x3
 2120 0160 0E       		.uleb128 0xe
 2121 0161 3A       		.uleb128 0x3a
 2122 0162 0B       		.uleb128 0xb
 2123 0163 3B       		.uleb128 0x3b
 2124 0164 0B       		.uleb128 0xb
 2125 0165 49       		.uleb128 0x49
 2126 0166 13       		.uleb128 0x13
 2127 0167 02       		.uleb128 0x2
 2128 0168 18       		.uleb128 0x18
 2129 0169 00       		.byte	0
 2130 016a 00       		.byte	0
 2131 016b 1E       		.uleb128 0x1e
 2132 016c 2E       		.uleb128 0x2e
 2133 016d 01       		.byte	0x1
 2134 016e 3F       		.uleb128 0x3f
 2135 016f 19       		.uleb128 0x19
 2136 0170 03       		.uleb128 0x3
 2137 0171 0E       		.uleb128 0xe
 2138 0172 3A       		.uleb128 0x3a
 2139 0173 0B       		.uleb128 0xb
 2140 0174 3B       		.uleb128 0x3b
 2141 0175 0B       		.uleb128 0xb
 2142 0176 27       		.uleb128 0x27
 2143 0177 19       		.uleb128 0x19
 2144 0178 20       		.uleb128 0x20
 2145 0179 0B       		.uleb128 0xb
 2146 017a 01       		.uleb128 0x1
 2147 017b 13       		.uleb128 0x13
 2148 017c 00       		.byte	0
 2149 017d 00       		.byte	0
 2150 017e 1F       		.uleb128 0x1f
 2151 017f 05       		.uleb128 0x5
 2152 0180 00       		.byte	0
 2153 0181 03       		.uleb128 0x3
 2154 0182 08       		.uleb128 0x8
 2155 0183 3A       		.uleb128 0x3a
 2156 0184 0B       		.uleb128 0xb
 2157 0185 3B       		.uleb128 0x3b
 2158 0186 0B       		.uleb128 0xb
 2159 0187 49       		.uleb128 0x49
 2160 0188 13       		.uleb128 0x13
 2161 0189 00       		.byte	0
 2162 018a 00       		.byte	0
 2163 018b 20       		.uleb128 0x20
 2164 018c 2E       		.uleb128 0x2e
 2165 018d 01       		.byte	0x1
 2166 018e 3F       		.uleb128 0x3f
ARM GAS  /tmp/ccRNJlvF.s 			page 39


 2167 018f 19       		.uleb128 0x19
 2168 0190 03       		.uleb128 0x3
 2169 0191 0E       		.uleb128 0xe
 2170 0192 3A       		.uleb128 0x3a
 2171 0193 0B       		.uleb128 0xb
 2172 0194 3B       		.uleb128 0x3b
 2173 0195 0B       		.uleb128 0xb
 2174 0196 27       		.uleb128 0x27
 2175 0197 19       		.uleb128 0x19
 2176 0198 11       		.uleb128 0x11
 2177 0199 01       		.uleb128 0x1
 2178 019a 12       		.uleb128 0x12
 2179 019b 06       		.uleb128 0x6
 2180 019c 40       		.uleb128 0x40
 2181 019d 18       		.uleb128 0x18
 2182 019e 9742     		.uleb128 0x2117
 2183 01a0 19       		.uleb128 0x19
 2184 01a1 01       		.uleb128 0x1
 2185 01a2 13       		.uleb128 0x13
 2186 01a3 00       		.byte	0
 2187 01a4 00       		.byte	0
 2188 01a5 21       		.uleb128 0x21
 2189 01a6 34       		.uleb128 0x34
 2190 01a7 00       		.byte	0
 2191 01a8 03       		.uleb128 0x3
 2192 01a9 08       		.uleb128 0x8
 2193 01aa 3A       		.uleb128 0x3a
 2194 01ab 0B       		.uleb128 0xb
 2195 01ac 3B       		.uleb128 0x3b
 2196 01ad 0B       		.uleb128 0xb
 2197 01ae 49       		.uleb128 0x49
 2198 01af 13       		.uleb128 0x13
 2199 01b0 02       		.uleb128 0x2
 2200 01b1 18       		.uleb128 0x18
 2201 01b2 00       		.byte	0
 2202 01b3 00       		.byte	0
 2203 01b4 22       		.uleb128 0x22
 2204 01b5 1D       		.uleb128 0x1d
 2205 01b6 01       		.byte	0x1
 2206 01b7 31       		.uleb128 0x31
 2207 01b8 13       		.uleb128 0x13
 2208 01b9 52       		.uleb128 0x52
 2209 01ba 01       		.uleb128 0x1
 2210 01bb 55       		.uleb128 0x55
 2211 01bc 17       		.uleb128 0x17
 2212 01bd 58       		.uleb128 0x58
 2213 01be 0B       		.uleb128 0xb
 2214 01bf 59       		.uleb128 0x59
 2215 01c0 0B       		.uleb128 0xb
 2216 01c1 01       		.uleb128 0x1
 2217 01c2 13       		.uleb128 0x13
 2218 01c3 00       		.byte	0
 2219 01c4 00       		.byte	0
 2220 01c5 23       		.uleb128 0x23
 2221 01c6 05       		.uleb128 0x5
 2222 01c7 00       		.byte	0
 2223 01c8 31       		.uleb128 0x31
ARM GAS  /tmp/ccRNJlvF.s 			page 40


 2224 01c9 13       		.uleb128 0x13
 2225 01ca 00       		.byte	0
 2226 01cb 00       		.byte	0
 2227 01cc 24       		.uleb128 0x24
 2228 01cd 05       		.uleb128 0x5
 2229 01ce 00       		.byte	0
 2230 01cf 31       		.uleb128 0x31
 2231 01d0 13       		.uleb128 0x13
 2232 01d1 02       		.uleb128 0x2
 2233 01d2 17       		.uleb128 0x17
 2234 01d3 00       		.byte	0
 2235 01d4 00       		.byte	0
 2236 01d5 25       		.uleb128 0x25
 2237 01d6 898201   		.uleb128 0x4109
 2238 01d9 01       		.byte	0x1
 2239 01da 11       		.uleb128 0x11
 2240 01db 01       		.uleb128 0x1
 2241 01dc 31       		.uleb128 0x31
 2242 01dd 13       		.uleb128 0x13
 2243 01de 00       		.byte	0
 2244 01df 00       		.byte	0
 2245 01e0 26       		.uleb128 0x26
 2246 01e1 8A8201   		.uleb128 0x410a
 2247 01e4 00       		.byte	0
 2248 01e5 02       		.uleb128 0x2
 2249 01e6 18       		.uleb128 0x18
 2250 01e7 9142     		.uleb128 0x2111
 2251 01e9 18       		.uleb128 0x18
 2252 01ea 00       		.byte	0
 2253 01eb 00       		.byte	0
 2254 01ec 27       		.uleb128 0x27
 2255 01ed 2E       		.uleb128 0x2e
 2256 01ee 01       		.byte	0x1
 2257 01ef 03       		.uleb128 0x3
 2258 01f0 0E       		.uleb128 0xe
 2259 01f1 3A       		.uleb128 0x3a
 2260 01f2 0B       		.uleb128 0xb
 2261 01f3 3B       		.uleb128 0x3b
 2262 01f4 0B       		.uleb128 0xb
 2263 01f5 27       		.uleb128 0x27
 2264 01f6 19       		.uleb128 0x19
 2265 01f7 11       		.uleb128 0x11
 2266 01f8 01       		.uleb128 0x1
 2267 01f9 12       		.uleb128 0x12
 2268 01fa 06       		.uleb128 0x6
 2269 01fb 40       		.uleb128 0x40
 2270 01fc 18       		.uleb128 0x18
 2271 01fd 9742     		.uleb128 0x2117
 2272 01ff 19       		.uleb128 0x19
 2273 0200 01       		.uleb128 0x1
 2274 0201 13       		.uleb128 0x13
 2275 0202 00       		.byte	0
 2276 0203 00       		.byte	0
 2277 0204 28       		.uleb128 0x28
 2278 0205 05       		.uleb128 0x5
 2279 0206 00       		.byte	0
 2280 0207 03       		.uleb128 0x3
ARM GAS  /tmp/ccRNJlvF.s 			page 41


 2281 0208 08       		.uleb128 0x8
 2282 0209 3A       		.uleb128 0x3a
 2283 020a 0B       		.uleb128 0xb
 2284 020b 3B       		.uleb128 0x3b
 2285 020c 0B       		.uleb128 0xb
 2286 020d 49       		.uleb128 0x49
 2287 020e 13       		.uleb128 0x13
 2288 020f 02       		.uleb128 0x2
 2289 0210 18       		.uleb128 0x18
 2290 0211 00       		.byte	0
 2291 0212 00       		.byte	0
 2292 0213 29       		.uleb128 0x29
 2293 0214 34       		.uleb128 0x34
 2294 0215 00       		.byte	0
 2295 0216 03       		.uleb128 0x3
 2296 0217 08       		.uleb128 0x8
 2297 0218 3A       		.uleb128 0x3a
 2298 0219 0B       		.uleb128 0xb
 2299 021a 3B       		.uleb128 0x3b
 2300 021b 0B       		.uleb128 0xb
 2301 021c 49       		.uleb128 0x49
 2302 021d 13       		.uleb128 0x13
 2303 021e 02       		.uleb128 0x2
 2304 021f 17       		.uleb128 0x17
 2305 0220 00       		.byte	0
 2306 0221 00       		.byte	0
 2307 0222 2A       		.uleb128 0x2a
 2308 0223 2E       		.uleb128 0x2e
 2309 0224 01       		.byte	0x1
 2310 0225 03       		.uleb128 0x3
 2311 0226 0E       		.uleb128 0xe
 2312 0227 3A       		.uleb128 0x3a
 2313 0228 0B       		.uleb128 0xb
 2314 0229 3B       		.uleb128 0x3b
 2315 022a 0B       		.uleb128 0xb
 2316 022b 27       		.uleb128 0x27
 2317 022c 19       		.uleb128 0x19
 2318 022d 20       		.uleb128 0x20
 2319 022e 0B       		.uleb128 0xb
 2320 022f 01       		.uleb128 0x1
 2321 0230 13       		.uleb128 0x13
 2322 0231 00       		.byte	0
 2323 0232 00       		.byte	0
 2324 0233 2B       		.uleb128 0x2b
 2325 0234 2E       		.uleb128 0x2e
 2326 0235 01       		.byte	0x1
 2327 0236 31       		.uleb128 0x31
 2328 0237 13       		.uleb128 0x13
 2329 0238 11       		.uleb128 0x11
 2330 0239 01       		.uleb128 0x1
 2331 023a 12       		.uleb128 0x12
 2332 023b 06       		.uleb128 0x6
 2333 023c 40       		.uleb128 0x40
 2334 023d 18       		.uleb128 0x18
 2335 023e 9742     		.uleb128 0x2117
 2336 0240 19       		.uleb128 0x19
 2337 0241 01       		.uleb128 0x1
ARM GAS  /tmp/ccRNJlvF.s 			page 42


 2338 0242 13       		.uleb128 0x13
 2339 0243 00       		.byte	0
 2340 0244 00       		.byte	0
 2341 0245 2C       		.uleb128 0x2c
 2342 0246 05       		.uleb128 0x5
 2343 0247 00       		.byte	0
 2344 0248 31       		.uleb128 0x31
 2345 0249 13       		.uleb128 0x13
 2346 024a 02       		.uleb128 0x2
 2347 024b 18       		.uleb128 0x18
 2348 024c 00       		.byte	0
 2349 024d 00       		.byte	0
 2350 024e 2D       		.uleb128 0x2d
 2351 024f 2E       		.uleb128 0x2e
 2352 0250 01       		.byte	0x1
 2353 0251 31       		.uleb128 0x31
 2354 0252 13       		.uleb128 0x13
 2355 0253 11       		.uleb128 0x11
 2356 0254 01       		.uleb128 0x1
 2357 0255 12       		.uleb128 0x12
 2358 0256 06       		.uleb128 0x6
 2359 0257 40       		.uleb128 0x40
 2360 0258 18       		.uleb128 0x18
 2361 0259 9742     		.uleb128 0x2117
 2362 025b 19       		.uleb128 0x19
 2363 025c 00       		.byte	0
 2364 025d 00       		.byte	0
 2365 025e 00       		.byte	0
 2366              		.section	.debug_loc,"",%progbits
 2367              	.Ldebug_loc0:
 2368              	.LLST1:
 2369 0000 18000000 		.4byte	.LVL4
 2370 0004 1E000000 		.4byte	.LVL5
 2371 0008 0300     		.2byte	0x3
 2372 000a 91       		.byte	0x91
 2373 000b 64       		.sleb128 -28
 2374 000c 9F       		.byte	0x9f
 2375 000d 00000000 		.4byte	0
 2376 0011 00000000 		.4byte	0
 2377              	.LLST0:
 2378 0015 06000000 		.4byte	.LVL2
 2379 0019 10000000 		.4byte	.LVL3
 2380 001d 0100     		.2byte	0x1
 2381 001f 53       		.byte	0x53
 2382 0020 00000000 		.4byte	0
 2383 0024 00000000 		.4byte	0
 2384              		.section	.debug_aranges,"",%progbits
 2385 0000 34000000 		.4byte	0x34
 2386 0004 0200     		.2byte	0x2
 2387 0006 00000000 		.4byte	.Ldebug_info0
 2388 000a 04       		.byte	0x4
 2389 000b 00       		.byte	0
 2390 000c 0000     		.2byte	0
 2391 000e 0000     		.2byte	0
 2392 0010 00000000 		.4byte	.LFB118
 2393 0014 0C000000 		.4byte	.LFE118-.LFB118
 2394 0018 00000000 		.4byte	.LFB119
ARM GAS  /tmp/ccRNJlvF.s 			page 43


 2395 001c 38000000 		.4byte	.LFE119-.LFB119
 2396 0020 00000000 		.4byte	.LFB120
 2397 0024 40000000 		.4byte	.LFE120-.LFB120
 2398 0028 00000000 		.4byte	.LFB121
 2399 002c 20000000 		.4byte	.LFE121-.LFB121
 2400 0030 00000000 		.4byte	0
 2401 0034 00000000 		.4byte	0
 2402              		.section	.debug_ranges,"",%progbits
 2403              	.Ldebug_ranges0:
 2404 0000 04000000 		.4byte	.LBB8
 2405 0004 0C000000 		.4byte	.LBE8
 2406 0008 0E000000 		.4byte	.LBB13
 2407 000c 12000000 		.4byte	.LBE13
 2408 0010 1A000000 		.4byte	.LBB19
 2409 0014 1C000000 		.4byte	.LBE19
 2410 0018 20000000 		.4byte	.LBB21
 2411 001c 22000000 		.4byte	.LBE21
 2412 0020 00000000 		.4byte	0
 2413 0024 00000000 		.4byte	0
 2414 0028 14000000 		.4byte	.LBB14
 2415 002c 16000000 		.4byte	.LBE14
 2416 0030 18000000 		.4byte	.LBB18
 2417 0034 1A000000 		.4byte	.LBE18
 2418 0038 1C000000 		.4byte	.LBB20
 2419 003c 1E000000 		.4byte	.LBE20
 2420 0040 00000000 		.4byte	0
 2421 0044 00000000 		.4byte	0
 2422 0048 00000000 		.4byte	.LFB118
 2423 004c 0C000000 		.4byte	.LFE118
 2424 0050 00000000 		.4byte	.LFB119
 2425 0054 38000000 		.4byte	.LFE119
 2426 0058 00000000 		.4byte	.LFB120
 2427 005c 40000000 		.4byte	.LFE120
 2428 0060 00000000 		.4byte	.LFB121
 2429 0064 20000000 		.4byte	.LFE121
 2430 0068 00000000 		.4byte	0
 2431 006c 00000000 		.4byte	0
 2432              		.section	.debug_line,"",%progbits
 2433              	.Ldebug_line0:
 2434 0000 03030000 		.section	.debug_str,"MS",%progbits,1
 2434      02007A02 
 2434      00000201 
 2434      FB0E0D00 
 2434      01010101 
 2435              	.LASF151:
 2436 0000 73746D33 		.ascii	"stm32_gpio_setup_t\000"
 2436      325F6770 
 2436      696F5F73 
 2436      65747570 
 2436      5F7400
 2437              	.LASF102:
 2438 0013 63665F6F 		.ascii	"cf_off_older\000"
 2438      66665F6F 
 2438      6C646572 
 2438      00
 2439              	.LASF66:
 2440 0020 56697274 		.ascii	"VirtualTimer\000"
ARM GAS  /tmp/ccRNJlvF.s 			page 44


 2440      75616C54 
 2440      696D6572 
 2440      00
 2441              	.LASF128:
 2442 002d 4D304152 		.ascii	"M0AR\000"
 2442      00
 2443              	.LASF42:
 2444 0032 705F7469 		.ascii	"p_time\000"
 2444      6D6500
 2445              	.LASF87:
 2446 0039 7264796D 		.ascii	"rdymsg\000"
 2446      736700
 2447              	.LASF18:
 2448 0040 75696E74 		.ascii	"uint64_t\000"
 2448      36345F74 
 2448      00
 2449              	.LASF136:
 2450 0049 76656374 		.ascii	"vector\000"
 2450      6F7200
 2451              	.LASF4:
 2452 0050 5F5F7569 		.ascii	"__uint8_t\000"
 2452      6E74385F 
 2452      7400
 2453              	.LASF146:
 2454 005a 6F747970 		.ascii	"otyper\000"
 2454      657200
 2455              	.LASF131:
 2456 0061 68616C72 		.ascii	"halrtcnt_t\000"
 2456      74636E74 
 2456      5F7400
 2457              	.LASF164:
 2458 006c 474E5520 		.ascii	"GNU C99 7.3.1 20180622 (release) [ARM/embedded-7-br"
 2458      43393920 
 2458      372E332E 
 2458      31203230 
 2458      31383036 
 2459 009f 616E6368 		.ascii	"anch revision 261907] -mcpu=cortex-m4 -mfloat-abi=h"
 2459      20726576 
 2459      6973696F 
 2459      6E203236 
 2459      31393037 
 2460 00d2 61726420 		.ascii	"ard -mfpu=fpv4-sp-d16 -mno-thumb-interwork -mthumb "
 2460      2D6D6670 
 2460      753D6670 
 2460      76342D73 
 2460      702D6431 
 2461 0105 2D676764 		.ascii	"-ggdb -O2 -std=gnu99 -fomit-frame-pointer -falign-f"
 2461      62202D4F 
 2461      32202D73 
 2461      74643D67 
 2461      6E753939 
 2462 0138 756E6374 		.ascii	"unctions=16 -ffunction-sections -fdata-sections -fn"
 2462      696F6E73 
 2462      3D313620 
 2462      2D666675 
 2462      6E637469 
 2463 016b 6F2D636F 		.ascii	"o-common -fsingle-precision-constant\000"
ARM GAS  /tmp/ccRNJlvF.s 			page 45


 2463      6D6D6F6E 
 2463      202D6673 
 2463      696E676C 
 2463      652D7072 
 2464              	.LASF132:
 2465 0190 73747265 		.ascii	"stream\000"
 2465      616D00
 2466              	.LASF143:
 2467 0197 776F7273 		.ascii	"worst\000"
 2467      7400
 2468              	.LASF159:
 2469 019d 50484461 		.ascii	"PHData\000"
 2469      746100
 2470              	.LASF13:
 2471 01a4 6C6F6E67 		.ascii	"long long unsigned int\000"
 2471      206C6F6E 
 2471      6720756E 
 2471      7369676E 
 2471      65642069 
 2472              	.LASF120:
 2473 01bb 63685F74 		.ascii	"ch_trace_buffer_t\000"
 2473      72616365 
 2473      5F627566 
 2473      6665725F 
 2473      7400
 2474              	.LASF98:
 2475 01cd 63685F74 		.ascii	"ch_threadsize\000"
 2475      68726561 
 2475      6473697A 
 2475      6500
 2476              	.LASF148:
 2477 01db 70757064 		.ascii	"pupdr\000"
 2477      7200
 2478              	.LASF88:
 2479 01e1 65786974 		.ascii	"exitcode\000"
 2479      636F6465 
 2479      00
 2480              	.LASF138:
 2481 01ea 5F73746D 		.ascii	"_stm32_dma_streams\000"
 2481      33325F64 
 2481      6D615F73 
 2481      74726561 
 2481      6D7300
 2482              	.LASF170:
 2483 01fd 746D5F73 		.ascii	"tm_stop\000"
 2483      746F7000 
 2484              	.LASF126:
 2485 0205 49544D5F 		.ascii	"ITM_RxBuffer\000"
 2485      52784275 
 2485      66666572 
 2485      00
 2486              	.LASF32:
 2487 0212 705F7072 		.ascii	"p_prio\000"
 2487      696F00
 2488              	.LASF105:
 2489 0219 63665F6F 		.ascii	"cf_off_state\000"
 2489      66665F73 
ARM GAS  /tmp/ccRNJlvF.s 			page 46


 2489      74617465 
 2489      00
 2490              	.LASF11:
 2491 0226 6C6F6E67 		.ascii	"long long int\000"
 2491      206C6F6E 
 2491      6720696E 
 2491      7400
 2492              	.LASF1:
 2493 0234 7369676E 		.ascii	"signed char\000"
 2493      65642063 
 2493      68617200 
 2494              	.LASF104:
 2495 0240 63665F6F 		.ascii	"cf_off_stklimit\000"
 2495      66665F73 
 2495      746B6C69 
 2495      6D697400 
 2496              	.LASF106:
 2497 0250 63665F6F 		.ascii	"cf_off_flags\000"
 2497      66665F66 
 2497      6C616773 
 2497      00
 2498              	.LASF49:
 2499 025d 705F6D70 		.ascii	"p_mpool\000"
 2499      6F6F6C00 
 2500              	.LASF58:
 2501 0265 43504943 		.ascii	"CPICNT\000"
 2501      4E5400
 2502              	.LASF84:
 2503 026c 6D5F7175 		.ascii	"m_queue\000"
 2503      65756500 
 2504              	.LASF145:
 2505 0274 6D6F6465 		.ascii	"moder\000"
 2505      7200
 2506              	.LASF92:
 2507 027a 63685F69 		.ascii	"ch_identifier\000"
 2507      64656E74 
 2507      69666965 
 2507      7200
 2508              	.LASF8:
 2509 0288 6C6F6E67 		.ascii	"long int\000"
 2509      20696E74 
 2509      00
 2510              	.LASF156:
 2511 0291 50454461 		.ascii	"PEData\000"
 2511      746100
 2512              	.LASF21:
 2513 0298 74737461 		.ascii	"tstate_t\000"
 2513      74655F74 
 2513      00
 2514              	.LASF113:
 2515 02a1 73655F74 		.ascii	"se_tp\000"
 2515      7000
 2516              	.LASF60:
 2517 02a7 534C4545 		.ascii	"SLEEPCNT\000"
 2517      50434E54 
 2517      00
 2518              	.LASF34:
ARM GAS  /tmp/ccRNJlvF.s 			page 47


 2519 02b0 705F6E65 		.ascii	"p_newer\000"
 2519      77657200 
 2520              	.LASF125:
 2521 02b8 5F69646C 		.ascii	"_idle_thread_wa\000"
 2521      655F7468 
 2521      72656164 
 2521      5F776100 
 2522              	.LASF117:
 2523 02c8 74625F73 		.ascii	"tb_size\000"
 2523      697A6500 
 2524              	.LASF77:
 2525 02d0 725F6E65 		.ascii	"r_newer\000"
 2525      77657200 
 2526              	.LASF52:
 2527 02d8 72656761 		.ascii	"regarm_t\000"
 2527      726D5F74 
 2527      00
 2528              	.LASF68:
 2529 02e1 76745F70 		.ascii	"vt_prev\000"
 2529      72657600 
 2530              	.LASF81:
 2531 02e9 76746C69 		.ascii	"vtlist\000"
 2531      737400
 2532              	.LASF29:
 2533 02f0 54687265 		.ascii	"Thread\000"
 2533      616400
 2534              	.LASF153:
 2535 02f7 50424461 		.ascii	"PBData\000"
 2535      746100
 2536              	.LASF112:
 2537 02fe 73655F74 		.ascii	"se_time\000"
 2537      696D6500 
 2538              	.LASF28:
 2539 0306 636E745F 		.ascii	"cnt_t\000"
 2539      7400
 2540              	.LASF37:
 2541 030c 705F7374 		.ascii	"p_stklimit\000"
 2541      6B6C696D 
 2541      697400
 2542              	.LASF0:
 2543 0317 756E7369 		.ascii	"unsigned int\000"
 2543      676E6564 
 2543      20696E74 
 2543      00
 2544              	.LASF67:
 2545 0324 76745F6E 		.ascii	"vt_next\000"
 2545      65787400 
 2546              	.LASF15:
 2547 032c 75696E74 		.ascii	"uint16_t\000"
 2547      31365F74 
 2547      00
 2548              	.LASF44:
 2549 0335 705F6D73 		.ascii	"p_msgqueue\000"
 2549      67717565 
 2549      756500
 2550              	.LASF111:
 2551 0340 63685F64 		.ascii	"ch_debug\000"
ARM GAS  /tmp/ccRNJlvF.s 			page 48


 2551      65627567 
 2551      00
 2552              	.LASF147:
 2553 0349 6F737065 		.ascii	"ospeedr\000"
 2553      65647200 
 2554              	.LASF134:
 2555 0351 69736869 		.ascii	"ishift\000"
 2555      667400
 2556              	.LASF114:
 2557 0358 73655F77 		.ascii	"se_wtobjp\000"
 2557      746F626A 
 2557      7000
 2558              	.LASF139:
 2559 0362 54696D65 		.ascii	"TimeMeasurement\000"
 2559      4D656173 
 2559      7572656D 
 2559      656E7400 
 2560              	.LASF6:
 2561 0372 73686F72 		.ascii	"short unsigned int\000"
 2561      7420756E 
 2561      7369676E 
 2561      65642069 
 2561      6E7400
 2562              	.LASF157:
 2563 0385 50464461 		.ascii	"PFData\000"
 2563      746100
 2564              	.LASF59:
 2565 038c 45584343 		.ascii	"EXCCNT\000"
 2565      4E5400
 2566              	.LASF25:
 2567 0393 6D73675F 		.ascii	"msg_t\000"
 2567      7400
 2568              	.LASF142:
 2569 0399 6C617374 		.ascii	"last\000"
 2569      00
 2570              	.LASF166:
 2571 039e 2F686F6D 		.ascii	"/home/renan/BLDC/bldc-bootloader\000"
 2571      652F7265 
 2571      6E616E2F 
 2571      424C4443 
 2571      2F626C64 
 2572              	.LASF109:
 2573 03bf 63665F6F 		.ascii	"cf_off_time\000"
 2573      66665F74 
 2573      696D6500 
 2574              	.LASF122:
 2575 03cb 6462675F 		.ascii	"dbg_isr_cnt\000"
 2575      6973725F 
 2575      636E7400 
 2576              	.LASF168:
 2577 03d7 746D4F62 		.ascii	"tmObjectInit\000"
 2577      6A656374 
 2577      496E6974 
 2577      00
 2578              	.LASF51:
 2579 03e4 54687265 		.ascii	"ThreadsList\000"
 2579      6164734C 
ARM GAS  /tmp/ccRNJlvF.s 			page 49


 2579      69737400 
 2580              	.LASF26:
 2581 03f0 6576656E 		.ascii	"eventmask_t\000"
 2581      746D6173 
 2581      6B5F7400 
 2582              	.LASF7:
 2583 03fc 5F5F696E 		.ascii	"__int32_t\000"
 2583      7433325F 
 2583      7400
 2584              	.LASF158:
 2585 0406 50474461 		.ascii	"PGData\000"
 2585      746100
 2586              	.LASF167:
 2587 040d 73746B61 		.ascii	"stkalign_t\000"
 2587      6C69676E 
 2587      5F7400
 2588              	.LASF93:
 2589 0418 63685F7A 		.ascii	"ch_zero\000"
 2589      65726F00 
 2590              	.LASF107:
 2591 0420 63665F6F 		.ascii	"cf_off_refs\000"
 2591      66665F72 
 2591      65667300 
 2592              	.LASF57:
 2593 042c 43594343 		.ascii	"CYCCNT\000"
 2593      4E5400
 2594              	.LASF69:
 2595 0433 76745F74 		.ascii	"vt_time\000"
 2595      696D6500 
 2596              	.LASF43:
 2597 043b 705F7761 		.ascii	"p_waiting\000"
 2597      6974696E 
 2597      6700
 2598              	.LASF83:
 2599 0445 4D757465 		.ascii	"Mutex\000"
 2599      7800
 2600              	.LASF97:
 2601 044b 63685F74 		.ascii	"ch_timesize\000"
 2601      696D6573 
 2601      697A6500 
 2602              	.LASF118:
 2603 0457 74625F70 		.ascii	"tb_ptr\000"
 2603      747200
 2604              	.LASF116:
 2605 045e 63685F73 		.ascii	"ch_swc_event_t\000"
 2605      77635F65 
 2605      76656E74 
 2605      5F7400
 2606              	.LASF103:
 2607 046d 63665F6F 		.ascii	"cf_off_name\000"
 2607      66665F6E 
 2607      616D6500 
 2608              	.LASF35:
 2609 0479 705F6F6C 		.ascii	"p_older\000"
 2609      64657200 
 2610              	.LASF76:
 2611 0481 725F6374 		.ascii	"r_ctx\000"
ARM GAS  /tmp/ccRNJlvF.s 			page 50


 2611      7800
 2612              	.LASF50:
 2613 0487 54687265 		.ascii	"ThreadsQueue\000"
 2613      61647351 
 2613      75657565 
 2613      00
 2614              	.LASF33:
 2615 0494 705F6374 		.ascii	"p_ctx\000"
 2615      7800
 2616              	.LASF94:
 2617 049a 63685F73 		.ascii	"ch_size\000"
 2617      697A6500 
 2618              	.LASF150:
 2619 04a2 61667268 		.ascii	"afrh\000"
 2619      00
 2620              	.LASF155:
 2621 04a7 50444461 		.ascii	"PDData\000"
 2621      746100
 2622              	.LASF79:
 2623 04ae 725F6375 		.ascii	"r_current\000"
 2623      7272656E 
 2623      7400
 2624              	.LASF78:
 2625 04b8 725F6F6C 		.ascii	"r_older\000"
 2625      64657200 
 2626              	.LASF12:
 2627 04c0 5F5F7569 		.ascii	"__uint64_t\000"
 2627      6E743634 
 2627      5F7400
 2628              	.LASF121:
 2629 04cb 6462675F 		.ascii	"dbg_trace_buffer\000"
 2629      74726163 
 2629      655F6275 
 2629      66666572 
 2629      00
 2630              	.LASF22:
 2631 04dc 74726566 		.ascii	"trefs_t\000"
 2631      735F7400 
 2632              	.LASF119:
 2633 04e4 74625F62 		.ascii	"tb_buffer\000"
 2633      75666665 
 2633      7200
 2634              	.LASF96:
 2635 04ee 63685F70 		.ascii	"ch_ptrsize\000"
 2635      74727369 
 2635      7A6500
 2636              	.LASF31:
 2637 04f9 705F7072 		.ascii	"p_prev\000"
 2637      657600
 2638              	.LASF137:
 2639 0500 73746D33 		.ascii	"stm32_dma_stream_t\000"
 2639      325F646D 
 2639      615F7374 
 2639      7265616D 
 2639      5F7400
 2640              	.LASF24:
 2641 0513 74707269 		.ascii	"tprio_t\000"
ARM GAS  /tmp/ccRNJlvF.s 			page 51


 2641      6F5F7400 
 2642              	.LASF63:
 2643 051b 50435352 		.ascii	"PCSR\000"
 2643      00
 2644              	.LASF56:
 2645 0520 4354524C 		.ascii	"CTRL\000"
 2645      00
 2646              	.LASF19:
 2647 0525 5F426F6F 		.ascii	"_Bool\000"
 2647      6C00
 2648              	.LASF16:
 2649 052b 696E7433 		.ascii	"int32_t\000"
 2649      325F7400 
 2650              	.LASF2:
 2651 0533 756E7369 		.ascii	"unsigned char\000"
 2651      676E6564 
 2651      20636861 
 2651      7200
 2652              	.LASF124:
 2653 0541 6462675F 		.ascii	"dbg_panic_msg\000"
 2653      70616E69 
 2653      635F6D73 
 2653      6700
 2654              	.LASF149:
 2655 054f 6166726C 		.ascii	"afrl\000"
 2655      00
 2656              	.LASF47:
 2657 0554 705F6D74 		.ascii	"p_mtxlist\000"
 2657      786C6973 
 2657      7400
 2658              	.LASF3:
 2659 055e 73686F72 		.ascii	"short int\000"
 2659      7420696E 
 2659      7400
 2660              	.LASF38:
 2661 0568 705F7374 		.ascii	"p_state\000"
 2661      61746500 
 2662              	.LASF41:
 2663 0570 705F7072 		.ascii	"p_preempt\000"
 2663      65656D70 
 2663      7400
 2664              	.LASF75:
 2665 057a 725F7072 		.ascii	"r_prio\000"
 2665      696F00
 2666              	.LASF152:
 2667 0581 50414461 		.ascii	"PAData\000"
 2667      746100
 2668              	.LASF90:
 2669 0588 65776D61 		.ascii	"ewmask\000"
 2669      736B00
 2670              	.LASF30:
 2671 058f 705F6E65 		.ascii	"p_next\000"
 2671      787400
 2672              	.LASF20:
 2673 0596 746D6F64 		.ascii	"tmode_t\000"
 2673      655F7400 
 2674              	.LASF108:
ARM GAS  /tmp/ccRNJlvF.s 			page 52


 2675 059e 63665F6F 		.ascii	"cf_off_preempt\000"
 2675      66665F70 
 2675      7265656D 
 2675      707400
 2676              	.LASF39:
 2677 05ad 705F666C 		.ascii	"p_flags\000"
 2677      61677300 
 2678              	.LASF160:
 2679 05b5 50494461 		.ascii	"PIData\000"
 2679      746100
 2680              	.LASF101:
 2681 05bc 63665F6F 		.ascii	"cf_off_newer\000"
 2681      66665F6E 
 2681      65776572 
 2681      00
 2682              	.LASF46:
 2683 05c9 705F6570 		.ascii	"p_epending\000"
 2683      656E6469 
 2683      6E6700
 2684              	.LASF133:
 2685 05d4 69666372 		.ascii	"ifcr\000"
 2685      00
 2686              	.LASF61:
 2687 05d9 4C535543 		.ascii	"LSUCNT\000"
 2687      4E5400
 2688              	.LASF17:
 2689 05e0 75696E74 		.ascii	"uint32_t\000"
 2689      33325F74 
 2689      00
 2690              	.LASF99:
 2691 05e9 63665F6F 		.ascii	"cf_off_prio\000"
 2691      66665F70 
 2691      72696F00 
 2692              	.LASF74:
 2693 05f5 725F7175 		.ascii	"r_queue\000"
 2693      65756500 
 2694              	.LASF169:
 2695 05fd 746D496E 		.ascii	"tmInit\000"
 2695      697400
 2696              	.LASF23:
 2697 0604 74736C69 		.ascii	"tslices_t\000"
 2697      6365735F 
 2697      7400
 2698              	.LASF10:
 2699 060e 6C6F6E67 		.ascii	"long unsigned int\000"
 2699      20756E73 
 2699      69676E65 
 2699      6420696E 
 2699      7400
 2700              	.LASF91:
 2701 0620 63686172 		.ascii	"char\000"
 2701      00
 2702              	.LASF55:
 2703 0625 494F5245 		.ascii	"IOREG32\000"
 2703      47333200 
 2704              	.LASF5:
 2705 062d 5F5F7569 		.ascii	"__uint16_t\000"
ARM GAS  /tmp/ccRNJlvF.s 			page 53


 2705      6E743136 
 2705      5F7400
 2706              	.LASF144:
 2707 0638 62657374 		.ascii	"best\000"
 2707      00
 2708              	.LASF86:
 2709 063d 6D5F6E65 		.ascii	"m_next\000"
 2709      787400
 2710              	.LASF27:
 2711 0644 73797374 		.ascii	"systime_t\000"
 2711      696D655F 
 2711      7400
 2712              	.LASF48:
 2713 064e 705F7265 		.ascii	"p_realprio\000"
 2713      616C7072 
 2713      696F00
 2714              	.LASF65:
 2715 0659 76746675 		.ascii	"vtfunc_t\000"
 2715      6E635F74 
 2715      00
 2716              	.LASF9:
 2717 0662 5F5F7569 		.ascii	"__uint32_t\000"
 2717      6E743332 
 2717      5F7400
 2718              	.LASF127:
 2719 066d 4E445452 		.ascii	"NDTR\000"
 2719      00
 2720              	.LASF123:
 2721 0672 6462675F 		.ascii	"dbg_lock_cnt\000"
 2721      6C6F636B 
 2721      5F636E74 
 2721      00
 2722              	.LASF130:
 2723 067f 444D415F 		.ascii	"DMA_Stream_TypeDef\000"
 2723      53747265 
 2723      616D5F54 
 2723      79706544 
 2723      656600
 2724              	.LASF54:
 2725 0692 636F6E74 		.ascii	"context\000"
 2725      65787400 
 2726              	.LASF62:
 2727 069a 464F4C44 		.ascii	"FOLDCNT\000"
 2727      434E5400 
 2728              	.LASF45:
 2729 06a2 705F6D73 		.ascii	"p_msg\000"
 2729      6700
 2730              	.LASF53:
 2731 06a8 696E7463 		.ascii	"intctx\000"
 2731      747800
 2732              	.LASF129:
 2733 06af 4D314152 		.ascii	"M1AR\000"
 2733      00
 2734              	.LASF135:
 2735 06b4 73656C66 		.ascii	"selfindex\000"
 2735      696E6465 
 2735      7800
ARM GAS  /tmp/ccRNJlvF.s 			page 54


 2736              	.LASF71:
 2737 06be 76745F70 		.ascii	"vt_par\000"
 2737      617200
 2738              	.LASF163:
 2739 06c5 6D656173 		.ascii	"measurement_offset\000"
 2739      7572656D 
 2739      656E745F 
 2739      6F666673 
 2739      657400
 2740              	.LASF100:
 2741 06d8 63665F6F 		.ascii	"cf_off_ctx\000"
 2741      66665F63 
 2741      747800
 2742              	.LASF40:
 2743 06e3 705F7265 		.ascii	"p_refs\000"
 2743      667300
 2744              	.LASF80:
 2745 06ea 52656164 		.ascii	"ReadyList\000"
 2745      794C6973 
 2745      7400
 2746              	.LASF115:
 2747 06f4 73655F73 		.ascii	"se_state\000"
 2747      74617465 
 2747      00
 2748              	.LASF82:
 2749 06fd 726C6973 		.ascii	"rlist\000"
 2749      7400
 2750              	.LASF64:
 2751 0703 434D785F 		.ascii	"CMx_DWT\000"
 2751      44575400 
 2752              	.LASF14:
 2753 070b 75696E74 		.ascii	"uint8_t\000"
 2753      385F7400 
 2754              	.LASF165:
 2755 0713 43686962 		.ascii	"ChibiOS_2.6.6/os/hal/src/tm.c\000"
 2755      694F535F 
 2755      322E362E 
 2755      362F6F73 
 2755      2F68616C 
 2756              	.LASF89:
 2757 0731 77746F62 		.ascii	"wtobjp\000"
 2757      6A7000
 2758              	.LASF36:
 2759 0738 705F6E61 		.ascii	"p_name\000"
 2759      6D6500
 2760              	.LASF154:
 2761 073f 50434461 		.ascii	"PCData\000"
 2761      746100
 2762              	.LASF72:
 2763 0746 76745F73 		.ascii	"vt_systime\000"
 2763      79737469 
 2763      6D6500
 2764              	.LASF95:
 2765 0751 63685F76 		.ascii	"ch_version\000"
 2765      65727369 
 2765      6F6E00
 2766              	.LASF140:
ARM GAS  /tmp/ccRNJlvF.s 			page 55


 2767 075c 73746172 		.ascii	"start\000"
 2767      7400
 2768              	.LASF73:
 2769 0762 56544C69 		.ascii	"VTList\000"
 2769      737400
 2770              	.LASF141:
 2771 0769 73746F70 		.ascii	"stop\000"
 2771      00
 2772              	.LASF161:
 2773 076e 50414C43 		.ascii	"PALConfig\000"
 2773      6F6E6669 
 2773      6700
 2774              	.LASF85:
 2775 0778 6D5F6F77 		.ascii	"m_owner\000"
 2775      6E657200 
 2776              	.LASF171:
 2777 0780 746D5F73 		.ascii	"tm_start\000"
 2777      74617274 
 2777      00
 2778              	.LASF110:
 2779 0789 63686465 		.ascii	"chdebug_t\000"
 2779      6275675F 
 2779      7400
 2780              	.LASF162:
 2781 0793 70616C5F 		.ascii	"pal_default_config\000"
 2781      64656661 
 2781      756C745F 
 2781      636F6E66 
 2781      696700
 2782              	.LASF70:
 2783 07a6 76745F66 		.ascii	"vt_func\000"
 2783      756E6300 
 2784              		.ident	"GCC: (GNU Tools for Arm Embedded Processors 7-2018-q3-update) 7.3.1 20180622 (release) [AR
ARM GAS  /tmp/ccRNJlvF.s 			page 56


DEFINED SYMBOLS
                            *ABS*:0000000000000000 tm.c
     /tmp/ccRNJlvF.s:18     .text.tm_start:0000000000000000 $t
     /tmp/ccRNJlvF.s:25     .text.tm_start:0000000000000000 tm_start
     /tmp/ccRNJlvF.s:43     .text.tm_start:0000000000000008 $d
     /tmp/ccRNJlvF.s:48     .text.tm_stop:0000000000000000 $t
     /tmp/ccRNJlvF.s:55     .text.tm_stop:0000000000000000 tm_stop
     /tmp/ccRNJlvF.s:115    .text.tm_stop:0000000000000030 $d
     /tmp/ccRNJlvF.s:121    .text.tmInit:0000000000000000 $t
     /tmp/ccRNJlvF.s:129    .text.tmInit:0000000000000000 tmInit
     /tmp/ccRNJlvF.s:210    .text.tmInit:0000000000000030 $d
     /tmp/ccRNJlvF.s:218    .text.tmObjectInit:0000000000000000 $t
     /tmp/ccRNJlvF.s:226    .text.tmObjectInit:0000000000000000 tmObjectInit
     /tmp/ccRNJlvF.s:255    .text.tmObjectInit:0000000000000018 $d
     /tmp/ccRNJlvF.s:261    .bss.measurement_offset:0000000000000000 $d
     /tmp/ccRNJlvF.s:265    .bss.measurement_offset:0000000000000000 measurement_offset

NO UNDEFINED SYMBOLS
