ARM GAS  /tmp/ccRNJlvF.s 			page 1


   1              		.cpu cortex-m4
   2              		.eabi_attribute 27, 1
   3              		.eabi_attribute 28, 1
   4              		.eabi_attribute 20, 1
   5              		.eabi_attribute 21, 1
   6              		.eabi_attribute 23, 3
   7              		.eabi_attribute 24, 1
   8              		.eabi_attribute 25, 1
   9              		.eabi_attribute 26, 1
  10              		.eabi_attribute 30, 2
  11              		.eabi_attribute 34, 1
  12              		.eabi_attribute 18, 4
  13              		.file	"tm.c"
  14              		.text
  15              	.Ltext0:
  16              		.cfi_sections	.debug_frame
  17              		.section	.text.tm_start,"ax",%progbits
  18              		.align	1
  19              		.p2align 4,,15
  20              		.syntax unified
  21              		.thumb
  22              		.thumb_func
  23              		.fpu fpv4-sp-d16
  24              		.type	tm_start, %function
  25              	tm_start:
  26              	.LFB118:
  27              		.file 1 "ChibiOS_2.6.6/os/hal/src/tm.c"
  28              		.loc 1 69 0
  29              		.cfi_startproc
  30              		@ args = 0, pretend = 0, frame = 0
  31              		@ frame_needed = 0, uses_anonymous_args = 0
  32              		@ link register save eliminated.
  33              	.LVL0:
  34              		.loc 1 71 0
  35 0000 014B     		ldr	r3, .L3
  36 0002 5B68     		ldr	r3, [r3, #4]
  37 0004 8360     		str	r3, [r0, #8]
  38              		.loc 1 72 0
  39 0006 7047     		bx	lr
  40              	.L4:
  41              		.align	2
  42              	.L3:
  43 0008 001000E0 		.word	-536866816
  44              		.cfi_endproc
  45              	.LFE118:
  46              		.size	tm_start, .-tm_start
  47              		.section	.text.tm_stop,"ax",%progbits
  48              		.align	1
  49              		.p2align 4,,15
  50              		.syntax unified
  51              		.thumb
  52              		.thumb_func
  53              		.fpu fpv4-sp-d16
  54              		.type	tm_stop, %function
  55              	tm_stop:
  56              	.LFB119:
  57              		.loc 1 81 0
ARM GAS  /tmp/ccRNJlvF.s 			page 2


  58              		.cfi_startproc
  59              		@ args = 0, pretend = 0, frame = 0
  60              		@ frame_needed = 0, uses_anonymous_args = 0
  61              		@ link register save eliminated.
  62              	.LVL1:
  63              		.loc 1 83 0
  64 0000 0B4B     		ldr	r3, .L10
  65              		.loc 1 84 0
  66 0002 0C4A     		ldr	r2, .L10+4
  67              		.loc 1 83 0
  68 0004 5B68     		ldr	r3, [r3, #4]
  69              	.LVL2:
  70              		.loc 1 84 0
  71 0006 1168     		ldr	r1, [r2]
  72              		.loc 1 85 0
  73 0008 C268     		ldr	r2, [r0, #12]
  74              		.loc 1 81 0
  75 000a 10B4     		push	{r4}
  76              		.cfi_def_cfa_offset 4
  77              		.cfi_offset 4, -4
  78              		.loc 1 84 0
  79 000c 8468     		ldr	r4, [r0, #8]
  80 000e 1B1B     		subs	r3, r3, r4
  81              	.LVL3:
  82 0010 5B1A     		subs	r3, r3, r1
  83              		.loc 1 85 0
  84 0012 9342     		cmp	r3, r2
  85              		.loc 1 84 0
  86 0014 8360     		str	r3, [r0, #8]
  87              		.loc 1 85 0
  88 0016 06D8     		bhi	.L9
  89              		.loc 1 87 0
  90 0018 0269     		ldr	r2, [r0, #16]
  91              		.loc 1 89 0
  92 001a 5DF8044B 		ldr	r4, [sp], #4
  93              		.cfi_remember_state
  94              		.cfi_restore 4
  95              		.cfi_def_cfa_offset 0
  96              		.loc 1 87 0
  97 001e 9342     		cmp	r3, r2
  98              		.loc 1 88 0
  99 0020 38BF     		it	cc
 100 0022 0361     		strcc	r3, [r0, #16]
 101              		.loc 1 89 0
 102 0024 7047     		bx	lr
 103              	.L9:
 104              		.cfi_restore_state
 105              		.loc 1 86 0
 106 0026 C360     		str	r3, [r0, #12]
 107              		.loc 1 89 0
 108 0028 5DF8044B 		ldr	r4, [sp], #4
 109              		.cfi_restore 4
 110              		.cfi_def_cfa_offset 0
 111 002c 7047     		bx	lr
 112              	.L11:
 113 002e 00BF     		.align	2
 114              	.L10:
ARM GAS  /tmp/ccRNJlvF.s 			page 3


 115 0030 001000E0 		.word	-536866816
 116 0034 00000000 		.word	.LANCHOR0
 117              		.cfi_endproc
 118              	.LFE119:
 119              		.size	tm_stop, .-tm_stop
 120              		.section	.text.tmInit,"ax",%progbits
 121              		.align	1
 122              		.p2align 4,,15
 123              		.global	tmInit
 124              		.syntax unified
 125              		.thumb
 126              		.thumb_func
 127              		.fpu fpv4-sp-d16
 128              		.type	tmInit, %function
 129              	tmInit:
 130              	.LFB120:
 131              		.loc 1 104 0
 132              		.cfi_startproc
 133              		@ args = 0, pretend = 0, frame = 24
 134              		@ frame_needed = 0, uses_anonymous_args = 0
 135 0000 10B5     		push	{r4, lr}
 136              		.cfi_def_cfa_offset 8
 137              		.cfi_offset 4, -8
 138              		.cfi_offset 14, -4
 139 0002 86B0     		sub	sp, sp, #24
 140              		.cfi_def_cfa_offset 32
 141              	.LBB8:
 142              	.LBB9:
 143              		.loc 1 126 0
 144 0004 0A4B     		ldr	r3, .L14
 145 0006 0193     		str	r3, [sp, #4]
 146              		.loc 1 130 0
 147 0008 4FF0FF30 		mov	r0, #-1
 148              	.LBE9:
 149              	.LBE8:
 150              		.loc 1 110 0
 151 000c 0023     		movs	r3, #0
 152              	.LBB13:
 153              	.LBB10:
 154              		.loc 1 130 0
 155 000e CDE90430 		strd	r3, r0, [sp, #16]
 156              	.LBE10:
 157              	.LBE13:
 158              		.loc 1 110 0
 159 0012 084C     		ldr	r4, .L14+4
 160              	.LBB14:
 161              	.LBB15:
 162              		.loc 1 71 0
 163 0014 0849     		ldr	r1, .L14+8
 164              	.LBE15:
 165              	.LBE14:
 166              		.loc 1 110 0
 167 0016 2360     		str	r3, [r4]
 168              	.LVL4:
 169              	.LBB18:
 170              	.LBB16:
 171              		.loc 1 71 0
ARM GAS  /tmp/ccRNJlvF.s 			page 4


 172 0018 4B68     		ldr	r3, [r1, #4]
 173              	.LBE16:
 174              	.LBE18:
 175              	.LBB19:
 176              	.LBB11:
 177              		.loc 1 127 0
 178 001a 084A     		ldr	r2, .L14+12
 179              	.LBE11:
 180              	.LBE19:
 181              	.LBB20:
 182              	.LBB17:
 183              		.loc 1 71 0
 184 001c 0393     		str	r3, [sp, #12]
 185              	.LVL5:
 186              	.LBE17:
 187              	.LBE20:
 188              		.loc 1 113 0
 189 001e 01A8     		add	r0, sp, #4
 190              	.LBB21:
 191              	.LBB12:
 192              		.loc 1 127 0
 193 0020 0292     		str	r2, [sp, #8]
 194              	.LBE12:
 195              	.LBE21:
 196              		.loc 1 113 0
 197 0022 FFF7FEFF 		bl	tm_stop
 198              	.LVL6:
 199              		.loc 1 114 0
 200 0026 039B     		ldr	r3, [sp, #12]
 201 0028 2360     		str	r3, [r4]
 202              		.loc 1 115 0
 203 002a 06B0     		add	sp, sp, #24
 204              		.cfi_def_cfa_offset 8
 205              		@ sp needed
 206 002c 10BD     		pop	{r4, pc}
 207              	.L15:
 208 002e 00BF     		.align	2
 209              	.L14:
 210 0030 00000000 		.word	tm_start
 211 0034 00000000 		.word	.LANCHOR0
 212 0038 001000E0 		.word	-536866816
 213 003c 00000000 		.word	tm_stop
 214              		.cfi_endproc
 215              	.LFE120:
 216              		.size	tmInit, .-tmInit
 217              		.section	.text.tmObjectInit,"ax",%progbits
 218              		.align	1
 219              		.p2align 4,,15
 220              		.global	tmObjectInit
 221              		.syntax unified
 222              		.thumb
 223              		.thumb_func
 224              		.fpu fpv4-sp-d16
 225              		.type	tmObjectInit, %function
 226              	tmObjectInit:
 227              	.LFB121:
 228              		.loc 1 124 0
ARM GAS  /tmp/ccRNJlvF.s 			page 5


 229              		.cfi_startproc
 230              		@ args = 0, pretend = 0, frame = 0
 231              		@ frame_needed = 0, uses_anonymous_args = 0
 232              		@ link register save eliminated.
 233              	.LVL7:
 234              		.loc 1 126 0
 235 0000 054B     		ldr	r3, .L17
 236              		.loc 1 127 0
 237 0002 0649     		ldr	r1, .L17+4
 238              		.loc 1 126 0
 239 0004 0360     		str	r3, [r0]
 240              		.loc 1 130 0
 241 0006 4FF0FF32 		mov	r2, #-1
 242              		.loc 1 128 0
 243 000a 0023     		movs	r3, #0
 244              		.loc 1 127 0
 245 000c 4160     		str	r1, [r0, #4]
 246              		.loc 1 130 0
 247 000e 0261     		str	r2, [r0, #16]
 248              		.loc 1 129 0
 249 0010 C0E90233 		strd	r3, r3, [r0, #8]
 250              		.loc 1 131 0
 251 0014 7047     		bx	lr
 252              	.L18:
 253 0016 00BF     		.align	2
 254              	.L17:
 255 0018 00000000 		.word	tm_start
 256 001c 00000000 		.word	tm_stop
 257              		.cfi_endproc
 258              	.LFE121:
 259              		.size	tmObjectInit, .-tmObjectInit
 260              		.section	.bss.measurement_offset,"aw",%nobits
 261              		.align	2
 262              		.set	.LANCHOR0,. + 0
 263              		.type	measurement_offset, %object
 264              		.size	measurement_offset, 4
 265              	measurement_offset:
 266 0000 00000000 		.space	4
 267              		.text
 268              	.Letext0:
 269              		.file 2 "/usr/arm-none-eabi/include/machine/_default_types.h"
 270              		.file 3 "/usr/arm-none-eabi/include/sys/_stdint.h"
 271              		.file 4 "ChibiOS_2.6.6/os/ports/GCC/ARMCMx/chtypes.h"
 272              		.file 5 "ChibiOS_2.6.6/os/kernel/include/chlists.h"
 273              		.file 6 "ChibiOS_2.6.6/os/kernel/include/chthreads.h"
 274              		.file 7 "ChibiOS_2.6.6/os/ports/GCC/ARMCMx/chcore_v7m.h"
 275              		.file 8 "ChibiOS_2.6.6/os/ports/common/ARMCMx/nvic.h"
 276              		.file 9 "ChibiOS_2.6.6/os/kernel/include/chvt.h"
 277              		.file 10 "ChibiOS_2.6.6/os/kernel/include/chschd.h"
 278              		.file 11 "ChibiOS_2.6.6/os/kernel/include/chmtx.h"
 279              		.file 12 "ChibiOS_2.6.6/os/kernel/include/chregistry.h"
 280              		.file 13 "ChibiOS_2.6.6/os/kernel/include/chdebug.h"
 281              		.file 14 "ChibiOS_2.6.6/os/kernel/include/ch.h"
 282              		.file 15 "ChibiOS_2.6.6/os/ports/common/ARMCMx/CMSIS/include/core_cm4.h"
 283              		.file 16 "ChibiOS_2.6.6/os/hal/platforms/STM32F4xx/stm32f4xx.h"
 284              		.file 17 "ChibiOS_2.6.6/os/hal/platforms/STM32F4xx/hal_lld.h"
 285              		.file 18 "ChibiOS_2.6.6/os/hal/platforms/STM32F4xx/stm32_dma.h"
ARM GAS  /tmp/ccRNJlvF.s 			page 6


 286              		.file 19 "ChibiOS_2.6.6/os/hal/include/tm.h"
 287              		.file 20 "ChibiOS_2.6.6/os/hal/platforms/STM32/GPIOv2/pal_lld.h"