ARM GAS  /tmp/ccNB7EOw.s 			page 1


   1              		.cpu cortex-m4
   2              		.eabi_attribute 27, 1
   3              		.eabi_attribute 28, 1
   4              		.eabi_attribute 20, 1
   5              		.eabi_attribute 21, 1
   6              		.eabi_attribute 23, 3
   7              		.eabi_attribute 24, 1
   8              		.eabi_attribute 25, 1
   9              		.eabi_attribute 26, 1
  10              		.eabi_attribute 30, 2
  11              		.eabi_attribute 34, 1
  12              		.eabi_attribute 18, 4
  13              		.file	"app_uartcomm.c"
  14              		.text
  15              	.Ltext0:
  16              		.cfi_sections	.debug_frame
  17              		.section	.text.txend1,"ax",%progbits
  18              		.align	1
  19              		.p2align 4,,15
  20              		.syntax unified
  21              		.thumb
  22              		.thumb_func
  23              		.fpu fpv4-sp-d16
  24              		.type	txend1, %function
  25              	txend1:
  26              	.LFB256:
  27              		.file 1 "applications/app_uartcomm.c"
  28              		.loc 1 54 0
  29              		.cfi_startproc
  30              		@ args = 0, pretend = 0, frame = 0
  31              		@ frame_needed = 0, uses_anonymous_args = 0
  32              		@ link register save eliminated.
  33              	.LVL0:
  34              		.loc 1 56 0
  35 0000 7047     		bx	lr
  36              		.cfi_endproc
  37              	.LFE256:
  38              		.size	txend1, .-txend1
  39 0002 00BF     		.section	.text.rxerr,"ax",%progbits
  40              		.align	1
  41              		.p2align 4,,15
  42              		.syntax unified
  43              		.thumb
  44              		.thumb_func
  45              		.fpu fpv4-sp-d16
  46              		.type	rxerr, %function
  47              	rxerr:
  48              	.LFB258:
  49              		.loc 1 69 0
  50              		.cfi_startproc
  51              		@ args = 0, pretend = 0, frame = 0
  52              		@ frame_needed = 0, uses_anonymous_args = 0
  53              		@ link register save eliminated.
  54              	.LVL1:
  55              		.loc 1 72 0
  56 0000 7047     		bx	lr
  57              		.cfi_endproc
ARM GAS  /tmp/ccNB7EOw.s 			page 2


  58              	.LFE258:
  59              		.size	rxerr, .-rxerr
  60 0002 00BF     		.section	.text.rxchar,"ax",%progbits
  61              		.align	1
  62              		.p2align 4,,15
  63              		.syntax unified
  64              		.thumb
  65              		.thumb_func
  66              		.fpu fpv4-sp-d16
  67              		.type	rxchar, %function
  68              	rxchar:
  69              	.LFB259:
  70              		.loc 1 78 0
  71              		.cfi_startproc
  72              		@ args = 0, pretend = 0, frame = 0
  73              		@ frame_needed = 0, uses_anonymous_args = 0
  74              	.LVL2:
  75              		.loc 1 80 0
  76 0000 0B4B     		ldr	r3, .L7
  77 0002 1868     		ldr	r0, [r3]
  78              	.LVL3:
  79 0004 421C     		adds	r2, r0, #1
  80              		.loc 1 78 0
  81 0006 10B5     		push	{r4, lr}
  82              		.cfi_def_cfa_offset 8
  83              		.cfi_offset 4, -8
  84              		.cfi_offset 14, -4
  85              		.loc 1 82 0
  86 0008 B2F5806F 		cmp	r2, #1024
  87              		.loc 1 80 0
  88 000c 094C     		ldr	r4, .L7+4
  89 000e 1A60     		str	r2, [r3]
  90              		.loc 1 83 0
  91 0010 04BF     		itt	eq
  92 0012 0022     		moveq	r2, #0
  93 0014 1A60     		streq	r2, [r3]
  94              		.loc 1 80 0
  95 0016 2154     		strb	r1, [r4, r0]
  96              	.LBB40:
  97              	.LBB41:
  98              	.LBB42:
  99              	.LBB43:
 100              	.LBB44:
 101              		.file 2 "ChibiOS_3.0.2/os/ext/CMSIS/include/core_cmFunc.h"
 102              		.loc 2 546 0
 103 0018 2023     		movs	r3, #32
 104              		.syntax unified
 105              	@ 546 "ChibiOS_3.0.2/os/ext/CMSIS/include/core_cmFunc.h" 1
 106 001a 83F31188 		MSR basepri, r3
 107              	@ 0 "" 2
 108              	.LVL4:
 109              		.thumb
 110              		.syntax unified
 111              	.LBE44:
 112              	.LBE43:
 113              	.LBE42:
 114              	.LBE41:
ARM GAS  /tmp/ccNB7EOw.s 			page 3


 115              	.LBE40:
 116              		.loc 1 87 0
 117 001e 064B     		ldr	r3, .L7+8
 118 0020 0121     		movs	r1, #1
 119              	.LVL5:
 120 0022 1868     		ldr	r0, [r3]
 121 0024 FFF7FEFF 		bl	chEvtSignalI
 122              	.LVL6:
 123              	.LBB45:
 124              	.LBB46:
 125              	.LBB47:
 126              	.LBB48:
 127              	.LBB49:
 128              		.loc 2 546 0
 129 0028 0023     		movs	r3, #0
 130              		.syntax unified
 131              	@ 546 "ChibiOS_3.0.2/os/ext/CMSIS/include/core_cmFunc.h" 1
 132 002a 83F31188 		MSR basepri, r3
 133              	@ 0 "" 2
 134              	.LVL7:
 135              		.thumb
 136              		.syntax unified
 137              	.LBE49:
 138              	.LBE48:
 139              	.LBE47:
 140              	.LBE46:
 141              	.LBE45:
 142              		.loc 1 89 0
 143 002e 10BD     		pop	{r4, pc}
 144              	.L8:
 145              		.align	2
 146              	.L7:
 147 0030 00000000 		.word	.LANCHOR0
 148 0034 00000000 		.word	.LANCHOR1
 149 0038 00000000 		.word	.LANCHOR2
 150              		.cfi_endproc
 151              	.LFE259:
 152              		.size	rxchar, .-rxchar
 153              		.section	.text.packet_process_thread,"ax",%progbits
 154              		.align	1
 155              		.p2align 4,,15
 156              		.syntax unified
 157              		.thumb
 158              		.thumb_func
 159              		.fpu fpv4-sp-d16
 160              		.type	packet_process_thread, %function
 161              	packet_process_thread:
 162              	.LFB267:
 163              		.loc 1 172 0
 164              		.cfi_startproc
 165              		@ Volatile: function does not return.
 166              		@ args = 0, pretend = 0, frame = 0
 167              		@ frame_needed = 0, uses_anonymous_args = 0
 168              	.LVL8:
 169              	.LBB50:
 170              	.LBB51:
 171              		.file 3 "ChibiOS_3.0.2/os/rt/include/chregistry.h"
ARM GAS  /tmp/ccNB7EOw.s 			page 4


 172              		.loc 3 135 0
 173 0000 114B     		ldr	r3, .L16
 174              	.LBE51:
 175              	.LBE50:
 176              		.loc 1 177 0
 177 0002 124A     		ldr	r2, .L16+4
 178              	.LBB54:
 179              	.LBB52:
 180              		.loc 3 135 0
 181 0004 9B69     		ldr	r3, [r3, #24]
 182 0006 1249     		ldr	r1, .L16+8
 183 0008 124C     		ldr	r4, .L16+12
 184 000a 134E     		ldr	r6, .L16+16
 185              	.LBE52:
 186              	.LBE54:
 187              		.loc 1 172 0
 188 000c 80B5     		push	{r7, lr}
 189              		.cfi_def_cfa_offset 8
 190              		.cfi_offset 7, -8
 191              		.cfi_offset 14, -4
 192 000e 134F     		ldr	r7, .L16+20
 193              	.LBB55:
 194              	.LBB53:
 195              		.loc 3 135 0
 196 0010 9961     		str	r1, [r3, #24]
 197              	.LVL9:
 198              	.LBE53:
 199              	.LBE55:
 200              		.loc 1 177 0
 201 0012 1360     		str	r3, [r2]
 202              		.loc 1 186 0
 203 0014 4FF00008 		mov	r8, #0
 204              	.LVL10:
 205              	.L13:
 206              		.loc 1 180 0
 207 0018 0120     		movs	r0, #1
 208 001a FFF7FEFF 		bl	chEvtWaitAny
 209              	.LVL11:
 210 001e 2368     		ldr	r3, [r4]
 211              	.L11:
 212              		.loc 1 182 0
 213 0020 3268     		ldr	r2, [r6]
 214 0022 9A42     		cmp	r2, r3
 215              		.loc 1 183 0
 216 0024 03F10105 		add	r5, r3, #1
 217 0028 4FF00101 		mov	r1, #1
 218              		.loc 1 182 0
 219 002c F4D0     		beq	.L13
 220              		.loc 1 183 0
 221 002e F85C     		ldrb	r0, [r7, r3]	@ zero_extendqisi2
 222 0030 2560     		str	r5, [r4]
 223 0032 FFF7FEFF 		bl	packet_process_byte
 224              	.LVL12:
 225              		.loc 1 185 0
 226 0036 2368     		ldr	r3, [r4]
 227 0038 B3F5806F 		cmp	r3, #1024
 228              		.loc 1 186 0
ARM GAS  /tmp/ccNB7EOw.s 			page 5


 229 003c 04BF     		itt	eq
 230 003e C4F80080 		streq	r8, [r4]
 231 0042 0023     		moveq	r3, #0
 232 0044 ECE7     		b	.L11
 233              	.L17:
 234 0046 00BF     		.align	2
 235              	.L16:
 236 0048 00000000 		.word	ch
 237 004c 00000000 		.word	.LANCHOR2
 238 0050 00000000 		.word	.LC0
 239 0054 00000000 		.word	.LANCHOR3
 240 0058 00000000 		.word	.LANCHOR0
 241 005c 00000000 		.word	.LANCHOR1
 242              		.cfi_endproc
 243              	.LFE267:
 244              		.size	packet_process_thread, .-packet_process_thread
 245              		.section	.text.process_packet,"ax",%progbits
 246              		.align	1
 247              		.p2align 4,,15
 248              		.syntax unified
 249              		.thumb
 250              		.thumb_func
 251              		.fpu fpv4-sp-d16
 252              		.type	process_packet, %function
 253              	process_packet:
 254              	.LFB261:
 255              		.loc 1 113 0
 256              		.cfi_startproc
 257              		@ args = 0, pretend = 0, frame = 0
 258              		@ frame_needed = 0, uses_anonymous_args = 0
 259              	.LVL13:
 260 0000 38B5     		push	{r3, r4, r5, lr}
 261              		.cfi_def_cfa_offset 16
 262              		.cfi_offset 3, -16
 263              		.cfi_offset 4, -12
 264              		.cfi_offset 5, -8
 265              		.cfi_offset 14, -4
 266              		.loc 1 113 0
 267 0002 0446     		mov	r4, r0
 268 0004 0D46     		mov	r5, r1
 269              		.loc 1 114 0
 270 0006 0448     		ldr	r0, .L20
 271              	.LVL14:
 272 0008 FFF7FEFF 		bl	commands_set_send_func
 273              	.LVL15:
 274              		.loc 1 115 0
 275 000c 2946     		mov	r1, r5
 276 000e 2046     		mov	r0, r4
 277              		.loc 1 116 0
 278 0010 BDE83840 		pop	{r3, r4, r5, lr}
 279              		.cfi_restore 14
 280              		.cfi_restore 5
 281              		.cfi_restore 4
 282              		.cfi_restore 3
 283              		.cfi_def_cfa_offset 0
 284              	.LVL16:
 285              		.loc 1 115 0
ARM GAS  /tmp/ccNB7EOw.s 			page 6


 286 0014 FFF7FEBF 		b	commands_process_packet
 287              	.LVL17:
 288              	.L21:
 289              		.align	2
 290              	.L20:
 291 0018 00000000 		.word	send_packet_wrapper
 292              		.cfi_endproc
 293              	.LFE261:
 294              		.size	process_packet, .-process_packet
 295              		.section	.text.send_packet_wrapper,"ax",%progbits
 296              		.align	1
 297              		.p2align 4,,15
 298              		.syntax unified
 299              		.thumb
 300              		.thumb_func
 301              		.fpu fpv4-sp-d16
 302              		.type	send_packet_wrapper, %function
 303              	send_packet_wrapper:
 304              	.LFB262:
 305              		.loc 1 118 0
 306              		.cfi_startproc
 307              		@ args = 0, pretend = 0, frame = 0
 308              		@ frame_needed = 0, uses_anonymous_args = 0
 309              		@ link register save eliminated.
 310              	.LVL18:
 311              		.loc 1 119 0
 312 0000 0122     		movs	r2, #1
 313 0002 FFF7FEBF 		b	packet_send_packet
 314              	.LVL19:
 315              		.cfi_endproc
 316              	.LFE262:
 317              		.size	send_packet_wrapper, .-send_packet_wrapper
 318 0006 00BF     		.section	.text.send_packet,"ax",%progbits
 319              		.align	1
 320              		.p2align 4,,15
 321              		.syntax unified
 322              		.thumb
 323              		.thumb_func
 324              		.fpu fpv4-sp-d16
 325              		.type	send_packet, %function
 326              	send_packet:
 327              	.LFB263:
 328              		.loc 1 122 0
 329              		.cfi_startproc
 330              		@ args = 0, pretend = 0, frame = 0
 331              		@ frame_needed = 0, uses_anonymous_args = 0
 332              	.LVL20:
 333 0000 70B5     		push	{r4, r5, r6, lr}
 334              		.cfi_def_cfa_offset 16
 335              		.cfi_offset 4, -16
 336              		.cfi_offset 5, -12
 337              		.cfi_offset 6, -8
 338              		.cfi_offset 14, -4
 339              		.loc 1 124 0
 340 0002 0C4C     		ldr	r4, .L29
 341 0004 6378     		ldrb	r3, [r4, #1]	@ zero_extendqisi2
 342 0006 012B     		cmp	r3, #1
ARM GAS  /tmp/ccNB7EOw.s 			page 7


 343              		.loc 1 122 0
 344 0008 0646     		mov	r6, r0
 345 000a 0D46     		mov	r5, r1
 346              		.loc 1 124 0
 347 000c 05D1     		bne	.L24
 348              	.LVL21:
 349              	.L25:
 350              		.loc 1 125 0
 351 000e 0120     		movs	r0, #1
 352 0010 FFF7FEFF 		bl	chThdSleep
 353              	.LVL22:
 354              		.loc 1 124 0
 355 0014 6378     		ldrb	r3, [r4, #1]	@ zero_extendqisi2
 356 0016 012B     		cmp	r3, #1
 357 0018 F9D0     		beq	.L25
 358              	.L24:
 359              		.loc 1 131 0
 360 001a 3146     		mov	r1, r6
 361 001c 2A46     		mov	r2, r5
 362 001e 0648     		ldr	r0, .L29+4
 363 0020 FFF7FEFF 		bl	memcpy
 364              	.LVL23:
 365              		.loc 1 133 0
 366 0024 2946     		mov	r1, r5
 367 0026 044A     		ldr	r2, .L29+4
 368 0028 0248     		ldr	r0, .L29
 369              		.loc 1 134 0
 370 002a BDE87040 		pop	{r4, r5, r6, lr}
 371              		.cfi_restore 14
 372              		.cfi_restore 6
 373              		.cfi_restore 5
 374              		.cfi_restore 4
 375              		.cfi_def_cfa_offset 0
 376              	.LVL24:
 377              		.loc 1 133 0
 378 002e FFF7FEBF 		b	uartStartSend
 379              	.LVL25:
 380              	.L30:
 381 0032 00BF     		.align	2
 382              	.L29:
 383 0034 00000000 		.word	UARTD6
 384 0038 00000000 		.word	.LANCHOR4
 385              		.cfi_endproc
 386              	.LFE263:
 387              		.size	send_packet, .-send_packet
 388              		.section	.text.rxend,"ax",%progbits
 389              		.align	1
 390              		.p2align 4,,15
 391              		.syntax unified
 392              		.thumb
 393              		.thumb_func
 394              		.fpu fpv4-sp-d16
 395              		.type	rxend, %function
 396              	rxend:
 397              	.LFB271:
 398              		.cfi_startproc
 399              		@ args = 0, pretend = 0, frame = 0
ARM GAS  /tmp/ccNB7EOw.s 			page 8


 400              		@ frame_needed = 0, uses_anonymous_args = 0
 401              		@ link register save eliminated.
 402 0000 7047     		bx	lr
 403              		.cfi_endproc
 404              	.LFE271:
 405              		.size	rxend, .-rxend
 406 0002 00BF     		.section	.text.txend2,"ax",%progbits
 407              		.align	1
 408              		.p2align 4,,15
 409              		.syntax unified
 410              		.thumb
 411              		.thumb_func
 412              		.fpu fpv4-sp-d16
 413              		.type	txend2, %function
 414              	txend2:
 415              	.LFB269:
 416              		.cfi_startproc
 417              		@ args = 0, pretend = 0, frame = 0
 418              		@ frame_needed = 0, uses_anonymous_args = 0
 419              		@ link register save eliminated.
 420 0000 7047     		bx	lr
 421              		.cfi_endproc
 422              	.LFE269:
 423              		.size	txend2, .-txend2
 424 0002 00BF     		.section	.text.app_uartcomm_start,"ax",%progbits
 425              		.align	1
 426              		.p2align 4,,15
 427              		.global	app_uartcomm_start
 428              		.syntax unified
 429              		.thumb
 430              		.thumb_func
 431              		.fpu fpv4-sp-d16
 432              		.type	app_uartcomm_start, %function
 433              	app_uartcomm_start:
 434              	.LFB264:
 435              		.loc 1 136 0
 436              		.cfi_startproc
 437              		@ args = 0, pretend = 0, frame = 0
 438              		@ frame_needed = 0, uses_anonymous_args = 0
 439              		.loc 1 136 0
 440 0000 30B5     		push	{r4, r5, lr}
 441              		.cfi_def_cfa_offset 12
 442              		.cfi_offset 4, -12
 443              		.cfi_offset 5, -8
 444              		.cfi_offset 14, -4
 445              		.loc 1 141 0
 446 0002 164C     		ldr	r4, .L36
 447              		.loc 1 137 0
 448 0004 1649     		ldr	r1, .L36+4
 449 0006 1748     		ldr	r0, .L36+8
 450 0008 0122     		movs	r2, #1
 451              		.loc 1 136 0
 452 000a 83B0     		sub	sp, sp, #12
 453              		.cfi_def_cfa_offset 24
 454              		.loc 1 137 0
 455 000c FFF7FEFF 		bl	packet_init
 456              	.LVL26:
ARM GAS  /tmp/ccNB7EOw.s 			page 9


 457              		.loc 1 138 0
 458 0010 1548     		ldr	r0, .L36+12
 459              		.loc 1 139 0
 460 0012 1649     		ldr	r1, .L36+16
 461              		.loc 1 141 0
 462 0014 2378     		ldrb	r3, [r4]	@ zero_extendqisi2
 463              		.loc 1 138 0
 464 0016 0022     		movs	r2, #0
 465 0018 0260     		str	r2, [r0]
 466              		.loc 1 139 0
 467 001a 0A60     		str	r2, [r1]
 468              		.loc 1 141 0
 469 001c 5BB9     		cbnz	r3, .L34
 470 001e 03F0FF05 		and	r5, r3, #255
 471              		.loc 1 142 0
 472 0022 0095     		str	r5, [sp]
 473 0024 124B     		ldr	r3, .L36+20
 474 0026 1348     		ldr	r0, .L36+24
 475 0028 4022     		movs	r2, #64
 476 002a 41F29811 		movw	r1, #4504
 477 002e FFF7FEFF 		bl	chThdCreateStatic
 478              	.LVL27:
 479              		.loc 1 144 0
 480 0032 0123     		movs	r3, #1
 481 0034 2370     		strb	r3, [r4]
 482              	.L34:
 483              		.loc 1 147 0
 484 0036 1049     		ldr	r1, .L36+28
 485 0038 1048     		ldr	r0, .L36+32
 486 003a FFF7FEFF 		bl	uartStart
 487              	.LVL28:
 488              		.loc 1 148 0
 489 003e 40F23A42 		movw	r2, #1082
 490 0042 4021     		movs	r1, #64
 491 0044 0E48     		ldr	r0, .L36+36
 492 0046 FFF7FEFF 		bl	_pal_lld_setgroupmode
 493              	.LVL29:
 494              		.loc 1 151 0
 495 004a 0D48     		ldr	r0, .L36+36
 496 004c 40F23A42 		movw	r2, #1082
 497 0050 8021     		movs	r1, #128
 498              		.loc 1 154 0
 499 0052 03B0     		add	sp, sp, #12
 500              		.cfi_def_cfa_offset 12
 501              		@ sp needed
 502 0054 BDE83040 		pop	{r4, r5, lr}
 503              		.cfi_restore 14
 504              		.cfi_restore 5
 505              		.cfi_restore 4
 506              		.cfi_def_cfa_offset 0
 507              		.loc 1 151 0
 508 0058 FFF7FEBF 		b	_pal_lld_setgroupmode
 509              	.LVL30:
 510              	.L37:
 511              		.align	2
 512              	.L36:
 513 005c 00000000 		.word	.LANCHOR5
ARM GAS  /tmp/ccNB7EOw.s 			page 10


 514 0060 00000000 		.word	process_packet
 515 0064 00000000 		.word	send_packet
 516 0068 00000000 		.word	.LANCHOR3
 517 006c 00000000 		.word	.LANCHOR0
 518 0070 00000000 		.word	packet_process_thread
 519 0074 00000000 		.word	packet_process_thread_wa
 520 0078 00000000 		.word	.LANCHOR6
 521 007c 00000000 		.word	UARTD6
 522 0080 00080240 		.word	1073874944
 523              		.cfi_endproc
 524              	.LFE264:
 525              		.size	app_uartcomm_start, .-app_uartcomm_start
 526              		.section	.text.app_uartcomm_stop,"ax",%progbits
 527              		.align	1
 528              		.p2align 4,,15
 529              		.global	app_uartcomm_stop
 530              		.syntax unified
 531              		.thumb
 532              		.thumb_func
 533              		.fpu fpv4-sp-d16
 534              		.type	app_uartcomm_stop, %function
 535              	app_uartcomm_stop:
 536              	.LFB265:
 537              		.loc 1 156 0
 538              		.cfi_startproc
 539              		@ args = 0, pretend = 0, frame = 0
 540              		@ frame_needed = 0, uses_anonymous_args = 0
 541 0000 10B5     		push	{r4, lr}
 542              		.cfi_def_cfa_offset 8
 543              		.cfi_offset 4, -8
 544              		.cfi_offset 14, -4
 545              		.loc 1 158 0
 546 0002 084C     		ldr	r4, .L40
 547              		.loc 1 157 0
 548 0004 0848     		ldr	r0, .L40+4
 549 0006 FFF7FEFF 		bl	uartStop
 550              	.LVL31:
 551              		.loc 1 158 0
 552 000a 2046     		mov	r0, r4
 553 000c 2022     		movs	r2, #32
 554 000e 4021     		movs	r1, #64
 555 0010 FFF7FEFF 		bl	_pal_lld_setgroupmode
 556              	.LVL32:
 557              		.loc 1 159 0
 558 0014 2046     		mov	r0, r4
 559 0016 2022     		movs	r2, #32
 560 0018 8021     		movs	r1, #128
 561              		.loc 1 162 0
 562 001a BDE81040 		pop	{r4, lr}
 563              		.cfi_restore 14
 564              		.cfi_restore 4
 565              		.cfi_def_cfa_offset 0
 566              		.loc 1 159 0
 567 001e FFF7FEBF 		b	_pal_lld_setgroupmode
 568              	.LVL33:
 569              	.L41:
 570 0022 00BF     		.align	2
ARM GAS  /tmp/ccNB7EOw.s 			page 11


 571              	.L40:
 572 0024 00080240 		.word	1073874944
 573 0028 00000000 		.word	UARTD6
 574              		.cfi_endproc
 575              	.LFE265:
 576              		.size	app_uartcomm_stop, .-app_uartcomm_stop
 577              		.section	.text.app_uartcomm_configure,"ax",%progbits
 578              		.align	1
 579              		.p2align 4,,15
 580              		.global	app_uartcomm_configure
 581              		.syntax unified
 582              		.thumb
 583              		.thumb_func
 584              		.fpu fpv4-sp-d16
 585              		.type	app_uartcomm_configure, %function
 586              	app_uartcomm_configure:
 587              	.LFB266:
 588              		.loc 1 164 0
 589              		.cfi_startproc
 590              		@ args = 0, pretend = 0, frame = 0
 591              		@ frame_needed = 0, uses_anonymous_args = 0
 592              		@ link register save eliminated.
 593              	.LVL34:
 594              		.loc 1 167 0
 595 0000 044B     		ldr	r3, .L45
 596              		.loc 1 165 0
 597 0002 0549     		ldr	r1, .L45+4
 598              		.loc 1 167 0
 599 0004 1B78     		ldrb	r3, [r3]	@ zero_extendqisi2
 600              		.loc 1 165 0
 601 0006 4861     		str	r0, [r1, #20]
 602              		.loc 1 167 0
 603 0008 03B9     		cbnz	r3, .L44
 604              		.loc 1 170 0
 605 000a 7047     		bx	lr
 606              	.L44:
 607              		.loc 1 168 0
 608 000c 0348     		ldr	r0, .L45+8
 609              	.LVL35:
 610 000e FFF7FEBF 		b	uartStart
 611              	.LVL36:
 612              	.L46:
 613 0012 00BF     		.align	2
 614              	.L45:
 615 0014 00000000 		.word	.LANCHOR5
 616 0018 00000000 		.word	.LANCHOR6
 617 001c 00000000 		.word	UARTD6
 618              		.cfi_endproc
 619              	.LFE266:
 620              		.size	app_uartcomm_configure, .-app_uartcomm_configure
 621              		.section	.bss.buffer.11011,"aw",%nobits
 622              		.align	2
 623              		.set	.LANCHOR4,. + 0
 624              		.type	buffer.11011, %object
 625              		.size	buffer.11011, 1029
 626              	buffer.11011:
 627 0000 00000000 		.space	1029
ARM GAS  /tmp/ccNB7EOw.s 			page 12


 627      00000000 
 627      00000000 
 627      00000000 
 627      00000000 
 628              		.section	.bss.is_running,"aw",%nobits
 629              		.set	.LANCHOR5,. + 0
 630              		.type	is_running, %object
 631              		.size	is_running, 1
 632              	is_running:
 633 0000 00       		.space	1
 634              		.section	.bss.packet_process_thread_wa,"aw",%nobits
 635              		.align	3
 636              		.type	packet_process_thread_wa, %object
 637              		.size	packet_process_thread_wa, 4504
 638              	packet_process_thread_wa:
 639 0000 00000000 		.space	4504
 639      00000000 
 639      00000000 
 639      00000000 
 639      00000000 
 640              		.section	.bss.process_tp,"aw",%nobits
 641              		.align	2
 642              		.set	.LANCHOR2,. + 0
 643              		.type	process_tp, %object
 644              		.size	process_tp, 4
 645              	process_tp:
 646 0000 00000000 		.space	4
 647              		.section	.bss.serial_rx_buffer,"aw",%nobits
 648              		.align	2
 649              		.set	.LANCHOR1,. + 0
 650              		.type	serial_rx_buffer, %object
 651              		.size	serial_rx_buffer, 1024
 652              	serial_rx_buffer:
 653 0000 00000000 		.space	1024
 653      00000000 
 653      00000000 
 653      00000000 
 653      00000000 
 654              		.section	.bss.serial_rx_read_pos,"aw",%nobits
 655              		.align	2
 656              		.set	.LANCHOR3,. + 0
 657              		.type	serial_rx_read_pos, %object
 658              		.size	serial_rx_read_pos, 4
 659              	serial_rx_read_pos:
 660 0000 00000000 		.space	4
 661              		.section	.bss.serial_rx_write_pos,"aw",%nobits
 662              		.align	2
 663              		.set	.LANCHOR0,. + 0
 664              		.type	serial_rx_write_pos, %object
 665              		.size	serial_rx_write_pos, 4
 666              	serial_rx_write_pos:
 667 0000 00000000 		.space	4
 668              		.section	.data.uart_cfg,"aw",%progbits
 669              		.align	2
 670              		.set	.LANCHOR6,. + 0
 671              		.type	uart_cfg, %object
 672              		.size	uart_cfg, 32
ARM GAS  /tmp/ccNB7EOw.s 			page 13


 673              	uart_cfg:
 674 0000 00000000 		.word	txend1
 675 0004 00000000 		.word	txend2
 676 0008 00000000 		.word	rxend
 677 000c 00000000 		.word	rxchar
 678 0010 00000000 		.word	rxerr
 679 0014 00C20100 		.word	115200
 680 0018 0000     		.short	0
 681 001a 0040     		.short	16384
 682 001c 0000     		.short	0
 683 001e 0000     		.space	2
 684              		.section	.rodata.packet_process_thread.str1.4,"aMS",%progbits,1
 685              		.align	2
 686              	.LC0:
 687 0000 75617274 		.ascii	"uartcomm process\000"
 687      636F6D6D 
 687      2070726F 
 687      63657373 
 687      00
 688              		.text
 689              	.Letext0:
 690              		.file 4 "/usr/arm-none-eabi/include/machine/_default_types.h"
 691              		.file 5 "/usr/arm-none-eabi/include/sys/_stdint.h"
 692              		.file 6 "/usr/lib/gcc/arm-none-eabi/7.3.1/include/stddef.h"
 693              		.file 7 "ChibiOS_3.0.2/os/rt/ports/ARMCMx/compilers/GCC/chtypes.h"
 694              		.file 8 "ChibiOS_3.0.2/os/rt/include/chsystypes.h"
 695              		.file 9 "ChibiOS_3.0.2/os/rt/include/chschd.h"
 696              		.file 10 "ChibiOS_3.0.2/os/ext/CMSIS/include/core_cm4.h"
 697              		.file 11 "ChibiOS_3.0.2/os/ext/CMSIS/ST/system_stm32f4xx.h"
 698              		.file 12 "ChibiOS_3.0.2/os/ext/CMSIS/ST/stm32f407xx.h"
 699              		.file 13 "ChibiOS_3.0.2/os/rt/ports/ARMCMx/chcore.h"
 700              		.file 14 "ChibiOS_3.0.2/os/rt/ports/ARMCMx/chcore_v7m.h"
 701              		.file 15 "ChibiOS_3.0.2/os/rt/include/chtm.h"
 702              		.file 16 "ChibiOS_3.0.2/os/rt/include/chsem.h"
 703              		.file 17 "ChibiOS_3.0.2/os/rt/include/chmtx.h"
 704              		.file 18 "ChibiOS_3.0.2/os/rt/include/chevents.h"
 705              		.file 19 "ChibiOS_3.0.2/os/rt/include/chqueues.h"
 706              		.file 20 "./conf_general.h"
 707              		.file 21 "ChibiOS_3.0.2/os/hal/ports/STM32/STM32F4xx/stm32_dma.h"
 708              		.file 22 "ChibiOS_3.0.2/os/hal/ports/STM32/LLD/GPIOv2/pal_lld.h"
 709              		.file 23 "ChibiOS_3.0.2/os/hal/include/can.h"
 710              		.file 24 "ChibiOS_3.0.2/os/hal/ports/STM32/LLD/can_lld.h"
 711              		.file 25 "ChibiOS_3.0.2/os/hal/include/i2c.h"
 712              		.file 26 "ChibiOS_3.0.2/os/hal/ports/STM32/LLD/I2Cv1/i2c_lld.h"
 713              		.file 27 "ChibiOS_3.0.2/os/hal/include/icu.h"
 714              		.file 28 "ChibiOS_3.0.2/os/hal/ports/STM32/LLD/TIMv1/icu_lld.h"
 715              		.file 29 "ChibiOS_3.0.2/os/hal/ports/STM32/LLD/TIMv1/stm32_tim.h"
 716              		.file 30 "ChibiOS_3.0.2/os/hal/include/spi.h"
 717              		.file 31 "ChibiOS_3.0.2/os/hal/ports/STM32/LLD/SPIv1/spi_lld.h"
 718              		.file 32 "ChibiOS_3.0.2/os/hal/include/uart.h"
 719              		.file 33 "ChibiOS_3.0.2/os/hal/ports/STM32/LLD/USARTv1/uart_lld.h"
 720              		.file 34 "ChibiOS_3.0.2/os/hal/include/usb.h"
 721              		.file 35 "ChibiOS_3.0.2/os/hal/ports/STM32/LLD/OTGv1/usb_lld.h"
 722              		.file 36 "ChibiOS_3.0.2/os/hal/ports/STM32/LLD/OTGv1/stm32_otg.h"
 723              		.file 37 "/usr/arm-none-eabi/include/sys/lock.h"
 724              		.file 38 "/usr/arm-none-eabi/include/sys/_types.h"
 725              		.file 39 "/usr/arm-none-eabi/include/sys/reent.h"
ARM GAS  /tmp/ccNB7EOw.s 			page 14


 726              		.file 40 "ChibiOS_3.0.2/os/rt/include/chsys.h"
 727              		.file 41 "./packet.h"
 728              		.file 42 "ChibiOS_3.0.2/os/rt/include/chthreads.h"
 729              		.file 43 "./commands.h"
 730              		.file 44 "<built-in>"