ARM GAS  /tmp/cc6dHjyt.s 			page 1


   1              		.cpu cortex-m4
   2              		.eabi_attribute 27, 1
   3              		.eabi_attribute 28, 1
   4              		.eabi_attribute 20, 1
   5              		.eabi_attribute 21, 1
   6              		.eabi_attribute 23, 3
   7              		.eabi_attribute 24, 1
   8              		.eabi_attribute 25, 1
   9              		.eabi_attribute 26, 1
  10              		.eabi_attribute 30, 2
  11              		.eabi_attribute 34, 1
  12              		.eabi_attribute 18, 4
  13              		.file	"app_adc.c"
  14              		.text
  15              	.Ltext0:
  16              		.cfi_sections	.debug_frame
  17              		.section	.text.adc_thread,"ax",%progbits
  18              		.align	1
  19              		.p2align 4,,15
  20              		.syntax unified
  21              		.thumb
  22              		.thumb_func
  23              		.fpu fpv4-sp-d16
  24              		.type	adc_thread, %function
  25              	adc_thread:
  26              	.LFB263:
  27              		.file 1 "applications/app_adc.c"
  28              		.loc 1 88 0
  29              		.cfi_startproc
  30              		@ args = 0, pretend = 0, frame = 16
  31              		@ frame_needed = 0, uses_anonymous_args = 0
  32              	.LVL0:
  33 0000 2DE9F04F 		push	{r4, r5, r6, r7, r8, r9, r10, fp, lr}
  34              		.cfi_def_cfa_offset 36
  35              		.cfi_offset 4, -36
  36              		.cfi_offset 5, -32
  37              		.cfi_offset 6, -28
  38              		.cfi_offset 7, -24
  39              		.cfi_offset 8, -20
  40              		.cfi_offset 9, -16
  41              		.cfi_offset 10, -12
  42              		.cfi_offset 11, -8
  43              		.cfi_offset 14, -4
  44              		.loc 1 94 0
  45 0004 BE4B     		ldr	r3, .L216
  46              	.LBB64:
  47              	.LBB65:
  48              		.file 2 "ChibiOS_3.0.2/os/rt/include/chregistry.h"
  49              		.loc 2 135 0
  50 0006 DFF84C83 		ldr	r8, .L216+84
  51              	.LBE65:
  52              	.LBE64:
  53              		.loc 1 94 0
  54 000a 1B78     		ldrb	r3, [r3]	@ zero_extendqisi2
  55              	.LBB68:
  56              	.LBB66:
  57              		.loc 2 135 0
ARM GAS  /tmp/cc6dHjyt.s 			page 2


  58 000c D8F81820 		ldr	r2, [r8, #24]
  59 0010 BC49     		ldr	r1, .L216+4
  60              	.LBE66:
  61              	.LBE68:
  62              		.loc 1 88 0
  63 0012 2DED088B 		vpush.64	{d8, d9, d10, d11}
  64              		.cfi_def_cfa_offset 68
  65              		.cfi_offset 80, -68
  66              		.cfi_offset 81, -64
  67              		.cfi_offset 82, -60
  68              		.cfi_offset 83, -56
  69              		.cfi_offset 84, -52
  70              		.cfi_offset 85, -48
  71              		.cfi_offset 86, -44
  72              		.cfi_offset 87, -40
  73              	.LBB69:
  74              	.LBB67:
  75              		.loc 2 135 0
  76 0016 9161     		str	r1, [r2, #24]
  77              	.LVL1:
  78              	.LBE67:
  79              	.LBE69:
  80              		.loc 1 88 0
  81 0018 85B0     		sub	sp, sp, #20
  82              		.cfi_def_cfa_offset 88
  83              		.loc 1 95 0
  84 001a 2022     		movs	r2, #32
  85              		.loc 1 94 0
  86 001c 002B     		cmp	r3, #0
  87 001e 00F0F583 		beq	.L2
  88              		.loc 1 95 0
  89 0022 4021     		movs	r1, #64
  90 0024 B848     		ldr	r0, .L216+8
  91              	.LVL2:
  92 0026 FFF7FEFF 		bl	_pal_lld_setgroupmode
  93              	.LVL3:
  94              		.loc 1 96 0
  95 002a 2022     		movs	r2, #32
  96 002c 8021     		movs	r1, #128
  97 002e B648     		ldr	r0, .L216+8
  98 0030 FFF7FEFF 		bl	_pal_lld_setgroupmode
  99              	.LVL4:
 100              	.L3:
 101              		.loc 1 101 0
 102 0034 B54A     		ldr	r2, .L216+12
 103 0036 B64C     		ldr	r4, .L216+16
 104              	.LBB70:
 105              		.loc 1 120 0
 106 0038 9FEDB68A 		vldr.32	s16, .L216+20
 107              		.loc 1 125 0
 108 003c DFEDB69A 		vldr.32	s19, .L216+24
 109              	.LBB71:
 110              	.LBB72:
 111              	.LBB73:
 112              		.loc 1 510 0
 113 0040 DFEDB68A 		vldr.32	s17, .L216+28
 114 0044 9FEDB69A 		vldr.32	s18, .L216+32
ARM GAS  /tmp/cc6dHjyt.s 			page 3


 115              	.LBE73:
 116              	.LBE72:
 117              	.LBE71:
 118              	.LBE70:
 119              		.loc 1 101 0
 120 0048 0123     		movs	r3, #1
 121 004a 1370     		strb	r3, [r2]
 122              	.L4:
 123              	.LBB155:
 124              		.loc 1 105 0
 125 004c 236C     		ldr	r3, [r4, #64]
 126 004e 42F21075 		movw	r5, #10000
 127 0052 B5FBF3F5 		udiv	r5, r5, r3
 128              	.LVL5:
 129              		.loc 1 109 0
 130 0056 002D     		cmp	r5, #0
 131 0058 08BF     		it	eq
 132 005a 0125     		moveq	r5, #1
 133              	.LVL6:
 134              		.loc 1 111 0
 135 005c 2846     		mov	r0, r5
 136 005e FFF7FEFF 		bl	chThdSleep
 137              	.LVL7:
 138              		.loc 1 113 0
 139 0062 B04B     		ldr	r3, .L216+36
 140 0064 1B78     		ldrb	r3, [r3]	@ zero_extendqisi2
 141 0066 03F0FF07 		and	r7, r3, #255
 142 006a 002B     		cmp	r3, #0
 143 006c 40F07483 		bne	.L207
 144              		.loc 1 119 0
 145 0070 FFF7FEFF 		bl	mc_interface_get_fault
 146              	.LVL8:
 147 0074 18B1     		cbz	r0, .L7
 148              		.loc 1 120 0
 149 0076 DFF8E0B2 		ldr	fp, .L216+88
 150 007a 8BED008A 		vstr.32	s16, [fp]
 151              	.L7:
 152              		.loc 1 124 0
 153 007e AA4E     		ldr	r6, .L216+40
 154              		.loc 1 126 0
 155 0080 9FEDAA0A 		vldr.32	s0, .L216+44
 156              		.loc 1 124 0
 157 0084 B38A     		ldrh	r3, [r6, #20]
 158 0086 07EE103A 		vmov	s14, r3	@ int
 159 008a B8EE477A 		vcvt.f32.u32	s14, s14
 160              		.loc 1 128 0
 161 008e A84B     		ldr	r3, .L216+48
 162              		.loc 1 125 0
 163 0090 C7EE297A 		vdiv.f32	s15, s14, s19
 164              		.loc 1 126 0
 165 0094 27EE800A 		vmul.f32	s0, s15, s0
 166              		.loc 1 128 0
 167 0098 83ED000A 		vstr.32	s0, [r3]
 168              		.loc 1 131 0
 169 009c 237F     		ldrb	r3, [r4, #28]	@ zero_extendqisi2
 170              		.loc 1 126 0
 171 009e 8DED020A 		vstr.32	s0, [sp, #8]
ARM GAS  /tmp/cc6dHjyt.s 			page 4


 172              		.loc 1 131 0
 173 00a2 3BB3     		cbz	r3, .L8
 174              	.LBB83:
 175              		.loc 1 135 0
 176 00a4 A349     		ldr	r1, .L216+52
 177 00a6 A44B     		ldr	r3, .L216+56
 178 00a8 0A68     		ldr	r2, [r1]
 179 00aa 501C     		adds	r0, r2, #1
 180 00ac 03EB8202 		add	r2, r3, r2, lsl #2
 181 00b0 82ED000A 		vstr.32	s0, [r2]
 182              	.LBB84:
 183              		.loc 1 142 0
 184 00b4 D3ED007A 		vldr.32	s15, [r3]
 185 00b8 D3ED015A 		vldr.32	s11, [r3, #4]
 186 00bc 93ED026A 		vldr.32	s12, [r3, #8]
 187 00c0 D3ED036A 		vldr.32	s13, [r3, #12]
 188 00c4 93ED047A 		vldr.32	s14, [r3, #16]
 189              	.LBE84:
 190              		.loc 1 135 0
 191 00c8 0860     		str	r0, [r1]
 192              	.LBB85:
 193              		.loc 1 142 0
 194 00ca 77EE887A 		vadd.f32	s15, s15, s16
 195              	.LBE85:
 196              		.loc 1 144 0
 197 00ce B1EE045A 		vmov.f32	s10, #5.0e+0
 198              	.LBB86:
 199              		.loc 1 142 0
 200 00d2 77EEA57A 		vadd.f32	s15, s15, s11
 201              	.LBE86:
 202              		.loc 1 136 0
 203 00d6 0428     		cmp	r0, #4
 204              	.LBB87:
 205              		.loc 1 142 0
 206 00d8 77EE867A 		vadd.f32	s15, s15, s12
 207              	.LBE87:
 208              		.loc 1 137 0
 209 00dc C8BF     		it	gt
 210 00de 0022     		movgt	r2, #0
 211              	.LBB88:
 212              		.loc 1 142 0
 213 00e0 77EEA67A 		vadd.f32	s15, s15, s13
 214              	.LBE88:
 215              		.loc 1 137 0
 216 00e4 C8BF     		it	gt
 217 00e6 0A60     		strgt	r2, [r1]
 218              	.LVL9:
 219              	.LBB89:
 220              		.loc 1 142 0
 221 00e8 77EE877A 		vadd.f32	s15, s15, s14
 222              	.LBE89:
 223              		.loc 1 144 0
 224 00ec 87EE850A 		vdiv.f32	s0, s15, s10
 225 00f0 8DED020A 		vstr.32	s0, [sp, #8]
 226              	.LVL10:
 227              	.L8:
 228              	.LBE83:
ARM GAS  /tmp/cc6dHjyt.s 			page 5


 229              		.loc 1 148 0
 230 00f4 2378     		ldrb	r3, [r4]	@ zero_extendqisi2
 231 00f6 DBB2     		uxtb	r3, r3
 232 00f8 0C2B     		cmp	r3, #12
 233 00fa 00F22D82 		bhi	.L10
 234 00fe 0122     		movs	r2, #1
 235 0100 02FA03F3 		lsl	r3, r2, r3
 236 0104 41F22422 		movw	r2, #4644
 237 0108 1342     		tst	r3, r2
 238 010a 00F02582 		beq	.L10
 239              		.loc 1 154 0
 240 010e D4ED047A 		vldr.32	s15, [r4, #16]
 241 0112 F4EEC07A 		vcmpe.f32	s15, s0
 242 0116 F1EE10FA 		vmrs	APSR_nzcv, FPSCR
 243 011a 40F32583 		ble	.L197
 244              		.loc 1 155 0
 245 011e D4ED020A 		vldr.32	s1, [r4, #8]
 246 0122 94ED041A 		vldr.32	s2, [r4, #16]
 247 0126 B6EE002A 		vmov.f32	s4, #5.0e-1
 248 012a F0EE481A 		vmov.f32	s3, s16
 249 012e FFF7FEFF 		bl	utils_map
 250              	.LVL11:
 251 0132 8DED020A 		vstr.32	s0, [sp, #8]
 252              	.L13:
 253              		.loc 1 170 0
 254 0136 02A8     		add	r0, sp, #8
 255 0138 F7EE000A 		vmov.f32	s1, #1.0e+0
 256 013c B0EE480A 		vmov.f32	s0, s16
 257 0140 FFF7FEFF 		bl	utils_truncate_number
 258              	.LVL12:
 259              		.loc 1 173 0
 260 0144 94F82030 		ldrb	r3, [r4, #32]	@ zero_extendqisi2
 261              		.loc 1 174 0
 262 0148 DDED027A 		vldr.32	s15, [sp, #8]
 263              		.loc 1 173 0
 264 014c 2BB1     		cbz	r3, .L15
 265              		.loc 1 174 0
 266 014e B7EE007A 		vmov.f32	s14, #1.0e+0
 267 0152 77EE677A 		vsub.f32	s15, s14, s15
 268 0156 CDED027A 		vstr.32	s15, [sp, #8]
 269              	.L15:
 270              		.loc 1 177 0
 271 015a 784B     		ldr	r3, .L216+60
 272              		.loc 1 183 0
 273 015c 9FED730A 		vldr.32	s0, .L216+44
 274              		.loc 1 177 0
 275 0160 C3ED007A 		vstr.32	s15, [r3]
 276              		.loc 1 181 0
 277 0164 F389     		ldrh	r3, [r6, #14]
 278 0166 07EE103A 		vmov	s14, r3	@ int
 279 016a B8EE477A 		vcvt.f32.u32	s14, s14
 280              		.loc 1 188 0
 281 016e 744B     		ldr	r3, .L216+64
 282              		.loc 1 182 0
 283 0170 C7EE297A 		vdiv.f32	s15, s14, s19
 284              		.loc 1 183 0
 285 0174 27EE800A 		vmul.f32	s0, s15, s0
ARM GAS  /tmp/cc6dHjyt.s 			page 6


 286              		.loc 1 188 0
 287 0178 83ED000A 		vstr.32	s0, [r3]
 288              		.loc 1 191 0
 289 017c 237F     		ldrb	r3, [r4, #28]	@ zero_extendqisi2
 290              		.loc 1 183 0
 291 017e 8DED030A 		vstr.32	s0, [sp, #12]
 292              		.loc 1 191 0
 293 0182 3BB3     		cbz	r3, .L16
 294              	.LBB90:
 295              		.loc 1 195 0
 296 0184 6F49     		ldr	r1, .L216+68
 297 0186 704B     		ldr	r3, .L216+72
 298 0188 0A68     		ldr	r2, [r1]
 299 018a 501C     		adds	r0, r2, #1
 300 018c 03EB8202 		add	r2, r3, r2, lsl #2
 301 0190 82ED000A 		vstr.32	s0, [r2]
 302              	.LBB91:
 303              		.loc 1 202 0
 304 0194 D3ED007A 		vldr.32	s15, [r3]
 305 0198 D3ED015A 		vldr.32	s11, [r3, #4]
 306 019c 93ED026A 		vldr.32	s12, [r3, #8]
 307 01a0 D3ED036A 		vldr.32	s13, [r3, #12]
 308 01a4 93ED047A 		vldr.32	s14, [r3, #16]
 309              	.LBE91:
 310              		.loc 1 195 0
 311 01a8 0860     		str	r0, [r1]
 312              	.LBB92:
 313              		.loc 1 202 0
 314 01aa 77EE887A 		vadd.f32	s15, s15, s16
 315              	.LBE92:
 316              		.loc 1 204 0
 317 01ae B1EE045A 		vmov.f32	s10, #5.0e+0
 318              	.LBB93:
 319              		.loc 1 202 0
 320 01b2 77EEA57A 		vadd.f32	s15, s15, s11
 321              	.LBE93:
 322              		.loc 1 196 0
 323 01b6 0428     		cmp	r0, #4
 324              	.LBB94:
 325              		.loc 1 202 0
 326 01b8 77EE867A 		vadd.f32	s15, s15, s12
 327              	.LBE94:
 328              		.loc 1 197 0
 329 01bc C8BF     		it	gt
 330 01be 0022     		movgt	r2, #0
 331              	.LBB95:
 332              		.loc 1 202 0
 333 01c0 77EEA67A 		vadd.f32	s15, s15, s13
 334              	.LBE95:
 335              		.loc 1 197 0
 336 01c4 C8BF     		it	gt
 337 01c6 0A60     		strgt	r2, [r1]
 338              	.LVL13:
 339              	.LBB96:
 340              		.loc 1 202 0
 341 01c8 77EE877A 		vadd.f32	s15, s15, s14
 342              	.LBE96:
ARM GAS  /tmp/cc6dHjyt.s 			page 7


 343              		.loc 1 204 0
 344 01cc 87EE850A 		vdiv.f32	s0, s15, s10
 345 01d0 8DED030A 		vstr.32	s0, [sp, #12]
 346              	.LVL14:
 347              	.L16:
 348              	.LBE90:
 349              		.loc 1 208 0
 350 01d4 D4ED050A 		vldr.32	s1, [r4, #20]
 351 01d8 94ED061A 		vldr.32	s2, [r4, #24]
 352 01dc B7EE002A 		vmov.f32	s4, #1.0e+0
 353 01e0 F0EE481A 		vmov.f32	s3, s16
 354 01e4 FFF7FEFF 		bl	utils_map
 355              	.LVL15:
 356 01e8 04A8     		add	r0, sp, #16
 357 01ea 20ED010A 		vstmdb.32	r0!, {s0}
 358              		.loc 1 209 0
 359 01ee F7EE000A 		vmov.f32	s1, #1.0e+0
 360 01f2 B0EE480A 		vmov.f32	s0, s16
 361 01f6 FFF7FEFF 		bl	utils_truncate_number
 362              	.LVL16:
 363              		.loc 1 212 0
 364 01fa 94F82130 		ldrb	r3, [r4, #33]	@ zero_extendqisi2
 365              		.loc 1 213 0
 366 01fe DDED037A 		vldr.32	s15, [sp, #12]
 367              		.loc 1 212 0
 368 0202 2BB1     		cbz	r3, .L19
 369              		.loc 1 213 0
 370 0204 B7EE007A 		vmov.f32	s14, #1.0e+0
 371 0208 77EE677A 		vsub.f32	s15, s14, s15
 372 020c CDED037A 		vstr.32	s15, [sp, #12]
 373              	.L19:
 374              		.loc 1 216 0
 375 0210 4E4B     		ldr	r3, .L216+76
 376 0212 C3ED007A 		vstr.32	s15, [r3]
 377              	.LVL17:
 378              		.loc 1 221 0
 379 0216 3A4B     		ldr	r3, .L216
 380 0218 1B78     		ldrb	r3, [r3]	@ zero_extendqisi2
 381 021a 03F0FF02 		and	r2, r3, #255
 382 021e 002B     		cmp	r3, #0
 383 0220 00F0A781 		beq	.L20
 384              		.loc 1 222 0
 385 0224 384B     		ldr	r3, .L216+8
 386 0226 1B69     		ldr	r3, [r3, #16]
 387              		.loc 1 223 0
 388 0228 A27F     		ldrb	r2, [r4, #30]	@ zero_extendqisi2
 389              		.loc 1 222 0
 390 022a 4FEA931A 		lsr	r10, r3, #6
 391              	.LVL18:
 392              		.loc 1 223 0
 393 022e 0AB9     		cbnz	r2, .L203
 394 0230 6FEA0A0A 		mvn	r10, r10
 395              	.LVL19:
 396              	.L203:
 397              		.loc 1 226 0
 398 0234 344B     		ldr	r3, .L216+8
 399              	.LVL20:
ARM GAS  /tmp/cc6dHjyt.s 			page 8


 400 0236 1E69     		ldr	r6, [r3, #16]
 401              		.loc 1 227 0
 402 0238 E37F     		ldrb	r3, [r4, #31]	@ zero_extendqisi2
 403              		.loc 1 226 0
 404 023a F609     		lsrs	r6, r6, #7
 405 023c 0AF0010A 		and	r10, r10, #1
 406              	.LVL21:
 407 0240 F243     		mvns	r2, r6
 408              	.LVL22:
 409              		.loc 1 227 0
 410 0242 002B     		cmp	r3, #0
 411 0244 00F03282 		beq	.L204
 412              		.loc 1 228 0
 413 0248 06F00106 		and	r6, r6, #1
 414              	.LVL23:
 415              	.L24:
 416              		.loc 1 247 0
 417 024c 2378     		ldrb	r3, [r4]	@ zero_extendqisi2
 418 024e DBB2     		uxtb	r3, r3
 419 0250 0D2B     		cmp	r3, #13
 420 0252 10D8     		bhi	.L29
 421 0254 0122     		movs	r2, #1
 422 0256 02FA03F3 		lsl	r3, r2, r3
 423 025a 42F24842 		movw	r2, #9288
 424 025e 1342     		tst	r3, r2
 425 0260 40F07082 		bne	.L30
 426 0264 41F22422 		movw	r2, #4644
 427 0268 1342     		tst	r3, r2
 428 026a 40F08A82 		bne	.L31
 429 026e 13F0900F 		tst	r3, #144
 430 0272 40F0D882 		bne	.L32
 431              	.L29:
 432              		.loc 1 277 0
 433 0276 94ED010A 		vldr.32	s0, [r4, #4]
 434              		.loc 1 285 0
 435 027a DFF8E090 		ldr	r9, .L216+92
 436              		.loc 1 277 0
 437 027e 02A8     		add	r0, sp, #8
 438 0280 F7EE000A 		vmov.f32	s1, #1.0e+0
 439 0284 FFF7FEFF 		bl	utils_deadband
 440              	.LVL24:
 441              		.loc 1 280 0
 442 0288 D4ED090A 		vldr.32	s1, [r4, #36]
 443 028c 9DED020A 		vldr.32	s0, [sp, #8]
 444 0290 94ED0A1A 		vldr.32	s2, [r4, #40]
 445 0294 94F82C00 		ldrb	r0, [r4, #44]	@ zero_extendqisi2
 446 0298 FFF7FEFF 		bl	utils_throttle_curve
 447              	.LVL25:
 448              		.loc 1 285 0
 449 029c D9ED007A 		vldr.32	s15, [r9]
 450              		.loc 1 280 0
 451 02a0 8DED020A 		vstr.32	s0, [sp, #8]
 452              		.loc 1 285 0
 453 02a4 F0EEE77A 		vabs.f32	s15, s15
 454 02a8 B0EEC07A 		vabs.f32	s14, s0
 455 02ac B4EEE77A 		vcmpe.f32	s14, s15
 456 02b0 F1EE10FA 		vmrs	APSR_nzcv, FPSCR
ARM GAS  /tmp/cc6dHjyt.s 			page 9


 457 02b4 CCBF     		ite	gt
 458 02b6 D4ED0C0A 		vldrgt.32	s1, [r4, #48]
 459 02ba D4ED0D0A 		vldrle.32	s1, [r4, #52]
 460              	.LVL26:
 461              		.loc 1 287 0
 462 02be DFED247A 		vldr.32	s15, .L216+80
 463 02c2 F4EEE70A 		vcmpe.f32	s1, s15
 464 02c6 F1EE10FA 		vmrs	APSR_nzcv, FPSCR
 465 02ca 00F31582 		bgt	.L208
 466              	.LVL27:
 467              	.L36:
 468              		.loc 1 297 0
 469 02ce FFF7FEFF 		bl	mc_interface_get_configuration
 470              	.LVL28:
 471 02d2 8146     		mov	r9, r0
 472              	.LVL29:
 473              		.loc 1 298 0
 474 02d4 FFF7FEFF 		bl	mc_interface_get_rpm
 475              	.LVL30:
 476              		.loc 1 302 0
 477 02d8 2378     		ldrb	r3, [r4]	@ zero_extendqisi2
 478 02da 013B     		subs	r3, r3, #1
 479 02dc 0C2B     		cmp	r3, #12
 480 02de 3FF6B5AE 		bhi	.L4
 481 02e2 DFE813F0 		tbh	[pc, r3, lsl #1]
 482              	.L40:
 483 02e6 AC00     		.2byte	(.L39-.L40)/2
 484 02e8 AC00     		.2byte	(.L39-.L40)/2
 485 02ea AC00     		.2byte	(.L39-.L40)/2
 486 02ec 1A01     		.2byte	(.L41-.L40)/2
 487 02ee 1A01     		.2byte	(.L41-.L40)/2
 488 02f0 1A01     		.2byte	(.L41-.L40)/2
 489 02f2 1A01     		.2byte	(.L41-.L40)/2
 490 02f4 7D00     		.2byte	(.L42-.L40)/2
 491 02f6 7D00     		.2byte	(.L42-.L40)/2
 492 02f8 7D00     		.2byte	(.L42-.L40)/2
 493 02fa 3D00     		.2byte	(.L43-.L40)/2
 494 02fc 3D00     		.2byte	(.L43-.L40)/2
 495 02fe 3D00     		.2byte	(.L43-.L40)/2
 496              		.p2align 1
 497              	.L217:
 498              		.align	2
 499              	.L216:
 500 0300 00000000 		.word	.LANCHOR0
 501 0304 00000000 		.word	.LC0
 502 0308 00080240 		.word	1073874944
 503 030c 00000000 		.word	.LANCHOR1
 504 0310 00000000 		.word	.LANCHOR2
 505 0314 00000000 		.word	0
 506 0318 00F07F45 		.word	1166012416
 507 031c 00401C46 		.word	1176256512
 508 0320 CDCCCC3D 		.word	1036831949
 509 0324 00000000 		.word	.LANCHOR3
 510 0328 00000000 		.word	ADC_Value
 511 032c 33335340 		.word	1079194419
 512 0330 00000000 		.word	.LANCHOR5
 513 0334 00000000 		.word	.LANCHOR6
ARM GAS  /tmp/cc6dHjyt.s 			page 10


 514 0338 00000000 		.word	.LANCHOR7
 515 033c 00000000 		.word	.LANCHOR8
 516 0340 00000000 		.word	.LANCHOR9
 517 0344 00000000 		.word	.LANCHOR10
 518 0348 00000000 		.word	.LANCHOR11
 519 034c 00000000 		.word	.LANCHOR12
 520 0350 0AD7233C 		.word	1008981770
 521 0354 00000000 		.word	ch
 522 0358 00000000 		.word	.LANCHOR4
 523 035c 00000000 		.word	.LANCHOR13
 524              	.L43:
 525              		.loc 1 361 0
 526 0360 DFF874B3 		ldr	fp, .L218+36
 527 0364 DFEDD37A 		vldr.32	s15, .L218
 528 0368 9BED007A 		vldr.32	s14, [fp]
 529              		.loc 1 355 0
 530 036c DDED02AA 		vldr.32	s21, [sp, #8]
 531              	.LVL31:
 532              		.loc 1 361 0
 533 0370 B4EEE77A 		vcmpe.f32	s14, s15
 534 0374 F1EE10FA 		vmrs	APSR_nzcv, FPSCR
 535 0378 03D5     		bpl	.L53
 536              		.loc 1 361 0 is_stmt 0 discriminator 1
 537 037a 637F     		ldrb	r3, [r4, #29]	@ zero_extendqisi2
 538 037c 002B     		cmp	r3, #0
 539 037e 40F05982 		bne	.L109
 540              	.L53:
 541              	.LVL32:
 542              	.LBB97:
 543              		.loc 1 363 0 is_stmt 1
 544 0382 F5EEC0AA 		vcmpe.f32	s21, #0
 545 0386 F1EE10FA 		vmrs	APSR_nzcv, FPSCR
 546              		.loc 1 366 0
 547 038a B6BF     		itet	lt
 548 038c 99ED060A 		vldrlt.32	s0, [r9, #24]
 549              		.loc 1 364 0
 550 0390 99ED070A 		vldrge.32	s0, [r9, #28]
 551              		.loc 1 366 0
 552 0394 B0EEC00A 		vabslt.f32	s0, s0
 553 0398 20EE2A0A 		vmul.f32	s0, s0, s21
 554              	.LVL33:
 555              		.loc 1 369 0
 556 039c FFF7FEFF 		bl	mc_interface_set_pid_speed
 557              	.LVL34:
 558 03a0 DDED027A 		vldr.32	s15, [sp, #8]
 559              		.loc 1 370 0
 560 03a4 0126     		movs	r6, #1
 561              	.LVL35:
 562              	.L55:
 563              	.LBE97:
 564              		.loc 1 373 0
 565 03a6 9FEDC47A 		vldr.32	s14, .L218+4
 566 03aa F0EEE77A 		vabs.f32	s15, s15
 567 03ae F4EEC77A 		vcmpe.f32	s15, s14
 568 03b2 F1EE10FA 		vmrs	APSR_nzcv, FPSCR
 569 03b6 40F10282 		bpl	.L201
 570              		.loc 1 374 0
ARM GAS  /tmp/cc6dHjyt.s 			page 11


 571 03ba 07EE905A 		vmov	s15, r5	@ int
 572 03be B8EEE77A 		vcvt.f32.s32	s14, s15
 573 03c2 DFEDBE7A 		vldr.32	s15, .L218+8
 574 03c6 DBED006A 		vldr.32	s13, [fp]
 575 03ca 67EE277A 		vmul.f32	s15, s14, s15
 576              		.loc 1 295 0
 577 03ce 4FF00009 		mov	r9, #0
 578              	.LVL36:
 579              		.loc 1 374 0
 580 03d2 87EEA87A 		vdiv.f32	s14, s15, s17
 581 03d6 77EE267A 		vadd.f32	s15, s14, s13
 582 03da CBED007A 		vstr.32	s15, [fp]
 583 03de 4FE0     		b	.L44
 584              	.LVL37:
 585              	.L42:
 586              		.loc 1 342 0
 587 03e0 9DED020A 		vldr.32	s0, [sp, #8]
 588 03e4 DFEDB47A 		vldr.32	s15, .L218+4
 589 03e8 B0EEC07A 		vabs.f32	s14, s0
 590 03ec B4EEE77A 		vcmpe.f32	s14, s15
 591 03f0 F1EE10FA 		vmrs	APSR_nzcv, FPSCR
 592 03f4 00F1D081 		bmi	.L119
 593 03f8 DFF8DCB2 		ldr	fp, .L218+36
 594              	.L49:
 595              		.loc 1 346 0
 596 03fc 9BED007A 		vldr.32	s14, [fp]
 597 0400 DFEDAC7A 		vldr.32	s15, .L218
 598 0404 B4EEE77A 		vcmpe.f32	s14, s15
 599 0408 F1EE10FA 		vmrs	APSR_nzcv, FPSCR
 600 040c 03D5     		bpl	.L51
 601              		.loc 1 346 0 is_stmt 0 discriminator 1
 602 040e 637F     		ldrb	r3, [r4, #29]	@ zero_extendqisi2
 603 0410 002B     		cmp	r3, #0
 604 0412 40F00382 		bne	.L108
 605              	.L51:
 606              		.loc 1 347 0 is_stmt 1
 607 0416 D9ED161A 		vldr.32	s3, [r9, #88]
 608 041a 99ED162A 		vldr.32	s4, [r9, #88]
 609              		.loc 1 294 0
 610 041e DFEDA8AA 		vldr.32	s21, .L218+12
 611              		.loc 1 347 0
 612 0422 F1EE611A 		vneg.f32	s3, s3
 613 0426 B7EE001A 		vmov.f32	s2, #1.0e+0
 614 042a FFEE000A 		vmov.f32	s1, #-1.0e+0
 615 042e FFF7FEFF 		bl	utils_map
 616              	.LVL38:
 617 0432 FFF7FEFF 		bl	mc_interface_set_duty
 618              	.LVL39:
 619              		.loc 1 295 0
 620 0436 4FF00009 		mov	r9, #0
 621              	.LVL40:
 622              		.loc 1 348 0
 623 043a 0126     		movs	r6, #1
 624              	.LVL41:
 625 043c 20E0     		b	.L44
 626              	.LVL42:
 627              	.L39:
ARM GAS  /tmp/cc6dHjyt.s 			page 12


 628              		.loc 1 307 0
 629 043e DDED02AA 		vldr.32	s21, [sp, #8]
 630              	.LVL43:
 631              		.loc 1 313 0
 632 0442 DFED9D7A 		vldr.32	s15, .L218+4
 633 0446 B0EEEA7A 		vabs.f32	s14, s21
 634 044a B4EEE77A 		vcmpe.f32	s14, s15
 635 044e F1EE10FA 		vmrs	APSR_nzcv, FPSCR
 636 0452 40F1D581 		bpl	.L199
 637              		.loc 1 314 0
 638 0456 07EE905A 		vmov	s15, r5	@ int
 639 045a F8EEE76A 		vcvt.f32.s32	s13, s15
 640 045e DFED977A 		vldr.32	s15, .L218+8
 641 0462 DFF874B2 		ldr	fp, .L218+36
 642 0466 66EEA76A 		vmul.f32	s13, s13, s15
 643 046a DBED007A 		vldr.32	s15, [fp]
 644 046e 86EEA87A 		vdiv.f32	s14, s13, s17
 645              		.loc 1 299 0
 646 0472 0026     		movs	r6, #0
 647              	.LVL44:
 648              		.loc 1 306 0
 649 0474 4FF00109 		mov	r9, #1
 650              	.LVL45:
 651              		.loc 1 314 0
 652 0478 77EE277A 		vadd.f32	s15, s14, s15
 653 047c CBED007A 		vstr.32	s15, [fp]
 654              	.LVL46:
 655              	.L44:
 656              		.loc 1 383 0
 657 0480 9BED007A 		vldr.32	s14, [fp]
 658 0484 DFED8B7A 		vldr.32	s15, .L218
 659 0488 B4EEE77A 		vcmpe.f32	s14, s15
 660 048c F1EE10FA 		vmrs	APSR_nzcv, FPSCR
 661 0490 40F18B80 		bpl	.L60
 662              		.loc 1 383 0 is_stmt 0 discriminator 1
 663 0494 637F     		ldrb	r3, [r4, #29]	@ zero_extendqisi2
 664 0496 002B     		cmp	r3, #0
 665 0498 00F08780 		beq	.L60
 666              	.LBB98:
 667              		.loc 1 385 0 is_stmt 1
 668 049c 894B     		ldr	r3, .L218+16
 669 049e 9BED007A 		vldr.32	s14, [fp]
 670 04a2 D3ED007A 		vldr.32	s15, [r3]	@ int
 671 04a6 F8EEE77A 		vcvt.f32.s32	s15, s15
 672 04aa F4EE477A 		vcmp.f32	s15, s14
 673 04ae F1EE10FA 		vmrs	APSR_nzcv, FPSCR
 674              		.loc 1 386 0
 675 04b2 08BF     		it	eq
 676 04b4 8BED008A 		vstreq.32	s16, [fp]
 677              		.loc 1 388 0
 678 04b8 DBED007A 		vldr.32	s15, [fp]
 679 04bc FDEEE77A 		vcvt.s32.f32	s15, s15
 680 04c0 C3ED007A 		vstr.32	s15, [r3]	@ int
 681              		.loc 1 389 0
 682 04c4 FFF7FEFF 		bl	timeout_get_brake_current
 683              	.LVL47:
 684 04c8 FFF7FEFF 		bl	mc_interface_set_brake_current
ARM GAS  /tmp/cc6dHjyt.s 			page 13


 685              	.LVL48:
 686              		.loc 1 391 0
 687 04cc 94F83830 		ldrb	r3, [r4, #56]	@ zero_extendqisi2
 688 04d0 002B     		cmp	r3, #0
 689 04d2 3FF4BBAD 		beq	.L4
 690              	.LBB99:
 691              		.loc 1 392 0
 692 04d6 0025     		movs	r5, #0
 693              	.LVL49:
 694 04d8 02E0     		b	.L63
 695              	.LVL50:
 696              	.L64:
 697              		.loc 1 392 0 is_stmt 0 discriminator 2
 698 04da 0A2D     		cmp	r5, #10
 699 04dc 3FF4B6AD 		beq	.L4
 700              	.LVL51:
 701              	.L63:
 702              	.LBB100:
 703              		.loc 1 393 0 is_stmt 1
 704 04e0 2846     		mov	r0, r5
 705 04e2 FFF7FEFF 		bl	comm_can_get_status_msg_index
 706              	.LVL52:
 707              		.loc 1 395 0
 708 04e6 0668     		ldr	r6, [r0]
 709 04e8 002E     		cmp	r6, #0
 710              	.LBE100:
 711              		.loc 1 392 0
 712 04ea 05F10105 		add	r5, r5, #1
 713              	.LVL53:
 714              	.LBB105:
 715              		.loc 1 395 0
 716 04ee F4DB     		blt	.L64
 717              	.LBB101:
 718              	.LBB102:
 719              		.file 3 "ChibiOS_3.0.2/os/rt/include/chvt.h"
 720              		.loc 3 267 0 discriminator 1
 721 04f0 4268     		ldr	r2, [r0, #4]
 722              	.LBB103:
 723              	.LBB104:
 724              		.loc 3 231 0 discriminator 1
 725 04f2 D8F82830 		ldr	r3, [r8, #40]
 726              	.LVL54:
 727              	.LBE104:
 728              	.LBE103:
 729              		.loc 3 267 0 discriminator 1
 730 04f6 9B1A     		subs	r3, r3, r2
 731              	.LBE102:
 732              	.LBE101:
 733              		.loc 1 395 0 discriminator 1
 734 04f8 07EE903A 		vmov	s15, r3	@ int
 735 04fc F8EE677A 		vcvt.f32.u32	s15, s15
 736 0500 87EEA87A 		vdiv.f32	s14, s15, s17
 737 0504 B4EEC97A 		vcmpe.f32	s14, s18
 738 0508 F1EE10FA 		vmrs	APSR_nzcv, FPSCR
 739 050c E5D5     		bpl	.L64
 740              		.loc 1 396 0
 741 050e FFF7FEFF 		bl	timeout_get_brake_current
ARM GAS  /tmp/cc6dHjyt.s 			page 14


 742              	.LVL55:
 743 0512 F0B2     		uxtb	r0, r6
 744 0514 FFF7FEFF 		bl	comm_can_set_current_brake
 745              	.LVL56:
 746 0518 DFE7     		b	.L64
 747              	.LVL57:
 748              	.L41:
 749              	.LBE105:
 750              	.LBE99:
 751              	.LBE98:
 752              		.loc 1 323 0
 753 051a DDED027A 		vldr.32	s15, [sp, #8]
 754              		.loc 1 330 0
 755 051e 9FED667A 		vldr.32	s14, .L218+4
 756              		.loc 1 323 0
 757 0522 F5EEC07A 		vcmpe.f32	s15, #0
 758 0526 F1EE10FA 		vmrs	APSR_nzcv, FPSCR
 759              		.loc 1 330 0
 760 052a F4EEC77A 		vcmpe.f32	s15, s14
 761              		.loc 1 326 0
 762 052e B9BF     		ittee	lt
 763 0530 F0EEE7AA 		vabslt.f32	s21, s15
 764              	.LVL58:
 765              		.loc 1 327 0
 766 0534 0127     		movlt	r7, #1
 767              		.loc 1 324 0
 768 0536 F0EE67AA 		vmovge.f32	s21, s15
 769              	.LVL59:
 770              		.loc 1 296 0
 771 053a 0027     		movge	r7, #0
 772              	.LVL60:
 773              		.loc 1 330 0
 774 053c F1EE10FA 		vmrs	APSR_nzcv, FPSCR
 775 0540 00F14081 		bmi	.L118
 776              		.loc 1 334 0
 777 0544 2378     		ldrb	r3, [r4]	@ zero_extendqisi2
 778 0546 DFF890B1 		ldr	fp, .L218+36
 779 054a 042B     		cmp	r3, #4
 780 054c 00F05081 		beq	.L209
 781              	.L106:
 782              		.loc 1 299 0
 783 0550 0026     		movs	r6, #0
 784              	.LVL61:
 785              		.loc 1 322 0
 786 0552 4FF00109 		mov	r9, #1
 787              	.LVL62:
 788 0556 93E7     		b	.L44
 789              	.LVL63:
 790              	.L10:
 791              		.loc 1 165 0
 792 0558 D4ED020A 		vldr.32	s1, [r4, #8]
 793 055c 94ED031A 		vldr.32	s2, [r4, #12]
 794 0560 B7EE002A 		vmov.f32	s4, #1.0e+0
 795 0564 F0EE481A 		vmov.f32	s3, s16
 796 0568 FFF7FEFF 		bl	utils_map
 797              	.LVL64:
 798 056c 8DED020A 		vstr.32	s0, [sp, #8]
ARM GAS  /tmp/cc6dHjyt.s 			page 15


 799              		.loc 1 166 0
 800 0570 E1E5     		b	.L13
 801              	.LVL65:
 802              	.L20:
 803              		.loc 1 232 0
 804 0572 2378     		ldrb	r3, [r4]	@ zero_extendqisi2
 805 0574 032B     		cmp	r3, #3
 806 0576 00F0B180 		beq	.L25
 807              		.loc 1 233 0 discriminator 1
 808 057a 2378     		ldrb	r3, [r4]	@ zero_extendqisi2
 809              		.loc 1 232 0 discriminator 1
 810 057c 062B     		cmp	r3, #6
 811 057e 00F0AD80 		beq	.L25
 812              		.loc 1 234 0
 813 0582 2378     		ldrb	r3, [r4]	@ zero_extendqisi2
 814              		.loc 1 233 0
 815 0584 0A2B     		cmp	r3, #10
 816 0586 00F0A980 		beq	.L25
 817              		.loc 1 240 0
 818 058a 4F4B     		ldr	r3, .L218+20
 819 058c 1B69     		ldr	r3, [r3, #16]
 820              		.loc 1 241 0
 821 058e A17F     		ldrb	r1, [r4, #30]	@ zero_extendqisi2
 822              		.loc 1 240 0
 823 0590 4FEA531A 		lsr	r10, r3, #5
 824 0594 6FEA0A03 		mvn	r3, r10
 825              	.LVL66:
 826              		.loc 1 241 0
 827 0598 01F0FF06 		and	r6, r1, #255
 828 059c 0029     		cmp	r1, #0
 829 059e 00F03A81 		beq	.L210
 830              		.loc 1 242 0
 831 05a2 0AF0010A 		and	r10, r10, #1
 832              	.LVL67:
 833              		.loc 1 220 0
 834 05a6 1646     		mov	r6, r2
 835 05a8 50E6     		b	.L24
 836              	.LVL68:
 837              	.L60:
 838              		.loc 1 413 0
 839 05aa 484D     		ldr	r5, .L218+24
 840              	.LVL69:
 841              		.loc 1 405 0
 842 05ac FFF7FEFF 		bl	timeout_reset
 843              	.LVL70:
 844              		.loc 1 413 0
 845 05b0 D5F800B0 		ldr	fp, [r5]
 846 05b4 0BF10103 		add	r3, fp, #1
 847 05b8 2B60     		str	r3, [r5]
 848 05ba FFF7FEFF 		bl	mc_interface_get_rpm
 849              	.LVL71:
 850              		.loc 1 414 0
 851 05be 2A68     		ldr	r2, [r5]
 852              		.loc 1 413 0
 853 05c0 434B     		ldr	r3, .L218+28
 854              		.loc 1 418 0
 855 05c2 DFED3F7A 		vldr.32	s15, .L218+12
ARM GAS  /tmp/cc6dHjyt.s 			page 16


 856              		.loc 1 413 0
 857 05c6 03EB8B03 		add	r3, r3, fp, lsl #2
 858              		.loc 1 414 0
 859 05ca 072A     		cmp	r2, #7
 860              		.loc 1 413 0
 861 05cc 83ED000A 		vstr.32	s0, [r3]
 862              		.loc 1 415 0
 863 05d0 C4BF     		itt	gt
 864 05d2 0023     		movgt	r3, #0
 865 05d4 2B60     		strgt	r3, [r5]
 866              	.LVL72:
 867 05d6 3E4B     		ldr	r3, .L218+28
 868 05d8 03F12002 		add	r2, r3, #32
 869              	.LVL73:
 870              	.L68:
 871              	.LBB106:
 872              		.loc 1 420 0 discriminator 3
 873 05dc B3EC017A 		vldmia.32	r3!, {s14}
 874              		.loc 1 419 0 discriminator 3
 875 05e0 9A42     		cmp	r2, r3
 876              		.loc 1 420 0 discriminator 3
 877 05e2 77EE877A 		vadd.f32	s15, s15, s14
 878              	.LVL74:
 879              		.loc 1 419 0 discriminator 3
 880 05e6 F9D1     		bne	.L68
 881              	.LVL75:
 882              	.LBE106:
 883              		.loc 1 424 0
 884 05e8 B9F1000F 		cmp	r9, #0
 885 05ec 0ED0     		beq	.L69
 886              		.loc 1 424 0 is_stmt 0 discriminator 1
 887 05ee BAF1000F 		cmp	r10, #0
 888 05f2 0BD0     		beq	.L69
 889              		.loc 1 424 0 discriminator 2
 890 05f4 9DED027A 		vldr.32	s14, [sp, #8]
 891 05f8 DFED2F6A 		vldr.32	s13, .L218+4
 892 05fc B0EEC77A 		vabs.f32	s14, s14
 893 0600 B4EEE67A 		vcmpe.f32	s14, s13
 894 0604 F1EE10FA 		vmrs	APSR_nzcv, FPSCR
 895 0608 00F19581 		bmi	.L211
 896              	.L69:
 897              		.loc 1 450 0 is_stmt 1
 898 060c 314B     		ldr	r3, .L218+32
 899 060e 0025     		movs	r5, #0
 900 0610 1D70     		strb	r5, [r3]
 901              		.loc 1 453 0
 902 0612 FFF7FEFF 		bl	mc_interface_get_rpm
 903              	.LVL76:
 904              		.loc 1 455 0
 905 0616 94F83830 		ldrb	r3, [r4, #56]	@ zero_extendqisi2
 906              		.loc 1 453 0
 907 061a B0EE40BA 		vmov.f32	s22, s0
 908              	.LVL77:
 909              		.loc 1 454 0
 910 061e B0EE40AA 		vmov.f32	s20, s0
 911              		.loc 1 455 0
 912 0622 E3B9     		cbnz	r3, .L79
ARM GAS  /tmp/cc6dHjyt.s 			page 17


 913              	.LVL78:
 914              	.L76:
 915              		.loc 1 470 0
 916 0624 26B1     		cbz	r6, .L80
 917              		.loc 1 470 0 is_stmt 0 discriminator 1
 918 0626 94F83830 		ldrb	r3, [r4, #56]	@ zero_extendqisi2
 919 062a 002B     		cmp	r3, #0
 920 062c 40F00681 		bne	.L212
 921              	.L80:
 922              		.loc 1 482 0 is_stmt 1
 923 0630 B9F1000F 		cmp	r9, #0
 924 0634 3FF40AAD 		beq	.L4
 925              		.loc 1 483 0
 926 0638 002F     		cmp	r7, #0
 927 063a 40F0B081 		bne	.L213
 928              	.LVL79:
 929              	.LBB107:
 930              		.loc 1 497 0
 931 063e F5EEC0AA 		vcmpe.f32	s21, #0
 932 0642 F1EE10FA 		vmrs	APSR_nzcv, FPSCR
 933              		.loc 1 506 0
 934 0646 94F83830 		ldrb	r3, [r4, #56]	@ zero_extendqisi2
 935              		.loc 1 497 0
 936 064a 00F16781 		bmi	.L91
 937              		.loc 1 506 0
 938 064e 002B     		cmp	r3, #0
 939 0650 40F01A81 		bne	.L214
 940              	.LVL80:
 941              	.L92:
 942              		.loc 1 538 0
 943 0654 B0EE6A0A 		vmov.f32	s0, s21
 944 0658 FFF7FEFF 		bl	mc_interface_set_current_rel
 945              	.LVL81:
 946 065c F6E4     		b	.L4
 947              	.LVL82:
 948              	.L79:
 949              	.LBE107:
 950              	.LBB108:
 951              	.LBB109:
 952              		.loc 1 457 0
 953 065e 2846     		mov	r0, r5
 954 0660 FFF7FEFF 		bl	comm_can_get_status_msg_index
 955              	.LVL83:
 956              		.loc 1 459 0
 957 0664 0368     		ldr	r3, [r0]
 958 0666 002B     		cmp	r3, #0
 959              	.LBE109:
 960              		.loc 1 456 0
 961 0668 05F10105 		add	r5, r5, #1
 962              	.LVL84:
 963              	.LBB116:
 964              		.loc 1 459 0
 965 066c 1BDB     		blt	.L77
 966              	.LBB110:
 967              	.LBB111:
 968              	.LBB112:
 969              	.LBB113:
ARM GAS  /tmp/cc6dHjyt.s 			page 18


 970              		.loc 3 231 0 discriminator 1
 971 066e D8F82830 		ldr	r3, [r8, #40]
 972              	.LVL85:
 973              	.LBE113:
 974              	.LBE112:
 975              		.loc 3 267 0 discriminator 1
 976 0672 4268     		ldr	r2, [r0, #4]
 977 0674 9B1A     		subs	r3, r3, r2
 978              	.LBE111:
 979              	.LBE110:
 980              		.loc 1 459 0 discriminator 1
 981 0676 07EE903A 		vmov	s15, r3	@ int
 982 067a F8EE677A 		vcvt.f32.u32	s15, s15
 983              	.LBB114:
 984              		.loc 1 462 0 discriminator 1
 985 067e F0EECA6A 		vabs.f32	s13, s20
 986              	.LBE114:
 987              		.loc 1 459 0 discriminator 1
 988 0682 87EEA87A 		vdiv.f32	s14, s15, s17
 989 0686 B4EEC97A 		vcmpe.f32	s14, s18
 990 068a F1EE10FA 		vmrs	APSR_nzcv, FPSCR
 991 068e 0AD5     		bpl	.L77
 992              	.LBB115:
 993              		.loc 1 460 0
 994 0690 D0ED027A 		vldr.32	s15, [r0, #8]
 995              	.LVL86:
 996              		.loc 1 462 0
 997 0694 B0EEE77A 		vabs.f32	s14, s15
 998              		.loc 1 463 0
 999 0698 B4EE667A 		vcmp.f32	s14, s13
 1000 069c F1EE10FA 		vmrs	APSR_nzcv, FPSCR
 1001 06a0 48BF     		it	mi
 1002 06a2 B0EE67AA 		vmovmi.f32	s20, s15
 1003              	.LVL87:
 1004              	.L77:
 1005              	.LBE115:
 1006              	.LBE116:
 1007              		.loc 1 456 0 discriminator 2
 1008 06a6 0A2D     		cmp	r5, #10
 1009 06a8 D9D1     		bne	.L79
 1010 06aa BBE7     		b	.L76
 1011              	.LVL88:
 1012              	.L204:
 1013              	.LBE108:
 1014              		.loc 1 235 0
 1015 06ac 02F00106 		and	r6, r2, #1
 1016 06b0 CCE5     		b	.L24
 1017              	.L219:
 1018 06b2 00BF     		.align	2
 1019              	.L218:
 1020 06b4 0000FA43 		.word	1140457472
 1021 06b8 6F12833A 		.word	981668463
 1022 06bc 00007A44 		.word	1148846080
 1023 06c0 00000000 		.word	0
 1024 06c4 00000000 		.word	.LANCHOR15
 1025 06c8 00040240 		.word	1073873920
 1026 06cc 00000000 		.word	.LANCHOR16
ARM GAS  /tmp/cc6dHjyt.s 			page 19


 1027 06d0 00000000 		.word	.LANCHOR17
 1028 06d4 00000000 		.word	.LANCHOR18
 1029 06d8 00000000 		.word	.LANCHOR4
 1030              	.LVL89:
 1031              	.L25:
 1032 06dc D24B     		ldr	r3, .L220
 1033 06de 1E69     		ldr	r6, [r3, #16]
 1034              		.loc 1 236 0
 1035 06e0 E37F     		ldrb	r3, [r4, #31]	@ zero_extendqisi2
 1036              		.loc 1 235 0
 1037 06e2 7609     		lsrs	r6, r6, #5
 1038 06e4 F243     		mvns	r2, r6
 1039              	.LVL90:
 1040              		.loc 1 236 0
 1041 06e6 03F0FF0A 		and	r10, r3, #255
 1042 06ea 002B     		cmp	r3, #0
 1043 06ec DED0     		beq	.L204
 1044              		.loc 1 237 0
 1045 06ee 06F00106 		and	r6, r6, #1
 1046              	.LVL91:
 1047              		.loc 1 219 0
 1048 06f2 4FF0000A 		mov	r10, #0
 1049 06f6 A9E5     		b	.L24
 1050              	.LVL92:
 1051              	.L208:
 1052              	.LBB117:
 1053              		.loc 1 288 0
 1054 06f8 DFF84CB3 		ldr	fp, .L220+32
 1055              	.LBB118:
 1056              	.LBB119:
 1057              	.LBB120:
 1058              	.LBB121:
 1059              		.loc 3 231 0
 1060 06fc D8F82830 		ldr	r3, [r8, #40]
 1061              	.LVL93:
 1062              	.LBE121:
 1063              	.LBE120:
 1064              		.loc 3 267 0
 1065 0700 DBF80020 		ldr	r2, [fp]
 1066              	.LBE119:
 1067              	.LBE118:
 1068              		.loc 1 288 0
 1069 0704 C949     		ldr	r1, .L220+4
 1070 0706 9FEDCA7A 		vldr.32	s14, .L220+8
 1071              	.LBB123:
 1072              	.LBB122:
 1073              		.loc 3 267 0
 1074 070a 9B1A     		subs	r3, r3, r2
 1075              	.LVL94:
 1076              	.LBE122:
 1077              	.LBE123:
 1078              		.loc 1 288 0
 1079 070c 4FF47A70 		mov	r0, #1000
 1080 0710 42F20F72 		movw	r2, #9999
 1081 0714 00FB0323 		mla	r3, r0, r3, r2
 1082 0718 A1FB0323 		umull	r2, r3, r1, r3
 1083 071c 5B0B     		lsrs	r3, r3, #13
ARM GAS  /tmp/cc6dHjyt.s 			page 20


 1084 071e 07EE903A 		vmov	s15, r3	@ int
 1085 0722 60EE870A 		vmul.f32	s1, s1, s14
 1086              	.LVL95:
 1087 0726 F8EEE77A 		vcvt.f32.s32	s15, s15
 1088              		.loc 1 289 0
 1089 072a C248     		ldr	r0, .L220+12
 1090 072c C7EEA00A 		vdiv.f32	s1, s15, s1
 1091 0730 FFF7FEFF 		bl	utils_step_towards
 1092              	.LVL96:
 1093              	.LBB124:
 1094              	.LBB125:
 1095              		.loc 3 231 0
 1096 0734 D8F82830 		ldr	r3, [r8, #40]
 1097              	.LBE125:
 1098              	.LBE124:
 1099              		.loc 1 290 0
 1100 0738 CBF80030 		str	r3, [fp]
 1101              		.loc 1 291 0
 1102 073c D9F80030 		ldr	r3, [r9]	@ float
 1103 0740 0293     		str	r3, [sp, #8]	@ float
 1104 0742 C4E5     		b	.L36
 1105              	.L30:
 1106              	.LBE117:
 1107              		.loc 1 267 0
 1108 0744 002E     		cmp	r6, #0
 1109 0746 3FF496AD 		beq	.L29
 1110              		.loc 1 268 0
 1111 074a DDED027A 		vldr.32	s15, [sp, #8]
 1112 074e F1EE677A 		vneg.f32	s15, s15
 1113 0752 CDED027A 		vstr.32	s15, [sp, #8]
 1114 0756 8EE5     		b	.L29
 1115              	.LVL97:
 1116              	.L207:
 1117              		.loc 1 114 0
 1118 0758 B74A     		ldr	r2, .L220+16
 1119 075a 0023     		movs	r3, #0
 1120 075c 1370     		strb	r3, [r2]
 1121              	.LBE155:
 1122              		.loc 1 543 0
 1123 075e 05B0     		add	sp, sp, #20
 1124              		.cfi_remember_state
 1125              		.cfi_def_cfa_offset 68
 1126              		@ sp needed
 1127 0760 BDEC088B 		vldm	sp!, {d8-d11}
 1128              		.cfi_restore 86
 1129              		.cfi_restore 87
 1130              		.cfi_restore 84
 1131              		.cfi_restore 85
 1132              		.cfi_restore 82
 1133              		.cfi_restore 83
 1134              		.cfi_restore 80
 1135              		.cfi_restore 81
 1136              		.cfi_def_cfa_offset 36
 1137 0764 BDE8F08F 		pop	{r4, r5, r6, r7, r8, r9, r10, fp, pc}
 1138              	.LVL98:
 1139              	.L197:
 1140              		.cfi_restore_state
ARM GAS  /tmp/cc6dHjyt.s 			page 21


 1141              	.LBB156:
 1142              		.loc 1 158 0
 1143 0768 D4ED040A 		vldr.32	s1, [r4, #16]
 1144 076c 94ED031A 		vldr.32	s2, [r4, #12]
 1145 0770 B7EE002A 		vmov.f32	s4, #1.0e+0
 1146 0774 F6EE001A 		vmov.f32	s3, #5.0e-1
 1147 0778 FFF7FEFF 		bl	utils_map
 1148              	.LVL99:
 1149 077c 8DED020A 		vstr.32	s0, [sp, #8]
 1150 0780 D9E4     		b	.L13
 1151              	.LVL100:
 1152              	.L31:
 1153              		.loc 1 254 0
 1154 0782 DDED026A 		vldr.32	s13, [sp, #8]
 1155 0786 B0EE007A 		vmov.f32	s14, #2.0e+0
 1156 078a FFEE007A 		vmov.f32	s15, #-1.0e+0
 1157 078e E6EE877A 		vfma.f32	s15, s13, s14
 1158 0792 CDED027A 		vstr.32	s15, [sp, #8]
 1159              		.loc 1 255 0
 1160 0796 6EE5     		b	.L29
 1161              	.LVL101:
 1162              	.L119:
 1163              		.loc 1 343 0
 1164 0798 07EE905A 		vmov	s15, r5	@ int
 1165 079c F8EEE76A 		vcvt.f32.s32	s13, s15
 1166 07a0 DFEDA37A 		vldr.32	s15, .L220+8
 1167 07a4 DFF8A4B2 		ldr	fp, .L220+36
 1168 07a8 66EEA76A 		vmul.f32	s13, s13, s15
 1169 07ac DBED007A 		vldr.32	s15, [fp]
 1170 07b0 86EEA87A 		vdiv.f32	s14, s13, s17
 1171 07b4 77EE277A 		vadd.f32	s15, s14, s15
 1172 07b8 CBED007A 		vstr.32	s15, [fp]
 1173 07bc 1EE6     		b	.L49
 1174              	.LVL102:
 1175              	.L201:
 1176              		.loc 1 295 0
 1177 07be 4FF00009 		mov	r9, #0
 1178              	.LVL103:
 1179 07c2 5DE6     		b	.L44
 1180              	.LVL104:
 1181              	.L118:
 1182              		.loc 1 331 0
 1183 07c4 07EE905A 		vmov	s15, r5	@ int
 1184 07c8 F8EEE76A 		vcvt.f32.s32	s13, s15
 1185 07cc DFED987A 		vldr.32	s15, .L220+8
 1186 07d0 DFF878B2 		ldr	fp, .L220+36
 1187 07d4 66EEA76A 		vmul.f32	s13, s13, s15
 1188 07d8 DBED007A 		vldr.32	s15, [fp]
 1189 07dc 86EEA87A 		vdiv.f32	s14, s13, s17
 1190 07e0 77EE277A 		vadd.f32	s15, s14, s15
 1191 07e4 CBED007A 		vstr.32	s15, [fp]
 1192              		.loc 1 334 0
 1193 07e8 2378     		ldrb	r3, [r4]	@ zero_extendqisi2
 1194 07ea 042B     		cmp	r3, #4
 1195 07ec 7FF4B0AE 		bne	.L106
 1196              	.L209:
 1197              		.loc 1 334 0 is_stmt 0 discriminator 1
ARM GAS  /tmp/cc6dHjyt.s 			page 22


 1198 07f0 002E     		cmp	r6, #0
 1199 07f2 00F0FA80 		beq	.L107
 1200              		.loc 1 322 0 is_stmt 1
 1201 07f6 B146     		mov	r9, r6
 1202              	.LVL105:
 1203              		.loc 1 335 0
 1204 07f8 F1EE6AAA 		vneg.f32	s21, s21
 1205              	.LVL106:
 1206              		.loc 1 299 0
 1207 07fc 0026     		movs	r6, #0
 1208              	.LVL107:
 1209 07fe 3FE6     		b	.L44
 1210              	.LVL108:
 1211              	.L199:
 1212 0800 0026     		movs	r6, #0
 1213              	.LVL109:
 1214              		.loc 1 306 0
 1215 0802 4FF00109 		mov	r9, #1
 1216              	.LVL110:
 1217 0806 DFF844B2 		ldr	fp, .L220+36
 1218 080a 39E6     		b	.L44
 1219              	.LVL111:
 1220              	.L2:
 1221              	.LBE156:
 1222              		.loc 1 98 0
 1223 080c 1146     		mov	r1, r2
 1224 080e 8648     		ldr	r0, .L220
 1225              	.LVL112:
 1226 0810 FFF7FEFF 		bl	_pal_lld_setgroupmode
 1227              	.LVL113:
 1228 0814 0EE4     		b	.L3
 1229              	.LVL114:
 1230              	.L210:
 1231              	.LBB157:
 1232              		.loc 1 240 0
 1233 0816 03F0010A 		and	r10, r3, #1
 1234 081a 17E5     		b	.L24
 1235              	.LVL115:
 1236              	.L108:
 1237              		.loc 1 299 0
 1238 081c 0026     		movs	r6, #0
 1239              	.LVL116:
 1240              		.loc 1 295 0
 1241 081e B146     		mov	r9, r6
 1242              	.LVL117:
 1243              		.loc 1 294 0
 1244 0820 DFED86AA 		vldr.32	s21, .L220+20
 1245 0824 2CE6     		b	.L44
 1246              	.LVL118:
 1247              	.L32:
 1248              		.loc 1 259 0
 1249 0826 9DED027A 		vldr.32	s14, [sp, #8]
 1250 082a 77EE677A 		vsub.f32	s15, s14, s15
 1251 082e CDED027A 		vstr.32	s15, [sp, #8]
 1252              		.loc 1 260 0
 1253 0832 20E5     		b	.L29
 1254              	.LVL119:
ARM GAS  /tmp/cc6dHjyt.s 			page 23


 1255              	.L109:
 1256 0834 F0EE6A7A 		vmov.f32	s15, s21
 1257              		.loc 1 299 0
 1258 0838 0026     		movs	r6, #0
 1259              	.LVL120:
 1260 083a B4E5     		b	.L55
 1261              	.LVL121:
 1262              	.L212:
 1263              	.LBB126:
 1264              		.loc 1 471 0
 1265 083c FFF7FEFF 		bl	mc_interface_get_duty_cycle_now
 1266              	.LVL122:
 1267              	.LBB127:
 1268              		.loc 1 473 0
 1269 0840 0025     		movs	r5, #0
 1270              	.LBE127:
 1271              		.loc 1 471 0
 1272 0842 F0EE40BA 		vmov.f32	s23, s0
 1273              	.LVL123:
 1274 0846 02E0     		b	.L83
 1275              	.LVL124:
 1276              	.L81:
 1277              	.LBB134:
 1278              		.loc 1 473 0 discriminator 2
 1279 0848 0A2D     		cmp	r5, #10
 1280 084a 3FF4F1AE 		beq	.L80
 1281              	.LVL125:
 1282              	.L83:
 1283              	.LBB128:
 1284              		.loc 1 474 0
 1285 084e 2846     		mov	r0, r5
 1286 0850 FFF7FEFF 		bl	comm_can_get_status_msg_index
 1287              	.LVL126:
 1288              		.loc 1 476 0
 1289 0854 0268     		ldr	r2, [r0]
 1290 0856 002A     		cmp	r2, #0
 1291              	.LBE128:
 1292              		.loc 1 473 0
 1293 0858 05F10105 		add	r5, r5, #1
 1294              	.LVL127:
 1295              	.LBB133:
 1296              		.loc 1 476 0
 1297 085c F4DB     		blt	.L81
 1298              	.LBB129:
 1299              	.LBB130:
 1300              		.loc 3 267 0 discriminator 1
 1301 085e 4168     		ldr	r1, [r0, #4]
 1302              	.LBB131:
 1303              	.LBB132:
 1304              		.loc 3 231 0 discriminator 1
 1305 0860 D8F82830 		ldr	r3, [r8, #40]
 1306              	.LVL128:
 1307              	.LBE132:
 1308              	.LBE131:
 1309              		.loc 3 267 0 discriminator 1
 1310 0864 5B1A     		subs	r3, r3, r1
 1311              	.LBE130:
ARM GAS  /tmp/cc6dHjyt.s 			page 24


 1312              	.LBE129:
 1313              		.loc 1 476 0 discriminator 1
 1314 0866 07EE903A 		vmov	s15, r3	@ int
 1315 086a F8EE677A 		vcvt.f32.u32	s15, s15
 1316 086e 87EEA87A 		vdiv.f32	s14, s15, s17
 1317 0872 B4EEC97A 		vcmpe.f32	s14, s18
 1318 0876 F1EE10FA 		vmrs	APSR_nzcv, FPSCR
 1319 087a E5D5     		bpl	.L81
 1320              		.loc 1 477 0
 1321 087c D0B2     		uxtb	r0, r2
 1322              	.LVL129:
 1323 087e B0EE6B0A 		vmov.f32	s0, s23
 1324 0882 FFF7FEFF 		bl	comm_can_set_duty
 1325              	.LVL130:
 1326 0886 DFE7     		b	.L81
 1327              	.LVL131:
 1328              	.L214:
 1329              	.LBE133:
 1330              	.LBE134:
 1331              	.LBE126:
 1332              	.LBB135:
 1333              		.loc 1 506 0
 1334 0888 F0EE6ABA 		vmov.f32	s23, s21
 1335              	.LVL132:
 1336              	.L95:
 1337              		.loc 1 500 0 discriminator 1
 1338 088c 0025     		movs	r5, #0
 1339              	.LVL133:
 1340              	.L93:
 1341              	.LBB81:
 1342              	.LBB80:
 1343              		.loc 1 508 0
 1344 088e 2846     		mov	r0, r5
 1345 0890 FFF7FEFF 		bl	comm_can_get_status_msg_index
 1346              	.LVL134:
 1347              		.loc 1 510 0
 1348 0894 0368     		ldr	r3, [r0]
 1349 0896 002B     		cmp	r3, #0
 1350 0898 30DB     		blt	.L96
 1351              	.LBB74:
 1352              	.LBB75:
 1353              	.LBB76:
 1354              	.LBB77:
 1355              		.loc 3 231 0 discriminator 1
 1356 089a D8F82820 		ldr	r2, [r8, #40]
 1357              	.LVL135:
 1358              	.LBE77:
 1359              	.LBE76:
 1360              		.loc 3 267 0 discriminator 1
 1361 089e 4168     		ldr	r1, [r0, #4]
 1362 08a0 521A     		subs	r2, r2, r1
 1363              	.LBE75:
 1364              	.LBE74:
 1365              		.loc 1 510 0 discriminator 1
 1366 08a2 07EE902A 		vmov	s15, r2	@ int
 1367 08a6 F8EE677A 		vcvt.f32.u32	s15, s15
 1368 08aa 87EEA87A 		vdiv.f32	s14, s15, s17
ARM GAS  /tmp/cc6dHjyt.s 			page 25


 1369 08ae B4EEC97A 		vcmpe.f32	s14, s18
 1370 08b2 F1EE10FA 		vmrs	APSR_nzcv, FPSCR
 1371 08b6 21D5     		bpl	.L96
 1372              		.loc 1 511 0
 1373 08b8 94F83920 		ldrb	r2, [r4, #57]	@ zero_extendqisi2
 1374              	.LBB78:
 1375              		.loc 1 518 0
 1376 08bc DFED5F0A 		vldr.32	s1, .L220+20
 1377              	.LBE78:
 1378              		.loc 1 511 0
 1379 08c0 9AB1     		cbz	r2, .L98
 1380              	.LBB79:
 1381              		.loc 1 512 0
 1382 08c2 90ED020A 		vldr.32	s0, [r0, #8]
 1383              	.LVL136:
 1384              		.loc 1 513 0
 1385 08c6 0FB1     		cbz	r7, .L99
 1386              		.loc 1 514 0
 1387 08c8 B1EE400A 		vneg.f32	s0, s0
 1388              	.LVL137:
 1389              	.L99:
 1390              		.loc 1 518 0
 1391 08cc 94ED0F1A 		vldr.32	s2, [r4, #60]
 1392 08d0 0190     		str	r0, [sp, #4]
 1393 08d2 30EE4A0A 		vsub.f32	s0, s0, s20
 1394              	.LVL138:
 1395 08d6 B0EE482A 		vmov.f32	s4, s16
 1396 08da F0EE6B1A 		vmov.f32	s3, s23
 1397 08de FFF7FEFF 		bl	utils_map
 1398              	.LVL139:
 1399 08e2 0198     		ldr	r0, [sp, #4]
 1400 08e4 0368     		ldr	r3, [r0]
 1401 08e6 F0EE40AA 		vmov.f32	s21, s0
 1402              	.LVL140:
 1403              	.L98:
 1404 08ea DBB2     		uxtb	r3, r3
 1405              	.LBE79:
 1406              		.loc 1 522 0
 1407 08ec B1EE6A0A 		vneg.f32	s0, s21
 1408 08f0 1846     		mov	r0, r3
 1409              		.loc 1 521 0
 1410 08f2 0FB9     		cbnz	r7, .L205
 1411              		.loc 1 524 0
 1412 08f4 B0EE6A0A 		vmov.f32	s0, s21
 1413              	.L205:
 1414 08f8 FFF7FEFF 		bl	comm_can_set_current_rel
 1415              	.LVL141:
 1416              	.L96:
 1417              	.LBE80:
 1418              		.loc 1 507 0 discriminator 2
 1419 08fc 0135     		adds	r5, r5, #1
 1420              	.LVL142:
 1421 08fe 0A2D     		cmp	r5, #10
 1422 0900 C5D1     		bne	.L93
 1423              	.LBE81:
 1424              		.loc 1 529 0
 1425 0902 94F83930 		ldrb	r3, [r4, #57]	@ zero_extendqisi2
ARM GAS  /tmp/cc6dHjyt.s 			page 26


 1426 0906 002B     		cmp	r3, #0
 1427 0908 7CD1     		bne	.L215
 1428              		.loc 1 535 0
 1429 090a 002F     		cmp	r7, #0
 1430 090c 3FF4A2AE 		beq	.L92
 1431              	.LVL143:
 1432              	.L94:
 1433              		.loc 1 536 0
 1434 0910 B1EE6A0A 		vneg.f32	s0, s21
 1435 0914 FFF7FEFF 		bl	mc_interface_set_current_rel
 1436              	.LVL144:
 1437 0918 FFF798BB 		b	.L4
 1438              	.LVL145:
 1439              	.L91:
 1440              		.loc 1 499 0
 1441 091c F1EE6AAA 		vneg.f32	s21, s21
 1442              	.LVL146:
 1443              		.loc 1 506 0
 1444 0920 03F0FF07 		and	r7, r3, #255
 1445              	.LVL147:
 1446 0924 002B     		cmp	r3, #0
 1447 0926 F3D0     		beq	.L94
 1448              		.loc 1 501 0
 1449 0928 B1EE4BBA 		vneg.f32	s22, s22
 1450              	.LVL148:
 1451              		.loc 1 502 0
 1452 092c B1EE4AAA 		vneg.f32	s20, s20
 1453              	.LVL149:
 1454              		.loc 1 500 0
 1455 0930 F0EE6ABA 		vmov.f32	s23, s21
 1456 0934 AAE7     		b	.L95
 1457              	.LVL150:
 1458              	.L211:
 1459              	.LBE135:
 1460              	.LBB136:
 1461              		.loc 1 427 0
 1462 0936 424B     		ldr	r3, .L220+24
 1463 0938 1A78     		ldrb	r2, [r3]	@ zero_extendqisi2
 1464 093a 002A     		cmp	r2, #0
 1465 093c 58D0     		beq	.L71
 1466 093e 414B     		ldr	r3, .L220+28
 1467 0940 93ED000A 		vldr.32	s0, [r3]
 1468              	.L72:
 1469              		.loc 1 432 0
 1470 0944 FFF7FEFF 		bl	mc_interface_set_pid_speed
 1471              	.LVL151:
 1472              		.loc 1 435 0
 1473 0948 94F83830 		ldrb	r3, [r4, #56]	@ zero_extendqisi2
 1474 094c 002B     		cmp	r3, #0
 1475 094e 3FF47DAB 		beq	.L4
 1476              	.LBB137:
 1477              		.loc 1 436 0
 1478 0952 FFF7FEFF 		bl	mc_interface_get_tot_current_directional_filtered
 1479              	.LVL152:
 1480              	.LBB138:
 1481              		.loc 1 438 0
 1482 0956 0025     		movs	r5, #0
ARM GAS  /tmp/cc6dHjyt.s 			page 27


 1483              	.LBE138:
 1484              		.loc 1 436 0
 1485 0958 B0EE40AA 		vmov.f32	s20, s0
 1486              	.LVL153:
 1487 095c 02E0     		b	.L75
 1488              	.LVL154:
 1489              	.L73:
 1490              	.LBB145:
 1491              		.loc 1 438 0 discriminator 2
 1492 095e 0A2D     		cmp	r5, #10
 1493 0960 3FF474AB 		beq	.L4
 1494              	.LVL155:
 1495              	.L75:
 1496              	.LBB139:
 1497              		.loc 1 439 0
 1498 0964 2846     		mov	r0, r5
 1499 0966 FFF7FEFF 		bl	comm_can_get_status_msg_index
 1500              	.LVL156:
 1501              		.loc 1 441 0
 1502 096a 0268     		ldr	r2, [r0]
 1503 096c 002A     		cmp	r2, #0
 1504              	.LBE139:
 1505              		.loc 1 438 0
 1506 096e 05F10105 		add	r5, r5, #1
 1507              	.LVL157:
 1508              	.LBB144:
 1509              		.loc 1 441 0
 1510 0972 F4DB     		blt	.L73
 1511              	.LBB140:
 1512              	.LBB141:
 1513              		.loc 3 267 0 discriminator 1
 1514 0974 4168     		ldr	r1, [r0, #4]
 1515              	.LBB142:
 1516              	.LBB143:
 1517              		.loc 3 231 0 discriminator 1
 1518 0976 D8F82830 		ldr	r3, [r8, #40]
 1519              	.LVL158:
 1520              	.LBE143:
 1521              	.LBE142:
 1522              		.loc 3 267 0 discriminator 1
 1523 097a 5B1A     		subs	r3, r3, r1
 1524              	.LBE141:
 1525              	.LBE140:
 1526              		.loc 1 441 0 discriminator 1
 1527 097c 07EE903A 		vmov	s15, r3	@ int
 1528 0980 F8EE677A 		vcvt.f32.u32	s15, s15
 1529 0984 87EEA87A 		vdiv.f32	s14, s15, s17
 1530 0988 B4EEC97A 		vcmpe.f32	s14, s18
 1531 098c F1EE10FA 		vmrs	APSR_nzcv, FPSCR
 1532 0990 E5D5     		bpl	.L73
 1533              		.loc 1 442 0
 1534 0992 D0B2     		uxtb	r0, r2
 1535              	.LVL159:
 1536 0994 B0EE4A0A 		vmov.f32	s0, s20
 1537 0998 FFF7FEFF 		bl	comm_can_set_current
 1538              	.LVL160:
 1539 099c DFE7     		b	.L73
ARM GAS  /tmp/cc6dHjyt.s 			page 28


 1540              	.LVL161:
 1541              	.L213:
 1542              	.LBE144:
 1543              	.LBE145:
 1544              	.LBE137:
 1545              	.LBE136:
 1546              		.loc 1 484 0
 1547 099e B0EE6A0A 		vmov.f32	s0, s21
 1548 09a2 FFF7FEFF 		bl	mc_interface_set_brake_current_rel
 1549              	.LVL162:
 1550              	.LBB146:
 1551              		.loc 1 487 0
 1552 09a6 0025     		movs	r5, #0
 1553 09a8 02E0     		b	.L89
 1554              	.LVL163:
 1555              	.L87:
 1556              		.loc 1 487 0 is_stmt 0 discriminator 2
 1557 09aa 0A2D     		cmp	r5, #10
 1558 09ac 3FF44EAB 		beq	.L4
 1559              	.LVL164:
 1560              	.L89:
 1561              	.LBB147:
 1562              		.loc 1 488 0 is_stmt 1
 1563 09b0 2846     		mov	r0, r5
 1564 09b2 FFF7FEFF 		bl	comm_can_get_status_msg_index
 1565              	.LVL165:
 1566              		.loc 1 490 0
 1567 09b6 0268     		ldr	r2, [r0]
 1568 09b8 002A     		cmp	r2, #0
 1569              	.LBE147:
 1570              		.loc 1 487 0
 1571 09ba 05F10105 		add	r5, r5, #1
 1572              	.LVL166:
 1573              	.LBB152:
 1574              		.loc 1 490 0
 1575 09be F4DB     		blt	.L87
 1576              	.LBB148:
 1577              	.LBB149:
 1578              		.loc 3 267 0 discriminator 1
 1579 09c0 4168     		ldr	r1, [r0, #4]
 1580              	.LBB150:
 1581              	.LBB151:
 1582              		.loc 3 231 0 discriminator 1
 1583 09c2 D8F82830 		ldr	r3, [r8, #40]
 1584              	.LVL167:
 1585              	.LBE151:
 1586              	.LBE150:
 1587              		.loc 3 267 0 discriminator 1
 1588 09c6 5B1A     		subs	r3, r3, r1
 1589              	.LBE149:
 1590              	.LBE148:
 1591              		.loc 1 490 0 discriminator 1
 1592 09c8 07EE903A 		vmov	s15, r3	@ int
 1593 09cc F8EE677A 		vcvt.f32.u32	s15, s15
 1594 09d0 87EEA87A 		vdiv.f32	s14, s15, s17
 1595 09d4 B4EEC97A 		vcmpe.f32	s14, s18
 1596 09d8 F1EE10FA 		vmrs	APSR_nzcv, FPSCR
ARM GAS  /tmp/cc6dHjyt.s 			page 29


 1597 09dc E5D5     		bpl	.L87
 1598              		.loc 1 491 0
 1599 09de D0B2     		uxtb	r0, r2
 1600              	.LVL168:
 1601 09e0 B0EE6A0A 		vmov.f32	s0, s21
 1602 09e4 FFF7FEFF 		bl	comm_can_set_current_brake_rel
 1603              	.LVL169:
 1604 09e8 DFE7     		b	.L87
 1605              	.LVL170:
 1606              	.L107:
 1607              	.LBE152:
 1608              	.LBE146:
 1609              		.loc 1 322 0
 1610 09ea 4FF00109 		mov	r9, #1
 1611              	.LVL171:
 1612 09ee 47E5     		b	.L44
 1613              	.LVL172:
 1614              	.L71:
 1615              		.loc 1 422 0
 1616 09f0 B4EE000A 		vmov.f32	s0, #1.25e-1
 1617 09f4 27EE800A 		vmul.f32	s0, s15, s0
 1618              	.LBB153:
 1619              		.loc 1 429 0
 1620 09f8 1249     		ldr	r1, .L220+28
 1621              		.loc 1 428 0
 1622 09fa 0122     		movs	r2, #1
 1623              		.loc 1 429 0
 1624 09fc 81ED000A 		vstr.32	s0, [r1]
 1625              		.loc 1 428 0
 1626 0a00 1A70     		strb	r2, [r3]
 1627 0a02 9FE7     		b	.L72
 1628              	.LVL173:
 1629              	.L215:
 1630              	.LBE153:
 1631              	.LBB154:
 1632              	.LBB82:
 1633              		.loc 1 531 0
 1634 0a04 94ED0F1A 		vldr.32	s2, [r4, #60]
 1635 0a08 DFED0C0A 		vldr.32	s1, .L220+20
 1636 0a0c F0EE6B1A 		vmov.f32	s3, s23
 1637 0a10 3BEE4A0A 		vsub.f32	s0, s22, s20
 1638              	.LVL174:
 1639 0a14 B0EE482A 		vmov.f32	s4, s16
 1640 0a18 FFF7FEFF 		bl	utils_map
 1641              	.LVL175:
 1642 0a1c F0EE40AA 		vmov.f32	s21, s0
 1643              	.LVL176:
 1644              	.LBE82:
 1645              		.loc 1 535 0
 1646 0a20 002F     		cmp	r7, #0
 1647 0a22 3FF417AE 		beq	.L92
 1648 0a26 73E7     		b	.L94
 1649              	.L221:
 1650              		.align	2
 1651              	.L220:
 1652 0a28 00040240 		.word	1073873920
 1653 0a2c 5917B7D1 		.word	-776530087
ARM GAS  /tmp/cc6dHjyt.s 			page 30


 1654 0a30 00007A44 		.word	1148846080
 1655 0a34 00000000 		.word	.LANCHOR13
 1656 0a38 00000000 		.word	.LANCHOR1
 1657 0a3c 00000000 		.word	0
 1658 0a40 00000000 		.word	.LANCHOR18
 1659 0a44 00000000 		.word	.LANCHOR19
 1660 0a48 00000000 		.word	.LANCHOR14
 1661 0a4c 00000000 		.word	.LANCHOR4
 1662              	.LBE154:
 1663              	.LBE157:
 1664              		.cfi_endproc
 1665              	.LFE263:
 1666              		.size	adc_thread, .-adc_thread
 1667              		.section	.text.app_adc_configure,"ax",%progbits
 1668              		.align	1
 1669              		.p2align 4,,15
 1670              		.global	app_adc_configure
 1671              		.syntax unified
 1672              		.thumb
 1673              		.thumb_func
 1674              		.fpu fpv4-sp-d16
 1675              		.type	app_adc_configure, %function
 1676              	app_adc_configure:
 1677              	.LFB256:
 1678              		.loc 1 53 0
 1679              		.cfi_startproc
 1680              		@ args = 0, pretend = 0, frame = 0
 1681              		@ frame_needed = 0, uses_anonymous_args = 0
 1682              	.LVL177:
 1683 0000 08B5     		push	{r3, lr}
 1684              		.cfi_def_cfa_offset 8
 1685              		.cfi_offset 3, -8
 1686              		.cfi_offset 14, -4
 1687              		.loc 1 54 0
 1688 0002 0146     		mov	r1, r0
 1689 0004 4422     		movs	r2, #68
 1690 0006 0348     		ldr	r0, .L224
 1691              	.LVL178:
 1692 0008 FFF7FEFF 		bl	memcpy
 1693              	.LVL179:
 1694              		.loc 1 55 0
 1695 000c 024B     		ldr	r3, .L224+4
 1696 000e 0022     		movs	r2, #0
 1697 0010 1A60     		str	r2, [r3]	@ float
 1698              		.loc 1 56 0
 1699 0012 08BD     		pop	{r3, pc}
 1700              	.L225:
 1701              		.align	2
 1702              	.L224:
 1703 0014 00000000 		.word	.LANCHOR2
 1704 0018 00000000 		.word	.LANCHOR4
 1705              		.cfi_endproc
 1706              	.LFE256:
 1707              		.size	app_adc_configure, .-app_adc_configure
 1708              		.section	.text.app_adc_start,"ax",%progbits
 1709              		.align	1
 1710              		.p2align 4,,15
ARM GAS  /tmp/cc6dHjyt.s 			page 31


 1711              		.global	app_adc_start
 1712              		.syntax unified
 1713              		.thumb
 1714              		.thumb_func
 1715              		.fpu fpv4-sp-d16
 1716              		.type	app_adc_start, %function
 1717              	app_adc_start:
 1718              	.LFB257:
 1719              		.loc 1 58 0
 1720              		.cfi_startproc
 1721              		@ args = 0, pretend = 0, frame = 0
 1722              		@ frame_needed = 0, uses_anonymous_args = 0
 1723              	.LVL180:
 1724 0000 30B5     		push	{r4, r5, lr}
 1725              		.cfi_def_cfa_offset 12
 1726              		.cfi_offset 4, -12
 1727              		.cfi_offset 5, -8
 1728              		.cfi_offset 14, -4
 1729              		.loc 1 59 0
 1730 0002 0849     		ldr	r1, .L228
 1731              		.loc 1 60 0
 1732 0004 084D     		ldr	r5, .L228+4
 1733              		.loc 1 61 0
 1734 0006 094B     		ldr	r3, .L228+8
 1735              		.loc 1 58 0
 1736 0008 83B0     		sub	sp, sp, #12
 1737              		.cfi_def_cfa_offset 24
 1738              		.loc 1 60 0
 1739 000a 0024     		movs	r4, #0
 1740              		.loc 1 61 0
 1741 000c 0094     		str	r4, [sp]
 1742 000e 4022     		movs	r2, #64
 1743              		.loc 1 59 0
 1744 0010 0870     		strb	r0, [r1]
 1745              		.loc 1 61 0
 1746 0012 4FF4B361 		mov	r1, #1432
 1747 0016 0648     		ldr	r0, .L228+12
 1748              	.LVL181:
 1749              		.loc 1 60 0
 1750 0018 2C70     		strb	r4, [r5]
 1751              	.LVL182:
 1752              		.loc 1 61 0
 1753 001a FFF7FEFF 		bl	chThdCreateStatic
 1754              	.LVL183:
 1755              		.loc 1 62 0
 1756 001e 03B0     		add	sp, sp, #12
 1757              		.cfi_def_cfa_offset 12
 1758              		@ sp needed
 1759 0020 30BD     		pop	{r4, r5, pc}
 1760              	.L229:
 1761 0022 00BF     		.align	2
 1762              	.L228:
 1763 0024 00000000 		.word	.LANCHOR0
 1764 0028 00000000 		.word	.LANCHOR3
 1765 002c 00000000 		.word	adc_thread
 1766 0030 00000000 		.word	.LANCHOR20
 1767              		.cfi_endproc
ARM GAS  /tmp/cc6dHjyt.s 			page 32


 1768              	.LFE257:
 1769              		.size	app_adc_start, .-app_adc_start
 1770              		.section	.text.app_adc_stop,"ax",%progbits
 1771              		.align	1
 1772              		.p2align 4,,15
 1773              		.global	app_adc_stop
 1774              		.syntax unified
 1775              		.thumb
 1776              		.thumb_func
 1777              		.fpu fpv4-sp-d16
 1778              		.type	app_adc_stop, %function
 1779              	app_adc_stop:
 1780              	.LFB258:
 1781              		.loc 1 64 0
 1782              		.cfi_startproc
 1783              		@ args = 0, pretend = 0, frame = 0
 1784              		@ frame_needed = 0, uses_anonymous_args = 0
 1785              		.loc 1 65 0
 1786 0000 064B     		ldr	r3, .L238
 1787              		.loc 1 64 0
 1788 0002 10B5     		push	{r4, lr}
 1789              		.cfi_def_cfa_offset 8
 1790              		.cfi_offset 4, -8
 1791              		.cfi_offset 14, -4
 1792              		.loc 1 65 0
 1793 0004 0122     		movs	r2, #1
 1794              		.loc 1 66 0
 1795 0006 064C     		ldr	r4, .L238+4
 1796              		.loc 1 65 0
 1797 0008 1A70     		strb	r2, [r3]
 1798              		.loc 1 66 0
 1799 000a 2378     		ldrb	r3, [r4]	@ zero_extendqisi2
 1800 000c 2BB1     		cbz	r3, .L230
 1801              	.L232:
 1802              		.loc 1 67 0
 1803 000e 0A20     		movs	r0, #10
 1804 0010 FFF7FEFF 		bl	chThdSleep
 1805              	.LVL184:
 1806              		.loc 1 66 0
 1807 0014 2378     		ldrb	r3, [r4]	@ zero_extendqisi2
 1808 0016 002B     		cmp	r3, #0
 1809 0018 F9D1     		bne	.L232
 1810              	.L230:
 1811              		.loc 1 69 0
 1812 001a 10BD     		pop	{r4, pc}
 1813              	.L239:
 1814              		.align	2
 1815              	.L238:
 1816 001c 00000000 		.word	.LANCHOR3
 1817 0020 00000000 		.word	.LANCHOR1
 1818              		.cfi_endproc
 1819              	.LFE258:
 1820              		.size	app_adc_stop, .-app_adc_stop
 1821              		.section	.text.app_adc_get_decoded_level,"ax",%progbits
 1822              		.align	1
 1823              		.p2align 4,,15
 1824              		.global	app_adc_get_decoded_level
ARM GAS  /tmp/cc6dHjyt.s 			page 33


 1825              		.syntax unified
 1826              		.thumb
 1827              		.thumb_func
 1828              		.fpu fpv4-sp-d16
 1829              		.type	app_adc_get_decoded_level, %function
 1830              	app_adc_get_decoded_level:
 1831              	.LFB259:
 1832              		.loc 1 71 0
 1833              		.cfi_startproc
 1834              		@ args = 0, pretend = 0, frame = 0
 1835              		@ frame_needed = 0, uses_anonymous_args = 0
 1836              		@ link register save eliminated.
 1837              		.loc 1 72 0
 1838 0000 014B     		ldr	r3, .L241
 1839 0002 93ED000A 		vldr.32	s0, [r3]
 1840              		.loc 1 73 0
 1841 0006 7047     		bx	lr
 1842              	.L242:
 1843              		.align	2
 1844              	.L241:
 1845 0008 00000000 		.word	.LANCHOR8
 1846              		.cfi_endproc
 1847              	.LFE259:
 1848              		.size	app_adc_get_decoded_level, .-app_adc_get_decoded_level
 1849              		.section	.text.app_adc_get_voltage,"ax",%progbits
 1850              		.align	1
 1851              		.p2align 4,,15
 1852              		.global	app_adc_get_voltage
 1853              		.syntax unified
 1854              		.thumb
 1855              		.thumb_func
 1856              		.fpu fpv4-sp-d16
 1857              		.type	app_adc_get_voltage, %function
 1858              	app_adc_get_voltage:
 1859              	.LFB260:
 1860              		.loc 1 75 0
 1861              		.cfi_startproc
 1862              		@ args = 0, pretend = 0, frame = 0
 1863              		@ frame_needed = 0, uses_anonymous_args = 0
 1864              		@ link register save eliminated.
 1865              		.loc 1 76 0
 1866 0000 014B     		ldr	r3, .L244
 1867 0002 93ED000A 		vldr.32	s0, [r3]
 1868              		.loc 1 77 0
 1869 0006 7047     		bx	lr
 1870              	.L245:
 1871              		.align	2
 1872              	.L244:
 1873 0008 00000000 		.word	.LANCHOR5
 1874              		.cfi_endproc
 1875              	.LFE260:
 1876              		.size	app_adc_get_voltage, .-app_adc_get_voltage
 1877              		.section	.text.app_adc_get_decoded_level2,"ax",%progbits
 1878              		.align	1
 1879              		.p2align 4,,15
 1880              		.global	app_adc_get_decoded_level2
 1881              		.syntax unified
ARM GAS  /tmp/cc6dHjyt.s 			page 34


 1882              		.thumb
 1883              		.thumb_func
 1884              		.fpu fpv4-sp-d16
 1885              		.type	app_adc_get_decoded_level2, %function
 1886              	app_adc_get_decoded_level2:
 1887              	.LFB261:
 1888              		.loc 1 79 0
 1889              		.cfi_startproc
 1890              		@ args = 0, pretend = 0, frame = 0
 1891              		@ frame_needed = 0, uses_anonymous_args = 0
 1892              		@ link register save eliminated.
 1893              		.loc 1 80 0
 1894 0000 014B     		ldr	r3, .L247
 1895 0002 93ED000A 		vldr.32	s0, [r3]
 1896              		.loc 1 81 0
 1897 0006 7047     		bx	lr
 1898              	.L248:
 1899              		.align	2
 1900              	.L247:
 1901 0008 00000000 		.word	.LANCHOR12
 1902              		.cfi_endproc
 1903              	.LFE261:
 1904              		.size	app_adc_get_decoded_level2, .-app_adc_get_decoded_level2
 1905              		.section	.text.app_adc_get_voltage2,"ax",%progbits
 1906              		.align	1
 1907              		.p2align 4,,15
 1908              		.global	app_adc_get_voltage2
 1909              		.syntax unified
 1910              		.thumb
 1911              		.thumb_func
 1912              		.fpu fpv4-sp-d16
 1913              		.type	app_adc_get_voltage2, %function
 1914              	app_adc_get_voltage2:
 1915              	.LFB262:
 1916              		.loc 1 83 0
 1917              		.cfi_startproc
 1918              		@ args = 0, pretend = 0, frame = 0
 1919              		@ frame_needed = 0, uses_anonymous_args = 0
 1920              		@ link register save eliminated.
 1921              		.loc 1 84 0
 1922 0000 014B     		ldr	r3, .L250
 1923 0002 93ED000A 		vldr.32	s0, [r3]
 1924              		.loc 1 85 0
 1925 0006 7047     		bx	lr
 1926              	.L251:
 1927              		.align	2
 1928              	.L250:
 1929 0008 00000000 		.word	.LANCHOR9
 1930              		.cfi_endproc
 1931              	.LFE262:
 1932              		.size	app_adc_get_voltage2, .-app_adc_get_voltage2
 1933              		.section	.bss.adc_thread_wa,"aw",%nobits
 1934              		.align	3
 1935              		.set	.LANCHOR20,. + 0
 1936              		.type	adc_thread_wa, %object
 1937              		.size	adc_thread_wa, 1432
 1938              	adc_thread_wa:
ARM GAS  /tmp/cc6dHjyt.s 			page 35


 1939 0000 00000000 		.space	1432
 1939      00000000 
 1939      00000000 
 1939      00000000 
 1939      00000000 
 1940              		.section	.bss.config,"aw",%nobits
 1941              		.align	2
 1942              		.set	.LANCHOR2,. + 0
 1943              		.type	config, %object
 1944              		.size	config, 68
 1945              	config:
 1946 0000 00000000 		.space	68
 1946      00000000 
 1946      00000000 
 1946      00000000 
 1946      00000000 
 1947              		.section	.bss.decoded_level,"aw",%nobits
 1948              		.align	2
 1949              		.set	.LANCHOR8,. + 0
 1950              		.type	decoded_level, %object
 1951              		.size	decoded_level, 4
 1952              	decoded_level:
 1953 0000 00000000 		.space	4
 1954              		.section	.bss.decoded_level2,"aw",%nobits
 1955              		.align	2
 1956              		.set	.LANCHOR12,. + 0
 1957              		.type	decoded_level2, %object
 1958              		.size	decoded_level2, 4
 1959              	decoded_level2:
 1960 0000 00000000 		.space	4
 1961              		.section	.bss.filter_buffer.11508,"aw",%nobits
 1962              		.align	2
 1963              		.set	.LANCHOR7,. + 0
 1964              		.type	filter_buffer.11508, %object
 1965              		.size	filter_buffer.11508, 20
 1966              	filter_buffer.11508:
 1967 0000 00000000 		.space	20
 1967      00000000 
 1967      00000000 
 1967      00000000 
 1967      00000000 
 1968              		.section	.bss.filter_buffer.11575,"aw",%nobits
 1969              		.align	2
 1970              		.set	.LANCHOR17,. + 0
 1971              		.type	filter_buffer.11575, %object
 1972              		.size	filter_buffer.11575, 32
 1973              	filter_buffer.11575:
 1974 0000 00000000 		.space	32
 1974      00000000 
 1974      00000000 
 1974      00000000 
 1974      00000000 
 1975              		.section	.bss.filter_buffer2.11521,"aw",%nobits
 1976              		.align	2
 1977              		.set	.LANCHOR11,. + 0
 1978              		.type	filter_buffer2.11521, %object
 1979              		.size	filter_buffer2.11521, 20
ARM GAS  /tmp/cc6dHjyt.s 			page 36


 1980              	filter_buffer2.11521:
 1981 0000 00000000 		.space	20
 1981      00000000 
 1981      00000000 
 1981      00000000 
 1981      00000000 
 1982              		.section	.bss.filter_ptr.11509,"aw",%nobits
 1983              		.align	2
 1984              		.set	.LANCHOR6,. + 0
 1985              		.type	filter_ptr.11509, %object
 1986              		.size	filter_ptr.11509, 4
 1987              	filter_ptr.11509:
 1988 0000 00000000 		.space	4
 1989              		.section	.bss.filter_ptr.11576,"aw",%nobits
 1990              		.align	2
 1991              		.set	.LANCHOR16,. + 0
 1992              		.type	filter_ptr.11576, %object
 1993              		.size	filter_ptr.11576, 4
 1994              	filter_ptr.11576:
 1995 0000 00000000 		.space	4
 1996              		.section	.bss.filter_ptr2.11522,"aw",%nobits
 1997              		.align	2
 1998              		.set	.LANCHOR10,. + 0
 1999              		.type	filter_ptr2.11522, %object
 2000              		.size	filter_ptr2.11522, 4
 2001              	filter_ptr2.11522:
 2002 0000 00000000 		.space	4
 2003              		.section	.bss.is_running,"aw",%nobits
 2004              		.set	.LANCHOR1,. + 0
 2005              		.type	is_running, %object
 2006              		.size	is_running, 1
 2007              	is_running:
 2008 0000 00       		.space	1
 2009              		.section	.bss.last_time.11541,"aw",%nobits
 2010              		.align	2
 2011              		.set	.LANCHOR14,. + 0
 2012              		.type	last_time.11541, %object
 2013              		.size	last_time.11541, 4
 2014              	last_time.11541:
 2015 0000 00000000 		.space	4
 2016              		.section	.bss.ms_without_power,"aw",%nobits
 2017              		.align	2
 2018              		.set	.LANCHOR4,. + 0
 2019              		.type	ms_without_power, %object
 2020              		.size	ms_without_power, 4
 2021              	ms_without_power:
 2022 0000 00000000 		.space	4
 2023              		.section	.bss.pid_rpm.11582,"aw",%nobits
 2024              		.align	2
 2025              		.set	.LANCHOR19,. + 0
 2026              		.type	pid_rpm.11582, %object
 2027              		.size	pid_rpm.11582, 4
 2028              	pid_rpm.11582:
 2029 0000 00000000 		.space	4
 2030              		.section	.bss.pulses_without_power_before.11568,"aw",%nobits
 2031              		.align	2
 2032              		.set	.LANCHOR15,. + 0
ARM GAS  /tmp/cc6dHjyt.s 			page 37


 2033              		.type	pulses_without_power_before.11568, %object
 2034              		.size	pulses_without_power_before.11568, 4
 2035              	pulses_without_power_before.11568:
 2036 0000 00000000 		.space	4
 2037              		.section	.bss.pwr_ramp.11542,"aw",%nobits
 2038              		.align	2
 2039              		.set	.LANCHOR13,. + 0
 2040              		.type	pwr_ramp.11542, %object
 2041              		.size	pwr_ramp.11542, 4
 2042              	pwr_ramp.11542:
 2043 0000 00000000 		.space	4
 2044              		.section	.bss.read_voltage,"aw",%nobits
 2045              		.align	2
 2046              		.set	.LANCHOR5,. + 0
 2047              		.type	read_voltage, %object
 2048              		.size	read_voltage, 4
 2049              	read_voltage:
 2050 0000 00000000 		.space	4
 2051              		.section	.bss.read_voltage2,"aw",%nobits
 2052              		.align	2
 2053              		.set	.LANCHOR9,. + 0
 2054              		.type	read_voltage2, %object
 2055              		.size	read_voltage2, 4
 2056              	read_voltage2:
 2057 0000 00000000 		.space	4
 2058              		.section	.bss.use_rx_tx_as_buttons,"aw",%nobits
 2059              		.set	.LANCHOR0,. + 0
 2060              		.type	use_rx_tx_as_buttons, %object
 2061              		.size	use_rx_tx_as_buttons, 1
 2062              	use_rx_tx_as_buttons:
 2063 0000 00       		.space	1
 2064              		.section	.bss.was_pid.11574,"aw",%nobits
 2065              		.set	.LANCHOR18,. + 0
 2066              		.type	was_pid.11574, %object
 2067              		.size	was_pid.11574, 1
 2068              	was_pid.11574:
 2069 0000 00       		.space	1
 2070              		.section	.data.stop_now,"aw",%progbits
 2071              		.set	.LANCHOR3,. + 0
 2072              		.type	stop_now, %object
 2073              		.size	stop_now, 1
 2074              	stop_now:
 2075 0000 01       		.byte	1
 2076              		.section	.rodata.adc_thread.str1.4,"aMS",%progbits,1
 2077              		.align	2
 2078              	.LC0:
 2079 0000 4150505F 		.ascii	"APP_ADC\000"
 2079      41444300 
 2080              		.text
 2081              	.Letext0:
 2082              		.file 4 "/usr/arm-none-eabi/include/machine/_default_types.h"
 2083              		.file 5 "/usr/arm-none-eabi/include/sys/_stdint.h"
 2084              		.file 6 "/usr/lib/gcc/arm-none-eabi/7.3.1/include/stddef.h"
 2085              		.file 7 "ChibiOS_3.0.2/os/rt/ports/ARMCMx/compilers/GCC/chtypes.h"
 2086              		.file 8 "ChibiOS_3.0.2/os/rt/include/chsystypes.h"
 2087              		.file 9 "ChibiOS_3.0.2/os/rt/include/chschd.h"
 2088              		.file 10 "ChibiOS_3.0.2/os/ext/CMSIS/include/core_cm4.h"
ARM GAS  /tmp/cc6dHjyt.s 			page 38


 2089              		.file 11 "ChibiOS_3.0.2/os/ext/CMSIS/ST/system_stm32f4xx.h"
 2090              		.file 12 "ChibiOS_3.0.2/os/ext/CMSIS/ST/stm32f407xx.h"
 2091              		.file 13 "ChibiOS_3.0.2/os/rt/ports/ARMCMx/chcore.h"
 2092              		.file 14 "ChibiOS_3.0.2/os/rt/ports/ARMCMx/chcore_v7m.h"
 2093              		.file 15 "ChibiOS_3.0.2/os/rt/include/chtm.h"
 2094              		.file 16 "ChibiOS_3.0.2/os/rt/include/chsem.h"
 2095              		.file 17 "ChibiOS_3.0.2/os/rt/include/chmtx.h"
 2096              		.file 18 "ChibiOS_3.0.2/os/rt/include/chevents.h"
 2097              		.file 19 "ChibiOS_3.0.2/os/rt/include/chqueues.h"
 2098              		.file 20 "./datatypes.h"
 2099              		.file 21 "./conf_general.h"
 2100              		.file 22 "ChibiOS_3.0.2/os/hal/ports/STM32/STM32F4xx/stm32_dma.h"
 2101              		.file 23 "ChibiOS_3.0.2/os/hal/ports/STM32/LLD/GPIOv2/pal_lld.h"
 2102              		.file 24 "ChibiOS_3.0.2/os/hal/include/can.h"
 2103              		.file 25 "ChibiOS_3.0.2/os/hal/ports/STM32/LLD/can_lld.h"
 2104              		.file 26 "ChibiOS_3.0.2/os/hal/include/i2c.h"
 2105              		.file 27 "ChibiOS_3.0.2/os/hal/ports/STM32/LLD/I2Cv1/i2c_lld.h"
 2106              		.file 28 "ChibiOS_3.0.2/os/hal/include/icu.h"
 2107              		.file 29 "ChibiOS_3.0.2/os/hal/ports/STM32/LLD/TIMv1/icu_lld.h"
 2108              		.file 30 "ChibiOS_3.0.2/os/hal/ports/STM32/LLD/TIMv1/stm32_tim.h"
 2109              		.file 31 "ChibiOS_3.0.2/os/hal/include/spi.h"
 2110              		.file 32 "ChibiOS_3.0.2/os/hal/ports/STM32/LLD/SPIv1/spi_lld.h"
 2111              		.file 33 "ChibiOS_3.0.2/os/hal/include/uart.h"
 2112              		.file 34 "ChibiOS_3.0.2/os/hal/ports/STM32/LLD/USARTv1/uart_lld.h"
 2113              		.file 35 "ChibiOS_3.0.2/os/hal/include/usb.h"
 2114              		.file 36 "ChibiOS_3.0.2/os/hal/ports/STM32/LLD/OTGv1/usb_lld.h"
 2115              		.file 37 "ChibiOS_3.0.2/os/hal/ports/STM32/LLD/OTGv1/stm32_otg.h"
 2116              		.file 38 "./mc_interface.h"
 2117              		.file 39 "/usr/arm-none-eabi/include/sys/lock.h"
 2118              		.file 40 "/usr/arm-none-eabi/include/sys/_types.h"
 2119              		.file 41 "/usr/arm-none-eabi/include/sys/reent.h"
 2120              		.file 42 "/usr/arm-none-eabi/include/math.h"
 2121              		.file 43 "./utils.h"
 2122              		.file 44 "./comm_can.h"
 2123              		.file 45 "./timeout.h"
 2124              		.file 46 "ChibiOS_3.0.2/os/rt/include/chthreads.h"
 2125              		.file 47 "<built-in>"