ARM GAS  /tmp/cc63C5jb.s 			page 1


   1              		.cpu cortex-m4
   2              		.eabi_attribute 27, 1
   3              		.eabi_attribute 28, 1
   4              		.eabi_attribute 20, 1
   5              		.eabi_attribute 21, 1
   6              		.eabi_attribute 23, 3
   7              		.eabi_attribute 24, 1
   8              		.eabi_attribute 25, 1
   9              		.eabi_attribute 26, 1
  10              		.eabi_attribute 30, 2
  11              		.eabi_attribute 34, 1
  12              		.eabi_attribute 18, 4
  13              		.file	"can_lld.c"
  14              		.text
  15              	.Ltext0:
  16              		.cfi_sections	.debug_frame
  17              		.section	.text.can_lld_set_filters,"ax",%progbits
  18              		.align	1
  19              		.p2align 4,,15
  20              		.syntax unified
  21              		.thumb
  22              		.thumb_func
  23              		.fpu fpv4-sp-d16
  24              		.type	can_lld_set_filters, %function
  25              	can_lld_set_filters:
  26              	.LFB256:
  27              		.file 1 "ChibiOS_3.0.2/os/hal/ports/STM32/LLD/can_lld.c"
  28              		.loc 1 77 0
  29              		.cfi_startproc
  30              		@ args = 0, pretend = 0, frame = 0
  31              		@ frame_needed = 0, uses_anonymous_args = 0
  32              		@ link register save eliminated.
  33              	.LVL0:
  34 0000 F0B4     		push	{r4, r5, r6, r7}
  35              		.cfi_def_cfa_offset 16
  36              		.cfi_offset 4, -16
  37              		.cfi_offset 5, -12
  38              		.cfi_offset 6, -8
  39              		.cfi_offset 7, -4
  40              		.loc 1 80 0
  41 0002 444D     		ldr	r5, .L22
  42              		.loc 1 83 0
  43 0004 444C     		ldr	r4, .L22+4
  44              		.loc 1 80 0
  45 0006 2B6C     		ldr	r3, [r5, #64]
  46 0008 43F00073 		orr	r3, r3, #33554432
  47 000c 2B64     		str	r3, [r5, #64]
  48              		.loc 1 83 0
  49 000e D4F80032 		ldr	r3, [r4, #512]
  50 0012 1B0C     		lsrs	r3, r3, #16
  51 0014 1B04     		lsls	r3, r3, #16
  52 0016 43F00103 		orr	r3, r3, #1
  53 001a 43EA0023 		orr	r3, r3, r0, lsl #8
  54 001e C4F80032 		str	r3, [r4, #512]
  55              		.loc 1 84 0
  56 0022 0029     		cmp	r1, #0
  57 0024 5BD0     		beq	.L2
ARM GAS  /tmp/cc63C5jb.s 			page 2


  58              	.LBB266:
  59              		.loc 1 88 0
  60 0026 0023     		movs	r3, #0
  61 0028 C4F81C32 		str	r3, [r4, #540]
  62              		.loc 1 92 0
  63 002c 1846     		mov	r0, r3
  64              	.LVL1:
  65              		.loc 1 89 0
  66 002e C4F80432 		str	r3, [r4, #516]
  67              		.loc 1 90 0
  68 0032 C4F80C32 		str	r3, [r4, #524]
  69              		.loc 1 91 0
  70 0036 C4F81432 		str	r3, [r4, #532]
  71              	.LVL2:
  72              		.loc 1 93 0
  73 003a 1C46     		mov	r4, r3
  74              	.LVL3:
  75              	.L3:
  76 003c C300     		lsls	r3, r0, #3
  77 003e 03F18043 		add	r3, r3, #1073741824
  78 0042 03F5C843 		add	r3, r3, #25600
  79              		.loc 1 92 0 discriminator 3
  80 0046 0130     		adds	r0, r0, #1
  81              	.LVL4:
  82 0048 1C28     		cmp	r0, #28
  83              		.loc 1 93 0 discriminator 3
  84 004a C3F84042 		str	r4, [r3, #576]
  85              		.loc 1 94 0 discriminator 3
  86 004e C3F84442 		str	r4, [r3, #580]
  87              		.loc 1 92 0 discriminator 3
  88 0052 F3D1     		bne	.L3
  89              		.loc 1 101 0
  90 0054 304D     		ldr	r5, .L22+4
  91              		.loc 1 98 0
  92 0056 0026     		movs	r6, #0
  93              		.loc 1 99 0
  94 0058 0127     		movs	r7, #1
  95              	.LVL5:
  96              	.L7:
  97 005a 1068     		ldr	r0, [r2]
  98              		.loc 1 100 0
  99 005c 1479     		ldrb	r4, [r2, #4]	@ zero_extendqisi2
 100 005e C300     		lsls	r3, r0, #3
 101 0060 03F18043 		add	r3, r3, #1073741824
 102 0064 14F0010F 		tst	r4, #1
 103 0068 03F5C843 		add	r3, r3, #25600
 104              		.loc 1 98 0
 105 006c 06F10106 		add	r6, r6, #1
 106              	.LVL6:
 107              		.loc 1 99 0
 108 0070 07FA00F0 		lsl	r0, r7, r0
 109              	.LVL7:
 110              		.loc 1 100 0
 111 0074 05D0     		beq	.L4
 112              		.loc 1 101 0
 113 0076 D5F804C2 		ldr	ip, [r5, #516]
 114 007a 4CEA000C 		orr	ip, ip, r0
ARM GAS  /tmp/cc63C5jb.s 			page 3


 115 007e C5F804C2 		str	ip, [r5, #516]
 116              	.L4:
 117              		.loc 1 102 0
 118 0082 14F0020F 		tst	r4, #2
 119 0086 05D0     		beq	.L5
 120              		.loc 1 103 0
 121 0088 D5F80CC2 		ldr	ip, [r5, #524]
 122 008c 4CEA000C 		orr	ip, ip, r0
 123 0090 C5F80CC2 		str	ip, [r5, #524]
 124              	.L5:
 125              		.loc 1 104 0
 126 0094 6407     		lsls	r4, r4, #29
 127 0096 04D5     		bpl	.L6
 128              		.loc 1 105 0
 129 0098 D5F81442 		ldr	r4, [r5, #532]
 130 009c 0443     		orrs	r4, r4, r0
 131 009e C5F81442 		str	r4, [r5, #532]
 132              	.L6:
 133              		.loc 1 106 0 discriminator 2
 134 00a2 9468     		ldr	r4, [r2, #8]
 135 00a4 C3F84042 		str	r4, [r3, #576]
 136              		.loc 1 107 0 discriminator 2
 137 00a8 D468     		ldr	r4, [r2, #12]
 138 00aa C3F84442 		str	r4, [r3, #580]
 139              		.loc 1 108 0 discriminator 2
 140 00ae D5F81C32 		ldr	r3, [r5, #540]
 141              		.loc 1 98 0 discriminator 2
 142 00b2 B142     		cmp	r1, r6
 143              		.loc 1 108 0 discriminator 2
 144 00b4 40EA0300 		orr	r0, r0, r3
 145              	.LVL8:
 146              		.loc 1 109 0 discriminator 2
 147 00b8 02F11002 		add	r2, r2, #16
 148              	.LVL9:
 149              		.loc 1 108 0 discriminator 2
 150 00bc C5F81C02 		str	r0, [r5, #540]
 151              		.loc 1 98 0 discriminator 2
 152 00c0 CBD1     		bne	.L7
 153              	.LVL10:
 154              	.L8:
 155              	.LBE266:
 156              		.loc 1 131 0
 157 00c2 1549     		ldr	r1, .L22+4
 158              	.LVL11:
 159              		.loc 1 134 0
 160 00c4 134A     		ldr	r2, .L22
 161              		.loc 1 131 0
 162 00c6 D1F80032 		ldr	r3, [r1, #512]
 163 00ca 23F00103 		bic	r3, r3, #1
 164 00ce C1F80032 		str	r3, [r1, #512]
 165              		.loc 1 134 0
 166 00d2 136C     		ldr	r3, [r2, #64]
 167 00d4 23F00073 		bic	r3, r3, #33554432
 168 00d8 1364     		str	r3, [r2, #64]
 169              		.loc 1 135 0
 170 00da F0BC     		pop	{r4, r5, r6, r7}
 171              		.cfi_remember_state
ARM GAS  /tmp/cc63C5jb.s 			page 4


 172              		.cfi_restore 7
 173              		.cfi_restore 6
 174              		.cfi_restore 5
 175              		.cfi_restore 4
 176              		.cfi_def_cfa_offset 0
 177 00dc 7047     		bx	lr
 178              	.LVL12:
 179              	.L2:
 180              		.cfi_restore_state
 181 00de C200     		lsls	r2, r0, #3
 182              	.LVL13:
 183 00e0 02F18042 		add	r2, r2, #1073741824
 184              		.loc 1 124 0
 185 00e4 0123     		movs	r3, #1
 186 00e6 02F5C842 		add	r2, r2, #25600
 187 00ea 8340     		lsls	r3, r3, r0
 188 00ec 43F00103 		orr	r3, r3, #1
 189              		.loc 1 115 0
 190 00f0 C4F84012 		str	r1, [r4, #576]
 191              		.loc 1 116 0
 192 00f4 C4F84412 		str	r1, [r4, #580]
 193              		.loc 1 118 0
 194 00f8 C2F84012 		str	r1, [r2, #576]
 195              		.loc 1 119 0
 196 00fc C2F84412 		str	r1, [r2, #580]
 197              		.loc 1 121 0
 198 0100 C4F80412 		str	r1, [r4, #516]
 199              		.loc 1 122 0
 200 0104 C4F81412 		str	r1, [r4, #532]
 201              		.loc 1 124 0
 202 0108 C4F80C32 		str	r3, [r4, #524]
 203              		.loc 1 125 0
 204 010c C4F81C32 		str	r3, [r4, #540]
 205 0110 D7E7     		b	.L8
 206              	.L23:
 207 0112 00BF     		.align	2
 208              	.L22:
 209 0114 00380240 		.word	1073887232
 210 0118 00640040 		.word	1073767424
 211              		.cfi_endproc
 212              	.LFE256:
 213              		.size	can_lld_set_filters, .-can_lld_set_filters
 214              		.section	.text.Vector8C,"ax",%progbits
 215              		.align	1
 216              		.p2align 4,,15
 217              		.global	Vector8C
 218              		.syntax unified
 219              		.thumb
 220              		.thumb_func
 221              		.fpu fpv4-sp-d16
 222              		.type	Vector8C, %function
 223              	Vector8C:
 224              	.LFB261:
 225              		.loc 1 292 0
 226              		.cfi_startproc
 227              		@ args = 0, pretend = 0, frame = 0
 228              		@ frame_needed = 0, uses_anonymous_args = 0
ARM GAS  /tmp/cc63C5jb.s 			page 5


 229              	.LVL14:
 230 0000 10B5     		push	{r4, lr}
 231              		.cfi_def_cfa_offset 8
 232              		.cfi_offset 4, -8
 233              		.cfi_offset 14, -4
 234              	.LBB285:
 235              	.LBB286:
 236              		.loc 1 147 0
 237 0002 0C4C     		ldr	r4, .L26
 238 0004 0C49     		ldr	r1, .L26+4
 239 0006 E26A     		ldr	r2, [r4, #44]
 240              	.LBB287:
 241              	.LBB288:
 242              	.LBB289:
 243              	.LBB290:
 244              	.LBB291:
 245              	.LBB292:
 246              		.file 2 "ChibiOS_3.0.2/os/ext/CMSIS/include/core_cmFunc.h"
 247              		.loc 2 546 0
 248 0008 2023     		movs	r3, #32
 249              	.LBE292:
 250              	.LBE291:
 251              	.LBE290:
 252              	.LBE289:
 253              	.LBE288:
 254              	.LBE287:
 255              		.loc 1 147 0
 256 000a 9160     		str	r1, [r2, #8]
 257              	.LVL15:
 258              	.LBB298:
 259              	.LBB297:
 260              	.LBB296:
 261              	.LBB295:
 262              	.LBB294:
 263              	.LBB293:
 264              		.loc 2 546 0
 265              		.syntax unified
 266              	@ 546 "ChibiOS_3.0.2/os/ext/CMSIS/include/core_cmFunc.h" 1
 267 000c 83F31188 		MSR basepri, r3
 268              	@ 0 "" 2
 269              	.LVL16:
 270              		.thumb
 271              		.syntax unified
 272              	.LBE293:
 273              	.LBE294:
 274              	.LBE295:
 275              	.LBE296:
 276              	.LBE297:
 277              	.LBE298:
 278              	.LBB299:
 279              	.LBB300:
 280              		.file 3 "ChibiOS_3.0.2/os/hal/osal/rt/osal.h"
 281              		.loc 3 810 0
 282 0010 0021     		movs	r1, #0
 283 0012 04F10800 		add	r0, r4, #8
 284 0016 FFF7FEFF 		bl	chThdDequeueAllI
 285              	.LVL17:
ARM GAS  /tmp/cc63C5jb.s 			page 6


 286              	.LBE300:
 287              	.LBE299:
 288              	.LBB301:
 289              	.LBB302:
 290              		.loc 3 844 0
 291 001a 04F11C00 		add	r0, r4, #28
 292 001e 0121     		movs	r1, #1
 293 0020 FFF7FEFF 		bl	chEvtBroadcastFlagsI
 294              	.LVL18:
 295              	.LBE302:
 296              	.LBE301:
 297              	.LBB303:
 298              	.LBB304:
 299              	.LBB305:
 300              	.LBB306:
 301              	.LBB307:
 302              	.LBB308:
 303              		.loc 2 546 0
 304 0024 0023     		movs	r3, #0
 305              		.syntax unified
 306              	@ 546 "ChibiOS_3.0.2/os/ext/CMSIS/include/core_cmFunc.h" 1
 307 0026 83F31188 		MSR basepri, r3
 308              	@ 0 "" 2
 309              	.LVL19:
 310              		.thumb
 311              		.syntax unified
 312              	.LBE308:
 313              	.LBE307:
 314              	.LBE306:
 315              	.LBE305:
 316              	.LBE304:
 317              	.LBE303:
 318              	.LBE286:
 319              	.LBE285:
 320              		.loc 1 299 0
 321 002a BDE81040 		pop	{r4, lr}
 322              		.cfi_restore 14
 323              		.cfi_restore 4
 324              		.cfi_def_cfa_offset 0
 325              		.loc 1 298 0
 326 002e FFF7FEBF 		b	_port_irq_epilogue
 327              	.LVL20:
 328              	.L27:
 329 0032 00BF     		.align	2
 330              	.L26:
 331 0034 00000000 		.word	.LANCHOR0
 332 0038 01010100 		.word	65793
 333              		.cfi_endproc
 334              	.LFE261:
 335              		.size	Vector8C, .-Vector8C
 336              		.section	.text.Vector90,"ax",%progbits
 337              		.align	1
 338              		.p2align 4,,15
 339              		.global	Vector90
 340              		.syntax unified
 341              		.thumb
 342              		.thumb_func
ARM GAS  /tmp/cc63C5jb.s 			page 7


 343              		.fpu fpv4-sp-d16
 344              		.type	Vector90, %function
 345              	Vector90:
 346              	.LFB262:
 347              		.loc 1 306 0
 348              		.cfi_startproc
 349              		@ args = 0, pretend = 0, frame = 0
 350              		@ frame_needed = 0, uses_anonymous_args = 0
 351              	.LVL21:
 352 0000 38B5     		push	{r3, r4, r5, lr}
 353              		.cfi_def_cfa_offset 16
 354              		.cfi_offset 3, -16
 355              		.cfi_offset 4, -12
 356              		.cfi_offset 5, -8
 357              		.cfi_offset 14, -4
 358              	.LBB341:
 359              	.LBB342:
 360              		.loc 1 164 0
 361 0002 164C     		ldr	r4, .L39
 362 0004 E36A     		ldr	r3, [r4, #44]
 363 0006 DD68     		ldr	r5, [r3, #12]
 364              	.LVL22:
 365              		.loc 1 165 0
 366 0008 AA07     		lsls	r2, r5, #30
 367 000a 11D1     		bne	.L38
 368              	.L29:
 369              		.loc 1 173 0
 370 000c EB06     		lsls	r3, r5, #27
 371 000e 0BD5     		bpl	.L30
 372              		.loc 1 175 0
 373 0010 E36A     		ldr	r3, [r4, #44]
 374 0012 1021     		movs	r1, #16
 375 0014 D960     		str	r1, [r3, #12]
 376              	.LVL23:
 377              	.LBB343:
 378              	.LBB344:
 379              	.LBB345:
 380              	.LBB346:
 381              	.LBB347:
 382              	.LBB348:
 383              		.loc 2 546 0
 384 0016 2023     		movs	r3, #32
 385              		.syntax unified
 386              	@ 546 "ChibiOS_3.0.2/os/ext/CMSIS/include/core_cmFunc.h" 1
 387 0018 83F31188 		MSR basepri, r3
 388              	@ 0 "" 2
 389              	.LVL24:
 390              		.thumb
 391              		.syntax unified
 392              	.LBE348:
 393              	.LBE347:
 394              	.LBE346:
 395              	.LBE345:
 396              	.LBE344:
 397              	.LBE343:
 398              	.LBB349:
 399              	.LBB350:
ARM GAS  /tmp/cc63C5jb.s 			page 8


 400              		.loc 3 844 0
 401 001c 1048     		ldr	r0, .L39+4
 402 001e FFF7FEFF 		bl	chEvtBroadcastFlagsI
 403              	.LVL25:
 404              	.LBE350:
 405              	.LBE349:
 406              	.LBB351:
 407              	.LBB352:
 408              	.LBB353:
 409              	.LBB354:
 410              	.LBB355:
 411              	.LBB356:
 412              		.loc 2 546 0
 413 0022 0023     		movs	r3, #0
 414              		.syntax unified
 415              	@ 546 "ChibiOS_3.0.2/os/ext/CMSIS/include/core_cmFunc.h" 1
 416 0024 83F31188 		MSR basepri, r3
 417              	@ 0 "" 2
 418              	.LVL26:
 419              		.thumb
 420              		.syntax unified
 421              	.L30:
 422              	.LBE356:
 423              	.LBE355:
 424              	.LBE354:
 425              	.LBE353:
 426              	.LBE352:
 427              	.LBE351:
 428              	.LBE342:
 429              	.LBE341:
 430              		.loc 1 313 0
 431 0028 BDE83840 		pop	{r3, r4, r5, lr}
 432              		.cfi_remember_state
 433              		.cfi_restore 14
 434              		.cfi_restore 5
 435              		.cfi_restore 4
 436              		.cfi_restore 3
 437              		.cfi_def_cfa_offset 0
 438              		.loc 1 312 0
 439 002c FFF7FEBF 		b	_port_irq_epilogue
 440              	.LVL27:
 441              	.L38:
 442              		.cfi_restore_state
 443              	.LBB374:
 444              	.LBB373:
 445              		.loc 1 167 0
 446 0030 5A69     		ldr	r2, [r3, #20]
 447 0032 22F00202 		bic	r2, r2, #2
 448 0036 5A61     		str	r2, [r3, #20]
 449              	.LVL28:
 450              	.LBB357:
 451              	.LBB358:
 452              	.LBB359:
 453              	.LBB360:
 454              	.LBB361:
 455              	.LBB362:
 456              		.loc 2 546 0
ARM GAS  /tmp/cc63C5jb.s 			page 9


 457 0038 2023     		movs	r3, #32
 458              		.syntax unified
 459              	@ 546 "ChibiOS_3.0.2/os/ext/CMSIS/include/core_cmFunc.h" 1
 460 003a 83F31188 		MSR basepri, r3
 461              	@ 0 "" 2
 462              	.LVL29:
 463              		.thumb
 464              		.syntax unified
 465              	.LBE362:
 466              	.LBE361:
 467              	.LBE360:
 468              	.LBE359:
 469              	.LBE358:
 470              	.LBE357:
 471              	.LBB363:
 472              	.LBB364:
 473              		.loc 3 810 0
 474 003e 0021     		movs	r1, #0
 475 0040 04F11000 		add	r0, r4, #16
 476 0044 FFF7FEFF 		bl	chThdDequeueAllI
 477              	.LVL30:
 478              	.LBE364:
 479              	.LBE363:
 480              	.LBB365:
 481              	.LBB366:
 482              		.loc 3 844 0
 483 0048 04F11800 		add	r0, r4, #24
 484 004c 0121     		movs	r1, #1
 485 004e FFF7FEFF 		bl	chEvtBroadcastFlagsI
 486              	.LVL31:
 487              	.LBE366:
 488              	.LBE365:
 489              	.LBB367:
 490              	.LBB368:
 491              	.LBB369:
 492              	.LBB370:
 493              	.LBB371:
 494              	.LBB372:
 495              		.loc 2 546 0
 496 0052 0023     		movs	r3, #0
 497              		.syntax unified
 498              	@ 546 "ChibiOS_3.0.2/os/ext/CMSIS/include/core_cmFunc.h" 1
 499 0054 83F31188 		MSR basepri, r3
 500              	@ 0 "" 2
 501              	.LVL32:
 502              		.thumb
 503              		.syntax unified
 504 0058 D8E7     		b	.L29
 505              	.L40:
 506 005a 00BF     		.align	2
 507              	.L39:
 508 005c 00000000 		.word	.LANCHOR0
 509 0060 20000000 		.word	.LANCHOR0+32
 510              	.LBE372:
 511              	.LBE371:
 512              	.LBE370:
 513              	.LBE369:
ARM GAS  /tmp/cc63C5jb.s 			page 10


 514              	.LBE368:
 515              	.LBE367:
 516              	.LBE373:
 517              	.LBE374:
 518              		.cfi_endproc
 519              	.LFE262:
 520              		.size	Vector90, .-Vector90
 521              		.section	.text.Vector94,"ax",%progbits
 522              		.align	1
 523              		.p2align 4,,15
 524              		.global	Vector94
 525              		.syntax unified
 526              		.thumb
 527              		.thumb_func
 528              		.fpu fpv4-sp-d16
 529              		.type	Vector94, %function
 530              	Vector94:
 531              	.LFB263:
 532              		.loc 1 320 0
 533              		.cfi_startproc
 534              		@ args = 0, pretend = 0, frame = 0
 535              		@ frame_needed = 0, uses_anonymous_args = 0
 536              	.LVL33:
 537 0000 38B5     		push	{r3, r4, r5, lr}
 538              		.cfi_def_cfa_offset 16
 539              		.cfi_offset 3, -16
 540              		.cfi_offset 4, -12
 541              		.cfi_offset 5, -8
 542              		.cfi_offset 14, -4
 543              	.LBB407:
 544              	.LBB408:
 545              		.loc 1 192 0
 546 0002 164C     		ldr	r4, .L52
 547 0004 E36A     		ldr	r3, [r4, #44]
 548 0006 1D69     		ldr	r5, [r3, #16]
 549              	.LVL34:
 550              		.loc 1 193 0
 551 0008 AA07     		lsls	r2, r5, #30
 552 000a 11D1     		bne	.L51
 553              	.L42:
 554              		.loc 1 201 0
 555 000c EB06     		lsls	r3, r5, #27
 556 000e 0BD5     		bpl	.L43
 557              		.loc 1 203 0
 558 0010 E36A     		ldr	r3, [r4, #44]
 559 0012 1021     		movs	r1, #16
 560 0014 1961     		str	r1, [r3, #16]
 561              	.LVL35:
 562              	.LBB409:
 563              	.LBB410:
 564              	.LBB411:
 565              	.LBB412:
 566              	.LBB413:
 567              	.LBB414:
 568              		.loc 2 546 0
 569 0016 2023     		movs	r3, #32
 570              		.syntax unified
ARM GAS  /tmp/cc63C5jb.s 			page 11


 571              	@ 546 "ChibiOS_3.0.2/os/ext/CMSIS/include/core_cmFunc.h" 1
 572 0018 83F31188 		MSR basepri, r3
 573              	@ 0 "" 2
 574              	.LVL36:
 575              		.thumb
 576              		.syntax unified
 577              	.LBE414:
 578              	.LBE413:
 579              	.LBE412:
 580              	.LBE411:
 581              	.LBE410:
 582              	.LBE409:
 583              	.LBB415:
 584              	.LBB416:
 585              		.loc 3 844 0
 586 001c 1048     		ldr	r0, .L52+4
 587 001e FFF7FEFF 		bl	chEvtBroadcastFlagsI
 588              	.LVL37:
 589              	.LBE416:
 590              	.LBE415:
 591              	.LBB417:
 592              	.LBB418:
 593              	.LBB419:
 594              	.LBB420:
 595              	.LBB421:
 596              	.LBB422:
 597              		.loc 2 546 0
 598 0022 0023     		movs	r3, #0
 599              		.syntax unified
 600              	@ 546 "ChibiOS_3.0.2/os/ext/CMSIS/include/core_cmFunc.h" 1
 601 0024 83F31188 		MSR basepri, r3
 602              	@ 0 "" 2
 603              	.LVL38:
 604              		.thumb
 605              		.syntax unified
 606              	.L43:
 607              	.LBE422:
 608              	.LBE421:
 609              	.LBE420:
 610              	.LBE419:
 611              	.LBE418:
 612              	.LBE417:
 613              	.LBE408:
 614              	.LBE407:
 615              		.loc 1 327 0
 616 0028 BDE83840 		pop	{r3, r4, r5, lr}
 617              		.cfi_remember_state
 618              		.cfi_restore 14
 619              		.cfi_restore 5
 620              		.cfi_restore 4
 621              		.cfi_restore 3
 622              		.cfi_def_cfa_offset 0
 623              		.loc 1 326 0
 624 002c FFF7FEBF 		b	_port_irq_epilogue
 625              	.LVL39:
 626              	.L51:
 627              		.cfi_restore_state
ARM GAS  /tmp/cc63C5jb.s 			page 12


 628              	.LBB440:
 629              	.LBB439:
 630              		.loc 1 195 0
 631 0030 5A69     		ldr	r2, [r3, #20]
 632 0032 22F01002 		bic	r2, r2, #16
 633 0036 5A61     		str	r2, [r3, #20]
 634              	.LVL40:
 635              	.LBB423:
 636              	.LBB424:
 637              	.LBB425:
 638              	.LBB426:
 639              	.LBB427:
 640              	.LBB428:
 641              		.loc 2 546 0
 642 0038 2023     		movs	r3, #32
 643              		.syntax unified
 644              	@ 546 "ChibiOS_3.0.2/os/ext/CMSIS/include/core_cmFunc.h" 1
 645 003a 83F31188 		MSR basepri, r3
 646              	@ 0 "" 2
 647              	.LVL41:
 648              		.thumb
 649              		.syntax unified
 650              	.LBE428:
 651              	.LBE427:
 652              	.LBE426:
 653              	.LBE425:
 654              	.LBE424:
 655              	.LBE423:
 656              	.LBB429:
 657              	.LBB430:
 658              		.loc 3 810 0
 659 003e 0021     		movs	r1, #0
 660 0040 04F11000 		add	r0, r4, #16
 661 0044 FFF7FEFF 		bl	chThdDequeueAllI
 662              	.LVL42:
 663              	.LBE430:
 664              	.LBE429:
 665              	.LBB431:
 666              	.LBB432:
 667              		.loc 3 844 0
 668 0048 04F11800 		add	r0, r4, #24
 669 004c 0221     		movs	r1, #2
 670 004e FFF7FEFF 		bl	chEvtBroadcastFlagsI
 671              	.LVL43:
 672              	.LBE432:
 673              	.LBE431:
 674              	.LBB433:
 675              	.LBB434:
 676              	.LBB435:
 677              	.LBB436:
 678              	.LBB437:
 679              	.LBB438:
 680              		.loc 2 546 0
 681 0052 0023     		movs	r3, #0
 682              		.syntax unified
 683              	@ 546 "ChibiOS_3.0.2/os/ext/CMSIS/include/core_cmFunc.h" 1
 684 0054 83F31188 		MSR basepri, r3
ARM GAS  /tmp/cc63C5jb.s 			page 13


 685              	@ 0 "" 2
 686              	.LVL44:
 687              		.thumb
 688              		.syntax unified
 689 0058 D8E7     		b	.L42
 690              	.L53:
 691 005a 00BF     		.align	2
 692              	.L52:
 693 005c 00000000 		.word	.LANCHOR0
 694 0060 20000000 		.word	.LANCHOR0+32
 695              	.LBE438:
 696              	.LBE437:
 697              	.LBE436:
 698              	.LBE435:
 699              	.LBE434:
 700              	.LBE433:
 701              	.LBE439:
 702              	.LBE440:
 703              		.cfi_endproc
 704              	.LFE263:
 705              		.size	Vector94, .-Vector94
 706              		.section	.text.Vector98,"ax",%progbits
 707              		.align	1
 708              		.p2align 4,,15
 709              		.global	Vector98
 710              		.syntax unified
 711              		.thumb
 712              		.thumb_func
 713              		.fpu fpv4-sp-d16
 714              		.type	Vector98, %function
 715              	Vector98:
 716              	.LFB264:
 717              		.loc 1 334 0
 718              		.cfi_startproc
 719              		@ args = 0, pretend = 0, frame = 0
 720              		@ frame_needed = 0, uses_anonymous_args = 0
 721              	.LVL45:
 722 0000 38B5     		push	{r3, r4, r5, lr}
 723              		.cfi_def_cfa_offset 16
 724              		.cfi_offset 3, -16
 725              		.cfi_offset 4, -12
 726              		.cfi_offset 5, -8
 727              		.cfi_offset 14, -4
 728              	.LBB472:
 729              	.LBB473:
 730              		.loc 1 220 0
 731 0002 1B4D     		ldr	r5, .L69
 732 0004 EB6A     		ldr	r3, [r5, #44]
 733 0006 5C68     		ldr	r4, [r3, #4]
 734              	.LVL46:
 735              		.loc 1 221 0
 736 0008 1C22     		movs	r2, #28
 737 000a 5A60     		str	r2, [r3, #4]
 738              		.loc 1 224 0
 739 000c 2207     		lsls	r2, r4, #28
 740 000e 1DD4     		bmi	.L68
 741              	.L55:
ARM GAS  /tmp/cc63C5jb.s 			page 14


 742              		.loc 1 233 0
 743 0010 6307     		lsls	r3, r4, #29
 744 0012 17D5     		bpl	.L56
 745              	.LBB474:
 746              		.loc 1 235 0
 747 0014 EA6A     		ldr	r2, [r5, #44]
 748 0016 9369     		ldr	r3, [r2, #24]
 749              	.LVL47:
 750              		.loc 1 237 0
 751 0018 9169     		ldr	r1, [r2, #24]
 752 001a 21F07001 		bic	r1, r1, #112
 753 001e 9161     		str	r1, [r2, #24]
 754              		.loc 1 239 0
 755 0020 13F0700F 		tst	r3, #112
 756              		.loc 1 238 0
 757 0024 03F00701 		and	r1, r3, #7
 758              	.LVL48:
 759              		.loc 1 240 0
 760 0028 18BF     		it	ne
 761 002a 41F00801 		orrne	r1, r1, #8
 762              	.LVL49:
 763              	.LBB475:
 764              	.LBB476:
 765              	.LBB477:
 766              	.LBB478:
 767              	.LBB479:
 768              	.LBB480:
 769              		.loc 2 546 0
 770 002e 2022     		movs	r2, #32
 771              		.syntax unified
 772              	@ 546 "ChibiOS_3.0.2/os/ext/CMSIS/include/core_cmFunc.h" 1
 773 0030 82F31188 		MSR basepri, r2
 774              	@ 0 "" 2
 775              	.LVL50:
 776              		.thumb
 777              		.syntax unified
 778              	.LBE480:
 779              	.LBE479:
 780              	.LBE478:
 781              	.LBE477:
 782              	.LBE476:
 783              	.LBE475:
 784              	.LBB481:
 785              	.LBB482:
 786              		.loc 3 844 0
 787 0034 0F48     		ldr	r0, .L69+4
 788 0036 41EA0341 		orr	r1, r1, r3, lsl #16
 789              	.LVL51:
 790 003a FFF7FEFF 		bl	chEvtBroadcastFlagsI
 791              	.LVL52:
 792              	.LBE482:
 793              	.LBE481:
 794              	.LBB483:
 795              	.LBB484:
 796              	.LBB485:
 797              	.LBB486:
 798              	.LBB487:
ARM GAS  /tmp/cc63C5jb.s 			page 15


 799              	.LBB488:
 800              		.loc 2 546 0
 801 003e 0023     		movs	r3, #0
 802              		.syntax unified
 803              	@ 546 "ChibiOS_3.0.2/os/ext/CMSIS/include/core_cmFunc.h" 1
 804 0040 83F31188 		MSR basepri, r3
 805              	@ 0 "" 2
 806              	.LVL53:
 807              		.thumb
 808              		.syntax unified
 809              	.L56:
 810              	.LBE488:
 811              	.LBE487:
 812              	.LBE486:
 813              	.LBE485:
 814              	.LBE484:
 815              	.LBE483:
 816              	.LBE474:
 817              	.LBE473:
 818              	.LBE472:
 819              		.loc 1 341 0
 820 0044 BDE83840 		pop	{r3, r4, r5, lr}
 821              		.cfi_remember_state
 822              		.cfi_restore 14
 823              		.cfi_restore 5
 824              		.cfi_restore 4
 825              		.cfi_restore 3
 826              		.cfi_def_cfa_offset 0
 827              		.loc 1 340 0
 828 0048 FFF7FEBF 		b	_port_irq_epilogue
 829              	.LVL54:
 830              	.L68:
 831              		.cfi_restore_state
 832              	.LBB510:
 833              	.LBB509:
 834              		.loc 1 226 0
 835 004c 1A68     		ldr	r2, [r3]
 836              		.loc 1 225 0
 837 004e 2846     		mov	r0, r5
 838              		.loc 1 226 0
 839 0050 22F00202 		bic	r2, r2, #2
 840              		.loc 1 225 0
 841 0054 0321     		movs	r1, #3
 842 0056 00F8281B 		strb	r1, [r0], #40
 843              	.LBB489:
 844              	.LBB490:
 845              	.LBB491:
 846              	.LBB492:
 847              	.LBB493:
 848              	.LBB494:
 849              		.loc 2 546 0
 850 005a 2021     		movs	r1, #32
 851              	.LBE494:
 852              	.LBE493:
 853              	.LBE492:
 854              	.LBE491:
 855              	.LBE490:
ARM GAS  /tmp/cc63C5jb.s 			page 16


 856              	.LBE489:
 857              		.loc 1 226 0
 858 005c 1A60     		str	r2, [r3]
 859              	.LVL55:
 860              	.LBB500:
 861              	.LBB499:
 862              	.LBB498:
 863              	.LBB497:
 864              	.LBB496:
 865              	.LBB495:
 866              		.loc 2 546 0
 867              		.syntax unified
 868              	@ 546 "ChibiOS_3.0.2/os/ext/CMSIS/include/core_cmFunc.h" 1
 869 005e 81F31188 		MSR basepri, r1
 870              	@ 0 "" 2
 871              	.LVL56:
 872              		.thumb
 873              		.syntax unified
 874              	.LBE495:
 875              	.LBE496:
 876              	.LBE497:
 877              	.LBE498:
 878              	.LBE499:
 879              	.LBE500:
 880              	.LBB501:
 881              	.LBB502:
 882              		.loc 3 844 0
 883 0062 0021     		movs	r1, #0
 884 0064 FFF7FEFF 		bl	chEvtBroadcastFlagsI
 885              	.LVL57:
 886              	.LBE502:
 887              	.LBE501:
 888              	.LBB503:
 889              	.LBB504:
 890              	.LBB505:
 891              	.LBB506:
 892              	.LBB507:
 893              	.LBB508:
 894              		.loc 2 546 0
 895 0068 0023     		movs	r3, #0
 896              		.syntax unified
 897              	@ 546 "ChibiOS_3.0.2/os/ext/CMSIS/include/core_cmFunc.h" 1
 898 006a 83F31188 		MSR basepri, r3
 899              	@ 0 "" 2
 900              	.LVL58:
 901              		.thumb
 902              		.syntax unified
 903 006e CFE7     		b	.L55
 904              	.L70:
 905              		.align	2
 906              	.L69:
 907 0070 00000000 		.word	.LANCHOR0
 908 0074 20000000 		.word	.LANCHOR0+32
 909              	.LBE508:
 910              	.LBE507:
 911              	.LBE506:
 912              	.LBE505:
ARM GAS  /tmp/cc63C5jb.s 			page 17


 913              	.LBE504:
 914              	.LBE503:
 915              	.LBE509:
 916              	.LBE510:
 917              		.cfi_endproc
 918              	.LFE264:
 919              		.size	Vector98, .-Vector98
 920              		.section	.text.can_lld_init,"ax",%progbits
 921              		.align	1
 922              		.p2align 4,,15
 923              		.global	can_lld_init
 924              		.syntax unified
 925              		.thumb
 926              		.thumb_func
 927              		.fpu fpv4-sp-d16
 928              		.type	can_lld_init, %function
 929              	can_lld_init:
 930              	.LFB265:
 931              		.loc 1 445 0
 932              		.cfi_startproc
 933              		@ args = 0, pretend = 0, frame = 0
 934              		@ frame_needed = 0, uses_anonymous_args = 0
 935 0000 10B5     		push	{r4, lr}
 936              		.cfi_def_cfa_offset 8
 937              		.cfi_offset 4, -8
 938              		.cfi_offset 14, -4
 939              		.loc 1 449 0
 940 0002 064C     		ldr	r4, .L73
 941 0004 2046     		mov	r0, r4
 942 0006 FFF7FEFF 		bl	canObjectInit
 943              	.LVL59:
 944              		.loc 1 460 0
 945 000a 0022     		movs	r2, #0
 946              		.loc 1 450 0
 947 000c 044B     		ldr	r3, .L73+4
 948 000e E362     		str	r3, [r4, #44]
 949              		.loc 1 460 0
 950 0010 1146     		mov	r1, r2
 951 0012 0E20     		movs	r0, #14
 952              		.loc 1 464 0
 953 0014 BDE81040 		pop	{r4, lr}
 954              		.cfi_restore 14
 955              		.cfi_restore 4
 956              		.cfi_def_cfa_offset 0
 957              		.loc 1 460 0
 958 0018 FFF7FEBF 		b	can_lld_set_filters
 959              	.LVL60:
 960              	.L74:
 961              		.align	2
 962              	.L73:
 963 001c 00000000 		.word	.LANCHOR0
 964 0020 00640040 		.word	1073767424
 965              		.cfi_endproc
 966              	.LFE265:
 967              		.size	can_lld_init, .-can_lld_init
 968              		.section	.text.can_lld_start,"ax",%progbits
 969              		.align	1
ARM GAS  /tmp/cc63C5jb.s 			page 18


 970              		.p2align 4,,15
 971              		.global	can_lld_start
 972              		.syntax unified
 973              		.thumb
 974              		.thumb_func
 975              		.fpu fpv4-sp-d16
 976              		.type	can_lld_start, %function
 977              	can_lld_start:
 978              	.LFB266:
 979              		.loc 1 473 0
 980              		.cfi_startproc
 981              		@ args = 0, pretend = 0, frame = 0
 982              		@ frame_needed = 0, uses_anonymous_args = 0
 983              	.LVL61:
 984              		.loc 1 477 0
 985 0000 184B     		ldr	r3, .L83
 986 0002 9842     		cmp	r0, r3
 987              		.loc 1 473 0
 988 0004 10B5     		push	{r4, lr}
 989              		.cfi_def_cfa_offset 8
 990              		.cfi_offset 4, -8
 991              		.cfi_offset 14, -4
 992              		.loc 1 473 0
 993 0006 0446     		mov	r4, r0
 994              		.loc 1 477 0
 995 0008 15D0     		beq	.L82
 996              	.LVL62:
 997              	.L76:
 998              		.loc 1 507 0
 999 000a E36A     		ldr	r3, [r4, #44]
 1000 000c 0122     		movs	r2, #1
 1001 000e 1A60     		str	r2, [r3]
 1002              		.loc 1 508 0
 1003 0010 5A68     		ldr	r2, [r3, #4]
 1004 0012 D107     		lsls	r1, r2, #31
 1005 0014 07D4     		bmi	.L77
 1006              	.L78:
 1007              	.LVL63:
 1008              	.LBB511:
 1009              	.LBB512:
 1010              	.LBB513:
 1011              		.file 4 "ChibiOS_3.0.2/os/rt/include/chthreads.h"
 1012              		.loc 4 268 0
 1013 0016 0121     		movs	r1, #1
 1014 0018 0820     		movs	r0, #8
 1015 001a FFF7FEFF 		bl	chSchGoSleepTimeoutS
 1016              	.LVL64:
 1017              	.LBE513:
 1018              	.LBE512:
 1019              	.LBE511:
 1020              		.loc 1 508 0
 1021 001e E36A     		ldr	r3, [r4, #44]
 1022 0020 5A68     		ldr	r2, [r3, #4]
 1023 0022 D207     		lsls	r2, r2, #31
 1024 0024 F7D5     		bpl	.L78
 1025              	.LVL65:
 1026              	.L77:
ARM GAS  /tmp/cc63C5jb.s 			page 19


 1027              		.loc 1 510 0
 1028 0026 6268     		ldr	r2, [r4, #4]
 1029              		.loc 1 514 0
 1030 0028 0F49     		ldr	r1, .L83+4
 1031              		.loc 1 511 0
 1032 002a D2E90020 		ldrd	r2, r0, [r2]
 1033              		.loc 1 510 0
 1034 002e D861     		str	r0, [r3, #28]
 1035              		.loc 1 511 0
 1036 0030 1A60     		str	r2, [r3]
 1037              		.loc 1 514 0
 1038 0032 5961     		str	r1, [r3, #20]
 1039              		.loc 1 518 0
 1040 0034 10BD     		pop	{r4, pc}
 1041              	.LVL66:
 1042              	.L82:
 1043              		.loc 1 481 0
 1044 0036 0B21     		movs	r1, #11
 1045 0038 1320     		movs	r0, #19
 1046              	.LVL67:
 1047 003a FFF7FEFF 		bl	nvicEnableVector
 1048              	.LVL68:
 1049              		.loc 1 482 0
 1050 003e 0B21     		movs	r1, #11
 1051 0040 1420     		movs	r0, #20
 1052 0042 FFF7FEFF 		bl	nvicEnableVector
 1053              	.LVL69:
 1054              		.loc 1 483 0
 1055 0046 0B21     		movs	r1, #11
 1056 0048 1520     		movs	r0, #21
 1057 004a FFF7FEFF 		bl	nvicEnableVector
 1058              	.LVL70:
 1059              		.loc 1 484 0
 1060 004e 0B21     		movs	r1, #11
 1061 0050 1620     		movs	r0, #22
 1062 0052 FFF7FEFF 		bl	nvicEnableVector
 1063              	.LVL71:
 1064              		.loc 1 486 0
 1065 0056 054A     		ldr	r2, .L83+8
 1066 0058 136C     		ldr	r3, [r2, #64]
 1067 005a 43F00073 		orr	r3, r3, #33554432
 1068 005e 1364     		str	r3, [r2, #64]
 1069 0060 D3E7     		b	.L76
 1070              	.L84:
 1071 0062 00BF     		.align	2
 1072              	.L83:
 1073 0064 00000000 		.word	.LANCHOR0
 1074 0068 5B8F0100 		.word	102235
 1075 006c 00380240 		.word	1073887232
 1076              		.cfi_endproc
 1077              	.LFE266:
 1078              		.size	can_lld_start, .-can_lld_start
 1079              		.section	.text.can_lld_stop,"ax",%progbits
 1080              		.align	1
 1081              		.p2align 4,,15
 1082              		.global	can_lld_stop
 1083              		.syntax unified
ARM GAS  /tmp/cc63C5jb.s 			page 20


 1084              		.thumb
 1085              		.thumb_func
 1086              		.fpu fpv4-sp-d16
 1087              		.type	can_lld_stop, %function
 1088              	can_lld_stop:
 1089              	.LFB267:
 1090              		.loc 1 527 0
 1091              		.cfi_startproc
 1092              		@ args = 0, pretend = 0, frame = 0
 1093              		@ frame_needed = 0, uses_anonymous_args = 0
 1094              	.LVL72:
 1095 0000 08B5     		push	{r3, lr}
 1096              		.cfi_def_cfa_offset 8
 1097              		.cfi_offset 3, -8
 1098              		.cfi_offset 14, -4
 1099              		.loc 1 530 0
 1100 0002 0378     		ldrb	r3, [r0]	@ zero_extendqisi2
 1101 0004 032B     		cmp	r3, #3
 1102 0006 00D0     		beq	.L88
 1103              	.L85:
 1104              		.loc 1 567 0
 1105 0008 08BD     		pop	{r3, pc}
 1106              	.L88:
 1107              		.loc 1 532 0
 1108 000a 0D4B     		ldr	r3, .L89
 1109 000c 9842     		cmp	r0, r3
 1110 000e FBD1     		bne	.L85
 1111              		.loc 1 538 0
 1112 0010 0C4B     		ldr	r3, .L89+4
 1113 0012 0D4A     		ldr	r2, .L89+8
 1114 0014 1A60     		str	r2, [r3]
 1115              		.loc 1 539 0
 1116 0016 0022     		movs	r2, #0
 1117 0018 5A61     		str	r2, [r3, #20]
 1118              		.loc 1 543 0
 1119 001a 1320     		movs	r0, #19
 1120              	.LVL73:
 1121 001c FFF7FEFF 		bl	nvicDisableVector
 1122              	.LVL74:
 1123              		.loc 1 544 0
 1124 0020 1420     		movs	r0, #20
 1125 0022 FFF7FEFF 		bl	nvicDisableVector
 1126              	.LVL75:
 1127              		.loc 1 545 0
 1128 0026 1520     		movs	r0, #21
 1129 0028 FFF7FEFF 		bl	nvicDisableVector
 1130              	.LVL76:
 1131              		.loc 1 546 0
 1132 002c 1620     		movs	r0, #22
 1133 002e FFF7FEFF 		bl	nvicDisableVector
 1134              	.LVL77:
 1135              		.loc 1 548 0
 1136 0032 064A     		ldr	r2, .L89+12
 1137 0034 136C     		ldr	r3, [r2, #64]
 1138 0036 23F00073 		bic	r3, r3, #33554432
 1139 003a 1364     		str	r3, [r2, #64]
 1140              		.loc 1 567 0
ARM GAS  /tmp/cc63C5jb.s 			page 21


 1141 003c 08BD     		pop	{r3, pc}
 1142              	.L90:
 1143 003e 00BF     		.align	2
 1144              	.L89:
 1145 0040 00000000 		.word	.LANCHOR0
 1146 0044 00640040 		.word	1073767424
 1147 0048 02000100 		.word	65538
 1148 004c 00380240 		.word	1073887232
 1149              		.cfi_endproc
 1150              	.LFE267:
 1151              		.size	can_lld_stop, .-can_lld_stop
 1152              		.section	.text.can_lld_is_tx_empty,"ax",%progbits
 1153              		.align	1
 1154              		.p2align 4,,15
 1155              		.global	can_lld_is_tx_empty
 1156              		.syntax unified
 1157              		.thumb
 1158              		.thumb_func
 1159              		.fpu fpv4-sp-d16
 1160              		.type	can_lld_is_tx_empty, %function
 1161              	can_lld_is_tx_empty:
 1162              	.LFB268:
 1163              		.loc 1 581 0
 1164              		.cfi_startproc
 1165              		@ args = 0, pretend = 0, frame = 0
 1166              		@ frame_needed = 0, uses_anonymous_args = 0
 1167              		@ link register save eliminated.
 1168              	.LVL78:
 1169              		.loc 1 583 0
 1170 0000 0329     		cmp	r1, #3
 1171 0002 1AD8     		bhi	.L98
 1172 0004 DFE801F0 		tbb	[pc, r1]
 1173              	.L94:
 1174 0008 11       		.byte	(.L93-.L94)/2
 1175 0009 0C       		.byte	(.L95-.L94)/2
 1176 000a 07       		.byte	(.L96-.L94)/2
 1177 000b 02       		.byte	(.L97-.L94)/2
 1178              		.p2align 1
 1179              	.L97:
 1180              		.loc 1 591 0
 1181 000c C36A     		ldr	r3, [r0, #44]
 1182 000e 9868     		ldr	r0, [r3, #8]
 1183              	.LVL79:
 1184 0010 C0F30070 		ubfx	r0, r0, #28, #1
 1185 0014 7047     		bx	lr
 1186              	.LVL80:
 1187              	.L96:
 1188              		.loc 1 589 0
 1189 0016 C36A     		ldr	r3, [r0, #44]
 1190 0018 9868     		ldr	r0, [r3, #8]
 1191              	.LVL81:
 1192 001a C0F3C060 		ubfx	r0, r0, #27, #1
 1193 001e 7047     		bx	lr
 1194              	.LVL82:
 1195              	.L95:
 1196              		.loc 1 587 0
 1197 0020 C36A     		ldr	r3, [r0, #44]
ARM GAS  /tmp/cc63C5jb.s 			page 22


 1198 0022 9868     		ldr	r0, [r3, #8]
 1199              	.LVL83:
 1200 0024 C0F38060 		ubfx	r0, r0, #26, #1
 1201 0028 7047     		bx	lr
 1202              	.LVL84:
 1203              	.L93:
 1204              		.loc 1 585 0
 1205 002a C36A     		ldr	r3, [r0, #44]
 1206 002c 9B68     		ldr	r3, [r3, #8]
 1207 002e 13F0E05F 		tst	r3, #469762048
 1208 0032 14BF     		ite	ne
 1209 0034 0120     		movne	r0, #1
 1210              	.LVL85:
 1211 0036 0020     		moveq	r0, #0
 1212 0038 7047     		bx	lr
 1213              	.LVL86:
 1214              	.L98:
 1215              		.loc 1 593 0
 1216 003a 0020     		movs	r0, #0
 1217              	.LVL87:
 1218              		.loc 1 595 0
 1219 003c 7047     		bx	lr
 1220              		.cfi_endproc
 1221              	.LFE268:
 1222              		.size	can_lld_is_tx_empty, .-can_lld_is_tx_empty
 1223 003e 00BF     		.section	.text.can_lld_transmit,"ax",%progbits
 1224              		.align	1
 1225              		.p2align 4,,15
 1226              		.global	can_lld_transmit
 1227              		.syntax unified
 1228              		.thumb
 1229              		.thumb_func
 1230              		.fpu fpv4-sp-d16
 1231              		.type	can_lld_transmit, %function
 1232              	can_lld_transmit:
 1233              	.LFB269:
 1234              		.loc 1 608 0
 1235              		.cfi_startproc
 1236              		@ args = 0, pretend = 0, frame = 0
 1237              		@ frame_needed = 0, uses_anonymous_args = 0
 1238              		@ link register save eliminated.
 1239              	.LVL88:
 1240              		.loc 1 613 0
 1241 0000 0329     		cmp	r1, #3
 1242 0002 34D8     		bhi	.L110
 1243 0004 DFE801F0 		tbb	[pc, r1]
 1244              	.L102:
 1245 0008 23       		.byte	(.L101-.L102)/2
 1246 0009 2B       		.byte	(.L103-.L102)/2
 1247 000a 1F       		.byte	(.L104-.L102)/2
 1248 000b 02       		.byte	(.L105-.L102)/2
 1249              		.p2align 1
 1250              	.L105:
 1251              		.loc 1 624 0
 1252 000c C16A     		ldr	r1, [r0, #44]
 1253              	.LVL89:
 1254 000e 01F5D071 		add	r1, r1, #416
ARM GAS  /tmp/cc63C5jb.s 			page 23


 1255              	.LVL90:
 1256              	.L106:
 1257 0012 1078     		ldrb	r0, [r2]	@ zero_extendqisi2
 1258              	.LVL91:
 1259              		.loc 1 608 0
 1260 0014 10B4     		push	{r4}
 1261              		.cfi_def_cfa_offset 4
 1262              		.cfi_offset 4, -4
 1263 0016 C0F30013 		ubfx	r3, r0, #4, #1
 1264              		.loc 1 631 0
 1265 001a 8406     		lsls	r4, r0, #26
 1266 001c 4FEA4303 		lsl	r3, r3, #1
 1267 0020 21D5     		bpl	.L107
 1268              		.loc 1 632 0
 1269 0022 5468     		ldr	r4, [r2, #4]
 1270 0024 43EAC403 		orr	r3, r3, r4, lsl #3
 1271 0028 43F00403 		orr	r3, r3, #4
 1272              	.LVL92:
 1273              	.L108:
 1274              		.loc 1 638 0
 1275 002c D2E90242 		ldrd	r4, r2, [r2, #8]
 1276              	.LVL93:
 1277              		.loc 1 636 0
 1278 0030 00F00F00 		and	r0, r0, #15
 1279              		.loc 1 639 0
 1280 0034 43F00103 		orr	r3, r3, #1
 1281              	.LVL94:
 1282              		.loc 1 636 0
 1283 0038 4860     		str	r0, [r1, #4]
 1284              		.loc 1 637 0
 1285 003a 8C60     		str	r4, [r1, #8]
 1286              		.loc 1 638 0
 1287 003c CA60     		str	r2, [r1, #12]
 1288              		.loc 1 640 0
 1289 003e 5DF8044B 		ldr	r4, [sp], #4
 1290              		.cfi_restore 4
 1291              		.cfi_def_cfa_offset 0
 1292              		.loc 1 639 0
 1293 0042 0B60     		str	r3, [r1]
 1294              		.loc 1 640 0
 1295 0044 7047     		bx	lr
 1296              	.LVL95:
 1297              	.L104:
 1298              		.loc 1 621 0
 1299 0046 C16A     		ldr	r1, [r0, #44]
 1300              	.LVL96:
 1301 0048 01F5C871 		add	r1, r1, #400
 1302              	.LVL97:
 1303              		.loc 1 622 0
 1304 004c E1E7     		b	.L106
 1305              	.LVL98:
 1306              	.L101:
 1307              		.loc 1 615 0
 1308 004e C16A     		ldr	r1, [r0, #44]
 1309              	.LVL99:
 1310 0050 8B68     		ldr	r3, [r1, #8]
 1311 0052 C3F30163 		ubfx	r3, r3, #24, #2
ARM GAS  /tmp/cc63C5jb.s 			page 24


 1312 0056 1833     		adds	r3, r3, #24
 1313 0058 01EB0311 		add	r1, r1, r3, lsl #4
 1314              	.LVL100:
 1315              		.loc 1 616 0
 1316 005c D9E7     		b	.L106
 1317              	.LVL101:
 1318              	.L103:
 1319              		.loc 1 618 0
 1320 005e C16A     		ldr	r1, [r0, #44]
 1321              	.LVL102:
 1322 0060 01F5C071 		add	r1, r1, #384
 1323              	.LVL103:
 1324              		.loc 1 619 0
 1325 0064 D5E7     		b	.L106
 1326              	.LVL104:
 1327              	.L107:
 1328              		.cfi_def_cfa_offset 4
 1329              		.cfi_offset 4, -4
 1330              		.loc 1 635 0
 1331 0066 9488     		ldrh	r4, [r2, #4]
 1332 0068 43EA4453 		orr	r3, r3, r4, lsl #21
 1333              	.LVL105:
 1334 006c DEE7     		b	.L108
 1335              	.LVL106:
 1336              	.L110:
 1337 006e 7047     		bx	lr
 1338              		.cfi_endproc
 1339              	.LFE269:
 1340              		.size	can_lld_transmit, .-can_lld_transmit
 1341              		.section	.text.can_lld_is_rx_nonempty,"ax",%progbits
 1342              		.align	1
 1343              		.p2align 4,,15
 1344              		.global	can_lld_is_rx_nonempty
 1345              		.syntax unified
 1346              		.thumb
 1347              		.thumb_func
 1348              		.fpu fpv4-sp-d16
 1349              		.type	can_lld_is_rx_nonempty, %function
 1350              	can_lld_is_rx_nonempty:
 1351              	.LFB270:
 1352              		.loc 1 654 0
 1353              		.cfi_startproc
 1354              		@ args = 0, pretend = 0, frame = 0
 1355              		@ frame_needed = 0, uses_anonymous_args = 0
 1356              		@ link register save eliminated.
 1357              	.LVL107:
 1358              		.loc 1 656 0
 1359 0000 0129     		cmp	r1, #1
 1360 0002 11D0     		beq	.L114
 1361 0004 0AD3     		bcc	.L115
 1362 0006 0229     		cmp	r1, #2
 1363 0008 06D1     		bne	.L122
 1364              		.loc 1 663 0
 1365 000a C36A     		ldr	r3, [r0, #44]
 1366              	.L121:
 1367 000c 1869     		ldr	r0, [r3, #16]
 1368              	.LVL108:
ARM GAS  /tmp/cc63C5jb.s 			page 25


 1369 000e 10F00300 		ands	r0, r0, #3
 1370 0012 18BF     		it	ne
 1371 0014 0120     		movne	r0, #1
 1372 0016 7047     		bx	lr
 1373              	.LVL109:
 1374              	.L122:
 1375              		.loc 1 665 0
 1376 0018 0020     		movs	r0, #0
 1377              	.LVL110:
 1378              		.loc 1 667 0
 1379 001a 7047     		bx	lr
 1380              	.LVL111:
 1381              	.L115:
 1382              		.loc 1 658 0
 1383 001c C36A     		ldr	r3, [r0, #44]
 1384 001e DA68     		ldr	r2, [r3, #12]
 1385 0020 9207     		lsls	r2, r2, #30
 1386 0022 F3D0     		beq	.L121
 1387 0024 0120     		movs	r0, #1
 1388              	.LVL112:
 1389 0026 7047     		bx	lr
 1390              	.LVL113:
 1391              	.L114:
 1392              		.loc 1 661 0
 1393 0028 C36A     		ldr	r3, [r0, #44]
 1394 002a D868     		ldr	r0, [r3, #12]
 1395              	.LVL114:
 1396 002c 10F00300 		ands	r0, r0, #3
 1397 0030 18BF     		it	ne
 1398 0032 0120     		movne	r0, #1
 1399 0034 7047     		bx	lr
 1400              		.cfi_endproc
 1401              	.LFE270:
 1402              		.size	can_lld_is_rx_nonempty, .-can_lld_is_rx_nonempty
 1403 0036 00BF     		.section	.text.can_lld_receive,"ax",%progbits
 1404              		.align	1
 1405              		.p2align 4,,15
 1406              		.global	can_lld_receive
 1407              		.syntax unified
 1408              		.thumb
 1409              		.thumb_func
 1410              		.fpu fpv4-sp-d16
 1411              		.type	can_lld_receive, %function
 1412              	can_lld_receive:
 1413              	.LFB271:
 1414              		.loc 1 680 0
 1415              		.cfi_startproc
 1416              		@ args = 0, pretend = 0, frame = 0
 1417              		@ frame_needed = 0, uses_anonymous_args = 0
 1418              		@ link register save eliminated.
 1419              	.LVL115:
 1420 0000 30B4     		push	{r4, r5}
 1421              		.cfi_def_cfa_offset 8
 1422              		.cfi_offset 4, -8
 1423              		.cfi_offset 5, -4
 1424              		.loc 1 683 0
 1425 0002 0029     		cmp	r1, #0
ARM GAS  /tmp/cc63C5jb.s 			page 26


 1426 0004 2FD1     		bne	.L124
 1427              		.loc 1 684 0
 1428 0006 C36A     		ldr	r3, [r0, #44]
 1429 0008 D968     		ldr	r1, [r3, #12]
 1430              	.LVL116:
 1431 000a 8807     		lsls	r0, r1, #30
 1432              	.LVL117:
 1433 000c 44D0     		beq	.L134
 1434              	.L125:
 1435              		.loc 1 696 0
 1436 000e D3F8B001 		ldr	r0, [r3, #432]
 1437              	.LVL118:
 1438              		.loc 1 697 0
 1439 0012 D3F8B411 		ldr	r1, [r3, #436]
 1440              	.LVL119:
 1441              		.loc 1 698 0
 1442 0016 D3F8B841 		ldr	r4, [r3, #440]
 1443              		.loc 1 699 0
 1444 001a D3F8BC51 		ldr	r5, [r3, #444]
 1445              		.loc 1 698 0
 1446 001e D460     		str	r4, [r2, #12]
 1447              		.loc 1 702 0
 1448 0020 2024     		movs	r4, #32
 1449              		.loc 1 699 0
 1450 0022 1561     		str	r5, [r2, #16]
 1451              		.loc 1 702 0
 1452 0024 DC60     		str	r4, [r3, #12]
 1453              		.loc 1 706 0
 1454 0026 DC68     		ldr	r4, [r3, #12]
 1455 0028 A507     		lsls	r5, r4, #30
 1456 002a 03D1     		bne	.L130
 1457              		.loc 1 707 0
 1458 002c 5C69     		ldr	r4, [r3, #20]
 1459 002e 44F00204 		orr	r4, r4, #2
 1460 0032 5C61     		str	r4, [r3, #20]
 1461              	.L130:
 1462              		.loc 1 730 0
 1463 0034 1379     		ldrb	r3, [r2, #4]	@ zero_extendqisi2
 1464 0036 4408     		lsrs	r4, r0, #1
 1465 0038 64F30413 		bfi	r3, r4, #4, #1
 1466              		.loc 1 731 0
 1467 003c 8408     		lsrs	r4, r0, #2
 1468 003e 64F34513 		bfi	r3, r4, #5, #1
 1469 0042 1371     		strb	r3, [r2, #4]
 1470              		.loc 1 732 0
 1471 0044 9B06     		lsls	r3, r3, #26
 1472 0046 2BD5     		bpl	.L131
 1473              		.loc 1 733 0
 1474 0048 9368     		ldr	r3, [r2, #8]
 1475 004a C008     		lsrs	r0, r0, #3
 1476              	.LVL120:
 1477 004c 60F31C03 		bfi	r3, r0, #0, #29
 1478 0050 9360     		str	r3, [r2, #8]
 1479              	.L132:
 1480              		.loc 1 736 0
 1481 0052 1379     		ldrb	r3, [r2, #4]	@ zero_extendqisi2
 1482              		.loc 1 737 0
ARM GAS  /tmp/cc63C5jb.s 			page 27


 1483 0054 080A     		lsrs	r0, r1, #8
 1484              		.loc 1 736 0
 1485 0056 61F30303 		bfi	r3, r1, #0, #4
 1486              		.loc 1 738 0
 1487 005a 090C     		lsrs	r1, r1, #16
 1488              	.LVL121:
 1489              		.loc 1 736 0
 1490 005c 1371     		strb	r3, [r2, #4]
 1491              		.loc 1 737 0
 1492 005e 1070     		strb	r0, [r2]
 1493              		.loc 1 738 0
 1494 0060 5180     		strh	r1, [r2, #2]	@ movhi
 1495              	.L123:
 1496              		.loc 1 739 0
 1497 0062 30BC     		pop	{r4, r5}
 1498              		.cfi_remember_state
 1499              		.cfi_restore 5
 1500              		.cfi_restore 4
 1501              		.cfi_def_cfa_offset 0
 1502 0064 7047     		bx	lr
 1503              	.LVL122:
 1504              	.L124:
 1505              		.cfi_restore_state
 1506              		.loc 1 693 0
 1507 0066 0129     		cmp	r1, #1
 1508 0068 20D0     		beq	.L128
 1509 006a 0229     		cmp	r1, #2
 1510 006c F9D1     		bne	.L123
 1511 006e C36A     		ldr	r3, [r0, #44]
 1512              	.LVL123:
 1513              	.L126:
 1514              		.loc 1 711 0
 1515 0070 D3F8C001 		ldr	r0, [r3, #448]
 1516              	.LVL124:
 1517              		.loc 1 712 0
 1518 0074 D3F8C411 		ldr	r1, [r3, #452]
 1519              	.LVL125:
 1520              		.loc 1 713 0
 1521 0078 D3F8C841 		ldr	r4, [r3, #456]
 1522              		.loc 1 714 0
 1523 007c D3F8CC51 		ldr	r5, [r3, #460]
 1524              		.loc 1 713 0
 1525 0080 D460     		str	r4, [r2, #12]
 1526              		.loc 1 717 0
 1527 0082 2024     		movs	r4, #32
 1528              		.loc 1 714 0
 1529 0084 1561     		str	r5, [r2, #16]
 1530              		.loc 1 717 0
 1531 0086 1C61     		str	r4, [r3, #16]
 1532              		.loc 1 721 0
 1533 0088 1C69     		ldr	r4, [r3, #16]
 1534 008a A407     		lsls	r4, r4, #30
 1535 008c D2D1     		bne	.L130
 1536              		.loc 1 722 0
 1537 008e 5C69     		ldr	r4, [r3, #20]
 1538 0090 44F01004 		orr	r4, r4, #16
 1539 0094 5C61     		str	r4, [r3, #20]
ARM GAS  /tmp/cc63C5jb.s 			page 28


 1540 0096 CDE7     		b	.L130
 1541              	.LVL126:
 1542              	.L134:
 1543              		.loc 1 686 0
 1544 0098 1969     		ldr	r1, [r3, #16]
 1545 009a 8907     		lsls	r1, r1, #30
 1546 009c E8D1     		bne	.L126
 1547 009e E0E7     		b	.L123
 1548              	.LVL127:
 1549              	.L131:
 1550              		.loc 1 735 0
 1551 00a0 1389     		ldrh	r3, [r2, #8]
 1552 00a2 400D     		lsrs	r0, r0, #21
 1553              	.LVL128:
 1554 00a4 60F30A03 		bfi	r3, r0, #0, #11
 1555 00a8 1381     		strh	r3, [r2, #8]	@ movhi
 1556 00aa D2E7     		b	.L132
 1557              	.LVL129:
 1558              	.L128:
 1559 00ac C36A     		ldr	r3, [r0, #44]
 1560 00ae AEE7     		b	.L125
 1561              		.cfi_endproc
 1562              	.LFE271:
 1563              		.size	can_lld_receive, .-can_lld_receive
 1564              		.section	.text.can_lld_sleep,"ax",%progbits
 1565              		.align	1
 1566              		.p2align 4,,15
 1567              		.global	can_lld_sleep
 1568              		.syntax unified
 1569              		.thumb
 1570              		.thumb_func
 1571              		.fpu fpv4-sp-d16
 1572              		.type	can_lld_sleep, %function
 1573              	can_lld_sleep:
 1574              	.LFB272:
 1575              		.loc 1 749 0
 1576              		.cfi_startproc
 1577              		@ args = 0, pretend = 0, frame = 0
 1578              		@ frame_needed = 0, uses_anonymous_args = 0
 1579              		@ link register save eliminated.
 1580              	.LVL130:
 1581              		.loc 1 751 0
 1582 0000 C26A     		ldr	r2, [r0, #44]
 1583 0002 1368     		ldr	r3, [r2]
 1584 0004 43F00203 		orr	r3, r3, #2
 1585 0008 1360     		str	r3, [r2]
 1586              		.loc 1 752 0
 1587 000a 7047     		bx	lr
 1588              		.cfi_endproc
 1589              	.LFE272:
 1590              		.size	can_lld_sleep, .-can_lld_sleep
 1591              		.section	.text.can_lld_wakeup,"ax",%progbits
 1592              		.align	1
 1593              		.p2align 4,,15
 1594              		.global	can_lld_wakeup
 1595              		.syntax unified
 1596              		.thumb
ARM GAS  /tmp/cc63C5jb.s 			page 29


 1597              		.thumb_func
 1598              		.fpu fpv4-sp-d16
 1599              		.type	can_lld_wakeup, %function
 1600              	can_lld_wakeup:
 1601              	.LFB273:
 1602              		.loc 1 761 0
 1603              		.cfi_startproc
 1604              		@ args = 0, pretend = 0, frame = 0
 1605              		@ frame_needed = 0, uses_anonymous_args = 0
 1606              		@ link register save eliminated.
 1607              	.LVL131:
 1608              		.loc 1 763 0
 1609 0000 C26A     		ldr	r2, [r0, #44]
 1610 0002 1368     		ldr	r3, [r2]
 1611 0004 23F00203 		bic	r3, r3, #2
 1612 0008 1360     		str	r3, [r2]
 1613              		.loc 1 764 0
 1614 000a 7047     		bx	lr
 1615              		.cfi_endproc
 1616              	.LFE273:
 1617              		.size	can_lld_wakeup, .-can_lld_wakeup
 1618              		.section	.text.canSTM32SetFilters,"ax",%progbits
 1619              		.align	1
 1620              		.p2align 4,,15
 1621              		.global	canSTM32SetFilters
 1622              		.syntax unified
 1623              		.thumb
 1624              		.thumb_func
 1625              		.fpu fpv4-sp-d16
 1626              		.type	canSTM32SetFilters, %function
 1627              	canSTM32SetFilters:
 1628              	.LFB274:
 1629              		.loc 1 779 0
 1630              		.cfi_startproc
 1631              		@ args = 0, pretend = 0, frame = 0
 1632              		@ frame_needed = 0, uses_anonymous_args = 0
 1633              		@ link register save eliminated.
 1634              	.LVL132:
 1635              		.loc 1 791 0
 1636 0000 FFF7FEBF 		b	can_lld_set_filters
 1637              	.LVL133:
 1638              		.cfi_endproc
 1639              	.LFE274:
 1640              		.size	canSTM32SetFilters, .-canSTM32SetFilters
 1641              		.global	CAND1
 1642              		.section	.bss.CAND1,"aw",%nobits
 1643              		.align	2
 1644              		.set	.LANCHOR0,. + 0
 1645              		.type	CAND1, %object
 1646              		.size	CAND1, 48
 1647              	CAND1:
 1648 0000 00000000 		.space	48
 1648      00000000 
 1648      00000000 
 1648      00000000 
 1648      00000000 
 1649              		.text
ARM GAS  /tmp/cc63C5jb.s 			page 30


 1650              	.Letext0:
 1651              		.file 5 "/usr/lib/gcc/arm-none-eabi/7.3.1/include/stddef.h"
 1652              		.file 6 "/usr/arm-none-eabi/include/machine/_default_types.h"
 1653              		.file 7 "/usr/arm-none-eabi/include/sys/_stdint.h"
 1654              		.file 8 "ChibiOS_3.0.2/os/rt/ports/ARMCMx/compilers/GCC/chtypes.h"
 1655              		.file 9 "ChibiOS_3.0.2/os/rt/include/chsystypes.h"
 1656              		.file 10 "ChibiOS_3.0.2/os/rt/include/chschd.h"
 1657              		.file 11 "ChibiOS_3.0.2/os/ext/CMSIS/include/core_cm4.h"
 1658              		.file 12 "ChibiOS_3.0.2/os/ext/CMSIS/ST/system_stm32f4xx.h"
 1659              		.file 13 "ChibiOS_3.0.2/os/ext/CMSIS/ST/stm32f407xx.h"
 1660              		.file 14 "ChibiOS_3.0.2/os/rt/ports/ARMCMx/chcore.h"
 1661              		.file 15 "ChibiOS_3.0.2/os/rt/ports/ARMCMx/chcore_v7m.h"
 1662              		.file 16 "ChibiOS_3.0.2/os/rt/include/chtm.h"
 1663              		.file 17 "ChibiOS_3.0.2/os/rt/include/chsem.h"
 1664              		.file 18 "ChibiOS_3.0.2/os/rt/include/chmtx.h"
 1665              		.file 19 "ChibiOS_3.0.2/os/rt/include/chregistry.h"
 1666              		.file 20 "ChibiOS_3.0.2/os/rt/include/chevents.h"
 1667              		.file 21 "ChibiOS_3.0.2/os/rt/include/chqueues.h"
 1668              		.file 22 "./conf_general.h"
 1669              		.file 23 "ChibiOS_3.0.2/os/hal/ports/STM32/STM32F4xx/stm32_dma.h"
 1670              		.file 24 "ChibiOS_3.0.2/os/hal/ports/STM32/LLD/GPIOv2/pal_lld.h"
 1671              		.file 25 "ChibiOS_3.0.2/os/hal/include/can.h"
 1672              		.file 26 "ChibiOS_3.0.2/os/hal/ports/STM32/LLD/can_lld.h"
 1673              		.file 27 "ChibiOS_3.0.2/os/hal/include/i2c.h"
 1674              		.file 28 "ChibiOS_3.0.2/os/hal/ports/STM32/LLD/I2Cv1/i2c_lld.h"
 1675              		.file 29 "ChibiOS_3.0.2/os/hal/include/icu.h"
 1676              		.file 30 "ChibiOS_3.0.2/os/hal/ports/STM32/LLD/TIMv1/icu_lld.h"
 1677              		.file 31 "ChibiOS_3.0.2/os/hal/ports/STM32/LLD/TIMv1/stm32_tim.h"
 1678              		.file 32 "ChibiOS_3.0.2/os/hal/include/spi.h"
 1679              		.file 33 "ChibiOS_3.0.2/os/hal/ports/STM32/LLD/SPIv1/spi_lld.h"
 1680              		.file 34 "ChibiOS_3.0.2/os/hal/include/uart.h"
 1681              		.file 35 "ChibiOS_3.0.2/os/hal/ports/STM32/LLD/USARTv1/uart_lld.h"
 1682              		.file 36 "ChibiOS_3.0.2/os/hal/include/usb.h"
 1683              		.file 37 "ChibiOS_3.0.2/os/hal/ports/STM32/LLD/OTGv1/usb_lld.h"
 1684              		.file 38 "ChibiOS_3.0.2/os/hal/ports/STM32/LLD/OTGv1/stm32_otg.h"
 1685              		.file 39 "ChibiOS_3.0.2/os/rt/include/chsys.h"
 1686              		.file 40 "ChibiOS_3.0.2/os/hal/ports/common/ARMCMx/nvic.h"