ARM GAS  /tmp/cc1voS7U.s 			page 1


   1              		.cpu cortex-m4
   2              		.eabi_attribute 27, 1
   3              		.eabi_attribute 28, 1
   4              		.eabi_attribute 20, 1
   5              		.eabi_attribute 21, 1
   6              		.eabi_attribute 23, 3
   7              		.eabi_attribute 24, 1
   8              		.eabi_attribute 25, 1
   9              		.eabi_attribute 26, 1
  10              		.eabi_attribute 30, 2
  11              		.eabi_attribute 34, 1
  12              		.eabi_attribute 18, 4
  13              		.file	"chcore_v7m.c"
  14              		.text
  15              	.Ltext0:
  16              		.cfi_sections	.debug_frame
  17              		.section	.text.SVC_Handler,"ax",%progbits
  18              		.align	1
  19              		.p2align 4,,15
  20              		.global	SVC_Handler
  21              		.syntax unified
  22              		.thumb
  23              		.thumb_func
  24              		.fpu fpv4-sp-d16
  25              		.type	SVC_Handler, %function
  26              	SVC_Handler:
  27              	.LFB219:
  28              		.file 1 "ChibiOS_3.0.2/os/rt/ports/ARMCMx/chcore_v7m.c"
  29              		.loc 1 62 0
  30              		.cfi_startproc
  31              		@ args = 0, pretend = 0, frame = 0
  32              		@ frame_needed = 1, uses_anonymous_args = 0
  33              		@ link register save eliminated.
  34 0000 80B4     		push	{r7}
  35              		.cfi_def_cfa_offset 4
  36              		.cfi_offset 7, -4
  37              		.loc 1 68 0
  38 0002 094A     		ldr	r2, .L4
  39 0004 5368     		ldr	r3, [r2, #4]
  40 0006 23F00103 		bic	r3, r3, #1
  41              		.loc 1 62 0
  42 000a 00AF     		add	r7, sp, #0
  43              		.cfi_def_cfa_register 7
  44              		.loc 1 68 0
  45 000c 5360     		str	r3, [r2, #4]
  46              	.LBB51:
  47              	.LBB52:
  48              		.file 2 "ChibiOS_3.0.2/os/ext/CMSIS/include/core_cmFunc.h"
  49              		.loc 2 428 0
  50              		.syntax unified
  51              	@ 428 "ChibiOS_3.0.2/os/ext/CMSIS/include/core_cmFunc.h" 1
  52 000e EFF30983 		MRS r3, psp
  53              	
  54              	@ 0 "" 2
  55              	.LVL0:
  56              		.thumb
  57              		.syntax unified
ARM GAS  /tmp/cc1voS7U.s 			page 2


  58              	.LBE52:
  59              	.LBE51:
  60              		.loc 1 76 0
  61 0012 6833     		adds	r3, r3, #104
  62              	.LVL1:
  63              	.LBB53:
  64              	.LBB54:
  65              		.loc 2 441 0
  66              		.syntax unified
  67              	@ 441 "ChibiOS_3.0.2/os/ext/CMSIS/include/core_cmFunc.h" 1
  68 0014 83F30988 		MSR psp, r3
  69              	
  70              	@ 0 "" 2
  71              	.LVL2:
  72              		.thumb
  73              		.syntax unified
  74              	.LBE54:
  75              	.LBE53:
  76              	.LBB55:
  77              	.LBB56:
  78              	.LBB57:
  79              	.LBB58:
  80              		.loc 2 546 0
  81 0018 0023     		movs	r3, #0
  82              	.LVL3:
  83              		.syntax unified
  84              	@ 546 "ChibiOS_3.0.2/os/ext/CMSIS/include/core_cmFunc.h" 1
  85 001a 83F31188 		MSR basepri, r3
  86              	@ 0 "" 2
  87              	.LVL4:
  88              		.thumb
  89              		.syntax unified
  90              	.LBE58:
  91              	.LBE57:
  92              	.LBE56:
  93              	.LBE55:
  94              		.loc 1 83 0
  95 001e BD46     		mov	sp, r7
  96              		.cfi_def_cfa_register 13
  97              		@ sp needed
  98 0020 5DF8047B 		ldr	r7, [sp], #4
  99              		.cfi_restore 7
 100              		.cfi_def_cfa_offset 0
 101 0024 7047     		bx	lr
 102              	.L5:
 103 0026 00BF     		.align	2
 104              	.L4:
 105 0028 30EF00E0 		.word	-536809680
 106              		.cfi_endproc
 107              	.LFE219:
 108              		.size	SVC_Handler, .-SVC_Handler
 109              		.section	.text._port_irq_epilogue,"ax",%progbits
 110              		.align	1
 111              		.p2align 4,,15
 112              		.global	_port_irq_epilogue
 113              		.syntax unified
 114              		.thumb
ARM GAS  /tmp/cc1voS7U.s 			page 3


 115              		.thumb_func
 116              		.fpu fpv4-sp-d16
 117              		.type	_port_irq_epilogue, %function
 118              	_port_irq_epilogue:
 119              	.LFB220:
 120              		.loc 1 122 0
 121              		.cfi_startproc
 122              		@ args = 0, pretend = 0, frame = 0
 123              		@ frame_needed = 1, uses_anonymous_args = 0
 124              	.LVL5:
 125 0000 98B5     		push	{r3, r4, r7, lr}
 126              		.cfi_def_cfa_offset 16
 127              		.cfi_offset 3, -16
 128              		.cfi_offset 4, -12
 129              		.cfi_offset 7, -8
 130              		.cfi_offset 14, -4
 131              	.LBB59:
 132              	.LBB60:
 133              	.LBB61:
 134              	.LBB62:
 135              		.loc 2 546 0
 136 0002 2023     		movs	r3, #32
 137              	.LBE62:
 138              	.LBE61:
 139              	.LBE60:
 140              	.LBE59:
 141              		.loc 1 122 0
 142 0004 00AF     		add	r7, sp, #0
 143              		.cfi_def_cfa_register 7
 144              	.LBB66:
 145              	.LBB65:
 146              	.LBB64:
 147              	.LBB63:
 148              		.loc 2 546 0
 149              		.syntax unified
 150              	@ 546 "ChibiOS_3.0.2/os/ext/CMSIS/include/core_cmFunc.h" 1
 151 0006 83F31188 		MSR basepri, r3
 152              	@ 0 "" 2
 153              	.LVL6:
 154              		.thumb
 155              		.syntax unified
 156              	.LBE63:
 157              	.LBE64:
 158              	.LBE65:
 159              	.LBE66:
 160              		.loc 1 125 0
 161 000a 114B     		ldr	r3, .L12
 162 000c 5B68     		ldr	r3, [r3, #4]
 163 000e 13F40063 		ands	r3, r3, #2048
 164 0012 02D1     		bne	.L11
 165              	.LVL7:
 166              	.LBB67:
 167              	.LBB68:
 168              	.LBB69:
 169              	.LBB70:
 170              		.loc 2 546 0
 171              		.syntax unified
ARM GAS  /tmp/cc1voS7U.s 			page 4


 172              	@ 546 "ChibiOS_3.0.2/os/ext/CMSIS/include/core_cmFunc.h" 1
 173 0014 83F31188 		MSR basepri, r3
 174              	@ 0 "" 2
 175              	.LVL8:
 176              		.thumb
 177              		.syntax unified
 178              	.LBE70:
 179              	.LBE69:
 180              	.LBE68:
 181              	.LBE67:
 182              		.loc 1 166 0
 183 0018 98BD     		pop	{r3, r4, r7, pc}
 184              	.L11:
 185              	.LBB71:
 186              	.LBB72:
 187              	.LBB73:
 188              		.loc 2 593 0
 189              		.loc 2 594 0
 190              		.syntax unified
 191              	@ 594 "ChibiOS_3.0.2/os/ext/CMSIS/include/core_cmFunc.h" 1
 192 001a F1EE103A 		VMRS r3, fpscr
 193              	@ 0 "" 2
 194              	.LVL9:
 195              		.loc 2 595 0
 196              		.thumb
 197              		.syntax unified
 198              	.LBE73:
 199              	.LBE72:
 200              	.LBB74:
 201              	.LBB75:
 202              		.loc 2 428 0
 203              		.syntax unified
 204              	@ 428 "ChibiOS_3.0.2/os/ext/CMSIS/include/core_cmFunc.h" 1
 205 001e EFF30984 		MRS r4, psp
 206              	
 207              	@ 0 "" 2
 208              	.LVL10:
 209              		.thumb
 210              		.syntax unified
 211              	.LBE75:
 212              	.LBE74:
 213              		.loc 1 143 0
 214 0022 0C4B     		ldr	r3, .L12+4
 215              		.loc 1 141 0
 216 0024 4FF08072 		mov	r2, #16777216
 217              		.loc 1 143 0
 218 0028 DB68     		ldr	r3, [r3, #12]
 219 002a 44F8083C 		str	r3, [r4, #-8]
 220              	.LVL11:
 221              		.loc 1 141 0
 222 002e 44F84C2C 		str	r2, [r4, #-76]
 223              		.loc 1 138 0
 224 0032 A4F16803 		sub	r3, r4, #104
 225              	.LVL12:
 226              	.LBB76:
 227              	.LBB77:
 228              		.loc 2 441 0
ARM GAS  /tmp/cc1voS7U.s 			page 5


 229              		.syntax unified
 230              	@ 441 "ChibiOS_3.0.2/os/ext/CMSIS/include/core_cmFunc.h" 1
 231 0036 83F30988 		MSR psp, r3
 232              	
 233              	@ 0 "" 2
 234              	.LVL13:
 235              		.thumb
 236              		.syntax unified
 237              	.LBE77:
 238              	.LBE76:
 239              		.loc 1 151 0
 240 003a FFF7FEFF 		bl	chSchIsPreemptionRequired
 241              	.LVL14:
 242 003e 18B1     		cbz	r0, .L8
 243              		.loc 1 153 0
 244 0040 054B     		ldr	r3, .L12+8
 245 0042 44F8503C 		str	r3, [r4, #-80]
 246              	.LBE71:
 247              		.loc 1 166 0
 248 0046 98BD     		pop	{r3, r4, r7, pc}
 249              	.LVL15:
 250              	.L8:
 251              	.LBB78:
 252              		.loc 1 158 0
 253 0048 044B     		ldr	r3, .L12+12
 254 004a 44F8503C 		str	r3, [r4, #-80]
 255              	.LBE78:
 256              		.loc 1 166 0
 257 004e 98BD     		pop	{r3, r4, r7, pc}
 258              	.LVL16:
 259              	.L13:
 260              		.align	2
 261              	.L12:
 262 0050 00ED00E0 		.word	-536810240
 263 0054 30EF00E0 		.word	-536809680
 264 0058 00000000 		.word	_port_switch_from_isr
 265 005c 00000000 		.word	_port_exit_from_isr
 266              		.cfi_endproc
 267              	.LFE220:
 268              		.size	_port_irq_epilogue, .-_port_irq_epilogue
 269              		.text
 270              	.Letext0:
 271              		.file 3 "/usr/arm-none-eabi/include/machine/_default_types.h"
 272              		.file 4 "/usr/arm-none-eabi/include/sys/_stdint.h"
 273              		.file 5 "ChibiOS_3.0.2/os/rt/ports/ARMCMx/compilers/GCC/chtypes.h"
 274              		.file 6 "ChibiOS_3.0.2/os/rt/include/chsystypes.h"
 275              		.file 7 "ChibiOS_3.0.2/os/rt/include/chschd.h"
 276              		.file 8 "ChibiOS_3.0.2/os/ext/CMSIS/include/core_cm4.h"
 277              		.file 9 "ChibiOS_3.0.2/os/ext/CMSIS/ST/system_stm32f4xx.h"
 278              		.file 10 "ChibiOS_3.0.2/os/rt/ports/ARMCMx/chcore.h"
 279              		.file 11 "ChibiOS_3.0.2/os/rt/ports/ARMCMx/chcore_v7m.h"
 280              		.file 12 "ChibiOS_3.0.2/os/rt/include/chtm.h"
 281              		.file 13 "ChibiOS_3.0.2/os/rt/include/chsem.h"
 282              		.file 14 "ChibiOS_3.0.2/os/rt/include/chmtx.h"
 283              		.file 15 "ChibiOS_3.0.2/os/rt/include/chregistry.h"