ARM GAS  /tmp/cc521pIj.s 			page 1


   1              		.cpu cortex-m4
   2              		.eabi_attribute 27, 1
   3              		.eabi_attribute 28, 1
   4              		.eabi_attribute 20, 1
   5              		.eabi_attribute 21, 1
   6              		.eabi_attribute 23, 3
   7              		.eabi_attribute 24, 1
   8              		.eabi_attribute 25, 1
   9              		.eabi_attribute 26, 1
  10              		.eabi_attribute 30, 2
  11              		.eabi_attribute 34, 1
  12              		.eabi_attribute 18, 4
  13              		.file	"chcond.c"
  14              		.text
  15              	.Ltext0:
  16              		.cfi_sections	.debug_frame
  17              		.section	.text.chCondObjectInit,"ax",%progbits
  18              		.align	1
  19              		.p2align 4,,15
  20              		.global	chCondObjectInit
  21              		.syntax unified
  22              		.thumb
  23              		.thumb_func
  24              		.fpu fpv4-sp-d16
  25              		.type	chCondObjectInit, %function
  26              	chCondObjectInit:
  27              	.LFB219:
  28              		.file 1 "ChibiOS_3.0.2/os/rt/src/chcond.c"
  29              		.loc 1 75 0
  30              		.cfi_startproc
  31              		@ args = 0, pretend = 0, frame = 0
  32              		@ frame_needed = 0, uses_anonymous_args = 0
  33              		@ link register save eliminated.
  34              	.LVL0:
  35              	.LBB89:
  36              	.LBB90:
  37              		.file 2 "ChibiOS_3.0.2/os/rt/include/chschd.h"
  38              		.loc 2 605 0
  39 0000 C0E90000 		strd	r0, r0, [r0]
  40              	.LVL1:
  41              	.LBE90:
  42              	.LBE89:
  43              		.loc 1 80 0
  44 0004 7047     		bx	lr
  45              		.cfi_endproc
  46              	.LFE219:
  47              		.size	chCondObjectInit, .-chCondObjectInit
  48 0006 00BF     		.section	.text.chCondSignal,"ax",%progbits
  49              		.align	1
  50              		.p2align 4,,15
  51              		.global	chCondSignal
  52              		.syntax unified
  53              		.thumb
  54              		.thumb_func
  55              		.fpu fpv4-sp-d16
  56              		.type	chCondSignal, %function
  57              	chCondSignal:
ARM GAS  /tmp/cc521pIj.s 			page 2


  58              	.LFB220:
  59              		.loc 1 89 0
  60              		.cfi_startproc
  61              		@ args = 0, pretend = 0, frame = 0
  62              		@ frame_needed = 0, uses_anonymous_args = 0
  63              	.LVL2:
  64 0000 08B5     		push	{r3, lr}
  65              		.cfi_def_cfa_offset 8
  66              		.cfi_offset 3, -8
  67              		.cfi_offset 14, -4
  68              	.LBB91:
  69              	.LBB92:
  70              	.LBB93:
  71              	.LBB94:
  72              		.file 3 "ChibiOS_3.0.2/os/ext/CMSIS/include/core_cmFunc.h"
  73              		.loc 3 546 0
  74 0002 2023     		movs	r3, #32
  75              		.syntax unified
  76              	@ 546 "ChibiOS_3.0.2/os/ext/CMSIS/include/core_cmFunc.h" 1
  77 0004 83F31188 		MSR basepri, r3
  78              	@ 0 "" 2
  79              	.LVL3:
  80              		.thumb
  81              		.syntax unified
  82              	.LBE94:
  83              	.LBE93:
  84              	.LBE92:
  85              	.LBE91:
  86              	.LBB95:
  87              	.LBB96:
  88              		.loc 2 631 0
  89 0008 0268     		ldr	r2, [r0]
  90              	.LVL4:
  91              	.LBE96:
  92              	.LBE95:
  93              		.loc 1 94 0
  94 000a 9042     		cmp	r0, r2
  95 000c 07D0     		beq	.L4
  96              	.LBB97:
  97              	.LBB98:
  98              		.loc 2 674 0
  99 000e 1168     		ldr	r1, [r2]
 100 0010 0160     		str	r1, [r0]
 101 0012 0346     		mov	r3, r0
 102              	.LVL5:
 103              		.loc 2 675 0
 104 0014 4B60     		str	r3, [r1, #4]
 105              	.LVL6:
 106              	.LBE98:
 107              	.LBE97:
 108              		.loc 1 95 0
 109 0016 1046     		mov	r0, r2
 110              	.LVL7:
 111 0018 0021     		movs	r1, #0
 112 001a FFF7FEFF 		bl	chSchWakeupS
 113              	.LVL8:
 114              	.L4:
ARM GAS  /tmp/cc521pIj.s 			page 3


 115              	.LBB99:
 116              	.LBB100:
 117              	.LBB101:
 118              	.LBB102:
 119              	.LBB103:
 120              		.loc 3 546 0
 121 001e 0023     		movs	r3, #0
 122              		.syntax unified
 123              	@ 546 "ChibiOS_3.0.2/os/ext/CMSIS/include/core_cmFunc.h" 1
 124 0020 83F31188 		MSR basepri, r3
 125              	@ 0 "" 2
 126              	.LVL9:
 127              		.thumb
 128              		.syntax unified
 129              	.LBE103:
 130              	.LBE102:
 131              	.LBE101:
 132              	.LBE100:
 133              	.LBE99:
 134              		.loc 1 98 0
 135 0024 08BD     		pop	{r3, pc}
 136              		.cfi_endproc
 137              	.LFE220:
 138              		.size	chCondSignal, .-chCondSignal
 139 0026 00BF     		.section	.text.chCondSignalI,"ax",%progbits
 140              		.align	1
 141              		.p2align 4,,15
 142              		.global	chCondSignalI
 143              		.syntax unified
 144              		.thumb
 145              		.thumb_func
 146              		.fpu fpv4-sp-d16
 147              		.type	chCondSignalI, %function
 148              	chCondSignalI:
 149              	.LFB221:
 150              		.loc 1 111 0
 151              		.cfi_startproc
 152              		@ args = 0, pretend = 0, frame = 0
 153              		@ frame_needed = 0, uses_anonymous_args = 0
 154              		@ link register save eliminated.
 155              	.LVL10:
 156              	.LBB104:
 157              	.LBB105:
 158              		.loc 2 631 0
 159 0000 0368     		ldr	r3, [r0]
 160              	.LVL11:
 161              	.LBE105:
 162              	.LBE104:
 163              		.loc 1 116 0
 164 0002 9842     		cmp	r0, r3
 165 0004 07D0     		beq	.L6
 166              	.LVL12:
 167              	.LBB106:
 168              	.LBB107:
 169              	.LBB108:
 170              		.loc 2 674 0
 171 0006 1A68     		ldr	r2, [r3]
ARM GAS  /tmp/cc521pIj.s 			page 4


 172 0008 0260     		str	r2, [r0]
 173              	.LBE108:
 174              	.LBE107:
 175              		.loc 1 118 0
 176 000a 0021     		movs	r1, #0
 177              	.LBB110:
 178              	.LBB109:
 179              		.loc 2 675 0
 180 000c 5060     		str	r0, [r2, #4]
 181              	.LVL13:
 182              	.LBE109:
 183              	.LBE110:
 184              		.loc 1 119 0
 185 000e 1846     		mov	r0, r3
 186              	.LVL14:
 187              		.loc 1 118 0
 188 0010 5962     		str	r1, [r3, #36]
 189              		.loc 1 119 0
 190 0012 FFF7FEBF 		b	chSchReadyI
 191              	.LVL15:
 192              	.L6:
 193              	.LBE106:
 194              		.loc 1 121 0
 195 0016 7047     		bx	lr
 196              		.cfi_endproc
 197              	.LFE221:
 198              		.size	chCondSignalI, .-chCondSignalI
 199              		.section	.text.chCondBroadcast,"ax",%progbits
 200              		.align	1
 201              		.p2align 4,,15
 202              		.global	chCondBroadcast
 203              		.syntax unified
 204              		.thumb
 205              		.thumb_func
 206              		.fpu fpv4-sp-d16
 207              		.type	chCondBroadcast, %function
 208              	chCondBroadcast:
 209              	.LFB222:
 210              		.loc 1 130 0
 211              		.cfi_startproc
 212              		@ args = 0, pretend = 0, frame = 0
 213              		@ frame_needed = 0, uses_anonymous_args = 0
 214              	.LVL16:
 215 0000 38B5     		push	{r3, r4, r5, lr}
 216              		.cfi_def_cfa_offset 16
 217              		.cfi_offset 3, -16
 218              		.cfi_offset 4, -12
 219              		.cfi_offset 5, -8
 220              		.cfi_offset 14, -4
 221              	.LBB111:
 222              	.LBB112:
 223              	.LBB113:
 224              	.LBB114:
 225              		.loc 3 546 0
 226 0002 2023     		movs	r3, #32
 227              		.syntax unified
 228              	@ 546 "ChibiOS_3.0.2/os/ext/CMSIS/include/core_cmFunc.h" 1
ARM GAS  /tmp/cc521pIj.s 			page 5


 229 0004 83F31188 		MSR basepri, r3
 230              	@ 0 "" 2
 231              	.LVL17:
 232              		.thumb
 233              		.syntax unified
 234              	.LBE114:
 235              	.LBE113:
 236              	.LBE112:
 237              	.LBE111:
 238              	.LBB115:
 239              	.LBB116:
 240              	.LBB117:
 241              	.LBB118:
 242              		.loc 2 631 0
 243 0008 0368     		ldr	r3, [r0]
 244              	.LVL18:
 245              	.LBE118:
 246              	.LBE117:
 247              		.loc 1 157 0
 248 000a 9842     		cmp	r0, r3
 249 000c 0CD0     		beq	.L9
 250 000e 0446     		mov	r4, r0
 251              		.loc 1 158 0
 252 0010 6FF00105 		mvn	r5, #1
 253              	.LVL19:
 254              	.L10:
 255              	.LBB120:
 256              	.LBB121:
 257              		.loc 2 674 0
 258 0014 1A68     		ldr	r2, [r3]
 259 0016 2260     		str	r2, [r4]
 260              	.LBE121:
 261              	.LBE120:
 262              		.loc 1 158 0
 263 0018 1846     		mov	r0, r3
 264              	.LBB123:
 265              	.LBB122:
 266              		.loc 2 675 0
 267 001a 5460     		str	r4, [r2, #4]
 268              	.LVL20:
 269              	.LBE122:
 270              	.LBE123:
 271              		.loc 1 158 0
 272 001c FFF7FEFF 		bl	chSchReadyI
 273              	.LVL21:
 274              	.LBB124:
 275              	.LBB119:
 276              		.loc 2 631 0
 277 0020 2368     		ldr	r3, [r4]
 278              	.LBE119:
 279              	.LBE124:
 280              		.loc 1 158 0
 281 0022 4562     		str	r5, [r0, #36]
 282              		.loc 1 157 0
 283 0024 A342     		cmp	r3, r4
 284 0026 F5D1     		bne	.L10
 285              	.LVL22:
ARM GAS  /tmp/cc521pIj.s 			page 6


 286              	.L9:
 287              	.LBE116:
 288              	.LBE115:
 289              		.loc 1 134 0
 290 0028 FFF7FEFF 		bl	chSchRescheduleS
 291              	.LVL23:
 292              	.LBB125:
 293              	.LBB126:
 294              	.LBB127:
 295              	.LBB128:
 296              	.LBB129:
 297              		.loc 3 546 0
 298 002c 0023     		movs	r3, #0
 299              		.syntax unified
 300              	@ 546 "ChibiOS_3.0.2/os/ext/CMSIS/include/core_cmFunc.h" 1
 301 002e 83F31188 		MSR basepri, r3
 302              	@ 0 "" 2
 303              	.LVL24:
 304              		.thumb
 305              		.syntax unified
 306              	.LBE129:
 307              	.LBE128:
 308              	.LBE127:
 309              	.LBE126:
 310              	.LBE125:
 311              		.loc 1 136 0
 312 0032 38BD     		pop	{r3, r4, r5, pc}
 313              		.cfi_endproc
 314              	.LFE222:
 315              		.size	chCondBroadcast, .-chCondBroadcast
 316              		.section	.text.chCondBroadcastI,"ax",%progbits
 317              		.align	1
 318              		.p2align 4,,15
 319              		.global	chCondBroadcastI
 320              		.syntax unified
 321              		.thumb
 322              		.thumb_func
 323              		.fpu fpv4-sp-d16
 324              		.type	chCondBroadcastI, %function
 325              	chCondBroadcastI:
 326              	.LFB223:
 327              		.loc 1 149 0
 328              		.cfi_startproc
 329              		@ args = 0, pretend = 0, frame = 0
 330              		@ frame_needed = 0, uses_anonymous_args = 0
 331              	.LVL25:
 332 0000 38B5     		push	{r3, r4, r5, lr}
 333              		.cfi_def_cfa_offset 16
 334              		.cfi_offset 3, -16
 335              		.cfi_offset 4, -12
 336              		.cfi_offset 5, -8
 337              		.cfi_offset 14, -4
 338              	.LBB130:
 339              	.LBB131:
 340              		.loc 2 631 0
 341 0002 0368     		ldr	r3, [r0]
 342              	.LVL26:
ARM GAS  /tmp/cc521pIj.s 			page 7


 343              	.LBE131:
 344              	.LBE130:
 345              		.loc 1 157 0
 346 0004 8342     		cmp	r3, r0
 347 0006 0CD0     		beq	.L13
 348 0008 0446     		mov	r4, r0
 349              		.loc 1 158 0
 350 000a 6FF00105 		mvn	r5, #1
 351              	.LVL27:
 352              	.L15:
 353              	.LBB133:
 354              	.LBB134:
 355              		.loc 2 674 0
 356 000e 1A68     		ldr	r2, [r3]
 357 0010 2260     		str	r2, [r4]
 358              	.LBE134:
 359              	.LBE133:
 360              		.loc 1 158 0
 361 0012 1846     		mov	r0, r3
 362              	.LBB136:
 363              	.LBB135:
 364              		.loc 2 675 0
 365 0014 5460     		str	r4, [r2, #4]
 366              	.LVL28:
 367              	.LBE135:
 368              	.LBE136:
 369              		.loc 1 158 0
 370 0016 FFF7FEFF 		bl	chSchReadyI
 371              	.LVL29:
 372              	.LBB137:
 373              	.LBB132:
 374              		.loc 2 631 0
 375 001a 2368     		ldr	r3, [r4]
 376              	.LBE132:
 377              	.LBE137:
 378              		.loc 1 158 0
 379 001c 4562     		str	r5, [r0, #36]
 380              		.loc 1 157 0
 381 001e A342     		cmp	r3, r4
 382 0020 F5D1     		bne	.L15
 383              	.LVL30:
 384              	.L13:
 385              		.loc 1 160 0
 386 0022 38BD     		pop	{r3, r4, r5, pc}
 387              		.cfi_endproc
 388              	.LFE223:
 389              		.size	chCondBroadcastI, .-chCondBroadcastI
 390              		.section	.text.chCondWaitS,"ax",%progbits
 391              		.align	1
 392              		.p2align 4,,15
 393              		.global	chCondWaitS
 394              		.syntax unified
 395              		.thumb
 396              		.thumb_func
 397              		.fpu fpv4-sp-d16
 398              		.type	chCondWaitS, %function
 399              	chCondWaitS:
ARM GAS  /tmp/cc521pIj.s 			page 8


 400              	.LFB225:
 401              		.loc 1 205 0
 402              		.cfi_startproc
 403              		@ args = 0, pretend = 0, frame = 0
 404              		@ frame_needed = 0, uses_anonymous_args = 0
 405              	.LVL31:
 406 0000 F8B5     		push	{r3, r4, r5, r6, r7, lr}
 407              		.cfi_def_cfa_offset 24
 408              		.cfi_offset 3, -24
 409              		.cfi_offset 4, -20
 410              		.cfi_offset 5, -16
 411              		.cfi_offset 6, -12
 412              		.cfi_offset 7, -8
 413              		.cfi_offset 14, -4
 414              		.loc 1 206 0
 415 0002 114B     		ldr	r3, .L25
 416 0004 9C69     		ldr	r4, [r3, #24]
 417              	.LVL32:
 418              	.LBB138:
 419              	.LBB139:
 420              		.file 4 "ChibiOS_3.0.2/os/rt/include/chmtx.h"
 421              		.loc 4 146 0
 422 0006 E76B     		ldr	r7, [r4, #60]
 423              	.LBE139:
 424              	.LBE138:
 425              		.loc 1 205 0
 426 0008 0546     		mov	r5, r0
 427              		.loc 1 216 0
 428 000a 3846     		mov	r0, r7
 429              	.LVL33:
 430 000c FFF7FEFF 		bl	chMtxUnlockS
 431              	.LVL34:
 432              		.loc 1 221 0
 433 0010 2E46     		mov	r6, r5
 434              	.LVL35:
 435              		.loc 1 220 0
 436 0012 6562     		str	r5, [r4, #36]
 437              		.loc 1 221 0
 438 0014 2B46     		mov	r3, r5
 439 0016 03E0     		b	.L20
 440              	.LVL36:
 441              	.L24:
 442              	.LBB140:
 443              	.LBB141:
 444              		.loc 2 656 0
 445 0018 9968     		ldr	r1, [r3, #8]
 446 001a A268     		ldr	r2, [r4, #8]
 447 001c 9142     		cmp	r1, r2
 448 001e 10D3     		bcc	.L23
 449              	.LVL37:
 450              	.L20:
 451              		.loc 2 655 0
 452 0020 1B68     		ldr	r3, [r3]
 453              	.LVL38:
 454              		.loc 2 656 0
 455 0022 9D42     		cmp	r5, r3
 456 0024 F8D1     		bne	.L24
ARM GAS  /tmp/cc521pIj.s 			page 9


 457              	.L19:
 458              		.loc 2 658 0
 459 0026 7368     		ldr	r3, [r6, #4]
 460              	.LVL39:
 461              	.LBE141:
 462              	.LBE140:
 463              		.loc 1 222 0
 464 0028 0720     		movs	r0, #7
 465              	.LBB144:
 466              	.LBB142:
 467              		.loc 2 658 0
 468 002a C4E90063 		strd	r6, r3, [r4]
 469              		.loc 2 659 0
 470 002e 1C60     		str	r4, [r3]
 471              		.loc 2 660 0
 472 0030 7460     		str	r4, [r6, #4]
 473              	.LVL40:
 474              	.LBE142:
 475              	.LBE144:
 476              		.loc 1 222 0
 477 0032 FFF7FEFF 		bl	chSchGoSleepS
 478              	.LVL41:
 479              		.loc 1 223 0
 480 0036 646A     		ldr	r4, [r4, #36]
 481              	.LVL42:
 482              		.loc 1 224 0
 483 0038 3846     		mov	r0, r7
 484 003a FFF7FEFF 		bl	chMtxLockS
 485              	.LVL43:
 486              		.loc 1 227 0
 487 003e 2046     		mov	r0, r4
 488 0040 F8BD     		pop	{r3, r4, r5, r6, r7, pc}
 489              	.LVL44:
 490              	.L23:
 491              	.LBB145:
 492              	.LBB143:
 493              		.loc 2 655 0
 494 0042 1E46     		mov	r6, r3
 495 0044 EFE7     		b	.L19
 496              	.L26:
 497 0046 00BF     		.align	2
 498              	.L25:
 499 0048 00000000 		.word	ch
 500              	.LBE143:
 501              	.LBE145:
 502              		.cfi_endproc
 503              	.LFE225:
 504              		.size	chCondWaitS, .-chCondWaitS
 505              		.section	.text.chCondWait,"ax",%progbits
 506              		.align	1
 507              		.p2align 4,,15
 508              		.global	chCondWait
 509              		.syntax unified
 510              		.thumb
 511              		.thumb_func
 512              		.fpu fpv4-sp-d16
 513              		.type	chCondWait, %function
ARM GAS  /tmp/cc521pIj.s 			page 10


 514              	chCondWait:
 515              	.LFB224:
 516              		.loc 1 179 0
 517              		.cfi_startproc
 518              		@ args = 0, pretend = 0, frame = 0
 519              		@ frame_needed = 0, uses_anonymous_args = 0
 520              	.LVL45:
 521 0000 08B5     		push	{r3, lr}
 522              		.cfi_def_cfa_offset 8
 523              		.cfi_offset 3, -8
 524              		.cfi_offset 14, -4
 525              	.LBB146:
 526              	.LBB147:
 527              	.LBB148:
 528              	.LBB149:
 529              		.loc 3 546 0
 530 0002 2023     		movs	r3, #32
 531              		.syntax unified
 532              	@ 546 "ChibiOS_3.0.2/os/ext/CMSIS/include/core_cmFunc.h" 1
 533 0004 83F31188 		MSR basepri, r3
 534              	@ 0 "" 2
 535              	.LVL46:
 536              		.thumb
 537              		.syntax unified
 538              	.LBE149:
 539              	.LBE148:
 540              	.LBE147:
 541              	.LBE146:
 542              		.loc 1 183 0
 543 0008 FFF7FEFF 		bl	chCondWaitS
 544              	.LVL47:
 545              	.LBB150:
 546              	.LBB151:
 547              	.LBB152:
 548              	.LBB153:
 549              	.LBB154:
 550              		.loc 3 546 0
 551 000c 0023     		movs	r3, #0
 552              		.syntax unified
 553              	@ 546 "ChibiOS_3.0.2/os/ext/CMSIS/include/core_cmFunc.h" 1
 554 000e 83F31188 		MSR basepri, r3
 555              	@ 0 "" 2
 556              	.LVL48:
 557              		.thumb
 558              		.syntax unified
 559              	.LBE154:
 560              	.LBE153:
 561              	.LBE152:
 562              	.LBE151:
 563              	.LBE150:
 564              		.loc 1 186 0
 565 0012 08BD     		pop	{r3, pc}
 566              		.cfi_endproc
 567              	.LFE224:
 568              		.size	chCondWait, .-chCondWait
 569              		.section	.text.chCondWaitTimeoutS,"ax",%progbits
 570              		.align	1
ARM GAS  /tmp/cc521pIj.s 			page 11


 571              		.p2align 4,,15
 572              		.global	chCondWaitTimeoutS
 573              		.syntax unified
 574              		.thumb
 575              		.thumb_func
 576              		.fpu fpv4-sp-d16
 577              		.type	chCondWaitTimeoutS, %function
 578              	chCondWaitTimeoutS:
 579              	.LFB227:
 580              		.loc 1 296 0
 581              		.cfi_startproc
 582              		@ args = 0, pretend = 0, frame = 0
 583              		@ frame_needed = 0, uses_anonymous_args = 0
 584              	.LVL49:
 585 0000 2DE9F041 		push	{r4, r5, r6, r7, r8, lr}
 586              		.cfi_def_cfa_offset 24
 587              		.cfi_offset 4, -24
 588              		.cfi_offset 5, -20
 589              		.cfi_offset 6, -16
 590              		.cfi_offset 7, -12
 591              		.cfi_offset 8, -8
 592              		.cfi_offset 14, -4
 593              	.LBB155:
 594              	.LBB156:
 595              	.LBB157:
 596              	.LBB158:
 597              		.file 5 "ChibiOS_3.0.2/os/rt/include/chthreads.h"
 598              		.loc 5 176 0
 599 0004 134C     		ldr	r4, .L40
 600              	.LBE158:
 601              	.LBE157:
 602              		.loc 4 146 0
 603 0006 A369     		ldr	r3, [r4, #24]
 604 0008 DF6B     		ldr	r7, [r3, #60]
 605              	.LBE156:
 606              	.LBE155:
 607              		.loc 1 296 0
 608 000a 0546     		mov	r5, r0
 609              		.loc 1 306 0
 610 000c 3846     		mov	r0, r7
 611              	.LVL50:
 612              		.loc 1 296 0
 613 000e 8846     		mov	r8, r1
 614              		.loc 1 306 0
 615 0010 FFF7FEFF 		bl	chMtxUnlockS
 616              	.LVL51:
 617              		.loc 1 310 0
 618 0014 A469     		ldr	r4, [r4, #24]
 619              		.loc 1 311 0
 620 0016 2E46     		mov	r6, r5
 621              	.LVL52:
 622              		.loc 1 310 0
 623 0018 6562     		str	r5, [r4, #36]
 624              		.loc 1 311 0
 625 001a 2B46     		mov	r3, r5
 626 001c 03E0     		b	.L31
 627              	.LVL53:
ARM GAS  /tmp/cc521pIj.s 			page 12


 628              	.L39:
 629              	.LBB159:
 630              	.LBB160:
 631              		.loc 2 656 0
 632 001e 9868     		ldr	r0, [r3, #8]
 633 0020 A268     		ldr	r2, [r4, #8]
 634 0022 9042     		cmp	r0, r2
 635 0024 14D3     		bcc	.L38
 636              	.LVL54:
 637              	.L31:
 638              		.loc 2 655 0
 639 0026 1B68     		ldr	r3, [r3]
 640              	.LVL55:
 641              		.loc 2 656 0
 642 0028 9D42     		cmp	r5, r3
 643 002a F8D1     		bne	.L39
 644              	.L30:
 645              		.loc 2 658 0
 646 002c 7368     		ldr	r3, [r6, #4]
 647              	.LVL56:
 648 002e 6360     		str	r3, [r4, #4]
 649              		.loc 2 657 0
 650 0030 2660     		str	r6, [r4]
 651              	.LBE160:
 652              	.LBE159:
 653              		.loc 1 312 0
 654 0032 4146     		mov	r1, r8
 655              	.LBB164:
 656              	.LBB161:
 657              		.loc 2 659 0
 658 0034 1C60     		str	r4, [r3]
 659              	.LBE161:
 660              	.LBE164:
 661              		.loc 1 312 0
 662 0036 0720     		movs	r0, #7
 663              	.LBB165:
 664              	.LBB162:
 665              		.loc 2 660 0
 666 0038 7460     		str	r4, [r6, #4]
 667              	.LVL57:
 668              	.LBE162:
 669              	.LBE165:
 670              		.loc 1 312 0
 671 003a FFF7FEFF 		bl	chSchGoSleepTimeoutS
 672              	.LVL58:
 673              		.loc 1 313 0
 674 003e 431C     		adds	r3, r0, #1
 675              		.loc 1 312 0
 676 0040 0446     		mov	r4, r0
 677              	.LVL59:
 678              		.loc 1 313 0
 679 0042 02D0     		beq	.L29
 680              		.loc 1 314 0
 681 0044 3846     		mov	r0, r7
 682              	.LVL60:
 683 0046 FFF7FEFF 		bl	chMtxLockS
 684              	.LVL61:
ARM GAS  /tmp/cc521pIj.s 			page 13


 685              	.L29:
 686              		.loc 1 318 0
 687 004a 2046     		mov	r0, r4
 688 004c BDE8F081 		pop	{r4, r5, r6, r7, r8, pc}
 689              	.LVL62:
 690              	.L38:
 691              	.LBB166:
 692              	.LBB163:
 693              		.loc 2 655 0
 694 0050 1E46     		mov	r6, r3
 695 0052 EBE7     		b	.L30
 696              	.L41:
 697              		.align	2
 698              	.L40:
 699 0054 00000000 		.word	ch
 700              	.LBE163:
 701              	.LBE166:
 702              		.cfi_endproc
 703              	.LFE227:
 704              		.size	chCondWaitTimeoutS, .-chCondWaitTimeoutS
 705              		.section	.text.chCondWaitTimeout,"ax",%progbits
 706              		.align	1
 707              		.p2align 4,,15
 708              		.global	chCondWaitTimeout
 709              		.syntax unified
 710              		.thumb
 711              		.thumb_func
 712              		.fpu fpv4-sp-d16
 713              		.type	chCondWaitTimeout, %function
 714              	chCondWaitTimeout:
 715              	.LFB226:
 716              		.loc 1 258 0
 717              		.cfi_startproc
 718              		@ args = 0, pretend = 0, frame = 0
 719              		@ frame_needed = 0, uses_anonymous_args = 0
 720              	.LVL63:
 721 0000 08B5     		push	{r3, lr}
 722              		.cfi_def_cfa_offset 8
 723              		.cfi_offset 3, -8
 724              		.cfi_offset 14, -4
 725              	.LBB167:
 726              	.LBB168:
 727              	.LBB169:
 728              	.LBB170:
 729              		.loc 3 546 0
 730 0002 2023     		movs	r3, #32
 731              		.syntax unified
 732              	@ 546 "ChibiOS_3.0.2/os/ext/CMSIS/include/core_cmFunc.h" 1
 733 0004 83F31188 		MSR basepri, r3
 734              	@ 0 "" 2
 735              	.LVL64:
 736              		.thumb
 737              		.syntax unified
 738              	.LBE170:
 739              	.LBE169:
 740              	.LBE168:
 741              	.LBE167:
ARM GAS  /tmp/cc521pIj.s 			page 14


 742              		.loc 1 262 0
 743 0008 FFF7FEFF 		bl	chCondWaitTimeoutS
 744              	.LVL65:
 745              	.LBB171:
 746              	.LBB172:
 747              	.LBB173:
 748              	.LBB174:
 749              	.LBB175:
 750              		.loc 3 546 0
 751 000c 0023     		movs	r3, #0
 752              		.syntax unified
 753              	@ 546 "ChibiOS_3.0.2/os/ext/CMSIS/include/core_cmFunc.h" 1
 754 000e 83F31188 		MSR basepri, r3
 755              	@ 0 "" 2
 756              	.LVL66:
 757              		.thumb
 758              		.syntax unified
 759              	.LBE175:
 760              	.LBE174:
 761              	.LBE173:
 762              	.LBE172:
 763              	.LBE171:
 764              		.loc 1 266 0
 765 0012 08BD     		pop	{r3, pc}
 766              		.cfi_endproc
 767              	.LFE226:
 768              		.size	chCondWaitTimeout, .-chCondWaitTimeout
 769              		.text
 770              	.Letext0:
 771              		.file 6 "/usr/arm-none-eabi/include/machine/_default_types.h"
 772              		.file 7 "/usr/arm-none-eabi/include/sys/_stdint.h"
 773              		.file 8 "ChibiOS_3.0.2/os/rt/ports/ARMCMx/compilers/GCC/chtypes.h"
 774              		.file 9 "ChibiOS_3.0.2/os/rt/include/chsystypes.h"
 775              		.file 10 "ChibiOS_3.0.2/os/ext/CMSIS/include/core_cm4.h"
 776              		.file 11 "ChibiOS_3.0.2/os/ext/CMSIS/ST/system_stm32f4xx.h"
 777              		.file 12 "ChibiOS_3.0.2/os/rt/ports/ARMCMx/chcore.h"
 778              		.file 13 "ChibiOS_3.0.2/os/rt/ports/ARMCMx/chcore_v7m.h"
 779              		.file 14 "ChibiOS_3.0.2/os/rt/include/chtm.h"
 780              		.file 15 "ChibiOS_3.0.2/os/rt/include/chsem.h"
 781              		.file 16 "ChibiOS_3.0.2/os/rt/include/chregistry.h"
 782              		.file 17 "ChibiOS_3.0.2/os/rt/include/chcond.h"
 783              		.file 18 "ChibiOS_3.0.2/os/rt/include/chsys.h"
 784              		.section	.debug_info,"",%progbits
 785              	.Ldebug_info0:
 786 0000 5F110000 		.4byte	0x115f
 787 0004 0400     		.2byte	0x4
 788 0006 00000000 		.4byte	.Ldebug_abbrev0
 789 000a 04       		.byte	0x4
 790 000b 01       		.uleb128 0x1
 791 000c 6F000000 		.4byte	.LASF161
 792 0010 0C       		.byte	0xc
 793 0011 0A020000 		.4byte	.LASF162
 794 0015 32060000 		.4byte	.LASF163
 795 0019 C0000000 		.4byte	.Ldebug_ranges0+0xc0
 796 001d 00000000 		.4byte	0
 797 0021 00000000 		.4byte	.Ldebug_line0
 798 0025 02       		.uleb128 0x2
ARM GAS  /tmp/cc521pIj.s 			page 15


 799 0026 04       		.byte	0x4
 800 0027 05       		.byte	0x5
 801 0028 696E7400 		.ascii	"int\000"
 802 002c 03       		.uleb128 0x3
 803 002d 04       		.byte	0x4
 804 002e 07       		.byte	0x7
 805 002f 91030000 		.4byte	.LASF0
 806 0033 03       		.uleb128 0x3
 807 0034 01       		.byte	0x1
 808 0035 06       		.byte	0x6
 809 0036 5E020000 		.4byte	.LASF1
 810 003a 04       		.uleb128 0x4
 811 003b 3F000000 		.4byte	.LASF4
 812 003f 06       		.byte	0x6
 813 0040 2B       		.byte	0x2b
 814 0041 45000000 		.4byte	0x45
 815 0045 03       		.uleb128 0x3
 816 0046 01       		.byte	0x1
 817 0047 08       		.byte	0x8
 818 0048 96050000 		.4byte	.LASF2
 819 004c 03       		.uleb128 0x3
 820 004d 02       		.byte	0x2
 821 004e 05       		.byte	0x5
 822 004f AE050000 		.4byte	.LASF3
 823 0053 04       		.uleb128 0x4
 824 0054 E9060000 		.4byte	.LASF5
 825 0058 06       		.byte	0x6
 826 0059 39       		.byte	0x39
 827 005a 5E000000 		.4byte	0x5e
 828 005e 03       		.uleb128 0x3
 829 005f 02       		.byte	0x2
 830 0060 07       		.byte	0x7
 831 0061 F0030000 		.4byte	.LASF6
 832 0065 04       		.uleb128 0x4
 833 0066 52040000 		.4byte	.LASF7
 834 006a 06       		.byte	0x6
 835 006b 4D       		.byte	0x4d
 836 006c 70000000 		.4byte	0x70
 837 0070 03       		.uleb128 0x3
 838 0071 04       		.byte	0x4
 839 0072 05       		.byte	0x5
 840 0073 D3020000 		.4byte	.LASF8
 841 0077 04       		.uleb128 0x4
 842 0078 35070000 		.4byte	.LASF9
 843 007c 06       		.byte	0x6
 844 007d 4F       		.byte	0x4f
 845 007e 82000000 		.4byte	0x82
 846 0082 03       		.uleb128 0x3
 847 0083 04       		.byte	0x4
 848 0084 07       		.byte	0x7
 849 0085 CB060000 		.4byte	.LASF10
 850 0089 03       		.uleb128 0x3
 851 008a 08       		.byte	0x8
 852 008b 05       		.byte	0x5
 853 008c 50020000 		.4byte	.LASF11
 854 0090 04       		.uleb128 0x4
 855 0091 3D050000 		.4byte	.LASF12
ARM GAS  /tmp/cc521pIj.s 			page 16


 856 0095 06       		.byte	0x6
 857 0096 69       		.byte	0x69
 858 0097 9B000000 		.4byte	0x9b
 859 009b 03       		.uleb128 0x3
 860 009c 08       		.byte	0x8
 861 009d 07       		.byte	0x7
 862 009e AE010000 		.4byte	.LASF13
 863 00a2 04       		.uleb128 0x4
 864 00a3 B7070000 		.4byte	.LASF14
 865 00a7 07       		.byte	0x7
 866 00a8 18       		.byte	0x18
 867 00a9 3A000000 		.4byte	0x3a
 868 00ad 04       		.uleb128 0x4
 869 00ae A6030000 		.4byte	.LASF15
 870 00b2 07       		.byte	0x7
 871 00b3 24       		.byte	0x24
 872 00b4 53000000 		.4byte	0x53
 873 00b8 04       		.uleb128 0x4
 874 00b9 8E050000 		.4byte	.LASF16
 875 00bd 07       		.byte	0x7
 876 00be 2C       		.byte	0x2c
 877 00bf 65000000 		.4byte	0x65
 878 00c3 05       		.uleb128 0x5
 879 00c4 B8000000 		.4byte	0xb8
 880 00c8 04       		.uleb128 0x4
 881 00c9 8A060000 		.4byte	.LASF17
 882 00cd 07       		.byte	0x7
 883 00ce 30       		.byte	0x30
 884 00cf 77000000 		.4byte	0x77
 885 00d3 04       		.uleb128 0x4
 886 00d4 36000000 		.4byte	.LASF18
 887 00d8 07       		.byte	0x7
 888 00d9 3C       		.byte	0x3c
 889 00da 90000000 		.4byte	0x90
 890 00de 04       		.uleb128 0x4
 891 00df 8D040000 		.4byte	.LASF19
 892 00e3 08       		.byte	0x8
 893 00e4 45       		.byte	0x45
 894 00e5 C8000000 		.4byte	0xc8
 895 00e9 04       		.uleb128 0x4
 896 00ea DF050000 		.4byte	.LASF20
 897 00ee 08       		.byte	0x8
 898 00ef 48       		.byte	0x48
 899 00f0 A2000000 		.4byte	0xa2
 900 00f4 04       		.uleb128 0x4
 901 00f5 E8020000 		.4byte	.LASF21
 902 00f9 08       		.byte	0x8
 903 00fa 49       		.byte	0x49
 904 00fb A2000000 		.4byte	0xa2
 905 00ff 04       		.uleb128 0x4
 906 0100 48050000 		.4byte	.LASF22
 907 0104 08       		.byte	0x8
 908 0105 4A       		.byte	0x4a
 909 0106 A2000000 		.4byte	0xa2
 910 010a 04       		.uleb128 0x4
 911 010b BF020000 		.4byte	.LASF23
 912 010f 08       		.byte	0x8
ARM GAS  /tmp/cc521pIj.s 			page 17


 913 0110 4B       		.byte	0x4b
 914 0111 A2000000 		.4byte	0xa2
 915 0115 04       		.uleb128 0x4
 916 0116 72050000 		.4byte	.LASF24
 917 011a 08       		.byte	0x8
 918 011b 4C       		.byte	0x4c
 919 011c C8000000 		.4byte	0xc8
 920 0120 04       		.uleb128 0x4
 921 0121 1A040000 		.4byte	.LASF25
 922 0125 08       		.byte	0x8
 923 0126 4D       		.byte	0x4d
 924 0127 B8000000 		.4byte	0xb8
 925 012b 04       		.uleb128 0x4
 926 012c 46040000 		.4byte	.LASF26
 927 0130 08       		.byte	0x8
 928 0131 4F       		.byte	0x4f
 929 0132 C8000000 		.4byte	0xc8
 930 0136 04       		.uleb128 0x4
 931 0137 7E030000 		.4byte	.LASF27
 932 013b 08       		.byte	0x8
 933 013c 51       		.byte	0x51
 934 013d B8000000 		.4byte	0xb8
 935 0141 04       		.uleb128 0x4
 936 0142 17070000 		.4byte	.LASF28
 937 0146 09       		.byte	0x9
 938 0147 33       		.byte	0x33
 939 0148 C8000000 		.4byte	0xc8
 940 014c 05       		.uleb128 0x5
 941 014d 41010000 		.4byte	0x141
 942 0151 04       		.uleb128 0x4
 943 0152 9A070000 		.4byte	.LASF29
 944 0156 09       		.byte	0x9
 945 0157 3F       		.byte	0x3f
 946 0158 5C010000 		.4byte	0x15c
 947 015c 06       		.uleb128 0x6
 948 015d 03040000 		.4byte	.LASF51
 949 0161 48       		.byte	0x48
 950 0162 02       		.byte	0x2
 951 0163 C2       		.byte	0xc2
 952 0164 61020000 		.4byte	0x261
 953 0168 07       		.uleb128 0x7
 954 0169 D8050000 		.4byte	.LASF30
 955 016d 02       		.byte	0x2
 956 016e C3       		.byte	0xc3
 957 016f 6C020000 		.4byte	0x26c
 958 0173 00       		.byte	0
 959 0174 07       		.uleb128 0x7
 960 0175 6B050000 		.4byte	.LASF31
 961 0179 02       		.byte	0x2
 962 017a C5       		.byte	0xc5
 963 017b 6C020000 		.4byte	0x26c
 964 017f 04       		.byte	0x4
 965 0180 07       		.uleb128 0x7
 966 0181 3C020000 		.4byte	.LASF32
 967 0185 02       		.byte	0x2
 968 0186 C7       		.byte	0xc7
 969 0187 15010000 		.4byte	0x115
ARM GAS  /tmp/cc521pIj.s 			page 18


 970 018b 08       		.byte	0x8
 971 018c 07       		.uleb128 0x7
 972 018d F8040000 		.4byte	.LASF33
 973 0191 02       		.byte	0x2
 974 0192 C8       		.byte	0xc8
 975 0193 B1040000 		.4byte	0x4b1
 976 0197 0C       		.byte	0xc
 977 0198 07       		.uleb128 0x7
 978 0199 0A030000 		.4byte	.LASF34
 979 019d 02       		.byte	0x2
 980 019e CA       		.byte	0xca
 981 019f 6C020000 		.4byte	0x26c
 982 01a3 10       		.byte	0x10
 983 01a4 07       		.uleb128 0x7
 984 01a5 EA040000 		.4byte	.LASF35
 985 01a9 02       		.byte	0x2
 986 01aa CB       		.byte	0xcb
 987 01ab 6C020000 		.4byte	0x26c
 988 01af 14       		.byte	0x14
 989 01b0 07       		.uleb128 0x7
 990 01b1 E6070000 		.4byte	.LASF36
 991 01b5 02       		.byte	0x2
 992 01b6 D2       		.byte	0xd2
 993 01b7 F6060000 		.4byte	0x6f6
 994 01bb 18       		.byte	0x18
 995 01bc 07       		.uleb128 0x7
 996 01bd B8050000 		.4byte	.LASF37
 997 01c1 02       		.byte	0x2
 998 01c2 DD       		.byte	0xdd
 999 01c3 F4000000 		.4byte	0xf4
 1000 01c7 1C       		.byte	0x1c
 1001 01c8 07       		.uleb128 0x7
 1002 01c9 F6050000 		.4byte	.LASF38
 1003 01cd 02       		.byte	0x2
 1004 01ce E1       		.byte	0xe1
 1005 01cf E9000000 		.4byte	0xe9
 1006 01d3 1D       		.byte	0x1d
 1007 01d4 07       		.uleb128 0x7
 1008 01d5 93070000 		.4byte	.LASF39
 1009 01d9 02       		.byte	0x2
 1010 01da E6       		.byte	0xe6
 1011 01db FF000000 		.4byte	0xff
 1012 01df 1E       		.byte	0x1e
 1013 01e0 07       		.uleb128 0x7
 1014 01e1 C0050000 		.4byte	.LASF40
 1015 01e5 02       		.byte	0x2
 1016 01e6 EC       		.byte	0xec
 1017 01e7 0A010000 		.4byte	0x10a
 1018 01eb 1F       		.byte	0x1f
 1019 01ec 07       		.uleb128 0x7
 1020 01ed BF030000 		.4byte	.LASF41
 1021 01f1 02       		.byte	0x2
 1022 01f2 F3       		.byte	0xf3
 1023 01f3 4C010000 		.4byte	0x14c
 1024 01f7 20       		.byte	0x20
 1025 01f8 08       		.uleb128 0x8
 1026 01f9 705F7500 		.ascii	"p_u\000"
ARM GAS  /tmp/cc521pIj.s 			page 19


 1027 01fd 02       		.byte	0x2
 1028 01fe 3101     		.2byte	0x131
 1029 0200 31060000 		.4byte	0x631
 1030 0204 24       		.byte	0x24
 1031 0205 09       		.uleb128 0x9
 1032 0206 83040000 		.4byte	.LASF42
 1033 020a 02       		.byte	0x2
 1034 020b 3601     		.2byte	0x136
 1035 020d 72020000 		.4byte	0x272
 1036 0211 28       		.byte	0x28
 1037 0212 09       		.uleb128 0x9
 1038 0213 D6030000 		.4byte	.LASF43
 1039 0217 02       		.byte	0x2
 1040 0218 3C01     		.2byte	0x13c
 1041 021a 96020000 		.4byte	0x296
 1042 021e 2C       		.byte	0x2c
 1043 021f 09       		.uleb128 0x9
 1044 0220 67070000 		.4byte	.LASF44
 1045 0224 02       		.byte	0x2
 1046 0225 4001     		.2byte	0x140
 1047 0227 20010000 		.4byte	0x120
 1048 022b 34       		.byte	0x34
 1049 022c 09       		.uleb128 0x9
 1050 022d 6C060000 		.4byte	.LASF45
 1051 0231 02       		.byte	0x2
 1052 0232 4601     		.2byte	0x146
 1053 0234 2B010000 		.4byte	0x12b
 1054 0238 38       		.byte	0x38
 1055 0239 09       		.uleb128 0x9
 1056 023a A4050000 		.4byte	.LASF46
 1057 023e 02       		.byte	0x2
 1058 023f 4D01     		.2byte	0x14d
 1059 0241 F0060000 		.4byte	0x6f0
 1060 0245 3C       		.byte	0x3c
 1061 0246 09       		.uleb128 0x9
 1062 0247 21070000 		.4byte	.LASF47
 1063 024b 02       		.byte	0x2
 1064 024c 5101     		.2byte	0x151
 1065 024e 15010000 		.4byte	0x115
 1066 0252 40       		.byte	0x40
 1067 0253 09       		.uleb128 0x9
 1068 0254 9C020000 		.4byte	.LASF48
 1069 0258 02       		.byte	0x2
 1070 0259 5801     		.2byte	0x158
 1071 025b 4E030000 		.4byte	0x34e
 1072 025f 44       		.byte	0x44
 1073 0260 00       		.byte	0
 1074 0261 04       		.uleb128 0x4
 1075 0262 BF070000 		.4byte	.LASF49
 1076 0266 09       		.byte	0x9
 1077 0267 44       		.byte	0x44
 1078 0268 6C020000 		.4byte	0x26c
 1079 026c 0A       		.uleb128 0xa
 1080 026d 04       		.byte	0x4
 1081 026e 51010000 		.4byte	0x151
 1082 0272 04       		.uleb128 0x4
 1083 0273 00000000 		.4byte	.LASF50
ARM GAS  /tmp/cc521pIj.s 			page 20


 1084 0277 09       		.byte	0x9
 1085 0278 49       		.byte	0x49
 1086 0279 7D020000 		.4byte	0x27d
 1087 027d 06       		.uleb128 0x6
 1088 027e B3060000 		.4byte	.LASF52
 1089 0282 04       		.byte	0x4
 1090 0283 02       		.byte	0x2
 1091 0284 B0       		.byte	0xb0
 1092 0285 96020000 		.4byte	0x296
 1093 0289 07       		.uleb128 0x7
 1094 028a D8050000 		.4byte	.LASF30
 1095 028e 02       		.byte	0x2
 1096 028f B1       		.byte	0xb1
 1097 0290 6C020000 		.4byte	0x26c
 1098 0294 00       		.byte	0
 1099 0295 00       		.byte	0
 1100 0296 04       		.uleb128 0x4
 1101 0297 11060000 		.4byte	.LASF53
 1102 029b 09       		.byte	0x9
 1103 029c 50       		.byte	0x50
 1104 029d A6020000 		.4byte	0x2a6
 1105 02a1 0B       		.uleb128 0xb
 1106 02a2 96020000 		.4byte	0x296
 1107 02a6 06       		.uleb128 0x6
 1108 02a7 2B020000 		.4byte	.LASF54
 1109 02ab 08       		.byte	0x8
 1110 02ac 02       		.byte	0x2
 1111 02ad B7       		.byte	0xb7
 1112 02ae CB020000 		.4byte	0x2cb
 1113 02b2 07       		.uleb128 0x7
 1114 02b3 D8050000 		.4byte	.LASF30
 1115 02b7 02       		.byte	0x2
 1116 02b8 B8       		.byte	0xb8
 1117 02b9 6C020000 		.4byte	0x26c
 1118 02bd 00       		.byte	0
 1119 02be 07       		.uleb128 0x7
 1120 02bf 6B050000 		.4byte	.LASF31
 1121 02c3 02       		.byte	0x2
 1122 02c4 B9       		.byte	0xb9
 1123 02c5 6C020000 		.4byte	0x26c
 1124 02c9 04       		.byte	0x4
 1125 02ca 00       		.byte	0
 1126 02cb 04       		.uleb128 0x4
 1127 02cc 1C000000 		.4byte	.LASF55
 1128 02d0 09       		.byte	0x9
 1129 02d1 57       		.byte	0x57
 1130 02d2 D6020000 		.4byte	0x2d6
 1131 02d6 0C       		.uleb128 0xc
 1132 02d7 38040000 		.4byte	.LASF56
 1133 02db 1C       		.byte	0x1c
 1134 02dc 02       		.byte	0x2
 1135 02dd 9001     		.2byte	0x190
 1136 02df 32030000 		.4byte	0x332
 1137 02e3 09       		.uleb128 0x9
 1138 02e4 9F060000 		.4byte	.LASF57
 1139 02e8 02       		.byte	0x2
 1140 02e9 9101     		.2byte	0x191
ARM GAS  /tmp/cc521pIj.s 			page 21


 1141 02eb 96020000 		.4byte	0x296
 1142 02ef 00       		.byte	0
 1143 02f0 09       		.uleb128 0x9
 1144 02f1 CA050000 		.4byte	.LASF58
 1145 02f5 02       		.byte	0x2
 1146 02f6 9201     		.2byte	0x192
 1147 02f8 15010000 		.4byte	0x115
 1148 02fc 08       		.byte	0x8
 1149 02fd 09       		.uleb128 0x9
 1150 02fe F2040000 		.4byte	.LASF59
 1151 0302 02       		.byte	0x2
 1152 0303 9401     		.2byte	0x194
 1153 0305 B1040000 		.4byte	0x4b1
 1154 0309 0C       		.byte	0xc
 1155 030a 09       		.uleb128 0x9
 1156 030b 2B030000 		.4byte	.LASF60
 1157 030f 02       		.byte	0x2
 1158 0310 9701     		.2byte	0x197
 1159 0312 6C020000 		.4byte	0x26c
 1160 0316 10       		.byte	0x10
 1161 0317 09       		.uleb128 0x9
 1162 0318 25050000 		.4byte	.LASF61
 1163 031c 02       		.byte	0x2
 1164 031d 9801     		.2byte	0x198
 1165 031f 6C020000 		.4byte	0x26c
 1166 0323 14       		.byte	0x14
 1167 0324 09       		.uleb128 0x9
 1168 0325 1B050000 		.4byte	.LASF62
 1169 0329 02       		.byte	0x2
 1170 032a 9B01     		.2byte	0x19b
 1171 032c 6C020000 		.4byte	0x26c
 1172 0330 18       		.byte	0x18
 1173 0331 00       		.byte	0
 1174 0332 04       		.uleb128 0x4
 1175 0333 2C070000 		.4byte	.LASF63
 1176 0337 09       		.byte	0x9
 1177 0338 5C       		.byte	0x5c
 1178 0339 3D030000 		.4byte	0x33d
 1179 033d 0A       		.uleb128 0xa
 1180 033e 04       		.byte	0x4
 1181 033f 43030000 		.4byte	0x343
 1182 0343 0D       		.uleb128 0xd
 1183 0344 4E030000 		.4byte	0x34e
 1184 0348 0E       		.uleb128 0xe
 1185 0349 4E030000 		.4byte	0x34e
 1186 034d 00       		.byte	0
 1187 034e 0F       		.uleb128 0xf
 1188 034f 04       		.byte	0x4
 1189 0350 04       		.uleb128 0x4
 1190 0351 5B050000 		.4byte	.LASF64
 1191 0355 09       		.byte	0x9
 1192 0356 61       		.byte	0x61
 1193 0357 5B030000 		.4byte	0x35b
 1194 035b 0C       		.uleb128 0xc
 1195 035c 21060000 		.4byte	.LASF65
 1196 0360 14       		.byte	0x14
 1197 0361 02       		.byte	0x2
ARM GAS  /tmp/cc521pIj.s 			page 22


 1198 0362 6B01     		.2byte	0x16b
 1199 0364 AA030000 		.4byte	0x3aa
 1200 0368 09       		.uleb128 0x9
 1201 0369 9E030000 		.4byte	.LASF66
 1202 036d 02       		.byte	0x2
 1203 036e 6C01     		.2byte	0x16c
 1204 0370 0D070000 		.4byte	0x70d
 1205 0374 00       		.byte	0
 1206 0375 09       		.uleb128 0x9
 1207 0376 3C030000 		.4byte	.LASF67
 1208 037a 02       		.byte	0x2
 1209 037b 6D01     		.2byte	0x16d
 1210 037d 0D070000 		.4byte	0x70d
 1211 0381 04       		.byte	0x4
 1212 0382 09       		.uleb128 0x9
 1213 0383 CD030000 		.4byte	.LASF68
 1214 0387 02       		.byte	0x2
 1215 0388 6E01     		.2byte	0x16e
 1216 038a 41010000 		.4byte	0x141
 1217 038e 08       		.byte	0x8
 1218 038f 09       		.uleb128 0x9
 1219 0390 69080000 		.4byte	.LASF69
 1220 0394 02       		.byte	0x2
 1221 0395 6F01     		.2byte	0x16f
 1222 0397 32030000 		.4byte	0x332
 1223 039b 0C       		.byte	0xc
 1224 039c 09       		.uleb128 0x9
 1225 039d 78070000 		.4byte	.LASF70
 1226 03a1 02       		.byte	0x2
 1227 03a2 7101     		.2byte	0x171
 1228 03a4 4E030000 		.4byte	0x34e
 1229 03a8 10       		.byte	0x10
 1230 03a9 00       		.byte	0
 1231 03aa 04       		.uleb128 0x4
 1232 03ab E7010000 		.4byte	.LASF71
 1233 03af 09       		.byte	0x9
 1234 03b0 66       		.byte	0x66
 1235 03b1 B5030000 		.4byte	0x3b5
 1236 03b5 0C       		.uleb128 0xc
 1237 03b6 95040000 		.4byte	.LASF72
 1238 03ba 10       		.byte	0x10
 1239 03bb 02       		.byte	0x2
 1240 03bc 7B01     		.2byte	0x17b
 1241 03be F7030000 		.4byte	0x3f7
 1242 03c2 09       		.uleb128 0x9
 1243 03c3 9E030000 		.4byte	.LASF66
 1244 03c7 02       		.byte	0x2
 1245 03c8 7C01     		.2byte	0x17c
 1246 03ca 0D070000 		.4byte	0x70d
 1247 03ce 00       		.byte	0
 1248 03cf 09       		.uleb128 0x9
 1249 03d0 3C030000 		.4byte	.LASF67
 1250 03d4 02       		.byte	0x2
 1251 03d5 7E01     		.2byte	0x17e
 1252 03d7 0D070000 		.4byte	0x70d
 1253 03db 04       		.byte	0x4
 1254 03dc 09       		.uleb128 0x9
ARM GAS  /tmp/cc521pIj.s 			page 23


 1255 03dd CD030000 		.4byte	.LASF68
 1256 03e1 02       		.byte	0x2
 1257 03e2 8001     		.2byte	0x180
 1258 03e4 41010000 		.4byte	0x141
 1259 03e8 08       		.byte	0x8
 1260 03e9 09       		.uleb128 0x9
 1261 03ea FF070000 		.4byte	.LASF73
 1262 03ee 02       		.byte	0x2
 1263 03ef 8201     		.2byte	0x182
 1264 03f1 4C010000 		.4byte	0x14c
 1265 03f5 0C       		.byte	0xc
 1266 03f6 00       		.byte	0
 1267 03f7 04       		.uleb128 0x4
 1268 03f8 55000000 		.4byte	.LASF74
 1269 03fc 09       		.byte	0x9
 1270 03fd 6B       		.byte	0x6b
 1271 03fe 02040000 		.4byte	0x402
 1272 0402 0C       		.uleb128 0xc
 1273 0403 44030000 		.4byte	.LASF75
 1274 0407 04       		.byte	0x4
 1275 0408 02       		.byte	0x2
 1276 0409 A201     		.2byte	0x1a2
 1277 040b 1D040000 		.4byte	0x41d
 1278 040f 09       		.uleb128 0x9
 1279 0410 4E070000 		.4byte	.LASF76
 1280 0414 02       		.byte	0x2
 1281 0415 AA01     		.2byte	0x1aa
 1282 0417 FC060000 		.4byte	0x6fc
 1283 041b 00       		.byte	0
 1284 041c 00       		.byte	0
 1285 041d 04       		.uleb128 0x4
 1286 041e 20040000 		.4byte	.LASF77
 1287 0422 09       		.byte	0x9
 1288 0423 70       		.byte	0x70
 1289 0424 28040000 		.4byte	0x428
 1290 0428 10       		.uleb128 0x10
 1291 0429 C9020000 		.4byte	.LASF78
 1292 042d 5802     		.2byte	0x258
 1293 042f 02       		.byte	0x2
 1294 0430 C201     		.2byte	0x1c2
 1295 0432 84040000 		.4byte	0x484
 1296 0436 09       		.uleb128 0x9
 1297 0437 A3070000 		.4byte	.LASF79
 1298 043b 02       		.byte	0x2
 1299 043c C601     		.2byte	0x1c6
 1300 043e CB020000 		.4byte	0x2cb
 1301 0442 00       		.byte	0
 1302 0443 09       		.uleb128 0x9
 1303 0444 AC020000 		.4byte	.LASF80
 1304 0448 02       		.byte	0x2
 1305 0449 CA01     		.2byte	0x1ca
 1306 044b AA030000 		.4byte	0x3aa
 1307 044f 1C       		.byte	0x1c
 1308 0450 08       		.uleb128 0x8
 1309 0451 64626700 		.ascii	"dbg\000"
 1310 0455 02       		.byte	0x2
 1311 0456 CE01     		.2byte	0x1ce
ARM GAS  /tmp/cc521pIj.s 			page 24


 1312 0458 F7030000 		.4byte	0x3f7
 1313 045c 2C       		.byte	0x2c
 1314 045d 09       		.uleb128 0x9
 1315 045e DC010000 		.4byte	.LASF81
 1316 0462 02       		.byte	0x2
 1317 0463 D201     		.2byte	0x1d2
 1318 0465 51010000 		.4byte	0x151
 1319 0469 30       		.byte	0x30
 1320 046a 08       		.uleb128 0x8
 1321 046b 746D00   		.ascii	"tm\000"
 1322 046e 02       		.byte	0x2
 1323 046f D701     		.2byte	0x1d7
 1324 0471 26060000 		.4byte	0x626
 1325 0475 78       		.byte	0x78
 1326 0476 09       		.uleb128 0x9
 1327 0477 6F030000 		.4byte	.LASF82
 1328 047b 02       		.byte	0x2
 1329 047c E301     		.2byte	0x1e3
 1330 047e 13070000 		.4byte	0x713
 1331 0482 80       		.byte	0x80
 1332 0483 00       		.byte	0
 1333 0484 11       		.uleb128 0x11
 1334 0485 FD010000 		.4byte	.LASF83
 1335 0489 0A       		.byte	0xa
 1336 048a A706     		.2byte	0x6a7
 1337 048c C3000000 		.4byte	0xc3
 1338 0490 12       		.uleb128 0x12
 1339 0491 AF030000 		.4byte	.LASF84
 1340 0495 0B       		.byte	0xb
 1341 0496 4C       		.byte	0x4c
 1342 0497 C8000000 		.4byte	0xc8
 1343 049b 04       		.uleb128 0x4
 1344 049c 33030000 		.4byte	.LASF85
 1345 04a0 0C       		.byte	0xc
 1346 04a1 65       		.byte	0x65
 1347 04a2 4E030000 		.4byte	0x34e
 1348 04a6 04       		.uleb128 0x4
 1349 04a7 5C040000 		.4byte	.LASF86
 1350 04ab 0C       		.byte	0xc
 1351 04ac 6D       		.byte	0x6d
 1352 04ad D3000000 		.4byte	0xd3
 1353 04b1 06       		.uleb128 0x6
 1354 04b2 5F070000 		.4byte	.LASF87
 1355 04b6 04       		.byte	0x4
 1356 04b7 0C       		.byte	0xc
 1357 04b8 89       		.byte	0x89
 1358 04b9 CA040000 		.4byte	0x4ca
 1359 04bd 13       		.uleb128 0x13
 1360 04be 72313300 		.ascii	"r13\000"
 1361 04c2 0C       		.byte	0xc
 1362 04c3 8A       		.byte	0x8a
 1363 04c4 0B060000 		.4byte	0x60b
 1364 04c8 00       		.byte	0
 1365 04c9 00       		.byte	0
 1366 04ca 06       		.uleb128 0x6
 1367 04cb 49000000 		.4byte	.LASF88
 1368 04cf 64       		.byte	0x64
ARM GAS  /tmp/cc521pIj.s 			page 25


 1369 04d0 0D       		.byte	0xd
 1370 04d1 F4       		.byte	0xf4
 1371 04d2 0B060000 		.4byte	0x60b
 1372 04d6 13       		.uleb128 0x13
 1373 04d7 73313600 		.ascii	"s16\000"
 1374 04db 0D       		.byte	0xd
 1375 04dc F6       		.byte	0xf6
 1376 04dd 9B040000 		.4byte	0x49b
 1377 04e1 00       		.byte	0
 1378 04e2 13       		.uleb128 0x13
 1379 04e3 73313700 		.ascii	"s17\000"
 1380 04e7 0D       		.byte	0xd
 1381 04e8 F7       		.byte	0xf7
 1382 04e9 9B040000 		.4byte	0x49b
 1383 04ed 04       		.byte	0x4
 1384 04ee 13       		.uleb128 0x13
 1385 04ef 73313800 		.ascii	"s18\000"
 1386 04f3 0D       		.byte	0xd
 1387 04f4 F8       		.byte	0xf8
 1388 04f5 9B040000 		.4byte	0x49b
 1389 04f9 08       		.byte	0x8
 1390 04fa 13       		.uleb128 0x13
 1391 04fb 73313900 		.ascii	"s19\000"
 1392 04ff 0D       		.byte	0xd
 1393 0500 F9       		.byte	0xf9
 1394 0501 9B040000 		.4byte	0x49b
 1395 0505 0C       		.byte	0xc
 1396 0506 13       		.uleb128 0x13
 1397 0507 73323000 		.ascii	"s20\000"
 1398 050b 0D       		.byte	0xd
 1399 050c FA       		.byte	0xfa
 1400 050d 9B040000 		.4byte	0x49b
 1401 0511 10       		.byte	0x10
 1402 0512 13       		.uleb128 0x13
 1403 0513 73323100 		.ascii	"s21\000"
 1404 0517 0D       		.byte	0xd
 1405 0518 FB       		.byte	0xfb
 1406 0519 9B040000 		.4byte	0x49b
 1407 051d 14       		.byte	0x14
 1408 051e 13       		.uleb128 0x13
 1409 051f 73323200 		.ascii	"s22\000"
 1410 0523 0D       		.byte	0xd
 1411 0524 FC       		.byte	0xfc
 1412 0525 9B040000 		.4byte	0x49b
 1413 0529 18       		.byte	0x18
 1414 052a 13       		.uleb128 0x13
 1415 052b 73323300 		.ascii	"s23\000"
 1416 052f 0D       		.byte	0xd
 1417 0530 FD       		.byte	0xfd
 1418 0531 9B040000 		.4byte	0x49b
 1419 0535 1C       		.byte	0x1c
 1420 0536 13       		.uleb128 0x13
 1421 0537 73323400 		.ascii	"s24\000"
 1422 053b 0D       		.byte	0xd
 1423 053c FE       		.byte	0xfe
 1424 053d 9B040000 		.4byte	0x49b
 1425 0541 20       		.byte	0x20
ARM GAS  /tmp/cc521pIj.s 			page 26


 1426 0542 13       		.uleb128 0x13
 1427 0543 73323500 		.ascii	"s25\000"
 1428 0547 0D       		.byte	0xd
 1429 0548 FF       		.byte	0xff
 1430 0549 9B040000 		.4byte	0x49b
 1431 054d 24       		.byte	0x24
 1432 054e 08       		.uleb128 0x8
 1433 054f 73323600 		.ascii	"s26\000"
 1434 0553 0D       		.byte	0xd
 1435 0554 0001     		.2byte	0x100
 1436 0556 9B040000 		.4byte	0x49b
 1437 055a 28       		.byte	0x28
 1438 055b 08       		.uleb128 0x8
 1439 055c 73323700 		.ascii	"s27\000"
 1440 0560 0D       		.byte	0xd
 1441 0561 0101     		.2byte	0x101
 1442 0563 9B040000 		.4byte	0x49b
 1443 0567 2C       		.byte	0x2c
 1444 0568 08       		.uleb128 0x8
 1445 0569 73323800 		.ascii	"s28\000"
 1446 056d 0D       		.byte	0xd
 1447 056e 0201     		.2byte	0x102
 1448 0570 9B040000 		.4byte	0x49b
 1449 0574 30       		.byte	0x30
 1450 0575 08       		.uleb128 0x8
 1451 0576 73323900 		.ascii	"s29\000"
 1452 057a 0D       		.byte	0xd
 1453 057b 0301     		.2byte	0x103
 1454 057d 9B040000 		.4byte	0x49b
 1455 0581 34       		.byte	0x34
 1456 0582 08       		.uleb128 0x8
 1457 0583 73333000 		.ascii	"s30\000"
 1458 0587 0D       		.byte	0xd
 1459 0588 0401     		.2byte	0x104
 1460 058a 9B040000 		.4byte	0x49b
 1461 058e 38       		.byte	0x38
 1462 058f 08       		.uleb128 0x8
 1463 0590 73333100 		.ascii	"s31\000"
 1464 0594 0D       		.byte	0xd
 1465 0595 0501     		.2byte	0x105
 1466 0597 9B040000 		.4byte	0x49b
 1467 059b 3C       		.byte	0x3c
 1468 059c 08       		.uleb128 0x8
 1469 059d 723400   		.ascii	"r4\000"
 1470 05a0 0D       		.byte	0xd
 1471 05a1 0701     		.2byte	0x107
 1472 05a3 9B040000 		.4byte	0x49b
 1473 05a7 40       		.byte	0x40
 1474 05a8 08       		.uleb128 0x8
 1475 05a9 723500   		.ascii	"r5\000"
 1476 05ac 0D       		.byte	0xd
 1477 05ad 0801     		.2byte	0x108
 1478 05af 9B040000 		.4byte	0x49b
 1479 05b3 44       		.byte	0x44
 1480 05b4 08       		.uleb128 0x8
 1481 05b5 723600   		.ascii	"r6\000"
 1482 05b8 0D       		.byte	0xd
ARM GAS  /tmp/cc521pIj.s 			page 27


 1483 05b9 0901     		.2byte	0x109
 1484 05bb 9B040000 		.4byte	0x49b
 1485 05bf 48       		.byte	0x48
 1486 05c0 08       		.uleb128 0x8
 1487 05c1 723700   		.ascii	"r7\000"
 1488 05c4 0D       		.byte	0xd
 1489 05c5 0A01     		.2byte	0x10a
 1490 05c7 9B040000 		.4byte	0x49b
 1491 05cb 4C       		.byte	0x4c
 1492 05cc 08       		.uleb128 0x8
 1493 05cd 723800   		.ascii	"r8\000"
 1494 05d0 0D       		.byte	0xd
 1495 05d1 0B01     		.2byte	0x10b
 1496 05d3 9B040000 		.4byte	0x49b
 1497 05d7 50       		.byte	0x50
 1498 05d8 08       		.uleb128 0x8
 1499 05d9 723900   		.ascii	"r9\000"
 1500 05dc 0D       		.byte	0xd
 1501 05dd 0C01     		.2byte	0x10c
 1502 05df 9B040000 		.4byte	0x49b
 1503 05e3 54       		.byte	0x54
 1504 05e4 08       		.uleb128 0x8
 1505 05e5 72313000 		.ascii	"r10\000"
 1506 05e9 0D       		.byte	0xd
 1507 05ea 0D01     		.2byte	0x10d
 1508 05ec 9B040000 		.4byte	0x49b
 1509 05f0 58       		.byte	0x58
 1510 05f1 08       		.uleb128 0x8
 1511 05f2 72313100 		.ascii	"r11\000"
 1512 05f6 0D       		.byte	0xd
 1513 05f7 0E01     		.2byte	0x10e
 1514 05f9 9B040000 		.4byte	0x49b
 1515 05fd 5C       		.byte	0x5c
 1516 05fe 08       		.uleb128 0x8
 1517 05ff 6C7200   		.ascii	"lr\000"
 1518 0602 0D       		.byte	0xd
 1519 0603 0F01     		.2byte	0x10f
 1520 0605 9B040000 		.4byte	0x49b
 1521 0609 60       		.byte	0x60
 1522 060a 00       		.byte	0
 1523 060b 0A       		.uleb128 0xa
 1524 060c 04       		.byte	0x4
 1525 060d CA040000 		.4byte	0x4ca
 1526 0611 14       		.uleb128 0x14
 1527 0612 04       		.byte	0x4
 1528 0613 0E       		.byte	0xe
 1529 0614 38       		.byte	0x38
 1530 0615 26060000 		.4byte	0x626
 1531 0619 07       		.uleb128 0x7
 1532 061a 58070000 		.4byte	.LASF89
 1533 061e 0E       		.byte	0xe
 1534 061f 3C       		.byte	0x3c
 1535 0620 DE000000 		.4byte	0xde
 1536 0624 00       		.byte	0
 1537 0625 00       		.byte	0
 1538 0626 04       		.uleb128 0x4
 1539 0627 FE040000 		.4byte	.LASF90
ARM GAS  /tmp/cc521pIj.s 			page 28


 1540 062b 0E       		.byte	0xe
 1541 062c 3D       		.byte	0x3d
 1542 062d 11060000 		.4byte	0x611
 1543 0631 15       		.uleb128 0x15
 1544 0632 04       		.byte	0x4
 1545 0633 02       		.byte	0x2
 1546 0634 FA       		.byte	0xfa
 1547 0635 8E060000 		.4byte	0x68e
 1548 0639 16       		.uleb128 0x16
 1549 063a 2F000000 		.4byte	.LASF91
 1550 063e 02       		.byte	0x2
 1551 063f 0101     		.2byte	0x101
 1552 0641 20010000 		.4byte	0x120
 1553 0645 16       		.uleb128 0x16
 1554 0646 D3010000 		.4byte	.LASF92
 1555 064a 02       		.byte	0x2
 1556 064b 0801     		.2byte	0x108
 1557 064d 20010000 		.4byte	0x120
 1558 0651 16       		.uleb128 0x16
 1559 0652 D2070000 		.4byte	.LASF93
 1560 0656 02       		.byte	0x2
 1561 0657 0F01     		.2byte	0x10f
 1562 0659 4E030000 		.4byte	0x34e
 1563 065d 16       		.uleb128 0x16
 1564 065e 29000000 		.4byte	.LASF94
 1565 0662 02       		.byte	0x2
 1566 0663 1601     		.2byte	0x116
 1567 0665 8E060000 		.4byte	0x68e
 1568 0669 16       		.uleb128 0x16
 1569 066a C6030000 		.4byte	.LASF95
 1570 066e 02       		.byte	0x2
 1571 066f 1E01     		.2byte	0x11e
 1572 0671 B9060000 		.4byte	0x6b9
 1573 0675 16       		.uleb128 0x16
 1574 0676 E2060000 		.4byte	.LASF96
 1575 067a 02       		.byte	0x2
 1576 067b 2701     		.2byte	0x127
 1577 067d F0060000 		.4byte	0x6f0
 1578 0681 16       		.uleb128 0x16
 1579 0682 D1050000 		.4byte	.LASF97
 1580 0686 02       		.byte	0x2
 1581 0687 2F01     		.2byte	0x12f
 1582 0689 2B010000 		.4byte	0x12b
 1583 068d 00       		.byte	0
 1584 068e 0A       		.uleb128 0xa
 1585 068f 04       		.byte	0x4
 1586 0690 61020000 		.4byte	0x261
 1587 0694 06       		.uleb128 0x6
 1588 0695 51060000 		.4byte	.LASF98
 1589 0699 0C       		.byte	0xc
 1590 069a 0F       		.byte	0xf
 1591 069b 34       		.byte	0x34
 1592 069c B9060000 		.4byte	0x6b9
 1593 06a0 07       		.uleb128 0x7
 1594 06a1 12030000 		.4byte	.LASF99
 1595 06a5 0F       		.byte	0xf
 1596 06a6 35       		.byte	0x35
ARM GAS  /tmp/cc521pIj.s 			page 29


 1597 06a7 96020000 		.4byte	0x296
 1598 06ab 00       		.byte	0
 1599 06ac 07       		.uleb128 0x7
 1600 06ad EA030000 		.4byte	.LASF100
 1601 06b1 0F       		.byte	0xf
 1602 06b2 37       		.byte	0x37
 1603 06b3 36010000 		.4byte	0x136
 1604 06b7 08       		.byte	0x8
 1605 06b8 00       		.byte	0
 1606 06b9 0A       		.uleb128 0xa
 1607 06ba 04       		.byte	0x4
 1608 06bb 94060000 		.4byte	0x694
 1609 06bf 06       		.uleb128 0x6
 1610 06c0 8A070000 		.4byte	.LASF101
 1611 06c4 10       		.byte	0x10
 1612 06c5 04       		.byte	0x4
 1613 06c6 39       		.byte	0x39
 1614 06c7 F0060000 		.4byte	0x6f0
 1615 06cb 07       		.uleb128 0x7
 1616 06cc A4020000 		.4byte	.LASF102
 1617 06d0 04       		.byte	0x4
 1618 06d1 3A       		.byte	0x3a
 1619 06d2 96020000 		.4byte	0x296
 1620 06d6 00       		.byte	0
 1621 06d7 07       		.uleb128 0x7
 1622 06d8 53080000 		.4byte	.LASF103
 1623 06dc 04       		.byte	0x4
 1624 06dd 3C       		.byte	0x3c
 1625 06de 6C020000 		.4byte	0x26c
 1626 06e2 08       		.byte	0x8
 1627 06e3 07       		.uleb128 0x7
 1628 06e4 0F050000 		.4byte	.LASF104
 1629 06e8 04       		.byte	0x4
 1630 06e9 3E       		.byte	0x3e
 1631 06ea 45080000 		.4byte	0x845
 1632 06ee 0C       		.byte	0xc
 1633 06ef 00       		.byte	0
 1634 06f0 0A       		.uleb128 0xa
 1635 06f1 04       		.byte	0x4
 1636 06f2 BF060000 		.4byte	0x6bf
 1637 06f6 0A       		.uleb128 0xa
 1638 06f7 04       		.byte	0x4
 1639 06f8 08070000 		.4byte	0x708
 1640 06fc 05       		.uleb128 0x5
 1641 06fd F6060000 		.4byte	0x6f6
 1642 0701 03       		.uleb128 0x3
 1643 0702 01       		.byte	0x1
 1644 0703 08       		.byte	0x8
 1645 0704 DD060000 		.4byte	.LASF105
 1646 0708 0B       		.uleb128 0xb
 1647 0709 01070000 		.4byte	0x701
 1648 070d 0A       		.uleb128 0xa
 1649 070e 04       		.byte	0x4
 1650 070f 50030000 		.4byte	0x350
 1651 0713 17       		.uleb128 0x17
 1652 0714 A6040000 		.4byte	0x4a6
 1653 0718 23070000 		.4byte	0x723
ARM GAS  /tmp/cc521pIj.s 			page 30


 1654 071c 18       		.uleb128 0x18
 1655 071d 2C000000 		.4byte	0x2c
 1656 0721 3A       		.byte	0x3a
 1657 0722 00       		.byte	0
 1658 0723 19       		.uleb128 0x19
 1659 0724 636800   		.ascii	"ch\000"
 1660 0727 02       		.byte	0x2
 1661 0728 0902     		.2byte	0x209
 1662 072a 1D040000 		.4byte	0x41d
 1663 072e 14       		.uleb128 0x14
 1664 072f 16       		.byte	0x16
 1665 0730 10       		.byte	0x10
 1666 0731 34       		.byte	0x34
 1667 0732 0F080000 		.4byte	0x80f
 1668 0736 07       		.uleb128 0x7
 1669 0737 5B080000 		.4byte	.LASF106
 1670 073b 10       		.byte	0x10
 1671 073c 35       		.byte	0x35
 1672 073d 0F080000 		.4byte	0x80f
 1673 0741 00       		.byte	0
 1674 0742 07       		.uleb128 0x7
 1675 0743 6F040000 		.4byte	.LASF107
 1676 0747 10       		.byte	0x10
 1677 0748 36       		.byte	0x36
 1678 0749 A2000000 		.4byte	0xa2
 1679 074d 04       		.byte	0x4
 1680 074e 07       		.uleb128 0x7
 1681 074f C3060000 		.4byte	.LASF108
 1682 0753 10       		.byte	0x10
 1683 0754 37       		.byte	0x37
 1684 0755 A2000000 		.4byte	0xa2
 1685 0759 05       		.byte	0x5
 1686 075a 07       		.uleb128 0x7
 1687 075b 2B080000 		.4byte	.LASF109
 1688 075f 10       		.byte	0x10
 1689 0760 38       		.byte	0x38
 1690 0761 AD000000 		.4byte	0xad
 1691 0765 06       		.byte	0x6
 1692 0766 07       		.uleb128 0x7
 1693 0767 50050000 		.4byte	.LASF110
 1694 076b 10       		.byte	0x10
 1695 076c 39       		.byte	0x39
 1696 076d A2000000 		.4byte	0xa2
 1697 0771 08       		.byte	0x8
 1698 0772 07       		.uleb128 0x7
 1699 0773 D2040000 		.4byte	.LASF111
 1700 0777 10       		.byte	0x10
 1701 0778 3A       		.byte	0x3a
 1702 0779 A2000000 		.4byte	0xa2
 1703 077d 09       		.byte	0x9
 1704 077e 07       		.uleb128 0x7
 1705 077f C5010000 		.4byte	.LASF112
 1706 0783 10       		.byte	0x10
 1707 0784 3B       		.byte	0x3b
 1708 0785 A2000000 		.4byte	0xa2
 1709 0789 0A       		.byte	0xa
 1710 078a 07       		.uleb128 0x7
ARM GAS  /tmp/cc521pIj.s 			page 31


 1711 078b 93060000 		.4byte	.LASF113
 1712 078f 10       		.byte	0x10
 1713 0790 3C       		.byte	0x3c
 1714 0791 A2000000 		.4byte	0xa2
 1715 0795 0B       		.byte	0xb
 1716 0796 07       		.uleb128 0x7
 1717 0797 7F070000 		.4byte	.LASF114
 1718 079b 10       		.byte	0x10
 1719 079c 3D       		.byte	0x3d
 1720 079d A2000000 		.4byte	0xa2
 1721 07a1 0C       		.byte	0xc
 1722 07a2 07       		.uleb128 0x7
 1723 07a3 D9070000 		.4byte	.LASF115
 1724 07a7 10       		.byte	0x10
 1725 07a8 3E       		.byte	0x3e
 1726 07a9 A2000000 		.4byte	0xa2
 1727 07ad 0D       		.byte	0xd
 1728 07ae 07       		.uleb128 0x7
 1729 07af 0F000000 		.4byte	.LASF116
 1730 07b3 10       		.byte	0x10
 1731 07b4 3F       		.byte	0x3f
 1732 07b5 A2000000 		.4byte	0xa2
 1733 07b9 0E       		.byte	0xe
 1734 07ba 07       		.uleb128 0x7
 1735 07bb DE040000 		.4byte	.LASF117
 1736 07bf 10       		.byte	0x10
 1737 07c0 40       		.byte	0x40
 1738 07c1 A2000000 		.4byte	0xa2
 1739 07c5 0F       		.byte	0xf
 1740 07c6 07       		.uleb128 0x7
 1741 07c7 7F020000 		.4byte	.LASF118
 1742 07cb 10       		.byte	0x10
 1743 07cc 41       		.byte	0x41
 1744 07cd A2000000 		.4byte	0xa2
 1745 07d1 10       		.byte	0x10
 1746 07d2 07       		.uleb128 0x7
 1747 07d3 43020000 		.4byte	.LASF119
 1748 07d7 10       		.byte	0x10
 1749 07d8 43       		.byte	0x43
 1750 07d9 A2000000 		.4byte	0xa2
 1751 07dd 11       		.byte	0x11
 1752 07de 07       		.uleb128 0x7
 1753 07df 8F020000 		.4byte	.LASF120
 1754 07e3 10       		.byte	0x10
 1755 07e4 44       		.byte	0x44
 1756 07e5 A2000000 		.4byte	0xa2
 1757 07e9 12       		.byte	0x12
 1758 07ea 07       		.uleb128 0x7
 1759 07eb 77040000 		.4byte	.LASF121
 1760 07ef 10       		.byte	0x10
 1761 07f0 45       		.byte	0x45
 1762 07f1 A2000000 		.4byte	0xa2
 1763 07f5 13       		.byte	0x13
 1764 07f6 07       		.uleb128 0x7
 1765 07f7 E7050000 		.4byte	.LASF122
 1766 07fb 10       		.byte	0x10
 1767 07fc 46       		.byte	0x46
ARM GAS  /tmp/cc521pIj.s 			page 32


 1768 07fd A2000000 		.4byte	0xa2
 1769 0801 14       		.byte	0x14
 1770 0802 07       		.uleb128 0x7
 1771 0803 2C040000 		.4byte	.LASF123
 1772 0807 10       		.byte	0x10
 1773 0808 48       		.byte	0x48
 1774 0809 A2000000 		.4byte	0xa2
 1775 080d 15       		.byte	0x15
 1776 080e 00       		.byte	0
 1777 080f 17       		.uleb128 0x17
 1778 0810 01070000 		.4byte	0x701
 1779 0814 1F080000 		.4byte	0x81f
 1780 0818 18       		.uleb128 0x18
 1781 0819 2C000000 		.4byte	0x2c
 1782 081d 03       		.byte	0x3
 1783 081e 00       		.byte	0
 1784 081f 04       		.uleb128 0x4
 1785 0820 00030000 		.4byte	.LASF124
 1786 0824 10       		.byte	0x10
 1787 0825 49       		.byte	0x49
 1788 0826 2E070000 		.4byte	0x72e
 1789 082a 0B       		.uleb128 0xb
 1790 082b 1F080000 		.4byte	0x81f
 1791 082f 12       		.uleb128 0x12
 1792 0830 E1030000 		.4byte	.LASF125
 1793 0834 10       		.byte	0x10
 1794 0835 6E       		.byte	0x6e
 1795 0836 2A080000 		.4byte	0x82a
 1796 083a 04       		.uleb128 0x4
 1797 083b 54030000 		.4byte	.LASF126
 1798 083f 04       		.byte	0x4
 1799 0840 34       		.byte	0x34
 1800 0841 BF060000 		.4byte	0x6bf
 1801 0845 0A       		.uleb128 0xa
 1802 0846 04       		.byte	0x4
 1803 0847 3A080000 		.4byte	0x83a
 1804 084b 06       		.uleb128 0x6
 1805 084c AC040000 		.4byte	.LASF127
 1806 0850 08       		.byte	0x8
 1807 0851 11       		.byte	0x11
 1808 0852 3B       		.byte	0x3b
 1809 0853 64080000 		.4byte	0x864
 1810 0857 07       		.uleb128 0x7
 1811 0858 67040000 		.4byte	.LASF128
 1812 085c 11       		.byte	0x11
 1813 085d 3C       		.byte	0x3c
 1814 085e 96020000 		.4byte	0x296
 1815 0862 00       		.byte	0
 1816 0863 00       		.byte	0
 1817 0864 04       		.uleb128 0x4
 1818 0865 6A020000 		.4byte	.LASF129
 1819 0869 11       		.byte	0x11
 1820 086a 3E       		.byte	0x3e
 1821 086b 4B080000 		.4byte	0x84b
 1822 086f 1A       		.uleb128 0x1a
 1823 0870 BF040000 		.4byte	.LASF131
 1824 0874 01       		.byte	0x1
ARM GAS  /tmp/cc521pIj.s 			page 33


 1825 0875 2801     		.2byte	0x128
 1826 0877 20010000 		.4byte	0x120
 1827 087b 00000000 		.4byte	.LFB227
 1828 087f 58000000 		.4byte	.LFE227-.LFB227
 1829 0883 01       		.uleb128 0x1
 1830 0884 9C       		.byte	0x9c
 1831 0885 64090000 		.4byte	0x964
 1832 0889 1B       		.uleb128 0x1b
 1833 088a 637000   		.ascii	"cp\000"
 1834 088d 01       		.byte	0x1
 1835 088e 2801     		.2byte	0x128
 1836 0890 64090000 		.4byte	0x964
 1837 0894 00000000 		.4byte	.LLST30
 1838 0898 1C       		.uleb128 0x1c
 1839 0899 16050000 		.4byte	.LASF130
 1840 089d 01       		.byte	0x1
 1841 089e 2801     		.2byte	0x128
 1842 08a0 41010000 		.4byte	0x141
 1843 08a4 1E000000 		.4byte	.LLST31
 1844 08a8 1D       		.uleb128 0x1d
 1845 08a9 6D7000   		.ascii	"mp\000"
 1846 08ac 01       		.byte	0x1
 1847 08ad 2901     		.2byte	0x129
 1848 08af 45080000 		.4byte	0x845
 1849 08b3 1E       		.uleb128 0x1e
 1850 08b4 6D736700 		.ascii	"msg\000"
 1851 08b8 01       		.byte	0x1
 1852 08b9 2A01     		.2byte	0x12a
 1853 08bb 20010000 		.4byte	0x120
 1854 08bf 3C000000 		.4byte	.LLST32
 1855 08c3 1F       		.uleb128 0x1f
 1856 08c4 FE050000 		.4byte	.LASF134
 1857 08c8 7A090000 		.4byte	0x97a
 1858 08cc 20       		.uleb128 0x20
 1859 08cd 950F0000 		.4byte	0xf95
 1860 08d1 04000000 		.4byte	.LBB155
 1861 08d5 06000000 		.4byte	.LBE155-.LBB155
 1862 08d9 01       		.byte	0x1
 1863 08da 3101     		.2byte	0x131
 1864 08dc F0080000 		.4byte	0x8f0
 1865 08e0 21       		.uleb128 0x21
 1866 08e1 A10F0000 		.4byte	0xfa1
 1867 08e5 04000000 		.4byte	.LBB157
 1868 08e9 02000000 		.4byte	.LBE157-.LBB157
 1869 08ed 04       		.byte	0x4
 1870 08ee 92       		.byte	0x92
 1871 08ef 00       		.byte	0
 1872 08f0 22       		.uleb128 0x22
 1873 08f1 00100000 		.4byte	0x1000
 1874 08f5 1E000000 		.4byte	.LBB159
 1875 08f9 98000000 		.4byte	.Ldebug_ranges0+0x98
 1876 08fd 01       		.byte	0x1
 1877 08fe 3701     		.2byte	0x137
 1878 0900 26090000 		.4byte	0x926
 1879 0904 23       		.uleb128 0x23
 1880 0905 18100000 		.4byte	0x1018
 1881 0909 5A000000 		.4byte	.LLST33
ARM GAS  /tmp/cc521pIj.s 			page 34


 1882 090d 23       		.uleb128 0x23
 1883 090e 0D100000 		.4byte	0x100d
 1884 0912 78000000 		.4byte	.LLST34
 1885 0916 24       		.uleb128 0x24
 1886 0917 98000000 		.4byte	.Ldebug_ranges0+0x98
 1887 091b 25       		.uleb128 0x25
 1888 091c 24100000 		.4byte	0x1024
 1889 0920 96000000 		.4byte	.LLST35
 1890 0924 00       		.byte	0
 1891 0925 00       		.byte	0
 1892 0926 26       		.uleb128 0x26
 1893 0927 14000000 		.4byte	.LVL51
 1894 092b 10110000 		.4byte	0x1110
 1895 092f 3A090000 		.4byte	0x93a
 1896 0933 27       		.uleb128 0x27
 1897 0934 01       		.uleb128 0x1
 1898 0935 50       		.byte	0x50
 1899 0936 02       		.uleb128 0x2
 1900 0937 77       		.byte	0x77
 1901 0938 00       		.sleb128 0
 1902 0939 00       		.byte	0
 1903 093a 26       		.uleb128 0x26
 1904 093b 3E000000 		.4byte	.LVL58
 1905 093f 1B110000 		.4byte	0x111b
 1906 0943 53090000 		.4byte	0x953
 1907 0947 27       		.uleb128 0x27
 1908 0948 01       		.uleb128 0x1
 1909 0949 50       		.byte	0x50
 1910 094a 01       		.uleb128 0x1
 1911 094b 37       		.byte	0x37
 1912 094c 27       		.uleb128 0x27
 1913 094d 01       		.uleb128 0x1
 1914 094e 51       		.byte	0x51
 1915 094f 02       		.uleb128 0x2
 1916 0950 78       		.byte	0x78
 1917 0951 00       		.sleb128 0
 1918 0952 00       		.byte	0
 1919 0953 28       		.uleb128 0x28
 1920 0954 4A000000 		.4byte	.LVL61
 1921 0958 27110000 		.4byte	0x1127
 1922 095c 27       		.uleb128 0x27
 1923 095d 01       		.uleb128 0x1
 1924 095e 50       		.byte	0x50
 1925 095f 02       		.uleb128 0x2
 1926 0960 77       		.byte	0x77
 1927 0961 00       		.sleb128 0
 1928 0962 00       		.byte	0
 1929 0963 00       		.byte	0
 1930 0964 0A       		.uleb128 0xa
 1931 0965 04       		.byte	0x4
 1932 0966 64080000 		.4byte	0x864
 1933 096a 17       		.uleb128 0x17
 1934 096b 08070000 		.4byte	0x708
 1935 096f 7A090000 		.4byte	0x97a
 1936 0973 18       		.uleb128 0x18
 1937 0974 2C000000 		.4byte	0x2c
 1938 0978 12       		.byte	0x12
ARM GAS  /tmp/cc521pIj.s 			page 35


 1939 0979 00       		.byte	0
 1940 097a 0B       		.uleb128 0xb
 1941 097b 6A090000 		.4byte	0x96a
 1942 097f 1A       		.uleb128 0x1a
 1943 0980 ED070000 		.4byte	.LASF132
 1944 0984 01       		.byte	0x1
 1945 0985 0201     		.2byte	0x102
 1946 0987 20010000 		.4byte	0x120
 1947 098b 00000000 		.4byte	.LFB226
 1948 098f 14000000 		.4byte	.LFE226-.LFB226
 1949 0993 01       		.uleb128 0x1
 1950 0994 9C       		.byte	0x9c
 1951 0995 690A0000 		.4byte	0xa69
 1952 0999 1B       		.uleb128 0x1b
 1953 099a 637000   		.ascii	"cp\000"
 1954 099d 01       		.byte	0x1
 1955 099e 0201     		.2byte	0x102
 1956 09a0 64090000 		.4byte	0x964
 1957 09a4 B4000000 		.4byte	.LLST36
 1958 09a8 1C       		.uleb128 0x1c
 1959 09a9 16050000 		.4byte	.LASF130
 1960 09ad 01       		.byte	0x1
 1961 09ae 0201     		.2byte	0x102
 1962 09b0 41010000 		.4byte	0x141
 1963 09b4 D5000000 		.4byte	.LLST37
 1964 09b8 29       		.uleb128 0x29
 1965 09b9 6D736700 		.ascii	"msg\000"
 1966 09bd 01       		.byte	0x1
 1967 09be 0301     		.2byte	0x103
 1968 09c0 20010000 		.4byte	0x120
 1969 09c4 01       		.uleb128 0x1
 1970 09c5 50       		.byte	0x50
 1971 09c6 20       		.uleb128 0x20
 1972 09c7 C80F0000 		.4byte	0xfc8
 1973 09cb 02000000 		.4byte	.LBB167
 1974 09cf 06000000 		.4byte	.LBE167-.LBB167
 1975 09d3 01       		.byte	0x1
 1976 09d4 0501     		.2byte	0x105
 1977 09d6 060A0000 		.4byte	0xa06
 1978 09da 2A       		.uleb128 0x2a
 1979 09db 7E100000 		.4byte	0x107e
 1980 09df 02000000 		.4byte	.LBB168
 1981 09e3 06000000 		.4byte	.LBE168-.LBB168
 1982 09e7 12       		.byte	0x12
 1983 09e8 5C01     		.2byte	0x15c
 1984 09ea 2A       		.uleb128 0x2a
 1985 09eb 87100000 		.4byte	0x1087
 1986 09ef 02000000 		.4byte	.LBB169
 1987 09f3 06000000 		.4byte	.LBE169-.LBB169
 1988 09f7 0D       		.byte	0xd
 1989 09f8 BF01     		.2byte	0x1bf
 1990 09fa 23       		.uleb128 0x23
 1991 09fb 94100000 		.4byte	0x1094
 1992 09ff F6000000 		.4byte	.LLST38
 1993 0a03 00       		.byte	0
 1994 0a04 00       		.byte	0
 1995 0a05 00       		.byte	0
ARM GAS  /tmp/cc521pIj.s 			page 36


 1996 0a06 20       		.uleb128 0x20
 1997 0a07 AD0F0000 		.4byte	0xfad
 1998 0a0b 0C000000 		.4byte	.LBB171
 1999 0a0f 06000000 		.4byte	.LBE171-.LBB171
 2000 0a13 01       		.byte	0x1
 2001 0a14 0701     		.2byte	0x107
 2002 0a16 500A0000 		.4byte	0xa50
 2003 0a1a 2B       		.uleb128 0x2b
 2004 0a1b 0C000000 		.4byte	.LBB172
 2005 0a1f 06000000 		.4byte	.LBE172-.LBB172
 2006 0a23 2A       		.uleb128 0x2a
 2007 0a24 75100000 		.4byte	0x1075
 2008 0a28 0C000000 		.4byte	.LBB173
 2009 0a2c 06000000 		.4byte	.LBE173-.LBB173
 2010 0a30 12       		.byte	0x12
 2011 0a31 7301     		.2byte	0x173
 2012 0a33 2A       		.uleb128 0x2a
 2013 0a34 87100000 		.4byte	0x1087
 2014 0a38 0C000000 		.4byte	.LBB174
 2015 0a3c 06000000 		.4byte	.LBE174-.LBB174
 2016 0a40 0D       		.byte	0xd
 2017 0a41 CD01     		.2byte	0x1cd
 2018 0a43 23       		.uleb128 0x23
 2019 0a44 94100000 		.4byte	0x1094
 2020 0a48 0B010000 		.4byte	.LLST39
 2021 0a4c 00       		.byte	0
 2022 0a4d 00       		.byte	0
 2023 0a4e 00       		.byte	0
 2024 0a4f 00       		.byte	0
 2025 0a50 28       		.uleb128 0x28
 2026 0a51 0C000000 		.4byte	.LVL65
 2027 0a55 6F080000 		.4byte	0x86f
 2028 0a59 27       		.uleb128 0x27
 2029 0a5a 01       		.uleb128 0x1
 2030 0a5b 50       		.byte	0x50
 2031 0a5c 03       		.uleb128 0x3
 2032 0a5d F3       		.byte	0xf3
 2033 0a5e 01       		.uleb128 0x1
 2034 0a5f 50       		.byte	0x50
 2035 0a60 27       		.uleb128 0x27
 2036 0a61 01       		.uleb128 0x1
 2037 0a62 51       		.byte	0x51
 2038 0a63 03       		.uleb128 0x3
 2039 0a64 F3       		.byte	0xf3
 2040 0a65 01       		.uleb128 0x1
 2041 0a66 51       		.byte	0x51
 2042 0a67 00       		.byte	0
 2043 0a68 00       		.byte	0
 2044 0a69 2C       		.uleb128 0x2c
 2045 0a6a DC020000 		.4byte	.LASF133
 2046 0a6e 01       		.byte	0x1
 2047 0a6f CD       		.byte	0xcd
 2048 0a70 20010000 		.4byte	0x120
 2049 0a74 00000000 		.4byte	.LFB225
 2050 0a78 4C000000 		.4byte	.LFE225-.LFB225
 2051 0a7c 01       		.uleb128 0x1
 2052 0a7d 9C       		.byte	0x9c
ARM GAS  /tmp/cc521pIj.s 			page 37


 2053 0a7e 3D0B0000 		.4byte	0xb3d
 2054 0a82 2D       		.uleb128 0x2d
 2055 0a83 637000   		.ascii	"cp\000"
 2056 0a86 01       		.byte	0x1
 2057 0a87 CD       		.byte	0xcd
 2058 0a88 64090000 		.4byte	0x964
 2059 0a8c 1F010000 		.4byte	.LLST21
 2060 0a90 2E       		.uleb128 0x2e
 2061 0a91 63747000 		.ascii	"ctp\000"
 2062 0a95 01       		.byte	0x1
 2063 0a96 CE       		.byte	0xce
 2064 0a97 6C020000 		.4byte	0x26c
 2065 0a9b 3D010000 		.4byte	.LLST22
 2066 0a9f 2F       		.uleb128 0x2f
 2067 0aa0 6D7000   		.ascii	"mp\000"
 2068 0aa3 01       		.byte	0x1
 2069 0aa4 CF       		.byte	0xcf
 2070 0aa5 45080000 		.4byte	0x845
 2071 0aa9 2E       		.uleb128 0x2e
 2072 0aaa 6D736700 		.ascii	"msg\000"
 2073 0aae 01       		.byte	0x1
 2074 0aaf D0       		.byte	0xd0
 2075 0ab0 20010000 		.4byte	0x120
 2076 0ab4 5B010000 		.4byte	.LLST23
 2077 0ab8 1F       		.uleb128 0x1f
 2078 0ab9 FE050000 		.4byte	.LASF134
 2079 0abd 4D0B0000 		.4byte	0xb4d
 2080 0ac1 21       		.uleb128 0x21
 2081 0ac2 950F0000 		.4byte	0xf95
 2082 0ac6 06000000 		.4byte	.LBB138
 2083 0aca 02000000 		.4byte	.LBE138-.LBB138
 2084 0ace 01       		.byte	0x1
 2085 0acf D7       		.byte	0xd7
 2086 0ad0 30       		.uleb128 0x30
 2087 0ad1 00100000 		.4byte	0x1000
 2088 0ad5 18000000 		.4byte	.LBB140
 2089 0ad9 78000000 		.4byte	.Ldebug_ranges0+0x78
 2090 0add 01       		.byte	0x1
 2091 0ade DD       		.byte	0xdd
 2092 0adf 050B0000 		.4byte	0xb05
 2093 0ae3 23       		.uleb128 0x23
 2094 0ae4 18100000 		.4byte	0x1018
 2095 0ae8 6E010000 		.4byte	.LLST24
 2096 0aec 23       		.uleb128 0x23
 2097 0aed 0D100000 		.4byte	0x100d
 2098 0af1 8C010000 		.4byte	.LLST25
 2099 0af5 24       		.uleb128 0x24
 2100 0af6 78000000 		.4byte	.Ldebug_ranges0+0x78
 2101 0afa 25       		.uleb128 0x25
 2102 0afb 24100000 		.4byte	0x1024
 2103 0aff AA010000 		.4byte	.LLST26
 2104 0b03 00       		.byte	0
 2105 0b04 00       		.byte	0
 2106 0b05 26       		.uleb128 0x26
 2107 0b06 10000000 		.4byte	.LVL34
 2108 0b0a 10110000 		.4byte	0x1110
 2109 0b0e 190B0000 		.4byte	0xb19
ARM GAS  /tmp/cc521pIj.s 			page 38


 2110 0b12 27       		.uleb128 0x27
 2111 0b13 01       		.uleb128 0x1
 2112 0b14 50       		.byte	0x50
 2113 0b15 02       		.uleb128 0x2
 2114 0b16 77       		.byte	0x77
 2115 0b17 00       		.sleb128 0
 2116 0b18 00       		.byte	0
 2117 0b19 26       		.uleb128 0x26
 2118 0b1a 36000000 		.4byte	.LVL41
 2119 0b1e 32110000 		.4byte	0x1132
 2120 0b22 2C0B0000 		.4byte	0xb2c
 2121 0b26 27       		.uleb128 0x27
 2122 0b27 01       		.uleb128 0x1
 2123 0b28 50       		.byte	0x50
 2124 0b29 01       		.uleb128 0x1
 2125 0b2a 37       		.byte	0x37
 2126 0b2b 00       		.byte	0
 2127 0b2c 28       		.uleb128 0x28
 2128 0b2d 3E000000 		.4byte	.LVL43
 2129 0b31 27110000 		.4byte	0x1127
 2130 0b35 27       		.uleb128 0x27
 2131 0b36 01       		.uleb128 0x1
 2132 0b37 50       		.byte	0x50
 2133 0b38 02       		.uleb128 0x2
 2134 0b39 77       		.byte	0x77
 2135 0b3a 00       		.sleb128 0
 2136 0b3b 00       		.byte	0
 2137 0b3c 00       		.byte	0
 2138 0b3d 17       		.uleb128 0x17
 2139 0b3e 08070000 		.4byte	0x708
 2140 0b42 4D0B0000 		.4byte	0xb4d
 2141 0b46 18       		.uleb128 0x18
 2142 0b47 2C000000 		.4byte	0x2c
 2143 0b4b 0B       		.byte	0xb
 2144 0b4c 00       		.byte	0
 2145 0b4d 0B       		.uleb128 0xb
 2146 0b4e 3D0B0000 		.4byte	0xb3d
 2147 0b52 2C       		.uleb128 0x2c
 2148 0b53 6D070000 		.4byte	.LASF135
 2149 0b57 01       		.byte	0x1
 2150 0b58 B3       		.byte	0xb3
 2151 0b59 20010000 		.4byte	0x120
 2152 0b5d 00000000 		.4byte	.LFB224
 2153 0b61 14000000 		.4byte	.LFE224-.LFB224
 2154 0b65 01       		.uleb128 0x1
 2155 0b66 9C       		.byte	0x9c
 2156 0b67 200C0000 		.4byte	0xc20
 2157 0b6b 2D       		.uleb128 0x2d
 2158 0b6c 637000   		.ascii	"cp\000"
 2159 0b6f 01       		.byte	0x1
 2160 0b70 B3       		.byte	0xb3
 2161 0b71 64090000 		.4byte	0x964
 2162 0b75 C8010000 		.4byte	.LLST27
 2163 0b79 31       		.uleb128 0x31
 2164 0b7a 6D736700 		.ascii	"msg\000"
 2165 0b7e 01       		.byte	0x1
 2166 0b7f B4       		.byte	0xb4
ARM GAS  /tmp/cc521pIj.s 			page 39


 2167 0b80 20010000 		.4byte	0x120
 2168 0b84 01       		.uleb128 0x1
 2169 0b85 50       		.byte	0x50
 2170 0b86 32       		.uleb128 0x32
 2171 0b87 C80F0000 		.4byte	0xfc8
 2172 0b8b 02000000 		.4byte	.LBB146
 2173 0b8f 06000000 		.4byte	.LBE146-.LBB146
 2174 0b93 01       		.byte	0x1
 2175 0b94 B6       		.byte	0xb6
 2176 0b95 C50B0000 		.4byte	0xbc5
 2177 0b99 2A       		.uleb128 0x2a
 2178 0b9a 7E100000 		.4byte	0x107e
 2179 0b9e 02000000 		.4byte	.LBB147
 2180 0ba2 06000000 		.4byte	.LBE147-.LBB147
 2181 0ba6 12       		.byte	0x12
 2182 0ba7 5C01     		.2byte	0x15c
 2183 0ba9 2A       		.uleb128 0x2a
 2184 0baa 87100000 		.4byte	0x1087
 2185 0bae 02000000 		.4byte	.LBB148
 2186 0bb2 06000000 		.4byte	.LBE148-.LBB148
 2187 0bb6 0D       		.byte	0xd
 2188 0bb7 BF01     		.2byte	0x1bf
 2189 0bb9 23       		.uleb128 0x23
 2190 0bba 94100000 		.4byte	0x1094
 2191 0bbe E9010000 		.4byte	.LLST28
 2192 0bc2 00       		.byte	0
 2193 0bc3 00       		.byte	0
 2194 0bc4 00       		.byte	0
 2195 0bc5 32       		.uleb128 0x32
 2196 0bc6 AD0F0000 		.4byte	0xfad
 2197 0bca 0C000000 		.4byte	.LBB150
 2198 0bce 06000000 		.4byte	.LBE150-.LBB150
 2199 0bd2 01       		.byte	0x1
 2200 0bd3 B8       		.byte	0xb8
 2201 0bd4 0E0C0000 		.4byte	0xc0e
 2202 0bd8 2B       		.uleb128 0x2b
 2203 0bd9 0C000000 		.4byte	.LBB151
 2204 0bdd 06000000 		.4byte	.LBE151-.LBB151
 2205 0be1 2A       		.uleb128 0x2a
 2206 0be2 75100000 		.4byte	0x1075
 2207 0be6 0C000000 		.4byte	.LBB152
 2208 0bea 06000000 		.4byte	.LBE152-.LBB152
 2209 0bee 12       		.byte	0x12
 2210 0bef 7301     		.2byte	0x173
 2211 0bf1 2A       		.uleb128 0x2a
 2212 0bf2 87100000 		.4byte	0x1087
 2213 0bf6 0C000000 		.4byte	.LBB153
 2214 0bfa 06000000 		.4byte	.LBE153-.LBB153
 2215 0bfe 0D       		.byte	0xd
 2216 0bff CD01     		.2byte	0x1cd
 2217 0c01 23       		.uleb128 0x23
 2218 0c02 94100000 		.4byte	0x1094
 2219 0c06 FE010000 		.4byte	.LLST29
 2220 0c0a 00       		.byte	0
 2221 0c0b 00       		.byte	0
 2222 0c0c 00       		.byte	0
 2223 0c0d 00       		.byte	0
ARM GAS  /tmp/cc521pIj.s 			page 40


 2224 0c0e 28       		.uleb128 0x28
 2225 0c0f 0C000000 		.4byte	.LVL47
 2226 0c13 690A0000 		.4byte	0xa69
 2227 0c17 27       		.uleb128 0x27
 2228 0c18 01       		.uleb128 0x1
 2229 0c19 50       		.byte	0x50
 2230 0c1a 03       		.uleb128 0x3
 2231 0c1b F3       		.byte	0xf3
 2232 0c1c 01       		.uleb128 0x1
 2233 0c1d 50       		.byte	0x50
 2234 0c1e 00       		.byte	0
 2235 0c1f 00       		.byte	0
 2236 0c20 33       		.uleb128 0x33
 2237 0c21 9D010000 		.4byte	.LASF142
 2238 0c25 01       		.byte	0x1
 2239 0c26 95       		.byte	0x95
 2240 0c27 01       		.byte	0x1
 2241 0c28 440C0000 		.4byte	0xc44
 2242 0c2c 34       		.uleb128 0x34
 2243 0c2d 637000   		.ascii	"cp\000"
 2244 0c30 01       		.byte	0x1
 2245 0c31 95       		.byte	0x95
 2246 0c32 64090000 		.4byte	0x964
 2247 0c36 35       		.uleb128 0x35
 2248 0c37 FE050000 		.4byte	.LASF134
 2249 0c3b 540C0000 		.4byte	0xc54
 2250 0c3f 9D010000 		.4byte	.LASF142
 2251 0c43 00       		.byte	0
 2252 0c44 17       		.uleb128 0x17
 2253 0c45 08070000 		.4byte	0x708
 2254 0c49 540C0000 		.4byte	0xc54
 2255 0c4d 18       		.uleb128 0x18
 2256 0c4e 2C000000 		.4byte	0x2c
 2257 0c52 10       		.byte	0x10
 2258 0c53 00       		.byte	0
 2259 0c54 0B       		.uleb128 0xb
 2260 0c55 440C0000 		.4byte	0xc44
 2261 0c59 36       		.uleb128 0x36
 2262 0c5a 2D050000 		.4byte	.LASF136
 2263 0c5e 01       		.byte	0x1
 2264 0c5f 82       		.byte	0x82
 2265 0c60 00000000 		.4byte	.LFB222
 2266 0c64 34000000 		.4byte	.LFE222-.LFB222
 2267 0c68 01       		.uleb128 0x1
 2268 0c69 9C       		.byte	0x9c
 2269 0c6a 830D0000 		.4byte	0xd83
 2270 0c6e 2D       		.uleb128 0x2d
 2271 0c6f 637000   		.ascii	"cp\000"
 2272 0c72 01       		.byte	0x1
 2273 0c73 82       		.byte	0x82
 2274 0c74 64090000 		.4byte	0x964
 2275 0c78 12020000 		.4byte	.LLST11
 2276 0c7c 32       		.uleb128 0x32
 2277 0c7d C80F0000 		.4byte	0xfc8
 2278 0c81 02000000 		.4byte	.LBB111
 2279 0c85 06000000 		.4byte	.LBE111-.LBB111
 2280 0c89 01       		.byte	0x1
ARM GAS  /tmp/cc521pIj.s 			page 41


 2281 0c8a 84       		.byte	0x84
 2282 0c8b BB0C0000 		.4byte	0xcbb
 2283 0c8f 2A       		.uleb128 0x2a
 2284 0c90 7E100000 		.4byte	0x107e
 2285 0c94 02000000 		.4byte	.LBB112
 2286 0c98 06000000 		.4byte	.LBE112-.LBB112
 2287 0c9c 12       		.byte	0x12
 2288 0c9d 5C01     		.2byte	0x15c
 2289 0c9f 2A       		.uleb128 0x2a
 2290 0ca0 87100000 		.4byte	0x1087
 2291 0ca4 02000000 		.4byte	.LBB113
 2292 0ca8 06000000 		.4byte	.LBE113-.LBB113
 2293 0cac 0D       		.byte	0xd
 2294 0cad BF01     		.2byte	0x1bf
 2295 0caf 23       		.uleb128 0x23
 2296 0cb0 94100000 		.4byte	0x1094
 2297 0cb4 3E020000 		.4byte	.LLST12
 2298 0cb8 00       		.byte	0
 2299 0cb9 00       		.byte	0
 2300 0cba 00       		.byte	0
 2301 0cbb 32       		.uleb128 0x32
 2302 0cbc 200C0000 		.4byte	0xc20
 2303 0cc0 08000000 		.4byte	.LBB115
 2304 0cc4 20000000 		.4byte	.LBE115-.LBB115
 2305 0cc8 01       		.byte	0x1
 2306 0cc9 85       		.byte	0x85
 2307 0cca 300D0000 		.4byte	0xd30
 2308 0cce 37       		.uleb128 0x37
 2309 0ccf 2C0C0000 		.4byte	0xc2c
 2310 0cd3 2B       		.uleb128 0x2b
 2311 0cd4 08000000 		.4byte	.LBB116
 2312 0cd8 20000000 		.4byte	.LBE116-.LBB116
 2313 0cdc 30       		.uleb128 0x30
 2314 0cdd 30100000 		.4byte	0x1030
 2315 0ce1 08000000 		.4byte	.LBB117
 2316 0ce5 18000000 		.4byte	.Ldebug_ranges0+0x18
 2317 0ce9 01       		.byte	0x1
 2318 0cea 9D       		.byte	0x9d
 2319 0ceb F90C0000 		.4byte	0xcf9
 2320 0cef 23       		.uleb128 0x23
 2321 0cf0 41100000 		.4byte	0x1041
 2322 0cf4 53020000 		.4byte	.LLST13
 2323 0cf8 00       		.byte	0
 2324 0cf9 30       		.uleb128 0x30
 2325 0cfa D10F0000 		.4byte	0xfd1
 2326 0cfe 14000000 		.4byte	.LBB120
 2327 0d02 30000000 		.4byte	.Ldebug_ranges0+0x30
 2328 0d06 01       		.byte	0x1
 2329 0d07 9E       		.byte	0x9e
 2330 0d08 250D0000 		.4byte	0xd25
 2331 0d0c 23       		.uleb128 0x23
 2332 0d0d E20F0000 		.4byte	0xfe2
 2333 0d11 66020000 		.4byte	.LLST14
 2334 0d15 24       		.uleb128 0x24
 2335 0d16 30000000 		.4byte	.Ldebug_ranges0+0x30
 2336 0d1a 25       		.uleb128 0x25
 2337 0d1b EE0F0000 		.4byte	0xfee
ARM GAS  /tmp/cc521pIj.s 			page 42


 2338 0d1f 79020000 		.4byte	.LLST15
 2339 0d23 00       		.byte	0
 2340 0d24 00       		.byte	0
 2341 0d25 38       		.uleb128 0x38
 2342 0d26 20000000 		.4byte	.LVL21
 2343 0d2a 3E110000 		.4byte	0x113e
 2344 0d2e 00       		.byte	0
 2345 0d2f 00       		.byte	0
 2346 0d30 32       		.uleb128 0x32
 2347 0d31 AD0F0000 		.4byte	0xfad
 2348 0d35 2C000000 		.4byte	.LBB125
 2349 0d39 06000000 		.4byte	.LBE125-.LBB125
 2350 0d3d 01       		.byte	0x1
 2351 0d3e 87       		.byte	0x87
 2352 0d3f 790D0000 		.4byte	0xd79
 2353 0d43 2B       		.uleb128 0x2b
 2354 0d44 2C000000 		.4byte	.LBB126
 2355 0d48 06000000 		.4byte	.LBE126-.LBB126
 2356 0d4c 2A       		.uleb128 0x2a
 2357 0d4d 75100000 		.4byte	0x1075
 2358 0d51 2C000000 		.4byte	.LBB127
 2359 0d55 06000000 		.4byte	.LBE127-.LBB127
 2360 0d59 12       		.byte	0x12
 2361 0d5a 7301     		.2byte	0x173
 2362 0d5c 2A       		.uleb128 0x2a
 2363 0d5d 87100000 		.4byte	0x1087
 2364 0d61 2C000000 		.4byte	.LBB128
 2365 0d65 06000000 		.4byte	.LBE128-.LBB128
 2366 0d69 0D       		.byte	0xd
 2367 0d6a CD01     		.2byte	0x1cd
 2368 0d6c 23       		.uleb128 0x23
 2369 0d6d 94100000 		.4byte	0x1094
 2370 0d71 8C020000 		.4byte	.LLST16
 2371 0d75 00       		.byte	0
 2372 0d76 00       		.byte	0
 2373 0d77 00       		.byte	0
 2374 0d78 00       		.byte	0
 2375 0d79 38       		.uleb128 0x38
 2376 0d7a 2C000000 		.4byte	.LVL23
 2377 0d7e 4A110000 		.4byte	0x114a
 2378 0d82 00       		.byte	0
 2379 0d83 36       		.uleb128 0x36
 2380 0d84 7A050000 		.4byte	.LASF137
 2381 0d88 01       		.byte	0x1
 2382 0d89 6F       		.byte	0x6f
 2383 0d8a 00000000 		.4byte	.LFB221
 2384 0d8e 18000000 		.4byte	.LFE221-.LFB221
 2385 0d92 01       		.uleb128 0x1
 2386 0d93 9C       		.byte	0x9c
 2387 0d94 160E0000 		.4byte	0xe16
 2388 0d98 2D       		.uleb128 0x2d
 2389 0d99 637000   		.ascii	"cp\000"
 2390 0d9c 01       		.byte	0x1
 2391 0d9d 6F       		.byte	0x6f
 2392 0d9e 64090000 		.4byte	0x964
 2393 0da2 A0020000 		.4byte	.LLST7
 2394 0da6 1F       		.uleb128 0x1f
ARM GAS  /tmp/cc521pIj.s 			page 43


 2395 0da7 FE050000 		.4byte	.LASF134
 2396 0dab 260E0000 		.4byte	0xe26
 2397 0daf 39       		.uleb128 0x39
 2398 0db0 06000000 		.4byte	.LBB106
 2399 0db4 10000000 		.4byte	.LBE106-.LBB106
 2400 0db8 FC0D0000 		.4byte	0xdfc
 2401 0dbc 2F       		.uleb128 0x2f
 2402 0dbd 747000   		.ascii	"tp\000"
 2403 0dc0 01       		.byte	0x1
 2404 0dc1 75       		.byte	0x75
 2405 0dc2 6C020000 		.4byte	0x26c
 2406 0dc6 30       		.uleb128 0x30
 2407 0dc7 D10F0000 		.4byte	0xfd1
 2408 0dcb 06000000 		.4byte	.LBB107
 2409 0dcf 00000000 		.4byte	.Ldebug_ranges0+0
 2410 0dd3 01       		.byte	0x1
 2411 0dd4 75       		.byte	0x75
 2412 0dd5 F20D0000 		.4byte	0xdf2
 2413 0dd9 23       		.uleb128 0x23
 2414 0dda E20F0000 		.4byte	0xfe2
 2415 0dde D8020000 		.4byte	.LLST9
 2416 0de2 24       		.uleb128 0x24
 2417 0de3 00000000 		.4byte	.Ldebug_ranges0+0
 2418 0de7 25       		.uleb128 0x25
 2419 0de8 EE0F0000 		.4byte	0xfee
 2420 0dec EB020000 		.4byte	.LLST10
 2421 0df0 00       		.byte	0
 2422 0df1 00       		.byte	0
 2423 0df2 3A       		.uleb128 0x3a
 2424 0df3 16000000 		.4byte	.LVL15
 2425 0df7 3E110000 		.4byte	0x113e
 2426 0dfb 00       		.byte	0
 2427 0dfc 3B       		.uleb128 0x3b
 2428 0dfd 30100000 		.4byte	0x1030
 2429 0e01 00000000 		.4byte	.LBB104
 2430 0e05 02000000 		.4byte	.LBE104-.LBB104
 2431 0e09 01       		.byte	0x1
 2432 0e0a 74       		.byte	0x74
 2433 0e0b 23       		.uleb128 0x23
 2434 0e0c 41100000 		.4byte	0x1041
 2435 0e10 FE020000 		.4byte	.LLST8
 2436 0e14 00       		.byte	0
 2437 0e15 00       		.byte	0
 2438 0e16 17       		.uleb128 0x17
 2439 0e17 08070000 		.4byte	0x708
 2440 0e1b 260E0000 		.4byte	0xe26
 2441 0e1f 18       		.uleb128 0x18
 2442 0e20 2C000000 		.4byte	0x2c
 2443 0e24 0D       		.byte	0xd
 2444 0e25 00       		.byte	0
 2445 0e26 0B       		.uleb128 0xb
 2446 0e27 160E0000 		.4byte	0xe16
 2447 0e2b 36       		.uleb128 0x36
 2448 0e2c 62030000 		.4byte	.LASF138
 2449 0e30 01       		.byte	0x1
 2450 0e31 59       		.byte	0x59
 2451 0e32 00000000 		.4byte	.LFB220
ARM GAS  /tmp/cc521pIj.s 			page 44


 2452 0e36 26000000 		.4byte	.LFE220-.LFB220
 2453 0e3a 01       		.uleb128 0x1
 2454 0e3b 9C       		.byte	0x9c
 2455 0e3c 3C0F0000 		.4byte	0xf3c
 2456 0e40 2D       		.uleb128 0x2d
 2457 0e41 637000   		.ascii	"cp\000"
 2458 0e44 01       		.byte	0x1
 2459 0e45 59       		.byte	0x59
 2460 0e46 64090000 		.4byte	0x964
 2461 0e4a 11030000 		.4byte	.LLST1
 2462 0e4e 1F       		.uleb128 0x1f
 2463 0e4f FE050000 		.4byte	.LASF134
 2464 0e53 4C0F0000 		.4byte	0xf4c
 2465 0e57 32       		.uleb128 0x32
 2466 0e58 C80F0000 		.4byte	0xfc8
 2467 0e5c 02000000 		.4byte	.LBB91
 2468 0e60 06000000 		.4byte	.LBE91-.LBB91
 2469 0e64 01       		.byte	0x1
 2470 0e65 5D       		.byte	0x5d
 2471 0e66 960E0000 		.4byte	0xe96
 2472 0e6a 2A       		.uleb128 0x2a
 2473 0e6b 7E100000 		.4byte	0x107e
 2474 0e6f 02000000 		.4byte	.LBB92
 2475 0e73 06000000 		.4byte	.LBE92-.LBB92
 2476 0e77 12       		.byte	0x12
 2477 0e78 5C01     		.2byte	0x15c
 2478 0e7a 2A       		.uleb128 0x2a
 2479 0e7b 87100000 		.4byte	0x1087
 2480 0e7f 02000000 		.4byte	.LBB93
 2481 0e83 06000000 		.4byte	.LBE93-.LBB93
 2482 0e87 0D       		.byte	0xd
 2483 0e88 BF01     		.2byte	0x1bf
 2484 0e8a 23       		.uleb128 0x23
 2485 0e8b 94100000 		.4byte	0x1094
 2486 0e8f 3D030000 		.4byte	.LLST2
 2487 0e93 00       		.byte	0
 2488 0e94 00       		.byte	0
 2489 0e95 00       		.byte	0
 2490 0e96 32       		.uleb128 0x32
 2491 0e97 30100000 		.4byte	0x1030
 2492 0e9b 08000000 		.4byte	.LBB95
 2493 0e9f 02000000 		.4byte	.LBE95-.LBB95
 2494 0ea3 01       		.byte	0x1
 2495 0ea4 5E       		.byte	0x5e
 2496 0ea5 B30E0000 		.4byte	0xeb3
 2497 0ea9 23       		.uleb128 0x23
 2498 0eaa 41100000 		.4byte	0x1041
 2499 0eae 52030000 		.4byte	.LLST3
 2500 0eb2 00       		.byte	0
 2501 0eb3 32       		.uleb128 0x32
 2502 0eb4 D10F0000 		.4byte	0xfd1
 2503 0eb8 0E000000 		.4byte	.LBB97
 2504 0ebc 08000000 		.4byte	.LBE97-.LBB97
 2505 0ec0 01       		.byte	0x1
 2506 0ec1 5F       		.byte	0x5f
 2507 0ec2 E30E0000 		.4byte	0xee3
 2508 0ec6 23       		.uleb128 0x23
ARM GAS  /tmp/cc521pIj.s 			page 45


 2509 0ec7 E20F0000 		.4byte	0xfe2
 2510 0ecb 65030000 		.4byte	.LLST4
 2511 0ecf 2B       		.uleb128 0x2b
 2512 0ed0 0E000000 		.4byte	.LBB98
 2513 0ed4 08000000 		.4byte	.LBE98-.LBB98
 2514 0ed8 25       		.uleb128 0x25
 2515 0ed9 EE0F0000 		.4byte	0xfee
 2516 0edd 78030000 		.4byte	.LLST5
 2517 0ee1 00       		.byte	0
 2518 0ee2 00       		.byte	0
 2519 0ee3 32       		.uleb128 0x32
 2520 0ee4 AD0F0000 		.4byte	0xfad
 2521 0ee8 1E000000 		.4byte	.LBB99
 2522 0eec 06000000 		.4byte	.LBE99-.LBB99
 2523 0ef0 01       		.byte	0x1
 2524 0ef1 61       		.byte	0x61
 2525 0ef2 2C0F0000 		.4byte	0xf2c
 2526 0ef6 2B       		.uleb128 0x2b
 2527 0ef7 1E000000 		.4byte	.LBB100
 2528 0efb 06000000 		.4byte	.LBE100-.LBB100
 2529 0eff 2A       		.uleb128 0x2a
 2530 0f00 75100000 		.4byte	0x1075
 2531 0f04 1E000000 		.4byte	.LBB101
 2532 0f08 06000000 		.4byte	.LBE101-.LBB101
 2533 0f0c 12       		.byte	0x12
 2534 0f0d 7301     		.2byte	0x173
 2535 0f0f 2A       		.uleb128 0x2a
 2536 0f10 87100000 		.4byte	0x1087
 2537 0f14 1E000000 		.4byte	.LBB102
 2538 0f18 06000000 		.4byte	.LBE102-.LBB102
 2539 0f1c 0D       		.byte	0xd
 2540 0f1d CD01     		.2byte	0x1cd
 2541 0f1f 23       		.uleb128 0x23
 2542 0f20 94100000 		.4byte	0x1094
 2543 0f24 8B030000 		.4byte	.LLST6
 2544 0f28 00       		.byte	0
 2545 0f29 00       		.byte	0
 2546 0f2a 00       		.byte	0
 2547 0f2b 00       		.byte	0
 2548 0f2c 28       		.uleb128 0x28
 2549 0f2d 1E000000 		.4byte	.LVL8
 2550 0f31 56110000 		.4byte	0x1156
 2551 0f35 27       		.uleb128 0x27
 2552 0f36 01       		.uleb128 0x1
 2553 0f37 51       		.byte	0x51
 2554 0f38 01       		.uleb128 0x1
 2555 0f39 30       		.byte	0x30
 2556 0f3a 00       		.byte	0
 2557 0f3b 00       		.byte	0
 2558 0f3c 17       		.uleb128 0x17
 2559 0f3d 08070000 		.4byte	0x708
 2560 0f41 4C0F0000 		.4byte	0xf4c
 2561 0f45 18       		.uleb128 0x18
 2562 0f46 2C000000 		.4byte	0x2c
 2563 0f4a 0C       		.byte	0xc
 2564 0f4b 00       		.byte	0
 2565 0f4c 0B       		.uleb128 0xb
ARM GAS  /tmp/cc521pIj.s 			page 46


 2566 0f4d 3C0F0000 		.4byte	0xf3c
 2567 0f51 36       		.uleb128 0x36
 2568 0f52 F4060000 		.4byte	.LASF139
 2569 0f56 01       		.byte	0x1
 2570 0f57 4B       		.byte	0x4b
 2571 0f58 00000000 		.4byte	.LFB219
 2572 0f5c 06000000 		.4byte	.LFE219-.LFB219
 2573 0f60 01       		.uleb128 0x1
 2574 0f61 9C       		.byte	0x9c
 2575 0f62 950F0000 		.4byte	0xf95
 2576 0f66 3C       		.uleb128 0x3c
 2577 0f67 637000   		.ascii	"cp\000"
 2578 0f6a 01       		.byte	0x1
 2579 0f6b 4B       		.byte	0x4b
 2580 0f6c 64090000 		.4byte	0x964
 2581 0f70 01       		.uleb128 0x1
 2582 0f71 50       		.byte	0x50
 2583 0f72 1F       		.uleb128 0x1f
 2584 0f73 FE050000 		.4byte	.LASF134
 2585 0f77 540C0000 		.4byte	0xc54
 2586 0f7b 3B       		.uleb128 0x3b
 2587 0f7c 5B100000 		.4byte	0x105b
 2588 0f80 00000000 		.4byte	.LBB89
 2589 0f84 04000000 		.4byte	.LBE89-.LBB89
 2590 0f88 01       		.byte	0x1
 2591 0f89 4F       		.byte	0x4f
 2592 0f8a 23       		.uleb128 0x23
 2593 0f8b 68100000 		.4byte	0x1068
 2594 0f8f 9F030000 		.4byte	.LLST0
 2595 0f93 00       		.byte	0
 2596 0f94 00       		.byte	0
 2597 0f95 3D       		.uleb128 0x3d
 2598 0f96 77060000 		.4byte	.LASF140
 2599 0f9a 04       		.byte	0x4
 2600 0f9b 90       		.byte	0x90
 2601 0f9c 45080000 		.4byte	0x845
 2602 0fa0 03       		.byte	0x3
 2603 0fa1 3D       		.uleb128 0x3d
 2604 0fa2 A9070000 		.4byte	.LASF141
 2605 0fa6 05       		.byte	0x5
 2606 0fa7 AE       		.byte	0xae
 2607 0fa8 6C020000 		.4byte	0x26c
 2608 0fac 03       		.byte	0x3
 2609 0fad 3E       		.uleb128 0x3e
 2610 0fae 1F080000 		.4byte	.LASF143
 2611 0fb2 12       		.byte	0x12
 2612 0fb3 6601     		.2byte	0x166
 2613 0fb5 03       		.byte	0x3
 2614 0fb6 C80F0000 		.4byte	0xfc8
 2615 0fba 35       		.uleb128 0x35
 2616 0fbb FE050000 		.4byte	.LASF134
 2617 0fbf 4D0B0000 		.4byte	0xb4d
 2618 0fc3 1F080000 		.4byte	.LASF143
 2619 0fc7 00       		.byte	0
 2620 0fc8 3F       		.uleb128 0x3f
 2621 0fc9 07060000 		.4byte	.LASF149
 2622 0fcd 12       		.byte	0x12
ARM GAS  /tmp/cc521pIj.s 			page 47


 2623 0fce 5A01     		.2byte	0x15a
 2624 0fd0 03       		.byte	0x3
 2625 0fd1 40       		.uleb128 0x40
 2626 0fd2 05070000 		.4byte	.LASF145
 2627 0fd6 02       		.byte	0x2
 2628 0fd7 9F02     		.2byte	0x29f
 2629 0fd9 6C020000 		.4byte	0x26c
 2630 0fdd 03       		.byte	0x3
 2631 0fde FA0F0000 		.4byte	0xffa
 2632 0fe2 41       		.uleb128 0x41
 2633 0fe3 74717000 		.ascii	"tqp\000"
 2634 0fe7 02       		.byte	0x2
 2635 0fe8 9F02     		.2byte	0x29f
 2636 0fea FA0F0000 		.4byte	0xffa
 2637 0fee 1D       		.uleb128 0x1d
 2638 0fef 747000   		.ascii	"tp\000"
 2639 0ff2 02       		.byte	0x2
 2640 0ff3 A002     		.2byte	0x2a0
 2641 0ff5 6C020000 		.4byte	0x26c
 2642 0ff9 00       		.byte	0
 2643 0ffa 0A       		.uleb128 0xa
 2644 0ffb 04       		.byte	0x4
 2645 0ffc 96020000 		.4byte	0x296
 2646 1000 3E       		.uleb128 0x3e
 2647 1001 41080000 		.4byte	.LASF144
 2648 1005 02       		.byte	0x2
 2649 1006 8B02     		.2byte	0x28b
 2650 1008 03       		.byte	0x3
 2651 1009 30100000 		.4byte	0x1030
 2652 100d 41       		.uleb128 0x41
 2653 100e 747000   		.ascii	"tp\000"
 2654 1011 02       		.byte	0x2
 2655 1012 8B02     		.2byte	0x28b
 2656 1014 6C020000 		.4byte	0x26c
 2657 1018 41       		.uleb128 0x41
 2658 1019 74717000 		.ascii	"tqp\000"
 2659 101d 02       		.byte	0x2
 2660 101e 8B02     		.2byte	0x28b
 2661 1020 FA0F0000 		.4byte	0xffa
 2662 1024 1D       		.uleb128 0x1d
 2663 1025 637000   		.ascii	"cp\000"
 2664 1028 02       		.byte	0x2
 2665 1029 8D02     		.2byte	0x28d
 2666 102b 6C020000 		.4byte	0x26c
 2667 102f 00       		.byte	0
 2668 1030 40       		.uleb128 0x40
 2669 1031 F1020000 		.4byte	.LASF146
 2670 1035 02       		.byte	0x2
 2671 1036 7502     		.2byte	0x275
 2672 1038 4E100000 		.4byte	0x104e
 2673 103c 03       		.byte	0x3
 2674 103d 4E100000 		.4byte	0x104e
 2675 1041 41       		.uleb128 0x41
 2676 1042 74717000 		.ascii	"tqp\000"
 2677 1046 02       		.byte	0x2
 2678 1047 7502     		.2byte	0x275
 2679 1049 55100000 		.4byte	0x1055
ARM GAS  /tmp/cc521pIj.s 			page 48


 2680 104d 00       		.byte	0
 2681 104e 03       		.uleb128 0x3
 2682 104f 01       		.byte	0x1
 2683 1050 02       		.byte	0x2
 2684 1051 88050000 		.4byte	.LASF147
 2685 1055 0A       		.uleb128 0xa
 2686 1056 04       		.byte	0x4
 2687 1057 A1020000 		.4byte	0x2a1
 2688 105b 3E       		.uleb128 0x3e
 2689 105c 64000000 		.4byte	.LASF148
 2690 1060 02       		.byte	0x2
 2691 1061 5A02     		.2byte	0x25a
 2692 1063 03       		.byte	0x3
 2693 1064 75100000 		.4byte	0x1075
 2694 1068 41       		.uleb128 0x41
 2695 1069 74717000 		.ascii	"tqp\000"
 2696 106d 02       		.byte	0x2
 2697 106e 5A02     		.2byte	0x25a
 2698 1070 FA0F0000 		.4byte	0xffa
 2699 1074 00       		.byte	0
 2700 1075 3F       		.uleb128 0x3f
 2701 1076 B3020000 		.4byte	.LASF150
 2702 107a 0D       		.byte	0xd
 2703 107b CA01     		.2byte	0x1ca
 2704 107d 03       		.byte	0x3
 2705 107e 3F       		.uleb128 0x3f
 2706 107f 93010000 		.4byte	.LASF151
 2707 1083 0D       		.byte	0xd
 2708 1084 BC01     		.2byte	0x1bc
 2709 1086 03       		.byte	0x3
 2710 1087 3E       		.uleb128 0x3e
 2711 1088 40070000 		.4byte	.LASF152
 2712 108c 03       		.byte	0x3
 2713 108d 2002     		.2byte	0x220
 2714 108f 03       		.byte	0x3
 2715 1090 A1100000 		.4byte	0x10a1
 2716 1094 42       		.uleb128 0x42
 2717 1095 5C030000 		.4byte	.LASF153
 2718 1099 03       		.byte	0x3
 2719 109a 2002     		.2byte	0x220
 2720 109c C8000000 		.4byte	0xc8
 2721 10a0 00       		.byte	0
 2722 10a1 43       		.uleb128 0x43
 2723 10a2 200C0000 		.4byte	0xc20
 2724 10a6 00000000 		.4byte	.LFB223
 2725 10aa 24000000 		.4byte	.LFE223-.LFB223
 2726 10ae 01       		.uleb128 0x1
 2727 10af 9C       		.byte	0x9c
 2728 10b0 10110000 		.4byte	0x1110
 2729 10b4 23       		.uleb128 0x23
 2730 10b5 2C0C0000 		.4byte	0xc2c
 2731 10b9 B2030000 		.4byte	.LLST17
 2732 10bd 30       		.uleb128 0x30
 2733 10be 30100000 		.4byte	0x1030
 2734 10c2 02000000 		.4byte	.LBB130
 2735 10c6 48000000 		.4byte	.Ldebug_ranges0+0x48
 2736 10ca 01       		.byte	0x1
ARM GAS  /tmp/cc521pIj.s 			page 49


 2737 10cb 9D       		.byte	0x9d
 2738 10cc DA100000 		.4byte	0x10da
 2739 10d0 23       		.uleb128 0x23
 2740 10d1 41100000 		.4byte	0x1041
 2741 10d5 DE030000 		.4byte	.LLST18
 2742 10d9 00       		.byte	0
 2743 10da 30       		.uleb128 0x30
 2744 10db D10F0000 		.4byte	0xfd1
 2745 10df 0E000000 		.4byte	.LBB133
 2746 10e3 60000000 		.4byte	.Ldebug_ranges0+0x60
 2747 10e7 01       		.byte	0x1
 2748 10e8 9E       		.byte	0x9e
 2749 10e9 06110000 		.4byte	0x1106
 2750 10ed 23       		.uleb128 0x23
 2751 10ee E20F0000 		.4byte	0xfe2
 2752 10f2 F1030000 		.4byte	.LLST19
 2753 10f6 24       		.uleb128 0x24
 2754 10f7 60000000 		.4byte	.Ldebug_ranges0+0x60
 2755 10fb 25       		.uleb128 0x25
 2756 10fc EE0F0000 		.4byte	0xfee
 2757 1100 04040000 		.4byte	.LLST20
 2758 1104 00       		.byte	0
 2759 1105 00       		.byte	0
 2760 1106 38       		.uleb128 0x38
 2761 1107 1A000000 		.4byte	.LVL29
 2762 110b 3E110000 		.4byte	0x113e
 2763 110f 00       		.byte	0
 2764 1110 44       		.uleb128 0x44
 2765 1111 84030000 		.4byte	.LASF154
 2766 1115 84030000 		.4byte	.LASF154
 2767 1119 04       		.byte	0x4
 2768 111a 6D       		.byte	0x6d
 2769 111b 45       		.uleb128 0x45
 2770 111c 0A080000 		.4byte	.LASF155
 2771 1120 0A080000 		.4byte	.LASF155
 2772 1124 02       		.byte	0x2
 2773 1125 1502     		.2byte	0x215
 2774 1127 44       		.uleb128 0x44
 2775 1128 36080000 		.4byte	.LASF156
 2776 112c 36080000 		.4byte	.LASF156
 2777 1130 04       		.byte	0x4
 2778 1131 69       		.byte	0x69
 2779 1132 45       		.uleb128 0x45
 2780 1133 5E060000 		.4byte	.LASF157
 2781 1137 5E060000 		.4byte	.LASF157
 2782 113b 02       		.byte	0x2
 2783 113c 1402     		.2byte	0x214
 2784 113e 45       		.uleb128 0x45
 2785 113f A7060000 		.4byte	.LASF158
 2786 1143 A7060000 		.4byte	.LASF158
 2787 1147 02       		.byte	0x2
 2788 1148 1302     		.2byte	0x213
 2789 114a 45       		.uleb128 0x45
 2790 114b 1A030000 		.4byte	.LASF159
 2791 114f 1A030000 		.4byte	.LASF159
 2792 1153 02       		.byte	0x2
 2793 1154 1702     		.2byte	0x217
ARM GAS  /tmp/cc521pIj.s 			page 50


 2794 1156 45       		.uleb128 0x45
 2795 1157 0D040000 		.4byte	.LASF160
 2796 115b 0D040000 		.4byte	.LASF160
 2797 115f 02       		.byte	0x2
 2798 1160 1602     		.2byte	0x216
 2799 1162 00       		.byte	0
 2800              		.section	.debug_abbrev,"",%progbits
 2801              	.Ldebug_abbrev0:
 2802 0000 01       		.uleb128 0x1
 2803 0001 11       		.uleb128 0x11
 2804 0002 01       		.byte	0x1
 2805 0003 25       		.uleb128 0x25
 2806 0004 0E       		.uleb128 0xe
 2807 0005 13       		.uleb128 0x13
 2808 0006 0B       		.uleb128 0xb
 2809 0007 03       		.uleb128 0x3
 2810 0008 0E       		.uleb128 0xe
 2811 0009 1B       		.uleb128 0x1b
 2812 000a 0E       		.uleb128 0xe
 2813 000b 55       		.uleb128 0x55
 2814 000c 17       		.uleb128 0x17
 2815 000d 11       		.uleb128 0x11
 2816 000e 01       		.uleb128 0x1
 2817 000f 10       		.uleb128 0x10
 2818 0010 17       		.uleb128 0x17
 2819 0011 00       		.byte	0
 2820 0012 00       		.byte	0
 2821 0013 02       		.uleb128 0x2
 2822 0014 24       		.uleb128 0x24
 2823 0015 00       		.byte	0
 2824 0016 0B       		.uleb128 0xb
 2825 0017 0B       		.uleb128 0xb
 2826 0018 3E       		.uleb128 0x3e
 2827 0019 0B       		.uleb128 0xb
 2828 001a 03       		.uleb128 0x3
 2829 001b 08       		.uleb128 0x8
 2830 001c 00       		.byte	0
 2831 001d 00       		.byte	0
 2832 001e 03       		.uleb128 0x3
 2833 001f 24       		.uleb128 0x24
 2834 0020 00       		.byte	0
 2835 0021 0B       		.uleb128 0xb
 2836 0022 0B       		.uleb128 0xb
 2837 0023 3E       		.uleb128 0x3e
 2838 0024 0B       		.uleb128 0xb
 2839 0025 03       		.uleb128 0x3
 2840 0026 0E       		.uleb128 0xe
 2841 0027 00       		.byte	0
 2842 0028 00       		.byte	0
 2843 0029 04       		.uleb128 0x4
 2844 002a 16       		.uleb128 0x16
 2845 002b 00       		.byte	0
 2846 002c 03       		.uleb128 0x3
 2847 002d 0E       		.uleb128 0xe
 2848 002e 3A       		.uleb128 0x3a
 2849 002f 0B       		.uleb128 0xb
 2850 0030 3B       		.uleb128 0x3b
ARM GAS  /tmp/cc521pIj.s 			page 51


 2851 0031 0B       		.uleb128 0xb
 2852 0032 49       		.uleb128 0x49
 2853 0033 13       		.uleb128 0x13
 2854 0034 00       		.byte	0
 2855 0035 00       		.byte	0
 2856 0036 05       		.uleb128 0x5
 2857 0037 35       		.uleb128 0x35
 2858 0038 00       		.byte	0
 2859 0039 49       		.uleb128 0x49
 2860 003a 13       		.uleb128 0x13
 2861 003b 00       		.byte	0
 2862 003c 00       		.byte	0
 2863 003d 06       		.uleb128 0x6
 2864 003e 13       		.uleb128 0x13
 2865 003f 01       		.byte	0x1
 2866 0040 03       		.uleb128 0x3
 2867 0041 0E       		.uleb128 0xe
 2868 0042 0B       		.uleb128 0xb
 2869 0043 0B       		.uleb128 0xb
 2870 0044 3A       		.uleb128 0x3a
 2871 0045 0B       		.uleb128 0xb
 2872 0046 3B       		.uleb128 0x3b
 2873 0047 0B       		.uleb128 0xb
 2874 0048 01       		.uleb128 0x1
 2875 0049 13       		.uleb128 0x13
 2876 004a 00       		.byte	0
 2877 004b 00       		.byte	0
 2878 004c 07       		.uleb128 0x7
 2879 004d 0D       		.uleb128 0xd
 2880 004e 00       		.byte	0
 2881 004f 03       		.uleb128 0x3
 2882 0050 0E       		.uleb128 0xe
 2883 0051 3A       		.uleb128 0x3a
 2884 0052 0B       		.uleb128 0xb
 2885 0053 3B       		.uleb128 0x3b
 2886 0054 0B       		.uleb128 0xb
 2887 0055 49       		.uleb128 0x49
 2888 0056 13       		.uleb128 0x13
 2889 0057 38       		.uleb128 0x38
 2890 0058 0B       		.uleb128 0xb
 2891 0059 00       		.byte	0
 2892 005a 00       		.byte	0
 2893 005b 08       		.uleb128 0x8
 2894 005c 0D       		.uleb128 0xd
 2895 005d 00       		.byte	0
 2896 005e 03       		.uleb128 0x3
 2897 005f 08       		.uleb128 0x8
 2898 0060 3A       		.uleb128 0x3a
 2899 0061 0B       		.uleb128 0xb
 2900 0062 3B       		.uleb128 0x3b
 2901 0063 05       		.uleb128 0x5
 2902 0064 49       		.uleb128 0x49
 2903 0065 13       		.uleb128 0x13
 2904 0066 38       		.uleb128 0x38
 2905 0067 0B       		.uleb128 0xb
 2906 0068 00       		.byte	0
 2907 0069 00       		.byte	0
ARM GAS  /tmp/cc521pIj.s 			page 52


 2908 006a 09       		.uleb128 0x9
 2909 006b 0D       		.uleb128 0xd
 2910 006c 00       		.byte	0
 2911 006d 03       		.uleb128 0x3
 2912 006e 0E       		.uleb128 0xe
 2913 006f 3A       		.uleb128 0x3a
 2914 0070 0B       		.uleb128 0xb
 2915 0071 3B       		.uleb128 0x3b
 2916 0072 05       		.uleb128 0x5
 2917 0073 49       		.uleb128 0x49
 2918 0074 13       		.uleb128 0x13
 2919 0075 38       		.uleb128 0x38
 2920 0076 0B       		.uleb128 0xb
 2921 0077 00       		.byte	0
 2922 0078 00       		.byte	0
 2923 0079 0A       		.uleb128 0xa
 2924 007a 0F       		.uleb128 0xf
 2925 007b 00       		.byte	0
 2926 007c 0B       		.uleb128 0xb
 2927 007d 0B       		.uleb128 0xb
 2928 007e 49       		.uleb128 0x49
 2929 007f 13       		.uleb128 0x13
 2930 0080 00       		.byte	0
 2931 0081 00       		.byte	0
 2932 0082 0B       		.uleb128 0xb
 2933 0083 26       		.uleb128 0x26
 2934 0084 00       		.byte	0
 2935 0085 49       		.uleb128 0x49
 2936 0086 13       		.uleb128 0x13
 2937 0087 00       		.byte	0
 2938 0088 00       		.byte	0
 2939 0089 0C       		.uleb128 0xc
 2940 008a 13       		.uleb128 0x13
 2941 008b 01       		.byte	0x1
 2942 008c 03       		.uleb128 0x3
 2943 008d 0E       		.uleb128 0xe
 2944 008e 0B       		.uleb128 0xb
 2945 008f 0B       		.uleb128 0xb
 2946 0090 3A       		.uleb128 0x3a
 2947 0091 0B       		.uleb128 0xb
 2948 0092 3B       		.uleb128 0x3b
 2949 0093 05       		.uleb128 0x5
 2950 0094 01       		.uleb128 0x1
 2951 0095 13       		.uleb128 0x13
 2952 0096 00       		.byte	0
 2953 0097 00       		.byte	0
 2954 0098 0D       		.uleb128 0xd
 2955 0099 15       		.uleb128 0x15
 2956 009a 01       		.byte	0x1
 2957 009b 27       		.uleb128 0x27
 2958 009c 19       		.uleb128 0x19
 2959 009d 01       		.uleb128 0x1
 2960 009e 13       		.uleb128 0x13
 2961 009f 00       		.byte	0
 2962 00a0 00       		.byte	0
 2963 00a1 0E       		.uleb128 0xe
 2964 00a2 05       		.uleb128 0x5
ARM GAS  /tmp/cc521pIj.s 			page 53


 2965 00a3 00       		.byte	0
 2966 00a4 49       		.uleb128 0x49
 2967 00a5 13       		.uleb128 0x13
 2968 00a6 00       		.byte	0
 2969 00a7 00       		.byte	0
 2970 00a8 0F       		.uleb128 0xf
 2971 00a9 0F       		.uleb128 0xf
 2972 00aa 00       		.byte	0
 2973 00ab 0B       		.uleb128 0xb
 2974 00ac 0B       		.uleb128 0xb
 2975 00ad 00       		.byte	0
 2976 00ae 00       		.byte	0
 2977 00af 10       		.uleb128 0x10
 2978 00b0 13       		.uleb128 0x13
 2979 00b1 01       		.byte	0x1
 2980 00b2 03       		.uleb128 0x3
 2981 00b3 0E       		.uleb128 0xe
 2982 00b4 0B       		.uleb128 0xb
 2983 00b5 05       		.uleb128 0x5
 2984 00b6 3A       		.uleb128 0x3a
 2985 00b7 0B       		.uleb128 0xb
 2986 00b8 3B       		.uleb128 0x3b
 2987 00b9 05       		.uleb128 0x5
 2988 00ba 01       		.uleb128 0x1
 2989 00bb 13       		.uleb128 0x13
 2990 00bc 00       		.byte	0
 2991 00bd 00       		.byte	0
 2992 00be 11       		.uleb128 0x11
 2993 00bf 34       		.uleb128 0x34
 2994 00c0 00       		.byte	0
 2995 00c1 03       		.uleb128 0x3
 2996 00c2 0E       		.uleb128 0xe
 2997 00c3 3A       		.uleb128 0x3a
 2998 00c4 0B       		.uleb128 0xb
 2999 00c5 3B       		.uleb128 0x3b
 3000 00c6 05       		.uleb128 0x5
 3001 00c7 49       		.uleb128 0x49
 3002 00c8 13       		.uleb128 0x13
 3003 00c9 3F       		.uleb128 0x3f
 3004 00ca 19       		.uleb128 0x19
 3005 00cb 3C       		.uleb128 0x3c
 3006 00cc 19       		.uleb128 0x19
 3007 00cd 00       		.byte	0
 3008 00ce 00       		.byte	0
 3009 00cf 12       		.uleb128 0x12
 3010 00d0 34       		.uleb128 0x34
 3011 00d1 00       		.byte	0
 3012 00d2 03       		.uleb128 0x3
 3013 00d3 0E       		.uleb128 0xe
 3014 00d4 3A       		.uleb128 0x3a
 3015 00d5 0B       		.uleb128 0xb
 3016 00d6 3B       		.uleb128 0x3b
 3017 00d7 0B       		.uleb128 0xb
 3018 00d8 49       		.uleb128 0x49
 3019 00d9 13       		.uleb128 0x13
 3020 00da 3F       		.uleb128 0x3f
 3021 00db 19       		.uleb128 0x19
ARM GAS  /tmp/cc521pIj.s 			page 54


 3022 00dc 3C       		.uleb128 0x3c
 3023 00dd 19       		.uleb128 0x19
 3024 00de 00       		.byte	0
 3025 00df 00       		.byte	0
 3026 00e0 13       		.uleb128 0x13
 3027 00e1 0D       		.uleb128 0xd
 3028 00e2 00       		.byte	0
 3029 00e3 03       		.uleb128 0x3
 3030 00e4 08       		.uleb128 0x8
 3031 00e5 3A       		.uleb128 0x3a
 3032 00e6 0B       		.uleb128 0xb
 3033 00e7 3B       		.uleb128 0x3b
 3034 00e8 0B       		.uleb128 0xb
 3035 00e9 49       		.uleb128 0x49
 3036 00ea 13       		.uleb128 0x13
 3037 00eb 38       		.uleb128 0x38
 3038 00ec 0B       		.uleb128 0xb
 3039 00ed 00       		.byte	0
 3040 00ee 00       		.byte	0
 3041 00ef 14       		.uleb128 0x14
 3042 00f0 13       		.uleb128 0x13
 3043 00f1 01       		.byte	0x1
 3044 00f2 0B       		.uleb128 0xb
 3045 00f3 0B       		.uleb128 0xb
 3046 00f4 3A       		.uleb128 0x3a
 3047 00f5 0B       		.uleb128 0xb
 3048 00f6 3B       		.uleb128 0x3b
 3049 00f7 0B       		.uleb128 0xb
 3050 00f8 01       		.uleb128 0x1
 3051 00f9 13       		.uleb128 0x13
 3052 00fa 00       		.byte	0
 3053 00fb 00       		.byte	0
 3054 00fc 15       		.uleb128 0x15
 3055 00fd 17       		.uleb128 0x17
 3056 00fe 01       		.byte	0x1
 3057 00ff 0B       		.uleb128 0xb
 3058 0100 0B       		.uleb128 0xb
 3059 0101 3A       		.uleb128 0x3a
 3060 0102 0B       		.uleb128 0xb
 3061 0103 3B       		.uleb128 0x3b
 3062 0104 0B       		.uleb128 0xb
 3063 0105 01       		.uleb128 0x1
 3064 0106 13       		.uleb128 0x13
 3065 0107 00       		.byte	0
 3066 0108 00       		.byte	0
 3067 0109 16       		.uleb128 0x16
 3068 010a 0D       		.uleb128 0xd
 3069 010b 00       		.byte	0
 3070 010c 03       		.uleb128 0x3
 3071 010d 0E       		.uleb128 0xe
 3072 010e 3A       		.uleb128 0x3a
 3073 010f 0B       		.uleb128 0xb
 3074 0110 3B       		.uleb128 0x3b
 3075 0111 05       		.uleb128 0x5
 3076 0112 49       		.uleb128 0x49
 3077 0113 13       		.uleb128 0x13
 3078 0114 00       		.byte	0
ARM GAS  /tmp/cc521pIj.s 			page 55


 3079 0115 00       		.byte	0
 3080 0116 17       		.uleb128 0x17
 3081 0117 01       		.uleb128 0x1
 3082 0118 01       		.byte	0x1
 3083 0119 49       		.uleb128 0x49
 3084 011a 13       		.uleb128 0x13
 3085 011b 01       		.uleb128 0x1
 3086 011c 13       		.uleb128 0x13
 3087 011d 00       		.byte	0
 3088 011e 00       		.byte	0
 3089 011f 18       		.uleb128 0x18
 3090 0120 21       		.uleb128 0x21
 3091 0121 00       		.byte	0
 3092 0122 49       		.uleb128 0x49
 3093 0123 13       		.uleb128 0x13
 3094 0124 2F       		.uleb128 0x2f
 3095 0125 0B       		.uleb128 0xb
 3096 0126 00       		.byte	0
 3097 0127 00       		.byte	0
 3098 0128 19       		.uleb128 0x19
 3099 0129 34       		.uleb128 0x34
 3100 012a 00       		.byte	0
 3101 012b 03       		.uleb128 0x3
 3102 012c 08       		.uleb128 0x8
 3103 012d 3A       		.uleb128 0x3a
 3104 012e 0B       		.uleb128 0xb
 3105 012f 3B       		.uleb128 0x3b
 3106 0130 05       		.uleb128 0x5
 3107 0131 49       		.uleb128 0x49
 3108 0132 13       		.uleb128 0x13
 3109 0133 3F       		.uleb128 0x3f
 3110 0134 19       		.uleb128 0x19
 3111 0135 3C       		.uleb128 0x3c
 3112 0136 19       		.uleb128 0x19
 3113 0137 00       		.byte	0
 3114 0138 00       		.byte	0
 3115 0139 1A       		.uleb128 0x1a
 3116 013a 2E       		.uleb128 0x2e
 3117 013b 01       		.byte	0x1
 3118 013c 3F       		.uleb128 0x3f
 3119 013d 19       		.uleb128 0x19
 3120 013e 03       		.uleb128 0x3
 3121 013f 0E       		.uleb128 0xe
 3122 0140 3A       		.uleb128 0x3a
 3123 0141 0B       		.uleb128 0xb
 3124 0142 3B       		.uleb128 0x3b
 3125 0143 05       		.uleb128 0x5
 3126 0144 27       		.uleb128 0x27
 3127 0145 19       		.uleb128 0x19
 3128 0146 49       		.uleb128 0x49
 3129 0147 13       		.uleb128 0x13
 3130 0148 11       		.uleb128 0x11
 3131 0149 01       		.uleb128 0x1
 3132 014a 12       		.uleb128 0x12
 3133 014b 06       		.uleb128 0x6
 3134 014c 40       		.uleb128 0x40
 3135 014d 18       		.uleb128 0x18
ARM GAS  /tmp/cc521pIj.s 			page 56


 3136 014e 9742     		.uleb128 0x2117
 3137 0150 19       		.uleb128 0x19
 3138 0151 01       		.uleb128 0x1
 3139 0152 13       		.uleb128 0x13
 3140 0153 00       		.byte	0
 3141 0154 00       		.byte	0
 3142 0155 1B       		.uleb128 0x1b
 3143 0156 05       		.uleb128 0x5
 3144 0157 00       		.byte	0
 3145 0158 03       		.uleb128 0x3
 3146 0159 08       		.uleb128 0x8
 3147 015a 3A       		.uleb128 0x3a
 3148 015b 0B       		.uleb128 0xb
 3149 015c 3B       		.uleb128 0x3b
 3150 015d 05       		.uleb128 0x5
 3151 015e 49       		.uleb128 0x49
 3152 015f 13       		.uleb128 0x13
 3153 0160 02       		.uleb128 0x2
 3154 0161 17       		.uleb128 0x17
 3155 0162 00       		.byte	0
 3156 0163 00       		.byte	0
 3157 0164 1C       		.uleb128 0x1c
 3158 0165 05       		.uleb128 0x5
 3159 0166 00       		.byte	0
 3160 0167 03       		.uleb128 0x3
 3161 0168 0E       		.uleb128 0xe
 3162 0169 3A       		.uleb128 0x3a
 3163 016a 0B       		.uleb128 0xb
 3164 016b 3B       		.uleb128 0x3b
 3165 016c 05       		.uleb128 0x5
 3166 016d 49       		.uleb128 0x49
 3167 016e 13       		.uleb128 0x13
 3168 016f 02       		.uleb128 0x2
 3169 0170 17       		.uleb128 0x17
 3170 0171 00       		.byte	0
 3171 0172 00       		.byte	0
 3172 0173 1D       		.uleb128 0x1d
 3173 0174 34       		.uleb128 0x34
 3174 0175 00       		.byte	0
 3175 0176 03       		.uleb128 0x3
 3176 0177 08       		.uleb128 0x8
 3177 0178 3A       		.uleb128 0x3a
 3178 0179 0B       		.uleb128 0xb
 3179 017a 3B       		.uleb128 0x3b
 3180 017b 05       		.uleb128 0x5
 3181 017c 49       		.uleb128 0x49
 3182 017d 13       		.uleb128 0x13
 3183 017e 00       		.byte	0
 3184 017f 00       		.byte	0
 3185 0180 1E       		.uleb128 0x1e
 3186 0181 34       		.uleb128 0x34
 3187 0182 00       		.byte	0
 3188 0183 03       		.uleb128 0x3
 3189 0184 08       		.uleb128 0x8
 3190 0185 3A       		.uleb128 0x3a
 3191 0186 0B       		.uleb128 0xb
 3192 0187 3B       		.uleb128 0x3b
ARM GAS  /tmp/cc521pIj.s 			page 57


 3193 0188 05       		.uleb128 0x5
 3194 0189 49       		.uleb128 0x49
 3195 018a 13       		.uleb128 0x13
 3196 018b 02       		.uleb128 0x2
 3197 018c 17       		.uleb128 0x17
 3198 018d 00       		.byte	0
 3199 018e 00       		.byte	0
 3200 018f 1F       		.uleb128 0x1f
 3201 0190 34       		.uleb128 0x34
 3202 0191 00       		.byte	0
 3203 0192 03       		.uleb128 0x3
 3204 0193 0E       		.uleb128 0xe
 3205 0194 49       		.uleb128 0x49
 3206 0195 13       		.uleb128 0x13
 3207 0196 34       		.uleb128 0x34
 3208 0197 19       		.uleb128 0x19
 3209 0198 00       		.byte	0
 3210 0199 00       		.byte	0
 3211 019a 20       		.uleb128 0x20
 3212 019b 1D       		.uleb128 0x1d
 3213 019c 01       		.byte	0x1
 3214 019d 31       		.uleb128 0x31
 3215 019e 13       		.uleb128 0x13
 3216 019f 11       		.uleb128 0x11
 3217 01a0 01       		.uleb128 0x1
 3218 01a1 12       		.uleb128 0x12
 3219 01a2 06       		.uleb128 0x6
 3220 01a3 58       		.uleb128 0x58
 3221 01a4 0B       		.uleb128 0xb
 3222 01a5 59       		.uleb128 0x59
 3223 01a6 05       		.uleb128 0x5
 3224 01a7 01       		.uleb128 0x1
 3225 01a8 13       		.uleb128 0x13
 3226 01a9 00       		.byte	0
 3227 01aa 00       		.byte	0
 3228 01ab 21       		.uleb128 0x21
 3229 01ac 1D       		.uleb128 0x1d
 3230 01ad 00       		.byte	0
 3231 01ae 31       		.uleb128 0x31
 3232 01af 13       		.uleb128 0x13
 3233 01b0 11       		.uleb128 0x11
 3234 01b1 01       		.uleb128 0x1
 3235 01b2 12       		.uleb128 0x12
 3236 01b3 06       		.uleb128 0x6
 3237 01b4 58       		.uleb128 0x58
 3238 01b5 0B       		.uleb128 0xb
 3239 01b6 59       		.uleb128 0x59
 3240 01b7 0B       		.uleb128 0xb
 3241 01b8 00       		.byte	0
 3242 01b9 00       		.byte	0
 3243 01ba 22       		.uleb128 0x22
 3244 01bb 1D       		.uleb128 0x1d
 3245 01bc 01       		.byte	0x1
 3246 01bd 31       		.uleb128 0x31
 3247 01be 13       		.uleb128 0x13
 3248 01bf 52       		.uleb128 0x52
 3249 01c0 01       		.uleb128 0x1
ARM GAS  /tmp/cc521pIj.s 			page 58


 3250 01c1 55       		.uleb128 0x55
 3251 01c2 17       		.uleb128 0x17
 3252 01c3 58       		.uleb128 0x58
 3253 01c4 0B       		.uleb128 0xb
 3254 01c5 59       		.uleb128 0x59
 3255 01c6 05       		.uleb128 0x5
 3256 01c7 01       		.uleb128 0x1
 3257 01c8 13       		.uleb128 0x13
 3258 01c9 00       		.byte	0
 3259 01ca 00       		.byte	0
 3260 01cb 23       		.uleb128 0x23
 3261 01cc 05       		.uleb128 0x5
 3262 01cd 00       		.byte	0
 3263 01ce 31       		.uleb128 0x31
 3264 01cf 13       		.uleb128 0x13
 3265 01d0 02       		.uleb128 0x2
 3266 01d1 17       		.uleb128 0x17
 3267 01d2 00       		.byte	0
 3268 01d3 00       		.byte	0
 3269 01d4 24       		.uleb128 0x24
 3270 01d5 0B       		.uleb128 0xb
 3271 01d6 01       		.byte	0x1
 3272 01d7 55       		.uleb128 0x55
 3273 01d8 17       		.uleb128 0x17
 3274 01d9 00       		.byte	0
 3275 01da 00       		.byte	0
 3276 01db 25       		.uleb128 0x25
 3277 01dc 34       		.uleb128 0x34
 3278 01dd 00       		.byte	0
 3279 01de 31       		.uleb128 0x31
 3280 01df 13       		.uleb128 0x13
 3281 01e0 02       		.uleb128 0x2
 3282 01e1 17       		.uleb128 0x17
 3283 01e2 00       		.byte	0
 3284 01e3 00       		.byte	0
 3285 01e4 26       		.uleb128 0x26
 3286 01e5 898201   		.uleb128 0x4109
 3287 01e8 01       		.byte	0x1
 3288 01e9 11       		.uleb128 0x11
 3289 01ea 01       		.uleb128 0x1
 3290 01eb 31       		.uleb128 0x31
 3291 01ec 13       		.uleb128 0x13
 3292 01ed 01       		.uleb128 0x1
 3293 01ee 13       		.uleb128 0x13
 3294 01ef 00       		.byte	0
 3295 01f0 00       		.byte	0
 3296 01f1 27       		.uleb128 0x27
 3297 01f2 8A8201   		.uleb128 0x410a
 3298 01f5 00       		.byte	0
 3299 01f6 02       		.uleb128 0x2
 3300 01f7 18       		.uleb128 0x18
 3301 01f8 9142     		.uleb128 0x2111
 3302 01fa 18       		.uleb128 0x18
 3303 01fb 00       		.byte	0
 3304 01fc 00       		.byte	0
 3305 01fd 28       		.uleb128 0x28
 3306 01fe 898201   		.uleb128 0x4109
ARM GAS  /tmp/cc521pIj.s 			page 59


 3307 0201 01       		.byte	0x1
 3308 0202 11       		.uleb128 0x11
 3309 0203 01       		.uleb128 0x1
 3310 0204 31       		.uleb128 0x31
 3311 0205 13       		.uleb128 0x13
 3312 0206 00       		.byte	0
 3313 0207 00       		.byte	0
 3314 0208 29       		.uleb128 0x29
 3315 0209 34       		.uleb128 0x34
 3316 020a 00       		.byte	0
 3317 020b 03       		.uleb128 0x3
 3318 020c 08       		.uleb128 0x8
 3319 020d 3A       		.uleb128 0x3a
 3320 020e 0B       		.uleb128 0xb
 3321 020f 3B       		.uleb128 0x3b
 3322 0210 05       		.uleb128 0x5
 3323 0211 49       		.uleb128 0x49
 3324 0212 13       		.uleb128 0x13
 3325 0213 02       		.uleb128 0x2
 3326 0214 18       		.uleb128 0x18
 3327 0215 00       		.byte	0
 3328 0216 00       		.byte	0
 3329 0217 2A       		.uleb128 0x2a
 3330 0218 1D       		.uleb128 0x1d
 3331 0219 01       		.byte	0x1
 3332 021a 31       		.uleb128 0x31
 3333 021b 13       		.uleb128 0x13
 3334 021c 11       		.uleb128 0x11
 3335 021d 01       		.uleb128 0x1
 3336 021e 12       		.uleb128 0x12
 3337 021f 06       		.uleb128 0x6
 3338 0220 58       		.uleb128 0x58
 3339 0221 0B       		.uleb128 0xb
 3340 0222 59       		.uleb128 0x59
 3341 0223 05       		.uleb128 0x5
 3342 0224 00       		.byte	0
 3343 0225 00       		.byte	0
 3344 0226 2B       		.uleb128 0x2b
 3345 0227 0B       		.uleb128 0xb
 3346 0228 01       		.byte	0x1
 3347 0229 11       		.uleb128 0x11
 3348 022a 01       		.uleb128 0x1
 3349 022b 12       		.uleb128 0x12
 3350 022c 06       		.uleb128 0x6
 3351 022d 00       		.byte	0
 3352 022e 00       		.byte	0
 3353 022f 2C       		.uleb128 0x2c
 3354 0230 2E       		.uleb128 0x2e
 3355 0231 01       		.byte	0x1
 3356 0232 3F       		.uleb128 0x3f
 3357 0233 19       		.uleb128 0x19
 3358 0234 03       		.uleb128 0x3
 3359 0235 0E       		.uleb128 0xe
 3360 0236 3A       		.uleb128 0x3a
 3361 0237 0B       		.uleb128 0xb
 3362 0238 3B       		.uleb128 0x3b
 3363 0239 0B       		.uleb128 0xb
ARM GAS  /tmp/cc521pIj.s 			page 60


 3364 023a 27       		.uleb128 0x27
 3365 023b 19       		.uleb128 0x19
 3366 023c 49       		.uleb128 0x49
 3367 023d 13       		.uleb128 0x13
 3368 023e 11       		.uleb128 0x11
 3369 023f 01       		.uleb128 0x1
 3370 0240 12       		.uleb128 0x12
 3371 0241 06       		.uleb128 0x6
 3372 0242 40       		.uleb128 0x40
 3373 0243 18       		.uleb128 0x18
 3374 0244 9742     		.uleb128 0x2117
 3375 0246 19       		.uleb128 0x19
 3376 0247 01       		.uleb128 0x1
 3377 0248 13       		.uleb128 0x13
 3378 0249 00       		.byte	0
 3379 024a 00       		.byte	0
 3380 024b 2D       		.uleb128 0x2d
 3381 024c 05       		.uleb128 0x5
 3382 024d 00       		.byte	0
 3383 024e 03       		.uleb128 0x3
 3384 024f 08       		.uleb128 0x8
 3385 0250 3A       		.uleb128 0x3a
 3386 0251 0B       		.uleb128 0xb
 3387 0252 3B       		.uleb128 0x3b
 3388 0253 0B       		.uleb128 0xb
 3389 0254 49       		.uleb128 0x49
 3390 0255 13       		.uleb128 0x13
 3391 0256 02       		.uleb128 0x2
 3392 0257 17       		.uleb128 0x17
 3393 0258 00       		.byte	0
 3394 0259 00       		.byte	0
 3395 025a 2E       		.uleb128 0x2e
 3396 025b 34       		.uleb128 0x34
 3397 025c 00       		.byte	0
 3398 025d 03       		.uleb128 0x3
 3399 025e 08       		.uleb128 0x8
 3400 025f 3A       		.uleb128 0x3a
 3401 0260 0B       		.uleb128 0xb
 3402 0261 3B       		.uleb128 0x3b
 3403 0262 0B       		.uleb128 0xb
 3404 0263 49       		.uleb128 0x49
 3405 0264 13       		.uleb128 0x13
 3406 0265 02       		.uleb128 0x2
 3407 0266 17       		.uleb128 0x17
 3408 0267 00       		.byte	0
 3409 0268 00       		.byte	0
 3410 0269 2F       		.uleb128 0x2f
 3411 026a 34       		.uleb128 0x34
 3412 026b 00       		.byte	0
 3413 026c 03       		.uleb128 0x3
 3414 026d 08       		.uleb128 0x8
 3415 026e 3A       		.uleb128 0x3a
 3416 026f 0B       		.uleb128 0xb
 3417 0270 3B       		.uleb128 0x3b
 3418 0271 0B       		.uleb128 0xb
 3419 0272 49       		.uleb128 0x49
 3420 0273 13       		.uleb128 0x13
ARM GAS  /tmp/cc521pIj.s 			page 61


 3421 0274 00       		.byte	0
 3422 0275 00       		.byte	0
 3423 0276 30       		.uleb128 0x30
 3424 0277 1D       		.uleb128 0x1d
 3425 0278 01       		.byte	0x1
 3426 0279 31       		.uleb128 0x31
 3427 027a 13       		.uleb128 0x13
 3428 027b 52       		.uleb128 0x52
 3429 027c 01       		.uleb128 0x1
 3430 027d 55       		.uleb128 0x55
 3431 027e 17       		.uleb128 0x17
 3432 027f 58       		.uleb128 0x58
 3433 0280 0B       		.uleb128 0xb
 3434 0281 59       		.uleb128 0x59
 3435 0282 0B       		.uleb128 0xb
 3436 0283 01       		.uleb128 0x1
 3437 0284 13       		.uleb128 0x13
 3438 0285 00       		.byte	0
 3439 0286 00       		.byte	0
 3440 0287 31       		.uleb128 0x31
 3441 0288 34       		.uleb128 0x34
 3442 0289 00       		.byte	0
 3443 028a 03       		.uleb128 0x3
 3444 028b 08       		.uleb128 0x8
 3445 028c 3A       		.uleb128 0x3a
 3446 028d 0B       		.uleb128 0xb
 3447 028e 3B       		.uleb128 0x3b
 3448 028f 0B       		.uleb128 0xb
 3449 0290 49       		.uleb128 0x49
 3450 0291 13       		.uleb128 0x13
 3451 0292 02       		.uleb128 0x2
 3452 0293 18       		.uleb128 0x18
 3453 0294 00       		.byte	0
 3454 0295 00       		.byte	0
 3455 0296 32       		.uleb128 0x32
 3456 0297 1D       		.uleb128 0x1d
 3457 0298 01       		.byte	0x1
 3458 0299 31       		.uleb128 0x31
 3459 029a 13       		.uleb128 0x13
 3460 029b 11       		.uleb128 0x11
 3461 029c 01       		.uleb128 0x1
 3462 029d 12       		.uleb128 0x12
 3463 029e 06       		.uleb128 0x6
 3464 029f 58       		.uleb128 0x58
 3465 02a0 0B       		.uleb128 0xb
 3466 02a1 59       		.uleb128 0x59
 3467 02a2 0B       		.uleb128 0xb
 3468 02a3 01       		.uleb128 0x1
 3469 02a4 13       		.uleb128 0x13
 3470 02a5 00       		.byte	0
 3471 02a6 00       		.byte	0
 3472 02a7 33       		.uleb128 0x33
 3473 02a8 2E       		.uleb128 0x2e
 3474 02a9 01       		.byte	0x1
 3475 02aa 3F       		.uleb128 0x3f
 3476 02ab 19       		.uleb128 0x19
 3477 02ac 03       		.uleb128 0x3
ARM GAS  /tmp/cc521pIj.s 			page 62


 3478 02ad 0E       		.uleb128 0xe
 3479 02ae 3A       		.uleb128 0x3a
 3480 02af 0B       		.uleb128 0xb
 3481 02b0 3B       		.uleb128 0x3b
 3482 02b1 0B       		.uleb128 0xb
 3483 02b2 27       		.uleb128 0x27
 3484 02b3 19       		.uleb128 0x19
 3485 02b4 20       		.uleb128 0x20
 3486 02b5 0B       		.uleb128 0xb
 3487 02b6 01       		.uleb128 0x1
 3488 02b7 13       		.uleb128 0x13
 3489 02b8 00       		.byte	0
 3490 02b9 00       		.byte	0
 3491 02ba 34       		.uleb128 0x34
 3492 02bb 05       		.uleb128 0x5
 3493 02bc 00       		.byte	0
 3494 02bd 03       		.uleb128 0x3
 3495 02be 08       		.uleb128 0x8
 3496 02bf 3A       		.uleb128 0x3a
 3497 02c0 0B       		.uleb128 0xb
 3498 02c1 3B       		.uleb128 0x3b
 3499 02c2 0B       		.uleb128 0xb
 3500 02c3 49       		.uleb128 0x49
 3501 02c4 13       		.uleb128 0x13
 3502 02c5 00       		.byte	0
 3503 02c6 00       		.byte	0
 3504 02c7 35       		.uleb128 0x35
 3505 02c8 34       		.uleb128 0x34
 3506 02c9 00       		.byte	0
 3507 02ca 03       		.uleb128 0x3
 3508 02cb 0E       		.uleb128 0xe
 3509 02cc 49       		.uleb128 0x49
 3510 02cd 13       		.uleb128 0x13
 3511 02ce 34       		.uleb128 0x34
 3512 02cf 19       		.uleb128 0x19
 3513 02d0 1C       		.uleb128 0x1c
 3514 02d1 0E       		.uleb128 0xe
 3515 02d2 00       		.byte	0
 3516 02d3 00       		.byte	0
 3517 02d4 36       		.uleb128 0x36
 3518 02d5 2E       		.uleb128 0x2e
 3519 02d6 01       		.byte	0x1
 3520 02d7 3F       		.uleb128 0x3f
 3521 02d8 19       		.uleb128 0x19
 3522 02d9 03       		.uleb128 0x3
 3523 02da 0E       		.uleb128 0xe
 3524 02db 3A       		.uleb128 0x3a
 3525 02dc 0B       		.uleb128 0xb
 3526 02dd 3B       		.uleb128 0x3b
 3527 02de 0B       		.uleb128 0xb
 3528 02df 27       		.uleb128 0x27
 3529 02e0 19       		.uleb128 0x19
 3530 02e1 11       		.uleb128 0x11
 3531 02e2 01       		.uleb128 0x1
 3532 02e3 12       		.uleb128 0x12
 3533 02e4 06       		.uleb128 0x6
 3534 02e5 40       		.uleb128 0x40
ARM GAS  /tmp/cc521pIj.s 			page 63


 3535 02e6 18       		.uleb128 0x18
 3536 02e7 9742     		.uleb128 0x2117
 3537 02e9 19       		.uleb128 0x19
 3538 02ea 01       		.uleb128 0x1
 3539 02eb 13       		.uleb128 0x13
 3540 02ec 00       		.byte	0
 3541 02ed 00       		.byte	0
 3542 02ee 37       		.uleb128 0x37
 3543 02ef 05       		.uleb128 0x5
 3544 02f0 00       		.byte	0
 3545 02f1 31       		.uleb128 0x31
 3546 02f2 13       		.uleb128 0x13
 3547 02f3 00       		.byte	0
 3548 02f4 00       		.byte	0
 3549 02f5 38       		.uleb128 0x38
 3550 02f6 898201   		.uleb128 0x4109
 3551 02f9 00       		.byte	0
 3552 02fa 11       		.uleb128 0x11
 3553 02fb 01       		.uleb128 0x1
 3554 02fc 31       		.uleb128 0x31
 3555 02fd 13       		.uleb128 0x13
 3556 02fe 00       		.byte	0
 3557 02ff 00       		.byte	0
 3558 0300 39       		.uleb128 0x39
 3559 0301 0B       		.uleb128 0xb
 3560 0302 01       		.byte	0x1
 3561 0303 11       		.uleb128 0x11
 3562 0304 01       		.uleb128 0x1
 3563 0305 12       		.uleb128 0x12
 3564 0306 06       		.uleb128 0x6
 3565 0307 01       		.uleb128 0x1
 3566 0308 13       		.uleb128 0x13
 3567 0309 00       		.byte	0
 3568 030a 00       		.byte	0
 3569 030b 3A       		.uleb128 0x3a
 3570 030c 898201   		.uleb128 0x4109
 3571 030f 00       		.byte	0
 3572 0310 11       		.uleb128 0x11
 3573 0311 01       		.uleb128 0x1
 3574 0312 9542     		.uleb128 0x2115
 3575 0314 19       		.uleb128 0x19
 3576 0315 31       		.uleb128 0x31
 3577 0316 13       		.uleb128 0x13
 3578 0317 00       		.byte	0
 3579 0318 00       		.byte	0
 3580 0319 3B       		.uleb128 0x3b
 3581 031a 1D       		.uleb128 0x1d
 3582 031b 01       		.byte	0x1
 3583 031c 31       		.uleb128 0x31
 3584 031d 13       		.uleb128 0x13
 3585 031e 11       		.uleb128 0x11
 3586 031f 01       		.uleb128 0x1
 3587 0320 12       		.uleb128 0x12
 3588 0321 06       		.uleb128 0x6
 3589 0322 58       		.uleb128 0x58
 3590 0323 0B       		.uleb128 0xb
 3591 0324 59       		.uleb128 0x59
ARM GAS  /tmp/cc521pIj.s 			page 64


 3592 0325 0B       		.uleb128 0xb
 3593 0326 00       		.byte	0
 3594 0327 00       		.byte	0
 3595 0328 3C       		.uleb128 0x3c
 3596 0329 05       		.uleb128 0x5
 3597 032a 00       		.byte	0
 3598 032b 03       		.uleb128 0x3
 3599 032c 08       		.uleb128 0x8
 3600 032d 3A       		.uleb128 0x3a
 3601 032e 0B       		.uleb128 0xb
 3602 032f 3B       		.uleb128 0x3b
 3603 0330 0B       		.uleb128 0xb
 3604 0331 49       		.uleb128 0x49
 3605 0332 13       		.uleb128 0x13
 3606 0333 02       		.uleb128 0x2
 3607 0334 18       		.uleb128 0x18
 3608 0335 00       		.byte	0
 3609 0336 00       		.byte	0
 3610 0337 3D       		.uleb128 0x3d
 3611 0338 2E       		.uleb128 0x2e
 3612 0339 00       		.byte	0
 3613 033a 03       		.uleb128 0x3
 3614 033b 0E       		.uleb128 0xe
 3615 033c 3A       		.uleb128 0x3a
 3616 033d 0B       		.uleb128 0xb
 3617 033e 3B       		.uleb128 0x3b
 3618 033f 0B       		.uleb128 0xb
 3619 0340 27       		.uleb128 0x27
 3620 0341 19       		.uleb128 0x19
 3621 0342 49       		.uleb128 0x49
 3622 0343 13       		.uleb128 0x13
 3623 0344 20       		.uleb128 0x20
 3624 0345 0B       		.uleb128 0xb
 3625 0346 00       		.byte	0
 3626 0347 00       		.byte	0
 3627 0348 3E       		.uleb128 0x3e
 3628 0349 2E       		.uleb128 0x2e
 3629 034a 01       		.byte	0x1
 3630 034b 03       		.uleb128 0x3
 3631 034c 0E       		.uleb128 0xe
 3632 034d 3A       		.uleb128 0x3a
 3633 034e 0B       		.uleb128 0xb
 3634 034f 3B       		.uleb128 0x3b
 3635 0350 05       		.uleb128 0x5
 3636 0351 27       		.uleb128 0x27
 3637 0352 19       		.uleb128 0x19
 3638 0353 20       		.uleb128 0x20
 3639 0354 0B       		.uleb128 0xb
 3640 0355 01       		.uleb128 0x1
 3641 0356 13       		.uleb128 0x13
 3642 0357 00       		.byte	0
 3643 0358 00       		.byte	0
 3644 0359 3F       		.uleb128 0x3f
 3645 035a 2E       		.uleb128 0x2e
 3646 035b 00       		.byte	0
 3647 035c 03       		.uleb128 0x3
 3648 035d 0E       		.uleb128 0xe
ARM GAS  /tmp/cc521pIj.s 			page 65


 3649 035e 3A       		.uleb128 0x3a
 3650 035f 0B       		.uleb128 0xb
 3651 0360 3B       		.uleb128 0x3b
 3652 0361 05       		.uleb128 0x5
 3653 0362 27       		.uleb128 0x27
 3654 0363 19       		.uleb128 0x19
 3655 0364 20       		.uleb128 0x20
 3656 0365 0B       		.uleb128 0xb
 3657 0366 00       		.byte	0
 3658 0367 00       		.byte	0
 3659 0368 40       		.uleb128 0x40
 3660 0369 2E       		.uleb128 0x2e
 3661 036a 01       		.byte	0x1
 3662 036b 03       		.uleb128 0x3
 3663 036c 0E       		.uleb128 0xe
 3664 036d 3A       		.uleb128 0x3a
 3665 036e 0B       		.uleb128 0xb
 3666 036f 3B       		.uleb128 0x3b
 3667 0370 05       		.uleb128 0x5
 3668 0371 27       		.uleb128 0x27
 3669 0372 19       		.uleb128 0x19
 3670 0373 49       		.uleb128 0x49
 3671 0374 13       		.uleb128 0x13
 3672 0375 20       		.uleb128 0x20
 3673 0376 0B       		.uleb128 0xb
 3674 0377 01       		.uleb128 0x1
 3675 0378 13       		.uleb128 0x13
 3676 0379 00       		.byte	0
 3677 037a 00       		.byte	0
 3678 037b 41       		.uleb128 0x41
 3679 037c 05       		.uleb128 0x5
 3680 037d 00       		.byte	0
 3681 037e 03       		.uleb128 0x3
 3682 037f 08       		.uleb128 0x8
 3683 0380 3A       		.uleb128 0x3a
 3684 0381 0B       		.uleb128 0xb
 3685 0382 3B       		.uleb128 0x3b
 3686 0383 05       		.uleb128 0x5
 3687 0384 49       		.uleb128 0x49
 3688 0385 13       		.uleb128 0x13
 3689 0386 00       		.byte	0
 3690 0387 00       		.byte	0
 3691 0388 42       		.uleb128 0x42
 3692 0389 05       		.uleb128 0x5
 3693 038a 00       		.byte	0
 3694 038b 03       		.uleb128 0x3
 3695 038c 0E       		.uleb128 0xe
 3696 038d 3A       		.uleb128 0x3a
 3697 038e 0B       		.uleb128 0xb
 3698 038f 3B       		.uleb128 0x3b
 3699 0390 05       		.uleb128 0x5
 3700 0391 49       		.uleb128 0x49
 3701 0392 13       		.uleb128 0x13
 3702 0393 00       		.byte	0
 3703 0394 00       		.byte	0
 3704 0395 43       		.uleb128 0x43
 3705 0396 2E       		.uleb128 0x2e
ARM GAS  /tmp/cc521pIj.s 			page 66


 3706 0397 01       		.byte	0x1
 3707 0398 31       		.uleb128 0x31
 3708 0399 13       		.uleb128 0x13
 3709 039a 11       		.uleb128 0x11
 3710 039b 01       		.uleb128 0x1
 3711 039c 12       		.uleb128 0x12
 3712 039d 06       		.uleb128 0x6
 3713 039e 40       		.uleb128 0x40
 3714 039f 18       		.uleb128 0x18
 3715 03a0 9742     		.uleb128 0x2117
 3716 03a2 19       		.uleb128 0x19
 3717 03a3 01       		.uleb128 0x1
 3718 03a4 13       		.uleb128 0x13
 3719 03a5 00       		.byte	0
 3720 03a6 00       		.byte	0
 3721 03a7 44       		.uleb128 0x44
 3722 03a8 2E       		.uleb128 0x2e
 3723 03a9 00       		.byte	0
 3724 03aa 3F       		.uleb128 0x3f
 3725 03ab 19       		.uleb128 0x19
 3726 03ac 3C       		.uleb128 0x3c
 3727 03ad 19       		.uleb128 0x19
 3728 03ae 6E       		.uleb128 0x6e
 3729 03af 0E       		.uleb128 0xe
 3730 03b0 03       		.uleb128 0x3
 3731 03b1 0E       		.uleb128 0xe
 3732 03b2 3A       		.uleb128 0x3a
 3733 03b3 0B       		.uleb128 0xb
 3734 03b4 3B       		.uleb128 0x3b
 3735 03b5 0B       		.uleb128 0xb
 3736 03b6 00       		.byte	0
 3737 03b7 00       		.byte	0
 3738 03b8 45       		.uleb128 0x45
 3739 03b9 2E       		.uleb128 0x2e
 3740 03ba 00       		.byte	0
 3741 03bb 3F       		.uleb128 0x3f
 3742 03bc 19       		.uleb128 0x19
 3743 03bd 3C       		.uleb128 0x3c
 3744 03be 19       		.uleb128 0x19
 3745 03bf 6E       		.uleb128 0x6e
 3746 03c0 0E       		.uleb128 0xe
 3747 03c1 03       		.uleb128 0x3
 3748 03c2 0E       		.uleb128 0xe
 3749 03c3 3A       		.uleb128 0x3a
 3750 03c4 0B       		.uleb128 0xb
 3751 03c5 3B       		.uleb128 0x3b
 3752 03c6 05       		.uleb128 0x5
 3753 03c7 00       		.byte	0
 3754 03c8 00       		.byte	0
 3755 03c9 00       		.byte	0
 3756              		.section	.debug_loc,"",%progbits
 3757              	.Ldebug_loc0:
 3758              	.LLST30:
 3759 0000 00000000 		.4byte	.LVL49
 3760 0004 0E000000 		.4byte	.LVL50
 3761 0008 0100     		.2byte	0x1
 3762 000a 50       		.byte	0x50
ARM GAS  /tmp/cc521pIj.s 			page 67


 3763 000b 0E000000 		.4byte	.LVL50
 3764 000f 58000000 		.4byte	.LFE227
 3765 0013 0100     		.2byte	0x1
 3766 0015 55       		.byte	0x55
 3767 0016 00000000 		.4byte	0
 3768 001a 00000000 		.4byte	0
 3769              	.LLST31:
 3770 001e 00000000 		.4byte	.LVL49
 3771 0022 13000000 		.4byte	.LVL51-1
 3772 0026 0100     		.2byte	0x1
 3773 0028 51       		.byte	0x51
 3774 0029 13000000 		.4byte	.LVL51-1
 3775 002d 58000000 		.4byte	.LFE227
 3776 0031 0100     		.2byte	0x1
 3777 0033 58       		.byte	0x58
 3778 0034 00000000 		.4byte	0
 3779 0038 00000000 		.4byte	0
 3780              	.LLST32:
 3781 003c 42000000 		.4byte	.LVL59
 3782 0040 46000000 		.4byte	.LVL60
 3783 0044 0100     		.2byte	0x1
 3784 0046 50       		.byte	0x50
 3785 0047 46000000 		.4byte	.LVL60
 3786 004b 50000000 		.4byte	.LVL62
 3787 004f 0100     		.2byte	0x1
 3788 0051 54       		.byte	0x54
 3789 0052 00000000 		.4byte	0
 3790 0056 00000000 		.4byte	0
 3791              	.LLST33:
 3792 005a 18000000 		.4byte	.LVL52
 3793 005e 3A000000 		.4byte	.LVL57
 3794 0062 0100     		.2byte	0x1
 3795 0064 55       		.byte	0x55
 3796 0065 50000000 		.4byte	.LVL62
 3797 0069 58000000 		.4byte	.LFE227
 3798 006d 0100     		.2byte	0x1
 3799 006f 55       		.byte	0x55
 3800 0070 00000000 		.4byte	0
 3801 0074 00000000 		.4byte	0
 3802              	.LLST34:
 3803 0078 18000000 		.4byte	.LVL52
 3804 007c 3A000000 		.4byte	.LVL57
 3805 0080 0100     		.2byte	0x1
 3806 0082 54       		.byte	0x54
 3807 0083 50000000 		.4byte	.LVL62
 3808 0087 58000000 		.4byte	.LFE227
 3809 008b 0100     		.2byte	0x1
 3810 008d 54       		.byte	0x54
 3811 008e 00000000 		.4byte	0
 3812 0092 00000000 		.4byte	0
 3813              	.LLST35:
 3814 0096 1E000000 		.4byte	.LVL53
 3815 009a 2E000000 		.4byte	.LVL56
 3816 009e 0100     		.2byte	0x1
 3817 00a0 53       		.byte	0x53
 3818 00a1 50000000 		.4byte	.LVL62
 3819 00a5 58000000 		.4byte	.LFE227
ARM GAS  /tmp/cc521pIj.s 			page 68


 3820 00a9 0100     		.2byte	0x1
 3821 00ab 53       		.byte	0x53
 3822 00ac 00000000 		.4byte	0
 3823 00b0 00000000 		.4byte	0
 3824              	.LLST36:
 3825 00b4 00000000 		.4byte	.LVL63
 3826 00b8 0B000000 		.4byte	.LVL65-1
 3827 00bc 0100     		.2byte	0x1
 3828 00be 50       		.byte	0x50
 3829 00bf 0B000000 		.4byte	.LVL65-1
 3830 00c3 14000000 		.4byte	.LFE226
 3831 00c7 0400     		.2byte	0x4
 3832 00c9 F3       		.byte	0xf3
 3833 00ca 01       		.uleb128 0x1
 3834 00cb 50       		.byte	0x50
 3835 00cc 9F       		.byte	0x9f
 3836 00cd 00000000 		.4byte	0
 3837 00d1 00000000 		.4byte	0
 3838              	.LLST37:
 3839 00d5 00000000 		.4byte	.LVL63
 3840 00d9 0B000000 		.4byte	.LVL65-1
 3841 00dd 0100     		.2byte	0x1
 3842 00df 51       		.byte	0x51
 3843 00e0 0B000000 		.4byte	.LVL65-1
 3844 00e4 14000000 		.4byte	.LFE226
 3845 00e8 0400     		.2byte	0x4
 3846 00ea F3       		.byte	0xf3
 3847 00eb 01       		.uleb128 0x1
 3848 00ec 51       		.byte	0x51
 3849 00ed 9F       		.byte	0x9f
 3850 00ee 00000000 		.4byte	0
 3851 00f2 00000000 		.4byte	0
 3852              	.LLST38:
 3853 00f6 00000000 		.4byte	.LVL63
 3854 00fa 08000000 		.4byte	.LVL64
 3855 00fe 0300     		.2byte	0x3
 3856 0100 08       		.byte	0x8
 3857 0101 20       		.byte	0x20
 3858 0102 9F       		.byte	0x9f
 3859 0103 00000000 		.4byte	0
 3860 0107 00000000 		.4byte	0
 3861              	.LLST39:
 3862 010b 0C000000 		.4byte	.LVL65
 3863 010f 12000000 		.4byte	.LVL66
 3864 0113 0200     		.2byte	0x2
 3865 0115 30       		.byte	0x30
 3866 0116 9F       		.byte	0x9f
 3867 0117 00000000 		.4byte	0
 3868 011b 00000000 		.4byte	0
 3869              	.LLST21:
 3870 011f 00000000 		.4byte	.LVL31
 3871 0123 0C000000 		.4byte	.LVL33
 3872 0127 0100     		.2byte	0x1
 3873 0129 50       		.byte	0x50
 3874 012a 0C000000 		.4byte	.LVL33
 3875 012e 4C000000 		.4byte	.LFE225
 3876 0132 0100     		.2byte	0x1
ARM GAS  /tmp/cc521pIj.s 			page 69


 3877 0134 55       		.byte	0x55
 3878 0135 00000000 		.4byte	0
 3879 0139 00000000 		.4byte	0
 3880              	.LLST22:
 3881 013d 06000000 		.4byte	.LVL32
 3882 0141 38000000 		.4byte	.LVL42
 3883 0145 0100     		.2byte	0x1
 3884 0147 54       		.byte	0x54
 3885 0148 42000000 		.4byte	.LVL44
 3886 014c 4C000000 		.4byte	.LFE225
 3887 0150 0100     		.2byte	0x1
 3888 0152 54       		.byte	0x54
 3889 0153 00000000 		.4byte	0
 3890 0157 00000000 		.4byte	0
 3891              	.LLST23:
 3892 015b 38000000 		.4byte	.LVL42
 3893 015f 42000000 		.4byte	.LVL44
 3894 0163 0100     		.2byte	0x1
 3895 0165 54       		.byte	0x54
 3896 0166 00000000 		.4byte	0
 3897 016a 00000000 		.4byte	0
 3898              	.LLST24:
 3899 016e 12000000 		.4byte	.LVL35
 3900 0172 32000000 		.4byte	.LVL40
 3901 0176 0100     		.2byte	0x1
 3902 0178 55       		.byte	0x55
 3903 0179 42000000 		.4byte	.LVL44
 3904 017d 4C000000 		.4byte	.LFE225
 3905 0181 0100     		.2byte	0x1
 3906 0183 55       		.byte	0x55
 3907 0184 00000000 		.4byte	0
 3908 0188 00000000 		.4byte	0
 3909              	.LLST25:
 3910 018c 12000000 		.4byte	.LVL35
 3911 0190 32000000 		.4byte	.LVL40
 3912 0194 0100     		.2byte	0x1
 3913 0196 54       		.byte	0x54
 3914 0197 42000000 		.4byte	.LVL44
 3915 019b 4C000000 		.4byte	.LFE225
 3916 019f 0100     		.2byte	0x1
 3917 01a1 54       		.byte	0x54
 3918 01a2 00000000 		.4byte	0
 3919 01a6 00000000 		.4byte	0
 3920              	.LLST26:
 3921 01aa 18000000 		.4byte	.LVL36
 3922 01ae 28000000 		.4byte	.LVL39
 3923 01b2 0100     		.2byte	0x1
 3924 01b4 53       		.byte	0x53
 3925 01b5 42000000 		.4byte	.LVL44
 3926 01b9 4C000000 		.4byte	.LFE225
 3927 01bd 0100     		.2byte	0x1
 3928 01bf 53       		.byte	0x53
 3929 01c0 00000000 		.4byte	0
 3930 01c4 00000000 		.4byte	0
 3931              	.LLST27:
 3932 01c8 00000000 		.4byte	.LVL45
 3933 01cc 0B000000 		.4byte	.LVL47-1
ARM GAS  /tmp/cc521pIj.s 			page 70


 3934 01d0 0100     		.2byte	0x1
 3935 01d2 50       		.byte	0x50
 3936 01d3 0B000000 		.4byte	.LVL47-1
 3937 01d7 14000000 		.4byte	.LFE224
 3938 01db 0400     		.2byte	0x4
 3939 01dd F3       		.byte	0xf3
 3940 01de 01       		.uleb128 0x1
 3941 01df 50       		.byte	0x50
 3942 01e0 9F       		.byte	0x9f
 3943 01e1 00000000 		.4byte	0
 3944 01e5 00000000 		.4byte	0
 3945              	.LLST28:
 3946 01e9 00000000 		.4byte	.LVL45
 3947 01ed 08000000 		.4byte	.LVL46
 3948 01f1 0300     		.2byte	0x3
 3949 01f3 08       		.byte	0x8
 3950 01f4 20       		.byte	0x20
 3951 01f5 9F       		.byte	0x9f
 3952 01f6 00000000 		.4byte	0
 3953 01fa 00000000 		.4byte	0
 3954              	.LLST29:
 3955 01fe 0C000000 		.4byte	.LVL47
 3956 0202 12000000 		.4byte	.LVL48
 3957 0206 0200     		.2byte	0x2
 3958 0208 30       		.byte	0x30
 3959 0209 9F       		.byte	0x9f
 3960 020a 00000000 		.4byte	0
 3961 020e 00000000 		.4byte	0
 3962              	.LLST11:
 3963 0212 00000000 		.4byte	.LVL16
 3964 0216 14000000 		.4byte	.LVL19
 3965 021a 0100     		.2byte	0x1
 3966 021c 50       		.byte	0x50
 3967 021d 14000000 		.4byte	.LVL19
 3968 0221 28000000 		.4byte	.LVL22
 3969 0225 0100     		.2byte	0x1
 3970 0227 54       		.byte	0x54
 3971 0228 28000000 		.4byte	.LVL22
 3972 022c 34000000 		.4byte	.LFE222
 3973 0230 0400     		.2byte	0x4
 3974 0232 F3       		.byte	0xf3
 3975 0233 01       		.uleb128 0x1
 3976 0234 50       		.byte	0x50
 3977 0235 9F       		.byte	0x9f
 3978 0236 00000000 		.4byte	0
 3979 023a 00000000 		.4byte	0
 3980              	.LLST12:
 3981 023e 00000000 		.4byte	.LVL16
 3982 0242 08000000 		.4byte	.LVL17
 3983 0246 0300     		.2byte	0x3
 3984 0248 08       		.byte	0x8
 3985 0249 20       		.byte	0x20
 3986 024a 9F       		.byte	0x9f
 3987 024b 00000000 		.4byte	0
 3988 024f 00000000 		.4byte	0
 3989              	.LLST13:
 3990 0253 08000000 		.4byte	.LVL17
ARM GAS  /tmp/cc521pIj.s 			page 71


 3991 0257 0A000000 		.4byte	.LVL18
 3992 025b 0100     		.2byte	0x1
 3993 025d 50       		.byte	0x50
 3994 025e 00000000 		.4byte	0
 3995 0262 00000000 		.4byte	0
 3996              	.LLST14:
 3997 0266 14000000 		.4byte	.LVL19
 3998 026a 1C000000 		.4byte	.LVL20
 3999 026e 0100     		.2byte	0x1
 4000 0270 54       		.byte	0x54
 4001 0271 00000000 		.4byte	0
 4002 0275 00000000 		.4byte	0
 4003              	.LLST15:
 4004 0279 14000000 		.4byte	.LVL19
 4005 027d 1C000000 		.4byte	.LVL20
 4006 0281 0100     		.2byte	0x1
 4007 0283 53       		.byte	0x53
 4008 0284 00000000 		.4byte	0
 4009 0288 00000000 		.4byte	0
 4010              	.LLST16:
 4011 028c 2C000000 		.4byte	.LVL23
 4012 0290 32000000 		.4byte	.LVL24
 4013 0294 0200     		.2byte	0x2
 4014 0296 30       		.byte	0x30
 4015 0297 9F       		.byte	0x9f
 4016 0298 00000000 		.4byte	0
 4017 029c 00000000 		.4byte	0
 4018              	.LLST7:
 4019 02a0 00000000 		.4byte	.LVL10
 4020 02a4 10000000 		.4byte	.LVL14
 4021 02a8 0100     		.2byte	0x1
 4022 02aa 50       		.byte	0x50
 4023 02ab 10000000 		.4byte	.LVL14
 4024 02af 15000000 		.4byte	.LVL15-1
 4025 02b3 0200     		.2byte	0x2
 4026 02b5 72       		.byte	0x72
 4027 02b6 04       		.sleb128 4
 4028 02b7 15000000 		.4byte	.LVL15-1
 4029 02bb 16000000 		.4byte	.LVL15
 4030 02bf 0400     		.2byte	0x4
 4031 02c1 F3       		.byte	0xf3
 4032 02c2 01       		.uleb128 0x1
 4033 02c3 50       		.byte	0x50
 4034 02c4 9F       		.byte	0x9f
 4035 02c5 16000000 		.4byte	.LVL15
 4036 02c9 18000000 		.4byte	.LFE221
 4037 02cd 0100     		.2byte	0x1
 4038 02cf 50       		.byte	0x50
 4039 02d0 00000000 		.4byte	0
 4040 02d4 00000000 		.4byte	0
 4041              	.LLST9:
 4042 02d8 06000000 		.4byte	.LVL12
 4043 02dc 0E000000 		.4byte	.LVL13
 4044 02e0 0100     		.2byte	0x1
 4045 02e2 50       		.byte	0x50
 4046 02e3 00000000 		.4byte	0
 4047 02e7 00000000 		.4byte	0
ARM GAS  /tmp/cc521pIj.s 			page 72


 4048              	.LLST10:
 4049 02eb 06000000 		.4byte	.LVL12
 4050 02ef 0E000000 		.4byte	.LVL13
 4051 02f3 0100     		.2byte	0x1
 4052 02f5 53       		.byte	0x53
 4053 02f6 00000000 		.4byte	0
 4054 02fa 00000000 		.4byte	0
 4055              	.LLST8:
 4056 02fe 00000000 		.4byte	.LVL10
 4057 0302 02000000 		.4byte	.LVL11
 4058 0306 0100     		.2byte	0x1
 4059 0308 50       		.byte	0x50
 4060 0309 00000000 		.4byte	0
 4061 030d 00000000 		.4byte	0
 4062              	.LLST1:
 4063 0311 00000000 		.4byte	.LVL2
 4064 0315 18000000 		.4byte	.LVL7
 4065 0319 0100     		.2byte	0x1
 4066 031b 50       		.byte	0x50
 4067 031c 18000000 		.4byte	.LVL7
 4068 0320 1D000000 		.4byte	.LVL8-1
 4069 0324 0100     		.2byte	0x1
 4070 0326 53       		.byte	0x53
 4071 0327 1D000000 		.4byte	.LVL8-1
 4072 032b 26000000 		.4byte	.LFE220
 4073 032f 0400     		.2byte	0x4
 4074 0331 F3       		.byte	0xf3
 4075 0332 01       		.uleb128 0x1
 4076 0333 50       		.byte	0x50
 4077 0334 9F       		.byte	0x9f
 4078 0335 00000000 		.4byte	0
 4079 0339 00000000 		.4byte	0
 4080              	.LLST2:
 4081 033d 00000000 		.4byte	.LVL2
 4082 0341 08000000 		.4byte	.LVL3
 4083 0345 0300     		.2byte	0x3
 4084 0347 08       		.byte	0x8
 4085 0348 20       		.byte	0x20
 4086 0349 9F       		.byte	0x9f
 4087 034a 00000000 		.4byte	0
 4088 034e 00000000 		.4byte	0
 4089              	.LLST3:
 4090 0352 08000000 		.4byte	.LVL3
 4091 0356 0A000000 		.4byte	.LVL4
 4092 035a 0100     		.2byte	0x1
 4093 035c 50       		.byte	0x50
 4094 035d 00000000 		.4byte	0
 4095 0361 00000000 		.4byte	0
 4096              	.LLST4:
 4097 0365 14000000 		.4byte	.LVL5
 4098 0369 16000000 		.4byte	.LVL6
 4099 036d 0100     		.2byte	0x1
 4100 036f 50       		.byte	0x50
 4101 0370 00000000 		.4byte	0
 4102 0374 00000000 		.4byte	0
 4103              	.LLST5:
 4104 0378 14000000 		.4byte	.LVL5
ARM GAS  /tmp/cc521pIj.s 			page 73


 4105 037c 16000000 		.4byte	.LVL6
 4106 0380 0100     		.2byte	0x1
 4107 0382 52       		.byte	0x52
 4108 0383 00000000 		.4byte	0
 4109 0387 00000000 		.4byte	0
 4110              	.LLST6:
 4111 038b 1E000000 		.4byte	.LVL8
 4112 038f 24000000 		.4byte	.LVL9
 4113 0393 0200     		.2byte	0x2
 4114 0395 30       		.byte	0x30
 4115 0396 9F       		.byte	0x9f
 4116 0397 00000000 		.4byte	0
 4117 039b 00000000 		.4byte	0
 4118              	.LLST0:
 4119 039f 00000000 		.4byte	.LVL0
 4120 03a3 04000000 		.4byte	.LVL1
 4121 03a7 0100     		.2byte	0x1
 4122 03a9 50       		.byte	0x50
 4123 03aa 00000000 		.4byte	0
 4124 03ae 00000000 		.4byte	0
 4125              	.LLST17:
 4126 03b2 00000000 		.4byte	.LVL25
 4127 03b6 0E000000 		.4byte	.LVL27
 4128 03ba 0100     		.2byte	0x1
 4129 03bc 50       		.byte	0x50
 4130 03bd 0E000000 		.4byte	.LVL27
 4131 03c1 22000000 		.4byte	.LVL30
 4132 03c5 0100     		.2byte	0x1
 4133 03c7 54       		.byte	0x54
 4134 03c8 22000000 		.4byte	.LVL30
 4135 03cc 24000000 		.4byte	.LFE223
 4136 03d0 0400     		.2byte	0x4
 4137 03d2 F3       		.byte	0xf3
 4138 03d3 01       		.uleb128 0x1
 4139 03d4 50       		.byte	0x50
 4140 03d5 9F       		.byte	0x9f
 4141 03d6 00000000 		.4byte	0
 4142 03da 00000000 		.4byte	0
 4143              	.LLST18:
 4144 03de 00000000 		.4byte	.LVL25
 4145 03e2 04000000 		.4byte	.LVL26
 4146 03e6 0100     		.2byte	0x1
 4147 03e8 50       		.byte	0x50
 4148 03e9 00000000 		.4byte	0
 4149 03ed 00000000 		.4byte	0
 4150              	.LLST19:
 4151 03f1 0E000000 		.4byte	.LVL27
 4152 03f5 16000000 		.4byte	.LVL28
 4153 03f9 0100     		.2byte	0x1
 4154 03fb 54       		.byte	0x54
 4155 03fc 00000000 		.4byte	0
 4156 0400 00000000 		.4byte	0
 4157              	.LLST20:
 4158 0404 0E000000 		.4byte	.LVL27
 4159 0408 16000000 		.4byte	.LVL28
 4160 040c 0100     		.2byte	0x1
 4161 040e 53       		.byte	0x53
ARM GAS  /tmp/cc521pIj.s 			page 74


 4162 040f 00000000 		.4byte	0
 4163 0413 00000000 		.4byte	0
 4164              		.section	.debug_aranges,"",%progbits
 4165 0000 5C000000 		.4byte	0x5c
 4166 0004 0200     		.2byte	0x2
 4167 0006 00000000 		.4byte	.Ldebug_info0
 4168 000a 04       		.byte	0x4
 4169 000b 00       		.byte	0
 4170 000c 0000     		.2byte	0
 4171 000e 0000     		.2byte	0
 4172 0010 00000000 		.4byte	.LFB219
 4173 0014 06000000 		.4byte	.LFE219-.LFB219
 4174 0018 00000000 		.4byte	.LFB220
 4175 001c 26000000 		.4byte	.LFE220-.LFB220
 4176 0020 00000000 		.4byte	.LFB221
 4177 0024 18000000 		.4byte	.LFE221-.LFB221
 4178 0028 00000000 		.4byte	.LFB222
 4179 002c 34000000 		.4byte	.LFE222-.LFB222
 4180 0030 00000000 		.4byte	.LFB223
 4181 0034 24000000 		.4byte	.LFE223-.LFB223
 4182 0038 00000000 		.4byte	.LFB225
 4183 003c 4C000000 		.4byte	.LFE225-.LFB225
 4184 0040 00000000 		.4byte	.LFB224
 4185 0044 14000000 		.4byte	.LFE224-.LFB224
 4186 0048 00000000 		.4byte	.LFB227
 4187 004c 58000000 		.4byte	.LFE227-.LFB227
 4188 0050 00000000 		.4byte	.LFB226
 4189 0054 14000000 		.4byte	.LFE226-.LFB226
 4190 0058 00000000 		.4byte	0
 4191 005c 00000000 		.4byte	0
 4192              		.section	.debug_ranges,"",%progbits
 4193              	.Ldebug_ranges0:
 4194 0000 06000000 		.4byte	.LBB107
 4195 0004 0A000000 		.4byte	.LBE107
 4196 0008 0C000000 		.4byte	.LBB110
 4197 000c 0E000000 		.4byte	.LBE110
 4198 0010 00000000 		.4byte	0
 4199 0014 00000000 		.4byte	0
 4200 0018 08000000 		.4byte	.LBB117
 4201 001c 0A000000 		.4byte	.LBE117
 4202 0020 20000000 		.4byte	.LBB124
 4203 0024 22000000 		.4byte	.LBE124
 4204 0028 00000000 		.4byte	0
 4205 002c 00000000 		.4byte	0
 4206 0030 14000000 		.4byte	.LBB120
 4207 0034 18000000 		.4byte	.LBE120
 4208 0038 1A000000 		.4byte	.LBB123
 4209 003c 1C000000 		.4byte	.LBE123
 4210 0040 00000000 		.4byte	0
 4211 0044 00000000 		.4byte	0
 4212 0048 02000000 		.4byte	.LBB130
 4213 004c 04000000 		.4byte	.LBE130
 4214 0050 1A000000 		.4byte	.LBB137
 4215 0054 1C000000 		.4byte	.LBE137
 4216 0058 00000000 		.4byte	0
 4217 005c 00000000 		.4byte	0
 4218 0060 0E000000 		.4byte	.LBB133
ARM GAS  /tmp/cc521pIj.s 			page 75


 4219 0064 12000000 		.4byte	.LBE133
 4220 0068 14000000 		.4byte	.LBB136
 4221 006c 16000000 		.4byte	.LBE136
 4222 0070 00000000 		.4byte	0
 4223 0074 00000000 		.4byte	0
 4224 0078 18000000 		.4byte	.LBB140
 4225 007c 28000000 		.4byte	.LBE140
 4226 0080 2A000000 		.4byte	.LBB144
 4227 0084 32000000 		.4byte	.LBE144
 4228 0088 42000000 		.4byte	.LBB145
 4229 008c 4C000000 		.4byte	.LBE145
 4230 0090 00000000 		.4byte	0
 4231 0094 00000000 		.4byte	0
 4232 0098 1E000000 		.4byte	.LBB159
 4233 009c 32000000 		.4byte	.LBE159
 4234 00a0 34000000 		.4byte	.LBB164
 4235 00a4 36000000 		.4byte	.LBE164
 4236 00a8 38000000 		.4byte	.LBB165
 4237 00ac 3A000000 		.4byte	.LBE165
 4238 00b0 50000000 		.4byte	.LBB166
 4239 00b4 58000000 		.4byte	.LBE166
 4240 00b8 00000000 		.4byte	0
 4241 00bc 00000000 		.4byte	0
 4242 00c0 00000000 		.4byte	.LFB219
 4243 00c4 06000000 		.4byte	.LFE219
 4244 00c8 00000000 		.4byte	.LFB220
 4245 00cc 26000000 		.4byte	.LFE220
 4246 00d0 00000000 		.4byte	.LFB221
 4247 00d4 18000000 		.4byte	.LFE221
 4248 00d8 00000000 		.4byte	.LFB222
 4249 00dc 34000000 		.4byte	.LFE222
 4250 00e0 00000000 		.4byte	.LFB223
 4251 00e4 24000000 		.4byte	.LFE223
 4252 00e8 00000000 		.4byte	.LFB225
 4253 00ec 4C000000 		.4byte	.LFE225
 4254 00f0 00000000 		.4byte	.LFB224
 4255 00f4 14000000 		.4byte	.LFE224
 4256 00f8 00000000 		.4byte	.LFB227
 4257 00fc 58000000 		.4byte	.LFE227
 4258 0100 00000000 		.4byte	.LFB226
 4259 0104 14000000 		.4byte	.LFE226
 4260 0108 00000000 		.4byte	0
 4261 010c 00000000 		.4byte	0
 4262              		.section	.debug_line,"",%progbits
 4263              	.Ldebug_line0:
 4264 0000 3D040000 		.section	.debug_str,"MS",%progbits,1
 4264      02001702 
 4264      00000201 
 4264      FB0E0D00 
 4264      01010101 
 4265              	.LASF50:
 4266 0000 74687265 		.ascii	"threads_list_t\000"
 4266      6164735F 
 4266      6C697374 
 4266      5F7400
 4267              	.LASF116:
 4268 000f 63665F6F 		.ascii	"cf_off_older\000"
ARM GAS  /tmp/cc521pIj.s 			page 76


 4268      66665F6F 
 4268      6C646572 
 4268      00
 4269              	.LASF55:
 4270 001c 72656164 		.ascii	"ready_list_t\000"
 4270      795F6C69 
 4270      73745F74 
 4270      00
 4271              	.LASF94:
 4272 0029 77747472 		.ascii	"wttrp\000"
 4272      7000
 4273              	.LASF91:
 4274 002f 7264796D 		.ascii	"rdymsg\000"
 4274      736700
 4275              	.LASF18:
 4276 0036 75696E74 		.ascii	"uint64_t\000"
 4276      36345F74 
 4276      00
 4277              	.LASF4:
 4278 003f 5F5F7569 		.ascii	"__uint8_t\000"
 4278      6E74385F 
 4278      7400
 4279              	.LASF88:
 4280 0049 706F7274 		.ascii	"port_intctx\000"
 4280      5F696E74 
 4280      63747800 
 4281              	.LASF74:
 4282 0055 73797374 		.ascii	"system_debug_t\000"
 4282      656D5F64 
 4282      65627567 
 4282      5F7400
 4283              	.LASF148:
 4284 0064 71756575 		.ascii	"queue_init\000"
 4284      655F696E 
 4284      697400
 4285              	.LASF161:
 4286 006f 474E5520 		.ascii	"GNU C99 7.3.1 20180622 (release) [ARM/embedded-7-br"
 4286      43393920 
 4286      372E332E 
 4286      31203230 
 4286      31383036 
 4287 00a2 616E6368 		.ascii	"anch revision 261907] -mcpu=cortex-m4 -mfloat-abi=h"
 4287      20726576 
 4287      6973696F 
 4287      6E203236 
 4287      31393037 
 4288 00d5 61726420 		.ascii	"ard -mfpu=fpv4-sp-d16 -mno-thumb-interwork -mthumb "
 4288      2D6D6670 
 4288      753D6670 
 4288      76342D73 
 4288      702D6431 
 4289 0108 2D676764 		.ascii	"-ggdb -O2 -std=gnu99 -fomit-frame-pointer -falign-f"
 4289      62202D4F 
 4289      32202D73 
 4289      74643D67 
 4289      6E753939 
 4290 013b 756E6374 		.ascii	"unctions=16 -ffunction-sections -fdata-sections -fn"
ARM GAS  /tmp/cc521pIj.s 			page 77


 4290      696F6E73 
 4290      3D313620 
 4290      2D666675 
 4290      6E637469 
 4291 016e 6F2D636F 		.ascii	"o-common -fsingle-precision-constant\000"
 4291      6D6D6F6E 
 4291      202D6673 
 4291      696E676C 
 4291      652D7072 
 4292              	.LASF151:
 4293 0193 706F7274 		.ascii	"port_lock\000"
 4293      5F6C6F63 
 4293      6B00
 4294              	.LASF142:
 4295 019d 6368436F 		.ascii	"chCondBroadcastI\000"
 4295      6E644272 
 4295      6F616463 
 4295      61737449 
 4295      00
 4296              	.LASF13:
 4297 01ae 6C6F6E67 		.ascii	"long long unsigned int\000"
 4297      206C6F6E 
 4297      6720756E 
 4297      7369676E 
 4297      65642069 
 4298              	.LASF112:
 4299 01c5 63685F74 		.ascii	"ch_threadsize\000"
 4299      68726561 
 4299      6473697A 
 4299      6500
 4300              	.LASF92:
 4301 01d3 65786974 		.ascii	"exitcode\000"
 4301      636F6465 
 4301      00
 4302              	.LASF81:
 4303 01dc 6D61696E 		.ascii	"mainthread\000"
 4303      74687265 
 4303      616400
 4304              	.LASF71:
 4305 01e7 76697274 		.ascii	"virtual_timers_list_t\000"
 4305      75616C5F 
 4305      74696D65 
 4305      72735F6C 
 4305      6973745F 
 4306              	.LASF83:
 4307 01fd 49544D5F 		.ascii	"ITM_RxBuffer\000"
 4307      52784275 
 4307      66666572 
 4307      00
 4308              	.LASF162:
 4309 020a 43686962 		.ascii	"ChibiOS_3.0.2/os/rt/src/chcond.c\000"
 4309      694F535F 
 4309      332E302E 
 4309      322F6F73 
 4309      2F72742F 
 4310              	.LASF54:
 4311 022b 63685F74 		.ascii	"ch_threads_queue\000"
ARM GAS  /tmp/cc521pIj.s 			page 78


 4311      68726561 
 4311      64735F71 
 4311      75657565 
 4311      00
 4312              	.LASF32:
 4313 023c 705F7072 		.ascii	"p_prio\000"
 4313      696F00
 4314              	.LASF119:
 4315 0243 63665F6F 		.ascii	"cf_off_state\000"
 4315      66665F73 
 4315      74617465 
 4315      00
 4316              	.LASF11:
 4317 0250 6C6F6E67 		.ascii	"long long int\000"
 4317      206C6F6E 
 4317      6720696E 
 4317      7400
 4318              	.LASF1:
 4319 025e 7369676E 		.ascii	"signed char\000"
 4319      65642063 
 4319      68617200 
 4320              	.LASF129:
 4321 026a 636F6E64 		.ascii	"condition_variable_t\000"
 4321      6974696F 
 4321      6E5F7661 
 4321      72696162 
 4321      6C655F74 
 4322              	.LASF118:
 4323 027f 63665F6F 		.ascii	"cf_off_stklimit\000"
 4323      66665F73 
 4323      746B6C69 
 4323      6D697400 
 4324              	.LASF120:
 4325 028f 63665F6F 		.ascii	"cf_off_flags\000"
 4325      66665F66 
 4325      6C616773 
 4325      00
 4326              	.LASF48:
 4327 029c 705F6D70 		.ascii	"p_mpool\000"
 4327      6F6F6C00 
 4328              	.LASF102:
 4329 02a4 6D5F7175 		.ascii	"m_queue\000"
 4329      65756500 
 4330              	.LASF80:
 4331 02ac 76746C69 		.ascii	"vtlist\000"
 4331      737400
 4332              	.LASF150:
 4333 02b3 706F7274 		.ascii	"port_unlock\000"
 4333      5F756E6C 
 4333      6F636B00 
 4334              	.LASF23:
 4335 02bf 74736C69 		.ascii	"tslices_t\000"
 4335      6365735F 
 4335      7400
 4336              	.LASF78:
 4337 02c9 63685F73 		.ascii	"ch_system\000"
 4337      79737465 
ARM GAS  /tmp/cc521pIj.s 			page 79


 4337      6D00
 4338              	.LASF8:
 4339 02d3 6C6F6E67 		.ascii	"long int\000"
 4339      20696E74 
 4339      00
 4340              	.LASF133:
 4341 02dc 6368436F 		.ascii	"chCondWaitS\000"
 4341      6E645761 
 4341      69745300 
 4342              	.LASF21:
 4343 02e8 74737461 		.ascii	"tstate_t\000"
 4343      74655F74 
 4343      00
 4344              	.LASF146:
 4345 02f1 71756575 		.ascii	"queue_notempty\000"
 4345      655F6E6F 
 4345      74656D70 
 4345      747900
 4346              	.LASF124:
 4347 0300 63686465 		.ascii	"chdebug_t\000"
 4347      6275675F 
 4347      7400
 4348              	.LASF34:
 4349 030a 705F6E65 		.ascii	"p_newer\000"
 4349      77657200 
 4350              	.LASF99:
 4351 0312 735F7175 		.ascii	"s_queue\000"
 4351      65756500 
 4352              	.LASF159:
 4353 031a 63685363 		.ascii	"chSchRescheduleS\000"
 4353      68526573 
 4353      63686564 
 4353      756C6553 
 4353      00
 4354              	.LASF60:
 4355 032b 725F6E65 		.ascii	"r_newer\000"
 4355      77657200 
 4356              	.LASF85:
 4357 0333 72656761 		.ascii	"regarm_t\000"
 4357      726D5F74 
 4357      00
 4358              	.LASF67:
 4359 033c 76745F70 		.ascii	"vt_prev\000"
 4359      72657600 
 4360              	.LASF75:
 4361 0344 63685F73 		.ascii	"ch_system_debug\000"
 4361      79737465 
 4361      6D5F6465 
 4361      62756700 
 4362              	.LASF126:
 4363 0354 6D757465 		.ascii	"mutex_t\000"
 4363      785F7400 
 4364              	.LASF153:
 4365 035c 76616C75 		.ascii	"value\000"
 4365      6500
 4366              	.LASF138:
 4367 0362 6368436F 		.ascii	"chCondSignal\000"
ARM GAS  /tmp/cc521pIj.s 			page 80


 4367      6E645369 
 4367      676E616C 
 4367      00
 4368              	.LASF82:
 4369 036f 69646C65 		.ascii	"idle_thread_wa\000"
 4369      5F746872 
 4369      6561645F 
 4369      776100
 4370              	.LASF27:
 4371 037e 636E745F 		.ascii	"cnt_t\000"
 4371      7400
 4372              	.LASF154:
 4373 0384 63684D74 		.ascii	"chMtxUnlockS\000"
 4373      78556E6C 
 4373      6F636B53 
 4373      00
 4374              	.LASF0:
 4375 0391 756E7369 		.ascii	"unsigned int\000"
 4375      676E6564 
 4375      20696E74 
 4375      00
 4376              	.LASF66:
 4377 039e 76745F6E 		.ascii	"vt_next\000"
 4377      65787400 
 4378              	.LASF15:
 4379 03a6 75696E74 		.ascii	"uint16_t\000"
 4379      31365F74 
 4379      00
 4380              	.LASF84:
 4381 03af 53797374 		.ascii	"SystemCoreClock\000"
 4381      656D436F 
 4381      7265436C 
 4381      6F636B00 
 4382              	.LASF41:
 4383 03bf 705F7469 		.ascii	"p_time\000"
 4383      6D6500
 4384              	.LASF95:
 4385 03c6 77747365 		.ascii	"wtsemp\000"
 4385      6D7000
 4386              	.LASF68:
 4387 03cd 76745F64 		.ascii	"vt_delta\000"
 4387      656C7461 
 4387      00
 4388              	.LASF43:
 4389 03d6 705F6D73 		.ascii	"p_msgqueue\000"
 4389      67717565 
 4389      756500
 4390              	.LASF125:
 4391 03e1 63685F64 		.ascii	"ch_debug\000"
 4391      65627567 
 4391      00
 4392              	.LASF100:
 4393 03ea 735F636E 		.ascii	"s_cnt\000"
 4393      7400
 4394              	.LASF6:
 4395 03f0 73686F72 		.ascii	"short unsigned int\000"
 4395      7420756E 
ARM GAS  /tmp/cc521pIj.s 			page 81


 4395      7369676E 
 4395      65642069 
 4395      6E7400
 4396              	.LASF51:
 4397 0403 63685F74 		.ascii	"ch_thread\000"
 4397      68726561 
 4397      6400
 4398              	.LASF160:
 4399 040d 63685363 		.ascii	"chSchWakeupS\000"
 4399      6857616B 
 4399      65757053 
 4399      00
 4400              	.LASF25:
 4401 041a 6D73675F 		.ascii	"msg_t\000"
 4401      7400
 4402              	.LASF77:
 4403 0420 63685F73 		.ascii	"ch_system_t\000"
 4403      79737465 
 4403      6D5F7400 
 4404              	.LASF123:
 4405 042c 63665F6F 		.ascii	"cf_off_time\000"
 4405      66665F74 
 4405      696D6500 
 4406              	.LASF56:
 4407 0438 63685F72 		.ascii	"ch_ready_list\000"
 4407      65616479 
 4407      5F6C6973 
 4407      7400
 4408              	.LASF26:
 4409 0446 6576656E 		.ascii	"eventmask_t\000"
 4409      746D6173 
 4409      6B5F7400 
 4410              	.LASF7:
 4411 0452 5F5F696E 		.ascii	"__int32_t\000"
 4411      7433325F 
 4411      7400
 4412              	.LASF86:
 4413 045c 73746B61 		.ascii	"stkalign_t\000"
 4413      6C69676E 
 4413      5F7400
 4414              	.LASF128:
 4415 0467 635F7175 		.ascii	"c_queue\000"
 4415      65756500 
 4416              	.LASF107:
 4417 046f 63685F7A 		.ascii	"ch_zero\000"
 4417      65726F00 
 4418              	.LASF121:
 4419 0477 63665F6F 		.ascii	"cf_off_refs\000"
 4419      66665F72 
 4419      65667300 
 4420              	.LASF42:
 4421 0483 705F7761 		.ascii	"p_waiting\000"
 4421      6974696E 
 4421      6700
 4422              	.LASF19:
 4423 048d 7274636E 		.ascii	"rtcnt_t\000"
 4423      745F7400 
ARM GAS  /tmp/cc521pIj.s 			page 82


 4424              	.LASF72:
 4425 0495 63685F76 		.ascii	"ch_virtual_timers_list\000"
 4425      69727475 
 4425      616C5F74 
 4425      696D6572 
 4425      735F6C69 
 4426              	.LASF127:
 4427 04ac 636F6E64 		.ascii	"condition_variable\000"
 4427      6974696F 
 4427      6E5F7661 
 4427      72696162 
 4427      6C6500
 4428              	.LASF131:
 4429 04bf 6368436F 		.ascii	"chCondWaitTimeoutS\000"
 4429      6E645761 
 4429      69745469 
 4429      6D656F75 
 4429      745300
 4430              	.LASF111:
 4431 04d2 63685F74 		.ascii	"ch_timesize\000"
 4431      696D6573 
 4431      697A6500 
 4432              	.LASF117:
 4433 04de 63665F6F 		.ascii	"cf_off_name\000"
 4433      66665F6E 
 4433      616D6500 
 4434              	.LASF35:
 4435 04ea 705F6F6C 		.ascii	"p_older\000"
 4435      64657200 
 4436              	.LASF59:
 4437 04f2 725F6374 		.ascii	"r_ctx\000"
 4437      7800
 4438              	.LASF33:
 4439 04f8 705F6374 		.ascii	"p_ctx\000"
 4439      7800
 4440              	.LASF90:
 4441 04fe 746D5F63 		.ascii	"tm_calibration_t\000"
 4441      616C6962 
 4441      72617469 
 4441      6F6E5F74 
 4441      00
 4442              	.LASF104:
 4443 050f 6D5F6E65 		.ascii	"m_next\000"
 4443      787400
 4444              	.LASF130:
 4445 0516 74696D65 		.ascii	"time\000"
 4445      00
 4446              	.LASF62:
 4447 051b 725F6375 		.ascii	"r_current\000"
 4447      7272656E 
 4447      7400
 4448              	.LASF61:
 4449 0525 725F6F6C 		.ascii	"r_older\000"
 4449      64657200 
 4450              	.LASF136:
 4451 052d 6368436F 		.ascii	"chCondBroadcast\000"
 4451      6E644272 
ARM GAS  /tmp/cc521pIj.s 			page 83


 4451      6F616463 
 4451      61737400 
 4452              	.LASF12:
 4453 053d 5F5F7569 		.ascii	"__uint64_t\000"
 4453      6E743634 
 4453      5F7400
 4454              	.LASF22:
 4455 0548 74726566 		.ascii	"trefs_t\000"
 4455      735F7400 
 4456              	.LASF110:
 4457 0550 63685F70 		.ascii	"ch_ptrsize\000"
 4457      74727369 
 4457      7A6500
 4458              	.LASF64:
 4459 055b 76697274 		.ascii	"virtual_timer_t\000"
 4459      75616C5F 
 4459      74696D65 
 4459      725F7400 
 4460              	.LASF31:
 4461 056b 705F7072 		.ascii	"p_prev\000"
 4461      657600
 4462              	.LASF24:
 4463 0572 74707269 		.ascii	"tprio_t\000"
 4463      6F5F7400 
 4464              	.LASF137:
 4465 057a 6368436F 		.ascii	"chCondSignalI\000"
 4465      6E645369 
 4465      676E616C 
 4465      4900
 4466              	.LASF147:
 4467 0588 5F426F6F 		.ascii	"_Bool\000"
 4467      6C00
 4468              	.LASF16:
 4469 058e 696E7433 		.ascii	"int32_t\000"
 4469      325F7400 
 4470              	.LASF2:
 4471 0596 756E7369 		.ascii	"unsigned char\000"
 4471      676E6564 
 4471      20636861 
 4471      7200
 4472              	.LASF46:
 4473 05a4 705F6D74 		.ascii	"p_mtxlist\000"
 4473      786C6973 
 4473      7400
 4474              	.LASF3:
 4475 05ae 73686F72 		.ascii	"short int\000"
 4475      7420696E 
 4475      7400
 4476              	.LASF37:
 4477 05b8 705F7374 		.ascii	"p_state\000"
 4477      61746500 
 4478              	.LASF40:
 4479 05c0 705F7072 		.ascii	"p_preempt\000"
 4479      65656D70 
 4479      7400
 4480              	.LASF58:
 4481 05ca 725F7072 		.ascii	"r_prio\000"
ARM GAS  /tmp/cc521pIj.s 			page 84


 4481      696F00
 4482              	.LASF97:
 4483 05d1 65776D61 		.ascii	"ewmask\000"
 4483      736B00
 4484              	.LASF30:
 4485 05d8 705F6E65 		.ascii	"p_next\000"
 4485      787400
 4486              	.LASF20:
 4487 05df 746D6F64 		.ascii	"tmode_t\000"
 4487      655F7400 
 4488              	.LASF122:
 4489 05e7 63665F6F 		.ascii	"cf_off_preempt\000"
 4489      66665F70 
 4489      7265656D 
 4489      707400
 4490              	.LASF38:
 4491 05f6 705F666C 		.ascii	"p_flags\000"
 4491      61677300 
 4492              	.LASF134:
 4493 05fe 5F5F6675 		.ascii	"__func__\000"
 4493      6E635F5F 
 4493      00
 4494              	.LASF149:
 4495 0607 63685379 		.ascii	"chSysLock\000"
 4495      734C6F63 
 4495      6B00
 4496              	.LASF53:
 4497 0611 74687265 		.ascii	"threads_queue_t\000"
 4497      6164735F 
 4497      71756575 
 4497      655F7400 
 4498              	.LASF65:
 4499 0621 63685F76 		.ascii	"ch_virtual_timer\000"
 4499      69727475 
 4499      616C5F74 
 4499      696D6572 
 4499      00
 4500              	.LASF163:
 4501 0632 2F686F6D 		.ascii	"/home/renan/BLDC/bldc-firmware\000"
 4501      652F7265 
 4501      6E616E2F 
 4501      424C4443 
 4501      2F626C64 
 4502              	.LASF98:
 4503 0651 63685F73 		.ascii	"ch_semaphore\000"
 4503      656D6170 
 4503      686F7265 
 4503      00
 4504              	.LASF157:
 4505 065e 63685363 		.ascii	"chSchGoSleepS\000"
 4505      68476F53 
 4505      6C656570 
 4505      5300
 4506              	.LASF45:
 4507 066c 705F6570 		.ascii	"p_epending\000"
 4507      656E6469 
 4507      6E6700
ARM GAS  /tmp/cc521pIj.s 			page 85


 4508              	.LASF140:
 4509 0677 63684D74 		.ascii	"chMtxGetNextMutexS\000"
 4509      78476574 
 4509      4E657874 
 4509      4D757465 
 4509      785300
 4510              	.LASF17:
 4511 068a 75696E74 		.ascii	"uint32_t\000"
 4511      33325F74 
 4511      00
 4512              	.LASF113:
 4513 0693 63665F6F 		.ascii	"cf_off_prio\000"
 4513      66665F70 
 4513      72696F00 
 4514              	.LASF57:
 4515 069f 725F7175 		.ascii	"r_queue\000"
 4515      65756500 
 4516              	.LASF158:
 4517 06a7 63685363 		.ascii	"chSchReadyI\000"
 4517      68526561 
 4517      64794900 
 4518              	.LASF52:
 4519 06b3 63685F74 		.ascii	"ch_threads_list\000"
 4519      68726561 
 4519      64735F6C 
 4519      69737400 
 4520              	.LASF108:
 4521 06c3 63685F73 		.ascii	"ch_size\000"
 4521      697A6500 
 4522              	.LASF10:
 4523 06cb 6C6F6E67 		.ascii	"long unsigned int\000"
 4523      20756E73 
 4523      69676E65 
 4523      6420696E 
 4523      7400
 4524              	.LASF105:
 4525 06dd 63686172 		.ascii	"char\000"
 4525      00
 4526              	.LASF96:
 4527 06e2 77746D74 		.ascii	"wtmtxp\000"
 4527      787000
 4528              	.LASF5:
 4529 06e9 5F5F7569 		.ascii	"__uint16_t\000"
 4529      6E743136 
 4529      5F7400
 4530              	.LASF139:
 4531 06f4 6368436F 		.ascii	"chCondObjectInit\000"
 4531      6E644F62 
 4531      6A656374 
 4531      496E6974 
 4531      00
 4532              	.LASF145:
 4533 0705 71756575 		.ascii	"queue_fifo_remove\000"
 4533      655F6669 
 4533      666F5F72 
 4533      656D6F76 
 4533      6500
ARM GAS  /tmp/cc521pIj.s 			page 86


 4534              	.LASF28:
 4535 0717 73797374 		.ascii	"systime_t\000"
 4535      696D655F 
 4535      7400
 4536              	.LASF47:
 4537 0721 705F7265 		.ascii	"p_realprio\000"
 4537      616C7072 
 4537      696F00
 4538              	.LASF63:
 4539 072c 76746675 		.ascii	"vtfunc_t\000"
 4539      6E635F74 
 4539      00
 4540              	.LASF9:
 4541 0735 5F5F7569 		.ascii	"__uint32_t\000"
 4541      6E743332 
 4541      5F7400
 4542              	.LASF152:
 4543 0740 5F5F7365 		.ascii	"__set_BASEPRI\000"
 4543      745F4241 
 4543      53455052 
 4543      4900
 4544              	.LASF76:
 4545 074e 70616E69 		.ascii	"panic_msg\000"
 4545      635F6D73 
 4545      6700
 4546              	.LASF89:
 4547 0758 6F666673 		.ascii	"offset\000"
 4547      657400
 4548              	.LASF87:
 4549 075f 636F6E74 		.ascii	"context\000"
 4549      65787400 
 4550              	.LASF44:
 4551 0767 705F6D73 		.ascii	"p_msg\000"
 4551      6700
 4552              	.LASF135:
 4553 076d 6368436F 		.ascii	"chCondWait\000"
 4553      6E645761 
 4553      697400
 4554              	.LASF70:
 4555 0778 76745F70 		.ascii	"vt_par\000"
 4555      617200
 4556              	.LASF114:
 4557 077f 63665F6F 		.ascii	"cf_off_ctx\000"
 4557      66665F63 
 4557      747800
 4558              	.LASF101:
 4559 078a 63685F6D 		.ascii	"ch_mutex\000"
 4559      75746578 
 4559      00
 4560              	.LASF39:
 4561 0793 705F7265 		.ascii	"p_refs\000"
 4561      667300
 4562              	.LASF29:
 4563 079a 74687265 		.ascii	"thread_t\000"
 4563      61645F74 
 4563      00
 4564              	.LASF79:
ARM GAS  /tmp/cc521pIj.s 			page 87


 4565 07a3 726C6973 		.ascii	"rlist\000"
 4565      7400
 4566              	.LASF141:
 4567 07a9 63685468 		.ascii	"chThdGetSelfX\000"
 4567      64476574 
 4567      53656C66 
 4567      5800
 4568              	.LASF14:
 4569 07b7 75696E74 		.ascii	"uint8_t\000"
 4569      385F7400 
 4570              	.LASF49:
 4571 07bf 74687265 		.ascii	"thread_reference_t\000"
 4571      61645F72 
 4571      65666572 
 4571      656E6365 
 4571      5F7400
 4572              	.LASF93:
 4573 07d2 77746F62 		.ascii	"wtobjp\000"
 4573      6A7000
 4574              	.LASF115:
 4575 07d9 63665F6F 		.ascii	"cf_off_newer\000"
 4575      66665F6E 
 4575      65776572 
 4575      00
 4576              	.LASF36:
 4577 07e6 705F6E61 		.ascii	"p_name\000"
 4577      6D6500
 4578              	.LASF132:
 4579 07ed 6368436F 		.ascii	"chCondWaitTimeout\000"
 4579      6E645761 
 4579      69745469 
 4579      6D656F75 
 4579      7400
 4580              	.LASF73:
 4581 07ff 76745F73 		.ascii	"vt_systime\000"
 4581      79737469 
 4581      6D6500
 4582              	.LASF155:
 4583 080a 63685363 		.ascii	"chSchGoSleepTimeoutS\000"
 4583      68476F53 
 4583      6C656570 
 4583      54696D65 
 4583      6F757453 
 4584              	.LASF143:
 4585 081f 63685379 		.ascii	"chSysUnlock\000"
 4585      73556E6C 
 4585      6F636B00 
 4586              	.LASF109:
 4587 082b 63685F76 		.ascii	"ch_version\000"
 4587      65727369 
 4587      6F6E00
 4588              	.LASF156:
 4589 0836 63684D74 		.ascii	"chMtxLockS\000"
 4589      784C6F63 
 4589      6B5300
 4590              	.LASF144:
 4591 0841 71756575 		.ascii	"queue_prio_insert\000"
ARM GAS  /tmp/cc521pIj.s 			page 88


 4591      655F7072 
 4591      696F5F69 
 4591      6E736572 
 4591      7400
 4592              	.LASF103:
 4593 0853 6D5F6F77 		.ascii	"m_owner\000"
 4593      6E657200 
 4594              	.LASF106:
 4595 085b 63685F69 		.ascii	"ch_identifier\000"
 4595      64656E74 
 4595      69666965 
 4595      7200
 4596              	.LASF69:
 4597 0869 76745F66 		.ascii	"vt_func\000"
 4597      756E6300 
 4598              		.ident	"GCC: (GNU Tools for Arm Embedded Processors 7-2018-q3-update) 7.3.1 20180622 (release) [AR
ARM GAS  /tmp/cc521pIj.s 			page 89


DEFINED SYMBOLS
                            *ABS*:0000000000000000 chcond.c
     /tmp/cc521pIj.s:18     .text.chCondObjectInit:0000000000000000 $t
     /tmp/cc521pIj.s:26     .text.chCondObjectInit:0000000000000000 chCondObjectInit
     /tmp/cc521pIj.s:49     .text.chCondSignal:0000000000000000 $t
     /tmp/cc521pIj.s:57     .text.chCondSignal:0000000000000000 chCondSignal
     /tmp/cc521pIj.s:140    .text.chCondSignalI:0000000000000000 $t
     /tmp/cc521pIj.s:148    .text.chCondSignalI:0000000000000000 chCondSignalI
     /tmp/cc521pIj.s:200    .text.chCondBroadcast:0000000000000000 $t
     /tmp/cc521pIj.s:208    .text.chCondBroadcast:0000000000000000 chCondBroadcast
     /tmp/cc521pIj.s:317    .text.chCondBroadcastI:0000000000000000 $t
     /tmp/cc521pIj.s:325    .text.chCondBroadcastI:0000000000000000 chCondBroadcastI
     /tmp/cc521pIj.s:391    .text.chCondWaitS:0000000000000000 $t
     /tmp/cc521pIj.s:399    .text.chCondWaitS:0000000000000000 chCondWaitS
     /tmp/cc521pIj.s:499    .text.chCondWaitS:0000000000000048 $d
     /tmp/cc521pIj.s:506    .text.chCondWait:0000000000000000 $t
     /tmp/cc521pIj.s:514    .text.chCondWait:0000000000000000 chCondWait
     /tmp/cc521pIj.s:570    .text.chCondWaitTimeoutS:0000000000000000 $t
     /tmp/cc521pIj.s:578    .text.chCondWaitTimeoutS:0000000000000000 chCondWaitTimeoutS
     /tmp/cc521pIj.s:699    .text.chCondWaitTimeoutS:0000000000000054 $d
     /tmp/cc521pIj.s:706    .text.chCondWaitTimeout:0000000000000000 $t
     /tmp/cc521pIj.s:714    .text.chCondWaitTimeout:0000000000000000 chCondWaitTimeout

UNDEFINED SYMBOLS
chSchWakeupS
chSchReadyI
chSchRescheduleS
chMtxUnlockS
chSchGoSleepS
chMtxLockS
ch
chSchGoSleepTimeoutS
