ARM GAS  /tmp/ccoexHG2.s 			page 1


   1              		.cpu cortex-m4
   2              		.eabi_attribute 27, 1
   3              		.eabi_attribute 28, 1
   4              		.eabi_attribute 20, 1
   5              		.eabi_attribute 21, 1
   6              		.eabi_attribute 23, 3
   7              		.eabi_attribute 24, 1
   8              		.eabi_attribute 25, 1
   9              		.eabi_attribute 26, 1
  10              		.eabi_attribute 30, 2
  11              		.eabi_attribute 34, 1
  12              		.eabi_attribute 18, 4
  13              		.file	"chdynamic.c"
  14              		.text
  15              	.Ltext0:
  16              		.cfi_sections	.debug_frame
  17              		.section	.text.chThdAddRef,"ax",%progbits
  18              		.align	1
  19              		.p2align 4,,15
  20              		.global	chThdAddRef
  21              		.syntax unified
  22              		.thumb
  23              		.thumb_func
  24              		.fpu fpv4-sp-d16
  25              		.type	chThdAddRef, %function
  26              	chThdAddRef:
  27              	.LFB219:
  28              		.file 1 "ChibiOS_3.0.2/os/rt/src/chdynamic.c"
  29              		.loc 1 68 0
  30              		.cfi_startproc
  31              		@ args = 0, pretend = 0, frame = 0
  32              		@ frame_needed = 0, uses_anonymous_args = 0
  33              		@ link register save eliminated.
  34              	.LVL0:
  35              	.LBB54:
  36              	.LBB55:
  37              	.LBB56:
  38              	.LBB57:
  39              		.file 2 "ChibiOS_3.0.2/os/ext/CMSIS/include/core_cmFunc.h"
  40              		.loc 2 546 0
  41 0000 2023     		movs	r3, #32
  42              		.syntax unified
  43              	@ 546 "ChibiOS_3.0.2/os/ext/CMSIS/include/core_cmFunc.h" 1
  44 0002 83F31188 		MSR basepri, r3
  45              	@ 0 "" 2
  46              	.LVL1:
  47              		.thumb
  48              		.syntax unified
  49              	.LBE57:
  50              	.LBE56:
  51              	.LBE55:
  52              	.LBE54:
  53              		.loc 1 72 0
  54 0006 837F     		ldrb	r3, [r0, #30]	@ zero_extendqisi2
  55 0008 0133     		adds	r3, r3, #1
  56 000a 8377     		strb	r3, [r0, #30]
  57              	.LVL2:
ARM GAS  /tmp/ccoexHG2.s 			page 2


  58              	.LBB58:
  59              	.LBB59:
  60              	.LBB60:
  61              	.LBB61:
  62              	.LBB62:
  63              		.loc 2 546 0
  64 000c 0023     		movs	r3, #0
  65              		.syntax unified
  66              	@ 546 "ChibiOS_3.0.2/os/ext/CMSIS/include/core_cmFunc.h" 1
  67 000e 83F31188 		MSR basepri, r3
  68              	@ 0 "" 2
  69              	.LVL3:
  70              		.thumb
  71              		.syntax unified
  72              	.LBE62:
  73              	.LBE61:
  74              	.LBE60:
  75              	.LBE59:
  76              	.LBE58:
  77              		.loc 1 76 0
  78 0012 7047     		bx	lr
  79              		.cfi_endproc
  80              	.LFE219:
  81              		.size	chThdAddRef, .-chThdAddRef
  82              		.section	.text.chThdRelease,"ax",%progbits
  83              		.align	1
  84              		.p2align 4,,15
  85              		.global	chThdRelease
  86              		.syntax unified
  87              		.thumb
  88              		.thumb_func
  89              		.fpu fpv4-sp-d16
  90              		.type	chThdRelease, %function
  91              	chThdRelease:
  92              	.LFB220:
  93              		.loc 1 91 0
  94              		.cfi_startproc
  95              		@ args = 0, pretend = 0, frame = 0
  96              		@ frame_needed = 0, uses_anonymous_args = 0
  97              		@ link register save eliminated.
  98              	.LVL4:
  99              		.loc 1 91 0
 100 0000 0146     		mov	r1, r0
 101              	.LBB63:
 102              	.LBB64:
 103              	.LBB65:
 104              	.LBB66:
 105              		.loc 2 546 0
 106 0002 2023     		movs	r3, #32
 107              		.syntax unified
 108              	@ 546 "ChibiOS_3.0.2/os/ext/CMSIS/include/core_cmFunc.h" 1
 109 0004 83F31188 		MSR basepri, r3
 110              	@ 0 "" 2
 111              	.LVL5:
 112              		.thumb
 113              		.syntax unified
 114              	.LBE66:
ARM GAS  /tmp/ccoexHG2.s 			page 3


 115              	.LBE65:
 116              	.LBE64:
 117              	.LBE63:
 118              		.loc 1 96 0
 119 0008 837F     		ldrb	r3, [r0, #30]	@ zero_extendqisi2
 120 000a 013B     		subs	r3, r3, #1
 121 000c DBB2     		uxtb	r3, r3
 122 000e 8377     		strb	r3, [r0, #30]
 123              	.LVL6:
 124              	.LBB67:
 125              	.LBB68:
 126              	.LBB69:
 127              	.LBB70:
 128              	.LBB71:
 129              		.loc 2 546 0
 130 0010 0022     		movs	r2, #0
 131              		.syntax unified
 132              	@ 546 "ChibiOS_3.0.2/os/ext/CMSIS/include/core_cmFunc.h" 1
 133 0012 82F31188 		MSR basepri, r2
 134              	@ 0 "" 2
 135              	.LVL7:
 136              		.thumb
 137              		.syntax unified
 138              	.LBE71:
 139              	.LBE70:
 140              	.LBE69:
 141              	.LBE68:
 142              	.LBE67:
 143              		.loc 1 103 0
 144 0016 13B9     		cbnz	r3, .L3
 145              		.loc 1 103 0 is_stmt 0 discriminator 1
 146 0018 037F     		ldrb	r3, [r0, #28]	@ zero_extendqisi2
 147              	.LVL8:
 148 001a 0F2B     		cmp	r3, #15
 149 001c 00D0     		beq	.L7
 150              	.L3:
 151              		.loc 1 127 0 is_stmt 1
 152 001e 7047     		bx	lr
 153              	.L7:
 154              		.loc 1 104 0
 155 0020 437F     		ldrb	r3, [r0, #29]	@ zero_extendqisi2
 156 0022 03F00303 		and	r3, r3, #3
 157 0026 012B     		cmp	r3, #1
 158 0028 02D0     		beq	.L5
 159 002a 022B     		cmp	r3, #2
 160 002c 07D0     		beq	.L6
 161 002e 7047     		bx	lr
 162              	.L5:
 163              		.loc 1 108 0
 164 0030 D0E90423 		ldrd	r2, r3, [r0, #16]
 165 0034 1A61     		str	r2, [r3, #16]
 166              	.LVL9:
 167 0036 0269     		ldr	r2, [r0, #16]
 168 0038 5361     		str	r3, [r2, #20]
 169              		.loc 1 110 0
 170 003a FFF7FEBF 		b	chHeapFree
 171              	.LVL10:
ARM GAS  /tmp/ccoexHG2.s 			page 4


 172              	.L6:
 173              		.loc 1 116 0
 174 003e D0E90423 		ldrd	r2, r3, [r0, #16]
 175 0042 1A61     		str	r2, [r3, #16]
 176              	.LVL11:
 177 0044 0269     		ldr	r2, [r0, #16]
 178              		.loc 1 118 0
 179 0046 406C     		ldr	r0, [r0, #68]
 180              	.LVL12:
 181              		.loc 1 116 0
 182 0048 5361     		str	r3, [r2, #20]
 183              		.loc 1 118 0
 184 004a FFF7FEBF 		b	chPoolFree
 185              	.LVL13:
 186              		.cfi_endproc
 187              	.LFE220:
 188              		.size	chThdRelease, .-chThdRelease
 189 004e 00BF     		.section	.text.chThdCreateFromHeap,"ax",%progbits
 190              		.align	1
 191              		.p2align 4,,15
 192              		.global	chThdCreateFromHeap
 193              		.syntax unified
 194              		.thumb
 195              		.thumb_func
 196              		.fpu fpv4-sp-d16
 197              		.type	chThdCreateFromHeap, %function
 198              	chThdCreateFromHeap:
 199              	.LFB221:
 200              		.loc 1 153 0
 201              		.cfi_startproc
 202              		@ args = 4, pretend = 0, frame = 0
 203              		@ frame_needed = 0, uses_anonymous_args = 0
 204              	.LVL14:
 205 0000 F0B5     		push	{r4, r5, r6, r7, lr}
 206              		.cfi_def_cfa_offset 20
 207              		.cfi_offset 4, -20
 208              		.cfi_offset 5, -16
 209              		.cfi_offset 6, -12
 210              		.cfi_offset 7, -8
 211              		.cfi_offset 14, -4
 212 0002 83B0     		sub	sp, sp, #12
 213              		.cfi_def_cfa_offset 32
 214              		.loc 1 153 0
 215 0004 1646     		mov	r6, r2
 216 0006 1F46     		mov	r7, r3
 217 0008 0D46     		mov	r5, r1
 218              		.loc 1 157 0
 219 000a FFF7FEFF 		bl	chHeapAlloc
 220              	.LVL15:
 221              		.loc 1 158 0
 222 000e A8B1     		cbz	r0, .L11
 223              	.LVL16:
 224              	.LBB72:
 225              	.LBB73:
 226              	.LBB74:
 227              	.LBB75:
 228              		.loc 2 546 0
ARM GAS  /tmp/ccoexHG2.s 			page 5


 229 0010 2023     		movs	r3, #32
 230              		.syntax unified
 231              	@ 546 "ChibiOS_3.0.2/os/ext/CMSIS/include/core_cmFunc.h" 1
 232 0012 83F31188 		MSR basepri, r3
 233              	@ 0 "" 2
 234              	.LVL17:
 235              		.thumb
 236              		.syntax unified
 237              	.LBE75:
 238              	.LBE74:
 239              	.LBE73:
 240              	.LBE72:
 241              		.loc 1 172 0
 242 0016 089B     		ldr	r3, [sp, #32]
 243 0018 0093     		str	r3, [sp]
 244 001a 3246     		mov	r2, r6
 245 001c 3B46     		mov	r3, r7
 246 001e 2946     		mov	r1, r5
 247 0020 FFF7FEFF 		bl	chThdCreateI
 248              	.LVL18:
 249              		.loc 1 173 0
 250 0024 0123     		movs	r3, #1
 251 0026 4377     		strb	r3, [r0, #29]
 252              		.loc 1 174 0
 253 0028 0021     		movs	r1, #0
 254              		.loc 1 172 0
 255 002a 0446     		mov	r4, r0
 256              	.LVL19:
 257              		.loc 1 174 0
 258 002c FFF7FEFF 		bl	chSchWakeupS
 259              	.LVL20:
 260              	.LBB76:
 261              	.LBB77:
 262              	.LBB78:
 263              	.LBB79:
 264              	.LBB80:
 265              		.loc 2 546 0
 266 0030 0023     		movs	r3, #0
 267              		.syntax unified
 268              	@ 546 "ChibiOS_3.0.2/os/ext/CMSIS/include/core_cmFunc.h" 1
 269 0032 83F31188 		MSR basepri, r3
 270              	@ 0 "" 2
 271              	.LVL21:
 272              		.thumb
 273              		.syntax unified
 274              	.L8:
 275              	.LBE80:
 276              	.LBE79:
 277              	.LBE78:
 278              	.LBE77:
 279              	.LBE76:
 280              		.loc 1 178 0
 281 0036 2046     		mov	r0, r4
 282 0038 03B0     		add	sp, sp, #12
 283              		.cfi_remember_state
 284              		.cfi_def_cfa_offset 20
 285              		@ sp needed
ARM GAS  /tmp/ccoexHG2.s 			page 6


 286 003a F0BD     		pop	{r4, r5, r6, r7, pc}
 287              	.LVL22:
 288              	.L11:
 289              		.cfi_restore_state
 290 003c 0446     		mov	r4, r0
 291 003e FAE7     		b	.L8
 292              		.cfi_endproc
 293              	.LFE221:
 294              		.size	chThdCreateFromHeap, .-chThdCreateFromHeap
 295              		.section	.text.chThdCreateFromMemoryPool,"ax",%progbits
 296              		.align	1
 297              		.p2align 4,,15
 298              		.global	chThdCreateFromMemoryPool
 299              		.syntax unified
 300              		.thumb
 301              		.thumb_func
 302              		.fpu fpv4-sp-d16
 303              		.type	chThdCreateFromMemoryPool, %function
 304              	chThdCreateFromMemoryPool:
 305              	.LFB222:
 306              		.loc 1 205 0
 307              		.cfi_startproc
 308              		@ args = 0, pretend = 0, frame = 0
 309              		@ frame_needed = 0, uses_anonymous_args = 0
 310              	.LVL23:
 311 0000 2DE9F041 		push	{r4, r5, r6, r7, r8, lr}
 312              		.cfi_def_cfa_offset 24
 313              		.cfi_offset 4, -24
 314              		.cfi_offset 5, -20
 315              		.cfi_offset 6, -16
 316              		.cfi_offset 7, -12
 317              		.cfi_offset 8, -8
 318              		.cfi_offset 14, -4
 319 0004 82B0     		sub	sp, sp, #8
 320              		.cfi_def_cfa_offset 32
 321              		.loc 1 205 0
 322 0006 0E46     		mov	r6, r1
 323 0008 1746     		mov	r7, r2
 324 000a 9846     		mov	r8, r3
 325 000c 0546     		mov	r5, r0
 326              		.loc 1 211 0
 327 000e FFF7FEFF 		bl	chPoolAlloc
 328              	.LVL24:
 329              		.loc 1 212 0
 330 0012 B8B1     		cbz	r0, .L16
 331              	.LVL25:
 332              	.LBB81:
 333              	.LBB82:
 334              	.LBB83:
 335              	.LBB84:
 336              		.loc 2 546 0
 337 0014 2023     		movs	r3, #32
 338              		.syntax unified
 339              	@ 546 "ChibiOS_3.0.2/os/ext/CMSIS/include/core_cmFunc.h" 1
 340 0016 83F31188 		MSR basepri, r3
 341              	@ 0 "" 2
 342              	.LVL26:
ARM GAS  /tmp/ccoexHG2.s 			page 7


 343              		.thumb
 344              		.syntax unified
 345              	.LBE84:
 346              	.LBE83:
 347              	.LBE82:
 348              	.LBE81:
 349              		.loc 1 226 0
 350 001a 6968     		ldr	r1, [r5, #4]
 351 001c CDF80080 		str	r8, [sp]
 352 0020 3B46     		mov	r3, r7
 353 0022 3246     		mov	r2, r6
 354 0024 FFF7FEFF 		bl	chThdCreateI
 355              	.LVL27:
 356              		.loc 1 227 0
 357 0028 0223     		movs	r3, #2
 358 002a 4377     		strb	r3, [r0, #29]
 359              		.loc 1 228 0
 360 002c 4564     		str	r5, [r0, #68]
 361              		.loc 1 229 0
 362 002e 0021     		movs	r1, #0
 363              		.loc 1 226 0
 364 0030 0446     		mov	r4, r0
 365              	.LVL28:
 366              		.loc 1 229 0
 367 0032 FFF7FEFF 		bl	chSchWakeupS
 368              	.LVL29:
 369              	.LBB85:
 370              	.LBB86:
 371              	.LBB87:
 372              	.LBB88:
 373              	.LBB89:
 374              		.loc 2 546 0
 375 0036 0023     		movs	r3, #0
 376              		.syntax unified
 377              	@ 546 "ChibiOS_3.0.2/os/ext/CMSIS/include/core_cmFunc.h" 1
 378 0038 83F31188 		MSR basepri, r3
 379              	@ 0 "" 2
 380              	.LVL30:
 381              		.thumb
 382              		.syntax unified
 383              	.L13:
 384              	.LBE89:
 385              	.LBE88:
 386              	.LBE87:
 387              	.LBE86:
 388              	.LBE85:
 389              		.loc 1 233 0
 390 003c 2046     		mov	r0, r4
 391 003e 02B0     		add	sp, sp, #8
 392              		.cfi_remember_state
 393              		.cfi_def_cfa_offset 24
 394              		@ sp needed
 395 0040 BDE8F081 		pop	{r4, r5, r6, r7, r8, pc}
 396              	.LVL31:
 397              	.L16:
 398              		.cfi_restore_state
 399 0044 0446     		mov	r4, r0
ARM GAS  /tmp/ccoexHG2.s 			page 8


 400 0046 F9E7     		b	.L13
 401              		.cfi_endproc
 402              	.LFE222:
 403              		.size	chThdCreateFromMemoryPool, .-chThdCreateFromMemoryPool
 404              		.text
 405              	.Letext0:
 406              		.file 3 "/usr/lib/gcc/arm-none-eabi/7.3.1/include/stddef.h"
 407              		.file 4 "/usr/arm-none-eabi/include/machine/_default_types.h"
 408              		.file 5 "/usr/arm-none-eabi/include/sys/_stdint.h"
 409              		.file 6 "ChibiOS_3.0.2/os/rt/ports/ARMCMx/compilers/GCC/chtypes.h"
 410              		.file 7 "ChibiOS_3.0.2/os/rt/include/chsystypes.h"
 411              		.file 8 "ChibiOS_3.0.2/os/rt/include/chschd.h"
 412              		.file 9 "ChibiOS_3.0.2/os/ext/CMSIS/include/core_cm4.h"
 413              		.file 10 "ChibiOS_3.0.2/os/ext/CMSIS/ST/system_stm32f4xx.h"
 414              		.file 11 "ChibiOS_3.0.2/os/rt/ports/ARMCMx/chcore.h"
 415              		.file 12 "ChibiOS_3.0.2/os/rt/ports/ARMCMx/chcore_v7m.h"
 416              		.file 13 "ChibiOS_3.0.2/os/rt/include/chtm.h"
 417              		.file 14 "ChibiOS_3.0.2/os/rt/include/chsem.h"
 418              		.file 15 "ChibiOS_3.0.2/os/rt/include/chmtx.h"
 419              		.file 16 "ChibiOS_3.0.2/os/rt/include/chthreads.h"
 420              		.file 17 "ChibiOS_3.0.2/os/rt/include/chregistry.h"
 421              		.file 18 "ChibiOS_3.0.2/os/rt/include/chmemcore.h"
 422              		.file 19 "ChibiOS_3.0.2/os/rt/include/chheap.h"
 423              		.file 20 "ChibiOS_3.0.2/os/rt/include/chmempools.h"
 424              		.file 21 "ChibiOS_3.0.2/os/rt/include/chsys.h"