ARM GAS  /tmp/ccv7mDgM.s 			page 1


   1              		.cpu cortex-m4
   2              		.eabi_attribute 27, 1
   3              		.eabi_attribute 28, 1
   4              		.eabi_attribute 20, 1
   5              		.eabi_attribute 21, 1
   6              		.eabi_attribute 23, 3
   7              		.eabi_attribute 24, 1
   8              		.eabi_attribute 25, 1
   9              		.eabi_attribute 26, 1
  10              		.eabi_attribute 30, 2
  11              		.eabi_attribute 34, 1
  12              		.eabi_attribute 18, 4
  13              		.file	"chmempools.c"
  14              		.text
  15              	.Ltext0:
  16              		.cfi_sections	.debug_frame
  17              		.section	.text.chPoolObjectInit,"ax",%progbits
  18              		.align	1
  19              		.p2align 4,,15
  20              		.global	chPoolObjectInit
  21              		.syntax unified
  22              		.thumb
  23              		.thumb_func
  24              		.fpu fpv4-sp-d16
  25              		.type	chPoolObjectInit, %function
  26              	chPoolObjectInit:
  27              	.LFB219:
  28              		.file 1 "ChibiOS_3.0.2/os/rt/src/chmempools.c"
  29              		.loc 1 75 0
  30              		.cfi_startproc
  31              		@ args = 0, pretend = 0, frame = 0
  32              		@ frame_needed = 0, uses_anonymous_args = 0
  33              		@ link register save eliminated.
  34              	.LVL0:
  35              		.loc 1 79 0
  36 0000 0023     		movs	r3, #0
  37              		.loc 1 81 0
  38 0002 C0E90112 		strd	r1, r2, [r0, #4]
  39              		.loc 1 79 0
  40 0006 0360     		str	r3, [r0]
  41              		.loc 1 82 0
  42 0008 7047     		bx	lr
  43              		.cfi_endproc
  44              	.LFE219:
  45              		.size	chPoolObjectInit, .-chPoolObjectInit
  46 000a 00BF     		.section	.text.chPoolLoadArray,"ax",%progbits
  47              		.align	1
  48              		.p2align 4,,15
  49              		.global	chPoolLoadArray
  50              		.syntax unified
  51              		.thumb
  52              		.thumb_func
  53              		.fpu fpv4-sp-d16
  54              		.type	chPoolLoadArray, %function
  55              	chPoolLoadArray:
  56              	.LFB220:
  57              		.loc 1 97 0
ARM GAS  /tmp/ccv7mDgM.s 			page 2


  58              		.cfi_startproc
  59              		@ args = 0, pretend = 0, frame = 0
  60              		@ frame_needed = 0, uses_anonymous_args = 0
  61              		@ link register save eliminated.
  62              	.LVL1:
  63              		.loc 1 101 0
  64 0000 7AB1     		cbz	r2, .L11
  65              		.loc 1 97 0
  66 0002 30B4     		push	{r4, r5}
  67              		.cfi_def_cfa_offset 8
  68              		.cfi_offset 4, -8
  69              		.cfi_offset 5, -4
  70              	.LBB77:
  71              	.LBB78:
  72              	.LBB79:
  73              	.LBB80:
  74              	.LBB81:
  75              	.LBB82:
  76              		.file 2 "ChibiOS_3.0.2/os/ext/CMSIS/include/core_cmFunc.h"
  77              		.loc 2 546 0
  78 0004 2025     		movs	r5, #32
  79              	.LBE82:
  80              	.LBE81:
  81              	.LBE80:
  82              	.LBE79:
  83              	.LBB86:
  84              	.LBB87:
  85              	.LBB88:
  86              	.LBB89:
  87              	.LBB90:
  88 0006 0024     		movs	r4, #0
  89              	.LVL2:
  90              	.L5:
  91              	.LBE90:
  92              	.LBE89:
  93              	.LBE88:
  94              	.LBE87:
  95              	.LBE86:
  96              	.LBB95:
  97              	.LBB85:
  98              	.LBB84:
  99              	.LBB83:
 100              		.syntax unified
 101              	@ 546 "ChibiOS_3.0.2/os/ext/CMSIS/include/core_cmFunc.h" 1
 102 0008 85F31188 		MSR basepri, r5
 103              	@ 0 "" 2
 104              	.LVL3:
 105              		.thumb
 106              		.syntax unified
 107              	.LBE83:
 108              	.LBE84:
 109              	.LBE85:
 110              	.LBE95:
 111              	.LBB96:
 112              	.LBB97:
 113              		.loc 1 177 0
 114 000c 0368     		ldr	r3, [r0]
ARM GAS  /tmp/ccv7mDgM.s 			page 3


 115 000e 0B60     		str	r3, [r1]
 116              		.loc 1 178 0
 117 0010 0160     		str	r1, [r0]
 118              	.LVL4:
 119              	.LBE97:
 120              	.LBE96:
 121              	.LBB98:
 122              	.LBB94:
 123              	.LBB93:
 124              	.LBB92:
 125              	.LBB91:
 126              		.loc 2 546 0
 127              		.syntax unified
 128              	@ 546 "ChibiOS_3.0.2/os/ext/CMSIS/include/core_cmFunc.h" 1
 129 0012 84F31188 		MSR basepri, r4
 130              	@ 0 "" 2
 131              	.LVL5:
 132              		.thumb
 133              		.syntax unified
 134              	.LBE91:
 135              	.LBE92:
 136              	.LBE93:
 137              	.LBE94:
 138              	.LBE98:
 139              	.LBE78:
 140              	.LBE77:
 141              		.loc 1 104 0
 142 0016 4368     		ldr	r3, [r0, #4]
 143              		.loc 1 101 0
 144 0018 013A     		subs	r2, r2, #1
 145              	.LVL6:
 146              		.loc 1 104 0
 147 001a 1944     		add	r1, r1, r3
 148              	.LVL7:
 149              		.loc 1 101 0
 150 001c F4D1     		bne	.L5
 151              		.loc 1 108 0
 152 001e 30BC     		pop	{r4, r5}
 153              		.cfi_restore 5
 154              		.cfi_restore 4
 155              		.cfi_def_cfa_offset 0
 156 0020 7047     		bx	lr
 157              	.LVL8:
 158              	.L11:
 159 0022 7047     		bx	lr
 160              		.cfi_endproc
 161              	.LFE220:
 162              		.size	chPoolLoadArray, .-chPoolLoadArray
 163              		.section	.text.chPoolAllocI,"ax",%progbits
 164              		.align	1
 165              		.p2align 4,,15
 166              		.global	chPoolAllocI
 167              		.syntax unified
 168              		.thumb
 169              		.thumb_func
 170              		.fpu fpv4-sp-d16
 171              		.type	chPoolAllocI, %function
ARM GAS  /tmp/ccv7mDgM.s 			page 4


 172              	chPoolAllocI:
 173              	.LFB221:
 174              		.loc 1 120 0
 175              		.cfi_startproc
 176              		@ args = 0, pretend = 0, frame = 0
 177              		@ frame_needed = 0, uses_anonymous_args = 0
 178              		@ link register save eliminated.
 179              	.LVL9:
 180              		.loc 1 126 0
 181 0000 0368     		ldr	r3, [r0]
 182              	.LVL10:
 183              		.loc 1 128 0
 184 0002 1BB1     		cbz	r3, .L15
 185              		.loc 1 129 0
 186 0004 1A68     		ldr	r2, [r3]
 187 0006 0260     		str	r2, [r0]
 188              	.L14:
 189              		.loc 1 137 0
 190 0008 1846     		mov	r0, r3
 191              	.LVL11:
 192 000a 7047     		bx	lr
 193              	.LVL12:
 194              	.L15:
 195              	.LBB101:
 196              	.LBB102:
 197              		.loc 1 131 0
 198 000c 8268     		ldr	r2, [r0, #8]
 199 000e 002A     		cmp	r2, #0
 200 0010 FAD0     		beq	.L14
 201              		.loc 1 132 0
 202 0012 4068     		ldr	r0, [r0, #4]
 203              	.LVL13:
 204 0014 1047     		bx	r2
 205              	.LVL14:
 206              	.LBE102:
 207              	.LBE101:
 208              		.cfi_endproc
 209              	.LFE221:
 210              		.size	chPoolAllocI, .-chPoolAllocI
 211 0016 00BF     		.section	.text.chPoolAlloc,"ax",%progbits
 212              		.align	1
 213              		.p2align 4,,15
 214              		.global	chPoolAlloc
 215              		.syntax unified
 216              		.thumb
 217              		.thumb_func
 218              		.fpu fpv4-sp-d16
 219              		.type	chPoolAlloc, %function
 220              	chPoolAlloc:
 221              	.LFB222:
 222              		.loc 1 149 0
 223              		.cfi_startproc
 224              		@ args = 0, pretend = 0, frame = 0
 225              		@ frame_needed = 0, uses_anonymous_args = 0
 226              	.LVL15:
 227 0000 08B5     		push	{r3, lr}
 228              		.cfi_def_cfa_offset 8
ARM GAS  /tmp/ccv7mDgM.s 			page 5


 229              		.cfi_offset 3, -8
 230              		.cfi_offset 14, -4
 231              	.LBB116:
 232              	.LBB117:
 233              	.LBB118:
 234              	.LBB119:
 235              		.loc 2 546 0
 236 0002 2022     		movs	r2, #32
 237              	.LBE119:
 238              	.LBE118:
 239              	.LBE117:
 240              	.LBE116:
 241              		.loc 1 149 0
 242 0004 0346     		mov	r3, r0
 243              	.LBB123:
 244              	.LBB122:
 245              	.LBB121:
 246              	.LBB120:
 247              		.loc 2 546 0
 248              		.syntax unified
 249              	@ 546 "ChibiOS_3.0.2/os/ext/CMSIS/include/core_cmFunc.h" 1
 250 0006 82F31188 		MSR basepri, r2
 251              	@ 0 "" 2
 252              	.LVL16:
 253              		.thumb
 254              		.syntax unified
 255              	.LBE120:
 256              	.LBE121:
 257              	.LBE122:
 258              	.LBE123:
 259              	.LBB124:
 260              	.LBB125:
 261              		.loc 1 126 0
 262 000a 0068     		ldr	r0, [r0]
 263              	.LVL17:
 264              		.loc 1 128 0
 265 000c 28B1     		cbz	r0, .L21
 266              		.loc 1 129 0
 267 000e 0268     		ldr	r2, [r0]
 268 0010 1A60     		str	r2, [r3]
 269              	.L22:
 270              	.LVL18:
 271              	.LBE125:
 272              	.LBE124:
 273              	.LBB129:
 274              	.LBB130:
 275              	.LBB131:
 276              	.LBB132:
 277              	.LBB133:
 278              		.loc 2 546 0
 279 0012 0023     		movs	r3, #0
 280              	.LVL19:
 281              		.syntax unified
 282              	@ 546 "ChibiOS_3.0.2/os/ext/CMSIS/include/core_cmFunc.h" 1
 283 0014 83F31188 		MSR basepri, r3
 284              	@ 0 "" 2
 285              	.LVL20:
ARM GAS  /tmp/ccv7mDgM.s 			page 6


 286              		.thumb
 287              		.syntax unified
 288              	.LBE133:
 289              	.LBE132:
 290              	.LBE131:
 291              	.LBE130:
 292              	.LBE129:
 293              		.loc 1 157 0
 294 0018 08BD     		pop	{r3, pc}
 295              	.LVL21:
 296              	.L21:
 297              	.LBB138:
 298              	.LBB128:
 299              	.LBB126:
 300              	.LBB127:
 301              		.loc 1 131 0
 302 001a 9A68     		ldr	r2, [r3, #8]
 303 001c 002A     		cmp	r2, #0
 304 001e F8D0     		beq	.L22
 305              		.loc 1 132 0
 306 0020 5868     		ldr	r0, [r3, #4]
 307              	.LVL22:
 308 0022 9047     		blx	r2
 309              	.LVL23:
 310              	.LBE127:
 311              	.LBE126:
 312              	.LBE128:
 313              	.LBE138:
 314              	.LBB139:
 315              	.LBB137:
 316              	.LBB136:
 317              	.LBB135:
 318              	.LBB134:
 319              		.loc 2 546 0
 320 0024 0023     		movs	r3, #0
 321              		.syntax unified
 322              	@ 546 "ChibiOS_3.0.2/os/ext/CMSIS/include/core_cmFunc.h" 1
 323 0026 83F31188 		MSR basepri, r3
 324              	@ 0 "" 2
 325              	.LVL24:
 326              		.thumb
 327              		.syntax unified
 328              	.LBE134:
 329              	.LBE135:
 330              	.LBE136:
 331              	.LBE137:
 332              	.LBE139:
 333              		.loc 1 157 0
 334 002a 08BD     		pop	{r3, pc}
 335              		.cfi_endproc
 336              	.LFE222:
 337              		.size	chPoolAlloc, .-chPoolAlloc
 338              		.section	.text.chPoolFreeI,"ax",%progbits
 339              		.align	1
 340              		.p2align 4,,15
 341              		.global	chPoolFreeI
 342              		.syntax unified
ARM GAS  /tmp/ccv7mDgM.s 			page 7


 343              		.thumb
 344              		.thumb_func
 345              		.fpu fpv4-sp-d16
 346              		.type	chPoolFreeI, %function
 347              	chPoolFreeI:
 348              	.LFB223:
 349              		.loc 1 171 0
 350              		.cfi_startproc
 351              		@ args = 0, pretend = 0, frame = 0
 352              		@ frame_needed = 0, uses_anonymous_args = 0
 353              		@ link register save eliminated.
 354              	.LVL25:
 355              		.loc 1 177 0
 356 0000 0368     		ldr	r3, [r0]
 357 0002 0B60     		str	r3, [r1]
 358              		.loc 1 178 0
 359 0004 0160     		str	r1, [r0]
 360              		.loc 1 179 0
 361 0006 7047     		bx	lr
 362              		.cfi_endproc
 363              	.LFE223:
 364              		.size	chPoolFreeI, .-chPoolFreeI
 365              		.section	.text.chPoolFree,"ax",%progbits
 366              		.align	1
 367              		.p2align 4,,15
 368              		.global	chPoolFree
 369              		.syntax unified
 370              		.thumb
 371              		.thumb_func
 372              		.fpu fpv4-sp-d16
 373              		.type	chPoolFree, %function
 374              	chPoolFree:
 375              	.LFB224:
 376              		.loc 1 193 0
 377              		.cfi_startproc
 378              		@ args = 0, pretend = 0, frame = 0
 379              		@ frame_needed = 0, uses_anonymous_args = 0
 380              		@ link register save eliminated.
 381              	.LVL26:
 382              	.LBB140:
 383              	.LBB141:
 384              	.LBB142:
 385              	.LBB143:
 386              		.loc 2 546 0
 387 0000 2023     		movs	r3, #32
 388              		.syntax unified
 389              	@ 546 "ChibiOS_3.0.2/os/ext/CMSIS/include/core_cmFunc.h" 1
 390 0002 83F31188 		MSR basepri, r3
 391              	@ 0 "" 2
 392              	.LVL27:
 393              		.thumb
 394              		.syntax unified
 395              	.LBE143:
 396              	.LBE142:
 397              	.LBE141:
 398              	.LBE140:
 399              	.LBB144:
ARM GAS  /tmp/ccv7mDgM.s 			page 8


 400              	.LBB145:
 401              		.loc 1 177 0
 402 0006 0368     		ldr	r3, [r0]
 403 0008 0B60     		str	r3, [r1]
 404              	.LBE145:
 405              	.LBE144:
 406              	.LBB147:
 407              	.LBB148:
 408              	.LBB149:
 409              	.LBB150:
 410              	.LBB151:
 411              		.loc 2 546 0
 412 000a 0023     		movs	r3, #0
 413              	.LBE151:
 414              	.LBE150:
 415              	.LBE149:
 416              	.LBE148:
 417              	.LBE147:
 418              	.LBB156:
 419              	.LBB146:
 420              		.loc 1 178 0
 421 000c 0160     		str	r1, [r0]
 422              	.LVL28:
 423              	.LBE146:
 424              	.LBE156:
 425              	.LBB157:
 426              	.LBB155:
 427              	.LBB154:
 428              	.LBB153:
 429              	.LBB152:
 430              		.loc 2 546 0
 431              		.syntax unified
 432              	@ 546 "ChibiOS_3.0.2/os/ext/CMSIS/include/core_cmFunc.h" 1
 433 000e 83F31188 		MSR basepri, r3
 434              	@ 0 "" 2
 435              	.LVL29:
 436              		.thumb
 437              		.syntax unified
 438              	.LBE152:
 439              	.LBE153:
 440              	.LBE154:
 441              	.LBE155:
 442              	.LBE157:
 443              		.loc 1 198 0
 444 0012 7047     		bx	lr
 445              		.cfi_endproc
 446              	.LFE224:
 447              		.size	chPoolFree, .-chPoolFree
 448              		.text
 449              	.Letext0:
 450              		.file 3 "/usr/lib/gcc/arm-none-eabi/7.3.1/include/stddef.h"
 451              		.file 4 "/usr/arm-none-eabi/include/machine/_default_types.h"
 452              		.file 5 "/usr/arm-none-eabi/include/sys/_stdint.h"
 453              		.file 6 "ChibiOS_3.0.2/os/rt/ports/ARMCMx/compilers/GCC/chtypes.h"
 454              		.file 7 "ChibiOS_3.0.2/os/rt/include/chsystypes.h"
 455              		.file 8 "ChibiOS_3.0.2/os/rt/include/chschd.h"
 456              		.file 9 "ChibiOS_3.0.2/os/ext/CMSIS/include/core_cm4.h"
ARM GAS  /tmp/ccv7mDgM.s 			page 9


 457              		.file 10 "ChibiOS_3.0.2/os/ext/CMSIS/ST/system_stm32f4xx.h"
 458              		.file 11 "ChibiOS_3.0.2/os/rt/ports/ARMCMx/chcore.h"
 459              		.file 12 "ChibiOS_3.0.2/os/rt/ports/ARMCMx/chcore_v7m.h"
 460              		.file 13 "ChibiOS_3.0.2/os/rt/include/chtm.h"
 461              		.file 14 "ChibiOS_3.0.2/os/rt/include/chsem.h"
 462              		.file 15 "ChibiOS_3.0.2/os/rt/include/chmtx.h"
 463              		.file 16 "ChibiOS_3.0.2/os/rt/include/chregistry.h"
 464              		.file 17 "ChibiOS_3.0.2/os/rt/include/chmemcore.h"
 465              		.file 18 "ChibiOS_3.0.2/os/rt/include/chmempools.h"
 466              		.file 19 "ChibiOS_3.0.2/os/rt/include/chsys.h"