ARM GAS  /tmp/ccv7mDgM.s 			page 1


   1              		.cpu cortex-m4
   2              		.eabi_attribute 27, 1
   3              		.eabi_attribute 28, 1
   4              		.eabi_attribute 20, 1
   5              		.eabi_attribute 21, 1
   6              		.eabi_attribute 23, 3
   7              		.eabi_attribute 24, 1
   8              		.eabi_attribute 25, 1
   9              		.eabi_attribute 26, 1
  10              		.eabi_attribute 30, 2
  11              		.eabi_attribute 34, 1
  12              		.eabi_attribute 18, 4
  13              		.file	"chmempools.c"
  14              		.text
  15              	.Ltext0:
  16              		.cfi_sections	.debug_frame
  17              		.section	.text.chPoolObjectInit,"ax",%progbits
  18              		.align	1
  19              		.p2align 4,,15
  20              		.global	chPoolObjectInit
  21              		.syntax unified
  22              		.thumb
  23              		.thumb_func
  24              		.fpu fpv4-sp-d16
  25              		.type	chPoolObjectInit, %function
  26              	chPoolObjectInit:
  27              	.LFB219:
  28              		.file 1 "ChibiOS_3.0.2/os/rt/src/chmempools.c"
  29              		.loc 1 75 0
  30              		.cfi_startproc
  31              		@ args = 0, pretend = 0, frame = 0
  32              		@ frame_needed = 0, uses_anonymous_args = 0
  33              		@ link register save eliminated.
  34              	.LVL0:
  35              		.loc 1 79 0
  36 0000 0023     		movs	r3, #0
  37              		.loc 1 81 0
  38 0002 C0E90112 		strd	r1, r2, [r0, #4]
  39              		.loc 1 79 0
  40 0006 0360     		str	r3, [r0]
  41              		.loc 1 82 0
  42 0008 7047     		bx	lr
  43              		.cfi_endproc
  44              	.LFE219:
  45              		.size	chPoolObjectInit, .-chPoolObjectInit
  46 000a 00BF     		.section	.text.chPoolLoadArray,"ax",%progbits
  47              		.align	1
  48              		.p2align 4,,15
  49              		.global	chPoolLoadArray
  50              		.syntax unified
  51              		.thumb
  52              		.thumb_func
  53              		.fpu fpv4-sp-d16
  54              		.type	chPoolLoadArray, %function
  55              	chPoolLoadArray:
  56              	.LFB220:
  57              		.loc 1 97 0
ARM GAS  /tmp/ccv7mDgM.s 			page 2


  58              		.cfi_startproc
  59              		@ args = 0, pretend = 0, frame = 0
  60              		@ frame_needed = 0, uses_anonymous_args = 0
  61              		@ link register save eliminated.
  62              	.LVL1:
  63              		.loc 1 101 0
  64 0000 7AB1     		cbz	r2, .L11
  65              		.loc 1 97 0
  66 0002 30B4     		push	{r4, r5}
  67              		.cfi_def_cfa_offset 8
  68              		.cfi_offset 4, -8
  69              		.cfi_offset 5, -4
  70              	.LBB77:
  71              	.LBB78:
  72              	.LBB79:
  73              	.LBB80:
  74              	.LBB81:
  75              	.LBB82:
  76              		.file 2 "ChibiOS_3.0.2/os/ext/CMSIS/include/core_cmFunc.h"
  77              		.loc 2 546 0
  78 0004 2025     		movs	r5, #32
  79              	.LBE82:
  80              	.LBE81:
  81              	.LBE80:
  82              	.LBE79:
  83              	.LBB86:
  84              	.LBB87:
  85              	.LBB88:
  86              	.LBB89:
  87              	.LBB90:
  88 0006 0024     		movs	r4, #0
  89              	.LVL2:
  90              	.L5:
  91              	.LBE90:
  92              	.LBE89:
  93              	.LBE88:
  94              	.LBE87:
  95              	.LBE86:
  96              	.LBB95:
  97              	.LBB85:
  98              	.LBB84:
  99              	.LBB83:
 100              		.syntax unified
 101              	@ 546 "ChibiOS_3.0.2/os/ext/CMSIS/include/core_cmFunc.h" 1
 102 0008 85F31188 		MSR basepri, r5
 103              	@ 0 "" 2
 104              	.LVL3:
 105              		.thumb
 106              		.syntax unified
 107              	.LBE83:
 108              	.LBE84:
 109              	.LBE85:
 110              	.LBE95:
 111              	.LBB96:
 112              	.LBB97:
 113              		.loc 1 177 0
 114 000c 0368     		ldr	r3, [r0]
ARM GAS  /tmp/ccv7mDgM.s 			page 3


 115 000e 0B60     		str	r3, [r1]
 116              		.loc 1 178 0
 117 0010 0160     		str	r1, [r0]
 118              	.LVL4:
 119              	.LBE97:
 120              	.LBE96:
 121              	.LBB98:
 122              	.LBB94:
 123              	.LBB93:
 124              	.LBB92:
 125              	.LBB91:
 126              		.loc 2 546 0
 127              		.syntax unified
 128              	@ 546 "ChibiOS_3.0.2/os/ext/CMSIS/include/core_cmFunc.h" 1
 129 0012 84F31188 		MSR basepri, r4
 130              	@ 0 "" 2
 131              	.LVL5:
 132              		.thumb
 133              		.syntax unified
 134              	.LBE91:
 135              	.LBE92:
 136              	.LBE93:
 137              	.LBE94:
 138              	.LBE98:
 139              	.LBE78:
 140              	.LBE77:
 141              		.loc 1 104 0
 142 0016 4368     		ldr	r3, [r0, #4]
 143              		.loc 1 101 0
 144 0018 013A     		subs	r2, r2, #1
 145              	.LVL6:
 146              		.loc 1 104 0
 147 001a 1944     		add	r1, r1, r3
 148              	.LVL7:
 149              		.loc 1 101 0
 150 001c F4D1     		bne	.L5
 151              		.loc 1 108 0
 152 001e 30BC     		pop	{r4, r5}
 153              		.cfi_restore 5
 154              		.cfi_restore 4
 155              		.cfi_def_cfa_offset 0
 156 0020 7047     		bx	lr
 157              	.LVL8:
 158              	.L11:
 159 0022 7047     		bx	lr
 160              		.cfi_endproc
 161              	.LFE220:
 162              		.size	chPoolLoadArray, .-chPoolLoadArray
 163              		.section	.text.chPoolAllocI,"ax",%progbits
 164              		.align	1
 165              		.p2align 4,,15
 166              		.global	chPoolAllocI
 167              		.syntax unified
 168              		.thumb
 169              		.thumb_func
 170              		.fpu fpv4-sp-d16
 171              		.type	chPoolAllocI, %function
ARM GAS  /tmp/ccv7mDgM.s 			page 4


 172              	chPoolAllocI:
 173              	.LFB221:
 174              		.loc 1 120 0
 175              		.cfi_startproc
 176              		@ args = 0, pretend = 0, frame = 0
 177              		@ frame_needed = 0, uses_anonymous_args = 0
 178              		@ link register save eliminated.
 179              	.LVL9:
 180              		.loc 1 126 0
 181 0000 0368     		ldr	r3, [r0]
 182              	.LVL10:
 183              		.loc 1 128 0
 184 0002 1BB1     		cbz	r3, .L15
 185              		.loc 1 129 0
 186 0004 1A68     		ldr	r2, [r3]
 187 0006 0260     		str	r2, [r0]
 188              	.L14:
 189              		.loc 1 137 0
 190 0008 1846     		mov	r0, r3
 191              	.LVL11:
 192 000a 7047     		bx	lr
 193              	.LVL12:
 194              	.L15:
 195              	.LBB101:
 196              	.LBB102:
 197              		.loc 1 131 0
 198 000c 8268     		ldr	r2, [r0, #8]
 199 000e 002A     		cmp	r2, #0
 200 0010 FAD0     		beq	.L14
 201              		.loc 1 132 0
 202 0012 4068     		ldr	r0, [r0, #4]
 203              	.LVL13:
 204 0014 1047     		bx	r2
 205              	.LVL14:
 206              	.LBE102:
 207              	.LBE101:
 208              		.cfi_endproc
 209              	.LFE221:
 210              		.size	chPoolAllocI, .-chPoolAllocI
 211 0016 00BF     		.section	.text.chPoolAlloc,"ax",%progbits
 212              		.align	1
 213              		.p2align 4,,15
 214              		.global	chPoolAlloc
 215              		.syntax unified
 216              		.thumb
 217              		.thumb_func
 218              		.fpu fpv4-sp-d16
 219              		.type	chPoolAlloc, %function
 220              	chPoolAlloc:
 221              	.LFB222:
 222              		.loc 1 149 0
 223              		.cfi_startproc
 224              		@ args = 0, pretend = 0, frame = 0
 225              		@ frame_needed = 0, uses_anonymous_args = 0
 226              	.LVL15:
 227 0000 08B5     		push	{r3, lr}
 228              		.cfi_def_cfa_offset 8
ARM GAS  /tmp/ccv7mDgM.s 			page 5


 229              		.cfi_offset 3, -8
 230              		.cfi_offset 14, -4
 231              	.LBB116:
 232              	.LBB117:
 233              	.LBB118:
 234              	.LBB119:
 235              		.loc 2 546 0
 236 0002 2022     		movs	r2, #32
 237              	.LBE119:
 238              	.LBE118:
 239              	.LBE117:
 240              	.LBE116:
 241              		.loc 1 149 0
 242 0004 0346     		mov	r3, r0
 243              	.LBB123:
 244              	.LBB122:
 245              	.LBB121:
 246              	.LBB120:
 247              		.loc 2 546 0
 248              		.syntax unified
 249              	@ 546 "ChibiOS_3.0.2/os/ext/CMSIS/include/core_cmFunc.h" 1
 250 0006 82F31188 		MSR basepri, r2
 251              	@ 0 "" 2
 252              	.LVL16:
 253              		.thumb
 254              		.syntax unified
 255              	.LBE120:
 256              	.LBE121:
 257              	.LBE122:
 258              	.LBE123:
 259              	.LBB124:
 260              	.LBB125:
 261              		.loc 1 126 0
 262 000a 0068     		ldr	r0, [r0]
 263              	.LVL17:
 264              		.loc 1 128 0
 265 000c 28B1     		cbz	r0, .L21
 266              		.loc 1 129 0
 267 000e 0268     		ldr	r2, [r0]
 268 0010 1A60     		str	r2, [r3]
 269              	.L22:
 270              	.LVL18:
 271              	.LBE125:
 272              	.LBE124:
 273              	.LBB129:
 274              	.LBB130:
 275              	.LBB131:
 276              	.LBB132:
 277              	.LBB133:
 278              		.loc 2 546 0
 279 0012 0023     		movs	r3, #0
 280              	.LVL19:
 281              		.syntax unified
 282              	@ 546 "ChibiOS_3.0.2/os/ext/CMSIS/include/core_cmFunc.h" 1
 283 0014 83F31188 		MSR basepri, r3
 284              	@ 0 "" 2
 285              	.LVL20:
ARM GAS  /tmp/ccv7mDgM.s 			page 6


 286              		.thumb
 287              		.syntax unified
 288              	.LBE133:
 289              	.LBE132:
 290              	.LBE131:
 291              	.LBE130:
 292              	.LBE129:
 293              		.loc 1 157 0
 294 0018 08BD     		pop	{r3, pc}
 295              	.LVL21:
 296              	.L21:
 297              	.LBB138:
 298              	.LBB128:
 299              	.LBB126:
 300              	.LBB127:
 301              		.loc 1 131 0
 302 001a 9A68     		ldr	r2, [r3, #8]
 303 001c 002A     		cmp	r2, #0
 304 001e F8D0     		beq	.L22
 305              		.loc 1 132 0
 306 0020 5868     		ldr	r0, [r3, #4]
 307              	.LVL22:
 308 0022 9047     		blx	r2
 309              	.LVL23:
 310              	.LBE127:
 311              	.LBE126:
 312              	.LBE128:
 313              	.LBE138:
 314              	.LBB139:
 315              	.LBB137:
 316              	.LBB136:
 317              	.LBB135:
 318              	.LBB134:
 319              		.loc 2 546 0
 320 0024 0023     		movs	r3, #0
 321              		.syntax unified
 322              	@ 546 "ChibiOS_3.0.2/os/ext/CMSIS/include/core_cmFunc.h" 1
 323 0026 83F31188 		MSR basepri, r3
 324              	@ 0 "" 2
 325              	.LVL24:
 326              		.thumb
 327              		.syntax unified
 328              	.LBE134:
 329              	.LBE135:
 330              	.LBE136:
 331              	.LBE137:
 332              	.LBE139:
 333              		.loc 1 157 0
 334 002a 08BD     		pop	{r3, pc}
 335              		.cfi_endproc
 336              	.LFE222:
 337              		.size	chPoolAlloc, .-chPoolAlloc
 338              		.section	.text.chPoolFreeI,"ax",%progbits
 339              		.align	1
 340              		.p2align 4,,15
 341              		.global	chPoolFreeI
 342              		.syntax unified
ARM GAS  /tmp/ccv7mDgM.s 			page 7


 343              		.thumb
 344              		.thumb_func
 345              		.fpu fpv4-sp-d16
 346              		.type	chPoolFreeI, %function
 347              	chPoolFreeI:
 348              	.LFB223:
 349              		.loc 1 171 0
 350              		.cfi_startproc
 351              		@ args = 0, pretend = 0, frame = 0
 352              		@ frame_needed = 0, uses_anonymous_args = 0
 353              		@ link register save eliminated.
 354              	.LVL25:
 355              		.loc 1 177 0
 356 0000 0368     		ldr	r3, [r0]
 357 0002 0B60     		str	r3, [r1]
 358              		.loc 1 178 0
 359 0004 0160     		str	r1, [r0]
 360              		.loc 1 179 0
 361 0006 7047     		bx	lr
 362              		.cfi_endproc
 363              	.LFE223:
 364              		.size	chPoolFreeI, .-chPoolFreeI
 365              		.section	.text.chPoolFree,"ax",%progbits
 366              		.align	1
 367              		.p2align 4,,15
 368              		.global	chPoolFree
 369              		.syntax unified
 370              		.thumb
 371              		.thumb_func
 372              		.fpu fpv4-sp-d16
 373              		.type	chPoolFree, %function
 374              	chPoolFree:
 375              	.LFB224:
 376              		.loc 1 193 0
 377              		.cfi_startproc
 378              		@ args = 0, pretend = 0, frame = 0
 379              		@ frame_needed = 0, uses_anonymous_args = 0
 380              		@ link register save eliminated.
 381              	.LVL26:
 382              	.LBB140:
 383              	.LBB141:
 384              	.LBB142:
 385              	.LBB143:
 386              		.loc 2 546 0
 387 0000 2023     		movs	r3, #32
 388              		.syntax unified
 389              	@ 546 "ChibiOS_3.0.2/os/ext/CMSIS/include/core_cmFunc.h" 1
 390 0002 83F31188 		MSR basepri, r3
 391              	@ 0 "" 2
 392              	.LVL27:
 393              		.thumb
 394              		.syntax unified
 395              	.LBE143:
 396              	.LBE142:
 397              	.LBE141:
 398              	.LBE140:
 399              	.LBB144:
ARM GAS  /tmp/ccv7mDgM.s 			page 8


 400              	.LBB145:
 401              		.loc 1 177 0
 402 0006 0368     		ldr	r3, [r0]
 403 0008 0B60     		str	r3, [r1]
 404              	.LBE145:
 405              	.LBE144:
 406              	.LBB147:
 407              	.LBB148:
 408              	.LBB149:
 409              	.LBB150:
 410              	.LBB151:
 411              		.loc 2 546 0
 412 000a 0023     		movs	r3, #0
 413              	.LBE151:
 414              	.LBE150:
 415              	.LBE149:
 416              	.LBE148:
 417              	.LBE147:
 418              	.LBB156:
 419              	.LBB146:
 420              		.loc 1 178 0
 421 000c 0160     		str	r1, [r0]
 422              	.LVL28:
 423              	.LBE146:
 424              	.LBE156:
 425              	.LBB157:
 426              	.LBB155:
 427              	.LBB154:
 428              	.LBB153:
 429              	.LBB152:
 430              		.loc 2 546 0
 431              		.syntax unified
 432              	@ 546 "ChibiOS_3.0.2/os/ext/CMSIS/include/core_cmFunc.h" 1
 433 000e 83F31188 		MSR basepri, r3
 434              	@ 0 "" 2
 435              	.LVL29:
 436              		.thumb
 437              		.syntax unified
 438              	.LBE152:
 439              	.LBE153:
 440              	.LBE154:
 441              	.LBE155:
 442              	.LBE157:
 443              		.loc 1 198 0
 444 0012 7047     		bx	lr
 445              		.cfi_endproc
 446              	.LFE224:
 447              		.size	chPoolFree, .-chPoolFree
 448              		.text
 449              	.Letext0:
 450              		.file 3 "/usr/lib/gcc/arm-none-eabi/7.3.1/include/stddef.h"
 451              		.file 4 "/usr/arm-none-eabi/include/machine/_default_types.h"
 452              		.file 5 "/usr/arm-none-eabi/include/sys/_stdint.h"
 453              		.file 6 "ChibiOS_3.0.2/os/rt/ports/ARMCMx/compilers/GCC/chtypes.h"
 454              		.file 7 "ChibiOS_3.0.2/os/rt/include/chsystypes.h"
 455              		.file 8 "ChibiOS_3.0.2/os/rt/include/chschd.h"
 456              		.file 9 "ChibiOS_3.0.2/os/ext/CMSIS/include/core_cm4.h"
ARM GAS  /tmp/ccv7mDgM.s 			page 9


 457              		.file 10 "ChibiOS_3.0.2/os/ext/CMSIS/ST/system_stm32f4xx.h"
 458              		.file 11 "ChibiOS_3.0.2/os/rt/ports/ARMCMx/chcore.h"
 459              		.file 12 "ChibiOS_3.0.2/os/rt/ports/ARMCMx/chcore_v7m.h"
 460              		.file 13 "ChibiOS_3.0.2/os/rt/include/chtm.h"
 461              		.file 14 "ChibiOS_3.0.2/os/rt/include/chsem.h"
 462              		.file 15 "ChibiOS_3.0.2/os/rt/include/chmtx.h"
 463              		.file 16 "ChibiOS_3.0.2/os/rt/include/chregistry.h"
 464              		.file 17 "ChibiOS_3.0.2/os/rt/include/chmemcore.h"
 465              		.file 18 "ChibiOS_3.0.2/os/rt/include/chmempools.h"
 466              		.file 19 "ChibiOS_3.0.2/os/rt/include/chsys.h"
 467              		.section	.debug_info,"",%progbits
 468              	.Ldebug_info0:
 469 0000 EC0D0000 		.4byte	0xdec
 470 0004 0400     		.2byte	0x4
 471 0006 00000000 		.4byte	.Ldebug_abbrev0
 472 000a 04       		.byte	0x4
 473 000b 01       		.uleb128 0x1
 474 000c 5F000000 		.4byte	.LASF151
 475 0010 0C       		.byte	0xc
 476 0011 6A030000 		.4byte	.LASF152
 477 0015 DE050000 		.4byte	.LASF153
 478 0019 A8000000 		.4byte	.Ldebug_ranges0+0xa8
 479 001d 00000000 		.4byte	0
 480 0021 00000000 		.4byte	.Ldebug_line0
 481 0025 02       		.uleb128 0x2
 482 0026 04       		.byte	0x4
 483 0027 05       		.byte	0x5
 484 0028 696E7400 		.ascii	"int\000"
 485 002c 03       		.uleb128 0x3
 486 002d 1A000000 		.4byte	.LASF2
 487 0031 03       		.byte	0x3
 488 0032 D8       		.byte	0xd8
 489 0033 37000000 		.4byte	0x37
 490 0037 04       		.uleb128 0x4
 491 0038 04       		.byte	0x4
 492 0039 07       		.byte	0x7
 493 003a 03030000 		.4byte	.LASF0
 494 003e 04       		.uleb128 0x4
 495 003f 01       		.byte	0x1
 496 0040 06       		.byte	0x6
 497 0041 29020000 		.4byte	.LASF1
 498 0045 03       		.uleb128 0x3
 499 0046 31000000 		.4byte	.LASF3
 500 004a 04       		.byte	0x4
 501 004b 2B       		.byte	0x2b
 502 004c 50000000 		.4byte	0x50
 503 0050 04       		.uleb128 0x4
 504 0051 01       		.byte	0x1
 505 0052 08       		.byte	0x8
 506 0053 41050000 		.4byte	.LASF4
 507 0057 04       		.uleb128 0x4
 508 0058 02       		.byte	0x2
 509 0059 05       		.byte	0x5
 510 005a 59050000 		.4byte	.LASF5
 511 005e 03       		.uleb128 0x3
 512 005f 68060000 		.4byte	.LASF6
 513 0063 04       		.byte	0x4
ARM GAS  /tmp/ccv7mDgM.s 			page 10


 514 0064 39       		.byte	0x39
 515 0065 69000000 		.4byte	0x69
 516 0069 04       		.uleb128 0x4
 517 006a 02       		.byte	0x2
 518 006b 07       		.byte	0x7
 519 006c 95030000 		.4byte	.LASF7
 520 0070 03       		.uleb128 0x3
 521 0071 05040000 		.4byte	.LASF8
 522 0075 04       		.byte	0x4
 523 0076 4D       		.byte	0x4d
 524 0077 7B000000 		.4byte	0x7b
 525 007b 04       		.uleb128 0x4
 526 007c 04       		.byte	0x4
 527 007d 05       		.byte	0x5
 528 007e 8F020000 		.4byte	.LASF9
 529 0082 03       		.uleb128 0x3
 530 0083 A1060000 		.4byte	.LASF10
 531 0087 04       		.byte	0x4
 532 0088 4F       		.byte	0x4f
 533 0089 8D000000 		.4byte	0x8d
 534 008d 04       		.uleb128 0x4
 535 008e 04       		.byte	0x4
 536 008f 07       		.byte	0x7
 537 0090 4A060000 		.4byte	.LASF11
 538 0094 04       		.uleb128 0x4
 539 0095 08       		.byte	0x8
 540 0096 05       		.byte	0x5
 541 0097 1B020000 		.4byte	.LASF12
 542 009b 03       		.uleb128 0x3
 543 009c E4040000 		.4byte	.LASF13
 544 00a0 04       		.byte	0x4
 545 00a1 69       		.byte	0x69
 546 00a2 A6000000 		.4byte	0xa6
 547 00a6 04       		.uleb128 0x4
 548 00a7 08       		.byte	0x8
 549 00a8 07       		.byte	0x7
 550 00a9 9A010000 		.4byte	.LASF14
 551 00ad 03       		.uleb128 0x3
 552 00ae 15070000 		.4byte	.LASF15
 553 00b2 05       		.byte	0x5
 554 00b3 18       		.byte	0x18
 555 00b4 45000000 		.4byte	0x45
 556 00b8 03       		.uleb128 0x3
 557 00b9 18030000 		.4byte	.LASF16
 558 00bd 05       		.byte	0x5
 559 00be 24       		.byte	0x24
 560 00bf 5E000000 		.4byte	0x5e
 561 00c3 03       		.uleb128 0x3
 562 00c4 39050000 		.4byte	.LASF17
 563 00c8 05       		.byte	0x5
 564 00c9 2C       		.byte	0x2c
 565 00ca 70000000 		.4byte	0x70
 566 00ce 05       		.uleb128 0x5
 567 00cf C3000000 		.4byte	0xc3
 568 00d3 03       		.uleb128 0x3
 569 00d4 15060000 		.4byte	.LASF18
 570 00d8 05       		.byte	0x5
ARM GAS  /tmp/ccv7mDgM.s 			page 11


 571 00d9 30       		.byte	0x30
 572 00da 82000000 		.4byte	0x82
 573 00de 03       		.uleb128 0x3
 574 00df 28000000 		.4byte	.LASF19
 575 00e3 05       		.byte	0x5
 576 00e4 3C       		.byte	0x3c
 577 00e5 9B000000 		.4byte	0x9b
 578 00e9 03       		.uleb128 0x3
 579 00ea 4E040000 		.4byte	.LASF20
 580 00ee 06       		.byte	0x6
 581 00ef 45       		.byte	0x45
 582 00f0 D3000000 		.4byte	0xd3
 583 00f4 03       		.uleb128 0x3
 584 00f5 8E050000 		.4byte	.LASF21
 585 00f9 06       		.byte	0x6
 586 00fa 48       		.byte	0x48
 587 00fb AD000000 		.4byte	0xad
 588 00ff 03       		.uleb128 0x3
 589 0100 98020000 		.4byte	.LASF22
 590 0104 06       		.byte	0x6
 591 0105 49       		.byte	0x49
 592 0106 AD000000 		.4byte	0xad
 593 010a 03       		.uleb128 0x3
 594 010b F7040000 		.4byte	.LASF23
 595 010f 06       		.byte	0x6
 596 0110 4A       		.byte	0x4a
 597 0111 AD000000 		.4byte	0xad
 598 0115 03       		.uleb128 0x3
 599 0116 75020000 		.4byte	.LASF24
 600 011a 06       		.byte	0x6
 601 011b 4B       		.byte	0x4b
 602 011c AD000000 		.4byte	0xad
 603 0120 03       		.uleb128 0x3
 604 0121 21050000 		.4byte	.LASF25
 605 0125 06       		.byte	0x6
 606 0126 4C       		.byte	0x4c
 607 0127 D3000000 		.4byte	0xd3
 608 012b 03       		.uleb128 0x3
 609 012c B2030000 		.4byte	.LASF26
 610 0130 06       		.byte	0x6
 611 0131 4D       		.byte	0x4d
 612 0132 C3000000 		.4byte	0xc3
 613 0136 03       		.uleb128 0x3
 614 0137 F9030000 		.4byte	.LASF27
 615 013b 06       		.byte	0x6
 616 013c 4F       		.byte	0x4f
 617 013d D3000000 		.4byte	0xd3
 618 0141 03       		.uleb128 0x3
 619 0142 FD020000 		.4byte	.LASF28
 620 0146 06       		.byte	0x6
 621 0147 51       		.byte	0x51
 622 0148 C3000000 		.4byte	0xc3
 623 014c 03       		.uleb128 0x3
 624 014d 83060000 		.4byte	.LASF29
 625 0151 07       		.byte	0x7
 626 0152 33       		.byte	0x33
 627 0153 D3000000 		.4byte	0xd3
ARM GAS  /tmp/ccv7mDgM.s 			page 12


 628 0157 05       		.uleb128 0x5
 629 0158 4C010000 		.4byte	0x14c
 630 015c 03       		.uleb128 0x3
 631 015d 73060000 		.4byte	.LASF30
 632 0161 07       		.byte	0x7
 633 0162 3F       		.byte	0x3f
 634 0163 67010000 		.4byte	0x167
 635 0167 06       		.uleb128 0x6
 636 0168 A8030000 		.4byte	.LASF52
 637 016c 48       		.byte	0x48
 638 016d 08       		.byte	0x8
 639 016e C2       		.byte	0xc2
 640 016f 6C020000 		.4byte	0x26c
 641 0173 07       		.uleb128 0x7
 642 0174 87050000 		.4byte	.LASF31
 643 0178 08       		.byte	0x8
 644 0179 C3       		.byte	0xc3
 645 017a 77020000 		.4byte	0x277
 646 017e 00       		.byte	0
 647 017f 07       		.uleb128 0x7
 648 0180 1A050000 		.4byte	.LASF32
 649 0184 08       		.byte	0x8
 650 0185 C5       		.byte	0xc5
 651 0186 77020000 		.4byte	0x277
 652 018a 04       		.byte	0x4
 653 018b 07       		.uleb128 0x7
 654 018c 07020000 		.4byte	.LASF33
 655 0190 08       		.byte	0x8
 656 0191 C7       		.byte	0xc7
 657 0192 20010000 		.4byte	0x120
 658 0196 08       		.byte	0x8
 659 0197 07       		.uleb128 0x7
 660 0198 AC040000 		.4byte	.LASF34
 661 019c 08       		.byte	0x8
 662 019d C8       		.byte	0xc8
 663 019e B7040000 		.4byte	0x4b7
 664 01a2 0C       		.byte	0xc
 665 01a3 07       		.uleb128 0x7
 666 01a4 AB020000 		.4byte	.LASF35
 667 01a8 08       		.byte	0x8
 668 01a9 CA       		.byte	0xca
 669 01aa 77020000 		.4byte	0x277
 670 01ae 10       		.byte	0x10
 671 01af 07       		.uleb128 0x7
 672 01b0 9E040000 		.4byte	.LASF36
 673 01b4 08       		.byte	0x8
 674 01b5 CB       		.byte	0xcb
 675 01b6 77020000 		.4byte	0x277
 676 01ba 14       		.byte	0x14
 677 01bb 07       		.uleb128 0x7
 678 01bc 5B070000 		.4byte	.LASF37
 679 01c0 08       		.byte	0x8
 680 01c1 D2       		.byte	0xd2
 681 01c2 FC060000 		.4byte	0x6fc
 682 01c6 18       		.byte	0x18
 683 01c7 07       		.uleb128 0x7
 684 01c8 63050000 		.4byte	.LASF38
ARM GAS  /tmp/ccv7mDgM.s 			page 13


 685 01cc 08       		.byte	0x8
 686 01cd DD       		.byte	0xdd
 687 01ce FF000000 		.4byte	0xff
 688 01d2 1C       		.byte	0x1c
 689 01d3 07       		.uleb128 0x7
 690 01d4 72070000 		.4byte	.LASF39
 691 01d8 08       		.byte	0x8
 692 01d9 E1       		.byte	0xe1
 693 01da F4000000 		.4byte	0xf4
 694 01de 1D       		.byte	0x1d
 695 01df 07       		.uleb128 0x7
 696 01e0 08070000 		.4byte	.LASF40
 697 01e4 08       		.byte	0x8
 698 01e5 E6       		.byte	0xe6
 699 01e6 0A010000 		.4byte	0x10a
 700 01ea 1E       		.byte	0x1e
 701 01eb 07       		.uleb128 0x7
 702 01ec 6B050000 		.4byte	.LASF41
 703 01f0 08       		.byte	0x8
 704 01f1 EC       		.byte	0xec
 705 01f2 15010000 		.4byte	0x115
 706 01f6 1F       		.byte	0x1f
 707 01f7 07       		.uleb128 0x7
 708 01f8 31030000 		.4byte	.LASF42
 709 01fc 08       		.byte	0x8
 710 01fd F3       		.byte	0xf3
 711 01fe 57010000 		.4byte	0x157
 712 0202 20       		.byte	0x20
 713 0203 08       		.uleb128 0x8
 714 0204 705F7500 		.ascii	"p_u\000"
 715 0208 08       		.byte	0x8
 716 0209 3101     		.2byte	0x131
 717 020b 37060000 		.4byte	0x637
 718 020f 24       		.byte	0x24
 719 0210 09       		.uleb128 0x9
 720 0211 44040000 		.4byte	.LASF43
 721 0215 08       		.byte	0x8
 722 0216 3601     		.2byte	0x136
 723 0218 7D020000 		.4byte	0x27d
 724 021c 28       		.byte	0x28
 725 021d 09       		.uleb128 0x9
 726 021e 48030000 		.4byte	.LASF44
 727 0222 08       		.byte	0x8
 728 0223 3C01     		.2byte	0x13c
 729 0225 A1020000 		.4byte	0x2a1
 730 0229 2C       		.byte	0x2c
 731 022a 09       		.uleb128 0x9
 732 022b E4060000 		.4byte	.LASF45
 733 022f 08       		.byte	0x8
 734 0230 4001     		.2byte	0x140
 735 0232 2B010000 		.4byte	0x12b
 736 0236 34       		.byte	0x34
 737 0237 09       		.uleb128 0x9
 738 0238 0A060000 		.4byte	.LASF46
 739 023c 08       		.byte	0x8
 740 023d 4601     		.2byte	0x146
 741 023f 36010000 		.4byte	0x136
ARM GAS  /tmp/ccv7mDgM.s 			page 14


 742 0243 38       		.byte	0x38
 743 0244 09       		.uleb128 0x9
 744 0245 4F050000 		.4byte	.LASF47
 745 0249 08       		.byte	0x8
 746 024a 4D01     		.2byte	0x14d
 747 024c F6060000 		.4byte	0x6f6
 748 0250 3C       		.byte	0x3c
 749 0251 09       		.uleb128 0x9
 750 0252 8D060000 		.4byte	.LASF48
 751 0256 08       		.byte	0x8
 752 0257 5101     		.2byte	0x151
 753 0259 20010000 		.4byte	0x120
 754 025d 40       		.byte	0x40
 755 025e 09       		.uleb128 0x9
 756 025f 52020000 		.4byte	.LASF49
 757 0263 08       		.byte	0x8
 758 0264 5801     		.2byte	0x158
 759 0266 54030000 		.4byte	0x354
 760 026a 44       		.byte	0x44
 761 026b 00       		.byte	0
 762 026c 03       		.uleb128 0x3
 763 026d 34070000 		.4byte	.LASF50
 764 0271 07       		.byte	0x7
 765 0272 44       		.byte	0x44
 766 0273 77020000 		.4byte	0x277
 767 0277 0A       		.uleb128 0xa
 768 0278 04       		.byte	0x4
 769 0279 5C010000 		.4byte	0x15c
 770 027d 03       		.uleb128 0x3
 771 027e 1A040000 		.4byte	.LASF51
 772 0282 07       		.byte	0x7
 773 0283 49       		.byte	0x49
 774 0284 88020000 		.4byte	0x288
 775 0288 06       		.uleb128 0x6
 776 0289 32060000 		.4byte	.LASF53
 777 028d 04       		.byte	0x4
 778 028e 08       		.byte	0x8
 779 028f B0       		.byte	0xb0
 780 0290 A1020000 		.4byte	0x2a1
 781 0294 07       		.uleb128 0x7
 782 0295 87050000 		.4byte	.LASF31
 783 0299 08       		.byte	0x8
 784 029a B1       		.byte	0xb1
 785 029b 77020000 		.4byte	0x277
 786 029f 00       		.byte	0
 787 02a0 00       		.byte	0
 788 02a1 03       		.uleb128 0x3
 789 02a2 BD050000 		.4byte	.LASF54
 790 02a6 07       		.byte	0x7
 791 02a7 50       		.byte	0x50
 792 02a8 AC020000 		.4byte	0x2ac
 793 02ac 06       		.uleb128 0x6
 794 02ad F6010000 		.4byte	.LASF55
 795 02b1 08       		.byte	0x8
 796 02b2 08       		.byte	0x8
 797 02b3 B7       		.byte	0xb7
 798 02b4 D1020000 		.4byte	0x2d1
ARM GAS  /tmp/ccv7mDgM.s 			page 15


 799 02b8 07       		.uleb128 0x7
 800 02b9 87050000 		.4byte	.LASF31
 801 02bd 08       		.byte	0x8
 802 02be B8       		.byte	0xb8
 803 02bf 77020000 		.4byte	0x277
 804 02c3 00       		.byte	0
 805 02c4 07       		.uleb128 0x7
 806 02c5 1A050000 		.4byte	.LASF32
 807 02c9 08       		.byte	0x8
 808 02ca B9       		.byte	0xb9
 809 02cb 77020000 		.4byte	0x277
 810 02cf 04       		.byte	0x4
 811 02d0 00       		.byte	0
 812 02d1 03       		.uleb128 0x3
 813 02d2 0D000000 		.4byte	.LASF56
 814 02d6 07       		.byte	0x7
 815 02d7 57       		.byte	0x57
 816 02d8 DC020000 		.4byte	0x2dc
 817 02dc 0B       		.uleb128 0xb
 818 02dd EB030000 		.4byte	.LASF57
 819 02e1 1C       		.byte	0x1c
 820 02e2 08       		.byte	0x8
 821 02e3 9001     		.2byte	0x190
 822 02e5 38030000 		.4byte	0x338
 823 02e9 09       		.uleb128 0x9
 824 02ea 2A060000 		.4byte	.LASF58
 825 02ee 08       		.byte	0x8
 826 02ef 9101     		.2byte	0x191
 827 02f1 A1020000 		.4byte	0x2a1
 828 02f5 00       		.byte	0
 829 02f6 09       		.uleb128 0x9
 830 02f7 3D040000 		.4byte	.LASF59
 831 02fb 08       		.byte	0x8
 832 02fc 9201     		.2byte	0x192
 833 02fe 20010000 		.4byte	0x120
 834 0302 08       		.byte	0x8
 835 0303 09       		.uleb128 0x9
 836 0304 A6040000 		.4byte	.LASF60
 837 0308 08       		.byte	0x8
 838 0309 9401     		.2byte	0x194
 839 030b B7040000 		.4byte	0x4b7
 840 030f 0C       		.byte	0xc
 841 0310 09       		.uleb128 0x9
 842 0311 BB020000 		.4byte	.LASF61
 843 0315 08       		.byte	0x8
 844 0316 9701     		.2byte	0x197
 845 0318 77020000 		.4byte	0x277
 846 031c 10       		.byte	0x10
 847 031d 09       		.uleb128 0x9
 848 031e DC040000 		.4byte	.LASF62
 849 0322 08       		.byte	0x8
 850 0323 9801     		.2byte	0x198
 851 0325 77020000 		.4byte	0x277
 852 0329 14       		.byte	0x14
 853 032a 09       		.uleb128 0x9
 854 032b D2040000 		.4byte	.LASF63
 855 032f 08       		.byte	0x8
ARM GAS  /tmp/ccv7mDgM.s 			page 16


 856 0330 9B01     		.2byte	0x19b
 857 0332 77020000 		.4byte	0x277
 858 0336 18       		.byte	0x18
 859 0337 00       		.byte	0
 860 0338 03       		.uleb128 0x3
 861 0339 98060000 		.4byte	.LASF64
 862 033d 07       		.byte	0x7
 863 033e 5C       		.byte	0x5c
 864 033f 43030000 		.4byte	0x343
 865 0343 0A       		.uleb128 0xa
 866 0344 04       		.byte	0x4
 867 0345 49030000 		.4byte	0x349
 868 0349 0C       		.uleb128 0xc
 869 034a 54030000 		.4byte	0x354
 870 034e 0D       		.uleb128 0xd
 871 034f 54030000 		.4byte	0x354
 872 0353 00       		.byte	0
 873 0354 0E       		.uleb128 0xe
 874 0355 04       		.byte	0x4
 875 0356 03       		.uleb128 0x3
 876 0357 0A050000 		.4byte	.LASF65
 877 035b 07       		.byte	0x7
 878 035c 61       		.byte	0x61
 879 035d 61030000 		.4byte	0x361
 880 0361 0B       		.uleb128 0xb
 881 0362 CD050000 		.4byte	.LASF66
 882 0366 14       		.byte	0x14
 883 0367 08       		.byte	0x8
 884 0368 6B01     		.2byte	0x16b
 885 036a B0030000 		.4byte	0x3b0
 886 036e 09       		.uleb128 0x9
 887 036f 10030000 		.4byte	.LASF67
 888 0373 08       		.byte	0x8
 889 0374 6C01     		.2byte	0x16c
 890 0376 13070000 		.4byte	0x713
 891 037a 00       		.byte	0
 892 037b 09       		.uleb128 0x9
 893 037c D8020000 		.4byte	.LASF68
 894 0380 08       		.byte	0x8
 895 0381 6D01     		.2byte	0x16d
 896 0383 13070000 		.4byte	0x713
 897 0387 04       		.byte	0x4
 898 0388 09       		.uleb128 0x9
 899 0389 3F030000 		.4byte	.LASF69
 900 038d 08       		.byte	0x8
 901 038e 6E01     		.2byte	0x16e
 902 0390 4C010000 		.4byte	0x14c
 903 0394 08       		.byte	0x8
 904 0395 09       		.uleb128 0x9
 905 0396 AC070000 		.4byte	.LASF70
 906 039a 08       		.byte	0x8
 907 039b 6F01     		.2byte	0x16f
 908 039d 38030000 		.4byte	0x338
 909 03a1 0C       		.byte	0xc
 910 03a2 09       		.uleb128 0x9
 911 03a3 EA060000 		.4byte	.LASF71
 912 03a7 08       		.byte	0x8
ARM GAS  /tmp/ccv7mDgM.s 			page 17


 913 03a8 7101     		.2byte	0x171
 914 03aa 54030000 		.4byte	0x354
 915 03ae 10       		.byte	0x10
 916 03af 00       		.byte	0
 917 03b0 03       		.uleb128 0x3
 918 03b1 D3010000 		.4byte	.LASF72
 919 03b5 07       		.byte	0x7
 920 03b6 66       		.byte	0x66
 921 03b7 BB030000 		.4byte	0x3bb
 922 03bb 0B       		.uleb128 0xb
 923 03bc 56040000 		.4byte	.LASF73
 924 03c0 10       		.byte	0x10
 925 03c1 08       		.byte	0x8
 926 03c2 7B01     		.2byte	0x17b
 927 03c4 FD030000 		.4byte	0x3fd
 928 03c8 09       		.uleb128 0x9
 929 03c9 10030000 		.4byte	.LASF67
 930 03cd 08       		.byte	0x8
 931 03ce 7C01     		.2byte	0x17c
 932 03d0 13070000 		.4byte	0x713
 933 03d4 00       		.byte	0
 934 03d5 09       		.uleb128 0x9
 935 03d6 D8020000 		.4byte	.LASF68
 936 03da 08       		.byte	0x8
 937 03db 7E01     		.2byte	0x17e
 938 03dd 13070000 		.4byte	0x713
 939 03e1 04       		.byte	0x4
 940 03e2 09       		.uleb128 0x9
 941 03e3 3F030000 		.4byte	.LASF69
 942 03e7 08       		.byte	0x8
 943 03e8 8001     		.2byte	0x180
 944 03ea 4C010000 		.4byte	0x14c
 945 03ee 08       		.byte	0x8
 946 03ef 09       		.uleb128 0x9
 947 03f0 67070000 		.4byte	.LASF74
 948 03f4 08       		.byte	0x8
 949 03f5 8201     		.2byte	0x182
 950 03f7 57010000 		.4byte	0x157
 951 03fb 0C       		.byte	0xc
 952 03fc 00       		.byte	0
 953 03fd 03       		.uleb128 0x3
 954 03fe 47000000 		.4byte	.LASF75
 955 0402 07       		.byte	0x7
 956 0403 6B       		.byte	0x6b
 957 0404 08040000 		.4byte	0x408
 958 0408 0B       		.uleb128 0xb
 959 0409 29050000 		.4byte	.LASF76
 960 040d 04       		.byte	0x4
 961 040e 08       		.byte	0x8
 962 040f A201     		.2byte	0x1a2
 963 0411 23040000 		.4byte	0x423
 964 0415 09       		.uleb128 0x9
 965 0416 BA060000 		.4byte	.LASF77
 966 041a 08       		.byte	0x8
 967 041b AA01     		.2byte	0x1aa
 968 041d 02070000 		.4byte	0x702
 969 0421 00       		.byte	0
ARM GAS  /tmp/ccv7mDgM.s 			page 18


 970 0422 00       		.byte	0
 971 0423 03       		.uleb128 0x3
 972 0424 B8030000 		.4byte	.LASF78
 973 0428 07       		.byte	0x7
 974 0429 70       		.byte	0x70
 975 042a 2E040000 		.4byte	0x42e
 976 042e 0F       		.uleb128 0xf
 977 042f 85020000 		.4byte	.LASF79
 978 0433 5802     		.2byte	0x258
 979 0435 08       		.byte	0x8
 980 0436 C201     		.2byte	0x1c2
 981 0438 8A040000 		.4byte	0x48a
 982 043c 09       		.uleb128 0x9
 983 043d 0F070000 		.4byte	.LASF80
 984 0441 08       		.byte	0x8
 985 0442 C601     		.2byte	0x1c6
 986 0444 D1020000 		.4byte	0x2d1
 987 0448 00       		.byte	0
 988 0449 09       		.uleb128 0x9
 989 044a 62020000 		.4byte	.LASF81
 990 044e 08       		.byte	0x8
 991 044f CA01     		.2byte	0x1ca
 992 0451 B0030000 		.4byte	0x3b0
 993 0455 1C       		.byte	0x1c
 994 0456 08       		.uleb128 0x8
 995 0457 64626700 		.ascii	"dbg\000"
 996 045b 08       		.byte	0x8
 997 045c CE01     		.2byte	0x1ce
 998 045e FD030000 		.4byte	0x3fd
 999 0462 2C       		.byte	0x2c
 1000 0463 09       		.uleb128 0x9
 1001 0464 C8010000 		.4byte	.LASF82
 1002 0468 08       		.byte	0x8
 1003 0469 D201     		.2byte	0x1d2
 1004 046b 5C010000 		.4byte	0x15c
 1005 046f 30       		.byte	0x30
 1006 0470 08       		.uleb128 0x8
 1007 0471 746D00   		.ascii	"tm\000"
 1008 0474 08       		.byte	0x8
 1009 0475 D701     		.2byte	0x1d7
 1010 0477 2C060000 		.4byte	0x62c
 1011 047b 78       		.byte	0x78
 1012 047c 09       		.uleb128 0x9
 1013 047d EE020000 		.4byte	.LASF83
 1014 0481 08       		.byte	0x8
 1015 0482 E301     		.2byte	0x1e3
 1016 0484 19070000 		.4byte	0x719
 1017 0488 80       		.byte	0x80
 1018 0489 00       		.byte	0
 1019 048a 10       		.uleb128 0x10
 1020 048b E9010000 		.4byte	.LASF84
 1021 048f 09       		.byte	0x9
 1022 0490 A706     		.2byte	0x6a7
 1023 0492 CE000000 		.4byte	0xce
 1024 0496 11       		.uleb128 0x11
 1025 0497 21030000 		.4byte	.LASF85
 1026 049b 0A       		.byte	0xa
ARM GAS  /tmp/ccv7mDgM.s 			page 19


 1027 049c 4C       		.byte	0x4c
 1028 049d D3000000 		.4byte	0xd3
 1029 04a1 03       		.uleb128 0x3
 1030 04a2 CF020000 		.4byte	.LASF86
 1031 04a6 0B       		.byte	0xb
 1032 04a7 65       		.byte	0x65
 1033 04a8 54030000 		.4byte	0x354
 1034 04ac 03       		.uleb128 0x3
 1035 04ad 0F040000 		.4byte	.LASF87
 1036 04b1 0B       		.byte	0xb
 1037 04b2 6D       		.byte	0x6d
 1038 04b3 DE000000 		.4byte	0xde
 1039 04b7 06       		.uleb128 0x6
 1040 04b8 DC060000 		.4byte	.LASF88
 1041 04bc 04       		.byte	0x4
 1042 04bd 0B       		.byte	0xb
 1043 04be 89       		.byte	0x89
 1044 04bf D0040000 		.4byte	0x4d0
 1045 04c3 12       		.uleb128 0x12
 1046 04c4 72313300 		.ascii	"r13\000"
 1047 04c8 0B       		.byte	0xb
 1048 04c9 8A       		.byte	0x8a
 1049 04ca 11060000 		.4byte	0x611
 1050 04ce 00       		.byte	0
 1051 04cf 00       		.byte	0
 1052 04d0 06       		.uleb128 0x6
 1053 04d1 3B000000 		.4byte	.LASF89
 1054 04d5 64       		.byte	0x64
 1055 04d6 0C       		.byte	0xc
 1056 04d7 F4       		.byte	0xf4
 1057 04d8 11060000 		.4byte	0x611
 1058 04dc 12       		.uleb128 0x12
 1059 04dd 73313600 		.ascii	"s16\000"
 1060 04e1 0C       		.byte	0xc
 1061 04e2 F6       		.byte	0xf6
 1062 04e3 A1040000 		.4byte	0x4a1
 1063 04e7 00       		.byte	0
 1064 04e8 12       		.uleb128 0x12
 1065 04e9 73313700 		.ascii	"s17\000"
 1066 04ed 0C       		.byte	0xc
 1067 04ee F7       		.byte	0xf7
 1068 04ef A1040000 		.4byte	0x4a1
 1069 04f3 04       		.byte	0x4
 1070 04f4 12       		.uleb128 0x12
 1071 04f5 73313800 		.ascii	"s18\000"
 1072 04f9 0C       		.byte	0xc
 1073 04fa F8       		.byte	0xf8
 1074 04fb A1040000 		.4byte	0x4a1
 1075 04ff 08       		.byte	0x8
 1076 0500 12       		.uleb128 0x12
 1077 0501 73313900 		.ascii	"s19\000"
 1078 0505 0C       		.byte	0xc
 1079 0506 F9       		.byte	0xf9
 1080 0507 A1040000 		.4byte	0x4a1
 1081 050b 0C       		.byte	0xc
 1082 050c 12       		.uleb128 0x12
 1083 050d 73323000 		.ascii	"s20\000"
ARM GAS  /tmp/ccv7mDgM.s 			page 20


 1084 0511 0C       		.byte	0xc
 1085 0512 FA       		.byte	0xfa
 1086 0513 A1040000 		.4byte	0x4a1
 1087 0517 10       		.byte	0x10
 1088 0518 12       		.uleb128 0x12
 1089 0519 73323100 		.ascii	"s21\000"
 1090 051d 0C       		.byte	0xc
 1091 051e FB       		.byte	0xfb
 1092 051f A1040000 		.4byte	0x4a1
 1093 0523 14       		.byte	0x14
 1094 0524 12       		.uleb128 0x12
 1095 0525 73323200 		.ascii	"s22\000"
 1096 0529 0C       		.byte	0xc
 1097 052a FC       		.byte	0xfc
 1098 052b A1040000 		.4byte	0x4a1
 1099 052f 18       		.byte	0x18
 1100 0530 12       		.uleb128 0x12
 1101 0531 73323300 		.ascii	"s23\000"
 1102 0535 0C       		.byte	0xc
 1103 0536 FD       		.byte	0xfd
 1104 0537 A1040000 		.4byte	0x4a1
 1105 053b 1C       		.byte	0x1c
 1106 053c 12       		.uleb128 0x12
 1107 053d 73323400 		.ascii	"s24\000"
 1108 0541 0C       		.byte	0xc
 1109 0542 FE       		.byte	0xfe
 1110 0543 A1040000 		.4byte	0x4a1
 1111 0547 20       		.byte	0x20
 1112 0548 12       		.uleb128 0x12
 1113 0549 73323500 		.ascii	"s25\000"
 1114 054d 0C       		.byte	0xc
 1115 054e FF       		.byte	0xff
 1116 054f A1040000 		.4byte	0x4a1
 1117 0553 24       		.byte	0x24
 1118 0554 08       		.uleb128 0x8
 1119 0555 73323600 		.ascii	"s26\000"
 1120 0559 0C       		.byte	0xc
 1121 055a 0001     		.2byte	0x100
 1122 055c A1040000 		.4byte	0x4a1
 1123 0560 28       		.byte	0x28
 1124 0561 08       		.uleb128 0x8
 1125 0562 73323700 		.ascii	"s27\000"
 1126 0566 0C       		.byte	0xc
 1127 0567 0101     		.2byte	0x101
 1128 0569 A1040000 		.4byte	0x4a1
 1129 056d 2C       		.byte	0x2c
 1130 056e 08       		.uleb128 0x8
 1131 056f 73323800 		.ascii	"s28\000"
 1132 0573 0C       		.byte	0xc
 1133 0574 0201     		.2byte	0x102
 1134 0576 A1040000 		.4byte	0x4a1
 1135 057a 30       		.byte	0x30
 1136 057b 08       		.uleb128 0x8
 1137 057c 73323900 		.ascii	"s29\000"
 1138 0580 0C       		.byte	0xc
 1139 0581 0301     		.2byte	0x103
 1140 0583 A1040000 		.4byte	0x4a1
ARM GAS  /tmp/ccv7mDgM.s 			page 21


 1141 0587 34       		.byte	0x34
 1142 0588 08       		.uleb128 0x8
 1143 0589 73333000 		.ascii	"s30\000"
 1144 058d 0C       		.byte	0xc
 1145 058e 0401     		.2byte	0x104
 1146 0590 A1040000 		.4byte	0x4a1
 1147 0594 38       		.byte	0x38
 1148 0595 08       		.uleb128 0x8
 1149 0596 73333100 		.ascii	"s31\000"
 1150 059a 0C       		.byte	0xc
 1151 059b 0501     		.2byte	0x105
 1152 059d A1040000 		.4byte	0x4a1
 1153 05a1 3C       		.byte	0x3c
 1154 05a2 08       		.uleb128 0x8
 1155 05a3 723400   		.ascii	"r4\000"
 1156 05a6 0C       		.byte	0xc
 1157 05a7 0701     		.2byte	0x107
 1158 05a9 A1040000 		.4byte	0x4a1
 1159 05ad 40       		.byte	0x40
 1160 05ae 08       		.uleb128 0x8
 1161 05af 723500   		.ascii	"r5\000"
 1162 05b2 0C       		.byte	0xc
 1163 05b3 0801     		.2byte	0x108
 1164 05b5 A1040000 		.4byte	0x4a1
 1165 05b9 44       		.byte	0x44
 1166 05ba 08       		.uleb128 0x8
 1167 05bb 723600   		.ascii	"r6\000"
 1168 05be 0C       		.byte	0xc
 1169 05bf 0901     		.2byte	0x109
 1170 05c1 A1040000 		.4byte	0x4a1
 1171 05c5 48       		.byte	0x48
 1172 05c6 08       		.uleb128 0x8
 1173 05c7 723700   		.ascii	"r7\000"
 1174 05ca 0C       		.byte	0xc
 1175 05cb 0A01     		.2byte	0x10a
 1176 05cd A1040000 		.4byte	0x4a1
 1177 05d1 4C       		.byte	0x4c
 1178 05d2 08       		.uleb128 0x8
 1179 05d3 723800   		.ascii	"r8\000"
 1180 05d6 0C       		.byte	0xc
 1181 05d7 0B01     		.2byte	0x10b
 1182 05d9 A1040000 		.4byte	0x4a1
 1183 05dd 50       		.byte	0x50
 1184 05de 08       		.uleb128 0x8
 1185 05df 723900   		.ascii	"r9\000"
 1186 05e2 0C       		.byte	0xc
 1187 05e3 0C01     		.2byte	0x10c
 1188 05e5 A1040000 		.4byte	0x4a1
 1189 05e9 54       		.byte	0x54
 1190 05ea 08       		.uleb128 0x8
 1191 05eb 72313000 		.ascii	"r10\000"
 1192 05ef 0C       		.byte	0xc
 1193 05f0 0D01     		.2byte	0x10d
 1194 05f2 A1040000 		.4byte	0x4a1
 1195 05f6 58       		.byte	0x58
 1196 05f7 08       		.uleb128 0x8
 1197 05f8 72313100 		.ascii	"r11\000"
ARM GAS  /tmp/ccv7mDgM.s 			page 22


 1198 05fc 0C       		.byte	0xc
 1199 05fd 0E01     		.2byte	0x10e
 1200 05ff A1040000 		.4byte	0x4a1
 1201 0603 5C       		.byte	0x5c
 1202 0604 08       		.uleb128 0x8
 1203 0605 6C7200   		.ascii	"lr\000"
 1204 0608 0C       		.byte	0xc
 1205 0609 0F01     		.2byte	0x10f
 1206 060b A1040000 		.4byte	0x4a1
 1207 060f 60       		.byte	0x60
 1208 0610 00       		.byte	0
 1209 0611 0A       		.uleb128 0xa
 1210 0612 04       		.byte	0x4
 1211 0613 D0040000 		.4byte	0x4d0
 1212 0617 13       		.uleb128 0x13
 1213 0618 04       		.byte	0x4
 1214 0619 0D       		.byte	0xd
 1215 061a 38       		.byte	0x38
 1216 061b 2C060000 		.4byte	0x62c
 1217 061f 07       		.uleb128 0x7
 1218 0620 C4060000 		.4byte	.LASF90
 1219 0624 0D       		.byte	0xd
 1220 0625 3C       		.byte	0x3c
 1221 0626 E9000000 		.4byte	0xe9
 1222 062a 00       		.byte	0
 1223 062b 00       		.byte	0
 1224 062c 03       		.uleb128 0x3
 1225 062d C1040000 		.4byte	.LASF91
 1226 0631 0D       		.byte	0xd
 1227 0632 3D       		.byte	0x3d
 1228 0633 17060000 		.4byte	0x617
 1229 0637 14       		.uleb128 0x14
 1230 0638 04       		.byte	0x4
 1231 0639 08       		.byte	0x8
 1232 063a FA       		.byte	0xfa
 1233 063b 94060000 		.4byte	0x694
 1234 063f 15       		.uleb128 0x15
 1235 0640 21000000 		.4byte	.LASF92
 1236 0644 08       		.byte	0x8
 1237 0645 0101     		.2byte	0x101
 1238 0647 2B010000 		.4byte	0x12b
 1239 064b 15       		.uleb128 0x15
 1240 064c BF010000 		.4byte	.LASF93
 1241 0650 08       		.byte	0x8
 1242 0651 0801     		.2byte	0x108
 1243 0653 2B010000 		.4byte	0x12b
 1244 0657 15       		.uleb128 0x15
 1245 0658 47070000 		.4byte	.LASF94
 1246 065c 08       		.byte	0x8
 1247 065d 0F01     		.2byte	0x10f
 1248 065f 54030000 		.4byte	0x354
 1249 0663 15       		.uleb128 0x15
 1250 0664 7F020000 		.4byte	.LASF95
 1251 0668 08       		.byte	0x8
 1252 0669 1601     		.2byte	0x116
 1253 066b 94060000 		.4byte	0x694
 1254 066f 15       		.uleb128 0x15
ARM GAS  /tmp/ccv7mDgM.s 			page 23


 1255 0670 38030000 		.4byte	.LASF96
 1256 0674 08       		.byte	0x8
 1257 0675 1E01     		.2byte	0x11e
 1258 0677 BF060000 		.4byte	0x6bf
 1259 067b 15       		.uleb128 0x15
 1260 067c 61060000 		.4byte	.LASF97
 1261 0680 08       		.byte	0x8
 1262 0681 2701     		.2byte	0x127
 1263 0683 F6060000 		.4byte	0x6f6
 1264 0687 15       		.uleb128 0x15
 1265 0688 80050000 		.4byte	.LASF98
 1266 068c 08       		.byte	0x8
 1267 068d 2F01     		.2byte	0x12f
 1268 068f 36010000 		.4byte	0x136
 1269 0693 00       		.byte	0
 1270 0694 0A       		.uleb128 0xa
 1271 0695 04       		.byte	0x4
 1272 0696 6C020000 		.4byte	0x26c
 1273 069a 06       		.uleb128 0x6
 1274 069b FD050000 		.4byte	.LASF99
 1275 069f 0C       		.byte	0xc
 1276 06a0 0E       		.byte	0xe
 1277 06a1 34       		.byte	0x34
 1278 06a2 BF060000 		.4byte	0x6bf
 1279 06a6 07       		.uleb128 0x7
 1280 06a7 B3020000 		.4byte	.LASF100
 1281 06ab 0E       		.byte	0xe
 1282 06ac 35       		.byte	0x35
 1283 06ad A1020000 		.4byte	0x2a1
 1284 06b1 00       		.byte	0
 1285 06b2 07       		.uleb128 0x7
 1286 06b3 8F030000 		.4byte	.LASF101
 1287 06b7 0E       		.byte	0xe
 1288 06b8 37       		.byte	0x37
 1289 06b9 41010000 		.4byte	0x141
 1290 06bd 08       		.byte	0x8
 1291 06be 00       		.byte	0
 1292 06bf 0A       		.uleb128 0xa
 1293 06c0 04       		.byte	0x4
 1294 06c1 9A060000 		.4byte	0x69a
 1295 06c5 06       		.uleb128 0x6
 1296 06c6 CB060000 		.4byte	.LASF102
 1297 06ca 10       		.byte	0x10
 1298 06cb 0F       		.byte	0xf
 1299 06cc 39       		.byte	0x39
 1300 06cd F6060000 		.4byte	0x6f6
 1301 06d1 07       		.uleb128 0x7
 1302 06d2 5A020000 		.4byte	.LASF103
 1303 06d6 0F       		.byte	0xf
 1304 06d7 3A       		.byte	0x3a
 1305 06d8 A1020000 		.4byte	0x2a1
 1306 06dc 00       		.byte	0
 1307 06dd 07       		.uleb128 0x7
 1308 06de 96070000 		.4byte	.LASF104
 1309 06e2 0F       		.byte	0xf
 1310 06e3 3C       		.byte	0x3c
 1311 06e4 77020000 		.4byte	0x277
ARM GAS  /tmp/ccv7mDgM.s 			page 24


 1312 06e8 08       		.byte	0x8
 1313 06e9 07       		.uleb128 0x7
 1314 06ea 7C060000 		.4byte	.LASF105
 1315 06ee 0F       		.byte	0xf
 1316 06ef 3E       		.byte	0x3e
 1317 06f0 4B080000 		.4byte	0x84b
 1318 06f4 0C       		.byte	0xc
 1319 06f5 00       		.byte	0
 1320 06f6 0A       		.uleb128 0xa
 1321 06f7 04       		.byte	0x4
 1322 06f8 C5060000 		.4byte	0x6c5
 1323 06fc 0A       		.uleb128 0xa
 1324 06fd 04       		.byte	0x4
 1325 06fe 0E070000 		.4byte	0x70e
 1326 0702 05       		.uleb128 0x5
 1327 0703 FC060000 		.4byte	0x6fc
 1328 0707 04       		.uleb128 0x4
 1329 0708 01       		.byte	0x1
 1330 0709 08       		.byte	0x8
 1331 070a 5C060000 		.4byte	.LASF106
 1332 070e 16       		.uleb128 0x16
 1333 070f 07070000 		.4byte	0x707
 1334 0713 0A       		.uleb128 0xa
 1335 0714 04       		.byte	0x4
 1336 0715 56030000 		.4byte	0x356
 1337 0719 17       		.uleb128 0x17
 1338 071a AC040000 		.4byte	0x4ac
 1339 071e 29070000 		.4byte	0x729
 1340 0722 18       		.uleb128 0x18
 1341 0723 37000000 		.4byte	0x37
 1342 0727 3A       		.byte	0x3a
 1343 0728 00       		.byte	0
 1344 0729 19       		.uleb128 0x19
 1345 072a 636800   		.ascii	"ch\000"
 1346 072d 08       		.byte	0x8
 1347 072e 0902     		.2byte	0x209
 1348 0730 23040000 		.4byte	0x423
 1349 0734 13       		.uleb128 0x13
 1350 0735 16       		.byte	0x16
 1351 0736 10       		.byte	0x10
 1352 0737 34       		.byte	0x34
 1353 0738 15080000 		.4byte	0x815
 1354 073c 07       		.uleb128 0x7
 1355 073d 9E070000 		.4byte	.LASF107
 1356 0741 10       		.byte	0x10
 1357 0742 35       		.byte	0x35
 1358 0743 15080000 		.4byte	0x815
 1359 0747 00       		.byte	0
 1360 0748 07       		.uleb128 0x7
 1361 0749 29040000 		.4byte	.LASF108
 1362 074d 10       		.byte	0x10
 1363 074e 36       		.byte	0x36
 1364 074f AD000000 		.4byte	0xad
 1365 0753 04       		.byte	0x4
 1366 0754 07       		.uleb128 0x7
 1367 0755 42060000 		.4byte	.LASF109
 1368 0759 10       		.byte	0x10
ARM GAS  /tmp/ccv7mDgM.s 			page 25


 1369 075a 37       		.byte	0x37
 1370 075b AD000000 		.4byte	0xad
 1371 075f 05       		.byte	0x5
 1372 0760 07       		.uleb128 0x7
 1373 0761 75050000 		.4byte	.LASF110
 1374 0765 10       		.byte	0x10
 1375 0766 38       		.byte	0x38
 1376 0767 B8000000 		.4byte	0xb8
 1377 076b 06       		.byte	0x6
 1378 076c 07       		.uleb128 0x7
 1379 076d FF040000 		.4byte	.LASF111
 1380 0771 10       		.byte	0x10
 1381 0772 39       		.byte	0x39
 1382 0773 AD000000 		.4byte	0xad
 1383 0777 08       		.byte	0x8
 1384 0778 07       		.uleb128 0x7
 1385 0779 6D040000 		.4byte	.LASF112
 1386 077d 10       		.byte	0x10
 1387 077e 3A       		.byte	0x3a
 1388 077f AD000000 		.4byte	0xad
 1389 0783 09       		.byte	0x9
 1390 0784 07       		.uleb128 0x7
 1391 0785 B1010000 		.4byte	.LASF113
 1392 0789 10       		.byte	0x10
 1393 078a 3B       		.byte	0x3b
 1394 078b AD000000 		.4byte	0xad
 1395 078f 0A       		.byte	0xa
 1396 0790 07       		.uleb128 0x7
 1397 0791 1E060000 		.4byte	.LASF114
 1398 0795 10       		.byte	0x10
 1399 0796 3C       		.byte	0x3c
 1400 0797 AD000000 		.4byte	0xad
 1401 079b 0B       		.byte	0xb
 1402 079c 07       		.uleb128 0x7
 1403 079d F1060000 		.4byte	.LASF115
 1404 07a1 10       		.byte	0x10
 1405 07a2 3D       		.byte	0x3d
 1406 07a3 AD000000 		.4byte	0xad
 1407 07a7 0C       		.byte	0xc
 1408 07a8 07       		.uleb128 0x7
 1409 07a9 4E070000 		.4byte	.LASF116
 1410 07ad 10       		.byte	0x10
 1411 07ae 3E       		.byte	0x3e
 1412 07af AD000000 		.4byte	0xad
 1413 07b3 0D       		.byte	0xd
 1414 07b4 07       		.uleb128 0x7
 1415 07b5 00000000 		.4byte	.LASF117
 1416 07b9 10       		.byte	0x10
 1417 07ba 3F       		.byte	0x3f
 1418 07bb AD000000 		.4byte	0xad
 1419 07bf 0E       		.byte	0xe
 1420 07c0 07       		.uleb128 0x7
 1421 07c1 92040000 		.4byte	.LASF118
 1422 07c5 10       		.byte	0x10
 1423 07c6 40       		.byte	0x40
 1424 07c7 AD000000 		.4byte	0xad
 1425 07cb 0F       		.byte	0xf
ARM GAS  /tmp/ccv7mDgM.s 			page 26


 1426 07cc 07       		.uleb128 0x7
 1427 07cd 35020000 		.4byte	.LASF119
 1428 07d1 10       		.byte	0x10
 1429 07d2 41       		.byte	0x41
 1430 07d3 AD000000 		.4byte	0xad
 1431 07d7 10       		.byte	0x10
 1432 07d8 07       		.uleb128 0x7
 1433 07d9 0E020000 		.4byte	.LASF120
 1434 07dd 10       		.byte	0x10
 1435 07de 43       		.byte	0x43
 1436 07df AD000000 		.4byte	0xad
 1437 07e3 11       		.byte	0x11
 1438 07e4 07       		.uleb128 0x7
 1439 07e5 45020000 		.4byte	.LASF121
 1440 07e9 10       		.byte	0x10
 1441 07ea 44       		.byte	0x44
 1442 07eb AD000000 		.4byte	0xad
 1443 07ef 12       		.byte	0x12
 1444 07f0 07       		.uleb128 0x7
 1445 07f1 31040000 		.4byte	.LASF122
 1446 07f5 10       		.byte	0x10
 1447 07f6 45       		.byte	0x45
 1448 07f7 AD000000 		.4byte	0xad
 1449 07fb 13       		.byte	0x13
 1450 07fc 07       		.uleb128 0x7
 1451 07fd 96050000 		.4byte	.LASF123
 1452 0801 10       		.byte	0x10
 1453 0802 46       		.byte	0x46
 1454 0803 AD000000 		.4byte	0xad
 1455 0807 14       		.byte	0x14
 1456 0808 07       		.uleb128 0x7
 1457 0809 CE030000 		.4byte	.LASF124
 1458 080d 10       		.byte	0x10
 1459 080e 48       		.byte	0x48
 1460 080f AD000000 		.4byte	0xad
 1461 0813 15       		.byte	0x15
 1462 0814 00       		.byte	0
 1463 0815 17       		.uleb128 0x17
 1464 0816 07070000 		.4byte	0x707
 1465 081a 25080000 		.4byte	0x825
 1466 081e 18       		.uleb128 0x18
 1467 081f 37000000 		.4byte	0x37
 1468 0823 03       		.byte	0x3
 1469 0824 00       		.byte	0
 1470 0825 03       		.uleb128 0x3
 1471 0826 A1020000 		.4byte	.LASF125
 1472 082a 10       		.byte	0x10
 1473 082b 49       		.byte	0x49
 1474 082c 34070000 		.4byte	0x734
 1475 0830 16       		.uleb128 0x16
 1476 0831 25080000 		.4byte	0x825
 1477 0835 11       		.uleb128 0x11
 1478 0836 53030000 		.4byte	.LASF126
 1479 083a 10       		.byte	0x10
 1480 083b 6E       		.byte	0x6e
 1481 083c 30080000 		.4byte	0x830
 1482 0840 03       		.uleb128 0x3
ARM GAS  /tmp/ccv7mDgM.s 			page 27


 1483 0841 E0020000 		.4byte	.LASF127
 1484 0845 0F       		.byte	0xf
 1485 0846 34       		.byte	0x34
 1486 0847 C5060000 		.4byte	0x6c5
 1487 084b 0A       		.uleb128 0xa
 1488 084c 04       		.byte	0x4
 1489 084d 40080000 		.4byte	0x840
 1490 0851 03       		.uleb128 0x3
 1491 0852 8D010000 		.4byte	.LASF128
 1492 0856 11       		.byte	0x11
 1493 0857 36       		.byte	0x36
 1494 0858 5C080000 		.4byte	0x85c
 1495 085c 0A       		.uleb128 0xa
 1496 085d 04       		.byte	0x4
 1497 085e 62080000 		.4byte	0x862
 1498 0862 1A       		.uleb128 0x1a
 1499 0863 54030000 		.4byte	0x354
 1500 0867 71080000 		.4byte	0x871
 1501 086b 0D       		.uleb128 0xd
 1502 086c 2C000000 		.4byte	0x2c
 1503 0870 00       		.byte	0
 1504 0871 06       		.uleb128 0x6
 1505 0872 FC060000 		.4byte	.LASF129
 1506 0876 04       		.byte	0x4
 1507 0877 12       		.byte	0x12
 1508 0878 38       		.byte	0x38
 1509 0879 8A080000 		.4byte	0x88a
 1510 087d 07       		.uleb128 0x7
 1511 087e EF040000 		.4byte	.LASF130
 1512 0882 12       		.byte	0x12
 1513 0883 39       		.byte	0x39
 1514 0884 8A080000 		.4byte	0x88a
 1515 0888 00       		.byte	0
 1516 0889 00       		.byte	0
 1517 088a 0A       		.uleb128 0xa
 1518 088b 04       		.byte	0x4
 1519 088c 71080000 		.4byte	0x871
 1520 0890 13       		.uleb128 0x13
 1521 0891 0C       		.byte	0xc
 1522 0892 12       		.byte	0x12
 1523 0893 40       		.byte	0x40
 1524 0894 BD080000 		.4byte	0x8bd
 1525 0898 07       		.uleb128 0x7
 1526 0899 D4060000 		.4byte	.LASF131
 1527 089d 12       		.byte	0x12
 1528 089e 41       		.byte	0x41
 1529 089f 8A080000 		.4byte	0x88a
 1530 08a3 00       		.byte	0
 1531 08a4 07       		.uleb128 0x7
 1532 08a5 B2040000 		.4byte	.LASF132
 1533 08a9 12       		.byte	0x12
 1534 08aa 42       		.byte	0x42
 1535 08ab 2C000000 		.4byte	0x2c
 1536 08af 04       		.byte	0x4
 1537 08b0 07       		.uleb128 0x7
 1538 08b1 C3020000 		.4byte	.LASF133
 1539 08b5 12       		.byte	0x12
ARM GAS  /tmp/ccv7mDgM.s 			page 28


 1540 08b6 44       		.byte	0x44
 1541 08b7 51080000 		.4byte	0x851
 1542 08bb 08       		.byte	0x8
 1543 08bc 00       		.byte	0
 1544 08bd 03       		.uleb128 0x3
 1545 08be 5C030000 		.4byte	.LASF134
 1546 08c2 12       		.byte	0x12
 1547 08c3 46       		.byte	0x46
 1548 08c4 90080000 		.4byte	0x890
 1549 08c8 1B       		.uleb128 0x1b
 1550 08c9 29070000 		.4byte	.LASF136
 1551 08cd 01       		.byte	0x1
 1552 08ce C1       		.byte	0xc1
 1553 08cf 01       		.byte	0x1
 1554 08d0 EA080000 		.4byte	0x8ea
 1555 08d4 1C       		.uleb128 0x1c
 1556 08d5 6D7000   		.ascii	"mp\000"
 1557 08d8 01       		.byte	0x1
 1558 08d9 C1       		.byte	0xc1
 1559 08da EA080000 		.4byte	0x8ea
 1560 08de 1D       		.uleb128 0x1d
 1561 08df B8050000 		.4byte	.LASF135
 1562 08e3 01       		.byte	0x1
 1563 08e4 C1       		.byte	0xc1
 1564 08e5 54030000 		.4byte	0x354
 1565 08e9 00       		.byte	0
 1566 08ea 0A       		.uleb128 0xa
 1567 08eb 04       		.byte	0x4
 1568 08ec BD080000 		.4byte	0x8bd
 1569 08f0 1B       		.uleb128 0x1b
 1570 08f1 86040000 		.4byte	.LASF137
 1571 08f5 01       		.byte	0x1
 1572 08f6 AB       		.byte	0xab
 1573 08f7 01       		.byte	0x1
 1574 08f8 2A090000 		.4byte	0x92a
 1575 08fc 1C       		.uleb128 0x1c
 1576 08fd 6D7000   		.ascii	"mp\000"
 1577 0900 01       		.byte	0x1
 1578 0901 AB       		.byte	0xab
 1579 0902 EA080000 		.4byte	0x8ea
 1580 0906 1D       		.uleb128 0x1d
 1581 0907 B8050000 		.4byte	.LASF135
 1582 090b 01       		.byte	0x1
 1583 090c AB       		.byte	0xab
 1584 090d 54030000 		.4byte	0x354
 1585 0911 1E       		.uleb128 0x1e
 1586 0912 70687000 		.ascii	"php\000"
 1587 0916 01       		.byte	0x1
 1588 0917 AC       		.byte	0xac
 1589 0918 8A080000 		.4byte	0x88a
 1590 091c 1F       		.uleb128 0x1f
 1591 091d A5050000 		.4byte	.LASF138
 1592 0921 3A090000 		.4byte	0x93a
 1593 0925 86040000 		.4byte	.LASF137
 1594 0929 00       		.byte	0
 1595 092a 17       		.uleb128 0x17
 1596 092b 0E070000 		.4byte	0x70e
ARM GAS  /tmp/ccv7mDgM.s 			page 29


 1597 092f 3A090000 		.4byte	0x93a
 1598 0933 18       		.uleb128 0x18
 1599 0934 37000000 		.4byte	0x37
 1600 0938 0B       		.byte	0xb
 1601 0939 00       		.byte	0
 1602 093a 16       		.uleb128 0x16
 1603 093b 2A090000 		.4byte	0x92a
 1604 093f 20       		.uleb128 0x20
 1605 0940 1D070000 		.4byte	.LASF154
 1606 0944 01       		.byte	0x1
 1607 0945 95       		.byte	0x95
 1608 0946 54030000 		.4byte	0x354
 1609 094a 00000000 		.4byte	.LFB222
 1610 094e 2C000000 		.4byte	.LFE222-.LFB222
 1611 0952 01       		.uleb128 0x1
 1612 0953 9C       		.byte	0x9c
 1613 0954 400A0000 		.4byte	0xa40
 1614 0958 21       		.uleb128 0x21
 1615 0959 6D7000   		.ascii	"mp\000"
 1616 095c 01       		.byte	0x1
 1617 095d 95       		.byte	0x95
 1618 095e EA080000 		.4byte	0x8ea
 1619 0962 00000000 		.4byte	.LLST14
 1620 0966 22       		.uleb128 0x22
 1621 0967 B8050000 		.4byte	.LASF135
 1622 096b 01       		.byte	0x1
 1623 096c 96       		.byte	0x96
 1624 096d 54030000 		.4byte	0x354
 1625 0971 23       		.uleb128 0x23
 1626 0972 760C0000 		.4byte	0xc76
 1627 0976 02000000 		.4byte	.LBB116
 1628 097a 30000000 		.4byte	.Ldebug_ranges0+0x30
 1629 097e 01       		.byte	0x1
 1630 097f 98       		.byte	0x98
 1631 0980 B0090000 		.4byte	0x9b0
 1632 0984 24       		.uleb128 0x24
 1633 0985 880C0000 		.4byte	0xc88
 1634 0989 02000000 		.4byte	.LBB117
 1635 098d 30000000 		.4byte	.Ldebug_ranges0+0x30
 1636 0991 13       		.byte	0x13
 1637 0992 5C01     		.2byte	0x15c
 1638 0994 24       		.uleb128 0x24
 1639 0995 910C0000 		.4byte	0xc91
 1640 0999 02000000 		.4byte	.LBB118
 1641 099d 30000000 		.4byte	.Ldebug_ranges0+0x30
 1642 09a1 0C       		.byte	0xc
 1643 09a2 BF01     		.2byte	0x1bf
 1644 09a4 25       		.uleb128 0x25
 1645 09a5 9E0C0000 		.4byte	0xc9e
 1646 09a9 45000000 		.4byte	.LLST15
 1647 09ad 00       		.byte	0
 1648 09ae 00       		.byte	0
 1649 09af 00       		.byte	0
 1650 09b0 23       		.uleb128 0x23
 1651 09b1 400A0000 		.4byte	0xa40
 1652 09b5 0A000000 		.4byte	.LBB124
 1653 09b9 48000000 		.4byte	.Ldebug_ranges0+0x48
ARM GAS  /tmp/ccv7mDgM.s 			page 30


 1654 09bd 01       		.byte	0x1
 1655 09be 99       		.byte	0x99
 1656 09bf FE090000 		.4byte	0x9fe
 1657 09c3 25       		.uleb128 0x25
 1658 09c4 500A0000 		.4byte	0xa50
 1659 09c8 5A000000 		.4byte	.LLST16
 1660 09cc 26       		.uleb128 0x26
 1661 09cd 48000000 		.4byte	.Ldebug_ranges0+0x48
 1662 09d1 27       		.uleb128 0x27
 1663 09d2 C70C0000 		.4byte	0xcc7
 1664 09d6 28       		.uleb128 0x28
 1665 09d7 400A0000 		.4byte	0xa40
 1666 09db 1A000000 		.4byte	.LBB126
 1667 09df 0A000000 		.4byte	.LBE126-.LBB126
 1668 09e3 25       		.uleb128 0x25
 1669 09e4 500A0000 		.4byte	0xa50
 1670 09e8 91000000 		.4byte	.LLST17
 1671 09ec 29       		.uleb128 0x29
 1672 09ed 1A000000 		.4byte	.LBB127
 1673 09f1 0A000000 		.4byte	.LBE127-.LBB127
 1674 09f5 27       		.uleb128 0x27
 1675 09f6 C70C0000 		.4byte	0xcc7
 1676 09fa 00       		.byte	0
 1677 09fb 00       		.byte	0
 1678 09fc 00       		.byte	0
 1679 09fd 00       		.byte	0
 1680 09fe 2A       		.uleb128 0x2a
 1681 09ff 5B0C0000 		.4byte	0xc5b
 1682 0a03 12000000 		.4byte	.LBB129
 1683 0a07 60000000 		.4byte	.Ldebug_ranges0+0x60
 1684 0a0b 01       		.byte	0x1
 1685 0a0c 9A       		.byte	0x9a
 1686 0a0d 26       		.uleb128 0x26
 1687 0a0e 60000000 		.4byte	.Ldebug_ranges0+0x60
 1688 0a12 24       		.uleb128 0x24
 1689 0a13 7F0C0000 		.4byte	0xc7f
 1690 0a17 12000000 		.4byte	.LBB131
 1691 0a1b 60000000 		.4byte	.Ldebug_ranges0+0x60
 1692 0a1f 13       		.byte	0x13
 1693 0a20 7301     		.2byte	0x173
 1694 0a22 24       		.uleb128 0x24
 1695 0a23 910C0000 		.4byte	0xc91
 1696 0a27 12000000 		.4byte	.LBB132
 1697 0a2b 60000000 		.4byte	.Ldebug_ranges0+0x60
 1698 0a2f 0C       		.byte	0xc
 1699 0a30 CD01     		.2byte	0x1cd
 1700 0a32 25       		.uleb128 0x25
 1701 0a33 9E0C0000 		.4byte	0xc9e
 1702 0a37 B2000000 		.4byte	.LLST18
 1703 0a3b 00       		.byte	0
 1704 0a3c 00       		.byte	0
 1705 0a3d 00       		.byte	0
 1706 0a3e 00       		.byte	0
 1707 0a3f 00       		.byte	0
 1708 0a40 2B       		.uleb128 0x2b
 1709 0a41 79040000 		.4byte	.LASF139
 1710 0a45 01       		.byte	0x1
ARM GAS  /tmp/ccv7mDgM.s 			page 31


 1711 0a46 78       		.byte	0x78
 1712 0a47 54030000 		.4byte	0x354
 1713 0a4b 01       		.byte	0x1
 1714 0a4c 730A0000 		.4byte	0xa73
 1715 0a50 1C       		.uleb128 0x1c
 1716 0a51 6D7000   		.ascii	"mp\000"
 1717 0a54 01       		.byte	0x1
 1718 0a55 78       		.byte	0x78
 1719 0a56 EA080000 		.4byte	0x8ea
 1720 0a5a 22       		.uleb128 0x22
 1721 0a5b B8050000 		.4byte	.LASF135
 1722 0a5f 01       		.byte	0x1
 1723 0a60 79       		.byte	0x79
 1724 0a61 54030000 		.4byte	0x354
 1725 0a65 1F       		.uleb128 0x1f
 1726 0a66 A5050000 		.4byte	.LASF138
 1727 0a6a 830A0000 		.4byte	0xa83
 1728 0a6e 79040000 		.4byte	.LASF139
 1729 0a72 00       		.byte	0
 1730 0a73 17       		.uleb128 0x17
 1731 0a74 0E070000 		.4byte	0x70e
 1732 0a78 830A0000 		.4byte	0xa83
 1733 0a7c 18       		.uleb128 0x18
 1734 0a7d 37000000 		.4byte	0x37
 1735 0a81 0C       		.byte	0xc
 1736 0a82 00       		.byte	0
 1737 0a83 16       		.uleb128 0x16
 1738 0a84 730A0000 		.4byte	0xa73
 1739 0a88 2C       		.uleb128 0x2c
 1740 0a89 86070000 		.4byte	.LASF140
 1741 0a8d 01       		.byte	0x1
 1742 0a8e 61       		.byte	0x61
 1743 0a8f 00000000 		.4byte	.LFB220
 1744 0a93 24000000 		.4byte	.LFE220-.LFB220
 1745 0a97 01       		.uleb128 0x1
 1746 0a98 9C       		.byte	0x9c
 1747 0a99 CA0B0000 		.4byte	0xbca
 1748 0a9d 2D       		.uleb128 0x2d
 1749 0a9e 6D7000   		.ascii	"mp\000"
 1750 0aa1 01       		.byte	0x1
 1751 0aa2 61       		.byte	0x61
 1752 0aa3 EA080000 		.4byte	0x8ea
 1753 0aa7 01       		.uleb128 0x1
 1754 0aa8 50       		.byte	0x50
 1755 0aa9 21       		.uleb128 0x21
 1756 0aaa 7000     		.ascii	"p\000"
 1757 0aac 01       		.byte	0x1
 1758 0aad 61       		.byte	0x61
 1759 0aae 54030000 		.4byte	0x354
 1760 0ab2 D2000000 		.4byte	.LLST0
 1761 0ab6 21       		.uleb128 0x21
 1762 0ab7 6E00     		.ascii	"n\000"
 1763 0ab9 01       		.byte	0x1
 1764 0aba 61       		.byte	0x61
 1765 0abb 2C000000 		.4byte	0x2c
 1766 0abf F0000000 		.4byte	.LLST1
 1767 0ac3 2E       		.uleb128 0x2e
ARM GAS  /tmp/ccv7mDgM.s 			page 32


 1768 0ac4 A5050000 		.4byte	.LASF138
 1769 0ac8 DA0B0000 		.4byte	0xbda
 1770 0acc 2F       		.uleb128 0x2f
 1771 0acd 390C0000 		.4byte	0xc39
 1772 0ad1 04000000 		.4byte	.LBB77
 1773 0ad5 12000000 		.4byte	.LBE77-.LBB77
 1774 0ad9 01       		.byte	0x1
 1775 0ada 66       		.byte	0x66
 1776 0adb 25       		.uleb128 0x25
 1777 0adc 450C0000 		.4byte	0xc45
 1778 0ae0 26010000 		.4byte	.LLST2
 1779 0ae4 25       		.uleb128 0x25
 1780 0ae5 4F0C0000 		.4byte	0xc4f
 1781 0ae9 39010000 		.4byte	.LLST3
 1782 0aed 2F       		.uleb128 0x2f
 1783 0aee C8080000 		.4byte	0x8c8
 1784 0af2 04000000 		.4byte	.LBB78
 1785 0af6 12000000 		.4byte	.LBE78-.LBB78
 1786 0afa 12       		.byte	0x12
 1787 0afb 8B       		.byte	0x8b
 1788 0afc 25       		.uleb128 0x25
 1789 0afd DE080000 		.4byte	0x8de
 1790 0b01 39010000 		.4byte	.LLST3
 1791 0b05 25       		.uleb128 0x25
 1792 0b06 D4080000 		.4byte	0x8d4
 1793 0b0a 4C010000 		.4byte	.LLST5
 1794 0b0e 23       		.uleb128 0x23
 1795 0b0f 760C0000 		.4byte	0xc76
 1796 0b13 04000000 		.4byte	.LBB79
 1797 0b17 00000000 		.4byte	.Ldebug_ranges0+0
 1798 0b1b 01       		.byte	0x1
 1799 0b1c C3       		.byte	0xc3
 1800 0b1d 4D0B0000 		.4byte	0xb4d
 1801 0b21 24       		.uleb128 0x24
 1802 0b22 880C0000 		.4byte	0xc88
 1803 0b26 04000000 		.4byte	.LBB80
 1804 0b2a 00000000 		.4byte	.Ldebug_ranges0+0
 1805 0b2e 13       		.byte	0x13
 1806 0b2f 5C01     		.2byte	0x15c
 1807 0b31 24       		.uleb128 0x24
 1808 0b32 910C0000 		.4byte	0xc91
 1809 0b36 04000000 		.4byte	.LBB81
 1810 0b3a 00000000 		.4byte	.Ldebug_ranges0+0
 1811 0b3e 0C       		.byte	0xc
 1812 0b3f BF01     		.2byte	0x1bf
 1813 0b41 25       		.uleb128 0x25
 1814 0b42 9E0C0000 		.4byte	0xc9e
 1815 0b46 5F010000 		.4byte	.LLST6
 1816 0b4a 00       		.byte	0
 1817 0b4b 00       		.byte	0
 1818 0b4c 00       		.byte	0
 1819 0b4d 23       		.uleb128 0x23
 1820 0b4e 5B0C0000 		.4byte	0xc5b
 1821 0b52 06000000 		.4byte	.LBB86
 1822 0b56 18000000 		.4byte	.Ldebug_ranges0+0x18
 1823 0b5a 01       		.byte	0x1
 1824 0b5b C5       		.byte	0xc5
ARM GAS  /tmp/ccv7mDgM.s 			page 33


 1825 0b5c 920B0000 		.4byte	0xb92
 1826 0b60 26       		.uleb128 0x26
 1827 0b61 18000000 		.4byte	.Ldebug_ranges0+0x18
 1828 0b65 24       		.uleb128 0x24
 1829 0b66 7F0C0000 		.4byte	0xc7f
 1830 0b6a 06000000 		.4byte	.LBB88
 1831 0b6e 18000000 		.4byte	.Ldebug_ranges0+0x18
 1832 0b72 13       		.byte	0x13
 1833 0b73 7301     		.2byte	0x173
 1834 0b75 24       		.uleb128 0x24
 1835 0b76 910C0000 		.4byte	0xc91
 1836 0b7a 06000000 		.4byte	.LBB89
 1837 0b7e 18000000 		.4byte	.Ldebug_ranges0+0x18
 1838 0b82 0C       		.byte	0xc
 1839 0b83 CD01     		.2byte	0x1cd
 1840 0b85 25       		.uleb128 0x25
 1841 0b86 9E0C0000 		.4byte	0xc9e
 1842 0b8a 74010000 		.4byte	.LLST7
 1843 0b8e 00       		.byte	0
 1844 0b8f 00       		.byte	0
 1845 0b90 00       		.byte	0
 1846 0b91 00       		.byte	0
 1847 0b92 2F       		.uleb128 0x2f
 1848 0b93 F0080000 		.4byte	0x8f0
 1849 0b97 0C000000 		.4byte	.LBB96
 1850 0b9b 06000000 		.4byte	.LBE96-.LBB96
 1851 0b9f 01       		.byte	0x1
 1852 0ba0 C4       		.byte	0xc4
 1853 0ba1 25       		.uleb128 0x25
 1854 0ba2 06090000 		.4byte	0x906
 1855 0ba6 88010000 		.4byte	.LLST8
 1856 0baa 25       		.uleb128 0x25
 1857 0bab FC080000 		.4byte	0x8fc
 1858 0baf 9B010000 		.4byte	.LLST9
 1859 0bb3 29       		.uleb128 0x29
 1860 0bb4 0C000000 		.4byte	.LBB97
 1861 0bb8 06000000 		.4byte	.LBE97-.LBB97
 1862 0bbc 30       		.uleb128 0x30
 1863 0bbd 11090000 		.4byte	0x911
 1864 0bc1 AE010000 		.4byte	.LLST10
 1865 0bc5 00       		.byte	0
 1866 0bc6 00       		.byte	0
 1867 0bc7 00       		.byte	0
 1868 0bc8 00       		.byte	0
 1869 0bc9 00       		.byte	0
 1870 0bca 17       		.uleb128 0x17
 1871 0bcb 0E070000 		.4byte	0x70e
 1872 0bcf DA0B0000 		.4byte	0xbda
 1873 0bd3 18       		.uleb128 0x18
 1874 0bd4 37000000 		.4byte	0x37
 1875 0bd8 0F       		.byte	0xf
 1876 0bd9 00       		.byte	0
 1877 0bda 16       		.uleb128 0x16
 1878 0bdb CA0B0000 		.4byte	0xbca
 1879 0bdf 2C       		.uleb128 0x2c
 1880 0be0 DA030000 		.4byte	.LASF141
 1881 0be4 01       		.byte	0x1
ARM GAS  /tmp/ccv7mDgM.s 			page 34


 1882 0be5 4B       		.byte	0x4b
 1883 0be6 00000000 		.4byte	.LFB219
 1884 0bea 0A000000 		.4byte	.LFE219-.LFB219
 1885 0bee 01       		.uleb128 0x1
 1886 0bef 9C       		.byte	0x9c
 1887 0bf0 240C0000 		.4byte	0xc24
 1888 0bf4 2D       		.uleb128 0x2d
 1889 0bf5 6D7000   		.ascii	"mp\000"
 1890 0bf8 01       		.byte	0x1
 1891 0bf9 4B       		.byte	0x4b
 1892 0bfa EA080000 		.4byte	0x8ea
 1893 0bfe 01       		.uleb128 0x1
 1894 0bff 50       		.byte	0x50
 1895 0c00 31       		.uleb128 0x31
 1896 0c01 62070000 		.4byte	.LASF142
 1897 0c05 01       		.byte	0x1
 1898 0c06 4B       		.byte	0x4b
 1899 0c07 2C000000 		.4byte	0x2c
 1900 0c0b 01       		.uleb128 0x1
 1901 0c0c 51       		.byte	0x51
 1902 0c0d 31       		.uleb128 0x31
 1903 0c0e 56000000 		.4byte	.LASF143
 1904 0c12 01       		.byte	0x1
 1905 0c13 4B       		.byte	0x4b
 1906 0c14 51080000 		.4byte	0x851
 1907 0c18 01       		.uleb128 0x1
 1908 0c19 52       		.byte	0x52
 1909 0c1a 2E       		.uleb128 0x2e
 1910 0c1b A5050000 		.4byte	.LASF138
 1911 0c1f 340C0000 		.4byte	0xc34
 1912 0c23 00       		.byte	0
 1913 0c24 17       		.uleb128 0x17
 1914 0c25 0E070000 		.4byte	0x70e
 1915 0c29 340C0000 		.4byte	0xc34
 1916 0c2d 18       		.uleb128 0x18
 1917 0c2e 37000000 		.4byte	0x37
 1918 0c32 10       		.byte	0x10
 1919 0c33 00       		.byte	0
 1920 0c34 16       		.uleb128 0x16
 1921 0c35 240C0000 		.4byte	0xc24
 1922 0c39 32       		.uleb128 0x32
 1923 0c3a C4030000 		.4byte	.LASF144
 1924 0c3e 12       		.byte	0x12
 1925 0c3f 89       		.byte	0x89
 1926 0c40 03       		.byte	0x3
 1927 0c41 5B0C0000 		.4byte	0xc5b
 1928 0c45 1C       		.uleb128 0x1c
 1929 0c46 6D7000   		.ascii	"mp\000"
 1930 0c49 12       		.byte	0x12
 1931 0c4a 89       		.byte	0x89
 1932 0c4b EA080000 		.4byte	0x8ea
 1933 0c4f 1D       		.uleb128 0x1d
 1934 0c50 B8050000 		.4byte	.LASF135
 1935 0c54 12       		.byte	0x12
 1936 0c55 89       		.byte	0x89
 1937 0c56 54030000 		.4byte	0x354
 1938 0c5a 00       		.byte	0
ARM GAS  /tmp/ccv7mDgM.s 			page 35


 1939 0c5b 33       		.uleb128 0x33
 1940 0c5c 7A070000 		.4byte	.LASF145
 1941 0c60 13       		.byte	0x13
 1942 0c61 6601     		.2byte	0x166
 1943 0c63 03       		.byte	0x3
 1944 0c64 760C0000 		.4byte	0xc76
 1945 0c68 1F       		.uleb128 0x1f
 1946 0c69 A5050000 		.4byte	.LASF138
 1947 0c6d 3A090000 		.4byte	0x93a
 1948 0c71 7A070000 		.4byte	.LASF145
 1949 0c75 00       		.byte	0
 1950 0c76 34       		.uleb128 0x34
 1951 0c77 AE050000 		.4byte	.LASF146
 1952 0c7b 13       		.byte	0x13
 1953 0c7c 5A01     		.2byte	0x15a
 1954 0c7e 03       		.byte	0x3
 1955 0c7f 34       		.uleb128 0x34
 1956 0c80 69020000 		.4byte	.LASF147
 1957 0c84 0C       		.byte	0xc
 1958 0c85 CA01     		.2byte	0x1ca
 1959 0c87 03       		.byte	0x3
 1960 0c88 34       		.uleb128 0x34
 1961 0c89 83010000 		.4byte	.LASF148
 1962 0c8d 0C       		.byte	0xc
 1963 0c8e BC01     		.2byte	0x1bc
 1964 0c90 03       		.byte	0x3
 1965 0c91 33       		.uleb128 0x33
 1966 0c92 AC060000 		.4byte	.LASF149
 1967 0c96 02       		.byte	0x2
 1968 0c97 2002     		.2byte	0x220
 1969 0c99 03       		.byte	0x3
 1970 0c9a AB0C0000 		.4byte	0xcab
 1971 0c9e 35       		.uleb128 0x35
 1972 0c9f E8020000 		.4byte	.LASF150
 1973 0ca3 02       		.byte	0x2
 1974 0ca4 2002     		.2byte	0x220
 1975 0ca6 D3000000 		.4byte	0xd3
 1976 0caa 00       		.byte	0
 1977 0cab 36       		.uleb128 0x36
 1978 0cac 400A0000 		.4byte	0xa40
 1979 0cb0 00000000 		.4byte	.LFB221
 1980 0cb4 16000000 		.4byte	.LFE221-.LFB221
 1981 0cb8 01       		.uleb128 0x1
 1982 0cb9 9C       		.byte	0x9c
 1983 0cba F70C0000 		.4byte	0xcf7
 1984 0cbe 25       		.uleb128 0x25
 1985 0cbf 500A0000 		.4byte	0xa50
 1986 0cc3 CD010000 		.4byte	.LLST11
 1987 0cc7 30       		.uleb128 0x30
 1988 0cc8 5A0A0000 		.4byte	0xa5a
 1989 0ccc 07020000 		.4byte	.LLST12
 1990 0cd0 28       		.uleb128 0x28
 1991 0cd1 400A0000 		.4byte	0xa40
 1992 0cd5 0C000000 		.4byte	.LBB101
 1993 0cd9 0A000000 		.4byte	.LBE101-.LBB101
 1994 0cdd 25       		.uleb128 0x25
 1995 0cde 500A0000 		.4byte	0xa50
ARM GAS  /tmp/ccv7mDgM.s 			page 36


 1996 0ce2 1A020000 		.4byte	.LLST13
 1997 0ce6 29       		.uleb128 0x29
 1998 0ce7 0C000000 		.4byte	.LBB102
 1999 0ceb 0A000000 		.4byte	.LBE102-.LBB102
 2000 0cef 27       		.uleb128 0x27
 2001 0cf0 C70C0000 		.4byte	0xcc7
 2002 0cf4 00       		.byte	0
 2003 0cf5 00       		.byte	0
 2004 0cf6 00       		.byte	0
 2005 0cf7 37       		.uleb128 0x37
 2006 0cf8 F0080000 		.4byte	0x8f0
 2007 0cfc 00000000 		.4byte	.LFB223
 2008 0d00 08000000 		.4byte	.LFE223-.LFB223
 2009 0d04 01       		.uleb128 0x1
 2010 0d05 9C       		.byte	0x9c
 2011 0d06 200D0000 		.4byte	0xd20
 2012 0d0a 38       		.uleb128 0x38
 2013 0d0b FC080000 		.4byte	0x8fc
 2014 0d0f 01       		.uleb128 0x1
 2015 0d10 50       		.byte	0x50
 2016 0d11 38       		.uleb128 0x38
 2017 0d12 06090000 		.4byte	0x906
 2018 0d16 01       		.uleb128 0x1
 2019 0d17 51       		.byte	0x51
 2020 0d18 39       		.uleb128 0x39
 2021 0d19 11090000 		.4byte	0x911
 2022 0d1d 01       		.uleb128 0x1
 2023 0d1e 51       		.byte	0x51
 2024 0d1f 00       		.byte	0
 2025 0d20 3A       		.uleb128 0x3a
 2026 0d21 C8080000 		.4byte	0x8c8
 2027 0d25 00000000 		.4byte	.LFB224
 2028 0d29 14000000 		.4byte	.LFE224-.LFB224
 2029 0d2d 01       		.uleb128 0x1
 2030 0d2e 9C       		.byte	0x9c
 2031 0d2f 38       		.uleb128 0x38
 2032 0d30 D4080000 		.4byte	0x8d4
 2033 0d34 01       		.uleb128 0x1
 2034 0d35 50       		.byte	0x50
 2035 0d36 38       		.uleb128 0x38
 2036 0d37 DE080000 		.4byte	0x8de
 2037 0d3b 01       		.uleb128 0x1
 2038 0d3c 51       		.byte	0x51
 2039 0d3d 3B       		.uleb128 0x3b
 2040 0d3e 760C0000 		.4byte	0xc76
 2041 0d42 00000000 		.4byte	.LBB140
 2042 0d46 06000000 		.4byte	.LBE140-.LBB140
 2043 0d4a 01       		.byte	0x1
 2044 0d4b C3       		.byte	0xc3
 2045 0d4c 7C0D0000 		.4byte	0xd7c
 2046 0d50 3C       		.uleb128 0x3c
 2047 0d51 880C0000 		.4byte	0xc88
 2048 0d55 00000000 		.4byte	.LBB141
 2049 0d59 06000000 		.4byte	.LBE141-.LBB141
 2050 0d5d 13       		.byte	0x13
 2051 0d5e 5C01     		.2byte	0x15c
 2052 0d60 3C       		.uleb128 0x3c
ARM GAS  /tmp/ccv7mDgM.s 			page 37


 2053 0d61 910C0000 		.4byte	0xc91
 2054 0d65 00000000 		.4byte	.LBB142
 2055 0d69 06000000 		.4byte	.LBE142-.LBB142
 2056 0d6d 0C       		.byte	0xc
 2057 0d6e BF01     		.2byte	0x1bf
 2058 0d70 25       		.uleb128 0x25
 2059 0d71 9E0C0000 		.4byte	0xc9e
 2060 0d75 3B020000 		.4byte	.LLST19
 2061 0d79 00       		.byte	0
 2062 0d7a 00       		.byte	0
 2063 0d7b 00       		.byte	0
 2064 0d7c 23       		.uleb128 0x23
 2065 0d7d F0080000 		.4byte	0x8f0
 2066 0d81 06000000 		.4byte	.LBB144
 2067 0d85 78000000 		.4byte	.Ldebug_ranges0+0x78
 2068 0d89 01       		.byte	0x1
 2069 0d8a C4       		.byte	0xc4
 2070 0d8b AD0D0000 		.4byte	0xdad
 2071 0d8f 25       		.uleb128 0x25
 2072 0d90 06090000 		.4byte	0x906
 2073 0d94 50020000 		.4byte	.LLST20
 2074 0d98 25       		.uleb128 0x25
 2075 0d99 FC080000 		.4byte	0x8fc
 2076 0d9d 63020000 		.4byte	.LLST21
 2077 0da1 26       		.uleb128 0x26
 2078 0da2 78000000 		.4byte	.Ldebug_ranges0+0x78
 2079 0da6 27       		.uleb128 0x27
 2080 0da7 180D0000 		.4byte	0xd18
 2081 0dab 00       		.byte	0
 2082 0dac 00       		.byte	0
 2083 0dad 2A       		.uleb128 0x2a
 2084 0dae 5B0C0000 		.4byte	0xc5b
 2085 0db2 0A000000 		.4byte	.LBB147
 2086 0db6 90000000 		.4byte	.Ldebug_ranges0+0x90
 2087 0dba 01       		.byte	0x1
 2088 0dbb C5       		.byte	0xc5
 2089 0dbc 26       		.uleb128 0x26
 2090 0dbd 90000000 		.4byte	.Ldebug_ranges0+0x90
 2091 0dc1 24       		.uleb128 0x24
 2092 0dc2 7F0C0000 		.4byte	0xc7f
 2093 0dc6 0A000000 		.4byte	.LBB149
 2094 0dca 90000000 		.4byte	.Ldebug_ranges0+0x90
 2095 0dce 13       		.byte	0x13
 2096 0dcf 7301     		.2byte	0x173
 2097 0dd1 24       		.uleb128 0x24
 2098 0dd2 910C0000 		.4byte	0xc91
 2099 0dd6 0A000000 		.4byte	.LBB150
 2100 0dda 90000000 		.4byte	.Ldebug_ranges0+0x90
 2101 0dde 0C       		.byte	0xc
 2102 0ddf CD01     		.2byte	0x1cd
 2103 0de1 25       		.uleb128 0x25
 2104 0de2 9E0C0000 		.4byte	0xc9e
 2105 0de6 76020000 		.4byte	.LLST22
 2106 0dea 00       		.byte	0
 2107 0deb 00       		.byte	0
 2108 0dec 00       		.byte	0
 2109 0ded 00       		.byte	0
ARM GAS  /tmp/ccv7mDgM.s 			page 38


 2110 0dee 00       		.byte	0
 2111 0def 00       		.byte	0
 2112              		.section	.debug_abbrev,"",%progbits
 2113              	.Ldebug_abbrev0:
 2114 0000 01       		.uleb128 0x1
 2115 0001 11       		.uleb128 0x11
 2116 0002 01       		.byte	0x1
 2117 0003 25       		.uleb128 0x25
 2118 0004 0E       		.uleb128 0xe
 2119 0005 13       		.uleb128 0x13
 2120 0006 0B       		.uleb128 0xb
 2121 0007 03       		.uleb128 0x3
 2122 0008 0E       		.uleb128 0xe
 2123 0009 1B       		.uleb128 0x1b
 2124 000a 0E       		.uleb128 0xe
 2125 000b 55       		.uleb128 0x55
 2126 000c 17       		.uleb128 0x17
 2127 000d 11       		.uleb128 0x11
 2128 000e 01       		.uleb128 0x1
 2129 000f 10       		.uleb128 0x10
 2130 0010 17       		.uleb128 0x17
 2131 0011 00       		.byte	0
 2132 0012 00       		.byte	0
 2133 0013 02       		.uleb128 0x2
 2134 0014 24       		.uleb128 0x24
 2135 0015 00       		.byte	0
 2136 0016 0B       		.uleb128 0xb
 2137 0017 0B       		.uleb128 0xb
 2138 0018 3E       		.uleb128 0x3e
 2139 0019 0B       		.uleb128 0xb
 2140 001a 03       		.uleb128 0x3
 2141 001b 08       		.uleb128 0x8
 2142 001c 00       		.byte	0
 2143 001d 00       		.byte	0
 2144 001e 03       		.uleb128 0x3
 2145 001f 16       		.uleb128 0x16
 2146 0020 00       		.byte	0
 2147 0021 03       		.uleb128 0x3
 2148 0022 0E       		.uleb128 0xe
 2149 0023 3A       		.uleb128 0x3a
 2150 0024 0B       		.uleb128 0xb
 2151 0025 3B       		.uleb128 0x3b
 2152 0026 0B       		.uleb128 0xb
 2153 0027 49       		.uleb128 0x49
 2154 0028 13       		.uleb128 0x13
 2155 0029 00       		.byte	0
 2156 002a 00       		.byte	0
 2157 002b 04       		.uleb128 0x4
 2158 002c 24       		.uleb128 0x24
 2159 002d 00       		.byte	0
 2160 002e 0B       		.uleb128 0xb
 2161 002f 0B       		.uleb128 0xb
 2162 0030 3E       		.uleb128 0x3e
 2163 0031 0B       		.uleb128 0xb
 2164 0032 03       		.uleb128 0x3
 2165 0033 0E       		.uleb128 0xe
 2166 0034 00       		.byte	0
ARM GAS  /tmp/ccv7mDgM.s 			page 39


 2167 0035 00       		.byte	0
 2168 0036 05       		.uleb128 0x5
 2169 0037 35       		.uleb128 0x35
 2170 0038 00       		.byte	0
 2171 0039 49       		.uleb128 0x49
 2172 003a 13       		.uleb128 0x13
 2173 003b 00       		.byte	0
 2174 003c 00       		.byte	0
 2175 003d 06       		.uleb128 0x6
 2176 003e 13       		.uleb128 0x13
 2177 003f 01       		.byte	0x1
 2178 0040 03       		.uleb128 0x3
 2179 0041 0E       		.uleb128 0xe
 2180 0042 0B       		.uleb128 0xb
 2181 0043 0B       		.uleb128 0xb
 2182 0044 3A       		.uleb128 0x3a
 2183 0045 0B       		.uleb128 0xb
 2184 0046 3B       		.uleb128 0x3b
 2185 0047 0B       		.uleb128 0xb
 2186 0048 01       		.uleb128 0x1
 2187 0049 13       		.uleb128 0x13
 2188 004a 00       		.byte	0
 2189 004b 00       		.byte	0
 2190 004c 07       		.uleb128 0x7
 2191 004d 0D       		.uleb128 0xd
 2192 004e 00       		.byte	0
 2193 004f 03       		.uleb128 0x3
 2194 0050 0E       		.uleb128 0xe
 2195 0051 3A       		.uleb128 0x3a
 2196 0052 0B       		.uleb128 0xb
 2197 0053 3B       		.uleb128 0x3b
 2198 0054 0B       		.uleb128 0xb
 2199 0055 49       		.uleb128 0x49
 2200 0056 13       		.uleb128 0x13
 2201 0057 38       		.uleb128 0x38
 2202 0058 0B       		.uleb128 0xb
 2203 0059 00       		.byte	0
 2204 005a 00       		.byte	0
 2205 005b 08       		.uleb128 0x8
 2206 005c 0D       		.uleb128 0xd
 2207 005d 00       		.byte	0
 2208 005e 03       		.uleb128 0x3
 2209 005f 08       		.uleb128 0x8
 2210 0060 3A       		.uleb128 0x3a
 2211 0061 0B       		.uleb128 0xb
 2212 0062 3B       		.uleb128 0x3b
 2213 0063 05       		.uleb128 0x5
 2214 0064 49       		.uleb128 0x49
 2215 0065 13       		.uleb128 0x13
 2216 0066 38       		.uleb128 0x38
 2217 0067 0B       		.uleb128 0xb
 2218 0068 00       		.byte	0
 2219 0069 00       		.byte	0
 2220 006a 09       		.uleb128 0x9
 2221 006b 0D       		.uleb128 0xd
 2222 006c 00       		.byte	0
 2223 006d 03       		.uleb128 0x3
ARM GAS  /tmp/ccv7mDgM.s 			page 40


 2224 006e 0E       		.uleb128 0xe
 2225 006f 3A       		.uleb128 0x3a
 2226 0070 0B       		.uleb128 0xb
 2227 0071 3B       		.uleb128 0x3b
 2228 0072 05       		.uleb128 0x5
 2229 0073 49       		.uleb128 0x49
 2230 0074 13       		.uleb128 0x13
 2231 0075 38       		.uleb128 0x38
 2232 0076 0B       		.uleb128 0xb
 2233 0077 00       		.byte	0
 2234 0078 00       		.byte	0
 2235 0079 0A       		.uleb128 0xa
 2236 007a 0F       		.uleb128 0xf
 2237 007b 00       		.byte	0
 2238 007c 0B       		.uleb128 0xb
 2239 007d 0B       		.uleb128 0xb
 2240 007e 49       		.uleb128 0x49
 2241 007f 13       		.uleb128 0x13
 2242 0080 00       		.byte	0
 2243 0081 00       		.byte	0
 2244 0082 0B       		.uleb128 0xb
 2245 0083 13       		.uleb128 0x13
 2246 0084 01       		.byte	0x1
 2247 0085 03       		.uleb128 0x3
 2248 0086 0E       		.uleb128 0xe
 2249 0087 0B       		.uleb128 0xb
 2250 0088 0B       		.uleb128 0xb
 2251 0089 3A       		.uleb128 0x3a
 2252 008a 0B       		.uleb128 0xb
 2253 008b 3B       		.uleb128 0x3b
 2254 008c 05       		.uleb128 0x5
 2255 008d 01       		.uleb128 0x1
 2256 008e 13       		.uleb128 0x13
 2257 008f 00       		.byte	0
 2258 0090 00       		.byte	0
 2259 0091 0C       		.uleb128 0xc
 2260 0092 15       		.uleb128 0x15
 2261 0093 01       		.byte	0x1
 2262 0094 27       		.uleb128 0x27
 2263 0095 19       		.uleb128 0x19
 2264 0096 01       		.uleb128 0x1
 2265 0097 13       		.uleb128 0x13
 2266 0098 00       		.byte	0
 2267 0099 00       		.byte	0
 2268 009a 0D       		.uleb128 0xd
 2269 009b 05       		.uleb128 0x5
 2270 009c 00       		.byte	0
 2271 009d 49       		.uleb128 0x49
 2272 009e 13       		.uleb128 0x13
 2273 009f 00       		.byte	0
 2274 00a0 00       		.byte	0
 2275 00a1 0E       		.uleb128 0xe
 2276 00a2 0F       		.uleb128 0xf
 2277 00a3 00       		.byte	0
 2278 00a4 0B       		.uleb128 0xb
 2279 00a5 0B       		.uleb128 0xb
 2280 00a6 00       		.byte	0
ARM GAS  /tmp/ccv7mDgM.s 			page 41


 2281 00a7 00       		.byte	0
 2282 00a8 0F       		.uleb128 0xf
 2283 00a9 13       		.uleb128 0x13
 2284 00aa 01       		.byte	0x1
 2285 00ab 03       		.uleb128 0x3
 2286 00ac 0E       		.uleb128 0xe
 2287 00ad 0B       		.uleb128 0xb
 2288 00ae 05       		.uleb128 0x5
 2289 00af 3A       		.uleb128 0x3a
 2290 00b0 0B       		.uleb128 0xb
 2291 00b1 3B       		.uleb128 0x3b
 2292 00b2 05       		.uleb128 0x5
 2293 00b3 01       		.uleb128 0x1
 2294 00b4 13       		.uleb128 0x13
 2295 00b5 00       		.byte	0
 2296 00b6 00       		.byte	0
 2297 00b7 10       		.uleb128 0x10
 2298 00b8 34       		.uleb128 0x34
 2299 00b9 00       		.byte	0
 2300 00ba 03       		.uleb128 0x3
 2301 00bb 0E       		.uleb128 0xe
 2302 00bc 3A       		.uleb128 0x3a
 2303 00bd 0B       		.uleb128 0xb
 2304 00be 3B       		.uleb128 0x3b
 2305 00bf 05       		.uleb128 0x5
 2306 00c0 49       		.uleb128 0x49
 2307 00c1 13       		.uleb128 0x13
 2308 00c2 3F       		.uleb128 0x3f
 2309 00c3 19       		.uleb128 0x19
 2310 00c4 3C       		.uleb128 0x3c
 2311 00c5 19       		.uleb128 0x19
 2312 00c6 00       		.byte	0
 2313 00c7 00       		.byte	0
 2314 00c8 11       		.uleb128 0x11
 2315 00c9 34       		.uleb128 0x34
 2316 00ca 00       		.byte	0
 2317 00cb 03       		.uleb128 0x3
 2318 00cc 0E       		.uleb128 0xe
 2319 00cd 3A       		.uleb128 0x3a
 2320 00ce 0B       		.uleb128 0xb
 2321 00cf 3B       		.uleb128 0x3b
 2322 00d0 0B       		.uleb128 0xb
 2323 00d1 49       		.uleb128 0x49
 2324 00d2 13       		.uleb128 0x13
 2325 00d3 3F       		.uleb128 0x3f
 2326 00d4 19       		.uleb128 0x19
 2327 00d5 3C       		.uleb128 0x3c
 2328 00d6 19       		.uleb128 0x19
 2329 00d7 00       		.byte	0
 2330 00d8 00       		.byte	0
 2331 00d9 12       		.uleb128 0x12
 2332 00da 0D       		.uleb128 0xd
 2333 00db 00       		.byte	0
 2334 00dc 03       		.uleb128 0x3
 2335 00dd 08       		.uleb128 0x8
 2336 00de 3A       		.uleb128 0x3a
 2337 00df 0B       		.uleb128 0xb
ARM GAS  /tmp/ccv7mDgM.s 			page 42


 2338 00e0 3B       		.uleb128 0x3b
 2339 00e1 0B       		.uleb128 0xb
 2340 00e2 49       		.uleb128 0x49
 2341 00e3 13       		.uleb128 0x13
 2342 00e4 38       		.uleb128 0x38
 2343 00e5 0B       		.uleb128 0xb
 2344 00e6 00       		.byte	0
 2345 00e7 00       		.byte	0
 2346 00e8 13       		.uleb128 0x13
 2347 00e9 13       		.uleb128 0x13
 2348 00ea 01       		.byte	0x1
 2349 00eb 0B       		.uleb128 0xb
 2350 00ec 0B       		.uleb128 0xb
 2351 00ed 3A       		.uleb128 0x3a
 2352 00ee 0B       		.uleb128 0xb
 2353 00ef 3B       		.uleb128 0x3b
 2354 00f0 0B       		.uleb128 0xb
 2355 00f1 01       		.uleb128 0x1
 2356 00f2 13       		.uleb128 0x13
 2357 00f3 00       		.byte	0
 2358 00f4 00       		.byte	0
 2359 00f5 14       		.uleb128 0x14
 2360 00f6 17       		.uleb128 0x17
 2361 00f7 01       		.byte	0x1
 2362 00f8 0B       		.uleb128 0xb
 2363 00f9 0B       		.uleb128 0xb
 2364 00fa 3A       		.uleb128 0x3a
 2365 00fb 0B       		.uleb128 0xb
 2366 00fc 3B       		.uleb128 0x3b
 2367 00fd 0B       		.uleb128 0xb
 2368 00fe 01       		.uleb128 0x1
 2369 00ff 13       		.uleb128 0x13
 2370 0100 00       		.byte	0
 2371 0101 00       		.byte	0
 2372 0102 15       		.uleb128 0x15
 2373 0103 0D       		.uleb128 0xd
 2374 0104 00       		.byte	0
 2375 0105 03       		.uleb128 0x3
 2376 0106 0E       		.uleb128 0xe
 2377 0107 3A       		.uleb128 0x3a
 2378 0108 0B       		.uleb128 0xb
 2379 0109 3B       		.uleb128 0x3b
 2380 010a 05       		.uleb128 0x5
 2381 010b 49       		.uleb128 0x49
 2382 010c 13       		.uleb128 0x13
 2383 010d 00       		.byte	0
 2384 010e 00       		.byte	0
 2385 010f 16       		.uleb128 0x16
 2386 0110 26       		.uleb128 0x26
 2387 0111 00       		.byte	0
 2388 0112 49       		.uleb128 0x49
 2389 0113 13       		.uleb128 0x13
 2390 0114 00       		.byte	0
 2391 0115 00       		.byte	0
 2392 0116 17       		.uleb128 0x17
 2393 0117 01       		.uleb128 0x1
 2394 0118 01       		.byte	0x1
ARM GAS  /tmp/ccv7mDgM.s 			page 43


 2395 0119 49       		.uleb128 0x49
 2396 011a 13       		.uleb128 0x13
 2397 011b 01       		.uleb128 0x1
 2398 011c 13       		.uleb128 0x13
 2399 011d 00       		.byte	0
 2400 011e 00       		.byte	0
 2401 011f 18       		.uleb128 0x18
 2402 0120 21       		.uleb128 0x21
 2403 0121 00       		.byte	0
 2404 0122 49       		.uleb128 0x49
 2405 0123 13       		.uleb128 0x13
 2406 0124 2F       		.uleb128 0x2f
 2407 0125 0B       		.uleb128 0xb
 2408 0126 00       		.byte	0
 2409 0127 00       		.byte	0
 2410 0128 19       		.uleb128 0x19
 2411 0129 34       		.uleb128 0x34
 2412 012a 00       		.byte	0
 2413 012b 03       		.uleb128 0x3
 2414 012c 08       		.uleb128 0x8
 2415 012d 3A       		.uleb128 0x3a
 2416 012e 0B       		.uleb128 0xb
 2417 012f 3B       		.uleb128 0x3b
 2418 0130 05       		.uleb128 0x5
 2419 0131 49       		.uleb128 0x49
 2420 0132 13       		.uleb128 0x13
 2421 0133 3F       		.uleb128 0x3f
 2422 0134 19       		.uleb128 0x19
 2423 0135 3C       		.uleb128 0x3c
 2424 0136 19       		.uleb128 0x19
 2425 0137 00       		.byte	0
 2426 0138 00       		.byte	0
 2427 0139 1A       		.uleb128 0x1a
 2428 013a 15       		.uleb128 0x15
 2429 013b 01       		.byte	0x1
 2430 013c 27       		.uleb128 0x27
 2431 013d 19       		.uleb128 0x19
 2432 013e 49       		.uleb128 0x49
 2433 013f 13       		.uleb128 0x13
 2434 0140 01       		.uleb128 0x1
 2435 0141 13       		.uleb128 0x13
 2436 0142 00       		.byte	0
 2437 0143 00       		.byte	0
 2438 0144 1B       		.uleb128 0x1b
 2439 0145 2E       		.uleb128 0x2e
 2440 0146 01       		.byte	0x1
 2441 0147 3F       		.uleb128 0x3f
 2442 0148 19       		.uleb128 0x19
 2443 0149 03       		.uleb128 0x3
 2444 014a 0E       		.uleb128 0xe
 2445 014b 3A       		.uleb128 0x3a
 2446 014c 0B       		.uleb128 0xb
 2447 014d 3B       		.uleb128 0x3b
 2448 014e 0B       		.uleb128 0xb
 2449 014f 27       		.uleb128 0x27
 2450 0150 19       		.uleb128 0x19
 2451 0151 20       		.uleb128 0x20
ARM GAS  /tmp/ccv7mDgM.s 			page 44


 2452 0152 0B       		.uleb128 0xb
 2453 0153 01       		.uleb128 0x1
 2454 0154 13       		.uleb128 0x13
 2455 0155 00       		.byte	0
 2456 0156 00       		.byte	0
 2457 0157 1C       		.uleb128 0x1c
 2458 0158 05       		.uleb128 0x5
 2459 0159 00       		.byte	0
 2460 015a 03       		.uleb128 0x3
 2461 015b 08       		.uleb128 0x8
 2462 015c 3A       		.uleb128 0x3a
 2463 015d 0B       		.uleb128 0xb
 2464 015e 3B       		.uleb128 0x3b
 2465 015f 0B       		.uleb128 0xb
 2466 0160 49       		.uleb128 0x49
 2467 0161 13       		.uleb128 0x13
 2468 0162 00       		.byte	0
 2469 0163 00       		.byte	0
 2470 0164 1D       		.uleb128 0x1d
 2471 0165 05       		.uleb128 0x5
 2472 0166 00       		.byte	0
 2473 0167 03       		.uleb128 0x3
 2474 0168 0E       		.uleb128 0xe
 2475 0169 3A       		.uleb128 0x3a
 2476 016a 0B       		.uleb128 0xb
 2477 016b 3B       		.uleb128 0x3b
 2478 016c 0B       		.uleb128 0xb
 2479 016d 49       		.uleb128 0x49
 2480 016e 13       		.uleb128 0x13
 2481 016f 00       		.byte	0
 2482 0170 00       		.byte	0
 2483 0171 1E       		.uleb128 0x1e
 2484 0172 34       		.uleb128 0x34
 2485 0173 00       		.byte	0
 2486 0174 03       		.uleb128 0x3
 2487 0175 08       		.uleb128 0x8
 2488 0176 3A       		.uleb128 0x3a
 2489 0177 0B       		.uleb128 0xb
 2490 0178 3B       		.uleb128 0x3b
 2491 0179 0B       		.uleb128 0xb
 2492 017a 49       		.uleb128 0x49
 2493 017b 13       		.uleb128 0x13
 2494 017c 00       		.byte	0
 2495 017d 00       		.byte	0
 2496 017e 1F       		.uleb128 0x1f
 2497 017f 34       		.uleb128 0x34
 2498 0180 00       		.byte	0
 2499 0181 03       		.uleb128 0x3
 2500 0182 0E       		.uleb128 0xe
 2501 0183 49       		.uleb128 0x49
 2502 0184 13       		.uleb128 0x13
 2503 0185 34       		.uleb128 0x34
 2504 0186 19       		.uleb128 0x19
 2505 0187 1C       		.uleb128 0x1c
 2506 0188 0E       		.uleb128 0xe
 2507 0189 00       		.byte	0
 2508 018a 00       		.byte	0
ARM GAS  /tmp/ccv7mDgM.s 			page 45


 2509 018b 20       		.uleb128 0x20
 2510 018c 2E       		.uleb128 0x2e
 2511 018d 01       		.byte	0x1
 2512 018e 3F       		.uleb128 0x3f
 2513 018f 19       		.uleb128 0x19
 2514 0190 03       		.uleb128 0x3
 2515 0191 0E       		.uleb128 0xe
 2516 0192 3A       		.uleb128 0x3a
 2517 0193 0B       		.uleb128 0xb
 2518 0194 3B       		.uleb128 0x3b
 2519 0195 0B       		.uleb128 0xb
 2520 0196 27       		.uleb128 0x27
 2521 0197 19       		.uleb128 0x19
 2522 0198 49       		.uleb128 0x49
 2523 0199 13       		.uleb128 0x13
 2524 019a 11       		.uleb128 0x11
 2525 019b 01       		.uleb128 0x1
 2526 019c 12       		.uleb128 0x12
 2527 019d 06       		.uleb128 0x6
 2528 019e 40       		.uleb128 0x40
 2529 019f 18       		.uleb128 0x18
 2530 01a0 9642     		.uleb128 0x2116
 2531 01a2 19       		.uleb128 0x19
 2532 01a3 01       		.uleb128 0x1
 2533 01a4 13       		.uleb128 0x13
 2534 01a5 00       		.byte	0
 2535 01a6 00       		.byte	0
 2536 01a7 21       		.uleb128 0x21
 2537 01a8 05       		.uleb128 0x5
 2538 01a9 00       		.byte	0
 2539 01aa 03       		.uleb128 0x3
 2540 01ab 08       		.uleb128 0x8
 2541 01ac 3A       		.uleb128 0x3a
 2542 01ad 0B       		.uleb128 0xb
 2543 01ae 3B       		.uleb128 0x3b
 2544 01af 0B       		.uleb128 0xb
 2545 01b0 49       		.uleb128 0x49
 2546 01b1 13       		.uleb128 0x13
 2547 01b2 02       		.uleb128 0x2
 2548 01b3 17       		.uleb128 0x17
 2549 01b4 00       		.byte	0
 2550 01b5 00       		.byte	0
 2551 01b6 22       		.uleb128 0x22
 2552 01b7 34       		.uleb128 0x34
 2553 01b8 00       		.byte	0
 2554 01b9 03       		.uleb128 0x3
 2555 01ba 0E       		.uleb128 0xe
 2556 01bb 3A       		.uleb128 0x3a
 2557 01bc 0B       		.uleb128 0xb
 2558 01bd 3B       		.uleb128 0x3b
 2559 01be 0B       		.uleb128 0xb
 2560 01bf 49       		.uleb128 0x49
 2561 01c0 13       		.uleb128 0x13
 2562 01c1 00       		.byte	0
 2563 01c2 00       		.byte	0
 2564 01c3 23       		.uleb128 0x23
 2565 01c4 1D       		.uleb128 0x1d
ARM GAS  /tmp/ccv7mDgM.s 			page 46


 2566 01c5 01       		.byte	0x1
 2567 01c6 31       		.uleb128 0x31
 2568 01c7 13       		.uleb128 0x13
 2569 01c8 52       		.uleb128 0x52
 2570 01c9 01       		.uleb128 0x1
 2571 01ca 55       		.uleb128 0x55
 2572 01cb 17       		.uleb128 0x17
 2573 01cc 58       		.uleb128 0x58
 2574 01cd 0B       		.uleb128 0xb
 2575 01ce 59       		.uleb128 0x59
 2576 01cf 0B       		.uleb128 0xb
 2577 01d0 01       		.uleb128 0x1
 2578 01d1 13       		.uleb128 0x13
 2579 01d2 00       		.byte	0
 2580 01d3 00       		.byte	0
 2581 01d4 24       		.uleb128 0x24
 2582 01d5 1D       		.uleb128 0x1d
 2583 01d6 01       		.byte	0x1
 2584 01d7 31       		.uleb128 0x31
 2585 01d8 13       		.uleb128 0x13
 2586 01d9 52       		.uleb128 0x52
 2587 01da 01       		.uleb128 0x1
 2588 01db 55       		.uleb128 0x55
 2589 01dc 17       		.uleb128 0x17
 2590 01dd 58       		.uleb128 0x58
 2591 01de 0B       		.uleb128 0xb
 2592 01df 59       		.uleb128 0x59
 2593 01e0 05       		.uleb128 0x5
 2594 01e1 00       		.byte	0
 2595 01e2 00       		.byte	0
 2596 01e3 25       		.uleb128 0x25
 2597 01e4 05       		.uleb128 0x5
 2598 01e5 00       		.byte	0
 2599 01e6 31       		.uleb128 0x31
 2600 01e7 13       		.uleb128 0x13
 2601 01e8 02       		.uleb128 0x2
 2602 01e9 17       		.uleb128 0x17
 2603 01ea 00       		.byte	0
 2604 01eb 00       		.byte	0
 2605 01ec 26       		.uleb128 0x26
 2606 01ed 0B       		.uleb128 0xb
 2607 01ee 01       		.byte	0x1
 2608 01ef 55       		.uleb128 0x55
 2609 01f0 17       		.uleb128 0x17
 2610 01f1 00       		.byte	0
 2611 01f2 00       		.byte	0
 2612 01f3 27       		.uleb128 0x27
 2613 01f4 34       		.uleb128 0x34
 2614 01f5 00       		.byte	0
 2615 01f6 31       		.uleb128 0x31
 2616 01f7 13       		.uleb128 0x13
 2617 01f8 00       		.byte	0
 2618 01f9 00       		.byte	0
 2619 01fa 28       		.uleb128 0x28
 2620 01fb 0B       		.uleb128 0xb
 2621 01fc 01       		.byte	0x1
 2622 01fd 31       		.uleb128 0x31
ARM GAS  /tmp/ccv7mDgM.s 			page 47


 2623 01fe 13       		.uleb128 0x13
 2624 01ff 11       		.uleb128 0x11
 2625 0200 01       		.uleb128 0x1
 2626 0201 12       		.uleb128 0x12
 2627 0202 06       		.uleb128 0x6
 2628 0203 00       		.byte	0
 2629 0204 00       		.byte	0
 2630 0205 29       		.uleb128 0x29
 2631 0206 0B       		.uleb128 0xb
 2632 0207 01       		.byte	0x1
 2633 0208 11       		.uleb128 0x11
 2634 0209 01       		.uleb128 0x1
 2635 020a 12       		.uleb128 0x12
 2636 020b 06       		.uleb128 0x6
 2637 020c 00       		.byte	0
 2638 020d 00       		.byte	0
 2639 020e 2A       		.uleb128 0x2a
 2640 020f 1D       		.uleb128 0x1d
 2641 0210 01       		.byte	0x1
 2642 0211 31       		.uleb128 0x31
 2643 0212 13       		.uleb128 0x13
 2644 0213 52       		.uleb128 0x52
 2645 0214 01       		.uleb128 0x1
 2646 0215 55       		.uleb128 0x55
 2647 0216 17       		.uleb128 0x17
 2648 0217 58       		.uleb128 0x58
 2649 0218 0B       		.uleb128 0xb
 2650 0219 59       		.uleb128 0x59
 2651 021a 0B       		.uleb128 0xb
 2652 021b 00       		.byte	0
 2653 021c 00       		.byte	0
 2654 021d 2B       		.uleb128 0x2b
 2655 021e 2E       		.uleb128 0x2e
 2656 021f 01       		.byte	0x1
 2657 0220 3F       		.uleb128 0x3f
 2658 0221 19       		.uleb128 0x19
 2659 0222 03       		.uleb128 0x3
 2660 0223 0E       		.uleb128 0xe
 2661 0224 3A       		.uleb128 0x3a
 2662 0225 0B       		.uleb128 0xb
 2663 0226 3B       		.uleb128 0x3b
 2664 0227 0B       		.uleb128 0xb
 2665 0228 27       		.uleb128 0x27
 2666 0229 19       		.uleb128 0x19
 2667 022a 49       		.uleb128 0x49
 2668 022b 13       		.uleb128 0x13
 2669 022c 20       		.uleb128 0x20
 2670 022d 0B       		.uleb128 0xb
 2671 022e 01       		.uleb128 0x1
 2672 022f 13       		.uleb128 0x13
 2673 0230 00       		.byte	0
 2674 0231 00       		.byte	0
 2675 0232 2C       		.uleb128 0x2c
 2676 0233 2E       		.uleb128 0x2e
 2677 0234 01       		.byte	0x1
 2678 0235 3F       		.uleb128 0x3f
 2679 0236 19       		.uleb128 0x19
ARM GAS  /tmp/ccv7mDgM.s 			page 48


 2680 0237 03       		.uleb128 0x3
 2681 0238 0E       		.uleb128 0xe
 2682 0239 3A       		.uleb128 0x3a
 2683 023a 0B       		.uleb128 0xb
 2684 023b 3B       		.uleb128 0x3b
 2685 023c 0B       		.uleb128 0xb
 2686 023d 27       		.uleb128 0x27
 2687 023e 19       		.uleb128 0x19
 2688 023f 11       		.uleb128 0x11
 2689 0240 01       		.uleb128 0x1
 2690 0241 12       		.uleb128 0x12
 2691 0242 06       		.uleb128 0x6
 2692 0243 40       		.uleb128 0x40
 2693 0244 18       		.uleb128 0x18
 2694 0245 9742     		.uleb128 0x2117
 2695 0247 19       		.uleb128 0x19
 2696 0248 01       		.uleb128 0x1
 2697 0249 13       		.uleb128 0x13
 2698 024a 00       		.byte	0
 2699 024b 00       		.byte	0
 2700 024c 2D       		.uleb128 0x2d
 2701 024d 05       		.uleb128 0x5
 2702 024e 00       		.byte	0
 2703 024f 03       		.uleb128 0x3
 2704 0250 08       		.uleb128 0x8
 2705 0251 3A       		.uleb128 0x3a
 2706 0252 0B       		.uleb128 0xb
 2707 0253 3B       		.uleb128 0x3b
 2708 0254 0B       		.uleb128 0xb
 2709 0255 49       		.uleb128 0x49
 2710 0256 13       		.uleb128 0x13
 2711 0257 02       		.uleb128 0x2
 2712 0258 18       		.uleb128 0x18
 2713 0259 00       		.byte	0
 2714 025a 00       		.byte	0
 2715 025b 2E       		.uleb128 0x2e
 2716 025c 34       		.uleb128 0x34
 2717 025d 00       		.byte	0
 2718 025e 03       		.uleb128 0x3
 2719 025f 0E       		.uleb128 0xe
 2720 0260 49       		.uleb128 0x49
 2721 0261 13       		.uleb128 0x13
 2722 0262 34       		.uleb128 0x34
 2723 0263 19       		.uleb128 0x19
 2724 0264 00       		.byte	0
 2725 0265 00       		.byte	0
 2726 0266 2F       		.uleb128 0x2f
 2727 0267 1D       		.uleb128 0x1d
 2728 0268 01       		.byte	0x1
 2729 0269 31       		.uleb128 0x31
 2730 026a 13       		.uleb128 0x13
 2731 026b 11       		.uleb128 0x11
 2732 026c 01       		.uleb128 0x1
 2733 026d 12       		.uleb128 0x12
 2734 026e 06       		.uleb128 0x6
 2735 026f 58       		.uleb128 0x58
 2736 0270 0B       		.uleb128 0xb
ARM GAS  /tmp/ccv7mDgM.s 			page 49


 2737 0271 59       		.uleb128 0x59
 2738 0272 0B       		.uleb128 0xb
 2739 0273 00       		.byte	0
 2740 0274 00       		.byte	0
 2741 0275 30       		.uleb128 0x30
 2742 0276 34       		.uleb128 0x34
 2743 0277 00       		.byte	0
 2744 0278 31       		.uleb128 0x31
 2745 0279 13       		.uleb128 0x13
 2746 027a 02       		.uleb128 0x2
 2747 027b 17       		.uleb128 0x17
 2748 027c 00       		.byte	0
 2749 027d 00       		.byte	0
 2750 027e 31       		.uleb128 0x31
 2751 027f 05       		.uleb128 0x5
 2752 0280 00       		.byte	0
 2753 0281 03       		.uleb128 0x3
 2754 0282 0E       		.uleb128 0xe
 2755 0283 3A       		.uleb128 0x3a
 2756 0284 0B       		.uleb128 0xb
 2757 0285 3B       		.uleb128 0x3b
 2758 0286 0B       		.uleb128 0xb
 2759 0287 49       		.uleb128 0x49
 2760 0288 13       		.uleb128 0x13
 2761 0289 02       		.uleb128 0x2
 2762 028a 18       		.uleb128 0x18
 2763 028b 00       		.byte	0
 2764 028c 00       		.byte	0
 2765 028d 32       		.uleb128 0x32
 2766 028e 2E       		.uleb128 0x2e
 2767 028f 01       		.byte	0x1
 2768 0290 03       		.uleb128 0x3
 2769 0291 0E       		.uleb128 0xe
 2770 0292 3A       		.uleb128 0x3a
 2771 0293 0B       		.uleb128 0xb
 2772 0294 3B       		.uleb128 0x3b
 2773 0295 0B       		.uleb128 0xb
 2774 0296 27       		.uleb128 0x27
 2775 0297 19       		.uleb128 0x19
 2776 0298 20       		.uleb128 0x20
 2777 0299 0B       		.uleb128 0xb
 2778 029a 01       		.uleb128 0x1
 2779 029b 13       		.uleb128 0x13
 2780 029c 00       		.byte	0
 2781 029d 00       		.byte	0
 2782 029e 33       		.uleb128 0x33
 2783 029f 2E       		.uleb128 0x2e
 2784 02a0 01       		.byte	0x1
 2785 02a1 03       		.uleb128 0x3
 2786 02a2 0E       		.uleb128 0xe
 2787 02a3 3A       		.uleb128 0x3a
 2788 02a4 0B       		.uleb128 0xb
 2789 02a5 3B       		.uleb128 0x3b
 2790 02a6 05       		.uleb128 0x5
 2791 02a7 27       		.uleb128 0x27
 2792 02a8 19       		.uleb128 0x19
 2793 02a9 20       		.uleb128 0x20
ARM GAS  /tmp/ccv7mDgM.s 			page 50


 2794 02aa 0B       		.uleb128 0xb
 2795 02ab 01       		.uleb128 0x1
 2796 02ac 13       		.uleb128 0x13
 2797 02ad 00       		.byte	0
 2798 02ae 00       		.byte	0
 2799 02af 34       		.uleb128 0x34
 2800 02b0 2E       		.uleb128 0x2e
 2801 02b1 00       		.byte	0
 2802 02b2 03       		.uleb128 0x3
 2803 02b3 0E       		.uleb128 0xe
 2804 02b4 3A       		.uleb128 0x3a
 2805 02b5 0B       		.uleb128 0xb
 2806 02b6 3B       		.uleb128 0x3b
 2807 02b7 05       		.uleb128 0x5
 2808 02b8 27       		.uleb128 0x27
 2809 02b9 19       		.uleb128 0x19
 2810 02ba 20       		.uleb128 0x20
 2811 02bb 0B       		.uleb128 0xb
 2812 02bc 00       		.byte	0
 2813 02bd 00       		.byte	0
 2814 02be 35       		.uleb128 0x35
 2815 02bf 05       		.uleb128 0x5
 2816 02c0 00       		.byte	0
 2817 02c1 03       		.uleb128 0x3
 2818 02c2 0E       		.uleb128 0xe
 2819 02c3 3A       		.uleb128 0x3a
 2820 02c4 0B       		.uleb128 0xb
 2821 02c5 3B       		.uleb128 0x3b
 2822 02c6 05       		.uleb128 0x5
 2823 02c7 49       		.uleb128 0x49
 2824 02c8 13       		.uleb128 0x13
 2825 02c9 00       		.byte	0
 2826 02ca 00       		.byte	0
 2827 02cb 36       		.uleb128 0x36
 2828 02cc 2E       		.uleb128 0x2e
 2829 02cd 01       		.byte	0x1
 2830 02ce 31       		.uleb128 0x31
 2831 02cf 13       		.uleb128 0x13
 2832 02d0 11       		.uleb128 0x11
 2833 02d1 01       		.uleb128 0x1
 2834 02d2 12       		.uleb128 0x12
 2835 02d3 06       		.uleb128 0x6
 2836 02d4 40       		.uleb128 0x40
 2837 02d5 18       		.uleb128 0x18
 2838 02d6 01       		.uleb128 0x1
 2839 02d7 13       		.uleb128 0x13
 2840 02d8 00       		.byte	0
 2841 02d9 00       		.byte	0
 2842 02da 37       		.uleb128 0x37
 2843 02db 2E       		.uleb128 0x2e
 2844 02dc 01       		.byte	0x1
 2845 02dd 31       		.uleb128 0x31
 2846 02de 13       		.uleb128 0x13
 2847 02df 11       		.uleb128 0x11
 2848 02e0 01       		.uleb128 0x1
 2849 02e1 12       		.uleb128 0x12
 2850 02e2 06       		.uleb128 0x6
ARM GAS  /tmp/ccv7mDgM.s 			page 51


 2851 02e3 40       		.uleb128 0x40
 2852 02e4 18       		.uleb128 0x18
 2853 02e5 9742     		.uleb128 0x2117
 2854 02e7 19       		.uleb128 0x19
 2855 02e8 01       		.uleb128 0x1
 2856 02e9 13       		.uleb128 0x13
 2857 02ea 00       		.byte	0
 2858 02eb 00       		.byte	0
 2859 02ec 38       		.uleb128 0x38
 2860 02ed 05       		.uleb128 0x5
 2861 02ee 00       		.byte	0
 2862 02ef 31       		.uleb128 0x31
 2863 02f0 13       		.uleb128 0x13
 2864 02f1 02       		.uleb128 0x2
 2865 02f2 18       		.uleb128 0x18
 2866 02f3 00       		.byte	0
 2867 02f4 00       		.byte	0
 2868 02f5 39       		.uleb128 0x39
 2869 02f6 34       		.uleb128 0x34
 2870 02f7 00       		.byte	0
 2871 02f8 31       		.uleb128 0x31
 2872 02f9 13       		.uleb128 0x13
 2873 02fa 02       		.uleb128 0x2
 2874 02fb 18       		.uleb128 0x18
 2875 02fc 00       		.byte	0
 2876 02fd 00       		.byte	0
 2877 02fe 3A       		.uleb128 0x3a
 2878 02ff 2E       		.uleb128 0x2e
 2879 0300 01       		.byte	0x1
 2880 0301 31       		.uleb128 0x31
 2881 0302 13       		.uleb128 0x13
 2882 0303 11       		.uleb128 0x11
 2883 0304 01       		.uleb128 0x1
 2884 0305 12       		.uleb128 0x12
 2885 0306 06       		.uleb128 0x6
 2886 0307 40       		.uleb128 0x40
 2887 0308 18       		.uleb128 0x18
 2888 0309 9742     		.uleb128 0x2117
 2889 030b 19       		.uleb128 0x19
 2890 030c 00       		.byte	0
 2891 030d 00       		.byte	0
 2892 030e 3B       		.uleb128 0x3b
 2893 030f 1D       		.uleb128 0x1d
 2894 0310 01       		.byte	0x1
 2895 0311 31       		.uleb128 0x31
 2896 0312 13       		.uleb128 0x13
 2897 0313 11       		.uleb128 0x11
 2898 0314 01       		.uleb128 0x1
 2899 0315 12       		.uleb128 0x12
 2900 0316 06       		.uleb128 0x6
 2901 0317 58       		.uleb128 0x58
 2902 0318 0B       		.uleb128 0xb
 2903 0319 59       		.uleb128 0x59
 2904 031a 0B       		.uleb128 0xb
 2905 031b 01       		.uleb128 0x1
 2906 031c 13       		.uleb128 0x13
 2907 031d 00       		.byte	0
ARM GAS  /tmp/ccv7mDgM.s 			page 52


 2908 031e 00       		.byte	0
 2909 031f 3C       		.uleb128 0x3c
 2910 0320 1D       		.uleb128 0x1d
 2911 0321 01       		.byte	0x1
 2912 0322 31       		.uleb128 0x31
 2913 0323 13       		.uleb128 0x13
 2914 0324 11       		.uleb128 0x11
 2915 0325 01       		.uleb128 0x1
 2916 0326 12       		.uleb128 0x12
 2917 0327 06       		.uleb128 0x6
 2918 0328 58       		.uleb128 0x58
 2919 0329 0B       		.uleb128 0xb
 2920 032a 59       		.uleb128 0x59
 2921 032b 05       		.uleb128 0x5
 2922 032c 00       		.byte	0
 2923 032d 00       		.byte	0
 2924 032e 00       		.byte	0
 2925              		.section	.debug_loc,"",%progbits
 2926              	.Ldebug_loc0:
 2927              	.LLST14:
 2928 0000 00000000 		.4byte	.LVL15
 2929 0004 0C000000 		.4byte	.LVL17
 2930 0008 0100     		.2byte	0x1
 2931 000a 50       		.byte	0x50
 2932 000b 0C000000 		.4byte	.LVL17
 2933 000f 14000000 		.4byte	.LVL19
 2934 0013 0100     		.2byte	0x1
 2935 0015 53       		.byte	0x53
 2936 0016 14000000 		.4byte	.LVL19
 2937 001a 1A000000 		.4byte	.LVL21
 2938 001e 0400     		.2byte	0x4
 2939 0020 F3       		.byte	0xf3
 2940 0021 01       		.uleb128 0x1
 2941 0022 50       		.byte	0x50
 2942 0023 9F       		.byte	0x9f
 2943 0024 1A000000 		.4byte	.LVL21
 2944 0028 23000000 		.4byte	.LVL23-1
 2945 002c 0100     		.2byte	0x1
 2946 002e 53       		.byte	0x53
 2947 002f 23000000 		.4byte	.LVL23-1
 2948 0033 2C000000 		.4byte	.LFE222
 2949 0037 0400     		.2byte	0x4
 2950 0039 F3       		.byte	0xf3
 2951 003a 01       		.uleb128 0x1
 2952 003b 50       		.byte	0x50
 2953 003c 9F       		.byte	0x9f
 2954 003d 00000000 		.4byte	0
 2955 0041 00000000 		.4byte	0
 2956              	.LLST15:
 2957 0045 00000000 		.4byte	.LVL15
 2958 0049 0A000000 		.4byte	.LVL16
 2959 004d 0300     		.2byte	0x3
 2960 004f 08       		.byte	0x8
 2961 0050 20       		.byte	0x20
 2962 0051 9F       		.byte	0x9f
 2963 0052 00000000 		.4byte	0
 2964 0056 00000000 		.4byte	0
ARM GAS  /tmp/ccv7mDgM.s 			page 53


 2965              	.LLST16:
 2966 005a 0A000000 		.4byte	.LVL16
 2967 005e 0C000000 		.4byte	.LVL17
 2968 0062 0100     		.2byte	0x1
 2969 0064 50       		.byte	0x50
 2970 0065 0C000000 		.4byte	.LVL17
 2971 0069 12000000 		.4byte	.LVL18
 2972 006d 0100     		.2byte	0x1
 2973 006f 53       		.byte	0x53
 2974 0070 1A000000 		.4byte	.LVL21
 2975 0074 23000000 		.4byte	.LVL23-1
 2976 0078 0100     		.2byte	0x1
 2977 007a 53       		.byte	0x53
 2978 007b 23000000 		.4byte	.LVL23-1
 2979 007f 24000000 		.4byte	.LVL23
 2980 0083 0400     		.2byte	0x4
 2981 0085 F3       		.byte	0xf3
 2982 0086 01       		.uleb128 0x1
 2983 0087 50       		.byte	0x50
 2984 0088 9F       		.byte	0x9f
 2985 0089 00000000 		.4byte	0
 2986 008d 00000000 		.4byte	0
 2987              	.LLST17:
 2988 0091 1A000000 		.4byte	.LVL21
 2989 0095 23000000 		.4byte	.LVL23-1
 2990 0099 0100     		.2byte	0x1
 2991 009b 53       		.byte	0x53
 2992 009c 23000000 		.4byte	.LVL23-1
 2993 00a0 2C000000 		.4byte	.LFE222
 2994 00a4 0400     		.2byte	0x4
 2995 00a6 F3       		.byte	0xf3
 2996 00a7 01       		.uleb128 0x1
 2997 00a8 50       		.byte	0x50
 2998 00a9 9F       		.byte	0x9f
 2999 00aa 00000000 		.4byte	0
 3000 00ae 00000000 		.4byte	0
 3001              	.LLST18:
 3002 00b2 12000000 		.4byte	.LVL18
 3003 00b6 18000000 		.4byte	.LVL20
 3004 00ba 0200     		.2byte	0x2
 3005 00bc 30       		.byte	0x30
 3006 00bd 9F       		.byte	0x9f
 3007 00be 24000000 		.4byte	.LVL23
 3008 00c2 2A000000 		.4byte	.LVL24
 3009 00c6 0200     		.2byte	0x2
 3010 00c8 30       		.byte	0x30
 3011 00c9 9F       		.byte	0x9f
 3012 00ca 00000000 		.4byte	0
 3013 00ce 00000000 		.4byte	0
 3014              	.LLST0:
 3015 00d2 00000000 		.4byte	.LVL1
 3016 00d6 1C000000 		.4byte	.LVL7
 3017 00da 0100     		.2byte	0x1
 3018 00dc 51       		.byte	0x51
 3019 00dd 1C000000 		.4byte	.LVL7
 3020 00e1 24000000 		.4byte	.LFE220
 3021 00e5 0100     		.2byte	0x1
ARM GAS  /tmp/ccv7mDgM.s 			page 54


 3022 00e7 51       		.byte	0x51
 3023 00e8 00000000 		.4byte	0
 3024 00ec 00000000 		.4byte	0
 3025              	.LLST1:
 3026 00f0 00000000 		.4byte	.LVL1
 3027 00f4 08000000 		.4byte	.LVL2
 3028 00f8 0100     		.2byte	0x1
 3029 00fa 52       		.byte	0x52
 3030 00fb 08000000 		.4byte	.LVL2
 3031 00ff 1A000000 		.4byte	.LVL6
 3032 0103 0100     		.2byte	0x1
 3033 0105 52       		.byte	0x52
 3034 0106 1A000000 		.4byte	.LVL6
 3035 010a 1C000000 		.4byte	.LVL7
 3036 010e 0300     		.2byte	0x3
 3037 0110 72       		.byte	0x72
 3038 0111 01       		.sleb128 1
 3039 0112 9F       		.byte	0x9f
 3040 0113 22000000 		.4byte	.LVL8
 3041 0117 24000000 		.4byte	.LFE220
 3042 011b 0100     		.2byte	0x1
 3043 011d 52       		.byte	0x52
 3044 011e 00000000 		.4byte	0
 3045 0122 00000000 		.4byte	0
 3046              	.LLST2:
 3047 0126 08000000 		.4byte	.LVL2
 3048 012a 22000000 		.4byte	.LVL8
 3049 012e 0100     		.2byte	0x1
 3050 0130 50       		.byte	0x50
 3051 0131 00000000 		.4byte	0
 3052 0135 00000000 		.4byte	0
 3053              	.LLST3:
 3054 0139 08000000 		.4byte	.LVL2
 3055 013d 16000000 		.4byte	.LVL5
 3056 0141 0100     		.2byte	0x1
 3057 0143 51       		.byte	0x51
 3058 0144 00000000 		.4byte	0
 3059 0148 00000000 		.4byte	0
 3060              	.LLST5:
 3061 014c 08000000 		.4byte	.LVL2
 3062 0150 16000000 		.4byte	.LVL5
 3063 0154 0100     		.2byte	0x1
 3064 0156 50       		.byte	0x50
 3065 0157 00000000 		.4byte	0
 3066 015b 00000000 		.4byte	0
 3067              	.LLST6:
 3068 015f 08000000 		.4byte	.LVL2
 3069 0163 0C000000 		.4byte	.LVL3
 3070 0167 0300     		.2byte	0x3
 3071 0169 08       		.byte	0x8
 3072 016a 20       		.byte	0x20
 3073 016b 9F       		.byte	0x9f
 3074 016c 00000000 		.4byte	0
 3075 0170 00000000 		.4byte	0
 3076              	.LLST7:
 3077 0174 12000000 		.4byte	.LVL4
 3078 0178 16000000 		.4byte	.LVL5
ARM GAS  /tmp/ccv7mDgM.s 			page 55


 3079 017c 0200     		.2byte	0x2
 3080 017e 30       		.byte	0x30
 3081 017f 9F       		.byte	0x9f
 3082 0180 00000000 		.4byte	0
 3083 0184 00000000 		.4byte	0
 3084              	.LLST8:
 3085 0188 0C000000 		.4byte	.LVL3
 3086 018c 12000000 		.4byte	.LVL4
 3087 0190 0100     		.2byte	0x1
 3088 0192 51       		.byte	0x51
 3089 0193 00000000 		.4byte	0
 3090 0197 00000000 		.4byte	0
 3091              	.LLST9:
 3092 019b 0C000000 		.4byte	.LVL3
 3093 019f 12000000 		.4byte	.LVL4
 3094 01a3 0100     		.2byte	0x1
 3095 01a5 50       		.byte	0x50
 3096 01a6 00000000 		.4byte	0
 3097 01aa 00000000 		.4byte	0
 3098              	.LLST10:
 3099 01ae 0C000000 		.4byte	.LVL3
 3100 01b2 1C000000 		.4byte	.LVL7
 3101 01b6 0100     		.2byte	0x1
 3102 01b8 51       		.byte	0x51
 3103 01b9 1C000000 		.4byte	.LVL7
 3104 01bd 22000000 		.4byte	.LVL8
 3105 01c1 0200     		.2byte	0x2
 3106 01c3 70       		.byte	0x70
 3107 01c4 00       		.sleb128 0
 3108 01c5 00000000 		.4byte	0
 3109 01c9 00000000 		.4byte	0
 3110              	.LLST11:
 3111 01cd 00000000 		.4byte	.LVL9
 3112 01d1 0A000000 		.4byte	.LVL11
 3113 01d5 0100     		.2byte	0x1
 3114 01d7 50       		.byte	0x50
 3115 01d8 0A000000 		.4byte	.LVL11
 3116 01dc 0C000000 		.4byte	.LVL12
 3117 01e0 0400     		.2byte	0x4
 3118 01e2 F3       		.byte	0xf3
 3119 01e3 01       		.uleb128 0x1
 3120 01e4 50       		.byte	0x50
 3121 01e5 9F       		.byte	0x9f
 3122 01e6 0C000000 		.4byte	.LVL12
 3123 01ea 14000000 		.4byte	.LVL13
 3124 01ee 0100     		.2byte	0x1
 3125 01f0 50       		.byte	0x50
 3126 01f1 14000000 		.4byte	.LVL13
 3127 01f5 16000000 		.4byte	.LFE221
 3128 01f9 0400     		.2byte	0x4
 3129 01fb F3       		.byte	0xf3
 3130 01fc 01       		.uleb128 0x1
 3131 01fd 50       		.byte	0x50
 3132 01fe 9F       		.byte	0x9f
 3133 01ff 00000000 		.4byte	0
 3134 0203 00000000 		.4byte	0
 3135              	.LLST12:
ARM GAS  /tmp/ccv7mDgM.s 			page 56


 3136 0207 02000000 		.4byte	.LVL10
 3137 020b 15000000 		.4byte	.LVL14-1
 3138 020f 0100     		.2byte	0x1
 3139 0211 53       		.byte	0x53
 3140 0212 00000000 		.4byte	0
 3141 0216 00000000 		.4byte	0
 3142              	.LLST13:
 3143 021a 0C000000 		.4byte	.LVL12
 3144 021e 14000000 		.4byte	.LVL13
 3145 0222 0100     		.2byte	0x1
 3146 0224 50       		.byte	0x50
 3147 0225 14000000 		.4byte	.LVL13
 3148 0229 16000000 		.4byte	.LFE221
 3149 022d 0400     		.2byte	0x4
 3150 022f F3       		.byte	0xf3
 3151 0230 01       		.uleb128 0x1
 3152 0231 50       		.byte	0x50
 3153 0232 9F       		.byte	0x9f
 3154 0233 00000000 		.4byte	0
 3155 0237 00000000 		.4byte	0
 3156              	.LLST19:
 3157 023b 00000000 		.4byte	.LVL26
 3158 023f 06000000 		.4byte	.LVL27
 3159 0243 0300     		.2byte	0x3
 3160 0245 08       		.byte	0x8
 3161 0246 20       		.byte	0x20
 3162 0247 9F       		.byte	0x9f
 3163 0248 00000000 		.4byte	0
 3164 024c 00000000 		.4byte	0
 3165              	.LLST20:
 3166 0250 06000000 		.4byte	.LVL27
 3167 0254 0E000000 		.4byte	.LVL28
 3168 0258 0100     		.2byte	0x1
 3169 025a 51       		.byte	0x51
 3170 025b 00000000 		.4byte	0
 3171 025f 00000000 		.4byte	0
 3172              	.LLST21:
 3173 0263 06000000 		.4byte	.LVL27
 3174 0267 0E000000 		.4byte	.LVL28
 3175 026b 0100     		.2byte	0x1
 3176 026d 50       		.byte	0x50
 3177 026e 00000000 		.4byte	0
 3178 0272 00000000 		.4byte	0
 3179              	.LLST22:
 3180 0276 0E000000 		.4byte	.LVL28
 3181 027a 12000000 		.4byte	.LVL29
 3182 027e 0200     		.2byte	0x2
 3183 0280 30       		.byte	0x30
 3184 0281 9F       		.byte	0x9f
 3185 0282 00000000 		.4byte	0
 3186 0286 00000000 		.4byte	0
 3187              		.section	.debug_aranges,"",%progbits
 3188 0000 44000000 		.4byte	0x44
 3189 0004 0200     		.2byte	0x2
 3190 0006 00000000 		.4byte	.Ldebug_info0
 3191 000a 04       		.byte	0x4
 3192 000b 00       		.byte	0
ARM GAS  /tmp/ccv7mDgM.s 			page 57


 3193 000c 0000     		.2byte	0
 3194 000e 0000     		.2byte	0
 3195 0010 00000000 		.4byte	.LFB219
 3196 0014 0A000000 		.4byte	.LFE219-.LFB219
 3197 0018 00000000 		.4byte	.LFB220
 3198 001c 24000000 		.4byte	.LFE220-.LFB220
 3199 0020 00000000 		.4byte	.LFB221
 3200 0024 16000000 		.4byte	.LFE221-.LFB221
 3201 0028 00000000 		.4byte	.LFB222
 3202 002c 2C000000 		.4byte	.LFE222-.LFB222
 3203 0030 00000000 		.4byte	.LFB223
 3204 0034 08000000 		.4byte	.LFE223-.LFB223
 3205 0038 00000000 		.4byte	.LFB224
 3206 003c 14000000 		.4byte	.LFE224-.LFB224
 3207 0040 00000000 		.4byte	0
 3208 0044 00000000 		.4byte	0
 3209              		.section	.debug_ranges,"",%progbits
 3210              	.Ldebug_ranges0:
 3211 0000 04000000 		.4byte	.LBB79
 3212 0004 06000000 		.4byte	.LBE79
 3213 0008 08000000 		.4byte	.LBB95
 3214 000c 0C000000 		.4byte	.LBE95
 3215 0010 00000000 		.4byte	0
 3216 0014 00000000 		.4byte	0
 3217 0018 06000000 		.4byte	.LBB86
 3218 001c 08000000 		.4byte	.LBE86
 3219 0020 12000000 		.4byte	.LBB98
 3220 0024 16000000 		.4byte	.LBE98
 3221 0028 00000000 		.4byte	0
 3222 002c 00000000 		.4byte	0
 3223 0030 02000000 		.4byte	.LBB116
 3224 0034 04000000 		.4byte	.LBE116
 3225 0038 06000000 		.4byte	.LBB123
 3226 003c 0A000000 		.4byte	.LBE123
 3227 0040 00000000 		.4byte	0
 3228 0044 00000000 		.4byte	0
 3229 0048 0A000000 		.4byte	.LBB124
 3230 004c 12000000 		.4byte	.LBE124
 3231 0050 1A000000 		.4byte	.LBB138
 3232 0054 24000000 		.4byte	.LBE138
 3233 0058 00000000 		.4byte	0
 3234 005c 00000000 		.4byte	0
 3235 0060 12000000 		.4byte	.LBB129
 3236 0064 18000000 		.4byte	.LBE129
 3237 0068 24000000 		.4byte	.LBB139
 3238 006c 2A000000 		.4byte	.LBE139
 3239 0070 00000000 		.4byte	0
 3240 0074 00000000 		.4byte	0
 3241 0078 06000000 		.4byte	.LBB144
 3242 007c 0A000000 		.4byte	.LBE144
 3243 0080 0C000000 		.4byte	.LBB156
 3244 0084 0E000000 		.4byte	.LBE156
 3245 0088 00000000 		.4byte	0
 3246 008c 00000000 		.4byte	0
 3247 0090 0A000000 		.4byte	.LBB147
 3248 0094 0C000000 		.4byte	.LBE147
 3249 0098 0E000000 		.4byte	.LBB157
ARM GAS  /tmp/ccv7mDgM.s 			page 58


 3250 009c 12000000 		.4byte	.LBE157
 3251 00a0 00000000 		.4byte	0
 3252 00a4 00000000 		.4byte	0
 3253 00a8 00000000 		.4byte	.LFB219
 3254 00ac 0A000000 		.4byte	.LFE219
 3255 00b0 00000000 		.4byte	.LFB220
 3256 00b4 24000000 		.4byte	.LFE220
 3257 00b8 00000000 		.4byte	.LFB221
 3258 00bc 16000000 		.4byte	.LFE221
 3259 00c0 00000000 		.4byte	.LFB222
 3260 00c4 2C000000 		.4byte	.LFE222
 3261 00c8 00000000 		.4byte	.LFB223
 3262 00cc 08000000 		.4byte	.LFE223
 3263 00d0 00000000 		.4byte	.LFB224
 3264 00d4 14000000 		.4byte	.LFE224
 3265 00d8 00000000 		.4byte	0
 3266 00dc 00000000 		.4byte	0
 3267              		.section	.debug_line,"",%progbits
 3268              	.Ldebug_line0:
 3269 0000 42030000 		.section	.debug_str,"MS",%progbits,1
 3269      02005402 
 3269      00000201 
 3269      FB0E0D00 
 3269      01010101 
 3270              	.LASF117:
 3271 0000 63665F6F 		.ascii	"cf_off_older\000"
 3271      66665F6F 
 3271      6C646572 
 3271      00
 3272              	.LASF56:
 3273 000d 72656164 		.ascii	"ready_list_t\000"
 3273      795F6C69 
 3273      73745F74 
 3273      00
 3274              	.LASF2:
 3275 001a 73697A65 		.ascii	"size_t\000"
 3275      5F7400
 3276              	.LASF92:
 3277 0021 7264796D 		.ascii	"rdymsg\000"
 3277      736700
 3278              	.LASF19:
 3279 0028 75696E74 		.ascii	"uint64_t\000"
 3279      36345F74 
 3279      00
 3280              	.LASF3:
 3281 0031 5F5F7569 		.ascii	"__uint8_t\000"
 3281      6E74385F 
 3281      7400
 3282              	.LASF89:
 3283 003b 706F7274 		.ascii	"port_intctx\000"
 3283      5F696E74 
 3283      63747800 
 3284              	.LASF75:
 3285 0047 73797374 		.ascii	"system_debug_t\000"
 3285      656D5F64 
 3285      65627567 
 3285      5F7400
ARM GAS  /tmp/ccv7mDgM.s 			page 59


 3286              	.LASF143:
 3287 0056 70726F76 		.ascii	"provider\000"
 3287      69646572 
 3287      00
 3288              	.LASF151:
 3289 005f 474E5520 		.ascii	"GNU C99 7.3.1 20180622 (release) [ARM/embedded-7-br"
 3289      43393920 
 3289      372E332E 
 3289      31203230 
 3289      31383036 
 3290 0092 616E6368 		.ascii	"anch revision 261907] -mcpu=cortex-m4 -mfloat-abi=h"
 3290      20726576 
 3290      6973696F 
 3290      6E203236 
 3290      31393037 
 3291 00c5 61726420 		.ascii	"ard -mfpu=fpv4-sp-d16 -mno-thumb-interwork -mthumb "
 3291      2D6D6670 
 3291      753D6670 
 3291      76342D73 
 3291      702D6431 
 3292 00f8 2D676764 		.ascii	"-ggdb -O2 -std=gnu99 -fomit-frame-pointer -falign-f"
 3292      62202D4F 
 3292      32202D73 
 3292      74643D67 
 3292      6E753939 
 3293 012b 756E6374 		.ascii	"unctions=16 -ffunction-sections -fdata-sections -fn"
 3293      696F6E73 
 3293      3D313620 
 3293      2D666675 
 3293      6E637469 
 3294 015e 6F2D636F 		.ascii	"o-common -fsingle-precision-constant\000"
 3294      6D6D6F6E 
 3294      202D6673 
 3294      696E676C 
 3294      652D7072 
 3295              	.LASF148:
 3296 0183 706F7274 		.ascii	"port_lock\000"
 3296      5F6C6F63 
 3296      6B00
 3297              	.LASF128:
 3298 018d 6D656D67 		.ascii	"memgetfunc_t\000"
 3298      65746675 
 3298      6E635F74 
 3298      00
 3299              	.LASF14:
 3300 019a 6C6F6E67 		.ascii	"long long unsigned int\000"
 3300      206C6F6E 
 3300      6720756E 
 3300      7369676E 
 3300      65642069 
 3301              	.LASF113:
 3302 01b1 63685F74 		.ascii	"ch_threadsize\000"
 3302      68726561 
 3302      6473697A 
 3302      6500
 3303              	.LASF93:
 3304 01bf 65786974 		.ascii	"exitcode\000"
ARM GAS  /tmp/ccv7mDgM.s 			page 60


 3304      636F6465 
 3304      00
 3305              	.LASF82:
 3306 01c8 6D61696E 		.ascii	"mainthread\000"
 3306      74687265 
 3306      616400
 3307              	.LASF72:
 3308 01d3 76697274 		.ascii	"virtual_timers_list_t\000"
 3308      75616C5F 
 3308      74696D65 
 3308      72735F6C 
 3308      6973745F 
 3309              	.LASF84:
 3310 01e9 49544D5F 		.ascii	"ITM_RxBuffer\000"
 3310      52784275 
 3310      66666572 
 3310      00
 3311              	.LASF55:
 3312 01f6 63685F74 		.ascii	"ch_threads_queue\000"
 3312      68726561 
 3312      64735F71 
 3312      75657565 
 3312      00
 3313              	.LASF33:
 3314 0207 705F7072 		.ascii	"p_prio\000"
 3314      696F00
 3315              	.LASF120:
 3316 020e 63665F6F 		.ascii	"cf_off_state\000"
 3316      66665F73 
 3316      74617465 
 3316      00
 3317              	.LASF12:
 3318 021b 6C6F6E67 		.ascii	"long long int\000"
 3318      206C6F6E 
 3318      6720696E 
 3318      7400
 3319              	.LASF1:
 3320 0229 7369676E 		.ascii	"signed char\000"
 3320      65642063 
 3320      68617200 
 3321              	.LASF119:
 3322 0235 63665F6F 		.ascii	"cf_off_stklimit\000"
 3322      66665F73 
 3322      746B6C69 
 3322      6D697400 
 3323              	.LASF121:
 3324 0245 63665F6F 		.ascii	"cf_off_flags\000"
 3324      66665F66 
 3324      6C616773 
 3324      00
 3325              	.LASF49:
 3326 0252 705F6D70 		.ascii	"p_mpool\000"
 3326      6F6F6C00 
 3327              	.LASF103:
 3328 025a 6D5F7175 		.ascii	"m_queue\000"
 3328      65756500 
 3329              	.LASF81:
ARM GAS  /tmp/ccv7mDgM.s 			page 61


 3330 0262 76746C69 		.ascii	"vtlist\000"
 3330      737400
 3331              	.LASF147:
 3332 0269 706F7274 		.ascii	"port_unlock\000"
 3332      5F756E6C 
 3332      6F636B00 
 3333              	.LASF24:
 3334 0275 74736C69 		.ascii	"tslices_t\000"
 3334      6365735F 
 3334      7400
 3335              	.LASF95:
 3336 027f 77747472 		.ascii	"wttrp\000"
 3336      7000
 3337              	.LASF79:
 3338 0285 63685F73 		.ascii	"ch_system\000"
 3338      79737465 
 3338      6D00
 3339              	.LASF9:
 3340 028f 6C6F6E67 		.ascii	"long int\000"
 3340      20696E74 
 3340      00
 3341              	.LASF22:
 3342 0298 74737461 		.ascii	"tstate_t\000"
 3342      74655F74 
 3342      00
 3343              	.LASF125:
 3344 02a1 63686465 		.ascii	"chdebug_t\000"
 3344      6275675F 
 3344      7400
 3345              	.LASF35:
 3346 02ab 705F6E65 		.ascii	"p_newer\000"
 3346      77657200 
 3347              	.LASF100:
 3348 02b3 735F7175 		.ascii	"s_queue\000"
 3348      65756500 
 3349              	.LASF61:
 3350 02bb 725F6E65 		.ascii	"r_newer\000"
 3350      77657200 
 3351              	.LASF133:
 3352 02c3 6D705F70 		.ascii	"mp_provider\000"
 3352      726F7669 
 3352      64657200 
 3353              	.LASF86:
 3354 02cf 72656761 		.ascii	"regarm_t\000"
 3354      726D5F74 
 3354      00
 3355              	.LASF68:
 3356 02d8 76745F70 		.ascii	"vt_prev\000"
 3356      72657600 
 3357              	.LASF127:
 3358 02e0 6D757465 		.ascii	"mutex_t\000"
 3358      785F7400 
 3359              	.LASF150:
 3360 02e8 76616C75 		.ascii	"value\000"
 3360      6500
 3361              	.LASF83:
 3362 02ee 69646C65 		.ascii	"idle_thread_wa\000"
ARM GAS  /tmp/ccv7mDgM.s 			page 62


 3362      5F746872 
 3362      6561645F 
 3362      776100
 3363              	.LASF28:
 3364 02fd 636E745F 		.ascii	"cnt_t\000"
 3364      7400
 3365              	.LASF0:
 3366 0303 756E7369 		.ascii	"unsigned int\000"
 3366      676E6564 
 3366      20696E74 
 3366      00
 3367              	.LASF67:
 3368 0310 76745F6E 		.ascii	"vt_next\000"
 3368      65787400 
 3369              	.LASF16:
 3370 0318 75696E74 		.ascii	"uint16_t\000"
 3370      31365F74 
 3370      00
 3371              	.LASF85:
 3372 0321 53797374 		.ascii	"SystemCoreClock\000"
 3372      656D436F 
 3372      7265436C 
 3372      6F636B00 
 3373              	.LASF42:
 3374 0331 705F7469 		.ascii	"p_time\000"
 3374      6D6500
 3375              	.LASF96:
 3376 0338 77747365 		.ascii	"wtsemp\000"
 3376      6D7000
 3377              	.LASF69:
 3378 033f 76745F64 		.ascii	"vt_delta\000"
 3378      656C7461 
 3378      00
 3379              	.LASF44:
 3380 0348 705F6D73 		.ascii	"p_msgqueue\000"
 3380      67717565 
 3380      756500
 3381              	.LASF126:
 3382 0353 63685F64 		.ascii	"ch_debug\000"
 3382      65627567 
 3382      00
 3383              	.LASF134:
 3384 035c 6D656D6F 		.ascii	"memory_pool_t\000"
 3384      72795F70 
 3384      6F6F6C5F 
 3384      7400
 3385              	.LASF152:
 3386 036a 43686962 		.ascii	"ChibiOS_3.0.2/os/rt/src/chmempools.c\000"
 3386      694F535F 
 3386      332E302E 
 3386      322F6F73 
 3386      2F72742F 
 3387              	.LASF101:
 3388 038f 735F636E 		.ascii	"s_cnt\000"
 3388      7400
 3389              	.LASF7:
 3390 0395 73686F72 		.ascii	"short unsigned int\000"
ARM GAS  /tmp/ccv7mDgM.s 			page 63


 3390      7420756E 
 3390      7369676E 
 3390      65642069 
 3390      6E7400
 3391              	.LASF52:
 3392 03a8 63685F74 		.ascii	"ch_thread\000"
 3392      68726561 
 3392      6400
 3393              	.LASF26:
 3394 03b2 6D73675F 		.ascii	"msg_t\000"
 3394      7400
 3395              	.LASF78:
 3396 03b8 63685F73 		.ascii	"ch_system_t\000"
 3396      79737465 
 3396      6D5F7400 
 3397              	.LASF144:
 3398 03c4 6368506F 		.ascii	"chPoolAdd\000"
 3398      6F6C4164 
 3398      6400
 3399              	.LASF124:
 3400 03ce 63665F6F 		.ascii	"cf_off_time\000"
 3400      66665F74 
 3400      696D6500 
 3401              	.LASF141:
 3402 03da 6368506F 		.ascii	"chPoolObjectInit\000"
 3402      6F6C4F62 
 3402      6A656374 
 3402      496E6974 
 3402      00
 3403              	.LASF57:
 3404 03eb 63685F72 		.ascii	"ch_ready_list\000"
 3404      65616479 
 3404      5F6C6973 
 3404      7400
 3405              	.LASF27:
 3406 03f9 6576656E 		.ascii	"eventmask_t\000"
 3406      746D6173 
 3406      6B5F7400 
 3407              	.LASF8:
 3408 0405 5F5F696E 		.ascii	"__int32_t\000"
 3408      7433325F 
 3408      7400
 3409              	.LASF87:
 3410 040f 73746B61 		.ascii	"stkalign_t\000"
 3410      6C69676E 
 3410      5F7400
 3411              	.LASF51:
 3412 041a 74687265 		.ascii	"threads_list_t\000"
 3412      6164735F 
 3412      6C697374 
 3412      5F7400
 3413              	.LASF108:
 3414 0429 63685F7A 		.ascii	"ch_zero\000"
 3414      65726F00 
 3415              	.LASF122:
 3416 0431 63665F6F 		.ascii	"cf_off_refs\000"
 3416      66665F72 
ARM GAS  /tmp/ccv7mDgM.s 			page 64


 3416      65667300 
 3417              	.LASF59:
 3418 043d 725F7072 		.ascii	"r_prio\000"
 3418      696F00
 3419              	.LASF43:
 3420 0444 705F7761 		.ascii	"p_waiting\000"
 3420      6974696E 
 3420      6700
 3421              	.LASF20:
 3422 044e 7274636E 		.ascii	"rtcnt_t\000"
 3422      745F7400 
 3423              	.LASF73:
 3424 0456 63685F76 		.ascii	"ch_virtual_timers_list\000"
 3424      69727475 
 3424      616C5F74 
 3424      696D6572 
 3424      735F6C69 
 3425              	.LASF112:
 3426 046d 63685F74 		.ascii	"ch_timesize\000"
 3426      696D6573 
 3426      697A6500 
 3427              	.LASF139:
 3428 0479 6368506F 		.ascii	"chPoolAllocI\000"
 3428      6F6C416C 
 3428      6C6F6349 
 3428      00
 3429              	.LASF137:
 3430 0486 6368506F 		.ascii	"chPoolFreeI\000"
 3430      6F6C4672 
 3430      65654900 
 3431              	.LASF118:
 3432 0492 63665F6F 		.ascii	"cf_off_name\000"
 3432      66665F6E 
 3432      616D6500 
 3433              	.LASF36:
 3434 049e 705F6F6C 		.ascii	"p_older\000"
 3434      64657200 
 3435              	.LASF60:
 3436 04a6 725F6374 		.ascii	"r_ctx\000"
 3436      7800
 3437              	.LASF34:
 3438 04ac 705F6374 		.ascii	"p_ctx\000"
 3438      7800
 3439              	.LASF132:
 3440 04b2 6D705F6F 		.ascii	"mp_object_size\000"
 3440      626A6563 
 3440      745F7369 
 3440      7A6500
 3441              	.LASF91:
 3442 04c1 746D5F63 		.ascii	"tm_calibration_t\000"
 3442      616C6962 
 3442      72617469 
 3442      6F6E5F74 
 3442      00
 3443              	.LASF63:
 3444 04d2 725F6375 		.ascii	"r_current\000"
 3444      7272656E 
ARM GAS  /tmp/ccv7mDgM.s 			page 65


 3444      7400
 3445              	.LASF62:
 3446 04dc 725F6F6C 		.ascii	"r_older\000"
 3446      64657200 
 3447              	.LASF13:
 3448 04e4 5F5F7569 		.ascii	"__uint64_t\000"
 3448      6E743634 
 3448      5F7400
 3449              	.LASF130:
 3450 04ef 70685F6E 		.ascii	"ph_next\000"
 3450      65787400 
 3451              	.LASF23:
 3452 04f7 74726566 		.ascii	"trefs_t\000"
 3452      735F7400 
 3453              	.LASF111:
 3454 04ff 63685F70 		.ascii	"ch_ptrsize\000"
 3454      74727369 
 3454      7A6500
 3455              	.LASF65:
 3456 050a 76697274 		.ascii	"virtual_timer_t\000"
 3456      75616C5F 
 3456      74696D65 
 3456      725F7400 
 3457              	.LASF32:
 3458 051a 705F7072 		.ascii	"p_prev\000"
 3458      657600
 3459              	.LASF25:
 3460 0521 74707269 		.ascii	"tprio_t\000"
 3460      6F5F7400 
 3461              	.LASF76:
 3462 0529 63685F73 		.ascii	"ch_system_debug\000"
 3462      79737465 
 3462      6D5F6465 
 3462      62756700 
 3463              	.LASF17:
 3464 0539 696E7433 		.ascii	"int32_t\000"
 3464      325F7400 
 3465              	.LASF4:
 3466 0541 756E7369 		.ascii	"unsigned char\000"
 3466      676E6564 
 3466      20636861 
 3466      7200
 3467              	.LASF47:
 3468 054f 705F6D74 		.ascii	"p_mtxlist\000"
 3468      786C6973 
 3468      7400
 3469              	.LASF5:
 3470 0559 73686F72 		.ascii	"short int\000"
 3470      7420696E 
 3470      7400
 3471              	.LASF38:
 3472 0563 705F7374 		.ascii	"p_state\000"
 3472      61746500 
 3473              	.LASF41:
 3474 056b 705F7072 		.ascii	"p_preempt\000"
 3474      65656D70 
 3474      7400
ARM GAS  /tmp/ccv7mDgM.s 			page 66


 3475              	.LASF110:
 3476 0575 63685F76 		.ascii	"ch_version\000"
 3476      65727369 
 3476      6F6E00
 3477              	.LASF98:
 3478 0580 65776D61 		.ascii	"ewmask\000"
 3478      736B00
 3479              	.LASF31:
 3480 0587 705F6E65 		.ascii	"p_next\000"
 3480      787400
 3481              	.LASF21:
 3482 058e 746D6F64 		.ascii	"tmode_t\000"
 3482      655F7400 
 3483              	.LASF123:
 3484 0596 63665F6F 		.ascii	"cf_off_preempt\000"
 3484      66665F70 
 3484      7265656D 
 3484      707400
 3485              	.LASF138:
 3486 05a5 5F5F6675 		.ascii	"__func__\000"
 3486      6E635F5F 
 3486      00
 3487              	.LASF146:
 3488 05ae 63685379 		.ascii	"chSysLock\000"
 3488      734C6F63 
 3488      6B00
 3489              	.LASF135:
 3490 05b8 6F626A70 		.ascii	"objp\000"
 3490      00
 3491              	.LASF54:
 3492 05bd 74687265 		.ascii	"threads_queue_t\000"
 3492      6164735F 
 3492      71756575 
 3492      655F7400 
 3493              	.LASF66:
 3494 05cd 63685F76 		.ascii	"ch_virtual_timer\000"
 3494      69727475 
 3494      616C5F74 
 3494      696D6572 
 3494      00
 3495              	.LASF153:
 3496 05de 2F686F6D 		.ascii	"/home/renan/BLDC/bldc-firmware\000"
 3496      652F7265 
 3496      6E616E2F 
 3496      424C4443 
 3496      2F626C64 
 3497              	.LASF99:
 3498 05fd 63685F73 		.ascii	"ch_semaphore\000"
 3498      656D6170 
 3498      686F7265 
 3498      00
 3499              	.LASF46:
 3500 060a 705F6570 		.ascii	"p_epending\000"
 3500      656E6469 
 3500      6E6700
 3501              	.LASF18:
 3502 0615 75696E74 		.ascii	"uint32_t\000"
ARM GAS  /tmp/ccv7mDgM.s 			page 67


 3502      33325F74 
 3502      00
 3503              	.LASF114:
 3504 061e 63665F6F 		.ascii	"cf_off_prio\000"
 3504      66665F70 
 3504      72696F00 
 3505              	.LASF58:
 3506 062a 725F7175 		.ascii	"r_queue\000"
 3506      65756500 
 3507              	.LASF53:
 3508 0632 63685F74 		.ascii	"ch_threads_list\000"
 3508      68726561 
 3508      64735F6C 
 3508      69737400 
 3509              	.LASF109:
 3510 0642 63685F73 		.ascii	"ch_size\000"
 3510      697A6500 
 3511              	.LASF11:
 3512 064a 6C6F6E67 		.ascii	"long unsigned int\000"
 3512      20756E73 
 3512      69676E65 
 3512      6420696E 
 3512      7400
 3513              	.LASF106:
 3514 065c 63686172 		.ascii	"char\000"
 3514      00
 3515              	.LASF97:
 3516 0661 77746D74 		.ascii	"wtmtxp\000"
 3516      787000
 3517              	.LASF6:
 3518 0668 5F5F7569 		.ascii	"__uint16_t\000"
 3518      6E743136 
 3518      5F7400
 3519              	.LASF30:
 3520 0673 74687265 		.ascii	"thread_t\000"
 3520      61645F74 
 3520      00
 3521              	.LASF105:
 3522 067c 6D5F6E65 		.ascii	"m_next\000"
 3522      787400
 3523              	.LASF29:
 3524 0683 73797374 		.ascii	"systime_t\000"
 3524      696D655F 
 3524      7400
 3525              	.LASF48:
 3526 068d 705F7265 		.ascii	"p_realprio\000"
 3526      616C7072 
 3526      696F00
 3527              	.LASF64:
 3528 0698 76746675 		.ascii	"vtfunc_t\000"
 3528      6E635F74 
 3528      00
 3529              	.LASF10:
 3530 06a1 5F5F7569 		.ascii	"__uint32_t\000"
 3530      6E743332 
 3530      5F7400
 3531              	.LASF149:
ARM GAS  /tmp/ccv7mDgM.s 			page 68


 3532 06ac 5F5F7365 		.ascii	"__set_BASEPRI\000"
 3532      745F4241 
 3532      53455052 
 3532      4900
 3533              	.LASF77:
 3534 06ba 70616E69 		.ascii	"panic_msg\000"
 3534      635F6D73 
 3534      6700
 3535              	.LASF90:
 3536 06c4 6F666673 		.ascii	"offset\000"
 3536      657400
 3537              	.LASF102:
 3538 06cb 63685F6D 		.ascii	"ch_mutex\000"
 3538      75746578 
 3538      00
 3539              	.LASF131:
 3540 06d4 6D705F6E 		.ascii	"mp_next\000"
 3540      65787400 
 3541              	.LASF88:
 3542 06dc 636F6E74 		.ascii	"context\000"
 3542      65787400 
 3543              	.LASF45:
 3544 06e4 705F6D73 		.ascii	"p_msg\000"
 3544      6700
 3545              	.LASF71:
 3546 06ea 76745F70 		.ascii	"vt_par\000"
 3546      617200
 3547              	.LASF115:
 3548 06f1 63665F6F 		.ascii	"cf_off_ctx\000"
 3548      66665F63 
 3548      747800
 3549              	.LASF129:
 3550 06fc 706F6F6C 		.ascii	"pool_header\000"
 3550      5F686561 
 3550      64657200 
 3551              	.LASF40:
 3552 0708 705F7265 		.ascii	"p_refs\000"
 3552      667300
 3553              	.LASF80:
 3554 070f 726C6973 		.ascii	"rlist\000"
 3554      7400
 3555              	.LASF15:
 3556 0715 75696E74 		.ascii	"uint8_t\000"
 3556      385F7400 
 3557              	.LASF154:
 3558 071d 6368506F 		.ascii	"chPoolAlloc\000"
 3558      6F6C416C 
 3558      6C6F6300 
 3559              	.LASF136:
 3560 0729 6368506F 		.ascii	"chPoolFree\000"
 3560      6F6C4672 
 3560      656500
 3561              	.LASF50:
 3562 0734 74687265 		.ascii	"thread_reference_t\000"
 3562      61645F72 
 3562      65666572 
 3562      656E6365 
ARM GAS  /tmp/ccv7mDgM.s 			page 69


 3562      5F7400
 3563              	.LASF94:
 3564 0747 77746F62 		.ascii	"wtobjp\000"
 3564      6A7000
 3565              	.LASF116:
 3566 074e 63665F6F 		.ascii	"cf_off_newer\000"
 3566      66665F6E 
 3566      65776572 
 3566      00
 3567              	.LASF37:
 3568 075b 705F6E61 		.ascii	"p_name\000"
 3568      6D6500
 3569              	.LASF142:
 3570 0762 73697A65 		.ascii	"size\000"
 3570      00
 3571              	.LASF74:
 3572 0767 76745F73 		.ascii	"vt_systime\000"
 3572      79737469 
 3572      6D6500
 3573              	.LASF39:
 3574 0772 705F666C 		.ascii	"p_flags\000"
 3574      61677300 
 3575              	.LASF145:
 3576 077a 63685379 		.ascii	"chSysUnlock\000"
 3576      73556E6C 
 3576      6F636B00 
 3577              	.LASF140:
 3578 0786 6368506F 		.ascii	"chPoolLoadArray\000"
 3578      6F6C4C6F 
 3578      61644172 
 3578      72617900 
 3579              	.LASF104:
 3580 0796 6D5F6F77 		.ascii	"m_owner\000"
 3580      6E657200 
 3581              	.LASF107:
 3582 079e 63685F69 		.ascii	"ch_identifier\000"
 3582      64656E74 
 3582      69666965 
 3582      7200
 3583              	.LASF70:
 3584 07ac 76745F66 		.ascii	"vt_func\000"
 3584      756E6300 
 3585              		.ident	"GCC: (GNU Tools for Arm Embedded Processors 7-2018-q3-update) 7.3.1 20180622 (release) [AR
ARM GAS  /tmp/ccv7mDgM.s 			page 70


DEFINED SYMBOLS
                            *ABS*:0000000000000000 chmempools.c
     /tmp/ccv7mDgM.s:18     .text.chPoolObjectInit:0000000000000000 $t
     /tmp/ccv7mDgM.s:26     .text.chPoolObjectInit:0000000000000000 chPoolObjectInit
     /tmp/ccv7mDgM.s:47     .text.chPoolLoadArray:0000000000000000 $t
     /tmp/ccv7mDgM.s:55     .text.chPoolLoadArray:0000000000000000 chPoolLoadArray
     /tmp/ccv7mDgM.s:164    .text.chPoolAllocI:0000000000000000 $t
     /tmp/ccv7mDgM.s:172    .text.chPoolAllocI:0000000000000000 chPoolAllocI
     /tmp/ccv7mDgM.s:212    .text.chPoolAlloc:0000000000000000 $t
     /tmp/ccv7mDgM.s:220    .text.chPoolAlloc:0000000000000000 chPoolAlloc
     /tmp/ccv7mDgM.s:339    .text.chPoolFreeI:0000000000000000 $t
     /tmp/ccv7mDgM.s:347    .text.chPoolFreeI:0000000000000000 chPoolFreeI
     /tmp/ccv7mDgM.s:366    .text.chPoolFree:0000000000000000 $t
     /tmp/ccv7mDgM.s:374    .text.chPoolFree:0000000000000000 chPoolFree

NO UNDEFINED SYMBOLS
