ARM GAS  /tmp/ccJAn6GF.s 			page 1


   1              		.cpu cortex-m4
   2              		.eabi_attribute 27, 1
   3              		.eabi_attribute 28, 1
   4              		.eabi_attribute 20, 1
   5              		.eabi_attribute 21, 1
   6              		.eabi_attribute 23, 3
   7              		.eabi_attribute 24, 1
   8              		.eabi_attribute 25, 1
   9              		.eabi_attribute 26, 1
  10              		.eabi_attribute 30, 2
  11              		.eabi_attribute 34, 1
  12              		.eabi_attribute 18, 4
  13              		.file	"chmemcore.c"
  14              		.text
  15              	.Ltext0:
  16              		.cfi_sections	.debug_frame
  17              		.section	.text._core_init,"ax",%progbits
  18              		.align	1
  19              		.p2align 4,,15
  20              		.global	_core_init
  21              		.syntax unified
  22              		.thumb
  23              		.thumb_func
  24              		.fpu fpv4-sp-d16
  25              		.type	_core_init, %function
  26              	_core_init:
  27              	.LFB219:
  28              		.file 1 "ChibiOS_3.0.2/os/rt/src/chmemcore.c"
  29              		.loc 1 78 0
  30              		.cfi_startproc
  31              		@ args = 0, pretend = 0, frame = 0
  32              		@ frame_needed = 0, uses_anonymous_args = 0
  33              		@ link register save eliminated.
  34              		.loc 1 84 0
  35 0000 054A     		ldr	r2, .L3
  36              		.loc 1 85 0
  37 0002 064B     		ldr	r3, .L3+4
  38              		.loc 1 84 0
  39 0004 0648     		ldr	r0, .L3+8
  40              		.loc 1 85 0
  41 0006 0749     		ldr	r1, .L3+12
  42              		.loc 1 84 0
  43 0008 22F00702 		bic	r2, r2, #7
  44              		.loc 1 85 0
  45 000c 23F00703 		bic	r3, r3, #7
  46              		.loc 1 84 0
  47 0010 0260     		str	r2, [r0]
  48              		.loc 1 85 0
  49 0012 0B60     		str	r3, [r1]
  50              		.loc 1 95 0
  51 0014 7047     		bx	lr
  52              	.L4:
  53 0016 00BF     		.align	2
  54              	.L3:
  55 0018 07000000 		.word	__heap_base__+7
  56 001c 00000000 		.word	__heap_end__
  57 0020 00000000 		.word	.LANCHOR0
ARM GAS  /tmp/ccJAn6GF.s 			page 2


  58 0024 00000000 		.word	.LANCHOR1
  59              		.cfi_endproc
  60              	.LFE219:
  61              		.size	_core_init, .-_core_init
  62              		.section	.text.chCoreAlloc,"ax",%progbits
  63              		.align	1
  64              		.p2align 4,,15
  65              		.global	chCoreAlloc
  66              		.syntax unified
  67              		.thumb
  68              		.thumb_func
  69              		.fpu fpv4-sp-d16
  70              		.type	chCoreAlloc, %function
  71              	chCoreAlloc:
  72              	.LFB220:
  73              		.loc 1 109 0
  74              		.cfi_startproc
  75              		@ args = 0, pretend = 0, frame = 0
  76              		@ frame_needed = 0, uses_anonymous_args = 0
  77              		@ link register save eliminated.
  78              	.LVL0:
  79              		.loc 1 109 0
  80 0000 0346     		mov	r3, r0
  81              	.LBB26:
  82              	.LBB27:
  83              	.LBB28:
  84              	.LBB29:
  85              		.file 2 "ChibiOS_3.0.2/os/ext/CMSIS/include/core_cmFunc.h"
  86              		.loc 2 546 0
  87 0002 2022     		movs	r2, #32
  88              		.syntax unified
  89              	@ 546 "ChibiOS_3.0.2/os/ext/CMSIS/include/core_cmFunc.h" 1
  90 0004 82F31188 		MSR basepri, r2
  91              	@ 0 "" 2
  92              	.LVL1:
  93              		.thumb
  94              		.syntax unified
  95              	.LBE29:
  96              	.LBE28:
  97              	.LBE27:
  98              	.LBE26:
  99              	.LBB30:
 100              	.LBB31:
 101              		.loc 1 138 0
 102 0008 0849     		ldr	r1, .L8
 103 000a 094A     		ldr	r2, .L8+4
 104 000c 0868     		ldr	r0, [r1]
 105              	.LVL2:
 106 000e 1268     		ldr	r2, [r2]
 107              		.loc 1 136 0
 108 0010 0733     		adds	r3, r3, #7
 109              	.LVL3:
 110 0012 23F00703 		bic	r3, r3, #7
 111              	.LVL4:
 112              		.loc 1 138 0
 113 0016 121A     		subs	r2, r2, r0
 114 0018 9342     		cmp	r3, r2
ARM GAS  /tmp/ccJAn6GF.s 			page 3


 115              	.LVL5:
 116              		.loc 1 143 0
 117 001a 9ABF     		itte	ls
 118 001c 1B18     		addls	r3, r3, r0
 119              	.LVL6:
 120 001e 0B60     		strls	r3, [r1]
 121              		.loc 1 140 0
 122 0020 0020     		movhi	r0, #0
 123              	.LVL7:
 124              	.LBE31:
 125              	.LBE30:
 126              	.LBB32:
 127              	.LBB33:
 128              	.LBB34:
 129              	.LBB35:
 130              	.LBB36:
 131              		.loc 2 546 0
 132 0022 0023     		movs	r3, #0
 133              		.syntax unified
 134              	@ 546 "ChibiOS_3.0.2/os/ext/CMSIS/include/core_cmFunc.h" 1
 135 0024 83F31188 		MSR basepri, r3
 136              	@ 0 "" 2
 137              	.LVL8:
 138              		.thumb
 139              		.syntax unified
 140              	.LBE36:
 141              	.LBE35:
 142              	.LBE34:
 143              	.LBE33:
 144              	.LBE32:
 145              		.loc 1 117 0
 146 0028 7047     		bx	lr
 147              	.L9:
 148 002a 00BF     		.align	2
 149              	.L8:
 150 002c 00000000 		.word	.LANCHOR0
 151 0030 00000000 		.word	.LANCHOR1
 152              		.cfi_endproc
 153              	.LFE220:
 154              		.size	chCoreAlloc, .-chCoreAlloc
 155              		.section	.text.chCoreAllocI,"ax",%progbits
 156              		.align	1
 157              		.p2align 4,,15
 158              		.global	chCoreAllocI
 159              		.syntax unified
 160              		.thumb
 161              		.thumb_func
 162              		.fpu fpv4-sp-d16
 163              		.type	chCoreAllocI, %function
 164              	chCoreAllocI:
 165              	.LFB221:
 166              		.loc 1 131 0
 167              		.cfi_startproc
 168              		@ args = 0, pretend = 0, frame = 0
 169              		@ frame_needed = 0, uses_anonymous_args = 0
 170              		@ link register save eliminated.
 171              	.LVL9:
ARM GAS  /tmp/ccJAn6GF.s 			page 4


 172              		.loc 1 138 0
 173 0000 0749     		ldr	r1, .L13
 174 0002 084A     		ldr	r2, .L13+4
 175 0004 0B68     		ldr	r3, [r1]
 176 0006 1268     		ldr	r2, [r2]
 177              		.loc 1 136 0
 178 0008 0730     		adds	r0, r0, #7
 179              	.LVL10:
 180 000a 20F00700 		bic	r0, r0, #7
 181              	.LVL11:
 182              		.loc 1 138 0
 183 000e D21A     		subs	r2, r2, r3
 184 0010 8242     		cmp	r2, r0
 185              	.LVL12:
 186              		.loc 1 143 0
 187 0012 2ABF     		itet	cs
 188 0014 C018     		addcs	r0, r0, r3
 189              	.LVL13:
 190              		.loc 1 140 0
 191 0016 0023     		movcc	r3, #0
 192              	.LVL14:
 193              		.loc 1 143 0
 194 0018 0860     		strcs	r0, [r1]
 195              	.LVL15:
 196              		.loc 1 146 0
 197 001a 1846     		mov	r0, r3
 198 001c 7047     		bx	lr
 199              	.L14:
 200 001e 00BF     		.align	2
 201              	.L13:
 202 0020 00000000 		.word	.LANCHOR0
 203 0024 00000000 		.word	.LANCHOR1
 204              		.cfi_endproc
 205              	.LFE221:
 206              		.size	chCoreAllocI, .-chCoreAllocI
 207              		.section	.text.chCoreGetStatusX,"ax",%progbits
 208              		.align	1
 209              		.p2align 4,,15
 210              		.global	chCoreGetStatusX
 211              		.syntax unified
 212              		.thumb
 213              		.thumb_func
 214              		.fpu fpv4-sp-d16
 215              		.type	chCoreGetStatusX, %function
 216              	chCoreGetStatusX:
 217              	.LFB222:
 218              		.loc 1 155 0
 219              		.cfi_startproc
 220              		@ args = 0, pretend = 0, frame = 0
 221              		@ frame_needed = 0, uses_anonymous_args = 0
 222              		@ link register save eliminated.
 223              		.loc 1 158 0
 224 0000 024A     		ldr	r2, .L16
 225 0002 034B     		ldr	r3, .L16+4
 226 0004 1068     		ldr	r0, [r2]
 227 0006 1B68     		ldr	r3, [r3]
 228              		.loc 1 160 0
ARM GAS  /tmp/ccJAn6GF.s 			page 5


 229 0008 C01A     		subs	r0, r0, r3
 230 000a 7047     		bx	lr
 231              	.L17:
 232              		.align	2
 233              	.L16:
 234 000c 00000000 		.word	.LANCHOR1
 235 0010 00000000 		.word	.LANCHOR0
 236              		.cfi_endproc
 237              	.LFE222:
 238              		.size	chCoreGetStatusX, .-chCoreGetStatusX
 239              		.section	.bss.endmem,"aw",%nobits
 240              		.align	2
 241              		.set	.LANCHOR1,. + 0
 242              		.type	endmem, %object
 243              		.size	endmem, 4
 244              	endmem:
 245 0000 00000000 		.space	4
 246              		.section	.bss.nextmem,"aw",%nobits
 247              		.align	2
 248              		.set	.LANCHOR0,. + 0
 249              		.type	nextmem, %object
 250              		.size	nextmem, 4
 251              	nextmem:
 252 0000 00000000 		.space	4
 253              		.text
 254              	.Letext0:
 255              		.file 3 "/usr/lib/gcc/arm-none-eabi/7.3.1/include/stddef.h"
 256              		.file 4 "/usr/arm-none-eabi/include/machine/_default_types.h"
 257              		.file 5 "/usr/arm-none-eabi/include/sys/_stdint.h"
 258              		.file 6 "ChibiOS_3.0.2/os/rt/ports/ARMCMx/compilers/GCC/chtypes.h"
 259              		.file 7 "ChibiOS_3.0.2/os/rt/include/chsystypes.h"
 260              		.file 8 "ChibiOS_3.0.2/os/rt/include/chschd.h"
 261              		.file 9 "ChibiOS_3.0.2/os/ext/CMSIS/include/core_cm4.h"
 262              		.file 10 "ChibiOS_3.0.2/os/ext/CMSIS/ST/system_stm32f4xx.h"
 263              		.file 11 "ChibiOS_3.0.2/os/rt/ports/ARMCMx/chcore.h"
 264              		.file 12 "ChibiOS_3.0.2/os/rt/ports/ARMCMx/chcore_v7m.h"
 265              		.file 13 "ChibiOS_3.0.2/os/rt/include/chtm.h"
 266              		.file 14 "ChibiOS_3.0.2/os/rt/include/chsem.h"
 267              		.file 15 "ChibiOS_3.0.2/os/rt/include/chmtx.h"
 268              		.file 16 "ChibiOS_3.0.2/os/rt/include/chregistry.h"
 269              		.file 17 "ChibiOS_3.0.2/os/rt/include/chsys.h"