ARM GAS  /tmp/ccRVpnG6.s 			page 1


   1              		.cpu cortex-m4
   2              		.eabi_attribute 27, 1
   3              		.eabi_attribute 28, 1
   4              		.eabi_attribute 20, 1
   5              		.eabi_attribute 21, 1
   6              		.eabi_attribute 23, 3
   7              		.eabi_attribute 24, 1
   8              		.eabi_attribute 25, 1
   9              		.eabi_attribute 26, 1
  10              		.eabi_attribute 30, 2
  11              		.eabi_attribute 34, 1
  12              		.eabi_attribute 18, 4
  13              		.file	"chsem.c"
  14              		.text
  15              	.Ltext0:
  16              		.cfi_sections	.debug_frame
  17              		.section	.text.chSemObjectInit,"ax",%progbits
  18              		.align	1
  19              		.p2align 4,,15
  20              		.global	chSemObjectInit
  21              		.syntax unified
  22              		.thumb
  23              		.thumb_func
  24              		.fpu fpv4-sp-d16
  25              		.type	chSemObjectInit, %function
  26              	chSemObjectInit:
  27              	.LFB219:
  28              		.file 1 "ChibiOS_3.0.2/os/rt/src/chsem.c"
  29              		.loc 1 97 0
  30              		.cfi_startproc
  31              		@ args = 0, pretend = 0, frame = 0
  32              		@ frame_needed = 0, uses_anonymous_args = 0
  33              		@ link register save eliminated.
  34              	.LVL0:
  35              	.LBB92:
  36              	.LBB93:
  37              		.file 2 "ChibiOS_3.0.2/os/rt/include/chschd.h"
  38              		.loc 2 605 0
  39 0000 C0E90000 		strd	r0, r0, [r0]
  40              	.LVL1:
  41              	.LBE93:
  42              	.LBE92:
  43              		.loc 1 102 0
  44 0004 8160     		str	r1, [r0, #8]
  45              		.loc 1 103 0
  46 0006 7047     		bx	lr
  47              		.cfi_endproc
  48              	.LFE219:
  49              		.size	chSemObjectInit, .-chSemObjectInit
  50              		.section	.text.chSemResetI,"ax",%progbits
  51              		.align	1
  52              		.p2align 4,,15
  53              		.global	chSemResetI
  54              		.syntax unified
  55              		.thumb
  56              		.thumb_func
  57              		.fpu fpv4-sp-d16
ARM GAS  /tmp/ccRVpnG6.s 			page 2


  58              		.type	chSemResetI, %function
  59              	chSemResetI:
  60              	.LFB221:
  61              		.loc 1 147 0
  62              		.cfi_startproc
  63              		@ args = 0, pretend = 0, frame = 0
  64              		@ frame_needed = 0, uses_anonymous_args = 0
  65              	.LVL2:
  66 0000 70B5     		push	{r4, r5, r6, lr}
  67              		.cfi_def_cfa_offset 16
  68              		.cfi_offset 4, -16
  69              		.cfi_offset 5, -12
  70              		.cfi_offset 6, -8
  71              		.cfi_offset 14, -4
  72              		.loc 1 156 0
  73 0002 8568     		ldr	r5, [r0, #8]
  74              	.LVL3:
  75              		.loc 1 157 0
  76 0004 8160     		str	r1, [r0, #8]
  77              		.loc 1 158 0
  78 0006 0135     		adds	r5, r5, #1
  79              	.LVL4:
  80 0008 002D     		cmp	r5, #0
  81 000a 0CDC     		bgt	.L3
  82 000c 0446     		mov	r4, r0
  83              		.loc 1 159 0
  84 000e 6FF00106 		mvn	r6, #1
  85              	.LVL5:
  86              	.L5:
  87              	.LBB94:
  88              	.LBB95:
  89              		.loc 2 681 0
  90 0012 6068     		ldr	r0, [r4, #4]
  91              	.LVL6:
  92              		.loc 2 683 0
  93 0014 4368     		ldr	r3, [r0, #4]
  94 0016 6360     		str	r3, [r4, #4]
  95              		.loc 2 684 0
  96 0018 1C60     		str	r4, [r3]
  97              	.LVL7:
  98              	.LBE95:
  99              	.LBE94:
 100              		.loc 1 159 0
 101 001a FFF7FEFF 		bl	chSchReadyI
 102              	.LVL8:
 103              		.loc 1 158 0
 104 001e 0135     		adds	r5, r5, #1
 105              	.LVL9:
 106 0020 012D     		cmp	r5, #1
 107              		.loc 1 159 0
 108 0022 4662     		str	r6, [r0, #36]
 109              	.LVL10:
 110              		.loc 1 158 0
 111 0024 F5D1     		bne	.L5
 112              	.LVL11:
 113              	.L3:
 114              		.loc 1 161 0
ARM GAS  /tmp/ccRVpnG6.s 			page 3


 115 0026 70BD     		pop	{r4, r5, r6, pc}
 116              		.cfi_endproc
 117              	.LFE221:
 118              		.size	chSemResetI, .-chSemResetI
 119              		.section	.text.chSemReset,"ax",%progbits
 120              		.align	1
 121              		.p2align 4,,15
 122              		.global	chSemReset
 123              		.syntax unified
 124              		.thumb
 125              		.thumb_func
 126              		.fpu fpv4-sp-d16
 127              		.type	chSemReset, %function
 128              	chSemReset:
 129              	.LFB220:
 130              		.loc 1 120 0
 131              		.cfi_startproc
 132              		@ args = 0, pretend = 0, frame = 0
 133              		@ frame_needed = 0, uses_anonymous_args = 0
 134              	.LVL12:
 135 0000 08B5     		push	{r3, lr}
 136              		.cfi_def_cfa_offset 8
 137              		.cfi_offset 3, -8
 138              		.cfi_offset 14, -4
 139              	.LBB96:
 140              	.LBB97:
 141              	.LBB98:
 142              	.LBB99:
 143              		.file 3 "ChibiOS_3.0.2/os/ext/CMSIS/include/core_cmFunc.h"
 144              		.loc 3 546 0
 145 0002 2023     		movs	r3, #32
 146              		.syntax unified
 147              	@ 546 "ChibiOS_3.0.2/os/ext/CMSIS/include/core_cmFunc.h" 1
 148 0004 83F31188 		MSR basepri, r3
 149              	@ 0 "" 2
 150              	.LVL13:
 151              		.thumb
 152              		.syntax unified
 153              	.LBE99:
 154              	.LBE98:
 155              	.LBE97:
 156              	.LBE96:
 157              		.loc 1 123 0
 158 0008 FFF7FEFF 		bl	chSemResetI
 159              	.LVL14:
 160              		.loc 1 124 0
 161 000c FFF7FEFF 		bl	chSchRescheduleS
 162              	.LVL15:
 163              	.LBB100:
 164              	.LBB101:
 165              	.LBB102:
 166              	.LBB103:
 167              	.LBB104:
 168              		.loc 3 546 0
 169 0010 0023     		movs	r3, #0
 170              		.syntax unified
 171              	@ 546 "ChibiOS_3.0.2/os/ext/CMSIS/include/core_cmFunc.h" 1
ARM GAS  /tmp/ccRVpnG6.s 			page 4


 172 0012 83F31188 		MSR basepri, r3
 173              	@ 0 "" 2
 174              	.LVL16:
 175              		.thumb
 176              		.syntax unified
 177              	.LBE104:
 178              	.LBE103:
 179              	.LBE102:
 180              	.LBE101:
 181              	.LBE100:
 182              		.loc 1 126 0
 183 0016 08BD     		pop	{r3, pc}
 184              		.cfi_endproc
 185              	.LFE220:
 186              		.size	chSemReset, .-chSemReset
 187              		.section	.text.chSemWait,"ax",%progbits
 188              		.align	1
 189              		.p2align 4,,15
 190              		.global	chSemWait
 191              		.syntax unified
 192              		.thumb
 193              		.thumb_func
 194              		.fpu fpv4-sp-d16
 195              		.type	chSemWait, %function
 196              	chSemWait:
 197              	.LFB222:
 198              		.loc 1 175 0
 199              		.cfi_startproc
 200              		@ args = 0, pretend = 0, frame = 0
 201              		@ frame_needed = 0, uses_anonymous_args = 0
 202              	.LVL17:
 203              	.LBB120:
 204              	.LBB121:
 205              	.LBB122:
 206              	.LBB123:
 207              		.loc 3 546 0
 208 0000 2023     		movs	r3, #32
 209              		.syntax unified
 210              	@ 546 "ChibiOS_3.0.2/os/ext/CMSIS/include/core_cmFunc.h" 1
 211 0002 83F31188 		MSR basepri, r3
 212              	@ 0 "" 2
 213              	.LVL18:
 214              		.thumb
 215              		.syntax unified
 216              	.LBE123:
 217              	.LBE122:
 218              	.LBE121:
 219              	.LBE120:
 220              	.LBB124:
 221              	.LBB125:
 222              		.loc 1 205 0
 223 0006 8368     		ldr	r3, [r0, #8]
 224 0008 013B     		subs	r3, r3, #1
 225 000a 002B     		cmp	r3, #0
 226 000c 8360     		str	r3, [r0, #8]
 227 000e 04DB     		blt	.L17
 228              		.loc 1 213 0
ARM GAS  /tmp/ccRVpnG6.s 			page 5


 229 0010 0020     		movs	r0, #0
 230              	.LVL19:
 231              	.LBE125:
 232              	.LBE124:
 233              	.LBB135:
 234              	.LBB136:
 235              	.LBB137:
 236              	.LBB138:
 237              	.LBB139:
 238              		.loc 3 546 0
 239 0012 0023     		movs	r3, #0
 240              		.syntax unified
 241              	@ 546 "ChibiOS_3.0.2/os/ext/CMSIS/include/core_cmFunc.h" 1
 242 0014 83F31188 		MSR basepri, r3
 243              	@ 0 "" 2
 244              	.LVL20:
 245              		.thumb
 246              		.syntax unified
 247              	.LBE139:
 248              	.LBE138:
 249              	.LBE137:
 250              	.LBE136:
 251              	.LBE135:
 252              		.loc 1 183 0
 253 0018 7047     		bx	lr
 254              	.LVL21:
 255              	.L17:
 256              		.loc 1 175 0
 257 001a 10B5     		push	{r4, lr}
 258              		.cfi_def_cfa_offset 8
 259              		.cfi_offset 4, -8
 260              		.cfi_offset 14, -4
 261              	.LBB144:
 262              	.LBB134:
 263              	.LBB126:
 264              	.LBB127:
 265              		.loc 1 206 0
 266 001c 084C     		ldr	r4, .L18
 267              	.LBB128:
 268              	.LBB129:
 269              		.loc 2 666 0
 270 001e 4168     		ldr	r1, [r0, #4]
 271              	.LBE129:
 272              	.LBE128:
 273              		.loc 1 206 0
 274 0020 A269     		ldr	r2, [r4, #24]
 275 0022 0346     		mov	r3, r0
 276              	.LVL22:
 277 0024 5362     		str	r3, [r2, #36]
 278              	.LVL23:
 279              	.LBB132:
 280              	.LBB130:
 281              		.loc 2 666 0
 282 0026 C2E90031 		strd	r3, r1, [r2]
 283              	.LBE130:
 284              	.LBE132:
 285              		.loc 1 208 0
ARM GAS  /tmp/ccRVpnG6.s 			page 6


 286 002a 0520     		movs	r0, #5
 287              	.LVL24:
 288              	.LBB133:
 289              	.LBB131:
 290              		.loc 2 667 0
 291 002c 0A60     		str	r2, [r1]
 292              		.loc 2 668 0
 293 002e 5A60     		str	r2, [r3, #4]
 294              	.LVL25:
 295              	.LBE131:
 296              	.LBE133:
 297              		.loc 1 208 0
 298 0030 FFF7FEFF 		bl	chSchGoSleepS
 299              	.LVL26:
 300              		.loc 1 210 0
 301 0034 A369     		ldr	r3, [r4, #24]
 302 0036 586A     		ldr	r0, [r3, #36]
 303              	.LVL27:
 304              	.LBE127:
 305              	.LBE126:
 306              	.LBE134:
 307              	.LBE144:
 308              	.LBB145:
 309              	.LBB143:
 310              	.LBB142:
 311              	.LBB141:
 312              	.LBB140:
 313              		.loc 3 546 0
 314 0038 0023     		movs	r3, #0
 315              		.syntax unified
 316              	@ 546 "ChibiOS_3.0.2/os/ext/CMSIS/include/core_cmFunc.h" 1
 317 003a 83F31188 		MSR basepri, r3
 318              	@ 0 "" 2
 319              	.LVL28:
 320              		.thumb
 321              		.syntax unified
 322              	.LBE140:
 323              	.LBE141:
 324              	.LBE142:
 325              	.LBE143:
 326              	.LBE145:
 327              		.loc 1 183 0
 328 003e 10BD     		pop	{r4, pc}
 329              	.L19:
 330              		.align	2
 331              	.L18:
 332 0040 00000000 		.word	ch
 333              		.cfi_endproc
 334              	.LFE222:
 335              		.size	chSemWait, .-chSemWait
 336              		.section	.text.chSemWaitS,"ax",%progbits
 337              		.align	1
 338              		.p2align 4,,15
 339              		.global	chSemWaitS
 340              		.syntax unified
 341              		.thumb
 342              		.thumb_func
ARM GAS  /tmp/ccRVpnG6.s 			page 7


 343              		.fpu fpv4-sp-d16
 344              		.type	chSemWaitS, %function
 345              	chSemWaitS:
 346              	.LFB223:
 347              		.loc 1 197 0
 348              		.cfi_startproc
 349              		@ args = 0, pretend = 0, frame = 0
 350              		@ frame_needed = 0, uses_anonymous_args = 0
 351              	.LVL29:
 352              		.loc 1 205 0
 353 0000 8368     		ldr	r3, [r0, #8]
 354 0002 013B     		subs	r3, r3, #1
 355 0004 002B     		cmp	r3, #0
 356 0006 8360     		str	r3, [r0, #8]
 357 0008 01DB     		blt	.L27
 358              		.loc 1 213 0
 359 000a 0020     		movs	r0, #0
 360              	.LVL30:
 361              		.loc 1 214 0
 362 000c 7047     		bx	lr
 363              	.LVL31:
 364              	.L27:
 365              		.loc 1 197 0
 366 000e 10B5     		push	{r4, lr}
 367              		.cfi_def_cfa_offset 8
 368              		.cfi_offset 4, -8
 369              		.cfi_offset 14, -4
 370              	.LBB150:
 371              	.LBB151:
 372              		.loc 1 206 0
 373 0010 074C     		ldr	r4, .L28
 374              	.LBB152:
 375              	.LBB153:
 376              		.loc 2 666 0
 377 0012 4168     		ldr	r1, [r0, #4]
 378              	.LBE153:
 379              	.LBE152:
 380              		.loc 1 206 0
 381 0014 A269     		ldr	r2, [r4, #24]
 382 0016 0346     		mov	r3, r0
 383              	.LVL32:
 384 0018 5362     		str	r3, [r2, #36]
 385              	.LVL33:
 386              	.LBB156:
 387              	.LBB154:
 388              		.loc 2 666 0
 389 001a C2E90031 		strd	r3, r1, [r2]
 390              	.LBE154:
 391              	.LBE156:
 392              		.loc 1 208 0
 393 001e 0520     		movs	r0, #5
 394              	.LVL34:
 395              	.LBB157:
 396              	.LBB155:
 397              		.loc 2 667 0
 398 0020 0A60     		str	r2, [r1]
 399              		.loc 2 668 0
ARM GAS  /tmp/ccRVpnG6.s 			page 8


 400 0022 5A60     		str	r2, [r3, #4]
 401              	.LVL35:
 402              	.LBE155:
 403              	.LBE157:
 404              		.loc 1 208 0
 405 0024 FFF7FEFF 		bl	chSchGoSleepS
 406              	.LVL36:
 407              		.loc 1 210 0
 408 0028 A369     		ldr	r3, [r4, #24]
 409 002a 586A     		ldr	r0, [r3, #36]
 410              	.LVL37:
 411              	.LBE151:
 412              	.LBE150:
 413              		.loc 1 214 0
 414 002c 10BD     		pop	{r4, pc}
 415              	.L29:
 416 002e 00BF     		.align	2
 417              	.L28:
 418 0030 00000000 		.word	ch
 419              		.cfi_endproc
 420              	.LFE223:
 421              		.size	chSemWaitS, .-chSemWaitS
 422              		.section	.text.chSemWaitTimeout,"ax",%progbits
 423              		.align	1
 424              		.p2align 4,,15
 425              		.global	chSemWaitTimeout
 426              		.syntax unified
 427              		.thumb
 428              		.thumb_func
 429              		.fpu fpv4-sp-d16
 430              		.type	chSemWaitTimeout, %function
 431              	chSemWaitTimeout:
 432              	.LFB224:
 433              		.loc 1 235 0
 434              		.cfi_startproc
 435              		@ args = 0, pretend = 0, frame = 0
 436              		@ frame_needed = 0, uses_anonymous_args = 0
 437              	.LVL38:
 438              	.LBB173:
 439              	.LBB174:
 440              	.LBB175:
 441              	.LBB176:
 442              		.loc 3 546 0
 443 0000 2023     		movs	r3, #32
 444              		.syntax unified
 445              	@ 546 "ChibiOS_3.0.2/os/ext/CMSIS/include/core_cmFunc.h" 1
 446 0002 83F31188 		MSR basepri, r3
 447              	@ 0 "" 2
 448              	.LVL39:
 449              		.thumb
 450              		.syntax unified
 451              	.LBE176:
 452              	.LBE175:
 453              	.LBE174:
 454              	.LBE173:
 455              	.LBB177:
 456              	.LBB178:
ARM GAS  /tmp/ccRVpnG6.s 			page 9


 457              		.loc 1 272 0
 458 0006 8268     		ldr	r2, [r0, #8]
 459 0008 531E     		subs	r3, r2, #1
 460 000a 002B     		cmp	r3, #0
 461 000c 8360     		str	r3, [r0, #8]
 462 000e 04DB     		blt	.L38
 463              		.loc 1 284 0
 464 0010 0020     		movs	r0, #0
 465              	.LVL40:
 466              	.LBE178:
 467              	.LBE177:
 468              	.LBB189:
 469              	.LBB190:
 470              	.LBB191:
 471              	.LBB192:
 472              	.LBB193:
 473              		.loc 3 546 0
 474 0012 0023     		movs	r3, #0
 475              		.syntax unified
 476              	@ 546 "ChibiOS_3.0.2/os/ext/CMSIS/include/core_cmFunc.h" 1
 477 0014 83F31188 		MSR basepri, r3
 478              	@ 0 "" 2
 479              	.LVL41:
 480              		.thumb
 481              		.syntax unified
 482              	.LBE193:
 483              	.LBE192:
 484              	.LBE191:
 485              	.LBE190:
 486              	.LBE189:
 487              		.loc 1 243 0
 488 0018 7047     		bx	lr
 489              	.LVL42:
 490              	.L38:
 491              		.loc 1 235 0
 492 001a 10B5     		push	{r4, lr}
 493              		.cfi_def_cfa_offset 8
 494              		.cfi_offset 4, -8
 495              		.cfi_offset 14, -4
 496              	.LBB198:
 497              	.LBB187:
 498              		.loc 1 273 0
 499 001c 79B1     		cbz	r1, .L39
 500              	.LBB179:
 501              	.LBB180:
 502              		.loc 1 278 0
 503 001e 0A4A     		ldr	r2, .L40
 504              	.LBB181:
 505              	.LBB182:
 506              		.loc 2 666 0
 507 0020 4468     		ldr	r4, [r0, #4]
 508              	.LBE182:
 509              	.LBE181:
 510              		.loc 1 278 0
 511 0022 9269     		ldr	r2, [r2, #24]
 512 0024 0346     		mov	r3, r0
 513              	.LVL43:
ARM GAS  /tmp/ccRVpnG6.s 			page 10


 514 0026 5362     		str	r3, [r2, #36]
 515              	.LVL44:
 516              	.LBB185:
 517              	.LBB183:
 518              		.loc 2 666 0
 519 0028 C2E90034 		strd	r3, r4, [r2]
 520              	.LBE183:
 521              	.LBE185:
 522              		.loc 1 281 0
 523 002c 0520     		movs	r0, #5
 524              	.LVL45:
 525              	.LBB186:
 526              	.LBB184:
 527              		.loc 2 667 0
 528 002e 2260     		str	r2, [r4]
 529              		.loc 2 668 0
 530 0030 5A60     		str	r2, [r3, #4]
 531              	.LVL46:
 532              	.LBE184:
 533              	.LBE186:
 534              		.loc 1 281 0
 535 0032 FFF7FEFF 		bl	chSchGoSleepTimeoutS
 536              	.LVL47:
 537              	.L31:
 538              	.LBE180:
 539              	.LBE179:
 540              	.LBE187:
 541              	.LBE198:
 542              	.LBB199:
 543              	.LBB197:
 544              	.LBB196:
 545              	.LBB195:
 546              	.LBB194:
 547              		.loc 3 546 0
 548 0036 0023     		movs	r3, #0
 549              		.syntax unified
 550              	@ 546 "ChibiOS_3.0.2/os/ext/CMSIS/include/core_cmFunc.h" 1
 551 0038 83F31188 		MSR basepri, r3
 552              	@ 0 "" 2
 553              	.LVL48:
 554              		.thumb
 555              		.syntax unified
 556              	.LBE194:
 557              	.LBE195:
 558              	.LBE196:
 559              	.LBE197:
 560              	.LBE199:
 561              		.loc 1 243 0
 562 003c 10BD     		pop	{r4, pc}
 563              	.LVL49:
 564              	.L39:
 565              	.LBB200:
 566              	.LBB188:
 567              		.loc 1 274 0
 568 003e 8260     		str	r2, [r0, #8]
 569              		.loc 1 276 0
 570 0040 4FF0FF30 		mov	r0, #-1
ARM GAS  /tmp/ccRVpnG6.s 			page 11


 571              	.LVL50:
 572 0044 F7E7     		b	.L31
 573              	.L41:
 574 0046 00BF     		.align	2
 575              	.L40:
 576 0048 00000000 		.word	ch
 577              	.LBE188:
 578              	.LBE200:
 579              		.cfi_endproc
 580              	.LFE224:
 581              		.size	chSemWaitTimeout, .-chSemWaitTimeout
 582              		.section	.text.chSemWaitTimeoutS,"ax",%progbits
 583              		.align	1
 584              		.p2align 4,,15
 585              		.global	chSemWaitTimeoutS
 586              		.syntax unified
 587              		.thumb
 588              		.thumb_func
 589              		.fpu fpv4-sp-d16
 590              		.type	chSemWaitTimeoutS, %function
 591              	chSemWaitTimeoutS:
 592              	.LFB225:
 593              		.loc 1 264 0
 594              		.cfi_startproc
 595              		@ args = 0, pretend = 0, frame = 0
 596              		@ frame_needed = 0, uses_anonymous_args = 0
 597              		@ link register save eliminated.
 598              	.LVL51:
 599 0000 0346     		mov	r3, r0
 600              		.loc 1 272 0
 601 0002 8068     		ldr	r0, [r0, #8]
 602              	.LVL52:
 603 0004 421E     		subs	r2, r0, #1
 604 0006 002A     		cmp	r2, #0
 605 0008 9A60     		str	r2, [r3, #8]
 606 000a 01DB     		blt	.L50
 607              		.loc 1 284 0
 608 000c 0020     		movs	r0, #0
 609              		.loc 1 285 0
 610 000e 7047     		bx	lr
 611              	.L50:
 612              		.loc 1 264 0
 613 0010 10B4     		push	{r4}
 614              		.cfi_def_cfa_offset 4
 615              		.cfi_offset 4, -4
 616              		.loc 1 273 0
 617 0012 61B1     		cbz	r1, .L51
 618              	.LVL53:
 619              	.LBB205:
 620              	.LBB206:
 621              		.loc 1 278 0
 622 0014 094A     		ldr	r2, .L52
 623              	.LBB207:
 624              	.LBB208:
 625              		.loc 2 666 0
 626 0016 5C68     		ldr	r4, [r3, #4]
 627              	.LBE208:
ARM GAS  /tmp/ccRVpnG6.s 			page 12


 628              	.LBE207:
 629              		.loc 1 278 0
 630 0018 9269     		ldr	r2, [r2, #24]
 631              		.loc 1 281 0
 632 001a 0520     		movs	r0, #5
 633              	.LBB211:
 634              	.LBB209:
 635              		.loc 2 666 0
 636 001c C2E90034 		strd	r3, r4, [r2]
 637              	.LBE209:
 638              	.LBE211:
 639              		.loc 1 278 0
 640 0020 5362     		str	r3, [r2, #36]
 641              	.LVL54:
 642              	.LBB212:
 643              	.LBB210:
 644              		.loc 2 667 0
 645 0022 2260     		str	r2, [r4]
 646              		.loc 2 668 0
 647 0024 5A60     		str	r2, [r3, #4]
 648              	.LVL55:
 649              	.LBE210:
 650              	.LBE212:
 651              	.LBE206:
 652              	.LBE205:
 653              		.loc 1 285 0
 654 0026 5DF8044B 		ldr	r4, [sp], #4
 655              		.cfi_remember_state
 656              		.cfi_restore 4
 657              		.cfi_def_cfa_offset 0
 658              	.LBB214:
 659              	.LBB213:
 660              		.loc 1 281 0
 661 002a FFF7FEBF 		b	chSchGoSleepTimeoutS
 662              	.LVL56:
 663              	.L51:
 664              		.cfi_restore_state
 665              	.LBE213:
 666              	.LBE214:
 667              		.loc 1 274 0
 668 002e 9860     		str	r0, [r3, #8]
 669              		.loc 1 285 0
 670 0030 5DF8044B 		ldr	r4, [sp], #4
 671              		.cfi_restore 4
 672              		.cfi_def_cfa_offset 0
 673              		.loc 1 276 0
 674 0034 4FF0FF30 		mov	r0, #-1
 675              		.loc 1 285 0
 676 0038 7047     		bx	lr
 677              	.L53:
 678 003a 00BF     		.align	2
 679              	.L52:
 680 003c 00000000 		.word	ch
 681              		.cfi_endproc
 682              	.LFE225:
 683              		.size	chSemWaitTimeoutS, .-chSemWaitTimeoutS
 684              		.section	.text.chSemSignal,"ax",%progbits
ARM GAS  /tmp/ccRVpnG6.s 			page 13


 685              		.align	1
 686              		.p2align 4,,15
 687              		.global	chSemSignal
 688              		.syntax unified
 689              		.thumb
 690              		.thumb_func
 691              		.fpu fpv4-sp-d16
 692              		.type	chSemSignal, %function
 693              	chSemSignal:
 694              	.LFB226:
 695              		.loc 1 294 0
 696              		.cfi_startproc
 697              		@ args = 0, pretend = 0, frame = 0
 698              		@ frame_needed = 0, uses_anonymous_args = 0
 699              	.LVL57:
 700 0000 08B5     		push	{r3, lr}
 701              		.cfi_def_cfa_offset 8
 702              		.cfi_offset 3, -8
 703              		.cfi_offset 14, -4
 704              	.LBB215:
 705              	.LBB216:
 706              	.LBB217:
 707              	.LBB218:
 708              		.loc 3 546 0
 709 0002 2023     		movs	r3, #32
 710              		.syntax unified
 711              	@ 546 "ChibiOS_3.0.2/os/ext/CMSIS/include/core_cmFunc.h" 1
 712 0004 83F31188 		MSR basepri, r3
 713              	@ 0 "" 2
 714              	.LVL58:
 715              		.thumb
 716              		.syntax unified
 717              	.LBE218:
 718              	.LBE217:
 719              	.LBE216:
 720              	.LBE215:
 721              		.loc 1 302 0
 722 0008 8368     		ldr	r3, [r0, #8]
 723 000a 0133     		adds	r3, r3, #1
 724 000c 002B     		cmp	r3, #0
 725 000e 8360     		str	r3, [r0, #8]
 726 0010 03DD     		ble	.L57
 727              	.LVL59:
 728              	.LBB219:
 729              	.LBB220:
 730              	.LBB221:
 731              	.LBB222:
 732              	.LBB223:
 733              		.loc 3 546 0
 734 0012 0023     		movs	r3, #0
 735              		.syntax unified
 736              	@ 546 "ChibiOS_3.0.2/os/ext/CMSIS/include/core_cmFunc.h" 1
 737 0014 83F31188 		MSR basepri, r3
 738              	@ 0 "" 2
 739              	.LVL60:
 740              		.thumb
 741              		.syntax unified
ARM GAS  /tmp/ccRVpnG6.s 			page 14


 742              	.LBE223:
 743              	.LBE222:
 744              	.LBE221:
 745              	.LBE220:
 746              	.LBE219:
 747              		.loc 1 306 0
 748 0018 08BD     		pop	{r3, pc}
 749              	.L57:
 750 001a 0346     		mov	r3, r0
 751              	.LVL61:
 752              	.LBB228:
 753              	.LBB229:
 754              		.loc 2 672 0
 755 001c 0068     		ldr	r0, [r0]
 756              	.LVL62:
 757              		.loc 2 674 0
 758 001e 0268     		ldr	r2, [r0]
 759 0020 1A60     		str	r2, [r3]
 760              	.LBE229:
 761              	.LBE228:
 762              		.loc 1 303 0
 763 0022 0021     		movs	r1, #0
 764              	.LBB231:
 765              	.LBB230:
 766              		.loc 2 675 0
 767 0024 5360     		str	r3, [r2, #4]
 768              	.LVL63:
 769              	.LBE230:
 770              	.LBE231:
 771              		.loc 1 303 0
 772 0026 FFF7FEFF 		bl	chSchWakeupS
 773              	.LVL64:
 774              	.LBB232:
 775              	.LBB227:
 776              	.LBB226:
 777              	.LBB225:
 778              	.LBB224:
 779              		.loc 3 546 0
 780 002a 0023     		movs	r3, #0
 781              		.syntax unified
 782              	@ 546 "ChibiOS_3.0.2/os/ext/CMSIS/include/core_cmFunc.h" 1
 783 002c 83F31188 		MSR basepri, r3
 784              	@ 0 "" 2
 785              	.LVL65:
 786              		.thumb
 787              		.syntax unified
 788              	.LBE224:
 789              	.LBE225:
 790              	.LBE226:
 791              	.LBE227:
 792              	.LBE232:
 793              		.loc 1 306 0
 794 0030 08BD     		pop	{r3, pc}
 795              		.cfi_endproc
 796              	.LFE226:
 797              		.size	chSemSignal, .-chSemSignal
 798 0032 00BF     		.section	.text.chSemSignalI,"ax",%progbits
ARM GAS  /tmp/ccRVpnG6.s 			page 15


 799              		.align	1
 800              		.p2align 4,,15
 801              		.global	chSemSignalI
 802              		.syntax unified
 803              		.thumb
 804              		.thumb_func
 805              		.fpu fpv4-sp-d16
 806              		.type	chSemSignalI, %function
 807              	chSemSignalI:
 808              	.LFB227:
 809              		.loc 1 319 0
 810              		.cfi_startproc
 811              		@ args = 0, pretend = 0, frame = 0
 812              		@ frame_needed = 0, uses_anonymous_args = 0
 813              		@ link register save eliminated.
 814              	.LVL66:
 815              		.loc 1 327 0
 816 0000 8368     		ldr	r3, [r0, #8]
 817 0002 0133     		adds	r3, r3, #1
 818 0004 002B     		cmp	r3, #0
 819 0006 8360     		str	r3, [r0, #8]
 820 0008 00DD     		ble	.L60
 821              		.loc 1 334 0
 822 000a 7047     		bx	lr
 823              	.L60:
 824              	.LVL67:
 825              	.LBB233:
 826              	.LBB234:
 827              	.LBB235:
 828              		.loc 2 672 0
 829 000c 0368     		ldr	r3, [r0]
 830              	.LVL68:
 831              		.loc 2 674 0
 832 000e 1A68     		ldr	r2, [r3]
 833 0010 0260     		str	r2, [r0]
 834              	.LBE235:
 835              	.LBE234:
 836              		.loc 1 331 0
 837 0012 0021     		movs	r1, #0
 838              	.LBB237:
 839              	.LBB236:
 840              		.loc 2 675 0
 841 0014 5060     		str	r0, [r2, #4]
 842              	.LVL69:
 843              	.LBE236:
 844              	.LBE237:
 845              		.loc 1 332 0
 846 0016 1846     		mov	r0, r3
 847              	.LVL70:
 848              		.loc 1 331 0
 849 0018 5962     		str	r1, [r3, #36]
 850              		.loc 1 332 0
 851 001a FFF7FEBF 		b	chSchReadyI
 852              	.LVL71:
 853              	.LBE233:
 854              		.cfi_endproc
 855              	.LFE227:
ARM GAS  /tmp/ccRVpnG6.s 			page 16


 856              		.size	chSemSignalI, .-chSemSignalI
 857 001e 00BF     		.section	.text.chSemAddCounterI,"ax",%progbits
 858              		.align	1
 859              		.p2align 4,,15
 860              		.global	chSemAddCounterI
 861              		.syntax unified
 862              		.thumb
 863              		.thumb_func
 864              		.fpu fpv4-sp-d16
 865              		.type	chSemAddCounterI, %function
 866              	chSemAddCounterI:
 867              	.LFB228:
 868              		.loc 1 349 0
 869              		.cfi_startproc
 870              		@ args = 0, pretend = 0, frame = 0
 871              		@ frame_needed = 0, uses_anonymous_args = 0
 872              	.LVL72:
 873 0000 70B5     		push	{r4, r5, r6, lr}
 874              		.cfi_def_cfa_offset 16
 875              		.cfi_offset 4, -16
 876              		.cfi_offset 5, -12
 877              		.cfi_offset 6, -8
 878              		.cfi_offset 14, -4
 879              		.loc 1 357 0
 880 0002 0C1E     		subs	r4, r1, #0
 881 0004 12DD     		ble	.L61
 882 0006 0546     		mov	r5, r0
 883              		.loc 1 359 0
 884 0008 0026     		movs	r6, #0
 885 000a 01E0     		b	.L64
 886              	.LVL73:
 887              	.L63:
 888              		.loc 1 357 0
 889 000c 013C     		subs	r4, r4, #1
 890              	.LVL74:
 891 000e 0DD0     		beq	.L61
 892              	.LVL75:
 893              	.L64:
 894              		.loc 1 358 0
 895 0010 AB68     		ldr	r3, [r5, #8]
 896 0012 0133     		adds	r3, r3, #1
 897 0014 002B     		cmp	r3, #0
 898 0016 AB60     		str	r3, [r5, #8]
 899 0018 F8DC     		bgt	.L63
 900              	.LVL76:
 901              	.LBB238:
 902              	.LBB239:
 903              		.loc 2 672 0
 904 001a 2868     		ldr	r0, [r5]
 905              	.LVL77:
 906              		.loc 2 674 0
 907 001c 0368     		ldr	r3, [r0]
 908 001e 2B60     		str	r3, [r5]
 909              		.loc 2 675 0
 910 0020 5D60     		str	r5, [r3, #4]
 911              	.LVL78:
 912              	.LBE239:
ARM GAS  /tmp/ccRVpnG6.s 			page 17


 913              	.LBE238:
 914              		.loc 1 359 0
 915 0022 FFF7FEFF 		bl	chSchReadyI
 916              	.LVL79:
 917              		.loc 1 357 0
 918 0026 013C     		subs	r4, r4, #1
 919              	.LVL80:
 920              		.loc 1 359 0
 921 0028 4662     		str	r6, [r0, #36]
 922              	.LVL81:
 923              		.loc 1 357 0
 924 002a F1D1     		bne	.L64
 925              	.LVL82:
 926              	.L61:
 927              		.loc 1 363 0
 928 002c 70BD     		pop	{r4, r5, r6, pc}
 929              		.cfi_endproc
 930              	.LFE228:
 931              		.size	chSemAddCounterI, .-chSemAddCounterI
 932 002e 00BF     		.section	.text.chSemSignalWait,"ax",%progbits
 933              		.align	1
 934              		.p2align 4,,15
 935              		.global	chSemSignalWait
 936              		.syntax unified
 937              		.thumb
 938              		.thumb_func
 939              		.fpu fpv4-sp-d16
 940              		.type	chSemSignalWait, %function
 941              	chSemSignalWait:
 942              	.LFB229:
 943              		.loc 1 378 0
 944              		.cfi_startproc
 945              		@ args = 0, pretend = 0, frame = 0
 946              		@ frame_needed = 0, uses_anonymous_args = 0
 947              	.LVL83:
 948 0000 38B5     		push	{r3, r4, r5, lr}
 949              		.cfi_def_cfa_offset 16
 950              		.cfi_offset 3, -16
 951              		.cfi_offset 4, -12
 952              		.cfi_offset 5, -8
 953              		.cfi_offset 14, -4
 954              		.loc 1 378 0
 955 0002 0C46     		mov	r4, r1
 956              	.LBB240:
 957              	.LBB241:
 958              	.LBB242:
 959              	.LBB243:
 960              		.loc 3 546 0
 961 0004 2023     		movs	r3, #32
 962              		.syntax unified
 963              	@ 546 "ChibiOS_3.0.2/os/ext/CMSIS/include/core_cmFunc.h" 1
 964 0006 83F31188 		MSR basepri, r3
 965              	@ 0 "" 2
 966              	.LVL84:
 967              		.thumb
 968              		.syntax unified
 969              	.LBE243:
ARM GAS  /tmp/ccRVpnG6.s 			page 18


 970              	.LBE242:
 971              	.LBE241:
 972              	.LBE240:
 973              		.loc 1 390 0
 974 000a 8368     		ldr	r3, [r0, #8]
 975 000c 0133     		adds	r3, r3, #1
 976 000e 002B     		cmp	r3, #0
 977 0010 8360     		str	r3, [r0, #8]
 978 0012 1BDD     		ble	.L72
 979              	.LVL85:
 980              	.L68:
 981              		.loc 1 393 0
 982 0014 A368     		ldr	r3, [r4, #8]
 983 0016 013B     		subs	r3, r3, #1
 984 0018 002B     		cmp	r3, #0
 985 001a A360     		str	r3, [r4, #8]
 986 001c 06DB     		blt	.L73
 987              		.loc 1 401 0
 988 001e FFF7FEFF 		bl	chSchRescheduleS
 989              	.LVL86:
 990              		.loc 1 402 0
 991 0022 0020     		movs	r0, #0
 992              	.LVL87:
 993              	.LBB244:
 994              	.LBB245:
 995              	.LBB246:
 996              	.LBB247:
 997              	.LBB248:
 998              		.loc 3 546 0
 999 0024 0023     		movs	r3, #0
 1000              		.syntax unified
 1001              	@ 546 "ChibiOS_3.0.2/os/ext/CMSIS/include/core_cmFunc.h" 1
 1002 0026 83F31188 		MSR basepri, r3
 1003              	@ 0 "" 2
 1004              	.LVL88:
 1005              		.thumb
 1006              		.syntax unified
 1007              	.LBE248:
 1008              	.LBE247:
 1009              	.LBE246:
 1010              	.LBE245:
 1011              	.LBE244:
 1012              		.loc 1 407 0
 1013 002a 38BD     		pop	{r3, r4, r5, pc}
 1014              	.LVL89:
 1015              	.L73:
 1016              	.LBB253:
 1017              		.loc 1 394 0
 1018 002c 0C4A     		ldr	r2, .L74
 1019              	.LBB254:
 1020              	.LBB255:
 1021              		.loc 2 666 0
 1022 002e 6368     		ldr	r3, [r4, #4]
 1023              	.LBE255:
 1024              	.LBE254:
 1025              		.loc 1 394 0
 1026 0030 9569     		ldr	r5, [r2, #24]
ARM GAS  /tmp/ccRVpnG6.s 			page 19


 1027              	.LVL90:
 1028              		.loc 1 397 0
 1029 0032 0520     		movs	r0, #5
 1030              	.LBB257:
 1031              	.LBB256:
 1032              		.loc 2 666 0
 1033 0034 C5E90043 		strd	r4, r3, [r5]
 1034              		.loc 2 667 0
 1035 0038 1D60     		str	r5, [r3]
 1036              		.loc 2 668 0
 1037 003a 6560     		str	r5, [r4, #4]
 1038              	.LVL91:
 1039              	.LBE256:
 1040              	.LBE257:
 1041              		.loc 1 396 0
 1042 003c 6C62     		str	r4, [r5, #36]
 1043              		.loc 1 397 0
 1044 003e FFF7FEFF 		bl	chSchGoSleepS
 1045              	.LVL92:
 1046              		.loc 1 398 0
 1047 0042 686A     		ldr	r0, [r5, #36]
 1048              	.LVL93:
 1049              	.LBE253:
 1050              	.LBB258:
 1051              	.LBB252:
 1052              	.LBB251:
 1053              	.LBB250:
 1054              	.LBB249:
 1055              		.loc 3 546 0
 1056 0044 0023     		movs	r3, #0
 1057              		.syntax unified
 1058              	@ 546 "ChibiOS_3.0.2/os/ext/CMSIS/include/core_cmFunc.h" 1
 1059 0046 83F31188 		MSR basepri, r3
 1060              	@ 0 "" 2
 1061              	.LVL94:
 1062              		.thumb
 1063              		.syntax unified
 1064              	.LBE249:
 1065              	.LBE250:
 1066              	.LBE251:
 1067              	.LBE252:
 1068              	.LBE258:
 1069              		.loc 1 407 0
 1070 004a 38BD     		pop	{r3, r4, r5, pc}
 1071              	.LVL95:
 1072              	.L72:
 1073 004c 0246     		mov	r2, r0
 1074              	.LVL96:
 1075              	.LBB259:
 1076              	.LBB260:
 1077              		.loc 2 672 0
 1078 004e 0068     		ldr	r0, [r0]
 1079              	.LVL97:
 1080              		.loc 2 674 0
 1081 0050 0368     		ldr	r3, [r0]
 1082 0052 1360     		str	r3, [r2]
 1083              		.loc 2 675 0
ARM GAS  /tmp/ccRVpnG6.s 			page 20


 1084 0054 5A60     		str	r2, [r3, #4]
 1085              	.LVL98:
 1086              	.LBE260:
 1087              	.LBE259:
 1088              		.loc 1 391 0
 1089 0056 FFF7FEFF 		bl	chSchReadyI
 1090              	.LVL99:
 1091 005a 0023     		movs	r3, #0
 1092 005c 4362     		str	r3, [r0, #36]
 1093 005e D9E7     		b	.L68
 1094              	.L75:
 1095              		.align	2
 1096              	.L74:
 1097 0060 00000000 		.word	ch
 1098              		.cfi_endproc
 1099              	.LFE229:
 1100              		.size	chSemSignalWait, .-chSemSignalWait
 1101              		.text
 1102              	.Letext0:
 1103              		.file 4 "/usr/arm-none-eabi/include/machine/_default_types.h"
 1104              		.file 5 "/usr/arm-none-eabi/include/sys/_stdint.h"
 1105              		.file 6 "ChibiOS_3.0.2/os/rt/ports/ARMCMx/compilers/GCC/chtypes.h"
 1106              		.file 7 "ChibiOS_3.0.2/os/rt/include/chsystypes.h"
 1107              		.file 8 "ChibiOS_3.0.2/os/ext/CMSIS/include/core_cm4.h"
 1108              		.file 9 "ChibiOS_3.0.2/os/ext/CMSIS/ST/system_stm32f4xx.h"
 1109              		.file 10 "ChibiOS_3.0.2/os/rt/ports/ARMCMx/chcore.h"
 1110              		.file 11 "ChibiOS_3.0.2/os/rt/ports/ARMCMx/chcore_v7m.h"
 1111              		.file 12 "ChibiOS_3.0.2/os/rt/include/chtm.h"
 1112              		.file 13 "ChibiOS_3.0.2/os/rt/include/chsem.h"
 1113              		.file 14 "ChibiOS_3.0.2/os/rt/include/chmtx.h"
 1114              		.file 15 "ChibiOS_3.0.2/os/rt/include/chregistry.h"
 1115              		.file 16 "ChibiOS_3.0.2/os/rt/include/chsys.h"