ARM GAS  /tmp/ccyp6JkL.s 			page 1


   1              		.cpu cortex-m4
   2              		.eabi_attribute 27, 1
   3              		.eabi_attribute 28, 1
   4              		.eabi_attribute 20, 1
   5              		.eabi_attribute 21, 1
   6              		.eabi_attribute 23, 3
   7              		.eabi_attribute 24, 1
   8              		.eabi_attribute 25, 1
   9              		.eabi_attribute 26, 1
  10              		.eabi_attribute 30, 2
  11              		.eabi_attribute 34, 1
  12              		.eabi_attribute 18, 4
  13              		.file	"chsys.c"
  14              		.text
  15              	.Ltext0:
  16              		.cfi_sections	.debug_frame
  17              		.section	.text._idle_thread,"ax",%progbits
  18              		.align	1
  19              		.p2align 4,,15
  20              		.syntax unified
  21              		.thumb
  22              		.thumb_func
  23              		.fpu fpv4-sp-d16
  24              		.type	_idle_thread, %function
  25              	_idle_thread:
  26              	.LFB219:
  27              		.file 1 "ChibiOS_3.0.2/os/rt/src/chsys.c"
  28              		.loc 1 65 0
  29              		.cfi_startproc
  30              		@ Volatile: function does not return.
  31              		@ args = 0, pretend = 0, frame = 0
  32              		@ frame_needed = 0, uses_anonymous_args = 0
  33              		@ link register save eliminated.
  34              	.LVL0:
  35              	.L2:
  36 0000 FEE7     		b	.L2
  37              		.cfi_endproc
  38              	.LFE219:
  39              		.size	_idle_thread, .-_idle_thread
  40 0002 00BF     		.section	.text.chSysInit,"ax",%progbits
  41              		.align	1
  42              		.p2align 4,,15
  43              		.global	chSysInit
  44              		.syntax unified
  45              		.thumb
  46              		.thumb_func
  47              		.fpu fpv4-sp-d16
  48              		.type	chSysInit, %function
  49              	chSysInit:
  50              	.LFB220:
  51              		.loc 1 93 0
  52              		.cfi_startproc
  53              		@ args = 0, pretend = 0, frame = 0
  54              		@ frame_needed = 0, uses_anonymous_args = 0
  55              	.LBB137:
  56              	.LBB138:
  57              		.file 2 "ChibiOS_3.0.2/os/rt/ports/ARMCMx/chcore_v7m.h"
ARM GAS  /tmp/ccyp6JkL.s 			page 2


  58              		.loc 2 377 0
  59 0000 204B     		ldr	r3, .L6
  60              	.LBB139:
  61              	.LBB140:
  62              		.file 3 "ChibiOS_3.0.2/os/ext/CMSIS/include/core_cm4.h"
  63              		.loc 3 1442 0
  64 0002 214A     		ldr	r2, .L6+4
  65              	.LBE140:
  66              	.LBE139:
  67              		.loc 2 383 0
  68 0004 2148     		ldr	r0, .L6+8
  69              	.LBE138:
  70              	.LBE137:
  71              		.loc 1 93 0
  72 0006 30B5     		push	{r4, r5, lr}
  73              		.cfi_def_cfa_offset 12
  74              		.cfi_offset 4, -12
  75              		.cfi_offset 5, -8
  76              		.cfi_offset 14, -4
  77              	.LBB154:
  78              	.LBB151:
  79              		.loc 2 377 0
  80 0008 0024     		movs	r4, #0
  81 000a 9C60     		str	r4, [r3, #8]
  82              	.LVL1:
  83              	.LBB142:
  84              	.LBB141:
  85              		.loc 3 1440 0
  86 000c D968     		ldr	r1, [r3, #12]
  87              	.LVL2:
  88              		.loc 3 1441 0
  89 000e 4FF6FF05 		movw	r5, #63743
  90 0012 2940     		ands	r1, r1, r5
  91              	.LVL3:
  92              		.loc 3 1442 0
  93 0014 0A43     		orrs	r2, r2, r1
  94              	.LVL4:
  95              		.loc 3 1445 0
  96 0016 DA60     		str	r2, [r3, #12]
  97              	.LVL5:
  98              	.LBE141:
  99              	.LBE142:
 100              		.loc 2 383 0
 101 0018 C268     		ldr	r2, [r0, #12]
 102              		.loc 2 384 0
 103 001a 1D49     		ldr	r1, .L6+12
 104              	.LBE151:
 105              	.LBE154:
 106              		.loc 1 119 0
 107 001c 1D4D     		ldr	r5, .L6+16
 108              	.LBB155:
 109              	.LBB152:
 110              		.loc 2 383 0
 111 001e 42F08072 		orr	r2, r2, #16777216
 112 0022 C260     		str	r2, [r0, #12]
 113              		.loc 2 384 0
 114 0024 0A68     		ldr	r2, [r1]
ARM GAS  /tmp/ccyp6JkL.s 			page 3


 115 0026 42F00102 		orr	r2, r2, #1
 116 002a 0A60     		str	r2, [r1]
 117              	.LVL6:
 118              	.LBB143:
 119              	.LBB144:
 120              		.loc 3 1553 0
 121 002c 1020     		movs	r0, #16
 122              	.LBE144:
 123              	.LBE143:
 124              	.LBB146:
 125              	.LBB147:
 126 002e 2022     		movs	r2, #32
 127              	.LBE147:
 128              	.LBE146:
 129              	.LBE152:
 130              	.LBE155:
 131              		.loc 1 93 0
 132 0030 83B0     		sub	sp, sp, #12
 133              		.cfi_def_cfa_offset 24
 134              	.LBB156:
 135              	.LBB153:
 136              	.LBB149:
 137              	.LBB145:
 138              		.loc 3 1553 0
 139 0032 D877     		strb	r0, [r3, #31]
 140              	.LVL7:
 141              	.LBE145:
 142              	.LBE149:
 143              	.LBB150:
 144              	.LBB148:
 145 0034 83F82220 		strb	r2, [r3, #34]
 146              	.LVL8:
 147              	.LBE148:
 148              	.LBE150:
 149              	.LBE153:
 150              	.LBE156:
 151              		.loc 1 99 0
 152 0038 FFF7FEFF 		bl	_scheduler_init
 153              	.LVL9:
 154              		.loc 1 100 0
 155 003c FFF7FEFF 		bl	_vt_init
 156              	.LVL10:
 157              		.loc 1 102 0
 158 0040 FFF7FEFF 		bl	_tm_init
 159              	.LVL11:
 160              		.loc 1 105 0
 161 0044 FFF7FEFF 		bl	_core_init
 162              	.LVL12:
 163              		.loc 1 108 0
 164 0048 FFF7FEFF 		bl	_heap_init
 165              	.LVL13:
 166              		.loc 1 119 0
 167 004c 2846     		mov	r0, r5
 168 004e 4021     		movs	r1, #64
 169 0050 FFF7FEFF 		bl	_thread_init
 170              	.LVL14:
 171 0054 A5F13003 		sub	r3, r5, #48
ARM GAS  /tmp/ccyp6JkL.s 			page 4


 172              		.loc 1 125 0
 173 0058 0122     		movs	r2, #1
 174              		.loc 1 119 0
 175 005a 9861     		str	r0, [r3, #24]
 176              		.loc 1 125 0
 177 005c 0277     		strb	r2, [r0, #28]
 178              	.LVL15:
 179              	.LBB157:
 180              	.LBB158:
 181              	.LBB159:
 182              	.LBB160:
 183              		.file 4 "ChibiOS_3.0.2/os/ext/CMSIS/include/core_cmFunc.h"
 184              		.loc 4 546 0
 185              		.syntax unified
 186              	@ 546 "ChibiOS_3.0.2/os/ext/CMSIS/include/core_cmFunc.h" 1
 187 005e 84F31188 		MSR basepri, r4
 188              	@ 0 "" 2
 189              	.LVL16:
 190              		.thumb
 191              		.syntax unified
 192              	.LBE160:
 193              	.LBE159:
 194              	.LBB161:
 195              	.LBB162:
 196              		.loc 4 331 0
 197              		.syntax unified
 198              	@ 331 "ChibiOS_3.0.2/os/ext/CMSIS/include/core_cmFunc.h" 1
 199 0062 62B6     		cpsie i
 200              	@ 0 "" 2
 201              	.LVL17:
 202              		.thumb
 203              		.syntax unified
 204              	.LBE162:
 205              	.LBE161:
 206              	.LBE158:
 207              	.LBE157:
 208              	.LBB163:
 209              	.LBB164:
 210              		.file 5 "ChibiOS_3.0.2/os/rt/include/chregistry.h"
 211              		.loc 5 135 0
 212 0064 9B69     		ldr	r3, [r3, #24]
 213 0066 0C49     		ldr	r1, .L6+20
 214 0068 9961     		str	r1, [r3, #24]
 215              	.LVL18:
 216              	.LBE164:
 217              	.LBE163:
 218              	.LBB165:
 219              		.loc 1 144 0
 220 006a 05F15000 		add	r0, r5, #80
 221 006e 0094     		str	r4, [sp]
 222 0070 0A4B     		ldr	r3, .L6+24
 223 0072 4FF4EC71 		mov	r1, #472
 224 0076 FFF7FEFF 		bl	chThdCreateStatic
 225              	.LVL19:
 226              	.LBB166:
 227              	.LBB167:
 228              		.loc 5 175 0
ARM GAS  /tmp/ccyp6JkL.s 			page 5


 229 007a 094B     		ldr	r3, .L6+28
 230 007c 8361     		str	r3, [r0, #24]
 231              	.LVL20:
 232              	.LBE167:
 233              	.LBE166:
 234              	.LBE165:
 235              		.loc 1 152 0
 236 007e 03B0     		add	sp, sp, #12
 237              		.cfi_def_cfa_offset 12
 238              		@ sp needed
 239 0080 30BD     		pop	{r4, r5, pc}
 240              	.L7:
 241 0082 00BF     		.align	2
 242              	.L6:
 243 0084 00ED00E0 		.word	-536810240
 244 0088 0003FA05 		.word	100270848
 245 008c F0ED00E0 		.word	-536810000
 246 0090 001000E0 		.word	-536866816
 247 0094 30000000 		.word	ch+48
 248 0098 00000000 		.word	ch_debug
 249 009c 00000000 		.word	_idle_thread
 250 00a0 00000000 		.word	.LC0
 251              		.cfi_endproc
 252              	.LFE220:
 253              		.size	chSysInit, .-chSysInit
 254              		.section	.text.chSysHalt,"ax",%progbits
 255              		.align	1
 256              		.p2align 4,,15
 257              		.global	chSysHalt
 258              		.syntax unified
 259              		.thumb
 260              		.thumb_func
 261              		.fpu fpv4-sp-d16
 262              		.type	chSysHalt, %function
 263              	chSysHalt:
 264              	.LFB221:
 265              		.loc 1 166 0
 266              		.cfi_startproc
 267              		@ Volatile: function does not return.
 268              		@ args = 0, pretend = 0, frame = 0
 269              		@ frame_needed = 0, uses_anonymous_args = 0
 270              		@ link register save eliminated.
 271              	.LVL21:
 272              	.LBB168:
 273              	.LBB169:
 274              	.LBB170:
 275              		.loc 4 342 0
 276              		.syntax unified
 277              	@ 342 "ChibiOS_3.0.2/os/ext/CMSIS/include/core_cmFunc.h" 1
 278 0000 72B6     		cpsid i
 279              	@ 0 "" 2
 280              		.thumb
 281              		.syntax unified
 282              	.LBE170:
 283              	.LBE169:
 284              	.LBE168:
 285              		.loc 1 175 0
ARM GAS  /tmp/ccyp6JkL.s 			page 6


 286 0002 014B     		ldr	r3, .L10
 287 0004 D862     		str	r0, [r3, #44]
 288              	.L9:
 289 0006 FEE7     		b	.L9
 290              	.L11:
 291              		.align	2
 292              	.L10:
 293 0008 00000000 		.word	ch
 294              		.cfi_endproc
 295              	.LFE221:
 296              		.size	chSysHalt, .-chSysHalt
 297              		.section	.text.chSysIntegrityCheckI,"ax",%progbits
 298              		.align	1
 299              		.p2align 4,,15
 300              		.global	chSysIntegrityCheckI
 301              		.syntax unified
 302              		.thumb
 303              		.thumb_func
 304              		.fpu fpv4-sp-d16
 305              		.type	chSysIntegrityCheckI, %function
 306              	chSysIntegrityCheckI:
 307              	.LFB222:
 308              		.loc 1 206 0
 309              		.cfi_startproc
 310              		@ args = 0, pretend = 0, frame = 0
 311              		@ frame_needed = 0, uses_anonymous_args = 0
 312              		@ link register save eliminated.
 313              	.LVL22:
 314              		.loc 1 212 0
 315 0000 C207     		lsls	r2, r0, #31
 316              		.loc 1 206 0
 317 0002 10B4     		push	{r4}
 318              		.cfi_def_cfa_offset 4
 319              		.cfi_offset 4, -4
 320              		.loc 1 212 0
 321 0004 12D5     		bpl	.L13
 322              	.LVL23:
 323              	.LBB171:
 324              		.loc 1 217 0
 325 0006 2A4B     		ldr	r3, .L56
 326 0008 D3E90014 		ldrd	r1, r4, [r3]
 327              		.loc 1 218 0
 328 000c 9942     		cmp	r1, r3
 329 000e 43D0     		beq	.L14
 330              		.loc 1 216 0
 331 0010 0022     		movs	r2, #0
 332              	.LVL24:
 333              	.L15:
 334              		.loc 1 220 0
 335 0012 0968     		ldr	r1, [r1]
 336              	.LVL25:
 337              		.loc 1 218 0
 338 0014 9942     		cmp	r1, r3
 339              		.loc 1 219 0
 340 0016 02F10102 		add	r2, r2, #1
 341              	.LVL26:
 342              		.loc 1 218 0
ARM GAS  /tmp/ccyp6JkL.s 			page 7


 343 001a FAD1     		bne	.L15
 344              	.LVL27:
 345              		.loc 1 225 0
 346 001c 8C42     		cmp	r4, r1
 347 001e 37D0     		beq	.L39
 348              	.LVL28:
 349              	.L19:
 350              		.loc 1 227 0
 351 0020 6468     		ldr	r4, [r4, #4]
 352              	.LVL29:
 353              		.loc 1 225 0
 354 0022 9C42     		cmp	r4, r3
 355              		.loc 1 226 0
 356 0024 02F1FF32 		add	r2, r2, #-1
 357              	.LVL30:
 358              		.loc 1 225 0
 359 0028 FAD1     		bne	.L19
 360              		.loc 1 231 0
 361 002a 8ABB     		cbnz	r2, .L39
 362              	.LVL31:
 363              	.L13:
 364              	.LBE171:
 365              		.loc 1 237 0
 366 002c 8307     		lsls	r3, r0, #30
 367 002e 13D5     		bpl	.L20
 368              	.LVL32:
 369              	.LBB172:
 370              		.loc 1 242 0
 371 0030 1F4C     		ldr	r4, .L56
 372 0032 D4E90721 		ldrd	r2, r1, [r4, #28]
 373              		.loc 1 243 0
 374 0036 1C34     		adds	r4, r4, #28
 375 0038 A242     		cmp	r2, r4
 376 003a 31D0     		beq	.L21
 377              		.loc 1 241 0
 378 003c 0023     		movs	r3, #0
 379              	.LVL33:
 380              	.L22:
 381              		.loc 1 245 0
 382 003e 1268     		ldr	r2, [r2]
 383              	.LVL34:
 384              		.loc 1 243 0
 385 0040 A242     		cmp	r2, r4
 386              		.loc 1 244 0
 387 0042 03F10103 		add	r3, r3, #1
 388              	.LVL35:
 389              		.loc 1 243 0
 390 0046 FAD1     		bne	.L22
 391              	.LVL36:
 392              		.loc 1 250 0
 393 0048 9142     		cmp	r1, r2
 394 004a 21D0     		beq	.L39
 395              	.LVL37:
 396              	.L25:
 397              		.loc 1 252 0
 398 004c 4968     		ldr	r1, [r1, #4]
 399              	.LVL38:
ARM GAS  /tmp/ccyp6JkL.s 			page 8


 400              		.loc 1 250 0
 401 004e A142     		cmp	r1, r4
 402              		.loc 1 251 0
 403 0050 03F1FF33 		add	r3, r3, #-1
 404              	.LVL39:
 405              		.loc 1 250 0
 406 0054 FAD1     		bne	.L25
 407              		.loc 1 256 0
 408 0056 DBB9     		cbnz	r3, .L39
 409              	.LVL40:
 410              	.L20:
 411              	.LBE172:
 412              		.loc 1 262 0
 413 0058 10F00400 		ands	r0, r0, #4
 414              	.LVL41:
 415 005c 15D0     		beq	.L18
 416              	.LVL42:
 417              	.LBB173:
 418              		.loc 1 267 0
 419 005e 144B     		ldr	r3, .L56
 420 0060 D3E90421 		ldrd	r2, r1, [r3, #16]
 421              		.loc 1 268 0
 422 0064 9A42     		cmp	r2, r3
 423              		.loc 1 266 0
 424 0066 4FF00000 		mov	r0, #0
 425              		.loc 1 268 0
 426 006a 1DD0     		beq	.L26
 427              	.LVL43:
 428              	.L27:
 429              		.loc 1 270 0
 430 006c 1269     		ldr	r2, [r2, #16]
 431              	.LVL44:
 432              		.loc 1 268 0
 433 006e 9A42     		cmp	r2, r3
 434              		.loc 1 269 0
 435 0070 00F10100 		add	r0, r0, #1
 436              	.LVL45:
 437              		.loc 1 268 0
 438 0074 FAD1     		bne	.L27
 439              	.LVL46:
 440              		.loc 1 275 0
 441 0076 9142     		cmp	r1, r2
 442 0078 0AD0     		beq	.L39
 443              	.LVL47:
 444              	.L30:
 445              		.loc 1 277 0
 446 007a 4969     		ldr	r1, [r1, #20]
 447              	.LVL48:
 448              		.loc 1 275 0
 449 007c 9942     		cmp	r1, r3
 450              		.loc 1 276 0
 451 007e 00F1FF30 		add	r0, r0, #-1
 452              	.LVL49:
 453              		.loc 1 275 0
 454 0082 FAD1     		bne	.L30
 455              		.loc 1 281 0
 456 0084 0030     		adds	r0, r0, #0
ARM GAS  /tmp/ccyp6JkL.s 			page 9


 457 0086 18BF     		it	ne
 458 0088 0120     		movne	r0, #1
 459              	.LVL50:
 460              	.L18:
 461              	.LBE173:
 462              		.loc 1 294 0
 463 008a 5DF8044B 		ldr	r4, [sp], #4
 464              		.cfi_remember_state
 465              		.cfi_restore 4
 466              		.cfi_def_cfa_offset 0
 467 008e 7047     		bx	lr
 468              	.L39:
 469              		.cfi_restore_state
 470              	.LBB174:
 471              		.loc 1 232 0
 472 0090 0120     		movs	r0, #1
 473              	.LBE174:
 474              		.loc 1 294 0
 475 0092 5DF8044B 		ldr	r4, [sp], #4
 476              		.cfi_remember_state
 477              		.cfi_restore 4
 478              		.cfi_def_cfa_offset 0
 479 0096 7047     		bx	lr
 480              	.LVL51:
 481              	.L14:
 482              		.cfi_restore_state
 483              	.LBB175:
 484              		.loc 1 225 0
 485 0098 9C42     		cmp	r4, r3
 486 009a C7D0     		beq	.L13
 487              		.loc 1 216 0
 488 009c 0022     		movs	r2, #0
 489 009e BFE7     		b	.L19
 490              	.LVL52:
 491              	.L21:
 492              	.LBE175:
 493              	.LBB176:
 494              		.loc 1 250 0
 495 00a0 A142     		cmp	r1, r4
 496 00a2 D9D0     		beq	.L20
 497              		.loc 1 241 0
 498 00a4 0023     		movs	r3, #0
 499 00a6 D1E7     		b	.L25
 500              	.LVL53:
 501              	.L26:
 502              	.LBE176:
 503              	.LBB177:
 504              		.loc 1 275 0
 505 00a8 9142     		cmp	r1, r2
 506 00aa E6D1     		bne	.L30
 507 00ac EDE7     		b	.L18
 508              	.L57:
 509 00ae 00BF     		.align	2
 510              	.L56:
 511 00b0 00000000 		.word	ch
 512              	.LBE177:
 513              		.cfi_endproc
ARM GAS  /tmp/ccyp6JkL.s 			page 10


 514              	.LFE222:
 515              		.size	chSysIntegrityCheckI, .-chSysIntegrityCheckI
 516              		.section	.text.chSysTimerHandlerI,"ax",%progbits
 517              		.align	1
 518              		.p2align 4,,15
 519              		.global	chSysTimerHandlerI
 520              		.syntax unified
 521              		.thumb
 522              		.thumb_func
 523              		.fpu fpv4-sp-d16
 524              		.type	chSysTimerHandlerI, %function
 525              	chSysTimerHandlerI:
 526              	.LFB223:
 527              		.loc 1 307 0
 528              		.cfi_startproc
 529              		@ args = 0, pretend = 0, frame = 0
 530              		@ frame_needed = 0, uses_anonymous_args = 0
 531 0000 F8B5     		push	{r3, r4, r5, r6, r7, lr}
 532              		.cfi_def_cfa_offset 24
 533              		.cfi_offset 3, -24
 534              		.cfi_offset 4, -20
 535              		.cfi_offset 5, -16
 536              		.cfi_offset 6, -12
 537              		.cfi_offset 7, -8
 538              		.cfi_offset 14, -4
 539              		.loc 1 313 0
 540 0002 134C     		ldr	r4, .L68
 541 0004 A269     		ldr	r2, [r4, #24]
 542 0006 D37F     		ldrb	r3, [r2, #31]	@ zero_extendqisi2
 543 0008 0BB1     		cbz	r3, .L59
 544              		.loc 1 315 0
 545 000a 013B     		subs	r3, r3, #1
 546 000c D377     		strb	r3, [r2, #31]
 547              	.L59:
 548              		.loc 1 319 0
 549 000e 116A     		ldr	r1, [r2, #32]
 550              	.LBB191:
 551              	.LBB192:
 552              		.file 6 "ChibiOS_3.0.2/os/rt/include/chvt.h"
 553              		.loc 6 472 0
 554 0010 E369     		ldr	r3, [r4, #28]
 555 0012 104E     		ldr	r6, .L68+4
 556              	.LBE192:
 557              	.LBE191:
 558              		.loc 1 319 0
 559 0014 0131     		adds	r1, r1, #1
 560 0016 1162     		str	r1, [r2, #32]
 561              	.LBB210:
 562              	.LBB209:
 563              		.loc 6 471 0
 564 0018 A26A     		ldr	r2, [r4, #40]
 565              		.loc 6 472 0
 566 001a B342     		cmp	r3, r6
 567              		.loc 6 471 0
 568 001c 02F10102 		add	r2, r2, #1
 569 0020 A262     		str	r2, [r4, #40]
 570              		.loc 6 472 0
ARM GAS  /tmp/ccyp6JkL.s 			page 11


 571 0022 13D0     		beq	.L58
 572              		.loc 6 474 0
 573 0024 9D68     		ldr	r5, [r3, #8]
 574 0026 013D     		subs	r5, r5, #1
 575 0028 9D60     		str	r5, [r3, #8]
 576              		.loc 6 475 0
 577 002a 7DB9     		cbnz	r5, .L58
 578              	.LBB193:
 579              	.LBB194:
 580              	.LBB195:
 581              	.LBB196:
 582              	.LBB197:
 583              	.LBB198:
 584              		.loc 4 546 0
 585 002c 2027     		movs	r7, #32
 586              	.L61:
 587              	.LVL54:
 588              	.LBE198:
 589              	.LBE197:
 590              	.LBE196:
 591              	.LBE195:
 592              	.LBE194:
 593              		.loc 6 482 0
 594 002e 1A68     		ldr	r2, [r3]
 595              		.loc 6 480 0
 596 0030 D968     		ldr	r1, [r3, #12]
 597              	.LVL55:
 598              		.loc 6 481 0
 599 0032 DD60     		str	r5, [r3, #12]
 600              		.loc 6 482 0
 601 0034 5660     		str	r6, [r2, #4]
 602              		.loc 6 483 0
 603 0036 E261     		str	r2, [r4, #28]
 604              	.LVL56:
 605              	.LBB203:
 606              	.LBB204:
 607              	.LBB205:
 608              	.LBB206:
 609              	.LBB207:
 610              		.loc 4 546 0
 611              		.syntax unified
 612              	@ 546 "ChibiOS_3.0.2/os/ext/CMSIS/include/core_cmFunc.h" 1
 613 0038 85F31188 		MSR basepri, r5
 614              	@ 0 "" 2
 615              	.LVL57:
 616              		.thumb
 617              		.syntax unified
 618              	.LBE207:
 619              	.LBE206:
 620              	.LBE205:
 621              	.LBE204:
 622              	.LBE203:
 623              		.loc 6 485 0
 624 003c 1869     		ldr	r0, [r3, #16]
 625 003e 8847     		blx	r1
 626              	.LVL58:
 627              	.LBB208:
ARM GAS  /tmp/ccyp6JkL.s 			page 12


 628              	.LBB202:
 629              	.LBB201:
 630              	.LBB200:
 631              	.LBB199:
 632              		.loc 4 546 0
 633              		.syntax unified
 634              	@ 546 "ChibiOS_3.0.2/os/ext/CMSIS/include/core_cmFunc.h" 1
 635 0040 87F31188 		MSR basepri, r7
 636              	@ 0 "" 2
 637              	.LVL59:
 638              		.thumb
 639              		.syntax unified
 640              	.LBE199:
 641              	.LBE200:
 642              	.LBE201:
 643              	.LBE202:
 644              	.LBE208:
 645              	.LBE193:
 646              		.loc 6 475 0
 647 0044 E369     		ldr	r3, [r4, #28]
 648 0046 9A68     		ldr	r2, [r3, #8]
 649 0048 002A     		cmp	r2, #0
 650 004a F0D0     		beq	.L61
 651              	.L58:
 652              	.LBE209:
 653              	.LBE210:
 654              		.loc 1 325 0
 655 004c F8BD     		pop	{r3, r4, r5, r6, r7, pc}
 656              	.L69:
 657 004e 00BF     		.align	2
 658              	.L68:
 659 0050 00000000 		.word	ch
 660 0054 1C000000 		.word	ch+28
 661              		.cfi_endproc
 662              	.LFE223:
 663              		.size	chSysTimerHandlerI, .-chSysTimerHandlerI
 664              		.section	.text.chSysGetStatusAndLockX,"ax",%progbits
 665              		.align	1
 666              		.p2align 4,,15
 667              		.global	chSysGetStatusAndLockX
 668              		.syntax unified
 669              		.thumb
 670              		.thumb_func
 671              		.fpu fpv4-sp-d16
 672              		.type	chSysGetStatusAndLockX, %function
 673              	chSysGetStatusAndLockX:
 674              	.LFB224:
 675              		.loc 1 340 0
 676              		.cfi_startproc
 677              		@ args = 0, pretend = 0, frame = 0
 678              		@ frame_needed = 0, uses_anonymous_args = 0
 679              		@ link register save eliminated.
 680              	.LBB211:
 681              	.LBB212:
 682              	.LBB213:
 683              	.LBB214:
 684              		.loc 4 533 0
ARM GAS  /tmp/ccyp6JkL.s 			page 13


 685              		.syntax unified
 686              	@ 533 "ChibiOS_3.0.2/os/ext/CMSIS/include/core_cmFunc.h" 1
 687 0000 EFF31280 		MRS r0, basepri_max
 688              	@ 0 "" 2
 689              		.thumb
 690              		.syntax unified
 691              	.LBE214:
 692              	.LBE213:
 693              	.LBE212:
 694              	.LBE211:
 695              		.loc 1 343 0
 696 0004 20B9     		cbnz	r0, .L70
 697              	.LBB215:
 698              	.LBB216:
 699              	.LBB217:
 700              	.LBB218:
 701              		.loc 4 383 0
 702              		.syntax unified
 703              	@ 383 "ChibiOS_3.0.2/os/ext/CMSIS/include/core_cmFunc.h" 1
 704 0006 EFF30583 		MRS r3, ipsr
 705              	@ 0 "" 2
 706              	.LVL60:
 707              		.thumb
 708              		.syntax unified
 709              	.LBE218:
 710              	.LBE217:
 711              	.LBE216:
 712              	.LBE215:
 713              	.LBB219:
 714              	.LBB220:
 715              	.LBB221:
 716              	.LBB222:
 717              		.loc 4 546 0
 718 000a 2023     		movs	r3, #32
 719              		.syntax unified
 720              	@ 546 "ChibiOS_3.0.2/os/ext/CMSIS/include/core_cmFunc.h" 1
 721 000c 83F31188 		MSR basepri, r3
 722              	@ 0 "" 2
 723              	.LVL61:
 724              		.thumb
 725              		.syntax unified
 726              	.L70:
 727              	.LBE222:
 728              	.LBE221:
 729              	.LBE220:
 730              	.LBE219:
 731              		.loc 1 352 0
 732 0010 7047     		bx	lr
 733              		.cfi_endproc
 734              	.LFE224:
 735              		.size	chSysGetStatusAndLockX, .-chSysGetStatusAndLockX
 736 0012 00BF     		.section	.text.chSysRestoreStatusX,"ax",%progbits
 737              		.align	1
 738              		.p2align 4,,15
 739              		.global	chSysRestoreStatusX
 740              		.syntax unified
 741              		.thumb
ARM GAS  /tmp/ccyp6JkL.s 			page 14


 742              		.thumb_func
 743              		.fpu fpv4-sp-d16
 744              		.type	chSysRestoreStatusX, %function
 745              	chSysRestoreStatusX:
 746              	.LFB225:
 747              		.loc 1 363 0
 748              		.cfi_startproc
 749              		@ args = 0, pretend = 0, frame = 0
 750              		@ frame_needed = 0, uses_anonymous_args = 0
 751              	.LVL62:
 752              		.loc 1 365 0
 753 0000 40B9     		cbnz	r0, .L77
 754              		.loc 1 363 0
 755 0002 10B5     		push	{r4, lr}
 756              		.cfi_def_cfa_offset 8
 757              		.cfi_offset 4, -8
 758              		.cfi_offset 14, -4
 759              	.LBB223:
 760              	.LBB224:
 761              	.LBB225:
 762              	.LBB226:
 763              		.loc 4 383 0
 764              		.syntax unified
 765              	@ 383 "ChibiOS_3.0.2/os/ext/CMSIS/include/core_cmFunc.h" 1
 766 0004 EFF30584 		MRS r4, ipsr
 767              	@ 0 "" 2
 768              		.thumb
 769              		.syntax unified
 770              	.LBE226:
 771              	.LBE225:
 772              		.loc 2 436 0
 773 0008 C4F30804 		ubfx	r4, r4, #0, #9
 774              	.LBE224:
 775              	.LBE223:
 776              		.loc 1 366 0
 777 000c 1CB1     		cbz	r4, .L75
 778              	.LVL63:
 779              	.LBB227:
 780              	.LBB228:
 781              	.LBB229:
 782              	.LBB230:
 783              	.LBB231:
 784              		.loc 4 546 0
 785              		.syntax unified
 786              	@ 546 "ChibiOS_3.0.2/os/ext/CMSIS/include/core_cmFunc.h" 1
 787 000e 80F31188 		MSR basepri, r0
 788              	@ 0 "" 2
 789              	.LVL64:
 790              		.thumb
 791              		.syntax unified
 792              	.LBE231:
 793              	.LBE230:
 794              	.LBE229:
 795              	.LBE228:
 796              	.LBE227:
 797              		.loc 1 374 0
 798 0012 10BD     		pop	{r4, pc}
ARM GAS  /tmp/ccyp6JkL.s 			page 15


 799              	.L77:
 800              		.cfi_def_cfa_offset 0
 801              		.cfi_restore 4
 802              		.cfi_restore 14
 803 0014 7047     		bx	lr
 804              	.L75:
 805              		.cfi_def_cfa_offset 8
 806              		.cfi_offset 4, -8
 807              		.cfi_offset 14, -4
 808              		.loc 1 370 0
 809 0016 FFF7FEFF 		bl	chSchRescheduleS
 810              	.LVL65:
 811              	.LBB232:
 812              	.LBB233:
 813              	.LBB234:
 814              	.LBB235:
 815              	.LBB236:
 816              		.loc 4 546 0
 817              		.syntax unified
 818              	@ 546 "ChibiOS_3.0.2/os/ext/CMSIS/include/core_cmFunc.h" 1
 819 001a 84F31188 		MSR basepri, r4
 820              	@ 0 "" 2
 821              	.LVL66:
 822              		.thumb
 823              		.syntax unified
 824              	.LBE236:
 825              	.LBE235:
 826              	.LBE234:
 827              	.LBE233:
 828              	.LBE232:
 829              		.loc 1 374 0
 830 001e 10BD     		pop	{r4, pc}
 831              		.cfi_endproc
 832              	.LFE225:
 833              		.size	chSysRestoreStatusX, .-chSysRestoreStatusX
 834              		.section	.text.chSysIsCounterWithinX,"ax",%progbits
 835              		.align	1
 836              		.p2align 4,,15
 837              		.global	chSysIsCounterWithinX
 838              		.syntax unified
 839              		.thumb
 840              		.thumb_func
 841              		.fpu fpv4-sp-d16
 842              		.type	chSysIsCounterWithinX, %function
 843              	chSysIsCounterWithinX:
 844              	.LFB226:
 845              		.loc 1 395 0
 846              		.cfi_startproc
 847              		@ args = 0, pretend = 0, frame = 0
 848              		@ frame_needed = 0, uses_anonymous_args = 0
 849              		@ link register save eliminated.
 850              	.LVL67:
 851              		.loc 1 397 0
 852 0000 401A     		subs	r0, r0, r1
 853              	.LVL68:
 854 0002 521A     		subs	r2, r2, r1
 855              	.LVL69:
ARM GAS  /tmp/ccyp6JkL.s 			page 16


 856              		.loc 1 398 0
 857 0004 9042     		cmp	r0, r2
 858 0006 2CBF     		ite	cs
 859 0008 0020     		movcs	r0, #0
 860 000a 0120     		movcc	r0, #1
 861 000c 7047     		bx	lr
 862              		.cfi_endproc
 863              	.LFE226:
 864              		.size	chSysIsCounterWithinX, .-chSysIsCounterWithinX
 865 000e 00BF     		.section	.text.chSysPolledDelayX,"ax",%progbits
 866              		.align	1
 867              		.p2align 4,,15
 868              		.global	chSysPolledDelayX
 869              		.syntax unified
 870              		.thumb
 871              		.thumb_func
 872              		.fpu fpv4-sp-d16
 873              		.type	chSysPolledDelayX, %function
 874              	chSysPolledDelayX:
 875              	.LFB227:
 876              		.loc 1 411 0
 877              		.cfi_startproc
 878              		@ args = 0, pretend = 0, frame = 0
 879              		@ frame_needed = 0, uses_anonymous_args = 0
 880              		@ link register save eliminated.
 881              	.LVL70:
 882              	.LBB237:
 883              	.LBB238:
 884              		.loc 2 548 0
 885 0000 034A     		ldr	r2, .L84
 886 0002 5168     		ldr	r1, [r2, #4]
 887              	.LVL71:
 888              	.L82:
 889              	.LBE238:
 890              	.LBE237:
 891              	.LBB239:
 892              	.LBB240:
 893              		.loc 2 548 0 is_stmt 0 discriminator 1
 894 0004 5368     		ldr	r3, [r2, #4]
 895              	.LBE240:
 896              	.LBE239:
 897              	.LBB241:
 898              	.LBB242:
 899              		.loc 1 397 0 is_stmt 1 discriminator 1
 900 0006 5B1A     		subs	r3, r3, r1
 901              	.LBE242:
 902              	.LBE241:
 903              		.loc 1 415 0 discriminator 1
 904 0008 9842     		cmp	r0, r3
 905 000a FBD8     		bhi	.L82
 906              		.loc 1 417 0
 907 000c 7047     		bx	lr
 908              	.L85:
 909 000e 00BF     		.align	2
 910              	.L84:
 911 0010 001000E0 		.word	-536866816
 912              		.cfi_endproc
ARM GAS  /tmp/ccyp6JkL.s 			page 17


 913              	.LFE227:
 914              		.size	chSysPolledDelayX, .-chSysPolledDelayX
 915              		.section	.rodata.chSysInit.str1.4,"aMS",%progbits,1
 916              		.align	2
 917              	.LC0:
 918 0000 69646C65 		.ascii	"idle\000"
 918      00
 919              		.text
 920              	.Letext0:
 921              		.file 7 "/usr/arm-none-eabi/include/machine/_default_types.h"
 922              		.file 8 "/usr/arm-none-eabi/include/sys/_stdint.h"
 923              		.file 9 "ChibiOS_3.0.2/os/rt/ports/ARMCMx/compilers/GCC/chtypes.h"
 924              		.file 10 "ChibiOS_3.0.2/os/rt/include/chsystypes.h"
 925              		.file 11 "ChibiOS_3.0.2/os/rt/include/chschd.h"
 926              		.file 12 "ChibiOS_3.0.2/os/ext/CMSIS/ST/stm32f407xx.h"
 927              		.file 13 "ChibiOS_3.0.2/os/ext/CMSIS/ST/system_stm32f4xx.h"
 928              		.file 14 "ChibiOS_3.0.2/os/rt/ports/ARMCMx/chcore.h"
 929              		.file 15 "ChibiOS_3.0.2/os/rt/include/chtm.h"
 930              		.file 16 "ChibiOS_3.0.2/os/rt/include/chsem.h"
 931              		.file 17 "ChibiOS_3.0.2/os/rt/include/chmtx.h"
 932              		.file 18 "ChibiOS_3.0.2/os/rt/include/chthreads.h"
 933              		.file 19 "ChibiOS_3.0.2/os/rt/include/chsys.h"
 934              		.file 20 "ChibiOS_3.0.2/os/rt/include/chmemcore.h"
 935              		.file 21 "ChibiOS_3.0.2/os/rt/include/chheap.h"