ARM GAS  /tmp/cc26jFNS.s 			page 1


   1              		.cpu cortex-m4
   2              		.eabi_attribute 27, 1
   3              		.eabi_attribute 28, 1
   4              		.eabi_attribute 20, 1
   5              		.eabi_attribute 21, 1
   6              		.eabi_attribute 23, 3
   7              		.eabi_attribute 24, 1
   8              		.eabi_attribute 25, 1
   9              		.eabi_attribute 26, 1
  10              		.eabi_attribute 30, 2
  11              		.eabi_attribute 34, 1
  12              		.eabi_attribute 18, 4
  13              		.file	"commands.c"
  14              		.text
  15              	.Ltext0:
  16              		.cfi_sections	.debug_frame
  17              		.section	.text.detect_thread,"ax",%progbits
  18              		.align	1
  19              		.p2align 4,,15
  20              		.syntax unified
  21              		.thumb
  22              		.thumb_func
  23              		.fpu fpv4-sp-d16
  24              		.type	detect_thread, %function
  25              	detect_thread:
  26              	.LFB270:
  27              		.file 1 "commands.c"
  28              		.loc 1 1005 0
  29              		.cfi_startproc
  30              		@ Volatile: function does not return.
  31              		@ args = 0, pretend = 0, frame = 16
  32              		@ frame_needed = 0, uses_anonymous_args = 0
  33              	.LVL0:
  34 0000 2DE98048 		push	{r7, fp, lr}
  35              		.cfi_def_cfa_offset 12
  36              		.cfi_offset 7, -12
  37              		.cfi_offset 11, -8
  38              		.cfi_offset 14, -4
  39              	.LBB66:
  40              	.LBB67:
  41              		.file 2 "ChibiOS_3.0.2/os/rt/include/chregistry.h"
  42              		.loc 2 135 0
  43 0004 354B     		ldr	r3, .L13
  44              	.LBE67:
  45              	.LBE66:
  46              		.loc 1 1010 0
  47 0006 364A     		ldr	r2, .L13+4
  48              	.LBB70:
  49              	.LBB68:
  50              		.loc 2 135 0
  51 0008 9B69     		ldr	r3, [r3, #24]
  52 000a 364D     		ldr	r5, .L13+8
  53 000c 3649     		ldr	r1, .L13+12
  54 000e 374E     		ldr	r6, .L13+16
  55 0010 DFF8F0B0 		ldr	fp, .L13+40
  56 0014 DFF8F4A0 		ldr	r10, .L13+48
  57 0018 DFF8F490 		ldr	r9, .L13+52
ARM GAS  /tmp/cc26jFNS.s 			page 2


  58 001c DFF8F480 		ldr	r8, .L13+56
  59 0020 9FED338A 		vldr.32	s16, .L13+20
  60              	.LBE68:
  61              	.LBE70:
  62              	.LBB71:
  63              		.loc 1 1018 0
  64 0024 DFED338A 		vldr.32	s17, .L13+24
  65              	.LBE71:
  66              	.LBB74:
  67              	.LBB69:
  68              		.loc 2 135 0
  69 0028 9961     		str	r1, [r3, #24]
  70              	.LVL1:
  71              	.LBE69:
  72              	.LBE74:
  73              		.loc 1 1005 0
  74 002a 85B0     		sub	sp, sp, #20
  75              		.cfi_def_cfa_offset 32
  76              		.loc 1 1010 0
  77 002c 1360     		str	r3, [r2]
  78              	.LBB75:
  79              		.loc 1 1024 0
  80 002e 2C46     		mov	r4, r5
  81 0030 37E0     		b	.L6
  82              	.LVL2:
  83              	.L12:
  84 0032 DBED007A 		vldr.32	s15, [fp]
  85 0036 67EE887A 		vmul.f32	s15, s15, s16
  86 003a FDEEE77A 		vcvt.s32.f32	s15, s15
  87 003e CDED017A 		vstr.32	s15, [sp, #4]	@ int
  88              	.L3:
  89              		.loc 1 1023 0
  90 0042 0120     		movs	r0, #1
  91 0044 1823     		movs	r3, #24
  92              		.loc 1 1024 0
  93 0046 03AA     		add	r2, sp, #12
  94 0048 0199     		ldr	r1, [sp, #4]
  95              		.loc 1 1023 0
  96 004a 0390     		str	r0, [sp, #12]
  97              		.loc 1 1024 0
  98 004c 2046     		mov	r0, r4
  99              		.loc 1 1023 0
 100 004e 2B70     		strb	r3, [r5]
 101              		.loc 1 1024 0
 102 0050 FFF7FEFF 		bl	buffer_append_int32
 103              	.LVL3:
 104              		.loc 1 1025 0
 105 0054 D6ED007A 		vldr.32	s15, [r6]
 106              		.loc 1 1028 0
 107 0058 274F     		ldr	r7, .L13+28
 108              		.loc 1 1025 0
 109 005a 67EE887A 		vmul.f32	s15, s15, s16
 110 005e 03AA     		add	r2, sp, #12
 111 0060 FDEEE77A 		vcvt.s32.f32	s15, s15
 112 0064 2046     		mov	r0, r4
 113 0066 17EE901A 		vmov	r1, s15	@ int
 114 006a FFF7FEFF 		bl	buffer_append_int32
ARM GAS  /tmp/cc26jFNS.s 			page 3


 115              	.LVL4:
 116              		.loc 1 1026 0
 117 006e DFF890C0 		ldr	ip, .L13+36
 118 0072 039B     		ldr	r3, [sp, #12]
 119              		.loc 1 1030 0
 120 0074 214A     		ldr	r2, .L13+32
 121              		.loc 1 1028 0
 122 0076 D7F800E0 		ldr	lr, [r7]
 123              		.loc 1 1030 0
 124 007a 1268     		ldr	r2, [r2]
 125              		.loc 1 1028 0
 126 007c 8DF804E0 		strb	lr, [sp, #4]
 127              		.loc 1 1026 0
 128 0080 BCE80300 		ldmia	ip!, {r0, r1}
 129 0084 05EB030C 		add	ip, r5, r3
 130 0088 E850     		str	r0, [r5, r3]	@ unaligned
 131              		.loc 1 1028 0
 132 008a 5FFA8EF7 		uxtb	r7, lr
 133 008e 0933     		adds	r3, r3, #9
 134              		.loc 1 1026 0
 135 0090 CCF80410 		str	r1, [ip, #4]	@ unaligned
 136              		.loc 1 1031 0
 137 0094 2046     		mov	r0, r4
 138              		.loc 1 1028 0
 139 0096 0393     		str	r3, [sp, #12]
 140              		.loc 1 1031 0
 141 0098 1946     		mov	r1, r3
 142              		.loc 1 1028 0
 143 009a 8CF80870 		strb	r7, [ip, #8]
 144              		.loc 1 1030 0
 145 009e BAB1     		cbz	r2, .L4
 146              		.loc 1 1031 0
 147 00a0 9047     		blx	r2
 148              	.LVL5:
 149              	.L6:
 150              		.loc 1 1013 0
 151 00a2 0120     		movs	r0, #1
 152 00a4 FFF7FEFF 		bl	chEvtWaitAny
 153              	.LVL6:
 154              		.loc 1 1015 0
 155 00a8 134B     		ldr	r3, .L13+28
 156 00aa 154A     		ldr	r2, .L13+36
 157 00ac 0F49     		ldr	r1, .L13+16
 158 00ae 1548     		ldr	r0, .L13+40
 159 00b0 9AED001A 		vldr.32	s2, [r10]
 160 00b4 D9ED000A 		vldr.32	s1, [r9]
 161 00b8 98ED000A 		vldr.32	s0, [r8]
 162 00bc FFF7FEFF 		bl	conf_general_detect_motor_param
 163              	.LVL7:
 164 00c0 0028     		cmp	r0, #0
 165 00c2 B6D1     		bne	.L12
 166              		.loc 1 1018 0
 167 00c4 CBED008A 		vstr.32	s17, [fp]
 168              		.loc 1 1019 0
 169 00c8 C6ED008A 		vstr.32	s17, [r6]
 170 00cc 0190     		str	r0, [sp, #4]
 171 00ce B8E7     		b	.L3
ARM GAS  /tmp/cc26jFNS.s 			page 4


 172              	.L4:
 173              	.LVL8:
 174              	.LBB72:
 175              	.LBB73:
 176              		.loc 1 90 0
 177 00d0 0D4B     		ldr	r3, .L13+44
 178 00d2 1B68     		ldr	r3, [r3]
 179 00d4 002B     		cmp	r3, #0
 180 00d6 E4D0     		beq	.L6
 181              		.loc 1 91 0
 182 00d8 9847     		blx	r3
 183              	.LVL9:
 184              	.LBE73:
 185              	.LBE72:
 186              	.LBE75:
 187              		.loc 1 1012 0
 188 00da E2E7     		b	.L6
 189              	.L14:
 190              		.align	2
 191              	.L13:
 192 00dc 00000000 		.word	ch
 193 00e0 00000000 		.word	.LANCHOR0
 194 00e4 00000000 		.word	.LANCHOR8
 195 00e8 00000000 		.word	.LC0
 196 00ec 00000000 		.word	.LANCHOR3
 197 00f0 00007A44 		.word	1148846080
 198 00f4 00000000 		.word	0
 199 00f8 00000000 		.word	.LANCHOR1
 200 00fc 00000000 		.word	.LANCHOR9
 201 0100 00000000 		.word	.LANCHOR2
 202 0104 00000000 		.word	.LANCHOR4
 203 0108 00000000 		.word	.LANCHOR10
 204 010c 00000000 		.word	.LANCHOR5
 205 0110 00000000 		.word	.LANCHOR6
 206 0114 00000000 		.word	.LANCHOR7
 207              		.cfi_endproc
 208              	.LFE270:
 209              		.size	detect_thread, .-detect_thread
 210              		.section	.text.commands_init,"ax",%progbits
 211              		.align	1
 212              		.p2align 4,,15
 213              		.global	commands_init
 214              		.syntax unified
 215              		.thumb
 216              		.thumb_func
 217              		.fpu fpv4-sp-d16
 218              		.type	commands_init, %function
 219              	commands_init:
 220              	.LFB259:
 221              		.loc 1 66 0
 222              		.cfi_startproc
 223              		@ args = 0, pretend = 0, frame = 0
 224              		@ frame_needed = 0, uses_anonymous_args = 0
 225 0000 00B5     		push	{lr}
 226              		.cfi_def_cfa_offset 4
 227              		.cfi_offset 14, -4
 228 0002 83B0     		sub	sp, sp, #12
ARM GAS  /tmp/cc26jFNS.s 			page 5


 229              		.cfi_def_cfa_offset 16
 230              		.loc 1 67 0
 231 0004 0023     		movs	r3, #0
 232 0006 0093     		str	r3, [sp]
 233 0008 4022     		movs	r2, #64
 234 000a 044B     		ldr	r3, .L17
 235 000c 0448     		ldr	r0, .L17+4
 236 000e 40F69811 		movw	r1, #2456
 237 0012 FFF7FEFF 		bl	chThdCreateStatic
 238              	.LVL10:
 239              		.loc 1 68 0
 240 0016 03B0     		add	sp, sp, #12
 241              		.cfi_def_cfa_offset 4
 242              		@ sp needed
 243 0018 5DF804FB 		ldr	pc, [sp], #4
 244              	.L18:
 245              		.align	2
 246              	.L17:
 247 001c 00000000 		.word	detect_thread
 248 0020 00000000 		.word	.LANCHOR11
 249              		.cfi_endproc
 250              	.LFE259:
 251              		.size	commands_init, .-commands_init
 252              		.section	.text.commands_set_send_func,"ax",%progbits
 253              		.align	1
 254              		.p2align 4,,15
 255              		.global	commands_set_send_func
 256              		.syntax unified
 257              		.thumb
 258              		.thumb_func
 259              		.fpu fpv4-sp-d16
 260              		.type	commands_set_send_func, %function
 261              	commands_set_send_func:
 262              	.LFB260:
 263              		.loc 1 76 0
 264              		.cfi_startproc
 265              		@ args = 0, pretend = 0, frame = 0
 266              		@ frame_needed = 0, uses_anonymous_args = 0
 267              		@ link register save eliminated.
 268              	.LVL11:
 269              		.loc 1 77 0
 270 0000 014B     		ldr	r3, .L20
 271 0002 1860     		str	r0, [r3]
 272              		.loc 1 78 0
 273 0004 7047     		bx	lr
 274              	.L21:
 275 0006 00BF     		.align	2
 276              	.L20:
 277 0008 00000000 		.word	.LANCHOR10
 278              		.cfi_endproc
 279              	.LFE260:
 280              		.size	commands_set_send_func, .-commands_set_send_func
 281              		.section	.text.commands_send_packet,"ax",%progbits
 282              		.align	1
 283              		.p2align 4,,15
 284              		.global	commands_send_packet
 285              		.syntax unified
ARM GAS  /tmp/cc26jFNS.s 			page 6


 286              		.thumb
 287              		.thumb_func
 288              		.fpu fpv4-sp-d16
 289              		.type	commands_send_packet, %function
 290              	commands_send_packet:
 291              	.LFB261:
 292              		.loc 1 89 0
 293              		.cfi_startproc
 294              		@ args = 0, pretend = 0, frame = 0
 295              		@ frame_needed = 0, uses_anonymous_args = 0
 296              		@ link register save eliminated.
 297              	.LVL12:
 298              		.loc 1 90 0
 299 0000 024B     		ldr	r3, .L24
 300 0002 1B68     		ldr	r3, [r3]
 301 0004 03B1     		cbz	r3, .L22
 302              		.loc 1 91 0
 303 0006 1847     		bx	r3	@ indirect register sibling call
 304              	.LVL13:
 305              	.L22:
 306              		.loc 1 93 0
 307 0008 7047     		bx	lr
 308              	.L25:
 309 000a 00BF     		.align	2
 310              	.L24:
 311 000c 00000000 		.word	.LANCHOR10
 312              		.cfi_endproc
 313              	.LFE261:
 314              		.size	commands_send_packet, .-commands_send_packet
 315              		.section	.text.commands_printf,"ax",%progbits
 316              		.align	1
 317              		.p2align 4,,15
 318              		.global	commands_printf
 319              		.syntax unified
 320              		.thumb
 321              		.thumb_func
 322              		.fpu fpv4-sp-d16
 323              		.type	commands_printf, %function
 324              	commands_printf:
 325              	.LFB263:
 326              		.loc 1 866 0
 327              		.cfi_startproc
 328              		@ args = 4, pretend = 16, frame = 8
 329              		@ frame_needed = 0, uses_anonymous_args = 1
 330              	.LVL14:
 331 0000 0FB4     		push	{r0, r1, r2, r3}
 332              		.cfi_def_cfa_offset 16
 333              		.cfi_offset 0, -16
 334              		.cfi_offset 1, -12
 335              		.cfi_offset 2, -8
 336              		.cfi_offset 3, -4
 337 0002 10B5     		push	{r4, lr}
 338              		.cfi_def_cfa_offset 24
 339              		.cfi_offset 4, -24
 340              		.cfi_offset 14, -20
 341              		.loc 1 872 0
 342 0004 0E4C     		ldr	r4, .L32
ARM GAS  /tmp/cc26jFNS.s 			page 7


 343              		.loc 1 866 0
 344 0006 82B0     		sub	sp, sp, #8
 345              		.cfi_def_cfa_offset 32
 346              		.loc 1 866 0
 347 0008 04AB     		add	r3, sp, #16
 348              		.loc 1 872 0
 349 000a 2046     		mov	r0, r4
 350 000c 1521     		movs	r1, #21
 351              		.loc 1 866 0
 352 000e 53F8042B 		ldr	r2, [r3], #4
 353              		.loc 1 872 0
 354 0012 00F8011B 		strb	r1, [r0], #1
 355              		.loc 1 873 0
 356 0016 FE21     		movs	r1, #254
 357              		.loc 1 868 0
 358 0018 0193     		str	r3, [sp, #4]
 359              		.loc 1 873 0
 360 001a FFF7FEFF 		bl	vsnprintf
 361              	.LVL15:
 362              		.loc 1 876 0
 363 001e 0028     		cmp	r0, #0
 364 0020 08DD     		ble	.L26
 365              	.LBB76:
 366              	.LBB77:
 367              		.loc 1 90 0
 368 0022 084B     		ldr	r3, .L32+4
 369              	.LBE77:
 370              	.LBE76:
 371              		.loc 1 877 0
 372 0024 FE28     		cmp	r0, #254
 373              	.LBB80:
 374              	.LBB78:
 375              		.loc 1 90 0
 376 0026 1B68     		ldr	r3, [r3]
 377              	.LBE78:
 378              	.LBE80:
 379              		.loc 1 877 0
 380 0028 A8BF     		it	ge
 381 002a FE20     		movge	r0, #254
 382              	.LVL16:
 383 002c 411C     		adds	r1, r0, #1
 384              	.LVL17:
 385              	.LBB81:
 386              	.LBB79:
 387              		.loc 1 90 0
 388 002e 0BB1     		cbz	r3, .L26
 389              		.loc 1 91 0
 390 0030 2046     		mov	r0, r4
 391 0032 9847     		blx	r3
 392              	.LVL18:
 393              	.L26:
 394              	.LBE79:
 395              	.LBE81:
 396              		.loc 1 879 0
 397 0034 02B0     		add	sp, sp, #8
 398              		.cfi_def_cfa_offset 24
 399              		@ sp needed
ARM GAS  /tmp/cc26jFNS.s 			page 8


 400 0036 BDE81040 		pop	{r4, lr}
 401              		.cfi_restore 14
 402              		.cfi_restore 4
 403              		.cfi_def_cfa_offset 16
 404 003a 04B0     		add	sp, sp, #16
 405              		.cfi_restore 3
 406              		.cfi_restore 2
 407              		.cfi_restore 1
 408              		.cfi_restore 0
 409              		.cfi_def_cfa_offset 0
 410 003c 7047     		bx	lr
 411              	.L33:
 412 003e 00BF     		.align	2
 413              	.L32:
 414 0040 00000000 		.word	.LANCHOR12
 415 0044 00000000 		.word	.LANCHOR10
 416              		.cfi_endproc
 417              	.LFE263:
 418              		.size	commands_printf, .-commands_printf
 419              		.section	.text.commands_send_rotor_pos,"ax",%progbits
 420              		.align	1
 421              		.p2align 4,,15
 422              		.global	commands_send_rotor_pos
 423              		.syntax unified
 424              		.thumb
 425              		.thumb_func
 426              		.fpu fpv4-sp-d16
 427              		.type	commands_send_rotor_pos, %function
 428              	commands_send_rotor_pos:
 429              	.LFB264:
 430              		.loc 1 881 0
 431              		.cfi_startproc
 432              		@ args = 0, pretend = 0, frame = 16
 433              		@ frame_needed = 0, uses_anonymous_args = 0
 434              	.LVL19:
 435 0000 10B5     		push	{r4, lr}
 436              		.cfi_def_cfa_offset 8
 437              		.cfi_offset 4, -8
 438              		.cfi_offset 14, -4
 439              		.loc 1 886 0
 440 0002 DFED0D7A 		vldr.32	s15, .L40
 441 0006 20EE270A 		vmul.f32	s0, s0, s15
 442              	.LVL20:
 443              		.loc 1 881 0
 444 000a 84B0     		sub	sp, sp, #16
 445              		.cfi_def_cfa_offset 24
 446              		.loc 1 886 0
 447 000c FDEEC07A 		vcvt.s32.f32	s15, s0
 448              		.loc 1 885 0
 449 0010 1623     		movs	r3, #22
 450              		.loc 1 886 0
 451 0012 17EE901A 		vmov	r1, s15	@ int
 452 0016 02A8     		add	r0, sp, #8
 453              		.loc 1 885 0
 454 0018 0124     		movs	r4, #1
 455              		.loc 1 886 0
 456 001a 01AA     		add	r2, sp, #4
ARM GAS  /tmp/cc26jFNS.s 			page 9


 457              		.loc 1 885 0
 458 001c 8DF80830 		strb	r3, [sp, #8]
 459 0020 0194     		str	r4, [sp, #4]
 460              		.loc 1 886 0
 461 0022 FFF7FEFF 		bl	buffer_append_int32
 462              	.LVL21:
 463              	.LBB82:
 464              	.LBB83:
 465              		.loc 1 90 0
 466 0026 054B     		ldr	r3, .L40+4
 467              	.LBE83:
 468              	.LBE82:
 469              		.loc 1 888 0
 470 0028 0199     		ldr	r1, [sp, #4]
 471              	.LVL22:
 472              	.LBB85:
 473              	.LBB84:
 474              		.loc 1 90 0
 475 002a 1B68     		ldr	r3, [r3]
 476 002c 0BB1     		cbz	r3, .L34
 477              		.loc 1 91 0
 478 002e 02A8     		add	r0, sp, #8
 479              	.LVL23:
 480 0030 9847     		blx	r3
 481              	.LVL24:
 482              	.L34:
 483              	.LBE84:
 484              	.LBE85:
 485              		.loc 1 889 0
 486 0032 04B0     		add	sp, sp, #16
 487              		.cfi_def_cfa_offset 8
 488              		@ sp needed
 489 0034 10BD     		pop	{r4, pc}
 490              	.L41:
 491 0036 00BF     		.align	2
 492              	.L40:
 493 0038 0050C347 		.word	1203982336
 494 003c 00000000 		.word	.LANCHOR10
 495              		.cfi_endproc
 496              	.LFE264:
 497              		.size	commands_send_rotor_pos, .-commands_send_rotor_pos
 498              		.section	.text.commands_send_experiment_samples,"ax",%progbits
 499              		.align	1
 500              		.p2align 4,,15
 501              		.global	commands_send_experiment_samples
 502              		.syntax unified
 503              		.thumb
 504              		.thumb_func
 505              		.fpu fpv4-sp-d16
 506              		.type	commands_send_experiment_samples, %function
 507              	commands_send_experiment_samples:
 508              	.LFB265:
 509              		.loc 1 891 0
 510              		.cfi_startproc
 511              		@ args = 0, pretend = 0, frame = 8
 512              		@ frame_needed = 1, uses_anonymous_args = 0
 513              	.LVL25:
ARM GAS  /tmp/cc26jFNS.s 			page 10


 514 0000 2DE9F041 		push	{r4, r5, r6, r7, r8, lr}
 515              		.cfi_def_cfa_offset 24
 516              		.cfi_offset 4, -24
 517              		.cfi_offset 5, -20
 518              		.cfi_offset 6, -16
 519              		.cfi_offset 7, -12
 520              		.cfi_offset 8, -8
 521              		.cfi_offset 14, -4
 522 0004 2DED028B 		vpush.64	{d8}
 523              		.cfi_def_cfa_offset 32
 524              		.cfi_offset 80, -32
 525              		.cfi_offset 81, -28
 526              		.loc 1 892 0
 527 0008 8D00     		lsls	r5, r1, #2
 528              		.loc 1 891 0
 529 000a 82B0     		sub	sp, sp, #8
 530              		.cfi_def_cfa_offset 40
 531              		.loc 1 892 0
 532 000c FF2D     		cmp	r5, #255
 533              		.loc 1 891 0
 534 000e 00AF     		add	r7, sp, #0
 535              		.cfi_def_cfa_register 7
 536              		.loc 1 892 0
 537 0010 27DC     		bgt	.L42
 538              	.LVL26:
 539              		.loc 1 896 0
 540 0012 05F10803 		add	r3, r5, #8
 541 0016 23F00703 		bic	r3, r3, #7
 542 001a E846     		mov	r8, sp
 543 001c ADEB030D 		sub	sp, sp, r3
 544              		.loc 1 899 0
 545 0020 1722     		movs	r2, #23
 546 0022 0123     		movs	r3, #1
 547              	.LBB86:
 548              		.loc 1 901 0
 549 0024 0029     		cmp	r1, #0
 550              	.LBE86:
 551              		.loc 1 899 0
 552 0026 8DF80020 		strb	r2, [sp]
 553              		.loc 1 896 0
 554 002a 6E46     		mov	r6, sp
 555              	.LVL27:
 556              		.loc 1 899 0
 557 002c 7B60     		str	r3, [r7, #4]
 558              	.LBB87:
 559              		.loc 1 901 0
 560 002e 1EDD     		ble	.L48
 561              		.loc 1 902 0
 562 0030 9FED108A 		vldr.32	s16, .L54
 563 0034 0446     		mov	r4, r0
 564 0036 0544     		add	r5, r5, r0
 565              	.LVL28:
 566              	.L45:
 567              		.loc 1 902 0 is_stmt 0 discriminator 3
 568 0038 F4EC017A 		vldmia.32	r4!, {s15}
 569 003c 67EE887A 		vmul.f32	s15, s15, s16
 570 0040 3A1D     		adds	r2, r7, #4
ARM GAS  /tmp/cc26jFNS.s 			page 11


 571 0042 FDEEE77A 		vcvt.s32.f32	s15, s15
 572 0046 3046     		mov	r0, r6
 573 0048 17EE901A 		vmov	r1, s15	@ int
 574 004c FFF7FEFF 		bl	buffer_append_int32
 575              	.LVL29:
 576              		.loc 1 901 0 is_stmt 1 discriminator 3
 577 0050 A542     		cmp	r5, r4
 578 0052 F1D1     		bne	.L45
 579 0054 7968     		ldr	r1, [r7, #4]
 580              	.L44:
 581              	.LVL30:
 582              	.LBE87:
 583              	.LBB88:
 584              	.LBB89:
 585              		.loc 1 90 0
 586 0056 084B     		ldr	r3, .L54+4
 587 0058 1B68     		ldr	r3, [r3]
 588 005a 0BB1     		cbz	r3, .L46
 589              		.loc 1 91 0
 590 005c 3046     		mov	r0, r6
 591 005e 9847     		blx	r3
 592              	.LVL31:
 593              	.L46:
 594 0060 C546     		mov	sp, r8
 595              	.LVL32:
 596              	.L42:
 597              	.LBE89:
 598              	.LBE88:
 599              		.loc 1 906 0
 600 0062 0837     		adds	r7, r7, #8
 601              		.cfi_remember_state
 602              		.cfi_def_cfa_offset 32
 603 0064 BD46     		mov	sp, r7
 604              		.cfi_def_cfa_register 13
 605              		@ sp needed
 606 0066 BDEC028B 		vldm	sp!, {d8}
 607              		.cfi_restore 80
 608              		.cfi_restore 81
 609              		.cfi_def_cfa_offset 24
 610 006a BDE8F081 		pop	{r4, r5, r6, r7, r8, pc}
 611              	.LVL33:
 612              	.L48:
 613              		.cfi_restore_state
 614              	.LBB90:
 615              		.loc 1 901 0
 616 006e 1946     		mov	r1, r3
 617              	.LVL34:
 618 0070 F1E7     		b	.L44
 619              	.L55:
 620 0072 00BF     		.align	2
 621              	.L54:
 622 0074 00401C46 		.word	1176256512
 623 0078 00000000 		.word	.LANCHOR10
 624              	.LBE90:
 625              		.cfi_endproc
 626              	.LFE265:
 627              		.size	commands_send_experiment_samples, .-commands_send_experiment_samples
ARM GAS  /tmp/cc26jFNS.s 			page 12


 628              		.section	.text.commands_get_disp_pos_mode,"ax",%progbits
 629              		.align	1
 630              		.p2align 4,,15
 631              		.global	commands_get_disp_pos_mode
 632              		.syntax unified
 633              		.thumb
 634              		.thumb_func
 635              		.fpu fpv4-sp-d16
 636              		.type	commands_get_disp_pos_mode, %function
 637              	commands_get_disp_pos_mode:
 638              	.LFB266:
 639              		.loc 1 908 0
 640              		.cfi_startproc
 641              		@ args = 0, pretend = 0, frame = 0
 642              		@ frame_needed = 0, uses_anonymous_args = 0
 643              		@ link register save eliminated.
 644              		.loc 1 909 0
 645 0000 014B     		ldr	r3, .L57
 646              		.loc 1 910 0
 647 0002 1878     		ldrb	r0, [r3]	@ zero_extendqisi2
 648 0004 7047     		bx	lr
 649              	.L58:
 650 0006 00BF     		.align	2
 651              	.L57:
 652 0008 00000000 		.word	.LANCHOR13
 653              		.cfi_endproc
 654              	.LFE266:
 655              		.size	commands_get_disp_pos_mode, .-commands_get_disp_pos_mode
 656              		.section	.text.commands_set_app_data_handler,"ax",%progbits
 657              		.align	1
 658              		.p2align 4,,15
 659              		.global	commands_set_app_data_handler
 660              		.syntax unified
 661              		.thumb
 662              		.thumb_func
 663              		.fpu fpv4-sp-d16
 664              		.type	commands_set_app_data_handler, %function
 665              	commands_set_app_data_handler:
 666              	.LFB267:
 667              		.loc 1 912 0
 668              		.cfi_startproc
 669              		@ args = 0, pretend = 0, frame = 0
 670              		@ frame_needed = 0, uses_anonymous_args = 0
 671              		@ link register save eliminated.
 672              	.LVL35:
 673              		.loc 1 913 0
 674 0000 014B     		ldr	r3, .L60
 675 0002 1860     		str	r0, [r3]
 676              		.loc 1 914 0
 677 0004 7047     		bx	lr
 678              	.L61:
 679 0006 00BF     		.align	2
 680              	.L60:
 681 0008 00000000 		.word	.LANCHOR14
 682              		.cfi_endproc
 683              	.LFE267:
 684              		.size	commands_set_app_data_handler, .-commands_set_app_data_handler
ARM GAS  /tmp/cc26jFNS.s 			page 13


 685              		.section	.text.commands_send_app_data,"ax",%progbits
 686              		.align	1
 687              		.p2align 4,,15
 688              		.global	commands_send_app_data
 689              		.syntax unified
 690              		.thumb
 691              		.thumb_func
 692              		.fpu fpv4-sp-d16
 693              		.type	commands_send_app_data, %function
 694              	commands_send_app_data:
 695              	.LFB268:
 696              		.loc 1 916 0
 697              		.cfi_startproc
 698              		@ args = 0, pretend = 0, frame = 0
 699              		@ frame_needed = 0, uses_anonymous_args = 0
 700              	.LVL36:
 701 0000 70B5     		push	{r4, r5, r6, lr}
 702              		.cfi_def_cfa_offset 16
 703              		.cfi_offset 4, -16
 704              		.cfi_offset 5, -12
 705              		.cfi_offset 6, -8
 706              		.cfi_offset 14, -4
 707              		.loc 1 919 0
 708 0002 0A4D     		ldr	r5, .L65
 709              		.loc 1 916 0
 710 0004 0246     		mov	r2, r0
 711              		.loc 1 919 0
 712 0006 2846     		mov	r0, r5
 713              	.LVL37:
 714 0008 2423     		movs	r3, #36
 715              		.loc 1 916 0
 716 000a 0C46     		mov	r4, r1
 717              		.loc 1 919 0
 718 000c 00F8013B 		strb	r3, [r0], #1
 719              		.loc 1 920 0
 720 0010 1146     		mov	r1, r2
 721              	.LVL38:
 722 0012 2246     		mov	r2, r4
 723              	.LVL39:
 724 0014 FFF7FEFF 		bl	memcpy
 725              	.LVL40:
 726              	.LBB91:
 727              	.LBB92:
 728              		.loc 1 90 0
 729 0018 054B     		ldr	r3, .L65+4
 730 001a 1B68     		ldr	r3, [r3]
 731              	.LVL41:
 732 001c 23B1     		cbz	r3, .L62
 733 001e 611C     		adds	r1, r4, #1
 734              	.LVL42:
 735              		.loc 1 91 0
 736 0020 2846     		mov	r0, r5
 737              	.LBE92:
 738              	.LBE91:
 739              		.loc 1 924 0
 740 0022 BDE87040 		pop	{r4, r5, r6, lr}
 741              		.cfi_remember_state
ARM GAS  /tmp/cc26jFNS.s 			page 14


 742              		.cfi_restore 14
 743              		.cfi_restore 6
 744              		.cfi_restore 5
 745              		.cfi_restore 4
 746              		.cfi_def_cfa_offset 0
 747              	.LVL43:
 748              	.LBB94:
 749              	.LBB93:
 750              		.loc 1 91 0
 751 0026 1847     		bx	r3	@ indirect register sibling call
 752              	.LVL44:
 753              	.L62:
 754              		.cfi_restore_state
 755              	.LBE93:
 756              	.LBE94:
 757              		.loc 1 924 0
 758 0028 70BD     		pop	{r4, r5, r6, pc}
 759              	.LVL45:
 760              	.L66:
 761 002a 00BF     		.align	2
 762              	.L65:
 763 002c 00000000 		.word	.LANCHOR8
 764 0030 00000000 		.word	.LANCHOR10
 765              		.cfi_endproc
 766              	.LFE268:
 767              		.size	commands_send_app_data, .-commands_send_app_data
 768              		.section	.text.commands_send_appconf,"ax",%progbits
 769              		.align	1
 770              		.p2align 4,,15
 771              		.global	commands_send_appconf
 772              		.syntax unified
 773              		.thumb
 774              		.thumb_func
 775              		.fpu fpv4-sp-d16
 776              		.type	commands_send_appconf, %function
 777              	commands_send_appconf:
 778              	.LFB269:
 779              		.loc 1 926 0
 780              		.cfi_startproc
 781              		@ args = 0, pretend = 0, frame = 8
 782              		@ frame_needed = 0, uses_anonymous_args = 0
 783              	.LVL46:
 784 0000 F0B5     		push	{r4, r5, r6, r7, lr}
 785              		.cfi_def_cfa_offset 20
 786              		.cfi_offset 4, -20
 787              		.cfi_offset 5, -16
 788              		.cfi_offset 6, -12
 789              		.cfi_offset 7, -8
 790              		.cfi_offset 14, -4
 791              		.loc 1 928 0
 792 0002 AF4D     		ldr	r5, .L73
 793              		.loc 1 926 0
 794 0004 83B0     		sub	sp, sp, #12
 795              		.cfi_def_cfa_offset 32
 796              		.loc 1 929 0
 797 0006 02AE     		add	r6, sp, #8
 798              		.loc 1 928 0
ARM GAS  /tmp/cc26jFNS.s 			page 15


 799 0008 2870     		strb	r0, [r5]
 800              		.loc 1 929 0
 801 000a 0222     		movs	r2, #2
 802 000c 46F8042D 		str	r2, [r6, #-4]!
 803 0010 0B78     		ldrb	r3, [r1]	@ zero_extendqisi2
 804 0012 6B70     		strb	r3, [r5, #1]
 805              		.loc 1 926 0
 806 0014 0C46     		mov	r4, r1
 807              		.loc 1 930 0
 808 0016 3246     		mov	r2, r6
 809 0018 4968     		ldr	r1, [r1, #4]
 810              	.LVL47:
 811 001a 2846     		mov	r0, r5
 812              	.LVL48:
 813 001c FFF7FEFF 		bl	buffer_append_uint32
 814              	.LVL49:
 815              		.loc 1 931 0
 816 0020 3146     		mov	r1, r6
 817 0022 94ED020A 		vldr.32	s0, [r4, #8]
 818 0026 2846     		mov	r0, r5
 819 0028 FFF7FEFF 		bl	buffer_append_float32_auto
 820              	.LVL50:
 821              		.loc 1 932 0
 822 002c 019B     		ldr	r3, [sp, #4]
 823 002e 227B     		ldrb	r2, [r4, #12]	@ zero_extendqisi2
 824 0030 EA54     		strb	r2, [r5, r3]
 825              		.loc 1 933 0
 826 0032 2846     		mov	r0, r5
 827              		.loc 1 932 0
 828 0034 0133     		adds	r3, r3, #1
 829              		.loc 1 933 0
 830 0036 3246     		mov	r2, r6
 831 0038 218A     		ldrh	r1, [r4, #16]
 832              		.loc 1 932 0
 833 003a 0193     		str	r3, [sp, #4]
 834              		.loc 1 933 0
 835 003c FFF7FEFF 		bl	buffer_append_uint16
 836              	.LVL51:
 837              		.loc 1 934 0
 838 0040 019B     		ldr	r3, [sp, #4]
 839 0042 227D     		ldrb	r2, [r4, #20]	@ zero_extendqisi2
 840 0044 EA54     		strb	r2, [r5, r3]
 841              		.loc 1 936 0
 842 0046 EA18     		adds	r2, r5, r3
 843 0048 617D     		ldrb	r1, [r4, #21]	@ zero_extendqisi2
 844 004a 5170     		strb	r1, [r2, #1]
 845              		.loc 1 938 0
 846 004c 217E     		ldrb	r1, [r4, #24]	@ zero_extendqisi2
 847 004e 9170     		strb	r1, [r2, #2]
 848 0050 0333     		adds	r3, r3, #3
 849              		.loc 1 939 0
 850 0052 3146     		mov	r1, r6
 851 0054 94ED070A 		vldr.32	s0, [r4, #28]
 852              		.loc 1 938 0
 853 0058 0193     		str	r3, [sp, #4]
 854              		.loc 1 939 0
 855 005a 2846     		mov	r0, r5
ARM GAS  /tmp/cc26jFNS.s 			page 16


 856 005c FFF7FEFF 		bl	buffer_append_float32_auto
 857              	.LVL52:
 858              		.loc 1 940 0
 859 0060 3146     		mov	r1, r6
 860 0062 94ED080A 		vldr.32	s0, [r4, #32]
 861 0066 2846     		mov	r0, r5
 862 0068 FFF7FEFF 		bl	buffer_append_float32_auto
 863              	.LVL53:
 864              		.loc 1 941 0
 865 006c 3146     		mov	r1, r6
 866 006e 94ED090A 		vldr.32	s0, [r4, #36]
 867 0072 2846     		mov	r0, r5
 868 0074 FFF7FEFF 		bl	buffer_append_float32_auto
 869              	.LVL54:
 870              		.loc 1 942 0
 871 0078 3146     		mov	r1, r6
 872 007a 94ED0A0A 		vldr.32	s0, [r4, #40]
 873 007e 2846     		mov	r0, r5
 874 0080 FFF7FEFF 		bl	buffer_append_float32_auto
 875              	.LVL55:
 876              		.loc 1 943 0
 877 0084 3146     		mov	r1, r6
 878 0086 94ED0B0A 		vldr.32	s0, [r4, #44]
 879 008a 2846     		mov	r0, r5
 880 008c FFF7FEFF 		bl	buffer_append_float32_auto
 881              	.LVL56:
 882              		.loc 1 944 0
 883 0090 019B     		ldr	r3, [sp, #4]
 884 0092 94F83020 		ldrb	r2, [r4, #48]	@ zero_extendqisi2
 885 0096 EA54     		strb	r2, [r5, r3]
 886              		.loc 1 945 0
 887 0098 EA18     		adds	r2, r5, r3
 888 009a 94F83110 		ldrb	r1, [r4, #49]	@ zero_extendqisi2
 889 009e 5170     		strb	r1, [r2, #1]
 890 00a0 0233     		adds	r3, r3, #2
 891              		.loc 1 946 0
 892 00a2 3146     		mov	r1, r6
 893 00a4 94ED0D0A 		vldr.32	s0, [r4, #52]
 894              		.loc 1 945 0
 895 00a8 0193     		str	r3, [sp, #4]
 896              		.loc 1 946 0
 897 00aa 2846     		mov	r0, r5
 898 00ac FFF7FEFF 		bl	buffer_append_float32_auto
 899              	.LVL57:
 900              		.loc 1 947 0
 901 00b0 3146     		mov	r1, r6
 902 00b2 94ED0E0A 		vldr.32	s0, [r4, #56]
 903 00b6 2846     		mov	r0, r5
 904 00b8 FFF7FEFF 		bl	buffer_append_float32_auto
 905              	.LVL58:
 906              		.loc 1 948 0
 907 00bc 019B     		ldr	r3, [sp, #4]
 908 00be 94F83C20 		ldrb	r2, [r4, #60]	@ zero_extendqisi2
 909 00c2 EA54     		strb	r2, [r5, r3]
 910              		.loc 1 949 0
 911 00c4 3146     		mov	r1, r6
 912              		.loc 1 948 0
ARM GAS  /tmp/cc26jFNS.s 			page 17


 913 00c6 0133     		adds	r3, r3, #1
 914              		.loc 1 949 0
 915 00c8 94ED100A 		vldr.32	s0, [r4, #64]
 916              		.loc 1 948 0
 917 00cc 0193     		str	r3, [sp, #4]
 918              		.loc 1 949 0
 919 00ce 2846     		mov	r0, r5
 920 00d0 FFF7FEFF 		bl	buffer_append_float32_auto
 921              	.LVL59:
 922              		.loc 1 950 0
 923 00d4 3146     		mov	r1, r6
 924 00d6 94ED110A 		vldr.32	s0, [r4, #68]
 925 00da 2846     		mov	r0, r5
 926 00dc FFF7FEFF 		bl	buffer_append_float32_auto
 927              	.LVL60:
 928              		.loc 1 951 0
 929 00e0 019B     		ldr	r3, [sp, #4]
 930 00e2 94F84820 		ldrb	r2, [r4, #72]	@ zero_extendqisi2
 931 00e6 EA54     		strb	r2, [r5, r3]
 932              		.loc 1 952 0
 933 00e8 EA18     		adds	r2, r5, r3
 934 00ea 94F84910 		ldrb	r1, [r4, #73]	@ zero_extendqisi2
 935 00ee 5170     		strb	r1, [r2, #1]
 936 00f0 0233     		adds	r3, r3, #2
 937              		.loc 1 953 0
 938 00f2 3146     		mov	r1, r6
 939 00f4 94ED130A 		vldr.32	s0, [r4, #76]
 940              		.loc 1 952 0
 941 00f8 0193     		str	r3, [sp, #4]
 942              		.loc 1 953 0
 943 00fa 2846     		mov	r0, r5
 944 00fc FFF7FEFF 		bl	buffer_append_float32_auto
 945              	.LVL61:
 946              		.loc 1 955 0
 947 0100 019B     		ldr	r3, [sp, #4]
 948 0102 94F85020 		ldrb	r2, [r4, #80]	@ zero_extendqisi2
 949 0106 EA54     		strb	r2, [r5, r3]
 950              		.loc 1 956 0
 951 0108 3146     		mov	r1, r6
 952              		.loc 1 955 0
 953 010a 0133     		adds	r3, r3, #1
 954              		.loc 1 956 0
 955 010c 94ED150A 		vldr.32	s0, [r4, #84]
 956              		.loc 1 955 0
 957 0110 0193     		str	r3, [sp, #4]
 958              		.loc 1 956 0
 959 0112 2846     		mov	r0, r5
 960 0114 FFF7FEFF 		bl	buffer_append_float32_auto
 961              	.LVL62:
 962              		.loc 1 957 0
 963 0118 3146     		mov	r1, r6
 964 011a 94ED160A 		vldr.32	s0, [r4, #88]
 965 011e 2846     		mov	r0, r5
 966 0120 FFF7FEFF 		bl	buffer_append_float32_auto
 967              	.LVL63:
 968              		.loc 1 958 0
 969 0124 3146     		mov	r1, r6
ARM GAS  /tmp/cc26jFNS.s 			page 18


 970 0126 94ED170A 		vldr.32	s0, [r4, #92]
 971 012a 2846     		mov	r0, r5
 972 012c FFF7FEFF 		bl	buffer_append_float32_auto
 973              	.LVL64:
 974              		.loc 1 959 0
 975 0130 3146     		mov	r1, r6
 976 0132 94ED180A 		vldr.32	s0, [r4, #96]
 977 0136 2846     		mov	r0, r5
 978 0138 FFF7FEFF 		bl	buffer_append_float32_auto
 979              	.LVL65:
 980              		.loc 1 960 0
 981 013c 3146     		mov	r1, r6
 982 013e 94ED190A 		vldr.32	s0, [r4, #100]
 983 0142 2846     		mov	r0, r5
 984 0144 FFF7FEFF 		bl	buffer_append_float32_auto
 985              	.LVL66:
 986              		.loc 1 961 0
 987 0148 3146     		mov	r1, r6
 988 014a 94ED1A0A 		vldr.32	s0, [r4, #104]
 989 014e 2846     		mov	r0, r5
 990 0150 FFF7FEFF 		bl	buffer_append_float32_auto
 991              	.LVL67:
 992              		.loc 1 962 0
 993 0154 019B     		ldr	r3, [sp, #4]
 994 0156 94F86C20 		ldrb	r2, [r4, #108]	@ zero_extendqisi2
 995 015a EA54     		strb	r2, [r5, r3]
 996              		.loc 1 963 0
 997 015c EA18     		adds	r2, r5, r3
 998 015e 94F86D10 		ldrb	r1, [r4, #109]	@ zero_extendqisi2
 999 0162 5170     		strb	r1, [r2, #1]
 1000              		.loc 1 964 0
 1001 0164 94F86E10 		ldrb	r1, [r4, #110]	@ zero_extendqisi2
 1002 0168 9170     		strb	r1, [r2, #2]
 1003              		.loc 1 965 0
 1004 016a 94F86F10 		ldrb	r1, [r4, #111]	@ zero_extendqisi2
 1005 016e D170     		strb	r1, [r2, #3]
 1006              		.loc 1 966 0
 1007 0170 94F87010 		ldrb	r1, [r4, #112]	@ zero_extendqisi2
 1008 0174 1171     		strb	r1, [r2, #4]
 1009              		.loc 1 967 0
 1010 0176 94F87110 		ldrb	r1, [r4, #113]	@ zero_extendqisi2
 1011 017a 5171     		strb	r1, [r2, #5]
 1012 017c 0633     		adds	r3, r3, #6
 1013              		.loc 1 968 0
 1014 017e 3146     		mov	r1, r6
 1015 0180 94ED1D0A 		vldr.32	s0, [r4, #116]
 1016              		.loc 1 967 0
 1017 0184 0193     		str	r3, [sp, #4]
 1018              		.loc 1 968 0
 1019 0186 2846     		mov	r0, r5
 1020 0188 FFF7FEFF 		bl	buffer_append_float32_auto
 1021              	.LVL68:
 1022              		.loc 1 969 0
 1023 018c 3146     		mov	r1, r6
 1024 018e 94ED1E0A 		vldr.32	s0, [r4, #120]
 1025 0192 2846     		mov	r0, r5
 1026 0194 FFF7FEFF 		bl	buffer_append_float32_auto
ARM GAS  /tmp/cc26jFNS.s 			page 19


 1027              	.LVL69:
 1028              		.loc 1 970 0
 1029 0198 019B     		ldr	r3, [sp, #4]
 1030 019a 94F87C20 		ldrb	r2, [r4, #124]	@ zero_extendqisi2
 1031 019e EA54     		strb	r2, [r5, r3]
 1032              		.loc 1 971 0
 1033 01a0 3146     		mov	r1, r6
 1034              		.loc 1 970 0
 1035 01a2 0133     		adds	r3, r3, #1
 1036              		.loc 1 971 0
 1037 01a4 94ED200A 		vldr.32	s0, [r4, #128]
 1038              		.loc 1 970 0
 1039 01a8 0193     		str	r3, [sp, #4]
 1040              		.loc 1 971 0
 1041 01aa 2846     		mov	r0, r5
 1042 01ac FFF7FEFF 		bl	buffer_append_float32_auto
 1043              	.LVL70:
 1044              		.loc 1 972 0
 1045 01b0 3146     		mov	r1, r6
 1046 01b2 94ED210A 		vldr.32	s0, [r4, #132]
 1047 01b6 2846     		mov	r0, r5
 1048 01b8 FFF7FEFF 		bl	buffer_append_float32_auto
 1049              	.LVL71:
 1050              		.loc 1 973 0
 1051 01bc 019B     		ldr	r3, [sp, #4]
 1052 01be 94F88820 		ldrb	r2, [r4, #136]	@ zero_extendqisi2
 1053 01c2 EA54     		strb	r2, [r5, r3]
 1054              		.loc 1 974 0
 1055 01c4 EA18     		adds	r2, r5, r3
 1056 01c6 94F88910 		ldrb	r1, [r4, #137]	@ zero_extendqisi2
 1057 01ca 5170     		strb	r1, [r2, #1]
 1058 01cc 0233     		adds	r3, r3, #2
 1059              		.loc 1 975 0
 1060 01ce 94ED230A 		vldr.32	s0, [r4, #140]
 1061              		.loc 1 974 0
 1062 01d2 0193     		str	r3, [sp, #4]
 1063              		.loc 1 975 0
 1064 01d4 3146     		mov	r1, r6
 1065 01d6 2846     		mov	r0, r5
 1066 01d8 FFF7FEFF 		bl	buffer_append_float32_auto
 1067              	.LVL72:
 1068              		.loc 1 976 0
 1069 01dc 3246     		mov	r2, r6
 1070 01de B4F89010 		ldrh	r1, [r4, #144]
 1071 01e2 2846     		mov	r0, r5
 1072 01e4 FFF7FEFF 		bl	buffer_append_uint16
 1073              	.LVL73:
 1074              		.loc 1 978 0
 1075 01e8 3246     		mov	r2, r6
 1076 01ea D4F89410 		ldr	r1, [r4, #148]
 1077 01ee 2846     		mov	r0, r5
 1078 01f0 FFF7FEFF 		bl	buffer_append_uint32
 1079              	.LVL74:
 1080              		.loc 1 980 0
 1081 01f4 019B     		ldr	r3, [sp, #4]
 1082 01f6 94F89820 		ldrb	r2, [r4, #152]	@ zero_extendqisi2
 1083 01fa EA54     		strb	r2, [r5, r3]
ARM GAS  /tmp/cc26jFNS.s 			page 20


 1084              		.loc 1 981 0
 1085 01fc 3146     		mov	r1, r6
 1086              		.loc 1 980 0
 1087 01fe 0133     		adds	r3, r3, #1
 1088              		.loc 1 981 0
 1089 0200 94ED270A 		vldr.32	s0, [r4, #156]
 1090              		.loc 1 980 0
 1091 0204 0193     		str	r3, [sp, #4]
 1092              		.loc 1 981 0
 1093 0206 2846     		mov	r0, r5
 1094 0208 FFF7FEFF 		bl	buffer_append_float32_auto
 1095              	.LVL75:
 1096              		.loc 1 982 0
 1097 020c 3146     		mov	r1, r6
 1098 020e 94ED280A 		vldr.32	s0, [r4, #160]
 1099 0212 2846     		mov	r0, r5
 1100 0214 FFF7FEFF 		bl	buffer_append_float32_auto
 1101              	.LVL76:
 1102              		.loc 1 983 0
 1103 0218 3146     		mov	r1, r6
 1104 021a 94ED290A 		vldr.32	s0, [r4, #164]
 1105 021e 2846     		mov	r0, r5
 1106 0220 FFF7FEFF 		bl	buffer_append_float32_auto
 1107              	.LVL77:
 1108              		.loc 1 984 0
 1109 0224 3146     		mov	r1, r6
 1110 0226 94ED2A0A 		vldr.32	s0, [r4, #168]
 1111 022a 2846     		mov	r0, r5
 1112 022c FFF7FEFF 		bl	buffer_append_float32_auto
 1113              	.LVL78:
 1114              		.loc 1 985 0
 1115 0230 3146     		mov	r1, r6
 1116 0232 94ED2B0A 		vldr.32	s0, [r4, #172]
 1117 0236 2846     		mov	r0, r5
 1118 0238 FFF7FEFF 		bl	buffer_append_float32_auto
 1119              	.LVL79:
 1120              		.loc 1 986 0
 1121 023c 3146     		mov	r1, r6
 1122 023e 94ED2C0A 		vldr.32	s0, [r4, #176]
 1123 0242 2846     		mov	r0, r5
 1124 0244 FFF7FEFF 		bl	buffer_append_float32_auto
 1125              	.LVL80:
 1126              		.loc 1 987 0
 1127 0248 019B     		ldr	r3, [sp, #4]
 1128 024a 94F8B420 		ldrb	r2, [r4, #180]	@ zero_extendqisi2
 1129 024e EA54     		strb	r2, [r5, r3]
 1130              		.loc 1 988 0
 1131 0250 EA18     		adds	r2, r5, r3
 1132 0252 94F8B510 		ldrb	r1, [r4, #181]	@ zero_extendqisi2
 1133 0256 5170     		strb	r1, [r2, #1]
 1134              		.loc 1 989 0
 1135 0258 94F8B610 		ldrb	r1, [r4, #182]	@ zero_extendqisi2
 1136 025c 9170     		strb	r1, [r2, #2]
 1137 025e 0333     		adds	r3, r3, #3
 1138              		.loc 1 990 0
 1139 0260 3146     		mov	r1, r6
 1140 0262 2846     		mov	r0, r5
ARM GAS  /tmp/cc26jFNS.s 			page 21


 1141 0264 94ED2E0A 		vldr.32	s0, [r4, #184]
 1142              		.loc 1 989 0
 1143 0268 0193     		str	r3, [sp, #4]
 1144              		.loc 1 990 0
 1145 026a FFF7FEFF 		bl	buffer_append_float32_auto
 1146              	.LVL81:
 1147              		.loc 1 992 0
 1148 026e 0199     		ldr	r1, [sp, #4]
 1149 0270 94F8BC30 		ldrb	r3, [r4, #188]	@ zero_extendqisi2
 1150 0274 6B54     		strb	r3, [r5, r1]
 1151              		.loc 1 993 0
 1152 0276 6B18     		adds	r3, r5, r1
 1153 0278 94F8BD20 		ldrb	r2, [r4, #189]	@ zero_extendqisi2
 1154 027c 5A70     		strb	r2, [r3, #1]
 1155              		.loc 1 994 0
 1156 027e 94F8BE20 		ldrb	r2, [r4, #190]	@ zero_extendqisi2
 1157 0282 9A70     		strb	r2, [r3, #2]
 1158              		.loc 1 995 0
 1159 0284 94F8BF20 		ldrb	r2, [r4, #191]	@ zero_extendqisi2
 1160 0288 DA70     		strb	r2, [r3, #3]
 1161              		.loc 1 996 0
 1162 028a 94F8C020 		ldrb	r2, [r4, #192]	@ zero_extendqisi2
 1163 028e 1A71     		strb	r2, [r3, #4]
 1164              		.loc 1 997 0
 1165 0290 94F8C120 		ldrb	r2, [r4, #193]	@ zero_extendqisi2
 1166 0294 5A71     		strb	r2, [r3, #5]
 1167              		.loc 1 998 0
 1168 0296 2046     		mov	r0, r4
 1169              		.loc 1 997 0
 1170 0298 8A1D     		adds	r2, r1, #6
 1171              		.loc 1 998 0
 1172 029a 30F8C27F 		ldrh	r7, [r0, #194]!	@ unaligned
 1173              	.LBB95:
 1174              	.LBB96:
 1175              		.loc 1 90 0
 1176 029e 094E     		ldr	r6, .L73+4
 1177              	.LBE96:
 1178              	.LBE95:
 1179              		.loc 1 998 0
 1180 02a0 8078     		ldrb	r0, [r0, #2]	@ zero_extendqisi2
 1181 02a2 AF52     		strh	r7, [r5, r2]	@ unaligned
 1182 02a4 2A44     		add	r2, r2, r5
 1183              	.LBB99:
 1184              	.LBB97:
 1185              		.loc 1 90 0
 1186 02a6 3668     		ldr	r6, [r6]
 1187              	.LBE97:
 1188              	.LBE99:
 1189              		.loc 1 998 0
 1190 02a8 9070     		strb	r0, [r2, #2]
 1191              		.loc 1 1000 0
 1192 02aa 94F8C520 		ldrb	r2, [r4, #197]	@ zero_extendqisi2
 1193 02ae 5A72     		strb	r2, [r3, #9]
 1194              	.LVL82:
 1195 02b0 0A31     		adds	r1, r1, #10
 1196              	.LVL83:
 1197 02b2 0191     		str	r1, [sp, #4]
ARM GAS  /tmp/cc26jFNS.s 			page 22


 1198              	.LBB100:
 1199              	.LBB98:
 1200              		.loc 1 90 0
 1201 02b4 0EB1     		cbz	r6, .L67
 1202              		.loc 1 91 0
 1203 02b6 2846     		mov	r0, r5
 1204 02b8 B047     		blx	r6
 1205              	.LVL84:
 1206              	.L67:
 1207              	.LBE98:
 1208              	.LBE100:
 1209              		.loc 1 1003 0
 1210 02ba 03B0     		add	sp, sp, #12
 1211              		.cfi_def_cfa_offset 20
 1212              		@ sp needed
 1213 02bc F0BD     		pop	{r4, r5, r6, r7, pc}
 1214              	.LVL85:
 1215              	.L74:
 1216 02be 00BF     		.align	2
 1217              	.L73:
 1218 02c0 00000000 		.word	.LANCHOR8
 1219 02c4 00000000 		.word	.LANCHOR10
 1220              		.cfi_endproc
 1221              	.LFE269:
 1222              		.size	commands_send_appconf, .-commands_send_appconf
 1223              		.section	.text.commands_process_packet,"ax",%progbits
 1224              		.align	1
 1225              		.p2align 4,,15
 1226              		.global	commands_process_packet
 1227              		.syntax unified
 1228              		.thumb
 1229              		.thumb_func
 1230              		.fpu fpv4-sp-d16
 1231              		.type	commands_process_packet, %function
 1232              	commands_process_packet:
 1233              	.LFB262:
 1234              		.loc 1 104 0
 1235              		.cfi_startproc
 1236              		@ args = 0, pretend = 0, frame = 216
 1237              		@ frame_needed = 0, uses_anonymous_args = 0
 1238              	.LVL86:
 1239              		.loc 1 105 0
 1240 0000 0029     		cmp	r1, #0
 1241 0002 00F08380 		beq	.L185
 1242              		.loc 1 104 0
 1243 0006 2DE9F047 		push	{r4, r5, r6, r7, r8, r9, r10, lr}
 1244              		.cfi_def_cfa_offset 32
 1245              		.cfi_offset 4, -32
 1246              		.cfi_offset 5, -28
 1247              		.cfi_offset 6, -24
 1248              		.cfi_offset 7, -20
 1249              		.cfi_offset 8, -16
 1250              		.cfi_offset 9, -12
 1251              		.cfi_offset 10, -8
 1252              		.cfi_offset 14, -4
 1253 000a 2DED048B 		vpush.64	{d8, d9}
 1254              		.cfi_def_cfa_offset 48
ARM GAS  /tmp/cc26jFNS.s 			page 23


 1255              		.cfi_offset 80, -48
 1256              		.cfi_offset 81, -44
 1257              		.cfi_offset 82, -40
 1258              		.cfi_offset 83, -36
 1259              		.loc 1 117 0
 1260 000e 0446     		mov	r4, r0
 1261              		.loc 1 104 0
 1262 0010 B6B0     		sub	sp, sp, #216
 1263              		.cfi_def_cfa_offset 264
 1264              		.loc 1 117 0
 1265 0012 14F8018B 		ldrb	r8, [r4], #1	@ zero_extendqisi2
 1266              	.LVL87:
 1267              		.loc 1 110 0
 1268 0016 0023     		movs	r3, #0
 1269 0018 0746     		mov	r7, r0
 1270 001a 0293     		str	r3, [sp, #8]
 1271              		.loc 1 119 0
 1272 001c 4D1E     		subs	r5, r1, #1
 1273              	.LVL88:
 1274              		.loc 1 121 0
 1275 001e B8F1250F 		cmp	r8, #37
 1276 0022 6ED8     		bhi	.L75
 1277 0024 DFE818F0 		tbh	[pc, r8, lsl #1]
 1278              	.L79:
 1279 0028 1509     		.2byte	(.L78-.L79)/2
 1280 002a DB0A     		.2byte	(.L80-.L79)/2
 1281 002c C50A     		.2byte	(.L81-.L79)/2
 1282 002e A80A     		.2byte	(.L82-.L79)/2
 1283 0030 EB09     		.2byte	(.L83-.L79)/2
 1284 0032 F10A     		.2byte	(.L84-.L79)/2
 1285 0034 DF0A     		.2byte	(.L85-.L79)/2
 1286 0036 030B     		.2byte	(.L86-.L79)/2
 1287 0038 0709     		.2byte	(.L87-.L79)/2
 1288 003a F508     		.2byte	(.L88-.L79)/2
 1289 003c E908     		.2byte	(.L89-.L79)/2
 1290 003e 7300     		.2byte	(.L90-.L79)/2
 1291 0040 6D00     		.2byte	(.L75-.L79)/2
 1292 0042 FC05     		.2byte	(.L91-.L79)/2
 1293 0044 B803     		.2byte	(.L92-.L79)/2
 1294 0046 B803     		.2byte	(.L92-.L79)/2
 1295 0048 0002     		.2byte	(.L93-.L79)/2
 1296 004a E401     		.2byte	(.L94-.L79)/2
 1297 004c E401     		.2byte	(.L94-.L79)/2
 1298 004e D301     		.2byte	(.L95-.L79)/2
 1299 0050 CD01     		.2byte	(.L96-.L79)/2
 1300 0052 6D00     		.2byte	(.L75-.L79)/2
 1301 0054 6D00     		.2byte	(.L75-.L79)/2
 1302 0056 6D00     		.2byte	(.L75-.L79)/2
 1303 0058 A801     		.2byte	(.L97-.L79)/2
 1304 005a 2600     		.2byte	(.L98-.L79)/2
 1305 005c 4B01     		.2byte	(.L99-.L79)/2
 1306 005e E000     		.2byte	(.L100-.L79)/2
 1307 0060 8F00     		.2byte	(.L101-.L79)/2
 1308 0062 8D00     		.2byte	(.L102-.L79)/2
 1309 0064 8A00     		.2byte	(.L103-.L79)/2
 1310 0066 CD09     		.2byte	(.L104-.L79)/2
 1311 0068 9809     		.2byte	(.L105-.L79)/2
ARM GAS  /tmp/cc26jFNS.s 			page 24


 1312 006a 7B09     		.2byte	(.L106-.L79)/2
 1313 006c 7309     		.2byte	(.L107-.L79)/2
 1314 006e 4D09     		.2byte	(.L108-.L79)/2
 1315 0070 4509     		.2byte	(.L109-.L79)/2
 1316 0072 3209     		.2byte	(.L110-.L79)/2
 1317              		.p2align 1
 1318              	.L98:
 1319              	.LBB101:
 1320              		.loc 1 653 0
 1321 0074 FFF7FEFF 		bl	mc_interface_get_configuration
 1322              	.LVL89:
 1323 0078 B34C     		ldr	r4, .L200
 1324              	.LVL90:
 1325              		.loc 1 656 0
 1326 007a B44D     		ldr	r5, .L200+4
 1327              	.LVL91:
 1328 007c B44E     		ldr	r6, .L200+8
 1329              		.loc 1 653 0
 1330 007e 0146     		mov	r1, r0
 1331 0080 4FF4C272 		mov	r2, #388
 1332 0084 2046     		mov	r0, r4
 1333 0086 FFF7FEFF 		bl	memcpy
 1334              	.LVL92:
 1335              		.loc 1 654 0
 1336 008a 2146     		mov	r1, r4
 1337 008c 4FF4C272 		mov	r2, #388
 1338 0090 B048     		ldr	r0, .L200+12
 1339 0092 FFF7FEFF 		bl	memcpy
 1340              	.LVL93:
 1341              		.loc 1 658 0
 1342 0096 0222     		movs	r2, #2
 1343              		.loc 1 659 0
 1344 0098 2046     		mov	r0, r4
 1345              		.loc 1 656 0
 1346 009a 2B68     		ldr	r3, [r5]
 1347              		.loc 1 658 0
 1348 009c A270     		strb	r2, [r4, #2]
 1349              		.loc 1 656 0
 1350 009e 3360     		str	r3, [r6]
 1351              		.loc 1 659 0
 1352 00a0 FFF7FEFF 		bl	mc_interface_set_configuration
 1353              	.LVL94:
 1354              		.loc 1 662 0
 1355 00a4 36A9     		add	r1, sp, #216
 1356              		.loc 1 661 0
 1357 00a6 0024     		movs	r4, #0
 1358              		.loc 1 663 0
 1359 00a8 03A8     		add	r0, sp, #12
 1360              		.loc 1 662 0
 1361 00aa 41F8C84D 		str	r4, [r1, #-200]!	@ float
 1362              		.loc 1 661 0
 1363 00ae 0394     		str	r4, [sp, #12]	@ float
 1364              		.loc 1 663 0
 1365 00b0 FFF7FEFF 		bl	mcpwm_foc_measure_res_ind
 1366              	.LVL95:
 1367 00b4 0746     		mov	r7, r0
 1368              	.LVL96:
ARM GAS  /tmp/cc26jFNS.s 			page 25


 1369              		.loc 1 664 0
 1370 00b6 A748     		ldr	r0, .L200+12
 1371 00b8 FFF7FEFF 		bl	mc_interface_set_configuration
 1372              	.LVL97:
 1373              		.loc 1 666 0
 1374 00bc 0FB9     		cbnz	r7, .L119
 1375              		.loc 1 667 0
 1376 00be 0394     		str	r4, [sp, #12]	@ float
 1377              		.loc 1 668 0
 1378 00c0 0494     		str	r4, [sp, #16]	@ float
 1379              	.L119:
 1380              		.loc 1 672 0
 1381 00c2 36AF     		add	r7, sp, #216
 1382              	.LVL98:
 1383 00c4 0123     		movs	r3, #1
 1384 00c6 47F8D03D 		str	r3, [r7, #-208]!
 1385 00ca A34C     		ldr	r4, .L200+16
 1386              		.loc 1 673 0
 1387 00cc DFEDA30A 		vldr.32	s1, .L200+20
 1388 00d0 9DED030A 		vldr.32	s0, [sp, #12]
 1389              		.loc 1 672 0
 1390 00d4 1923     		movs	r3, #25
 1391              		.loc 1 673 0
 1392 00d6 3946     		mov	r1, r7
 1393 00d8 2046     		mov	r0, r4
 1394              		.loc 1 672 0
 1395 00da 2370     		strb	r3, [r4]
 1396              		.loc 1 673 0
 1397 00dc FFF7FEFF 		bl	buffer_append_float32
 1398              	.LVL99:
 1399              		.loc 1 674 0
 1400 00e0 3946     		mov	r1, r7
 1401 00e2 2046     		mov	r0, r4
 1402 00e4 DFEDA30A 		vldr.32	s1, .L200+44
 1403 00e8 9DED040A 		vldr.32	s0, [sp, #16]
 1404 00ec FFF7FEFF 		bl	buffer_append_float32
 1405              	.LVL100:
 1406              		.loc 1 675 0
 1407 00f0 3368     		ldr	r3, [r6]
 1408 00f2 002B     		cmp	r3, #0
 1409 00f4 40F02481 		bne	.L191
 1410              	.L123:
 1411              	.LBE101:
 1412              	.LBB102:
 1413              	.LBB103:
 1414              	.LBB104:
 1415              		.loc 1 90 0
 1416 00f8 2B68     		ldr	r3, [r5]
 1417              	.LBE104:
 1418              	.LBE103:
 1419              		.loc 1 705 0
 1420 00fa 0299     		ldr	r1, [sp, #8]
 1421              	.LVL101:
 1422              	.LBB106:
 1423              	.LBB105:
 1424              		.loc 1 90 0
 1425 00fc 0BB1     		cbz	r3, .L75
ARM GAS  /tmp/cc26jFNS.s 			page 26


 1426              	.LVL102:
 1427              	.L189:
 1428              	.LBE105:
 1429              	.LBE106:
 1430              	.LBE102:
 1431              		.loc 1 847 0
 1432 00fe 2046     		mov	r0, r4
 1433 0100 9847     		blx	r3
 1434              	.LVL103:
 1435              	.L75:
 1436              		.loc 1 864 0
 1437 0102 36B0     		add	sp, sp, #216
 1438              		.cfi_def_cfa_offset 48
 1439              		@ sp needed
 1440 0104 BDEC048B 		vldm	sp!, {d8-d9}
 1441              		.cfi_restore 82
 1442              		.cfi_restore 83
 1443              		.cfi_restore 80
 1444              		.cfi_restore 81
 1445              		.cfi_def_cfa_offset 32
 1446 0108 BDE8F087 		pop	{r4, r5, r6, r7, r8, r9, r10, pc}
 1447              	.LVL104:
 1448              	.L185:
 1449              		.cfi_def_cfa_offset 0
 1450              		.cfi_restore 4
 1451              		.cfi_restore 5
 1452              		.cfi_restore 6
 1453              		.cfi_restore 7
 1454              		.cfi_restore 8
 1455              		.cfi_restore 9
 1456              		.cfi_restore 10
 1457              		.cfi_restore 14
 1458 010c 7047     		bx	lr
 1459              	.LVL105:
 1460              	.L90:
 1461              		.cfi_def_cfa_offset 264
 1462              		.cfi_offset 4, -32
 1463              		.cfi_offset 5, -28
 1464              		.cfi_offset 6, -24
 1465              		.cfi_offset 7, -20
 1466              		.cfi_offset 8, -16
 1467              		.cfi_offset 9, -12
 1468              		.cfi_offset 10, -8
 1469              		.cfi_offset 14, -4
 1470              		.cfi_offset 80, -48
 1471              		.cfi_offset 81, -44
 1472              		.cfi_offset 82, -40
 1473              		.cfi_offset 83, -36
 1474              		.loc 1 224 0
 1475 010e FFF7FEFF 		bl	mc_interface_get_configuration
 1476              	.LVL106:
 1477 0112 8D4B     		ldr	r3, .L200
 1478 0114 0146     		mov	r1, r0
 1479 0116 4FF4C272 		mov	r2, #388
 1480 011a 1846     		mov	r0, r3
 1481 011c FFF7FEFF 		bl	memcpy
 1482              	.LVL107:
ARM GAS  /tmp/cc26jFNS.s 			page 27


 1483              		.loc 1 227 0
 1484 0120 8F49     		ldr	r1, .L200+24
 1485 0122 7B78     		ldrb	r3, [r7, #1]	@ zero_extendqisi2
 1486              		.loc 1 229 0
 1487 0124 8278     		ldrb	r2, [r0, #2]	@ zero_extendqisi2
 1488              		.loc 1 227 0
 1489 0126 0B70     		strb	r3, [r1]
 1490 0128 0121     		movs	r1, #1
 1491 012a 0291     		str	r1, [sp, #8]
 1492              		.loc 1 229 0
 1493 012c 32B9     		cbnz	r2, .L103
 1494              		.loc 1 230 0
 1495 012e 002B     		cmp	r3, #0
 1496 0130 01F08F82 		beq	.L197
 1497              		.loc 1 232 0
 1498 0134 012B     		cmp	r3, #1
 1499 0136 01D1     		bne	.L103
 1500              		.loc 1 233 0
 1501 0138 FFF7FEFF 		bl	mcpwm_set_detect
 1502              	.LVL108:
 1503              	.L103:
 1504              		.loc 1 801 0
 1505 013c FFF7FEFF 		bl	timeout_reset
 1506              	.LVL109:
 1507              		.loc 1 802 0
 1508 0140 DFE7     		b	.L75
 1509              	.L102:
 1510              	.LBB107:
 1511              	.LBB108:
 1512              		.file 3 "ChibiOS_3.0.2/os/ext/CMSIS/include/core_cmFunc.h"
 1513              		.loc 3 342 0
 1514              		.syntax unified
 1515              	@ 342 "ChibiOS_3.0.2/os/ext/CMSIS/include/core_cmFunc.h" 1
 1516 0142 72B6     		cpsid i
 1517              	@ 0 "" 2
 1518              		.thumb
 1519              		.syntax unified
 1520              	.L131:
 1521 0144 FEE7     		b	.L131
 1522              	.L101:
 1523              	.LBE108:
 1524              	.LBE107:
 1525              		.loc 1 754 0
 1526 0146 FFF7FEFF 		bl	mc_interface_get_configuration
 1527              	.LVL110:
 1528 014a 7F4D     		ldr	r5, .L200
 1529              	.LVL111:
 1530 014c 0146     		mov	r1, r0
 1531 014e 4FF4C272 		mov	r2, #388
 1532 0152 2846     		mov	r0, r5
 1533 0154 FFF7FEFF 		bl	memcpy
 1534              	.LVL112:
 1535              		.loc 1 756 0
 1536 0158 95F86881 		ldrb	r8, [r5, #360]	@ zero_extendqisi2
 1537              	.LVL113:
 1538 015c B8F1000F 		cmp	r8, #0
 1539 0160 41F09882 		bne	.L128
ARM GAS  /tmp/cc26jFNS.s 			page 28


 1540              	.LBB109:
 1541              		.loc 1 757 0
 1542 0164 4FF4C272 		mov	r2, #388
 1543 0168 2946     		mov	r1, r5
 1544 016a 7A48     		ldr	r0, .L200+12
 1545              		.loc 1 761 0
 1546 016c 774E     		ldr	r6, .L200+4
 1547 016e 784F     		ldr	r7, .L200+8
 1548              		.loc 1 757 0
 1549 0170 FFF7FEFF 		bl	memcpy
 1550              	.LVL114:
 1551              		.loc 1 758 0
 1552 0174 36A9     		add	r1, sp, #216
 1553              		.loc 1 759 0
 1554 0176 2046     		mov	r0, r4
 1555              		.loc 1 758 0
 1556 0178 41F8D08D 		str	r8, [r1, #-208]!
 1557              		.loc 1 759 0
 1558 017c 9FED7D0A 		vldr.32	s0, .L200+44
 1559              		.loc 1 764 0
 1560 0180 784C     		ldr	r4, .L200+28
 1561              	.LVL115:
 1562              		.loc 1 759 0
 1563 0182 FFF7FEFF 		bl	buffer_get_float32
 1564              	.LVL116:
 1565              		.loc 1 761 0
 1566 0186 3368     		ldr	r3, [r6]
 1567              		.loc 1 765 0
 1568 0188 7749     		ldr	r1, .L200+32
 1569              		.loc 1 761 0
 1570 018a 3B60     		str	r3, [r7]
 1571              		.loc 1 763 0
 1572 018c 0222     		movs	r2, #2
 1573              		.loc 1 766 0
 1574 018e 774B     		ldr	r3, .L200+36
 1575              		.loc 1 765 0
 1576 0190 C5F8A410 		str	r1, [r5, #164]	@ float
 1577              		.loc 1 767 0
 1578 0194 2846     		mov	r0, r5
 1579              		.loc 1 759 0
 1580 0196 B0EE408A 		vmov.f32	s16, s0
 1581              	.LVL117:
 1582              		.loc 1 763 0
 1583 019a AA70     		strb	r2, [r5, #2]
 1584              		.loc 1 766 0
 1585 019c C5F8A830 		str	r3, [r5, #168]	@ float
 1586              		.loc 1 764 0
 1587 01a0 C5F8AC40 		str	r4, [r5, #172]	@ float
 1588              		.loc 1 767 0
 1589 01a4 FFF7FEFF 		bl	mc_interface_set_configuration
 1590              	.LVL118:
 1591              		.loc 1 770 0
 1592 01a8 B0EE480A 		vmov.f32	s0, s16
 1593 01ac 04A8     		add	r0, sp, #16
 1594 01ae FFF7FEFF 		bl	mcpwm_foc_hall_detect
 1595              	.LVL119:
 1596 01b2 0446     		mov	r4, r0
ARM GAS  /tmp/cc26jFNS.s 			page 29


 1597              	.LVL120:
 1598              		.loc 1 771 0
 1599 01b4 6748     		ldr	r0, .L200+12
 1600 01b6 FFF7FEFF 		bl	mc_interface_set_configuration
 1601              	.LVL121:
 1602              		.loc 1 774 0
 1603 01ba 674A     		ldr	r2, .L200+16
 1604              		.loc 1 779 0
 1605 01bc 3F68     		ldr	r7, [r7]
 1606              		.loc 1 774 0
 1607 01be 1546     		mov	r5, r2
 1608              		.loc 1 775 0
 1609 01c0 04AB     		add	r3, sp, #16
 1610 01c2 03CB     		ldmia	r3!, {r0, r1}
 1611              		.loc 1 774 0
 1612 01c4 1C23     		movs	r3, #28
 1613 01c6 05F8013B 		strb	r3, [r5], #1
 1614              		.loc 1 777 0
 1615 01ca 84F00104 		eor	r4, r4, #1
 1616              	.LVL122:
 1617 01ce 0A23     		movs	r3, #10
 1618              		.loc 1 775 0
 1619 01d0 C2F80100 		str	r0, [r2, #1]	@ unaligned
 1620              		.loc 1 777 0
 1621 01d4 0293     		str	r3, [sp, #8]
 1622              		.loc 1 775 0
 1623 01d6 6960     		str	r1, [r5, #4]	@ unaligned
 1624              		.loc 1 777 0
 1625 01d8 5472     		strb	r4, [r2, #9]
 1626              		.loc 1 779 0
 1627 01da 002F     		cmp	r7, #0
 1628 01dc 01F05182 		beq	.L129
 1629              		.loc 1 780 0
 1630 01e0 1946     		mov	r1, r3
 1631 01e2 1046     		mov	r0, r2
 1632 01e4 B847     		blx	r7
 1633              	.LVL123:
 1634 01e6 8CE7     		b	.L75
 1635              	.LVL124:
 1636              	.L100:
 1637              	.LBE109:
 1638              		.loc 1 711 0
 1639 01e8 FFF7FEFF 		bl	encoder_is_configured
 1640              	.LVL125:
 1641 01ec 0646     		mov	r6, r0
 1642 01ee 0028     		cmp	r0, #0
 1643 01f0 01F06082 		beq	.L125
 1644              	.LBB112:
 1645              		.loc 1 712 0
 1646 01f4 FFF7FEFF 		bl	mc_interface_get_configuration
 1647              	.LVL126:
 1648 01f8 534D     		ldr	r5, .L200
 1649              	.LVL127:
 1650              		.loc 1 715 0
 1651 01fa DFF85081 		ldr	r8, .L200+4
 1652              	.LVL128:
 1653 01fe DFF85091 		ldr	r9, .L200+8
ARM GAS  /tmp/cc26jFNS.s 			page 30


 1654              		.loc 1 733 0
 1655 0202 554E     		ldr	r6, .L200+16
 1656              		.loc 1 717 0
 1657 0204 36AF     		add	r7, sp, #216
 1658              		.loc 1 712 0
 1659 0206 0146     		mov	r1, r0
 1660 0208 4FF4C272 		mov	r2, #388
 1661 020c 2846     		mov	r0, r5
 1662 020e FFF7FEFF 		bl	memcpy
 1663              	.LVL129:
 1664              		.loc 1 717 0
 1665 0212 4FF0000A 		mov	r10, #0
 1666              		.loc 1 713 0
 1667 0216 4FF4C272 		mov	r2, #388
 1668 021a 2946     		mov	r1, r5
 1669 021c 4D48     		ldr	r0, .L200+12
 1670 021e FFF7FEFF 		bl	memcpy
 1671              	.LVL130:
 1672              		.loc 1 717 0
 1673 0222 47F8D0AD 		str	r10, [r7, #-208]!
 1674              		.loc 1 718 0
 1675 0226 2046     		mov	r0, r4
 1676              		.loc 1 715 0
 1677 0228 D8F80030 		ldr	r3, [r8]
 1678              		.loc 1 718 0
 1679 022c 9FED510A 		vldr.32	s0, .L200+44
 1680              		.loc 1 715 0
 1681 0230 C9F80030 		str	r3, [r9]
 1682              		.loc 1 718 0
 1683 0234 3946     		mov	r1, r7
 1684 0236 FFF7FEFF 		bl	buffer_get_float32
 1685              	.LVL131:
 1686              		.loc 1 721 0
 1687 023a 4A4B     		ldr	r3, .L200+28
 1688              		.loc 1 722 0
 1689 023c 4A4A     		ldr	r2, .L200+32
 1690              		.loc 1 721 0
 1691 023e C5F8AC30 		str	r3, [r5, #172]	@ float
 1692              		.loc 1 720 0
 1693 0242 0221     		movs	r1, #2
 1694              		.loc 1 723 0
 1695 0244 494B     		ldr	r3, .L200+36
 1696              		.loc 1 720 0
 1697 0246 A970     		strb	r1, [r5, #2]
 1698              		.loc 1 724 0
 1699 0248 2846     		mov	r0, r5
 1700              		.loc 1 718 0
 1701 024a B0EE408A 		vmov.f32	s16, s0
 1702              	.LVL132:
 1703              		.loc 1 722 0
 1704 024e C5F8A420 		str	r2, [r5, #164]	@ float
 1705              		.loc 1 723 0
 1706 0252 C5F8A830 		str	r3, [r5, #168]	@ float
 1707              		.loc 1 724 0
 1708 0256 FFF7FEFF 		bl	mc_interface_set_configuration
 1709              	.LVL133:
 1710              		.loc 1 728 0
ARM GAS  /tmp/cc26jFNS.s 			page 31


 1711 025a 36AB     		add	r3, sp, #216
 1712              		.loc 1 729 0
 1713 025c B0EE480A 		vmov.f32	s0, s16
 1714              		.loc 1 728 0
 1715 0260 03F8D1AD 		strb	r10, [r3, #-209]!
 1716              		.loc 1 729 0
 1717 0264 04AA     		add	r2, sp, #16
 1718 0266 03A9     		add	r1, sp, #12
 1719              		.loc 1 726 0
 1720 0268 0024     		movs	r4, #0
 1721              	.LVL134:
 1722              		.loc 1 729 0
 1723 026a 5046     		mov	r0, r10
 1724              		.loc 1 726 0
 1725 026c 0394     		str	r4, [sp, #12]	@ float
 1726              		.loc 1 727 0
 1727 026e 0494     		str	r4, [sp, #16]	@ float
 1728              		.loc 1 729 0
 1729 0270 FFF7FEFF 		bl	mcpwm_foc_encoder_detect
 1730              	.LVL135:
 1731              		.loc 1 730 0
 1732 0274 3748     		ldr	r0, .L200+12
 1733 0276 FFF7FEFF 		bl	mc_interface_set_configuration
 1734              	.LVL136:
 1735              		.loc 1 733 0
 1736 027a 1B22     		movs	r2, #27
 1737 027c 0123     		movs	r3, #1
 1738              		.loc 1 734 0
 1739 027e 3946     		mov	r1, r7
 1740 0280 3046     		mov	r0, r6
 1741 0282 DFED360A 		vldr.32	s1, .L200+20
 1742 0286 9DED030A 		vldr.32	s0, [sp, #12]
 1743              		.loc 1 733 0
 1744 028a 3270     		strb	r2, [r6]
 1745 028c 0293     		str	r3, [sp, #8]
 1746              		.loc 1 734 0
 1747 028e FFF7FEFF 		bl	buffer_append_float32
 1748              	.LVL137:
 1749              		.loc 1 735 0
 1750 0292 3946     		mov	r1, r7
 1751 0294 3046     		mov	r0, r6
 1752 0296 DFED310A 		vldr.32	s1, .L200+20
 1753 029a 9DED040A 		vldr.32	s0, [sp, #16]
 1754 029e FFF7FEFF 		bl	buffer_append_float32
 1755              	.LVL138:
 1756              		.loc 1 736 0
 1757 02a2 0299     		ldr	r1, [sp, #8]
 1758 02a4 9DF80720 		ldrb	r2, [sp, #7]	@ zero_extendqisi2
 1759              		.loc 1 737 0
 1760 02a8 D9F80030 		ldr	r3, [r9]
 1761              		.loc 1 736 0
 1762 02ac 7254     		strb	r2, [r6, r1]
 1763 02ae 0131     		adds	r1, r1, #1
 1764 02b0 0291     		str	r1, [sp, #8]
 1765              		.loc 1 737 0
 1766 02b2 002B     		cmp	r3, #0
 1767 02b4 01F0F781 		beq	.L126
ARM GAS  /tmp/cc26jFNS.s 			page 32


 1768              	.L192:
 1769              	.LBB113:
 1770              	.LBB114:
 1771              		.loc 1 91 0
 1772 02b8 3046     		mov	r0, r6
 1773 02ba 9847     		blx	r3
 1774              	.LVL139:
 1775 02bc 21E7     		b	.L75
 1776              	.LVL140:
 1777              	.L99:
 1778              	.LBE114:
 1779              	.LBE113:
 1780              	.LBE112:
 1781              	.LBB117:
 1782              		.loc 1 685 0
 1783 02be 02A9     		add	r1, sp, #8
 1784 02c0 2046     		mov	r0, r4
 1785 02c2 9FED2C0A 		vldr.32	s0, .L200+44
 1786              		.loc 1 690 0
 1787 02c6 214D     		ldr	r5, .L200+4
 1788              	.LVL141:
 1789 02c8 214E     		ldr	r6, .L200+8
 1790              		.loc 1 685 0
 1791 02ca FFF7FEFF 		bl	buffer_get_float32
 1792              	.LVL142:
 1793              		.loc 1 686 0
 1794 02ce 02A9     		add	r1, sp, #8
 1795              		.loc 1 685 0
 1796 02d0 B0EE408A 		vmov.f32	s16, s0
 1797              	.LVL143:
 1798              		.loc 1 686 0
 1799 02d4 2046     		mov	r0, r4
 1800 02d6 9FED270A 		vldr.32	s0, .L200+44
 1801              	.LVL144:
 1802 02da FFF7FEFF 		bl	buffer_get_float32
 1803              	.LVL145:
 1804              		.loc 1 687 0
 1805 02de 02A9     		add	r1, sp, #8
 1806              		.loc 1 686 0
 1807 02e0 B0EE409A 		vmov.f32	s18, s0
 1808              	.LVL146:
 1809              		.loc 1 687 0
 1810 02e4 2046     		mov	r0, r4
 1811 02e6 9FED230A 		vldr.32	s0, .L200+44
 1812              	.LVL147:
 1813 02ea FFF7FEFF 		bl	buffer_get_float32
 1814              	.LVL148:
 1815              		.loc 1 688 0
 1816 02ee 2046     		mov	r0, r4
 1817              		.loc 1 687 0
 1818 02f0 F0EE408A 		vmov.f32	s17, s0
 1819              	.LVL149:
 1820              		.loc 1 688 0
 1821 02f4 02A9     		add	r1, sp, #8
 1822 02f6 9FED190A 		vldr.32	s0, .L200+20
 1823              	.LVL150:
 1824 02fa FFF7FEFF 		bl	buffer_get_float32
ARM GAS  /tmp/cc26jFNS.s 			page 33


 1825              	.LVL151:
 1826              		.loc 1 690 0
 1827 02fe 2B68     		ldr	r3, [r5]
 1828 0300 3360     		str	r3, [r6]
 1829              		.loc 1 693 0
 1830 0302 F0EE401A 		vmov.f32	s3, s0
 1831 0306 B0EE491A 		vmov.f32	s2, s18
 1832 030a F0EE680A 		vmov.f32	s1, s17
 1833 030e B0EE480A 		vmov.f32	s0, s16
 1834              	.LVL152:
 1835 0312 04A8     		add	r0, sp, #16
 1836 0314 FFF7FEFF 		bl	conf_general_measure_flux_linkage
 1837              	.LVL153:
 1838              		.loc 1 695 0
 1839 0318 08B9     		cbnz	r0, .L122
 1840              		.loc 1 696 0
 1841 031a 0023     		movs	r3, #0
 1842 031c 0493     		str	r3, [sp, #16]	@ float
 1843              	.L122:
 1844              		.loc 1 700 0
 1845 031e 0E4C     		ldr	r4, .L200+16
 1846              	.LVL154:
 1847              		.loc 1 701 0
 1848 0320 DFED130A 		vldr.32	s1, .L200+40
 1849 0324 9DED040A 		vldr.32	s0, [sp, #16]
 1850              		.loc 1 700 0
 1851 0328 0123     		movs	r3, #1
 1852 032a 1A22     		movs	r2, #26
 1853              		.loc 1 701 0
 1854 032c 02A9     		add	r1, sp, #8
 1855 032e 2046     		mov	r0, r4
 1856              	.LVL155:
 1857              		.loc 1 700 0
 1858 0330 0293     		str	r3, [sp, #8]
 1859 0332 2270     		strb	r2, [r4]
 1860              		.loc 1 701 0
 1861 0334 FFF7FEFF 		bl	buffer_append_float32
 1862              	.LVL156:
 1863              		.loc 1 702 0
 1864 0338 3368     		ldr	r3, [r6]
 1865 033a 002B     		cmp	r3, #0
 1866 033c 3FF4DCAE 		beq	.L123
 1867              	.LVL157:
 1868              	.L191:
 1869              		.loc 1 703 0
 1870 0340 2046     		mov	r0, r4
 1871 0342 0299     		ldr	r1, [sp, #8]
 1872 0344 9847     		blx	r3
 1873              	.LVL158:
 1874 0346 DCE6     		b	.L75
 1875              	.L201:
 1876              		.align	2
 1877              	.L200:
 1878 0348 00000000 		.word	.LANCHOR15
 1879 034c 00000000 		.word	.LANCHOR10
 1880 0350 00000000 		.word	.LANCHOR9
 1881 0354 00000000 		.word	.LANCHOR16
ARM GAS  /tmp/cc26jFNS.s 			page 34


 1882 0358 00000000 		.word	.LANCHOR8
 1883 035c 00247449 		.word	1232348160
 1884 0360 00000000 		.word	.LANCHOR13
 1885 0364 00401C46 		.word	1176256512
 1886 0368 0AD7233C 		.word	1008981770
 1887 036c 00002041 		.word	1092616192
 1888 0370 8096184B 		.word	1259902592
 1889 0374 00007A44 		.word	1148846080
 1890              	.LVL159:
 1891              	.L97:
 1892              	.LBE117:
 1893              		.loc 1 643 0
 1894 0378 02A9     		add	r1, sp, #8
 1895 037a 2046     		mov	r0, r4
 1896 037c 1FED030A 		vldr.32	s0, .L200+44
 1897 0380 FFF7FEFF 		bl	buffer_get_float32
 1898              	.LVL160:
 1899 0384 214B     		ldr	r3, .L202
 1900              		.loc 1 644 0
 1901 0386 02A9     		add	r1, sp, #8
 1902              		.loc 1 643 0
 1903 0388 83ED000A 		vstr.32	s0, [r3]
 1904              		.loc 1 644 0
 1905 038c 2046     		mov	r0, r4
 1906 038e 9FED200A 		vldr.32	s0, .L202+4
 1907 0392 FFF7FEFF 		bl	buffer_get_float32
 1908              	.LVL161:
 1909 0396 1F4B     		ldr	r3, .L202+8
 1910              		.loc 1 645 0
 1911 0398 02A9     		add	r1, sp, #8
 1912 039a 2046     		mov	r0, r4
 1913              		.loc 1 644 0
 1914 039c 83ED000A 		vstr.32	s0, [r3]
 1915              		.loc 1 645 0
 1916 03a0 9FED1B0A 		vldr.32	s0, .L202+4
 1917 03a4 FFF7FEFF 		bl	buffer_get_float32
 1918              	.LVL162:
 1919 03a8 1B49     		ldr	r1, .L202+12
 1920              		.loc 1 647 0
 1921 03aa 1C4A     		ldr	r2, .L202+16
 1922              		.loc 1 649 0
 1923 03ac 1C48     		ldr	r0, .L202+20
 1924              		.loc 1 647 0
 1925 03ae 1D4B     		ldr	r3, .L202+24
 1926 03b0 1268     		ldr	r2, [r2]
 1927              		.loc 1 645 0
 1928 03b2 81ED000A 		vstr.32	s0, [r1]
 1929              		.loc 1 649 0
 1930 03b6 0068     		ldr	r0, [r0]
 1931              		.loc 1 647 0
 1932 03b8 1A60     		str	r2, [r3]
 1933              		.loc 1 649 0
 1934 03ba 0121     		movs	r1, #1
 1935 03bc FFF7FEFF 		bl	chEvtSignal
 1936              	.LVL163:
 1937              		.loc 1 650 0
 1938 03c0 9FE6     		b	.L75
ARM GAS  /tmp/cc26jFNS.s 			page 35


 1939              	.L96:
 1940              		.loc 1 637 0
 1941 03c2 0023     		movs	r3, #0
 1942              		.loc 1 638 0
 1943 03c4 2046     		mov	r0, r4
 1944              		.loc 1 637 0
 1945 03c6 7B54     		strb	r3, [r7, r1]
 1946              		.loc 1 638 0
 1947 03c8 FFF7FEFF 		bl	terminal_process_string
 1948              	.LVL164:
 1949              		.loc 1 639 0
 1950 03cc 99E6     		b	.L75
 1951              	.L95:
 1952              	.LBB118:
 1953              		.loc 1 630 0
 1954 03ce 36A9     		add	r1, sp, #216
 1955 03d0 0123     		movs	r3, #1
 1956 03d2 41F8D03D 		str	r3, [r1, #-208]!
 1957              		.loc 1 631 0
 1958 03d6 2046     		mov	r0, r4
 1959              		.loc 1 630 0
 1960 03d8 7D78     		ldrb	r5, [r7, #1]	@ zero_extendqisi2
 1961              	.LVL165:
 1962              		.loc 1 631 0
 1963 03da FFF7FEFF 		bl	buffer_get_uint16
 1964              	.LVL166:
 1965              		.loc 1 632 0
 1966 03de 029B     		ldr	r3, [sp, #8]
 1967              		.loc 1 633 0
 1968 03e0 0146     		mov	r1, r0
 1969 03e2 E25C     		ldrb	r2, [r4, r3]	@ zero_extendqisi2
 1970 03e4 2846     		mov	r0, r5
 1971              	.LVL167:
 1972              		.loc 1 632 0
 1973 03e6 0133     		adds	r3, r3, #1
 1974 03e8 0293     		str	r3, [sp, #8]
 1975              	.LVL168:
 1976              		.loc 1 633 0
 1977 03ea FFF7FEFF 		bl	mc_interface_sample_print_data
 1978              	.LVL169:
 1979              	.LBE118:
 1980              		.loc 1 634 0
 1981 03ee 88E6     		b	.L75
 1982              	.LVL170:
 1983              	.L94:
 1984              		.loc 1 615 0
 1985 03f0 B8F1110F 		cmp	r8, #17
 1986 03f4 01F03181 		beq	.L198
 1987              		.loc 1 618 0
 1988 03f8 04AC     		add	r4, sp, #16
 1989              	.LVL171:
 1990 03fa 2046     		mov	r0, r4
 1991              	.LVL172:
 1992 03fc FFF7FEFF 		bl	conf_general_get_default_app_configuration
 1993              	.LVL173:
 1994              	.L118:
 1995              		.loc 1 621 0
ARM GAS  /tmp/cc26jFNS.s 			page 36


 1996 0400 2146     		mov	r1, r4
 1997 0402 4046     		mov	r0, r8
 1998 0404 FFF7FEFF 		bl	commands_send_appconf
 1999              	.LVL174:
 2000              		.loc 1 622 0
 2001 0408 7BE6     		b	.L75
 2002              	.L203:
 2003 040a 00BF     		.align	2
 2004              	.L202:
 2005 040c 00000000 		.word	.LANCHOR7
 2006 0410 00007A44 		.word	1148846080
 2007 0414 00000000 		.word	.LANCHOR6
 2008 0418 00000000 		.word	.LANCHOR5
 2009 041c 00000000 		.word	.LANCHOR10
 2010 0420 00000000 		.word	.LANCHOR0
 2011 0424 00000000 		.word	.LANCHOR9
 2012              	.LVL175:
 2013              	.L93:
 2014              		.loc 1 527 0
 2015 0428 FFF7FEFF 		bl	app_get_configuration
 2016              	.LVL176:
 2017 042c C822     		movs	r2, #200
 2018 042e 0146     		mov	r1, r0
 2019 0430 04A8     		add	r0, sp, #16
 2020              		.loc 1 530 0
 2021 0432 0125     		movs	r5, #1
 2022              	.LVL177:
 2023              		.loc 1 527 0
 2024 0434 FFF7FEFF 		bl	memcpy
 2025              	.LVL178:
 2026              		.loc 1 530 0
 2027 0438 7B78     		ldrb	r3, [r7, #1]	@ zero_extendqisi2
 2028 043a 8DF81030 		strb	r3, [sp, #16]
 2029              		.loc 1 531 0
 2030 043e 02A9     		add	r1, sp, #8
 2031 0440 2046     		mov	r0, r4
 2032              		.loc 1 530 0
 2033 0442 0295     		str	r5, [sp, #8]
 2034              		.loc 1 531 0
 2035 0444 FFF7FEFF 		bl	buffer_get_uint32
 2036              	.LVL179:
 2037              		.loc 1 532 0
 2038 0448 02A9     		add	r1, sp, #8
 2039              		.loc 1 531 0
 2040 044a 0590     		str	r0, [sp, #20]
 2041              		.loc 1 532 0
 2042 044c 2046     		mov	r0, r4
 2043 044e FFF7FEFF 		bl	buffer_get_float32_auto
 2044              	.LVL180:
 2045              		.loc 1 533 0
 2046 0452 029B     		ldr	r3, [sp, #8]
 2047 0454 E25C     		ldrb	r2, [r4, r3]	@ zero_extendqisi2
 2048              		.loc 1 532 0
 2049 0456 8DED060A 		vstr.32	s0, [sp, #24]
 2050              		.loc 1 533 0
 2051 045a 0032     		adds	r2, r2, #0
 2052 045c 18BF     		it	ne
ARM GAS  /tmp/cc26jFNS.s 			page 37


 2053 045e 0122     		movne	r2, #1
 2054 0460 2B44     		add	r3, r3, r5
 2055              		.loc 1 534 0
 2056 0462 02A9     		add	r1, sp, #8
 2057 0464 2046     		mov	r0, r4
 2058              		.loc 1 533 0
 2059 0466 8DF81C20 		strb	r2, [sp, #28]
 2060 046a 0293     		str	r3, [sp, #8]
 2061              		.loc 1 534 0
 2062 046c FFF7FEFF 		bl	buffer_get_uint16
 2063              	.LVL181:
 2064              		.loc 1 535 0
 2065 0470 029B     		ldr	r3, [sp, #8]
 2066              		.loc 1 534 0
 2067 0472 0890     		str	r0, [sp, #32]
 2068              		.loc 1 535 0
 2069 0474 5A19     		adds	r2, r3, r5
 2070              		.loc 1 537 0
 2071 0476 991C     		adds	r1, r3, #2
 2072 0478 A25C     		ldrb	r2, [r4, r2]	@ zero_extendqisi2
 2073              		.loc 1 539 0
 2074 047a 615C     		ldrb	r1, [r4, r1]	@ zero_extendqisi2
 2075              		.loc 1 537 0
 2076 047c 8DF82520 		strb	r2, [sp, #37]
 2077              		.loc 1 535 0
 2078 0480 E25C     		ldrb	r2, [r4, r3]	@ zero_extendqisi2
 2079              		.loc 1 539 0
 2080 0482 8DF82810 		strb	r1, [sp, #40]
 2081 0486 0333     		adds	r3, r3, #3
 2082              		.loc 1 540 0
 2083 0488 2046     		mov	r0, r4
 2084 048a 02A9     		add	r1, sp, #8
 2085              		.loc 1 535 0
 2086 048c 8DF82420 		strb	r2, [sp, #36]
 2087              		.loc 1 539 0
 2088 0490 0293     		str	r3, [sp, #8]
 2089              		.loc 1 540 0
 2090 0492 FFF7FEFF 		bl	buffer_get_float32_auto
 2091              	.LVL182:
 2092              		.loc 1 541 0
 2093 0496 2046     		mov	r0, r4
 2094 0498 02A9     		add	r1, sp, #8
 2095              		.loc 1 540 0
 2096 049a 8DED0B0A 		vstr.32	s0, [sp, #44]
 2097              		.loc 1 541 0
 2098 049e FFF7FEFF 		bl	buffer_get_float32_auto
 2099              	.LVL183:
 2100              		.loc 1 542 0
 2101 04a2 2046     		mov	r0, r4
 2102 04a4 02A9     		add	r1, sp, #8
 2103              		.loc 1 541 0
 2104 04a6 8DED0C0A 		vstr.32	s0, [sp, #48]
 2105              		.loc 1 542 0
 2106 04aa FFF7FEFF 		bl	buffer_get_float32_auto
 2107              	.LVL184:
 2108              		.loc 1 543 0
 2109 04ae 2046     		mov	r0, r4
ARM GAS  /tmp/cc26jFNS.s 			page 38


 2110 04b0 02A9     		add	r1, sp, #8
 2111              		.loc 1 542 0
 2112 04b2 8DED0D0A 		vstr.32	s0, [sp, #52]
 2113              		.loc 1 543 0
 2114 04b6 FFF7FEFF 		bl	buffer_get_float32_auto
 2115              	.LVL185:
 2116              		.loc 1 544 0
 2117 04ba 2046     		mov	r0, r4
 2118 04bc 02A9     		add	r1, sp, #8
 2119              		.loc 1 543 0
 2120 04be 8DED0E0A 		vstr.32	s0, [sp, #56]
 2121              		.loc 1 544 0
 2122 04c2 FFF7FEFF 		bl	buffer_get_float32_auto
 2123              	.LVL186:
 2124              		.loc 1 545 0
 2125 04c6 029B     		ldr	r3, [sp, #8]
 2126 04c8 5919     		adds	r1, r3, r5
 2127 04ca E25C     		ldrb	r2, [r4, r3]	@ zero_extendqisi2
 2128              		.loc 1 546 0
 2129 04cc 615C     		ldrb	r1, [r4, r1]	@ zero_extendqisi2
 2130              		.loc 1 544 0
 2131 04ce 8DED0F0A 		vstr.32	s0, [sp, #60]
 2132              		.loc 1 545 0
 2133 04d2 0032     		adds	r2, r2, #0
 2134 04d4 18BF     		it	ne
 2135 04d6 0122     		movne	r2, #1
 2136              		.loc 1 546 0
 2137 04d8 0031     		adds	r1, r1, #0
 2138 04da 18BF     		it	ne
 2139 04dc 0121     		movne	r1, #1
 2140 04de 0233     		adds	r3, r3, #2
 2141              		.loc 1 547 0
 2142 04e0 2046     		mov	r0, r4
 2143              		.loc 1 546 0
 2144 04e2 8DF84110 		strb	r1, [sp, #65]
 2145              		.loc 1 547 0
 2146 04e6 02A9     		add	r1, sp, #8
 2147              		.loc 1 545 0
 2148 04e8 8DF84020 		strb	r2, [sp, #64]
 2149              		.loc 1 546 0
 2150 04ec 0293     		str	r3, [sp, #8]
 2151              		.loc 1 547 0
 2152 04ee FFF7FEFF 		bl	buffer_get_float32_auto
 2153              	.LVL187:
 2154              		.loc 1 548 0
 2155 04f2 2046     		mov	r0, r4
 2156 04f4 02A9     		add	r1, sp, #8
 2157              		.loc 1 547 0
 2158 04f6 8DED110A 		vstr.32	s0, [sp, #68]
 2159              		.loc 1 548 0
 2160 04fa FFF7FEFF 		bl	buffer_get_float32_auto
 2161              	.LVL188:
 2162              		.loc 1 549 0
 2163 04fe 029B     		ldr	r3, [sp, #8]
 2164              		.loc 1 550 0
 2165 0500 2046     		mov	r0, r4
 2166              		.loc 1 549 0
ARM GAS  /tmp/cc26jFNS.s 			page 39


 2167 0502 5A19     		adds	r2, r3, r5
 2168              		.loc 1 550 0
 2169 0504 02A9     		add	r1, sp, #8
 2170              		.loc 1 549 0
 2171 0506 E35C     		ldrb	r3, [r4, r3]	@ zero_extendqisi2
 2172 0508 8DF84C30 		strb	r3, [sp, #76]
 2173 050c 0292     		str	r2, [sp, #8]
 2174              		.loc 1 548 0
 2175 050e 8DED120A 		vstr.32	s0, [sp, #72]
 2176              		.loc 1 550 0
 2177 0512 FFF7FEFF 		bl	buffer_get_float32_auto
 2178              	.LVL189:
 2179              		.loc 1 551 0
 2180 0516 2046     		mov	r0, r4
 2181 0518 02A9     		add	r1, sp, #8
 2182              		.loc 1 550 0
 2183 051a 8DED140A 		vstr.32	s0, [sp, #80]
 2184              		.loc 1 551 0
 2185 051e FFF7FEFF 		bl	buffer_get_float32_auto
 2186              	.LVL190:
 2187              		.loc 1 552 0
 2188 0522 029B     		ldr	r3, [sp, #8]
 2189 0524 5919     		adds	r1, r3, r5
 2190 0526 E25C     		ldrb	r2, [r4, r3]	@ zero_extendqisi2
 2191              		.loc 1 553 0
 2192 0528 615C     		ldrb	r1, [r4, r1]	@ zero_extendqisi2
 2193              		.loc 1 551 0
 2194 052a 8DED150A 		vstr.32	s0, [sp, #84]
 2195              		.loc 1 552 0
 2196 052e 0032     		adds	r2, r2, #0
 2197 0530 18BF     		it	ne
 2198 0532 0122     		movne	r2, #1
 2199              		.loc 1 553 0
 2200 0534 0031     		adds	r1, r1, #0
 2201 0536 18BF     		it	ne
 2202 0538 0121     		movne	r1, #1
 2203 053a 0233     		adds	r3, r3, #2
 2204              		.loc 1 554 0
 2205 053c 2046     		mov	r0, r4
 2206              		.loc 1 553 0
 2207 053e 8DF85910 		strb	r1, [sp, #89]
 2208              		.loc 1 554 0
 2209 0542 02A9     		add	r1, sp, #8
 2210              		.loc 1 552 0
 2211 0544 8DF85820 		strb	r2, [sp, #88]
 2212              		.loc 1 553 0
 2213 0548 0293     		str	r3, [sp, #8]
 2214              		.loc 1 554 0
 2215 054a FFF7FEFF 		bl	buffer_get_float32_auto
 2216              	.LVL191:
 2217              		.loc 1 556 0
 2218 054e 029B     		ldr	r3, [sp, #8]
 2219              		.loc 1 557 0
 2220 0550 2046     		mov	r0, r4
 2221              		.loc 1 556 0
 2222 0552 5A19     		adds	r2, r3, r5
 2223              		.loc 1 557 0
ARM GAS  /tmp/cc26jFNS.s 			page 40


 2224 0554 02A9     		add	r1, sp, #8
 2225              		.loc 1 556 0
 2226 0556 E35C     		ldrb	r3, [r4, r3]	@ zero_extendqisi2
 2227 0558 8DF86030 		strb	r3, [sp, #96]
 2228 055c 0292     		str	r2, [sp, #8]
 2229              		.loc 1 554 0
 2230 055e 8DED170A 		vstr.32	s0, [sp, #92]
 2231              		.loc 1 557 0
 2232 0562 FFF7FEFF 		bl	buffer_get_float32_auto
 2233              	.LVL192:
 2234              		.loc 1 558 0
 2235 0566 2046     		mov	r0, r4
 2236 0568 02A9     		add	r1, sp, #8
 2237              		.loc 1 557 0
 2238 056a 8DED190A 		vstr.32	s0, [sp, #100]
 2239              		.loc 1 558 0
 2240 056e FFF7FEFF 		bl	buffer_get_float32_auto
 2241              	.LVL193:
 2242              		.loc 1 559 0
 2243 0572 2046     		mov	r0, r4
 2244 0574 02A9     		add	r1, sp, #8
 2245              		.loc 1 558 0
 2246 0576 8DED1A0A 		vstr.32	s0, [sp, #104]
 2247              		.loc 1 559 0
 2248 057a FFF7FEFF 		bl	buffer_get_float32_auto
 2249              	.LVL194:
 2250              		.loc 1 560 0
 2251 057e 2046     		mov	r0, r4
 2252 0580 02A9     		add	r1, sp, #8
 2253              		.loc 1 559 0
 2254 0582 8DED1B0A 		vstr.32	s0, [sp, #108]
 2255              		.loc 1 560 0
 2256 0586 FFF7FEFF 		bl	buffer_get_float32_auto
 2257              	.LVL195:
 2258              		.loc 1 561 0
 2259 058a 2046     		mov	r0, r4
 2260 058c 02A9     		add	r1, sp, #8
 2261              		.loc 1 560 0
 2262 058e 8DED1C0A 		vstr.32	s0, [sp, #112]
 2263              		.loc 1 561 0
 2264 0592 FFF7FEFF 		bl	buffer_get_float32_auto
 2265              	.LVL196:
 2266              		.loc 1 562 0
 2267 0596 2046     		mov	r0, r4
 2268 0598 02A9     		add	r1, sp, #8
 2269              		.loc 1 561 0
 2270 059a 8DED1D0A 		vstr.32	s0, [sp, #116]
 2271              		.loc 1 562 0
 2272 059e FFF7FEFF 		bl	buffer_get_float32_auto
 2273              	.LVL197:
 2274              		.loc 1 563 0
 2275 05a2 029B     		ldr	r3, [sp, #8]
 2276 05a4 5919     		adds	r1, r3, r5
 2277              		.loc 1 564 0
 2278 05a6 981C     		adds	r0, r3, #2
 2279 05a8 615C     		ldrb	r1, [r4, r1]	@ zero_extendqisi2
 2280              		.loc 1 565 0
ARM GAS  /tmp/cc26jFNS.s 			page 41


 2281 05aa 275C     		ldrb	r7, [r4, r0]	@ zero_extendqisi2
 2282              		.loc 1 564 0
 2283 05ac 0031     		adds	r1, r1, #0
 2284              		.loc 1 565 0
 2285 05ae 03F10302 		add	r2, r3, #3
 2286              		.loc 1 566 0
 2287 05b2 03F10400 		add	r0, r3, #4
 2288              		.loc 1 564 0
 2289 05b6 18BF     		it	ne
 2290 05b8 0121     		movne	r1, #1
 2291              		.loc 1 566 0
 2292 05ba A65C     		ldrb	r6, [r4, r2]	@ zero_extendqisi2
 2293              		.loc 1 567 0
 2294 05bc 205C     		ldrb	r0, [r4, r0]	@ zero_extendqisi2
 2295              		.loc 1 563 0
 2296 05be E25C     		ldrb	r2, [r4, r3]	@ zero_extendqisi2
 2297              		.loc 1 564 0
 2298 05c0 8DF87D10 		strb	r1, [sp, #125]
 2299              		.loc 1 567 0
 2300 05c4 591D     		adds	r1, r3, #5
 2301              		.loc 1 565 0
 2302 05c6 0037     		adds	r7, r7, #0
 2303              		.loc 1 568 0
 2304 05c8 615C     		ldrb	r1, [r4, r1]	@ zero_extendqisi2
 2305              		.loc 1 562 0
 2306 05ca 8DED1E0A 		vstr.32	s0, [sp, #120]
 2307              		.loc 1 565 0
 2308 05ce 18BF     		it	ne
 2309 05d0 0127     		movne	r7, #1
 2310              		.loc 1 566 0
 2311 05d2 0036     		adds	r6, r6, #0
 2312 05d4 18BF     		it	ne
 2313 05d6 0126     		movne	r6, #1
 2314              		.loc 1 567 0
 2315 05d8 0030     		adds	r0, r0, #0
 2316 05da 18BF     		it	ne
 2317 05dc 0120     		movne	r0, #1
 2318              		.loc 1 568 0
 2319 05de 0031     		adds	r1, r1, #0
 2320 05e0 18BF     		it	ne
 2321 05e2 0121     		movne	r1, #1
 2322              		.loc 1 563 0
 2323 05e4 0032     		adds	r2, r2, #0
 2324 05e6 18BF     		it	ne
 2325 05e8 0122     		movne	r2, #1
 2326              		.loc 1 568 0
 2327 05ea 0633     		adds	r3, r3, #6
 2328              		.loc 1 567 0
 2329 05ec 8DF88000 		strb	r0, [sp, #128]
 2330              		.loc 1 568 0
 2331 05f0 8DF88110 		strb	r1, [sp, #129]
 2332              		.loc 1 569 0
 2333 05f4 2046     		mov	r0, r4
 2334 05f6 02A9     		add	r1, sp, #8
 2335              		.loc 1 563 0
 2336 05f8 8DF87C20 		strb	r2, [sp, #124]
 2337              		.loc 1 568 0
ARM GAS  /tmp/cc26jFNS.s 			page 42


 2338 05fc 0293     		str	r3, [sp, #8]
 2339              		.loc 1 566 0
 2340 05fe 8DF87F60 		strb	r6, [sp, #127]
 2341              		.loc 1 565 0
 2342 0602 8DF87E70 		strb	r7, [sp, #126]
 2343              		.loc 1 569 0
 2344 0606 FFF7FEFF 		bl	buffer_get_float32_auto
 2345              	.LVL198:
 2346              		.loc 1 570 0
 2347 060a 2046     		mov	r0, r4
 2348 060c 02A9     		add	r1, sp, #8
 2349              		.loc 1 569 0
 2350 060e 8DED210A 		vstr.32	s0, [sp, #132]
 2351              		.loc 1 570 0
 2352 0612 FFF7FEFF 		bl	buffer_get_float32_auto
 2353              	.LVL199:
 2354              		.loc 1 571 0
 2355 0616 029B     		ldr	r3, [sp, #8]
 2356              		.loc 1 572 0
 2357 0618 2046     		mov	r0, r4
 2358              		.loc 1 571 0
 2359 061a 5A19     		adds	r2, r3, r5
 2360              		.loc 1 572 0
 2361 061c 02A9     		add	r1, sp, #8
 2362              		.loc 1 571 0
 2363 061e E35C     		ldrb	r3, [r4, r3]	@ zero_extendqisi2
 2364 0620 8DF88C30 		strb	r3, [sp, #140]
 2365 0624 0292     		str	r2, [sp, #8]
 2366              		.loc 1 570 0
 2367 0626 8DED220A 		vstr.32	s0, [sp, #136]
 2368              		.loc 1 572 0
 2369 062a FFF7FEFF 		bl	buffer_get_float32_auto
 2370              	.LVL200:
 2371              		.loc 1 573 0
 2372 062e 2046     		mov	r0, r4
 2373 0630 02A9     		add	r1, sp, #8
 2374              		.loc 1 572 0
 2375 0632 8DED240A 		vstr.32	s0, [sp, #144]
 2376              		.loc 1 573 0
 2377 0636 FFF7FEFF 		bl	buffer_get_float32_auto
 2378              	.LVL201:
 2379              		.loc 1 574 0
 2380 063a 029B     		ldr	r3, [sp, #8]
 2381 063c 5919     		adds	r1, r3, r5
 2382 063e E25C     		ldrb	r2, [r4, r3]	@ zero_extendqisi2
 2383              		.loc 1 575 0
 2384 0640 615C     		ldrb	r1, [r4, r1]	@ zero_extendqisi2
 2385              		.loc 1 573 0
 2386 0642 8DED250A 		vstr.32	s0, [sp, #148]
 2387              		.loc 1 574 0
 2388 0646 0032     		adds	r2, r2, #0
 2389 0648 18BF     		it	ne
 2390 064a 0122     		movne	r2, #1
 2391              		.loc 1 575 0
 2392 064c 0031     		adds	r1, r1, #0
 2393 064e 18BF     		it	ne
 2394 0650 0121     		movne	r1, #1
ARM GAS  /tmp/cc26jFNS.s 			page 43


 2395 0652 0233     		adds	r3, r3, #2
 2396              		.loc 1 576 0
 2397 0654 2046     		mov	r0, r4
 2398              		.loc 1 575 0
 2399 0656 8DF89910 		strb	r1, [sp, #153]
 2400              		.loc 1 576 0
 2401 065a 02A9     		add	r1, sp, #8
 2402              		.loc 1 574 0
 2403 065c 8DF89820 		strb	r2, [sp, #152]
 2404              		.loc 1 575 0
 2405 0660 0293     		str	r3, [sp, #8]
 2406              		.loc 1 576 0
 2407 0662 FFF7FEFF 		bl	buffer_get_float32_auto
 2408              	.LVL202:
 2409              		.loc 1 577 0
 2410 0666 02A9     		add	r1, sp, #8
 2411 0668 2046     		mov	r0, r4
 2412              		.loc 1 576 0
 2413 066a 8DED270A 		vstr.32	s0, [sp, #156]
 2414              		.loc 1 577 0
 2415 066e FFF7FEFF 		bl	buffer_get_uint16
 2416              	.LVL203:
 2417              		.loc 1 579 0
 2418 0672 02A9     		add	r1, sp, #8
 2419              		.loc 1 577 0
 2420 0674 2890     		str	r0, [sp, #160]
 2421              		.loc 1 579 0
 2422 0676 2046     		mov	r0, r4
 2423 0678 FFF7FEFF 		bl	buffer_get_uint32
 2424              	.LVL204:
 2425              		.loc 1 581 0
 2426 067c 029B     		ldr	r3, [sp, #8]
 2427              		.loc 1 579 0
 2428 067e 2990     		str	r0, [sp, #164]
 2429              		.loc 1 581 0
 2430 0680 5A19     		adds	r2, r3, r5
 2431              		.loc 1 582 0
 2432 0682 2046     		mov	r0, r4
 2433              		.loc 1 581 0
 2434 0684 E35C     		ldrb	r3, [r4, r3]	@ zero_extendqisi2
 2435 0686 8DF8A830 		strb	r3, [sp, #168]
 2436              		.loc 1 582 0
 2437 068a 02A9     		add	r1, sp, #8
 2438              		.loc 1 581 0
 2439 068c 0292     		str	r2, [sp, #8]
 2440              		.loc 1 582 0
 2441 068e FFF7FEFF 		bl	buffer_get_float32_auto
 2442              	.LVL205:
 2443              		.loc 1 583 0
 2444 0692 2046     		mov	r0, r4
 2445 0694 02A9     		add	r1, sp, #8
 2446              		.loc 1 582 0
 2447 0696 8DED2B0A 		vstr.32	s0, [sp, #172]
 2448              		.loc 1 583 0
 2449 069a FFF7FEFF 		bl	buffer_get_float32_auto
 2450              	.LVL206:
 2451              		.loc 1 584 0
ARM GAS  /tmp/cc26jFNS.s 			page 44


 2452 069e 2046     		mov	r0, r4
 2453 06a0 02A9     		add	r1, sp, #8
 2454              		.loc 1 583 0
 2455 06a2 8DED2C0A 		vstr.32	s0, [sp, #176]
 2456              		.loc 1 584 0
 2457 06a6 FFF7FEFF 		bl	buffer_get_float32_auto
 2458              	.LVL207:
 2459              		.loc 1 585 0
 2460 06aa 2046     		mov	r0, r4
 2461 06ac 02A9     		add	r1, sp, #8
 2462              		.loc 1 584 0
 2463 06ae 8DED2D0A 		vstr.32	s0, [sp, #180]
 2464              		.loc 1 585 0
 2465 06b2 FFF7FEFF 		bl	buffer_get_float32_auto
 2466              	.LVL208:
 2467              		.loc 1 586 0
 2468 06b6 2046     		mov	r0, r4
 2469 06b8 02A9     		add	r1, sp, #8
 2470              		.loc 1 585 0
 2471 06ba 8DED2E0A 		vstr.32	s0, [sp, #184]
 2472              		.loc 1 586 0
 2473 06be FFF7FEFF 		bl	buffer_get_float32_auto
 2474              	.LVL209:
 2475              		.loc 1 587 0
 2476 06c2 2046     		mov	r0, r4
 2477 06c4 02A9     		add	r1, sp, #8
 2478              		.loc 1 586 0
 2479 06c6 8DED2F0A 		vstr.32	s0, [sp, #188]
 2480              		.loc 1 587 0
 2481 06ca FFF7FEFF 		bl	buffer_get_float32_auto
 2482              	.LVL210:
 2483              		.loc 1 588 0
 2484 06ce 029B     		ldr	r3, [sp, #8]
 2485 06d0 5919     		adds	r1, r3, r5
 2486              		.loc 1 589 0
 2487 06d2 9A1C     		adds	r2, r3, #2
 2488 06d4 605C     		ldrb	r0, [r4, r1]	@ zero_extendqisi2
 2489              		.loc 1 590 0
 2490 06d6 A25C     		ldrb	r2, [r4, r2]	@ zero_extendqisi2
 2491              		.loc 1 588 0
 2492 06d8 E15C     		ldrb	r1, [r4, r3]	@ zero_extendqisi2
 2493 06da 8DF8C410 		strb	r1, [sp, #196]
 2494              		.loc 1 589 0
 2495 06de 0030     		adds	r0, r0, #0
 2496 06e0 18BF     		it	ne
 2497 06e2 0120     		movne	r0, #1
 2498              		.loc 1 590 0
 2499 06e4 0032     		adds	r2, r2, #0
 2500 06e6 18BF     		it	ne
 2501 06e8 0122     		movne	r2, #1
 2502 06ea 0333     		adds	r3, r3, #3
 2503              		.loc 1 591 0
 2504 06ec 02A9     		add	r1, sp, #8
 2505              		.loc 1 589 0
 2506 06ee 8DF8C500 		strb	r0, [sp, #197]
 2507              		.loc 1 591 0
 2508 06f2 2046     		mov	r0, r4
ARM GAS  /tmp/cc26jFNS.s 			page 45


 2509              		.loc 1 590 0
 2510 06f4 8DF8C620 		strb	r2, [sp, #198]
 2511 06f8 0293     		str	r3, [sp, #8]
 2512              		.loc 1 587 0
 2513 06fa 8DED300A 		vstr.32	s0, [sp, #192]
 2514              		.loc 1 591 0
 2515 06fe FFF7FEFF 		bl	buffer_get_float32_auto
 2516              	.LVL211:
 2517              		.loc 1 593 0
 2518 0702 029B     		ldr	r3, [sp, #8]
 2519              		.loc 1 591 0
 2520 0704 8DED320A 		vstr.32	s0, [sp, #200]
 2521              		.loc 1 593 0
 2522 0708 5919     		adds	r1, r3, r5
 2523              		.loc 1 594 0
 2524 070a 9A1C     		adds	r2, r3, #2
 2525              		.loc 1 595 0
 2526 070c DE1C     		adds	r6, r3, #3
 2527              		.loc 1 596 0
 2528 070e 181D     		adds	r0, r3, #4
 2529              		.loc 1 594 0
 2530 0710 615C     		ldrb	r1, [r4, r1]	@ zero_extendqisi2
 2531              		.loc 1 595 0
 2532 0712 A25C     		ldrb	r2, [r4, r2]	@ zero_extendqisi2
 2533              		.loc 1 597 0
 2534 0714 205C     		ldrb	r0, [r4, r0]	@ zero_extendqisi2
 2535              		.loc 1 596 0
 2536 0716 A65D     		ldrb	r6, [r4, r6]	@ zero_extendqisi2
 2537              		.loc 1 594 0
 2538 0718 8DF8CD10 		strb	r1, [sp, #205]
 2539              		.loc 1 597 0
 2540 071c 591D     		adds	r1, r3, #5
 2541              		.loc 1 595 0
 2542 071e 8DF8CE20 		strb	r2, [sp, #206]
 2543              		.loc 1 601 0
 2544 0722 E218     		adds	r2, r4, r3
 2545              		.loc 1 598 0
 2546 0724 615C     		ldrb	r1, [r4, r1]	@ zero_extendqisi2
 2547              		.loc 1 601 0
 2548 0726 527A     		ldrb	r2, [r2, #9]	@ zero_extendqisi2
 2549              		.loc 1 597 0
 2550 0728 8DF8D000 		strb	r0, [sp, #208]
 2551              		.loc 1 598 0
 2552 072c 8DF8D110 		strb	r1, [sp, #209]
 2553              		.loc 1 596 0
 2554 0730 8DF8CF60 		strb	r6, [sp, #207]
 2555              		.loc 1 598 0
 2556 0734 981D     		adds	r0, r3, #6
 2557              		.loc 1 599 0
 2558 0736 2118     		adds	r1, r4, r0
 2559              		.loc 1 593 0
 2560 0738 E45C     		ldrb	r4, [r4, r3]	@ zero_extendqisi2
 2561              	.LVL212:
 2562 073a 8DF8CC40 		strb	r4, [sp, #204]
 2563              		.loc 1 598 0
 2564 073e 0290     		str	r0, [sp, #8]
 2565              		.loc 1 601 0
ARM GAS  /tmp/cc26jFNS.s 			page 46


 2566 0740 0032     		adds	r2, r2, #0
 2567              		.loc 1 599 0
 2568 0742 8878     		ldrb	r0, [r1, #2]	@ zero_extendqisi2
 2569 0744 0988     		ldrh	r1, [r1]	@ unaligned
 2570 0746 8DF8D400 		strb	r0, [sp, #212]
 2571              		.loc 1 601 0
 2572 074a 18BF     		it	ne
 2573 074c 0122     		movne	r2, #1
 2574 074e 0A33     		adds	r3, r3, #10
 2575              		.loc 1 603 0
 2576 0750 04A8     		add	r0, sp, #16
 2577              		.loc 1 601 0
 2578 0752 8DF8D520 		strb	r2, [sp, #213]
 2579 0756 0293     		str	r3, [sp, #8]
 2580              		.loc 1 599 0
 2581 0758 ADF8D210 		strh	r1, [sp, #210]	@ unaligned
 2582              		.loc 1 603 0
 2583 075c FFF7FEFF 		bl	conf_general_store_app_configuration
 2584              	.LVL213:
 2585              		.loc 1 604 0
 2586 0760 04A8     		add	r0, sp, #16
 2587 0762 FFF7FEFF 		bl	app_set_configuration
 2588              	.LVL214:
 2589              		.loc 1 605 0
 2590 0766 9DED060A 		vldr.32	s0, [sp, #24]
 2591 076a 0598     		ldr	r0, [sp, #20]
 2592 076c FFF7FEFF 		bl	timeout_configure
 2593              	.LVL215:
 2594              		.loc 1 606 0
 2595 0770 4FF4FA60 		mov	r0, #2000
 2596 0774 FFF7FEFF 		bl	chThdSleep
 2597              	.LVL216:
 2598              	.LBB119:
 2599              	.LBB120:
 2600              		.loc 1 90 0
 2601 0778 054B     		ldr	r3, .L204
 2602              	.LBE120:
 2603              	.LBE119:
 2604              		.loc 1 609 0
 2605 077a 0648     		ldr	r0, .L204+4
 2606              	.LBB123:
 2607              	.LBB121:
 2608              		.loc 1 90 0
 2609 077c 1B68     		ldr	r3, [r3]
 2610              	.LBE121:
 2611              	.LBE123:
 2612              		.loc 1 609 0
 2613 077e 0295     		str	r5, [sp, #8]
 2614 0780 1022     		movs	r2, #16
 2615 0782 0270     		strb	r2, [r0]
 2616              	.LVL217:
 2617              	.LBB124:
 2618              	.LBB122:
 2619              		.loc 1 90 0
 2620 0784 002B     		cmp	r3, #0
 2621 0786 3FF4BCAC 		beq	.L75
 2622              		.loc 1 91 0
ARM GAS  /tmp/cc26jFNS.s 			page 47


 2623 078a 2946     		mov	r1, r5
 2624 078c 9847     		blx	r3
 2625              	.LVL218:
 2626 078e B8E4     		b	.L75
 2627              	.L205:
 2628              		.align	2
 2629              	.L204:
 2630 0790 00000000 		.word	.LANCHOR10
 2631 0794 00000000 		.word	.LANCHOR8
 2632              	.LVL219:
 2633              	.L92:
 2634              	.LBE122:
 2635              	.LBE124:
 2636              		.loc 1 408 0
 2637 0798 B8F10E0F 		cmp	r8, #14
 2638 079c 00F06787 		beq	.L199
 2639              		.loc 1 411 0
 2640 07a0 F148     		ldr	r0, .L206
 2641 07a2 FFF7FEFF 		bl	conf_general_get_default_mc_configuration
 2642              	.LVL220:
 2643              	.L116:
 2644              		.loc 1 420 0
 2645 07a6 36AE     		add	r6, sp, #216
 2646              		.loc 1 417 0
 2647 07a8 EF4D     		ldr	r5, .L206
 2648              	.LVL221:
 2649              		.loc 1 415 0
 2650 07aa F04C     		ldr	r4, .L206+4
 2651              	.LVL222:
 2652              		.loc 1 418 0
 2653 07ac 6878     		ldrb	r0, [r5, #1]	@ zero_extendqisi2
 2654              		.loc 1 419 0
 2655 07ae AA78     		ldrb	r2, [r5, #2]	@ zero_extendqisi2
 2656              		.loc 1 422 0
 2657 07b0 95ED010A 		vldr.32	s0, [r5, #4]
 2658              		.loc 1 418 0
 2659 07b4 A070     		strb	r0, [r4, #2]
 2660              		.loc 1 420 0
 2661 07b6 0523     		movs	r3, #5
 2662 07b8 46F8D03D 		str	r3, [r6, #-208]!
 2663              		.loc 1 417 0
 2664 07bc 2B78     		ldrb	r3, [r5]	@ zero_extendqisi2
 2665 07be 6370     		strb	r3, [r4, #1]
 2666              		.loc 1 422 0
 2667 07c0 3146     		mov	r1, r6
 2668              		.loc 1 420 0
 2669 07c2 EB78     		ldrb	r3, [r5, #3]	@ zero_extendqisi2
 2670              		.loc 1 419 0
 2671 07c4 E270     		strb	r2, [r4, #3]
 2672              		.loc 1 422 0
 2673 07c6 2046     		mov	r0, r4
 2674              		.loc 1 420 0
 2675 07c8 2371     		strb	r3, [r4, #4]
 2676              		.loc 1 415 0
 2677 07ca 84F80080 		strb	r8, [r4]
 2678              		.loc 1 422 0
 2679 07ce FFF7FEFF 		bl	buffer_append_float32_auto
ARM GAS  /tmp/cc26jFNS.s 			page 48


 2680              	.LVL223:
 2681              		.loc 1 423 0
 2682 07d2 3146     		mov	r1, r6
 2683 07d4 95ED020A 		vldr.32	s0, [r5, #8]
 2684 07d8 2046     		mov	r0, r4
 2685 07da FFF7FEFF 		bl	buffer_append_float32_auto
 2686              	.LVL224:
 2687              		.loc 1 424 0
 2688 07de 3146     		mov	r1, r6
 2689 07e0 95ED030A 		vldr.32	s0, [r5, #12]
 2690 07e4 2046     		mov	r0, r4
 2691 07e6 FFF7FEFF 		bl	buffer_append_float32_auto
 2692              	.LVL225:
 2693              		.loc 1 425 0
 2694 07ea 3146     		mov	r1, r6
 2695 07ec 95ED040A 		vldr.32	s0, [r5, #16]
 2696 07f0 2046     		mov	r0, r4
 2697 07f2 FFF7FEFF 		bl	buffer_append_float32_auto
 2698              	.LVL226:
 2699              		.loc 1 426 0
 2700 07f6 3146     		mov	r1, r6
 2701 07f8 95ED050A 		vldr.32	s0, [r5, #20]
 2702 07fc 2046     		mov	r0, r4
 2703 07fe FFF7FEFF 		bl	buffer_append_float32_auto
 2704              	.LVL227:
 2705              		.loc 1 427 0
 2706 0802 3146     		mov	r1, r6
 2707 0804 95ED060A 		vldr.32	s0, [r5, #24]
 2708 0808 2046     		mov	r0, r4
 2709 080a FFF7FEFF 		bl	buffer_append_float32_auto
 2710              	.LVL228:
 2711              		.loc 1 428 0
 2712 080e 3146     		mov	r1, r6
 2713 0810 95ED070A 		vldr.32	s0, [r5, #28]
 2714 0814 2046     		mov	r0, r4
 2715 0816 FFF7FEFF 		bl	buffer_append_float32_auto
 2716              	.LVL229:
 2717              		.loc 1 429 0
 2718 081a 3146     		mov	r1, r6
 2719 081c 95ED080A 		vldr.32	s0, [r5, #32]
 2720 0820 2046     		mov	r0, r4
 2721 0822 FFF7FEFF 		bl	buffer_append_float32_auto
 2722              	.LVL230:
 2723              		.loc 1 430 0
 2724 0826 3146     		mov	r1, r6
 2725 0828 95ED090A 		vldr.32	s0, [r5, #36]
 2726 082c 2046     		mov	r0, r4
 2727 082e FFF7FEFF 		bl	buffer_append_float32_auto
 2728              	.LVL231:
 2729              		.loc 1 431 0
 2730 0832 3146     		mov	r1, r6
 2731 0834 95ED0A0A 		vldr.32	s0, [r5, #40]
 2732 0838 2046     		mov	r0, r4
 2733 083a FFF7FEFF 		bl	buffer_append_float32_auto
 2734              	.LVL232:
 2735              		.loc 1 432 0
 2736 083e 3146     		mov	r1, r6
ARM GAS  /tmp/cc26jFNS.s 			page 49


 2737 0840 95ED0B0A 		vldr.32	s0, [r5, #44]
 2738 0844 2046     		mov	r0, r4
 2739 0846 FFF7FEFF 		bl	buffer_append_float32_auto
 2740              	.LVL233:
 2741              		.loc 1 433 0
 2742 084a 3146     		mov	r1, r6
 2743 084c 95ED0C0A 		vldr.32	s0, [r5, #48]
 2744 0850 2046     		mov	r0, r4
 2745 0852 FFF7FEFF 		bl	buffer_append_float32_auto
 2746              	.LVL234:
 2747              		.loc 1 434 0
 2748 0856 3146     		mov	r1, r6
 2749 0858 95ED0D0A 		vldr.32	s0, [r5, #52]
 2750 085c 2046     		mov	r0, r4
 2751 085e FFF7FEFF 		bl	buffer_append_float32_auto
 2752              	.LVL235:
 2753              		.loc 1 435 0
 2754 0862 3146     		mov	r1, r6
 2755 0864 95ED0E0A 		vldr.32	s0, [r5, #56]
 2756 0868 2046     		mov	r0, r4
 2757 086a FFF7FEFF 		bl	buffer_append_float32_auto
 2758              	.LVL236:
 2759              		.loc 1 436 0
 2760 086e 029B     		ldr	r3, [sp, #8]
 2761 0870 95F83C20 		ldrb	r2, [r5, #60]	@ zero_extendqisi2
 2762 0874 E254     		strb	r2, [r4, r3]
 2763              		.loc 1 437 0
 2764 0876 95ED100A 		vldr.32	s0, [r5, #64]
 2765              		.loc 1 436 0
 2766 087a 0133     		adds	r3, r3, #1
 2767              		.loc 1 437 0
 2768 087c 3146     		mov	r1, r6
 2769 087e 2046     		mov	r0, r4
 2770              		.loc 1 436 0
 2771 0880 0293     		str	r3, [sp, #8]
 2772              		.loc 1 437 0
 2773 0882 FFF7FEFF 		bl	buffer_append_float32_auto
 2774              	.LVL237:
 2775              		.loc 1 438 0
 2776 0886 3146     		mov	r1, r6
 2777 0888 95ED110A 		vldr.32	s0, [r5, #68]
 2778 088c 2046     		mov	r0, r4
 2779 088e FFF7FEFF 		bl	buffer_append_float32_auto
 2780              	.LVL238:
 2781              		.loc 1 439 0
 2782 0892 3146     		mov	r1, r6
 2783 0894 95ED120A 		vldr.32	s0, [r5, #72]
 2784 0898 2046     		mov	r0, r4
 2785 089a FFF7FEFF 		bl	buffer_append_float32_auto
 2786              	.LVL239:
 2787              		.loc 1 440 0
 2788 089e 3146     		mov	r1, r6
 2789 08a0 95ED130A 		vldr.32	s0, [r5, #76]
 2790 08a4 2046     		mov	r0, r4
 2791 08a6 FFF7FEFF 		bl	buffer_append_float32_auto
 2792              	.LVL240:
 2793              		.loc 1 441 0
ARM GAS  /tmp/cc26jFNS.s 			page 50


 2794 08aa 3146     		mov	r1, r6
 2795 08ac 95ED140A 		vldr.32	s0, [r5, #80]
 2796 08b0 2046     		mov	r0, r4
 2797 08b2 FFF7FEFF 		bl	buffer_append_float32_auto
 2798              	.LVL241:
 2799              		.loc 1 442 0
 2800 08b6 3146     		mov	r1, r6
 2801 08b8 95ED150A 		vldr.32	s0, [r5, #84]
 2802 08bc 2046     		mov	r0, r4
 2803 08be FFF7FEFF 		bl	buffer_append_float32_auto
 2804              	.LVL242:
 2805              		.loc 1 443 0
 2806 08c2 3146     		mov	r1, r6
 2807 08c4 95ED160A 		vldr.32	s0, [r5, #88]
 2808 08c8 2046     		mov	r0, r4
 2809 08ca FFF7FEFF 		bl	buffer_append_float32_auto
 2810              	.LVL243:
 2811              		.loc 1 444 0
 2812 08ce 3146     		mov	r1, r6
 2813 08d0 95ED170A 		vldr.32	s0, [r5, #92]
 2814 08d4 2046     		mov	r0, r4
 2815 08d6 FFF7FEFF 		bl	buffer_append_float32_auto
 2816              	.LVL244:
 2817              		.loc 1 445 0
 2818 08da 3146     		mov	r1, r6
 2819 08dc 95ED180A 		vldr.32	s0, [r5, #96]
 2820 08e0 2046     		mov	r0, r4
 2821 08e2 FFF7FEFF 		bl	buffer_append_float32_auto
 2822              	.LVL245:
 2823              		.loc 1 447 0
 2824 08e6 3146     		mov	r1, r6
 2825 08e8 95ED1F0A 		vldr.32	s0, [r5, #124]
 2826 08ec 2046     		mov	r0, r4
 2827 08ee FFF7FEFF 		bl	buffer_append_float32_auto
 2828              	.LVL246:
 2829              		.loc 1 448 0
 2830 08f2 3146     		mov	r1, r6
 2831 08f4 95ED200A 		vldr.32	s0, [r5, #128]
 2832 08f8 2046     		mov	r0, r4
 2833 08fa FFF7FEFF 		bl	buffer_append_float32_auto
 2834              	.LVL247:
 2835              		.loc 1 449 0
 2836 08fe 3146     		mov	r1, r6
 2837 0900 95ED210A 		vldr.32	s0, [r5, #132]
 2838 0904 2046     		mov	r0, r4
 2839 0906 FFF7FEFF 		bl	buffer_append_float32_auto
 2840              	.LVL248:
 2841              		.loc 1 450 0
 2842 090a 3146     		mov	r1, r6
 2843 090c 95ED220A 		vldr.32	s0, [r5, #136]
 2844 0910 2046     		mov	r0, r4
 2845 0912 FFF7FEFF 		bl	buffer_append_float32_auto
 2846              	.LVL249:
 2847              		.loc 1 451 0
 2848 0916 3146     		mov	r1, r6
 2849 0918 95ED230A 		vldr.32	s0, [r5, #140]
 2850 091c 2046     		mov	r0, r4
ARM GAS  /tmp/cc26jFNS.s 			page 51


 2851 091e FFF7FEFF 		bl	buffer_append_float32_auto
 2852              	.LVL250:
 2853              		.loc 1 452 0
 2854 0922 3146     		mov	r1, r6
 2855 0924 95ED240A 		vldr.32	s0, [r5, #144]
 2856 0928 2046     		mov	r0, r4
 2857 092a FFF7FEFF 		bl	buffer_append_float32_auto
 2858              	.LVL251:
 2859              		.loc 1 453 0
 2860 092e 3146     		mov	r1, r6
 2861 0930 95ED250A 		vldr.32	s0, [r5, #148]
 2862 0934 2046     		mov	r0, r4
 2863 0936 FFF7FEFF 		bl	buffer_append_float32_auto
 2864              	.LVL252:
 2865              		.loc 1 455 0
 2866 093a 029B     		ldr	r3, [sp, #8]
 2867              		.loc 1 457 0
 2868 093c 95ED280A 		vldr.32	s0, [r5, #160]
 2869              		.loc 1 455 0
 2870 0940 05F19802 		add	r2, r5, #152
 2871 0944 03CA     		ldmia	r2!, {r0, r1}
 2872 0946 E218     		adds	r2, r4, r3
 2873 0948 E050     		str	r0, [r4, r3]	@ unaligned
 2874              		.loc 1 456 0
 2875 094a 0833     		adds	r3, r3, #8
 2876              		.loc 1 455 0
 2877 094c 5160     		str	r1, [r2, #4]	@ unaligned
 2878              		.loc 1 457 0
 2879 094e 2046     		mov	r0, r4
 2880 0950 3146     		mov	r1, r6
 2881              		.loc 1 456 0
 2882 0952 0293     		str	r3, [sp, #8]
 2883              		.loc 1 457 0
 2884 0954 FFF7FEFF 		bl	buffer_append_float32_auto
 2885              	.LVL253:
 2886              		.loc 1 459 0
 2887 0958 3146     		mov	r1, r6
 2888 095a 95ED290A 		vldr.32	s0, [r5, #164]
 2889 095e 2046     		mov	r0, r4
 2890 0960 FFF7FEFF 		bl	buffer_append_float32_auto
 2891              	.LVL254:
 2892              		.loc 1 460 0
 2893 0964 3146     		mov	r1, r6
 2894 0966 95ED2A0A 		vldr.32	s0, [r5, #168]
 2895 096a 2046     		mov	r0, r4
 2896 096c FFF7FEFF 		bl	buffer_append_float32_auto
 2897              	.LVL255:
 2898              		.loc 1 461 0
 2899 0970 3146     		mov	r1, r6
 2900 0972 95ED2B0A 		vldr.32	s0, [r5, #172]
 2901 0976 2046     		mov	r0, r4
 2902 0978 FFF7FEFF 		bl	buffer_append_float32_auto
 2903              	.LVL256:
 2904              		.loc 1 462 0
 2905 097c 3146     		mov	r1, r6
 2906 097e 95ED2C0A 		vldr.32	s0, [r5, #176]
 2907 0982 2046     		mov	r0, r4
ARM GAS  /tmp/cc26jFNS.s 			page 52


 2908 0984 FFF7FEFF 		bl	buffer_append_float32_auto
 2909              	.LVL257:
 2910              		.loc 1 463 0
 2911 0988 029B     		ldr	r3, [sp, #8]
 2912 098a 95F8B820 		ldrb	r2, [r5, #184]	@ zero_extendqisi2
 2913 098e E254     		strb	r2, [r4, r3]
 2914              		.loc 1 464 0
 2915 0990 95ED2D0A 		vldr.32	s0, [r5, #180]
 2916              		.loc 1 463 0
 2917 0994 0133     		adds	r3, r3, #1
 2918              		.loc 1 464 0
 2919 0996 3146     		mov	r1, r6
 2920 0998 2046     		mov	r0, r4
 2921              		.loc 1 463 0
 2922 099a 0293     		str	r3, [sp, #8]
 2923              		.loc 1 464 0
 2924 099c FFF7FEFF 		bl	buffer_append_float32_auto
 2925              	.LVL258:
 2926              		.loc 1 465 0
 2927 09a0 3146     		mov	r1, r6
 2928 09a2 95ED2F0A 		vldr.32	s0, [r5, #188]
 2929 09a6 2046     		mov	r0, r4
 2930 09a8 FFF7FEFF 		bl	buffer_append_float32_auto
 2931              	.LVL259:
 2932              		.loc 1 466 0
 2933 09ac 029B     		ldr	r3, [sp, #8]
 2934 09ae 95F8F820 		ldrb	r2, [r5, #248]	@ zero_extendqisi2
 2935 09b2 E254     		strb	r2, [r4, r3]
 2936              		.loc 1 467 0
 2937 09b4 95ED350A 		vldr.32	s0, [r5, #212]
 2938              		.loc 1 466 0
 2939 09b8 0133     		adds	r3, r3, #1
 2940              		.loc 1 467 0
 2941 09ba 3146     		mov	r1, r6
 2942 09bc 2046     		mov	r0, r4
 2943              		.loc 1 466 0
 2944 09be 0293     		str	r3, [sp, #8]
 2945              		.loc 1 467 0
 2946 09c0 FFF7FEFF 		bl	buffer_append_float32_auto
 2947              	.LVL260:
 2948              		.loc 1 468 0
 2949 09c4 3146     		mov	r1, r6
 2950 09c6 95ED360A 		vldr.32	s0, [r5, #216]
 2951 09ca 2046     		mov	r0, r4
 2952 09cc FFF7FEFF 		bl	buffer_append_float32_auto
 2953              	.LVL261:
 2954              		.loc 1 469 0
 2955 09d0 3146     		mov	r1, r6
 2956 09d2 95ED300A 		vldr.32	s0, [r5, #192]
 2957 09d6 2046     		mov	r0, r4
 2958 09d8 FFF7FEFF 		bl	buffer_append_float32_auto
 2959              	.LVL262:
 2960              		.loc 1 470 0
 2961 09dc 3146     		mov	r1, r6
 2962 09de 95ED310A 		vldr.32	s0, [r5, #196]
 2963 09e2 2046     		mov	r0, r4
 2964 09e4 FFF7FEFF 		bl	buffer_append_float32_auto
ARM GAS  /tmp/cc26jFNS.s 			page 53


 2965              	.LVL263:
 2966              		.loc 1 471 0
 2967 09e8 3146     		mov	r1, r6
 2968 09ea 95ED320A 		vldr.32	s0, [r5, #200]
 2969 09ee 2046     		mov	r0, r4
 2970 09f0 FFF7FEFF 		bl	buffer_append_float32_auto
 2971              	.LVL264:
 2972              		.loc 1 472 0
 2973 09f4 3146     		mov	r1, r6
 2974 09f6 95ED330A 		vldr.32	s0, [r5, #204]
 2975 09fa 2046     		mov	r0, r4
 2976 09fc FFF7FEFF 		bl	buffer_append_float32_auto
 2977              	.LVL265:
 2978              		.loc 1 473 0
 2979 0a00 3146     		mov	r1, r6
 2980 0a02 95ED340A 		vldr.32	s0, [r5, #208]
 2981 0a06 2046     		mov	r0, r4
 2982 0a08 FFF7FEFF 		bl	buffer_append_float32_auto
 2983              	.LVL266:
 2984              		.loc 1 474 0
 2985 0a0c 3146     		mov	r1, r6
 2986 0a0e 95ED370A 		vldr.32	s0, [r5, #220]
 2987 0a12 2046     		mov	r0, r4
 2988 0a14 FFF7FEFF 		bl	buffer_append_float32_auto
 2989              	.LVL267:
 2990              		.loc 1 475 0
 2991 0a18 3146     		mov	r1, r6
 2992 0a1a 95ED380A 		vldr.32	s0, [r5, #224]
 2993 0a1e 2046     		mov	r0, r4
 2994 0a20 FFF7FEFF 		bl	buffer_append_float32_auto
 2995              	.LVL268:
 2996              		.loc 1 476 0
 2997 0a24 3146     		mov	r1, r6
 2998 0a26 95ED390A 		vldr.32	s0, [r5, #228]
 2999 0a2a 2046     		mov	r0, r4
 3000 0a2c FFF7FEFF 		bl	buffer_append_float32_auto
 3001              	.LVL269:
 3002              		.loc 1 477 0
 3003 0a30 3146     		mov	r1, r6
 3004 0a32 95ED3A0A 		vldr.32	s0, [r5, #232]
 3005 0a36 2046     		mov	r0, r4
 3006 0a38 FFF7FEFF 		bl	buffer_append_float32_auto
 3007              	.LVL270:
 3008              		.loc 1 478 0
 3009 0a3c 3146     		mov	r1, r6
 3010 0a3e 95ED3B0A 		vldr.32	s0, [r5, #236]
 3011 0a42 2046     		mov	r0, r4
 3012 0a44 FFF7FEFF 		bl	buffer_append_float32_auto
 3013              	.LVL271:
 3014              		.loc 1 479 0
 3015 0a48 3146     		mov	r1, r6
 3016 0a4a 95ED3C0A 		vldr.32	s0, [r5, #240]
 3017 0a4e 2046     		mov	r0, r4
 3018 0a50 FFF7FEFF 		bl	buffer_append_float32_auto
 3019              	.LVL272:
 3020              		.loc 1 480 0
 3021 0a54 3146     		mov	r1, r6
ARM GAS  /tmp/cc26jFNS.s 			page 54


 3022 0a56 95ED3D0A 		vldr.32	s0, [r5, #244]
 3023 0a5a 2046     		mov	r0, r4
 3024 0a5c FFF7FEFF 		bl	buffer_append_float32_auto
 3025              	.LVL273:
 3026              		.loc 1 481 0
 3027 0a60 2A46     		mov	r2, r5
 3028 0a62 029B     		ldr	r3, [sp, #8]
 3029 0a64 52F8F91F 		ldr	r1, [r2, #249]!	@ unaligned
 3030 0a68 E150     		str	r1, [r4, r3]	@ unaligned
 3031 0a6a 5068     		ldr	r0, [r2, #4]	@ unaligned
 3032              		.loc 1 483 0
 3033 0a6c 95ED410A 		vldr.32	s0, [r5, #260]
 3034              		.loc 1 481 0
 3035 0a70 E218     		adds	r2, r4, r3
 3036              		.loc 1 483 0
 3037 0a72 3146     		mov	r1, r6
 3038              		.loc 1 482 0
 3039 0a74 0833     		adds	r3, r3, #8
 3040              		.loc 1 481 0
 3041 0a76 5060     		str	r0, [r2, #4]	@ unaligned
 3042              		.loc 1 483 0
 3043 0a78 2046     		mov	r0, r4
 3044              		.loc 1 482 0
 3045 0a7a 0293     		str	r3, [sp, #8]
 3046              		.loc 1 483 0
 3047 0a7c FFF7FEFF 		bl	buffer_append_float32_auto
 3048              	.LVL274:
 3049              		.loc 1 484 0
 3050 0a80 029B     		ldr	r3, [sp, #8]
 3051 0a82 95F80821 		ldrb	r2, [r5, #264]	@ zero_extendqisi2
 3052 0a86 E254     		strb	r2, [r4, r3]
 3053              		.loc 1 485 0
 3054 0a88 E218     		adds	r2, r4, r3
 3055 0a8a 95F80971 		ldrb	r7, [r5, #265]	@ zero_extendqisi2
 3056              	.LVL275:
 3057              		.loc 1 486 0
 3058 0a8e 95ED430A 		vldr.32	s0, [r5, #268]
 3059              		.loc 1 485 0
 3060 0a92 5770     		strb	r7, [r2, #1]
 3061 0a94 0233     		adds	r3, r3, #2
 3062              		.loc 1 486 0
 3063 0a96 3146     		mov	r1, r6
 3064 0a98 2046     		mov	r0, r4
 3065              		.loc 1 485 0
 3066 0a9a 0293     		str	r3, [sp, #8]
 3067              		.loc 1 486 0
 3068 0a9c FFF7FEFF 		bl	buffer_append_float32_auto
 3069              	.LVL276:
 3070              		.loc 1 487 0
 3071 0aa0 029B     		ldr	r3, [sp, #8]
 3072 0aa2 95F81021 		ldrb	r2, [r5, #272]	@ zero_extendqisi2
 3073 0aa6 E254     		strb	r2, [r4, r3]
 3074              		.loc 1 488 0
 3075 0aa8 95ED450A 		vldr.32	s0, [r5, #276]
 3076              		.loc 1 487 0
 3077 0aac 0133     		adds	r3, r3, #1
 3078              		.loc 1 488 0
ARM GAS  /tmp/cc26jFNS.s 			page 55


 3079 0aae 3146     		mov	r1, r6
 3080 0ab0 2046     		mov	r0, r4
 3081              		.loc 1 487 0
 3082 0ab2 0293     		str	r3, [sp, #8]
 3083              		.loc 1 488 0
 3084 0ab4 FFF7FEFF 		bl	buffer_append_float32_auto
 3085              	.LVL277:
 3086              		.loc 1 489 0
 3087 0ab8 3146     		mov	r1, r6
 3088 0aba 95ED460A 		vldr.32	s0, [r5, #280]
 3089 0abe 2046     		mov	r0, r4
 3090 0ac0 FFF7FEFF 		bl	buffer_append_float32_auto
 3091              	.LVL278:
 3092              		.loc 1 491 0
 3093 0ac4 3146     		mov	r1, r6
 3094 0ac6 95ED470A 		vldr.32	s0, [r5, #284]
 3095 0aca 2046     		mov	r0, r4
 3096 0acc FFF7FEFF 		bl	buffer_append_float32_auto
 3097              	.LVL279:
 3098              		.loc 1 492 0
 3099 0ad0 3146     		mov	r1, r6
 3100 0ad2 95ED480A 		vldr.32	s0, [r5, #288]
 3101 0ad6 2046     		mov	r0, r4
 3102 0ad8 FFF7FEFF 		bl	buffer_append_float32_auto
 3103              	.LVL280:
 3104              		.loc 1 493 0
 3105 0adc 3146     		mov	r1, r6
 3106 0ade 95ED490A 		vldr.32	s0, [r5, #292]
 3107 0ae2 2046     		mov	r0, r4
 3108 0ae4 FFF7FEFF 		bl	buffer_append_float32_auto
 3109              	.LVL281:
 3110              		.loc 1 494 0
 3111 0ae8 3146     		mov	r1, r6
 3112 0aea 95ED4A0A 		vldr.32	s0, [r5, #296]
 3113 0aee 2046     		mov	r0, r4
 3114 0af0 FFF7FEFF 		bl	buffer_append_float32_auto
 3115              	.LVL282:
 3116              		.loc 1 495 0
 3117 0af4 3146     		mov	r1, r6
 3118 0af6 95ED4B0A 		vldr.32	s0, [r5, #300]
 3119 0afa 2046     		mov	r0, r4
 3120 0afc FFF7FEFF 		bl	buffer_append_float32_auto
 3121              	.LVL283:
 3122              		.loc 1 496 0
 3123 0b00 029B     		ldr	r3, [sp, #8]
 3124 0b02 95F83021 		ldrb	r2, [r5, #304]	@ zero_extendqisi2
 3125 0b06 E254     		strb	r2, [r4, r3]
 3126              		.loc 1 498 0
 3127 0b08 95ED4D0A 		vldr.32	s0, [r5, #308]
 3128              		.loc 1 496 0
 3129 0b0c 0133     		adds	r3, r3, #1
 3130              		.loc 1 498 0
 3131 0b0e 3146     		mov	r1, r6
 3132 0b10 2046     		mov	r0, r4
 3133              		.loc 1 496 0
 3134 0b12 0293     		str	r3, [sp, #8]
 3135              		.loc 1 498 0
ARM GAS  /tmp/cc26jFNS.s 			page 56


 3136 0b14 FFF7FEFF 		bl	buffer_append_float32_auto
 3137              	.LVL284:
 3138              		.loc 1 499 0
 3139 0b18 3146     		mov	r1, r6
 3140 0b1a 95ED4E0A 		vldr.32	s0, [r5, #312]
 3141 0b1e 2046     		mov	r0, r4
 3142 0b20 FFF7FEFF 		bl	buffer_append_float32_auto
 3143              	.LVL285:
 3144              		.loc 1 500 0
 3145 0b24 3146     		mov	r1, r6
 3146 0b26 95ED4F0A 		vldr.32	s0, [r5, #316]
 3147 0b2a 2046     		mov	r0, r4
 3148 0b2c FFF7FEFF 		bl	buffer_append_float32_auto
 3149              	.LVL286:
 3150              		.loc 1 501 0
 3151 0b30 3146     		mov	r1, r6
 3152 0b32 95ED500A 		vldr.32	s0, [r5, #320]
 3153 0b36 2046     		mov	r0, r4
 3154 0b38 FFF7FEFF 		bl	buffer_append_float32_auto
 3155              	.LVL287:
 3156              		.loc 1 502 0
 3157 0b3c 3146     		mov	r1, r6
 3158 0b3e 95ED510A 		vldr.32	s0, [r5, #324]
 3159 0b42 2046     		mov	r0, r4
 3160 0b44 FFF7FEFF 		bl	buffer_append_float32_auto
 3161              	.LVL288:
 3162              		.loc 1 504 0
 3163 0b48 3146     		mov	r1, r6
 3164 0b4a 95ED520A 		vldr.32	s0, [r5, #328]
 3165 0b4e 2046     		mov	r0, r4
 3166 0b50 FFF7FEFF 		bl	buffer_append_float32_auto
 3167              	.LVL289:
 3168              		.loc 1 505 0
 3169 0b54 3146     		mov	r1, r6
 3170 0b56 95ED530A 		vldr.32	s0, [r5, #332]
 3171 0b5a 2046     		mov	r0, r4
 3172 0b5c FFF7FEFF 		bl	buffer_append_float32_auto
 3173              	.LVL290:
 3174              		.loc 1 506 0
 3175 0b60 3146     		mov	r1, r6
 3176 0b62 95ED540A 		vldr.32	s0, [r5, #336]
 3177 0b66 03E0     		b	.L207
 3178              	.L208:
 3179              		.align	2
 3180              	.L206:
 3181 0b68 00000000 		.word	.LANCHOR15
 3182 0b6c 00000000 		.word	.LANCHOR8
 3183              	.L207:
 3184 0b70 2046     		mov	r0, r4
 3185 0b72 FFF7FEFF 		bl	buffer_append_float32_auto
 3186              	.LVL291:
 3187              		.loc 1 507 0
 3188 0b76 95ED550A 		vldr.32	s0, [r5, #340]
 3189 0b7a 3146     		mov	r1, r6
 3190 0b7c 2046     		mov	r0, r4
 3191 0b7e FFF7FEFF 		bl	buffer_append_float32_auto
 3192              	.LVL292:
ARM GAS  /tmp/cc26jFNS.s 			page 57


 3193              		.loc 1 509 0
 3194 0b82 3246     		mov	r2, r6
 3195 0b84 D5F85811 		ldr	r1, [r5, #344]
 3196 0b88 2046     		mov	r0, r4
 3197 0b8a FFF7FEFF 		bl	buffer_append_int32
 3198              	.LVL293:
 3199              		.loc 1 510 0
 3200 0b8e 3146     		mov	r1, r6
 3201 0b90 95ED570A 		vldr.32	s0, [r5, #348]
 3202 0b94 2046     		mov	r0, r4
 3203 0b96 FFF7FEFF 		bl	buffer_append_float32_auto
 3204              	.LVL294:
 3205              		.loc 1 511 0
 3206 0b9a 95ED580A 		vldr.32	s0, [r5, #352]
 3207 0b9e 3146     		mov	r1, r6
 3208 0ba0 2046     		mov	r0, r4
 3209 0ba2 FFF7FEFF 		bl	buffer_append_float32_auto
 3210              	.LVL295:
 3211              		.loc 1 512 0
 3212 0ba6 3246     		mov	r2, r6
 3213 0ba8 D5F86411 		ldr	r1, [r5, #356]
 3214 0bac 2046     		mov	r0, r4
 3215 0bae FFF7FEFF 		bl	buffer_append_uint32
 3216              	.LVL296:
 3217              		.loc 1 513 0
 3218 0bb2 029B     		ldr	r3, [sp, #8]
 3219 0bb4 95F86821 		ldrb	r2, [r5, #360]	@ zero_extendqisi2
 3220 0bb8 E254     		strb	r2, [r4, r3]
 3221              		.loc 1 514 0
 3222 0bba E218     		adds	r2, r4, r3
 3223              		.loc 1 515 0
 3224 0bbc 95F86A01 		ldrb	r0, [r5, #362]	@ zero_extendqisi2
 3225 0bc0 9070     		strb	r0, [r2, #2]
 3226              		.loc 1 516 0
 3227 0bc2 0433     		adds	r3, r3, #4
 3228              		.loc 1 517 0
 3229 0bc4 95ED5C0A 		vldr.32	s0, [r5, #368]
 3230              		.loc 1 514 0
 3231 0bc8 95F86971 		ldrb	r7, [r5, #361]	@ zero_extendqisi2
 3232              		.loc 1 516 0
 3233 0bcc 0293     		str	r3, [sp, #8]
 3234              		.loc 1 517 0
 3235 0bce 3146     		mov	r1, r6
 3236              		.loc 1 516 0
 3237 0bd0 D5F86C31 		ldr	r3, [r5, #364]
 3238 0bd4 D370     		strb	r3, [r2, #3]
 3239              		.loc 1 517 0
 3240 0bd6 2046     		mov	r0, r4
 3241              		.loc 1 514 0
 3242 0bd8 5770     		strb	r7, [r2, #1]
 3243              		.loc 1 517 0
 3244 0bda FFF7FEFF 		bl	buffer_append_float32_auto
 3245              	.LVL297:
 3246              		.loc 1 518 0
 3247 0bde 3146     		mov	r1, r6
 3248 0be0 95ED5D0A 		vldr.32	s0, [r5, #372]
 3249 0be4 2046     		mov	r0, r4
ARM GAS  /tmp/cc26jFNS.s 			page 58


 3250 0be6 FFF7FEFF 		bl	buffer_append_float32_auto
 3251              	.LVL298:
 3252              		.loc 1 519 0
 3253 0bea 3146     		mov	r1, r6
 3254 0bec 95ED5E0A 		vldr.32	s0, [r5, #376]
 3255 0bf0 2046     		mov	r0, r4
 3256 0bf2 FFF7FEFF 		bl	buffer_append_float32_auto
 3257              	.LVL299:
 3258              		.loc 1 520 0
 3259 0bf6 3146     		mov	r1, r6
 3260 0bf8 95ED5F0A 		vldr.32	s0, [r5, #380]
 3261 0bfc 2046     		mov	r0, r4
 3262 0bfe FFF7FEFF 		bl	buffer_append_float32_auto
 3263              	.LVL300:
 3264              	.LBB125:
 3265              	.LBB126:
 3266              		.loc 1 90 0
 3267 0c02 064B     		ldr	r3, .L209
 3268              	.LBE126:
 3269              	.LBE125:
 3270              		.loc 1 521 0
 3271 0c04 0299     		ldr	r1, [sp, #8]
 3272 0c06 95F88021 		ldrb	r2, [r5, #384]	@ zero_extendqisi2
 3273              	.LBB129:
 3274              	.LBB127:
 3275              		.loc 1 90 0
 3276 0c0a 1B68     		ldr	r3, [r3]
 3277              	.LBE127:
 3278              	.LBE129:
 3279              		.loc 1 521 0
 3280 0c0c 6254     		strb	r2, [r4, r1]
 3281              	.LVL301:
 3282 0c0e 0131     		adds	r1, r1, #1
 3283              	.LVL302:
 3284 0c10 0291     		str	r1, [sp, #8]
 3285              	.LBB130:
 3286              	.LBB128:
 3287              		.loc 1 90 0
 3288 0c12 002B     		cmp	r3, #0
 3289 0c14 7FF473AA 		bne	.L189
 3290 0c18 FFF773BA 		b	.L75
 3291              	.L210:
 3292              		.align	2
 3293              	.L209:
 3294 0c1c 00000000 		.word	.LANCHOR10
 3295              	.LVL303:
 3296              	.L91:
 3297              	.LBE128:
 3298              	.LBE130:
 3299              		.loc 1 248 0
 3300 0c20 FFF7FEFF 		bl	mc_interface_get_configuration
 3301              	.LVL304:
 3302 0c24 E54D     		ldr	r5, .L211
 3303              	.LVL305:
 3304              		.loc 1 254 0
 3305 0c26 36AE     		add	r6, sp, #216
 3306              		.loc 1 248 0
ARM GAS  /tmp/cc26jFNS.s 			page 59


 3307 0c28 0146     		mov	r1, r0
 3308 0c2a 4FF4C272 		mov	r2, #388
 3309 0c2e 2846     		mov	r0, r5
 3310 0c30 FFF7FEFF 		bl	memcpy
 3311              	.LVL306:
 3312              		.loc 1 254 0
 3313 0c34 0423     		movs	r3, #4
 3314 0c36 46F8D03D 		str	r3, [r6, #-208]!
 3315              		.loc 1 251 0
 3316 0c3a 7978     		ldrb	r1, [r7, #1]	@ zero_extendqisi2
 3317              		.loc 1 252 0
 3318 0c3c B878     		ldrb	r0, [r7, #2]	@ zero_extendqisi2
 3319              		.loc 1 253 0
 3320 0c3e FA78     		ldrb	r2, [r7, #3]	@ zero_extendqisi2
 3321              		.loc 1 254 0
 3322 0c40 3B79     		ldrb	r3, [r7, #4]	@ zero_extendqisi2
 3323              		.loc 1 251 0
 3324 0c42 2970     		strb	r1, [r5]
 3325              		.loc 1 252 0
 3326 0c44 6870     		strb	r0, [r5, #1]
 3327              		.loc 1 256 0
 3328 0c46 3146     		mov	r1, r6
 3329 0c48 2046     		mov	r0, r4
 3330              		.loc 1 253 0
 3331 0c4a AA70     		strb	r2, [r5, #2]
 3332              		.loc 1 254 0
 3333 0c4c EB70     		strb	r3, [r5, #3]
 3334              		.loc 1 256 0
 3335 0c4e FFF7FEFF 		bl	buffer_get_float32_auto
 3336              	.LVL307:
 3337              		.loc 1 257 0
 3338 0c52 3146     		mov	r1, r6
 3339 0c54 2046     		mov	r0, r4
 3340              		.loc 1 256 0
 3341 0c56 85ED010A 		vstr.32	s0, [r5, #4]
 3342              		.loc 1 257 0
 3343 0c5a FFF7FEFF 		bl	buffer_get_float32_auto
 3344              	.LVL308:
 3345              		.loc 1 258 0
 3346 0c5e 3146     		mov	r1, r6
 3347 0c60 2046     		mov	r0, r4
 3348              		.loc 1 257 0
 3349 0c62 85ED020A 		vstr.32	s0, [r5, #8]
 3350              		.loc 1 258 0
 3351 0c66 FFF7FEFF 		bl	buffer_get_float32_auto
 3352              	.LVL309:
 3353              		.loc 1 259 0
 3354 0c6a 3146     		mov	r1, r6
 3355 0c6c 2046     		mov	r0, r4
 3356              		.loc 1 258 0
 3357 0c6e 85ED030A 		vstr.32	s0, [r5, #12]
 3358              		.loc 1 259 0
 3359 0c72 FFF7FEFF 		bl	buffer_get_float32_auto
 3360              	.LVL310:
 3361              		.loc 1 260 0
 3362 0c76 3146     		mov	r1, r6
 3363 0c78 2046     		mov	r0, r4
ARM GAS  /tmp/cc26jFNS.s 			page 60


 3364              		.loc 1 259 0
 3365 0c7a 85ED040A 		vstr.32	s0, [r5, #16]
 3366              		.loc 1 260 0
 3367 0c7e FFF7FEFF 		bl	buffer_get_float32_auto
 3368              	.LVL311:
 3369              		.loc 1 261 0
 3370 0c82 3146     		mov	r1, r6
 3371 0c84 2046     		mov	r0, r4
 3372              		.loc 1 260 0
 3373 0c86 85ED050A 		vstr.32	s0, [r5, #20]
 3374              		.loc 1 261 0
 3375 0c8a FFF7FEFF 		bl	buffer_get_float32_auto
 3376              	.LVL312:
 3377              		.loc 1 262 0
 3378 0c8e 3146     		mov	r1, r6
 3379 0c90 2046     		mov	r0, r4
 3380              		.loc 1 261 0
 3381 0c92 85ED060A 		vstr.32	s0, [r5, #24]
 3382              		.loc 1 262 0
 3383 0c96 FFF7FEFF 		bl	buffer_get_float32_auto
 3384              	.LVL313:
 3385              		.loc 1 263 0
 3386 0c9a 3146     		mov	r1, r6
 3387 0c9c 2046     		mov	r0, r4
 3388              		.loc 1 262 0
 3389 0c9e 85ED070A 		vstr.32	s0, [r5, #28]
 3390              		.loc 1 263 0
 3391 0ca2 FFF7FEFF 		bl	buffer_get_float32_auto
 3392              	.LVL314:
 3393              		.loc 1 264 0
 3394 0ca6 3146     		mov	r1, r6
 3395 0ca8 2046     		mov	r0, r4
 3396              		.loc 1 263 0
 3397 0caa 85ED080A 		vstr.32	s0, [r5, #32]
 3398              		.loc 1 264 0
 3399 0cae FFF7FEFF 		bl	buffer_get_float32_auto
 3400              	.LVL315:
 3401              		.loc 1 265 0
 3402 0cb2 3146     		mov	r1, r6
 3403 0cb4 2046     		mov	r0, r4
 3404              		.loc 1 264 0
 3405 0cb6 85ED090A 		vstr.32	s0, [r5, #36]
 3406              		.loc 1 265 0
 3407 0cba FFF7FEFF 		bl	buffer_get_float32_auto
 3408              	.LVL316:
 3409              		.loc 1 266 0
 3410 0cbe 3146     		mov	r1, r6
 3411 0cc0 2046     		mov	r0, r4
 3412              		.loc 1 265 0
 3413 0cc2 85ED0A0A 		vstr.32	s0, [r5, #40]
 3414              		.loc 1 266 0
 3415 0cc6 FFF7FEFF 		bl	buffer_get_float32_auto
 3416              	.LVL317:
 3417              		.loc 1 267 0
 3418 0cca 3146     		mov	r1, r6
 3419 0ccc 2046     		mov	r0, r4
 3420              		.loc 1 266 0
ARM GAS  /tmp/cc26jFNS.s 			page 61


 3421 0cce 85ED0B0A 		vstr.32	s0, [r5, #44]
 3422              		.loc 1 267 0
 3423 0cd2 FFF7FEFF 		bl	buffer_get_float32_auto
 3424              	.LVL318:
 3425              		.loc 1 268 0
 3426 0cd6 3146     		mov	r1, r6
 3427 0cd8 2046     		mov	r0, r4
 3428              		.loc 1 267 0
 3429 0cda 85ED0C0A 		vstr.32	s0, [r5, #48]
 3430              		.loc 1 268 0
 3431 0cde FFF7FEFF 		bl	buffer_get_float32_auto
 3432              	.LVL319:
 3433              		.loc 1 269 0
 3434 0ce2 3146     		mov	r1, r6
 3435 0ce4 2046     		mov	r0, r4
 3436              		.loc 1 268 0
 3437 0ce6 85ED0D0A 		vstr.32	s0, [r5, #52]
 3438              		.loc 1 269 0
 3439 0cea FFF7FEFF 		bl	buffer_get_float32_auto
 3440              	.LVL320:
 3441              		.loc 1 270 0
 3442 0cee 029B     		ldr	r3, [sp, #8]
 3443              		.loc 1 269 0
 3444 0cf0 85ED0E0A 		vstr.32	s0, [r5, #56]
 3445              		.loc 1 270 0
 3446 0cf4 E25C     		ldrb	r2, [r4, r3]	@ zero_extendqisi2
 3447 0cf6 0032     		adds	r2, r2, #0
 3448 0cf8 18BF     		it	ne
 3449 0cfa 0122     		movne	r2, #1
 3450 0cfc 0133     		adds	r3, r3, #1
 3451              		.loc 1 271 0
 3452 0cfe 3146     		mov	r1, r6
 3453 0d00 2046     		mov	r0, r4
 3454              		.loc 1 270 0
 3455 0d02 85F83C20 		strb	r2, [r5, #60]
 3456 0d06 0293     		str	r3, [sp, #8]
 3457              		.loc 1 271 0
 3458 0d08 FFF7FEFF 		bl	buffer_get_float32_auto
 3459              	.LVL321:
 3460              		.loc 1 272 0
 3461 0d0c 3146     		mov	r1, r6
 3462 0d0e 2046     		mov	r0, r4
 3463              		.loc 1 271 0
 3464 0d10 85ED100A 		vstr.32	s0, [r5, #64]
 3465              		.loc 1 272 0
 3466 0d14 FFF7FEFF 		bl	buffer_get_float32_auto
 3467              	.LVL322:
 3468              		.loc 1 273 0
 3469 0d18 3146     		mov	r1, r6
 3470 0d1a 2046     		mov	r0, r4
 3471              		.loc 1 272 0
 3472 0d1c 85ED110A 		vstr.32	s0, [r5, #68]
 3473              		.loc 1 273 0
 3474 0d20 FFF7FEFF 		bl	buffer_get_float32_auto
 3475              	.LVL323:
 3476              		.loc 1 274 0
 3477 0d24 3146     		mov	r1, r6
ARM GAS  /tmp/cc26jFNS.s 			page 62


 3478 0d26 2046     		mov	r0, r4
 3479              		.loc 1 273 0
 3480 0d28 85ED120A 		vstr.32	s0, [r5, #72]
 3481              		.loc 1 274 0
 3482 0d2c FFF7FEFF 		bl	buffer_get_float32_auto
 3483              	.LVL324:
 3484              		.loc 1 275 0
 3485 0d30 3146     		mov	r1, r6
 3486 0d32 2046     		mov	r0, r4
 3487              		.loc 1 274 0
 3488 0d34 85ED130A 		vstr.32	s0, [r5, #76]
 3489              		.loc 1 275 0
 3490 0d38 FFF7FEFF 		bl	buffer_get_float32_auto
 3491              	.LVL325:
 3492              		.loc 1 276 0
 3493 0d3c 3146     		mov	r1, r6
 3494 0d3e 2046     		mov	r0, r4
 3495              		.loc 1 275 0
 3496 0d40 85ED140A 		vstr.32	s0, [r5, #80]
 3497              		.loc 1 276 0
 3498 0d44 FFF7FEFF 		bl	buffer_get_float32_auto
 3499              	.LVL326:
 3500              		.loc 1 277 0
 3501 0d48 3146     		mov	r1, r6
 3502 0d4a 2046     		mov	r0, r4
 3503              		.loc 1 276 0
 3504 0d4c 85ED150A 		vstr.32	s0, [r5, #84]
 3505              		.loc 1 277 0
 3506 0d50 FFF7FEFF 		bl	buffer_get_float32_auto
 3507              	.LVL327:
 3508              		.loc 1 278 0
 3509 0d54 3146     		mov	r1, r6
 3510 0d56 2046     		mov	r0, r4
 3511              		.loc 1 277 0
 3512 0d58 85ED160A 		vstr.32	s0, [r5, #88]
 3513              		.loc 1 278 0
 3514 0d5c FFF7FEFF 		bl	buffer_get_float32_auto
 3515              	.LVL328:
 3516              		.loc 1 279 0
 3517 0d60 3146     		mov	r1, r6
 3518 0d62 2046     		mov	r0, r4
 3519              		.loc 1 278 0
 3520 0d64 85ED170A 		vstr.32	s0, [r5, #92]
 3521              		.loc 1 279 0
 3522 0d68 FFF7FEFF 		bl	buffer_get_float32_auto
 3523              	.LVL329:
 3524              		.loc 1 283 0
 3525 0d6c E968     		ldr	r1, [r5, #12]	@ float
 3526              		.loc 1 284 0
 3527 0d6e 2869     		ldr	r0, [r5, #16]	@ float
 3528              		.loc 1 281 0
 3529 0d70 6A68     		ldr	r2, [r5, #4]	@ float
 3530              		.loc 1 282 0
 3531 0d72 AB68     		ldr	r3, [r5, #8]	@ float
 3532              		.loc 1 283 0
 3533 0d74 E966     		str	r1, [r5, #108]	@ float
 3534              		.loc 1 284 0
ARM GAS  /tmp/cc26jFNS.s 			page 63


 3535 0d76 2867     		str	r0, [r5, #112]	@ float
 3536              		.loc 1 288 0
 3537 0d78 3146     		mov	r1, r6
 3538 0d7a 2046     		mov	r0, r4
 3539              		.loc 1 281 0
 3540 0d7c 6A66     		str	r2, [r5, #100]	@ float
 3541              		.loc 1 285 0
 3542 0d7e 6A67     		str	r2, [r5, #116]	@ float
 3543              		.loc 1 282 0
 3544 0d80 AB66     		str	r3, [r5, #104]	@ float
 3545              		.loc 1 286 0
 3546 0d82 AB67     		str	r3, [r5, #120]	@ float
 3547              		.loc 1 279 0
 3548 0d84 85ED180A 		vstr.32	s0, [r5, #96]
 3549              		.loc 1 288 0
 3550 0d88 FFF7FEFF 		bl	buffer_get_float32_auto
 3551              	.LVL330:
 3552              		.loc 1 289 0
 3553 0d8c 3146     		mov	r1, r6
 3554 0d8e 2046     		mov	r0, r4
 3555              		.loc 1 288 0
 3556 0d90 85ED1F0A 		vstr.32	s0, [r5, #124]
 3557              		.loc 1 289 0
 3558 0d94 FFF7FEFF 		bl	buffer_get_float32_auto
 3559              	.LVL331:
 3560              		.loc 1 290 0
 3561 0d98 3146     		mov	r1, r6
 3562 0d9a 2046     		mov	r0, r4
 3563              		.loc 1 289 0
 3564 0d9c 85ED200A 		vstr.32	s0, [r5, #128]
 3565              		.loc 1 290 0
 3566 0da0 FFF7FEFF 		bl	buffer_get_float32_auto
 3567              	.LVL332:
 3568              		.loc 1 291 0
 3569 0da4 3146     		mov	r1, r6
 3570 0da6 2046     		mov	r0, r4
 3571              		.loc 1 290 0
 3572 0da8 85ED210A 		vstr.32	s0, [r5, #132]
 3573              		.loc 1 291 0
 3574 0dac FFF7FEFF 		bl	buffer_get_float32_auto
 3575              	.LVL333:
 3576              		.loc 1 292 0
 3577 0db0 3146     		mov	r1, r6
 3578 0db2 2046     		mov	r0, r4
 3579              		.loc 1 291 0
 3580 0db4 85ED220A 		vstr.32	s0, [r5, #136]
 3581              		.loc 1 292 0
 3582 0db8 FFF7FEFF 		bl	buffer_get_float32_auto
 3583              	.LVL334:
 3584              		.loc 1 293 0
 3585 0dbc 3146     		mov	r1, r6
 3586 0dbe 2046     		mov	r0, r4
 3587              		.loc 1 292 0
 3588 0dc0 85ED230A 		vstr.32	s0, [r5, #140]
 3589              		.loc 1 293 0
 3590 0dc4 FFF7FEFF 		bl	buffer_get_float32_auto
 3591              	.LVL335:
ARM GAS  /tmp/cc26jFNS.s 			page 64


 3592              		.loc 1 294 0
 3593 0dc8 3146     		mov	r1, r6
 3594 0dca 2046     		mov	r0, r4
 3595              		.loc 1 293 0
 3596 0dcc 85ED240A 		vstr.32	s0, [r5, #144]
 3597              		.loc 1 294 0
 3598 0dd0 FFF7FEFF 		bl	buffer_get_float32_auto
 3599              	.LVL336:
 3600              		.loc 1 296 0
 3601 0dd4 029B     		ldr	r3, [sp, #8]
 3602              		.loc 1 294 0
 3603 0dd6 85ED250A 		vstr.32	s0, [r5, #148]
 3604              		.loc 1 296 0
 3605 0dda E118     		adds	r1, r4, r3
 3606 0ddc 05F19802 		add	r2, r5, #152
 3607 0de0 0868     		ldr	r0, [r1]	@ unaligned
 3608 0de2 4968     		ldr	r1, [r1, #4]	@ unaligned
 3609              		.loc 1 297 0
 3610 0de4 0833     		adds	r3, r3, #8
 3611              		.loc 1 296 0
 3612 0de6 03C2     		stmia	r2!, {r0, r1}
 3613              		.loc 1 298 0
 3614 0de8 3146     		mov	r1, r6
 3615 0dea 2046     		mov	r0, r4
 3616              		.loc 1 297 0
 3617 0dec 0293     		str	r3, [sp, #8]
 3618              		.loc 1 298 0
 3619 0dee FFF7FEFF 		bl	buffer_get_float32_auto
 3620              	.LVL337:
 3621              		.loc 1 300 0
 3622 0df2 3146     		mov	r1, r6
 3623 0df4 2046     		mov	r0, r4
 3624              		.loc 1 298 0
 3625 0df6 85ED280A 		vstr.32	s0, [r5, #160]
 3626              		.loc 1 300 0
 3627 0dfa FFF7FEFF 		bl	buffer_get_float32_auto
 3628              	.LVL338:
 3629              		.loc 1 301 0
 3630 0dfe 3146     		mov	r1, r6
 3631 0e00 2046     		mov	r0, r4
 3632              		.loc 1 300 0
 3633 0e02 85ED290A 		vstr.32	s0, [r5, #164]
 3634              		.loc 1 301 0
 3635 0e06 FFF7FEFF 		bl	buffer_get_float32_auto
 3636              	.LVL339:
 3637              		.loc 1 302 0
 3638 0e0a 3146     		mov	r1, r6
 3639 0e0c 2046     		mov	r0, r4
 3640              		.loc 1 301 0
 3641 0e0e 85ED2A0A 		vstr.32	s0, [r5, #168]
 3642              		.loc 1 302 0
 3643 0e12 FFF7FEFF 		bl	buffer_get_float32_auto
 3644              	.LVL340:
 3645              		.loc 1 303 0
 3646 0e16 3146     		mov	r1, r6
 3647 0e18 2046     		mov	r0, r4
 3648              		.loc 1 302 0
ARM GAS  /tmp/cc26jFNS.s 			page 65


 3649 0e1a 85ED2B0A 		vstr.32	s0, [r5, #172]
 3650              		.loc 1 303 0
 3651 0e1e FFF7FEFF 		bl	buffer_get_float32_auto
 3652              	.LVL341:
 3653              		.loc 1 304 0
 3654 0e22 029B     		ldr	r3, [sp, #8]
 3655              		.loc 1 303 0
 3656 0e24 85ED2C0A 		vstr.32	s0, [r5, #176]
 3657              		.loc 1 304 0
 3658 0e28 E25C     		ldrb	r2, [r4, r3]	@ zero_extendqisi2
 3659 0e2a 0032     		adds	r2, r2, #0
 3660 0e2c 18BF     		it	ne
 3661 0e2e 0122     		movne	r2, #1
 3662 0e30 0133     		adds	r3, r3, #1
 3663              		.loc 1 305 0
 3664 0e32 3146     		mov	r1, r6
 3665 0e34 2046     		mov	r0, r4
 3666              		.loc 1 304 0
 3667 0e36 85F8B820 		strb	r2, [r5, #184]
 3668 0e3a 0293     		str	r3, [sp, #8]
 3669              		.loc 1 305 0
 3670 0e3c FFF7FEFF 		bl	buffer_get_float32_auto
 3671              	.LVL342:
 3672              		.loc 1 306 0
 3673 0e40 3146     		mov	r1, r6
 3674 0e42 2046     		mov	r0, r4
 3675              		.loc 1 305 0
 3676 0e44 85ED2D0A 		vstr.32	s0, [r5, #180]
 3677              		.loc 1 306 0
 3678 0e48 FFF7FEFF 		bl	buffer_get_float32_auto
 3679              	.LVL343:
 3680              		.loc 1 307 0
 3681 0e4c 029B     		ldr	r3, [sp, #8]
 3682              		.loc 1 306 0
 3683 0e4e 85ED2F0A 		vstr.32	s0, [r5, #188]
 3684              		.loc 1 307 0
 3685 0e52 E25C     		ldrb	r2, [r4, r3]	@ zero_extendqisi2
 3686 0e54 85F8F820 		strb	r2, [r5, #248]
 3687 0e58 0133     		adds	r3, r3, #1
 3688              		.loc 1 308 0
 3689 0e5a 3146     		mov	r1, r6
 3690 0e5c 2046     		mov	r0, r4
 3691              		.loc 1 307 0
 3692 0e5e 0293     		str	r3, [sp, #8]
 3693              		.loc 1 308 0
 3694 0e60 FFF7FEFF 		bl	buffer_get_float32_auto
 3695              	.LVL344:
 3696              		.loc 1 309 0
 3697 0e64 3146     		mov	r1, r6
 3698 0e66 2046     		mov	r0, r4
 3699              		.loc 1 308 0
 3700 0e68 85ED350A 		vstr.32	s0, [r5, #212]
 3701              		.loc 1 309 0
 3702 0e6c FFF7FEFF 		bl	buffer_get_float32_auto
 3703              	.LVL345:
 3704              		.loc 1 310 0
 3705 0e70 3146     		mov	r1, r6
ARM GAS  /tmp/cc26jFNS.s 			page 66


 3706 0e72 2046     		mov	r0, r4
 3707              		.loc 1 309 0
 3708 0e74 85ED360A 		vstr.32	s0, [r5, #216]
 3709              		.loc 1 310 0
 3710 0e78 FFF7FEFF 		bl	buffer_get_float32_auto
 3711              	.LVL346:
 3712              		.loc 1 311 0
 3713 0e7c 3146     		mov	r1, r6
 3714 0e7e 2046     		mov	r0, r4
 3715              		.loc 1 310 0
 3716 0e80 85ED300A 		vstr.32	s0, [r5, #192]
 3717              		.loc 1 311 0
 3718 0e84 FFF7FEFF 		bl	buffer_get_float32_auto
 3719              	.LVL347:
 3720              		.loc 1 312 0
 3721 0e88 3146     		mov	r1, r6
 3722 0e8a 2046     		mov	r0, r4
 3723              		.loc 1 311 0
 3724 0e8c 85ED310A 		vstr.32	s0, [r5, #196]
 3725              		.loc 1 312 0
 3726 0e90 FFF7FEFF 		bl	buffer_get_float32_auto
 3727              	.LVL348:
 3728              		.loc 1 313 0
 3729 0e94 3146     		mov	r1, r6
 3730 0e96 2046     		mov	r0, r4
 3731              		.loc 1 312 0
 3732 0e98 85ED320A 		vstr.32	s0, [r5, #200]
 3733              		.loc 1 313 0
 3734 0e9c FFF7FEFF 		bl	buffer_get_float32_auto
 3735              	.LVL349:
 3736              		.loc 1 314 0
 3737 0ea0 3146     		mov	r1, r6
 3738 0ea2 2046     		mov	r0, r4
 3739              		.loc 1 313 0
 3740 0ea4 85ED330A 		vstr.32	s0, [r5, #204]
 3741              		.loc 1 314 0
 3742 0ea8 FFF7FEFF 		bl	buffer_get_float32_auto
 3743              	.LVL350:
 3744              		.loc 1 315 0
 3745 0eac 3146     		mov	r1, r6
 3746 0eae 2046     		mov	r0, r4
 3747              		.loc 1 314 0
 3748 0eb0 85ED340A 		vstr.32	s0, [r5, #208]
 3749              		.loc 1 315 0
 3750 0eb4 FFF7FEFF 		bl	buffer_get_float32_auto
 3751              	.LVL351:
 3752              		.loc 1 316 0
 3753 0eb8 3146     		mov	r1, r6
 3754 0eba 2046     		mov	r0, r4
 3755              		.loc 1 315 0
 3756 0ebc 85ED370A 		vstr.32	s0, [r5, #220]
 3757              		.loc 1 316 0
 3758 0ec0 FFF7FEFF 		bl	buffer_get_float32_auto
 3759              	.LVL352:
 3760              		.loc 1 317 0
 3761 0ec4 3146     		mov	r1, r6
 3762 0ec6 2046     		mov	r0, r4
ARM GAS  /tmp/cc26jFNS.s 			page 67


 3763              		.loc 1 316 0
 3764 0ec8 85ED380A 		vstr.32	s0, [r5, #224]
 3765              		.loc 1 317 0
 3766 0ecc FFF7FEFF 		bl	buffer_get_float32_auto
 3767              	.LVL353:
 3768              		.loc 1 318 0
 3769 0ed0 3146     		mov	r1, r6
 3770 0ed2 2046     		mov	r0, r4
 3771              		.loc 1 317 0
 3772 0ed4 85ED390A 		vstr.32	s0, [r5, #228]
 3773              		.loc 1 318 0
 3774 0ed8 FFF7FEFF 		bl	buffer_get_float32_auto
 3775              	.LVL354:
 3776              		.loc 1 319 0
 3777 0edc 3146     		mov	r1, r6
 3778 0ede 2046     		mov	r0, r4
 3779              		.loc 1 318 0
 3780 0ee0 85ED3A0A 		vstr.32	s0, [r5, #232]
 3781              		.loc 1 319 0
 3782 0ee4 FFF7FEFF 		bl	buffer_get_float32_auto
 3783              	.LVL355:
 3784              		.loc 1 320 0
 3785 0ee8 3146     		mov	r1, r6
 3786 0eea 2046     		mov	r0, r4
 3787              		.loc 1 319 0
 3788 0eec 85ED3B0A 		vstr.32	s0, [r5, #236]
 3789              		.loc 1 320 0
 3790 0ef0 FFF7FEFF 		bl	buffer_get_float32_auto
 3791              	.LVL356:
 3792              		.loc 1 321 0
 3793 0ef4 3146     		mov	r1, r6
 3794 0ef6 2046     		mov	r0, r4
 3795              		.loc 1 320 0
 3796 0ef8 85ED3C0A 		vstr.32	s0, [r5, #240]
 3797              		.loc 1 321 0
 3798 0efc FFF7FEFF 		bl	buffer_get_float32_auto
 3799              	.LVL357:
 3800              		.loc 1 322 0
 3801 0f00 029B     		ldr	r3, [sp, #8]
 3802              		.loc 1 321 0
 3803 0f02 85ED3D0A 		vstr.32	s0, [r5, #244]
 3804              		.loc 1 322 0
 3805 0f06 E218     		adds	r2, r4, r3
 3806              		.loc 1 324 0
 3807 0f08 3146     		mov	r1, r6
 3808              		.loc 1 322 0
 3809 0f0a 1768     		ldr	r7, [r2]	@ unaligned
 3810 0f0c 5268     		ldr	r2, [r2, #4]	@ unaligned
 3811 0f0e C5F8FD20 		str	r2, [r5, #253]	@ unaligned
 3812              		.loc 1 323 0
 3813 0f12 0833     		adds	r3, r3, #8
 3814              		.loc 1 324 0
 3815 0f14 2046     		mov	r0, r4
 3816              		.loc 1 322 0
 3817 0f16 C5F8F970 		str	r7, [r5, #249]	@ unaligned
 3818              		.loc 1 323 0
 3819 0f1a 0293     		str	r3, [sp, #8]
ARM GAS  /tmp/cc26jFNS.s 			page 68


 3820              		.loc 1 324 0
 3821 0f1c FFF7FEFF 		bl	buffer_get_float32_auto
 3822              	.LVL358:
 3823              		.loc 1 325 0
 3824 0f20 029B     		ldr	r3, [sp, #8]
 3825              		.loc 1 324 0
 3826 0f22 85ED410A 		vstr.32	s0, [r5, #260]
 3827              		.loc 1 325 0
 3828 0f26 E25C     		ldrb	r2, [r4, r3]	@ zero_extendqisi2
 3829 0f28 0032     		adds	r2, r2, #0
 3830 0f2a 03F10101 		add	r1, r3, #1
 3831 0f2e 18BF     		it	ne
 3832 0f30 0122     		movne	r2, #1
 3833 0f32 85F80821 		strb	r2, [r5, #264]
 3834              		.loc 1 326 0
 3835 0f36 625C     		ldrb	r2, [r4, r1]	@ zero_extendqisi2
 3836 0f38 0032     		adds	r2, r2, #0
 3837 0f3a 18BF     		it	ne
 3838 0f3c 0122     		movne	r2, #1
 3839 0f3e 0233     		adds	r3, r3, #2
 3840              		.loc 1 327 0
 3841 0f40 3146     		mov	r1, r6
 3842 0f42 2046     		mov	r0, r4
 3843              		.loc 1 326 0
 3844 0f44 85F80921 		strb	r2, [r5, #265]
 3845 0f48 0293     		str	r3, [sp, #8]
 3846              		.loc 1 327 0
 3847 0f4a FFF7FEFF 		bl	buffer_get_float32_auto
 3848              	.LVL359:
 3849              		.loc 1 328 0
 3850 0f4e 029B     		ldr	r3, [sp, #8]
 3851              		.loc 1 327 0
 3852 0f50 85ED430A 		vstr.32	s0, [r5, #268]
 3853              		.loc 1 328 0
 3854 0f54 E25C     		ldrb	r2, [r4, r3]	@ zero_extendqisi2
 3855 0f56 0032     		adds	r2, r2, #0
 3856 0f58 18BF     		it	ne
 3857 0f5a 0122     		movne	r2, #1
 3858 0f5c 0133     		adds	r3, r3, #1
 3859              		.loc 1 329 0
 3860 0f5e 3146     		mov	r1, r6
 3861 0f60 2046     		mov	r0, r4
 3862              		.loc 1 328 0
 3863 0f62 85F81021 		strb	r2, [r5, #272]
 3864 0f66 0293     		str	r3, [sp, #8]
 3865              		.loc 1 329 0
 3866 0f68 FFF7FEFF 		bl	buffer_get_float32_auto
 3867              	.LVL360:
 3868              		.loc 1 330 0
 3869 0f6c 3146     		mov	r1, r6
 3870 0f6e 2046     		mov	r0, r4
 3871              		.loc 1 329 0
 3872 0f70 85ED450A 		vstr.32	s0, [r5, #276]
 3873              		.loc 1 330 0
 3874 0f74 FFF7FEFF 		bl	buffer_get_float32_auto
 3875              	.LVL361:
 3876              		.loc 1 332 0
ARM GAS  /tmp/cc26jFNS.s 			page 69


 3877 0f78 3146     		mov	r1, r6
 3878 0f7a 2046     		mov	r0, r4
 3879              		.loc 1 330 0
 3880 0f7c 85ED460A 		vstr.32	s0, [r5, #280]
 3881              		.loc 1 332 0
 3882 0f80 FFF7FEFF 		bl	buffer_get_float32_auto
 3883              	.LVL362:
 3884              		.loc 1 333 0
 3885 0f84 3146     		mov	r1, r6
 3886 0f86 2046     		mov	r0, r4
 3887              		.loc 1 332 0
 3888 0f88 85ED470A 		vstr.32	s0, [r5, #284]
 3889              		.loc 1 333 0
 3890 0f8c FFF7FEFF 		bl	buffer_get_float32_auto
 3891              	.LVL363:
 3892              		.loc 1 334 0
 3893 0f90 3146     		mov	r1, r6
 3894 0f92 2046     		mov	r0, r4
 3895              		.loc 1 333 0
 3896 0f94 85ED480A 		vstr.32	s0, [r5, #288]
 3897              		.loc 1 334 0
 3898 0f98 FFF7FEFF 		bl	buffer_get_float32_auto
 3899              	.LVL364:
 3900              		.loc 1 335 0
 3901 0f9c 3146     		mov	r1, r6
 3902 0f9e 2046     		mov	r0, r4
 3903              		.loc 1 334 0
 3904 0fa0 85ED490A 		vstr.32	s0, [r5, #292]
 3905              		.loc 1 335 0
 3906 0fa4 FFF7FEFF 		bl	buffer_get_float32_auto
 3907              	.LVL365:
 3908              		.loc 1 336 0
 3909 0fa8 3146     		mov	r1, r6
 3910 0faa 2046     		mov	r0, r4
 3911              		.loc 1 335 0
 3912 0fac 85ED4A0A 		vstr.32	s0, [r5, #296]
 3913              		.loc 1 336 0
 3914 0fb0 FFF7FEFF 		bl	buffer_get_float32_auto
 3915              	.LVL366:
 3916              		.loc 1 337 0
 3917 0fb4 029B     		ldr	r3, [sp, #8]
 3918              		.loc 1 336 0
 3919 0fb6 85ED4B0A 		vstr.32	s0, [r5, #300]
 3920 0fba 17E0     		b	.L212
 3921              	.L213:
 3922              		.align	2
 3923              	.L211:
 3924 0fbc 00000000 		.word	.LANCHOR15
 3925 0fc0 0000C842 		.word	1120403456
 3926 0fc4 0000C8C2 		.word	3267887104
 3927 0fc8 00001643 		.word	1125515264
 3928 0fcc 00006442 		.word	1113849856
 3929 0fd0 00504348 		.word	1212370944
 3930 0fd4 005043C8 		.word	3359854592
 3931 0fd8 CDCCCC3D 		.word	1036831949
 3932 0fdc 3333733F 		.word	1064514355
 3933 0fe0 00000000 		.word	0
ARM GAS  /tmp/cc26jFNS.s 			page 70


 3934 0fe4 0000DC42 		.word	1121714176
 3935 0fe8 000020C2 		.word	3256877056
 3936              	.L212:
 3937              		.loc 1 337 0
 3938 0fec E25C     		ldrb	r2, [r4, r3]	@ zero_extendqisi2
 3939 0fee 0032     		adds	r2, r2, #0
 3940 0ff0 18BF     		it	ne
 3941 0ff2 0122     		movne	r2, #1
 3942 0ff4 0133     		adds	r3, r3, #1
 3943              		.loc 1 339 0
 3944 0ff6 3146     		mov	r1, r6
 3945 0ff8 2046     		mov	r0, r4
 3946              		.loc 1 337 0
 3947 0ffa 85F83021 		strb	r2, [r5, #304]
 3948 0ffe 0293     		str	r3, [sp, #8]
 3949              		.loc 1 339 0
 3950 1000 FFF7FEFF 		bl	buffer_get_float32_auto
 3951              	.LVL367:
 3952              		.loc 1 340 0
 3953 1004 3146     		mov	r1, r6
 3954 1006 2046     		mov	r0, r4
 3955              		.loc 1 339 0
 3956 1008 85ED4D0A 		vstr.32	s0, [r5, #308]
 3957              		.loc 1 340 0
 3958 100c FFF7FEFF 		bl	buffer_get_float32_auto
 3959              	.LVL368:
 3960              		.loc 1 341 0
 3961 1010 3146     		mov	r1, r6
 3962 1012 2046     		mov	r0, r4
 3963              		.loc 1 340 0
 3964 1014 85ED4E0A 		vstr.32	s0, [r5, #312]
 3965              		.loc 1 341 0
 3966 1018 FFF7FEFF 		bl	buffer_get_float32_auto
 3967              	.LVL369:
 3968              		.loc 1 342 0
 3969 101c 3146     		mov	r1, r6
 3970 101e 2046     		mov	r0, r4
 3971              		.loc 1 341 0
 3972 1020 85ED4F0A 		vstr.32	s0, [r5, #316]
 3973              		.loc 1 342 0
 3974 1024 FFF7FEFF 		bl	buffer_get_float32_auto
 3975              	.LVL370:
 3976              		.loc 1 343 0
 3977 1028 3146     		mov	r1, r6
 3978 102a 2046     		mov	r0, r4
 3979              		.loc 1 342 0
 3980 102c 85ED500A 		vstr.32	s0, [r5, #320]
 3981              		.loc 1 343 0
 3982 1030 FFF7FEFF 		bl	buffer_get_float32_auto
 3983              	.LVL371:
 3984              		.loc 1 345 0
 3985 1034 3146     		mov	r1, r6
 3986 1036 2046     		mov	r0, r4
 3987              		.loc 1 343 0
 3988 1038 85ED510A 		vstr.32	s0, [r5, #324]
 3989              		.loc 1 345 0
 3990 103c FFF7FEFF 		bl	buffer_get_float32_auto
ARM GAS  /tmp/cc26jFNS.s 			page 71


 3991              	.LVL372:
 3992              		.loc 1 346 0
 3993 1040 3146     		mov	r1, r6
 3994 1042 2046     		mov	r0, r4
 3995              		.loc 1 345 0
 3996 1044 85ED520A 		vstr.32	s0, [r5, #328]
 3997              		.loc 1 346 0
 3998 1048 FFF7FEFF 		bl	buffer_get_float32_auto
 3999              	.LVL373:
 4000              		.loc 1 347 0
 4001 104c 3146     		mov	r1, r6
 4002 104e 2046     		mov	r0, r4
 4003              		.loc 1 346 0
 4004 1050 85ED530A 		vstr.32	s0, [r5, #332]
 4005              		.loc 1 347 0
 4006 1054 FFF7FEFF 		bl	buffer_get_float32_auto
 4007              	.LVL374:
 4008              		.loc 1 348 0
 4009 1058 3146     		mov	r1, r6
 4010 105a 2046     		mov	r0, r4
 4011              		.loc 1 347 0
 4012 105c 85ED540A 		vstr.32	s0, [r5, #336]
 4013              		.loc 1 348 0
 4014 1060 FFF7FEFF 		bl	buffer_get_float32_auto
 4015              	.LVL375:
 4016              		.loc 1 350 0
 4017 1064 3146     		mov	r1, r6
 4018 1066 2046     		mov	r0, r4
 4019              		.loc 1 348 0
 4020 1068 85ED550A 		vstr.32	s0, [r5, #340]
 4021              		.loc 1 350 0
 4022 106c FFF7FEFF 		bl	buffer_get_int32
 4023              	.LVL376:
 4024              		.loc 1 351 0
 4025 1070 3146     		mov	r1, r6
 4026              		.loc 1 350 0
 4027 1072 C5F85801 		str	r0, [r5, #344]
 4028              		.loc 1 351 0
 4029 1076 2046     		mov	r0, r4
 4030 1078 FFF7FEFF 		bl	buffer_get_float32_auto
 4031              	.LVL377:
 4032              		.loc 1 352 0
 4033 107c 3146     		mov	r1, r6
 4034 107e 2046     		mov	r0, r4
 4035              		.loc 1 351 0
 4036 1080 85ED570A 		vstr.32	s0, [r5, #348]
 4037              		.loc 1 352 0
 4038 1084 FFF7FEFF 		bl	buffer_get_float32_auto
 4039              	.LVL378:
 4040              		.loc 1 353 0
 4041 1088 3146     		mov	r1, r6
 4042 108a 2046     		mov	r0, r4
 4043              		.loc 1 352 0
 4044 108c 85ED580A 		vstr.32	s0, [r5, #352]
 4045              		.loc 1 353 0
 4046 1090 FFF7FEFF 		bl	buffer_get_uint32
 4047              	.LVL379:
ARM GAS  /tmp/cc26jFNS.s 			page 72


 4048              		.loc 1 354 0
 4049 1094 029B     		ldr	r3, [sp, #8]
 4050              		.loc 1 353 0
 4051 1096 C5F86401 		str	r0, [r5, #356]
 4052              		.loc 1 354 0
 4053 109a E25C     		ldrb	r2, [r4, r3]	@ zero_extendqisi2
 4054 109c 85F86821 		strb	r2, [r5, #360]
 4055 10a0 5A1C     		adds	r2, r3, #1
 4056              		.loc 1 355 0
 4057 10a2 991C     		adds	r1, r3, #2
 4058 10a4 A25C     		ldrb	r2, [r4, r2]	@ zero_extendqisi2
 4059 10a6 0032     		adds	r2, r2, #0
 4060 10a8 18BF     		it	ne
 4061 10aa 0122     		movne	r2, #1
 4062 10ac 85F86921 		strb	r2, [r5, #361]
 4063              		.loc 1 356 0
 4064 10b0 625C     		ldrb	r2, [r4, r1]	@ zero_extendqisi2
 4065 10b2 85F86A21 		strb	r2, [r5, #362]
 4066 10b6 DA1C     		adds	r2, r3, #3
 4067              		.loc 1 358 0
 4068 10b8 3146     		mov	r1, r6
 4069              		.loc 1 357 0
 4070 10ba A25C     		ldrb	r2, [r4, r2]	@ zero_extendqisi2
 4071 10bc C5F86C21 		str	r2, [r5, #364]
 4072 10c0 0433     		adds	r3, r3, #4
 4073              		.loc 1 358 0
 4074 10c2 2046     		mov	r0, r4
 4075              		.loc 1 357 0
 4076 10c4 0293     		str	r3, [sp, #8]
 4077              		.loc 1 358 0
 4078 10c6 FFF7FEFF 		bl	buffer_get_float32_auto
 4079              	.LVL380:
 4080              		.loc 1 359 0
 4081 10ca 3146     		mov	r1, r6
 4082 10cc 2046     		mov	r0, r4
 4083              		.loc 1 358 0
 4084 10ce 85ED5C0A 		vstr.32	s0, [r5, #368]
 4085              		.loc 1 359 0
 4086 10d2 FFF7FEFF 		bl	buffer_get_float32_auto
 4087              	.LVL381:
 4088              		.loc 1 360 0
 4089 10d6 3146     		mov	r1, r6
 4090 10d8 2046     		mov	r0, r4
 4091              		.loc 1 359 0
 4092 10da 85ED5D0A 		vstr.32	s0, [r5, #372]
 4093              		.loc 1 360 0
 4094 10de FFF7FEFF 		bl	buffer_get_float32_auto
 4095              	.LVL382:
 4096              		.loc 1 361 0
 4097 10e2 3146     		mov	r1, r6
 4098 10e4 2046     		mov	r0, r4
 4099              		.loc 1 360 0
 4100 10e6 85ED5E0A 		vstr.32	s0, [r5, #376]
 4101              		.loc 1 361 0
 4102 10ea FFF7FEFF 		bl	buffer_get_float32_auto
 4103              	.LVL383:
 4104              		.loc 1 362 0
ARM GAS  /tmp/cc26jFNS.s 			page 73


 4105 10ee 029B     		ldr	r3, [sp, #8]
 4106              		.loc 1 361 0
 4107 10f0 85ED5F0A 		vstr.32	s0, [r5, #380]
 4108              		.loc 1 362 0
 4109 10f4 E25C     		ldrb	r2, [r4, r3]	@ zero_extendqisi2
 4110              		.loc 1 367 0
 4111 10f6 5FED4E0A 		vldr.32	s1, .L211+4
 4112 10fa 1FED4E0A 		vldr.32	s0, .L211+8
 4113              		.loc 1 362 0
 4114 10fe 85F88021 		strb	r2, [r5, #384]
 4115 1102 0133     		adds	r3, r3, #1
 4116              		.loc 1 367 0
 4117 1104 281D     		adds	r0, r5, #4
 4118              		.loc 1 362 0
 4119 1106 0293     		str	r3, [sp, #8]
 4120              		.loc 1 367 0
 4121 1108 FFF7FEFF 		bl	utils_truncate_number
 4122              	.LVL384:
 4123              		.loc 1 368 0
 4124 110c 5FED540A 		vldr.32	s1, .L211+4
 4125 1110 1FED540A 		vldr.32	s0, .L211+8
 4126 1114 05F10800 		add	r0, r5, #8
 4127 1118 FFF7FEFF 		bl	utils_truncate_number
 4128              	.LVL385:
 4129              		.loc 1 371 0
 4130 111c 5FED580A 		vldr.32	s1, .L211+4
 4131 1120 1FED580A 		vldr.32	s0, .L211+8
 4132 1124 05F10C00 		add	r0, r5, #12
 4133 1128 FFF7FEFF 		bl	utils_truncate_number
 4134              	.LVL386:
 4135              		.loc 1 372 0
 4136 112c 5FED5C0A 		vldr.32	s1, .L211+4
 4137 1130 1FED5C0A 		vldr.32	s0, .L211+8
 4138 1134 05F11000 		add	r0, r5, #16
 4139 1138 FFF7FEFF 		bl	utils_truncate_number
 4140              	.LVL387:
 4141              		.loc 1 375 0
 4142 113c 5FED5E0A 		vldr.32	s1, .L211+12
 4143 1140 1FED590A 		vldr.32	s0, .L211+36
 4144 1144 05F11400 		add	r0, r5, #20
 4145 1148 FFF7FEFF 		bl	utils_truncate_number
 4146              	.LVL388:
 4147              		.loc 1 378 0
 4148 114c 5FED610A 		vldr.32	s1, .L211+16
 4149 1150 B1EE080A 		vmov.f32	s0, #6.0e+0
 4150 1154 05F13000 		add	r0, r5, #48
 4151 1158 FFF7FEFF 		bl	utils_truncate_number
 4152              	.LVL389:
 4153              		.loc 1 379 0
 4154 115c 5FED650A 		vldr.32	s1, .L211+16
 4155 1160 B1EE080A 		vmov.f32	s0, #6.0e+0
 4156 1164 05F12C00 		add	r0, r5, #44
 4157 1168 FFF7FEFF 		bl	utils_truncate_number
 4158              	.LVL390:
 4159              		.loc 1 382 0
 4160 116c 5FED680A 		vldr.32	s1, .L211+20
 4161 1170 1FED680A 		vldr.32	s0, .L211+24
ARM GAS  /tmp/cc26jFNS.s 			page 74


 4162 1174 05F11C00 		add	r0, r5, #28
 4163 1178 FFF7FEFF 		bl	utils_truncate_number
 4164              	.LVL391:
 4165              		.loc 1 383 0
 4166 117c 5FED6C0A 		vldr.32	s1, .L211+20
 4167 1180 1FED6C0A 		vldr.32	s0, .L211+24
 4168 1184 05F11800 		add	r0, r5, #24
 4169 1188 FFF7FEFF 		bl	utils_truncate_number
 4170              	.LVL392:
 4171              		.loc 1 386 0
 4172 118c 5FED6E0A 		vldr.32	s1, .L211+28
 4173 1190 1FED6D0A 		vldr.32	s0, .L211+36
 4174 1194 05F15400 		add	r0, r5, #84
 4175 1198 FFF7FEFF 		bl	utils_truncate_number
 4176              	.LVL393:
 4177              		.loc 1 389 0
 4178 119c 5FED710A 		vldr.32	s1, .L211+32
 4179 11a0 1FED710A 		vldr.32	s0, .L211+36
 4180 11a4 05F15800 		add	r0, r5, #88
 4181 11a8 FFF7FEFF 		bl	utils_truncate_number
 4182              	.LVL394:
 4183              		.loc 1 392 0
 4184 11ac 5FED730A 		vldr.32	s1, .L211+40
 4185 11b0 1FED730A 		vldr.32	s0, .L211+44
 4186 11b4 05F14000 		add	r0, r5, #64
 4187 11b8 FFF7FEFF 		bl	utils_truncate_number
 4188              	.LVL395:
 4189              		.loc 1 393 0
 4190 11bc 5FED770A 		vldr.32	s1, .L211+40
 4191 11c0 1FED770A 		vldr.32	s0, .L211+44
 4192 11c4 05F14400 		add	r0, r5, #68
 4193 11c8 FFF7FEFF 		bl	utils_truncate_number
 4194              	.LVL396:
 4195              		.loc 1 397 0
 4196 11cc 2846     		mov	r0, r5
 4197 11ce FFF7FEFF 		bl	conf_general_store_mc_configuration
 4198              	.LVL397:
 4199              		.loc 1 398 0
 4200 11d2 2846     		mov	r0, r5
 4201 11d4 FFF7FEFF 		bl	mc_interface_set_configuration
 4202              	.LVL398:
 4203              		.loc 1 399 0
 4204 11d8 4FF4FA60 		mov	r0, #2000
 4205 11dc FFF7FEFF 		bl	chThdSleep
 4206              	.LVL399:
 4207              	.LBB131:
 4208              	.LBB132:
 4209              		.loc 1 90 0
 4210 11e0 D94B     		ldr	r3, .L214
 4211              	.LBE132:
 4212              	.LBE131:
 4213              		.loc 1 402 0
 4214 11e2 DA48     		ldr	r0, .L214+4
 4215              	.LBB135:
 4216              	.LBB133:
 4217              		.loc 1 90 0
 4218 11e4 1B68     		ldr	r3, [r3]
ARM GAS  /tmp/cc26jFNS.s 			page 75


 4219              	.LBE133:
 4220              	.LBE135:
 4221              		.loc 1 402 0
 4222 11e6 0D22     		movs	r2, #13
 4223 11e8 0121     		movs	r1, #1
 4224 11ea 0270     		strb	r2, [r0]
 4225              	.LVL400:
 4226 11ec 0291     		str	r1, [sp, #8]
 4227              	.LBB136:
 4228              	.LBB134:
 4229              		.loc 1 90 0
 4230 11ee 002B     		cmp	r3, #0
 4231 11f0 3EF487AF 		beq	.L75
 4232              	.LVL401:
 4233              	.L190:
 4234              	.LBE134:
 4235              	.LBE136:
 4236              	.LBB137:
 4237              	.LBB138:
 4238              		.loc 1 91 0
 4239 11f4 9847     		blx	r3
 4240              	.LVL402:
 4241 11f6 FEF784BF 		b	.L75
 4242              	.LVL403:
 4243              	.L89:
 4244              	.LBE138:
 4245              	.LBE137:
 4246              		.loc 1 219 0
 4247 11fa 2046     		mov	r0, r4
 4248 11fc 02A9     		add	r1, sp, #8
 4249 11fe 9FEDD40A 		vldr.32	s0, .L214+8
 4250 1202 FFF7FEFF 		bl	buffer_get_float32
 4251              	.LVL404:
 4252 1206 FFF7FEFF 		bl	mc_interface_set_handbrake
 4253              	.LVL405:
 4254              		.loc 1 220 0
 4255 120a FFF7FEFF 		bl	timeout_reset
 4256              	.LVL406:
 4257              		.loc 1 221 0
 4258 120e FEF778BF 		b	.L75
 4259              	.L88:
 4260              		.loc 1 213 0
 4261 1212 02A9     		add	r1, sp, #8
 4262 1214 2046     		mov	r0, r4
 4263 1216 FFF7FEFF 		bl	buffer_get_int32
 4264              	.LVL407:
 4265 121a 07EE100A 		vmov	s14, r0	@ int
 4266 121e DFEDCD7A 		vldr.32	s15, .L214+12
 4267 1222 B8EEC70A 		vcvt.f32.s32	s0, s14
 4268 1226 80EE270A 		vdiv.f32	s0, s0, s15
 4269 122a FFF7FEFF 		bl	mc_interface_set_pid_pos
 4270              	.LVL408:
 4271              		.loc 1 214 0
 4272 122e FFF7FEFF 		bl	timeout_reset
 4273              	.LVL409:
 4274              		.loc 1 215 0
 4275 1232 FEF766BF 		b	.L75
ARM GAS  /tmp/cc26jFNS.s 			page 76


 4276              	.L87:
 4277              		.loc 1 207 0
 4278 1236 02A9     		add	r1, sp, #8
 4279 1238 2046     		mov	r0, r4
 4280 123a FFF7FEFF 		bl	buffer_get_int32
 4281              	.LVL410:
 4282 123e 07EE900A 		vmov	s15, r0	@ int
 4283 1242 B8EEE70A 		vcvt.f32.s32	s0, s15
 4284 1246 FFF7FEFF 		bl	mc_interface_set_pid_speed
 4285              	.LVL411:
 4286              		.loc 1 208 0
 4287 124a FFF7FEFF 		bl	timeout_reset
 4288              	.LVL412:
 4289              		.loc 1 209 0
 4290 124e FEF758BF 		b	.L75
 4291              	.L78:
 4292              		.loc 1 129 0
 4293 1252 C14A     		ldr	r2, .L214+16
 4294              		.loc 1 124 0
 4295 1254 BD4B     		ldr	r3, .L214+4
 4296              		.loc 1 129 0
 4297 1256 1068     		ldr	r0, [r2]
 4298              		.loc 1 132 0
 4299 1258 C04C     		ldr	r4, .L214+20
 4300              	.LVL413:
 4301              		.loc 1 129 0
 4302 125a C3F80300 		str	r0, [r3, #3]	@ unaligned
 4303              		.loc 1 124 0
 4304 125e 4FF44071 		mov	r1, #768
 4305              		.loc 1 125 0
 4306 1262 2722     		movs	r2, #39
 4307              		.loc 1 124 0
 4308 1264 1980     		strh	r1, [r3]	@ movhi
 4309              		.loc 1 125 0
 4310 1266 9A70     		strb	r2, [r3, #2]
 4311              		.loc 1 132 0
 4312 1268 07CC     		ldmia	r4!, {r0, r1, r2}
 4313              	.LBB142:
 4314              	.LBB143:
 4315              		.loc 1 90 0
 4316 126a B74C     		ldr	r4, .L214
 4317              	.LBE143:
 4318              	.LBE142:
 4319              		.loc 1 132 0
 4320 126c C3F80B10 		str	r1, [r3, #11]	@ unaligned
 4321              	.LBB146:
 4322              	.LBB144:
 4323              		.loc 1 90 0
 4324 1270 2468     		ldr	r4, [r4]
 4325              	.LBE144:
 4326              	.LBE146:
 4327              		.loc 1 132 0
 4328 1272 C3F80700 		str	r0, [r3, #7]	@ unaligned
 4329              		.loc 1 133 0
 4330 1276 1321     		movs	r1, #19
 4331              		.loc 1 132 0
 4332 1278 C3F80F20 		str	r2, [r3, #15]	@ unaligned
ARM GAS  /tmp/cc26jFNS.s 			page 77


 4333              		.loc 1 133 0
 4334 127c 0291     		str	r1, [sp, #8]
 4335              	.LVL414:
 4336              	.LBB147:
 4337              	.LBB145:
 4338              		.loc 1 90 0
 4339 127e 002C     		cmp	r4, #0
 4340 1280 3EF43FAF 		beq	.L75
 4341              		.loc 1 91 0
 4342 1284 1846     		mov	r0, r3
 4343 1286 A047     		blx	r4
 4344              	.LVL415:
 4345 1288 FEF73BBF 		b	.L75
 4346              	.LVL416:
 4347              	.L110:
 4348              	.LBE145:
 4349              	.LBE147:
 4350              		.loc 1 853 0
 4351 128c 02A9     		add	r1, sp, #8
 4352 128e 2046     		mov	r0, r4
 4353 1290 FFF7FEFF 		bl	buffer_get_int32
 4354              	.LVL417:
 4355 1294 FFF7FEFF 		bl	nrf_driver_start_pairing
 4356              	.LVL418:
 4357              	.LBB148:
 4358              	.LBB139:
 4359              		.loc 1 90 0
 4360 1298 AB4B     		ldr	r3, .L214
 4361              	.LBE139:
 4362              	.LBE148:
 4363              		.loc 1 856 0
 4364 129a AC48     		ldr	r0, .L214+4
 4365              	.LBB149:
 4366              	.LBB140:
 4367              		.loc 1 90 0
 4368 129c 1B68     		ldr	r3, [r3]
 4369              	.LBE140:
 4370              	.LBE149:
 4371              		.loc 1 856 0
 4372 129e 2524     		movs	r4, #37
 4373              	.LVL419:
 4374              		.loc 1 857 0
 4375 12a0 0022     		movs	r2, #0
 4376 12a2 0221     		movs	r1, #2
 4377              		.loc 1 856 0
 4378 12a4 0470     		strb	r4, [r0]
 4379              		.loc 1 857 0
 4380 12a6 4270     		strb	r2, [r0, #1]
 4381              	.LVL420:
 4382 12a8 0291     		str	r1, [sp, #8]
 4383              	.LBB150:
 4384              	.LBB141:
 4385              		.loc 1 90 0
 4386 12aa 002B     		cmp	r3, #0
 4387 12ac A2D1     		bne	.L190
 4388 12ae FEF728BF 		b	.L75
 4389              	.LVL421:
ARM GAS  /tmp/cc26jFNS.s 			page 78


 4390              	.L109:
 4391              	.LBE141:
 4392              	.LBE150:
 4393              		.loc 1 846 0
 4394 12b2 AB4B     		ldr	r3, .L214+24
 4395 12b4 1B68     		ldr	r3, [r3]
 4396 12b6 002B     		cmp	r3, #0
 4397 12b8 3EF423AF 		beq	.L75
 4398              		.loc 1 847 0
 4399 12bc 2946     		mov	r1, r5
 4400 12be FEF71EBF 		b	.L189
 4401              	.L108:
 4402              		.loc 1 837 0
 4403 12c2 C278     		ldrb	r2, [r0, #3]	@ zero_extendqisi2
 4404              		.loc 1 838 0
 4405 12c4 0379     		ldrb	r3, [r0, #4]	@ zero_extendqisi2
 4406              		.loc 1 835 0
 4407 12c6 4178     		ldrb	r1, [r0, #1]	@ zero_extendqisi2
 4408              		.loc 1 836 0
 4409 12c8 8578     		ldrb	r5, [r0, #2]	@ zero_extendqisi2
 4410              	.LVL422:
 4411              		.loc 1 835 0
 4412 12ca 0491     		str	r1, [sp, #16]
 4413              		.loc 1 837 0
 4414 12cc 0032     		adds	r2, r2, #0
 4415 12ce 18BF     		it	ne
 4416 12d0 0122     		movne	r2, #1
 4417              		.loc 1 838 0
 4418 12d2 0033     		adds	r3, r3, #0
 4419 12d4 18BF     		it	ne
 4420 12d6 0123     		movne	r3, #1
 4421              		.loc 1 839 0
 4422 12d8 02A9     		add	r1, sp, #8
 4423              		.loc 1 837 0
 4424 12da 8DF82420 		strb	r2, [sp, #36]
 4425              		.loc 1 839 0
 4426 12de 2046     		mov	r0, r4
 4427              		.loc 1 838 0
 4428 12e0 0422     		movs	r2, #4
 4429 12e2 8DF82530 		strb	r3, [sp, #37]
 4430 12e6 0292     		str	r2, [sp, #8]
 4431              		.loc 1 836 0
 4432 12e8 0595     		str	r5, [sp, #20]
 4433              		.loc 1 839 0
 4434 12ea FFF7FEFF 		bl	buffer_get_int16
 4435              	.LVL423:
 4436              		.loc 1 840 0
 4437 12ee 02A9     		add	r1, sp, #8
 4438              		.loc 1 839 0
 4439 12f0 0690     		str	r0, [sp, #24]
 4440              		.loc 1 840 0
 4441 12f2 2046     		mov	r0, r4
 4442 12f4 FFF7FEFF 		bl	buffer_get_int16
 4443              	.LVL424:
 4444              		.loc 1 841 0
 4445 12f8 02A9     		add	r1, sp, #8
 4446              		.loc 1 840 0
ARM GAS  /tmp/cc26jFNS.s 			page 79


 4447 12fa 0790     		str	r0, [sp, #28]
 4448              		.loc 1 841 0
 4449 12fc 2046     		mov	r0, r4
 4450 12fe FFF7FEFF 		bl	buffer_get_int16
 4451              	.LVL425:
 4452 1302 0890     		str	r0, [sp, #32]
 4453              		.loc 1 842 0
 4454 1304 04A8     		add	r0, sp, #16
 4455 1306 FFF7FEFF 		bl	app_nunchuk_update_output
 4456              	.LVL426:
 4457              		.loc 1 843 0
 4458 130a FEF7FABE 		b	.L75
 4459              	.LVL427:
 4460              	.L107:
 4461              		.loc 1 830 0
 4462 130e 8A1E     		subs	r2, r1, #2
 4463 1310 0023     		movs	r3, #0
 4464 1312 811C     		adds	r1, r0, #2
 4465 1314 4078     		ldrb	r0, [r0, #1]	@ zero_extendqisi2
 4466 1316 FFF7FEFF 		bl	comm_can_send_buffer
 4467              	.LVL428:
 4468              		.loc 1 831 0
 4469 131a FEF7F2BE 		b	.L75
 4470              	.L106:
 4471              		.loc 1 824 0
 4472 131e 36AD     		add	r5, sp, #216
 4473              	.LVL429:
 4474 1320 8A4C     		ldr	r4, .L214+4
 4475              	.LVL430:
 4476 1322 0122     		movs	r2, #1
 4477 1324 2123     		movs	r3, #33
 4478 1326 45F8D02D 		str	r2, [r5, #-208]!
 4479 132a 2370     		strb	r3, [r4]
 4480              		.loc 1 825 0
 4481 132c FFF7FEFF 		bl	app_nunchuk_get_decoded_chuk
 4482              	.LVL431:
 4483 1330 DFED887A 		vldr.32	s15, .L214+12
 4484 1334 60EE277A 		vmul.f32	s15, s0, s15
 4485 1338 2A46     		mov	r2, r5
 4486 133a FDEEE77A 		vcvt.s32.f32	s15, s15
 4487              	.L194:
 4488 133e 17EE901A 		vmov	r1, s15	@ int
 4489 1342 2046     		mov	r0, r4
 4490 1344 FFF7FEFF 		bl	buffer_append_int32
 4491              	.LVL432:
 4492              	.LBB151:
 4493              	.LBB152:
 4494              		.loc 1 90 0
 4495 1348 7F4B     		ldr	r3, .L214
 4496              	.LBE152:
 4497              	.LBE151:
 4498              		.loc 1 826 0
 4499 134a 0299     		ldr	r1, [sp, #8]
 4500              	.LVL433:
 4501              	.LBB154:
 4502              	.LBB153:
 4503              		.loc 1 90 0
ARM GAS  /tmp/cc26jFNS.s 			page 80


 4504 134c 1B68     		ldr	r3, [r3]
 4505 134e 002B     		cmp	r3, #0
 4506 1350 7EF4D5AE 		bne	.L189
 4507 1354 FEF7D5BE 		b	.L75
 4508              	.LVL434:
 4509              	.L105:
 4510              	.LBE153:
 4511              	.LBE154:
 4512              		.loc 1 814 0
 4513 1358 36AD     		add	r5, sp, #216
 4514              	.LVL435:
 4515 135a 7C4C     		ldr	r4, .L214+4
 4516              	.LVL436:
 4517              		.loc 1 815 0
 4518 135c 9FED7D8A 		vldr.32	s16, .L214+12
 4519              		.loc 1 814 0
 4520 1360 2023     		movs	r3, #32
 4521 1362 0122     		movs	r2, #1
 4522 1364 2370     		strb	r3, [r4]
 4523 1366 45F8D02D 		str	r2, [r5, #-208]!
 4524              		.loc 1 815 0
 4525 136a FFF7FEFF 		bl	app_adc_get_decoded_level
 4526              	.LVL437:
 4527 136e 20EE080A 		vmul.f32	s0, s0, s16
 4528 1372 2A46     		mov	r2, r5
 4529 1374 FDEEC07A 		vcvt.s32.f32	s15, s0
 4530 1378 2046     		mov	r0, r4
 4531 137a 17EE901A 		vmov	r1, s15	@ int
 4532 137e FFF7FEFF 		bl	buffer_append_int32
 4533              	.LVL438:
 4534              		.loc 1 816 0
 4535 1382 FFF7FEFF 		bl	app_adc_get_voltage
 4536              	.LVL439:
 4537 1386 20EE080A 		vmul.f32	s0, s0, s16
 4538 138a 2A46     		mov	r2, r5
 4539 138c FDEEC07A 		vcvt.s32.f32	s15, s0
 4540 1390 2046     		mov	r0, r4
 4541 1392 17EE901A 		vmov	r1, s15	@ int
 4542 1396 FFF7FEFF 		bl	buffer_append_int32
 4543              	.LVL440:
 4544              		.loc 1 817 0
 4545 139a FFF7FEFF 		bl	app_adc_get_decoded_level2
 4546              	.LVL441:
 4547 139e 20EE080A 		vmul.f32	s0, s0, s16
 4548 13a2 2A46     		mov	r2, r5
 4549 13a4 FDEEC07A 		vcvt.s32.f32	s15, s0
 4550 13a8 2046     		mov	r0, r4
 4551 13aa 17EE901A 		vmov	r1, s15	@ int
 4552 13ae FFF7FEFF 		bl	buffer_append_int32
 4553              	.LVL442:
 4554              		.loc 1 818 0
 4555 13b2 FFF7FEFF 		bl	app_adc_get_voltage2
 4556              	.LVL443:
 4557 13b6 20EE080A 		vmul.f32	s0, s0, s16
 4558 13ba 2A46     		mov	r2, r5
 4559 13bc FDEEC07A 		vcvt.s32.f32	s15, s0
 4560 13c0 BDE7     		b	.L194
ARM GAS  /tmp/cc26jFNS.s 			page 81


 4561              	.LVL444:
 4562              	.L104:
 4563              		.loc 1 806 0
 4564 13c2 36AD     		add	r5, sp, #216
 4565              	.LVL445:
 4566 13c4 614C     		ldr	r4, .L214+4
 4567              	.LVL446:
 4568              		.loc 1 807 0
 4569 13c6 9FED638A 		vldr.32	s16, .L214+12
 4570              		.loc 1 806 0
 4571 13ca 1F23     		movs	r3, #31
 4572 13cc 0122     		movs	r2, #1
 4573 13ce 45F8D02D 		str	r2, [r5, #-208]!
 4574 13d2 2370     		strb	r3, [r4]
 4575              		.loc 1 807 0
 4576 13d4 FFF7FEFF 		bl	app_ppm_get_decoded_level
 4577              	.LVL447:
 4578 13d8 20EE080A 		vmul.f32	s0, s0, s16
 4579 13dc 2A46     		mov	r2, r5
 4580 13de FDEEC07A 		vcvt.s32.f32	s15, s0
 4581 13e2 2046     		mov	r0, r4
 4582 13e4 17EE901A 		vmov	r1, s15	@ int
 4583 13e8 FFF7FEFF 		bl	buffer_append_int32
 4584              	.LVL448:
 4585              		.loc 1 808 0
 4586 13ec 0020     		movs	r0, #0
 4587 13ee FFF7FEFF 		bl	servodec_get_last_pulse_len
 4588              	.LVL449:
 4589 13f2 20EE080A 		vmul.f32	s0, s0, s16
 4590 13f6 2A46     		mov	r2, r5
 4591 13f8 FDEEC07A 		vcvt.s32.f32	s15, s0
 4592 13fc 9FE7     		b	.L194
 4593              	.LVL450:
 4594              	.L83:
 4595              		.loc 1 166 0
 4596 13fe 36AD     		add	r5, sp, #216
 4597              	.LVL451:
 4598 1400 0123     		movs	r3, #1
 4599 1402 524C     		ldr	r4, .L214+4
 4600              	.LVL452:
 4601 1404 45F8D03D 		str	r3, [r5, #-208]!
 4602 1408 0423     		movs	r3, #4
 4603 140a 2370     		strb	r3, [r4]
 4604              		.loc 1 167 0
 4605 140c FFF7FEFF 		bl	mc_interface_temp_fet_filtered
 4606              	.LVL453:
 4607 1410 2946     		mov	r1, r5
 4608 1412 2046     		mov	r0, r4
 4609 1414 F2EE040A 		vmov.f32	s1, #1.0e+1
 4610 1418 FFF7FEFF 		bl	buffer_append_float16
 4611              	.LVL454:
 4612              		.loc 1 168 0
 4613 141c FFF7FEFF 		bl	mc_interface_temp_motor_filtered
 4614              	.LVL455:
 4615 1420 2946     		mov	r1, r5
 4616 1422 2046     		mov	r0, r4
 4617 1424 F2EE040A 		vmov.f32	s1, #1.0e+1
ARM GAS  /tmp/cc26jFNS.s 			page 82


 4618 1428 FFF7FEFF 		bl	buffer_append_float16
 4619              	.LVL456:
 4620              		.loc 1 169 0
 4621 142c FFF7FEFF 		bl	mc_interface_read_reset_avg_motor_current
 4622              	.LVL457:
 4623 1430 2946     		mov	r1, r5
 4624 1432 2046     		mov	r0, r4
 4625 1434 DFED4B0A 		vldr.32	s1, .L214+28
 4626 1438 FFF7FEFF 		bl	buffer_append_float32
 4627              	.LVL458:
 4628              		.loc 1 170 0
 4629 143c FFF7FEFF 		bl	mc_interface_read_reset_avg_input_current
 4630              	.LVL459:
 4631 1440 2946     		mov	r1, r5
 4632 1442 2046     		mov	r0, r4
 4633 1444 DFED470A 		vldr.32	s1, .L214+28
 4634 1448 FFF7FEFF 		bl	buffer_append_float32
 4635              	.LVL460:
 4636              		.loc 1 171 0
 4637 144c FFF7FEFF 		bl	mc_interface_read_reset_avg_id
 4638              	.LVL461:
 4639 1450 2946     		mov	r1, r5
 4640 1452 2046     		mov	r0, r4
 4641 1454 DFED430A 		vldr.32	s1, .L214+28
 4642 1458 FFF7FEFF 		bl	buffer_append_float32
 4643              	.LVL462:
 4644              		.loc 1 172 0
 4645 145c FFF7FEFF 		bl	mc_interface_read_reset_avg_iq
 4646              	.LVL463:
 4647 1460 2946     		mov	r1, r5
 4648 1462 2046     		mov	r0, r4
 4649 1464 DFED3F0A 		vldr.32	s1, .L214+28
 4650 1468 FFF7FEFF 		bl	buffer_append_float32
 4651              	.LVL464:
 4652              		.loc 1 173 0
 4653 146c FFF7FEFF 		bl	mc_interface_get_duty_cycle_now
 4654              	.LVL465:
 4655 1470 2946     		mov	r1, r5
 4656 1472 2046     		mov	r0, r4
 4657 1474 DFED360A 		vldr.32	s1, .L214+8
 4658 1478 FFF7FEFF 		bl	buffer_append_float16
 4659              	.LVL466:
 4660              		.loc 1 174 0
 4661 147c FFF7FEFF 		bl	mc_interface_get_rpm
 4662              	.LVL467:
 4663 1480 2946     		mov	r1, r5
 4664 1482 2046     		mov	r0, r4
 4665 1484 F7EE000A 		vmov.f32	s1, #1.0e+0
 4666 1488 FFF7FEFF 		bl	buffer_append_float32
 4667              	.LVL468:
 4668              		.loc 1 175 0
 4669 148c 364B     		ldr	r3, .L214+32
 4670 148e 9FED377A 		vldr.32	s14, .L214+36
 4671 1492 1B8A     		ldrh	r3, [r3, #16]
 4672 1494 9FED360A 		vldr.32	s0, .L214+40
 4673 1498 07EE903A 		vmov	s15, r3	@ int
 4674 149c F8EE677A 		vcvt.f32.u32	s15, s15
ARM GAS  /tmp/cc26jFNS.s 			page 83


 4675 14a0 2946     		mov	r1, r5
 4676 14a2 67EE877A 		vmul.f32	s15, s15, s14
 4677 14a6 F2EE040A 		vmov.f32	s1, #1.0e+1
 4678 14aa 27EE800A 		vmul.f32	s0, s15, s0
 4679 14ae 2046     		mov	r0, r4
 4680 14b0 FFF7FEFF 		bl	buffer_append_float16
 4681              	.LVL469:
 4682              		.loc 1 176 0
 4683 14b4 0020     		movs	r0, #0
 4684 14b6 FFF7FEFF 		bl	mc_interface_get_amp_hours
 4685              	.LVL470:
 4686 14ba 2946     		mov	r1, r5
 4687 14bc DFED2D0A 		vldr.32	s1, .L214+44
 4688 14c0 2046     		mov	r0, r4
 4689 14c2 FFF7FEFF 		bl	buffer_append_float32
 4690              	.LVL471:
 4691              		.loc 1 177 0
 4692 14c6 0020     		movs	r0, #0
 4693 14c8 FFF7FEFF 		bl	mc_interface_get_amp_hours_charged
 4694              	.LVL472:
 4695 14cc 2946     		mov	r1, r5
 4696 14ce DFED290A 		vldr.32	s1, .L214+44
 4697 14d2 2046     		mov	r0, r4
 4698 14d4 FFF7FEFF 		bl	buffer_append_float32
 4699              	.LVL473:
 4700              		.loc 1 178 0
 4701 14d8 0020     		movs	r0, #0
 4702 14da FFF7FEFF 		bl	mc_interface_get_watt_hours
 4703              	.LVL474:
 4704 14de 2946     		mov	r1, r5
 4705 14e0 DFED240A 		vldr.32	s1, .L214+44
 4706 14e4 2046     		mov	r0, r4
 4707 14e6 FFF7FEFF 		bl	buffer_append_float32
 4708              	.LVL475:
 4709              		.loc 1 179 0
 4710 14ea 0020     		movs	r0, #0
 4711 14ec FFF7FEFF 		bl	mc_interface_get_watt_hours_charged
 4712              	.LVL476:
 4713 14f0 DFED200A 		vldr.32	s1, .L214+44
 4714 14f4 2946     		mov	r1, r5
 4715 14f6 2046     		mov	r0, r4
 4716 14f8 FFF7FEFF 		bl	buffer_append_float32
 4717              	.LVL477:
 4718              		.loc 1 180 0
 4719 14fc 0020     		movs	r0, #0
 4720 14fe FFF7FEFF 		bl	mc_interface_get_tachometer_value
 4721              	.LVL478:
 4722 1502 2A46     		mov	r2, r5
 4723 1504 0146     		mov	r1, r0
 4724 1506 2046     		mov	r0, r4
 4725 1508 FFF7FEFF 		bl	buffer_append_int32
 4726              	.LVL479:
 4727              		.loc 1 181 0
 4728 150c 0020     		movs	r0, #0
 4729 150e FFF7FEFF 		bl	mc_interface_get_tachometer_abs_value
 4730              	.LVL480:
 4731 1512 2A46     		mov	r2, r5
ARM GAS  /tmp/cc26jFNS.s 			page 84


 4732 1514 0146     		mov	r1, r0
 4733 1516 2046     		mov	r0, r4
 4734 1518 FFF7FEFF 		bl	buffer_append_int32
 4735              	.LVL481:
 4736              		.loc 1 182 0
 4737 151c 029E     		ldr	r6, [sp, #8]
 4738 151e 731C     		adds	r3, r6, #1
 4739 1520 0293     		str	r3, [sp, #8]
 4740 1522 FFF7FEFF 		bl	mc_interface_get_fault
 4741              	.LVL482:
 4742 1526 A055     		strb	r0, [r4, r6]
 4743              		.loc 1 183 0
 4744 1528 FFF7FEFF 		bl	mc_interface_get_pid_pos_now
 4745              	.LVL483:
 4746 152c 2946     		mov	r1, r5
 4747 152e 2046     		mov	r0, r4
 4748 1530 DFED080A 		vldr.32	s1, .L214+12
 4749 1534 FFF7FEFF 		bl	buffer_append_float32
 4750              	.LVL484:
 4751              	.LBB155:
 4752              	.LBB156:
 4753              		.loc 1 90 0
 4754 1538 034B     		ldr	r3, .L214
 4755              	.LBE156:
 4756              	.LBE155:
 4757              		.loc 1 184 0
 4758 153a 0299     		ldr	r1, [sp, #8]
 4759              	.LVL485:
 4760              	.LBB158:
 4761              	.LBB157:
 4762              		.loc 1 90 0
 4763 153c 1B68     		ldr	r3, [r3]
 4764 153e 002B     		cmp	r3, #0
 4765 1540 7EF4DDAD 		bne	.L189
 4766 1544 FEF7DDBD 		b	.L75
 4767              	.L215:
 4768              		.align	2
 4769              	.L214:
 4770 1548 00000000 		.word	.LANCHOR10
 4771 154c 00000000 		.word	.LANCHOR8
 4772 1550 00007A44 		.word	1148846080
 4773 1554 00247449 		.word	1232348160
 4774 1558 00000000 		.word	.LC1
 4775 155c 107AFF1F 		.word	536836624
 4776 1560 00000000 		.word	.LANCHOR14
 4777 1564 0000C842 		.word	1120403456
 4778 1568 00000000 		.word	ADC_Value
 4779 156c 6740533A 		.word	978534503
 4780 1570 74D19541 		.word	1100337524
 4781 1574 00401C46 		.word	1176256512
 4782              	.LVL486:
 4783              	.L82:
 4784              	.LBE157:
 4785              	.LBE158:
 4786              		.loc 1 155 0
 4787 1578 02A9     		add	r1, sp, #8
 4788 157a 2046     		mov	r0, r4
ARM GAS  /tmp/cc26jFNS.s 			page 85


 4789 157c FFF7FEFF 		bl	buffer_get_uint32
 4790              	.LVL487:
 4791              		.loc 1 156 0
 4792 1580 0299     		ldr	r1, [sp, #8]
 4793 1582 6A1A     		subs	r2, r5, r1
 4794 1584 2144     		add	r1, r1, r4
 4795 1586 FFF7FEFF 		bl	flash_helper_write_new_app_data
 4796              	.LVL488:
 4797              	.LBB159:
 4798              	.LBB160:
 4799              		.loc 1 90 0
 4800 158a 5B4A     		ldr	r2, .L216
 4801              	.LBE160:
 4802              	.LBE159:
 4803              		.loc 1 159 0
 4804 158c 5B4B     		ldr	r3, .L216+4
 4805              	.LBB163:
 4806              	.LBB161:
 4807              		.loc 1 90 0
 4808 158e 1268     		ldr	r2, [r2]
 4809              	.LBE161:
 4810              	.LBE163:
 4811              		.loc 1 160 0
 4812 1590 A0F10900 		sub	r0, #9
 4813              	.LVL489:
 4814 1594 B0FA80F0 		clz	r0, r0
 4815 1598 4009     		lsrs	r0, r0, #5
 4816              		.loc 1 159 0
 4817 159a 0324     		movs	r4, #3
 4818              	.LVL490:
 4819              		.loc 1 160 0
 4820 159c 0221     		movs	r1, #2
 4821 159e 5870     		strb	r0, [r3, #1]
 4822              	.LVL491:
 4823              		.loc 1 159 0
 4824 15a0 1C70     		strb	r4, [r3]
 4825              		.loc 1 160 0
 4826 15a2 0291     		str	r1, [sp, #8]
 4827              	.LBB164:
 4828              	.LBB162:
 4829              		.loc 1 90 0
 4830 15a4 002A     		cmp	r2, #0
 4831 15a6 3EF4ACAD 		beq	.L75
 4832              	.LVL492:
 4833              	.L188:
 4834              		.loc 1 91 0
 4835 15aa 1846     		mov	r0, r3
 4836 15ac 9047     		blx	r2
 4837              	.LVL493:
 4838 15ae FEF7A8BD 		b	.L75
 4839              	.LVL494:
 4840              	.L81:
 4841              	.LBE162:
 4842              	.LBE164:
 4843              		.loc 1 145 0
 4844 15b2 02A9     		add	r1, sp, #8
 4845 15b4 2046     		mov	r0, r4
ARM GAS  /tmp/cc26jFNS.s 			page 86


 4846 15b6 FFF7FEFF 		bl	buffer_get_uint32
 4847              	.LVL495:
 4848 15ba FFF7FEFF 		bl	flash_helper_erase_new_app
 4849              	.LVL496:
 4850              	.LBB165:
 4851              	.LBB166:
 4852              		.loc 1 90 0
 4853 15be 4E4A     		ldr	r2, .L216
 4854              	.LBE166:
 4855              	.LBE165:
 4856              		.loc 1 148 0
 4857 15c0 4E4B     		ldr	r3, .L216+4
 4858              	.LBB169:
 4859              	.LBB167:
 4860              		.loc 1 90 0
 4861 15c2 1268     		ldr	r2, [r2]
 4862              	.LBE167:
 4863              	.LBE169:
 4864              		.loc 1 149 0
 4865 15c4 A0F10900 		sub	r0, #9
 4866              	.LVL497:
 4867 15c8 B0FA80F0 		clz	r0, r0
 4868              		.loc 1 148 0
 4869 15cc 0221     		movs	r1, #2
 4870              		.loc 1 149 0
 4871 15ce 4009     		lsrs	r0, r0, #5
 4872 15d0 5870     		strb	r0, [r3, #1]
 4873              	.LVL498:
 4874              		.loc 1 148 0
 4875 15d2 1970     		strb	r1, [r3]
 4876              		.loc 1 149 0
 4877 15d4 0291     		str	r1, [sp, #8]
 4878              	.LBB170:
 4879              	.LBB168:
 4880              		.loc 1 90 0
 4881 15d6 002A     		cmp	r2, #0
 4882 15d8 E7D1     		bne	.L188
 4883 15da FEF792BD 		b	.L75
 4884              	.LVL499:
 4885              	.L80:
 4886              	.LBE168:
 4887              	.LBE170:
 4888              		.loc 1 140 0
 4889 15de FFF7FEFF 		bl	flash_helper_jump_to_bootloader
 4890              	.LVL500:
 4891              		.loc 1 141 0
 4892 15e2 FEF78EBD 		b	.L75
 4893              	.L85:
 4894              		.loc 1 195 0
 4895 15e6 02A9     		add	r1, sp, #8
 4896 15e8 2046     		mov	r0, r4
 4897 15ea FFF7FEFF 		bl	buffer_get_int32
 4898              	.LVL501:
 4899 15ee 07EE100A 		vmov	s14, r0	@ int
 4900 15f2 DFED437A 		vldr.32	s15, .L216+8
 4901 15f6 B8EEC70A 		vcvt.f32.s32	s0, s14
 4902 15fa 80EE270A 		vdiv.f32	s0, s0, s15
ARM GAS  /tmp/cc26jFNS.s 			page 87


 4903 15fe FFF7FEFF 		bl	mc_interface_set_current
 4904              	.LVL502:
 4905              		.loc 1 196 0
 4906 1602 FFF7FEFF 		bl	timeout_reset
 4907              	.LVL503:
 4908              		.loc 1 197 0
 4909 1606 FEF77CBD 		b	.L75
 4910              	.L84:
 4911              		.loc 1 189 0
 4912 160a 02A9     		add	r1, sp, #8
 4913 160c 2046     		mov	r0, r4
 4914 160e FFF7FEFF 		bl	buffer_get_int32
 4915              	.LVL504:
 4916 1612 07EE100A 		vmov	s14, r0	@ int
 4917 1616 DFED3B7A 		vldr.32	s15, .L216+12
 4918 161a B8EEC70A 		vcvt.f32.s32	s0, s14
 4919 161e 80EE270A 		vdiv.f32	s0, s0, s15
 4920 1622 FFF7FEFF 		bl	mc_interface_set_duty
 4921              	.LVL505:
 4922              		.loc 1 190 0
 4923 1626 FFF7FEFF 		bl	timeout_reset
 4924              	.LVL506:
 4925              		.loc 1 191 0
 4926 162a FEF76ABD 		b	.L75
 4927              	.L86:
 4928              		.loc 1 201 0
 4929 162e 02A9     		add	r1, sp, #8
 4930 1630 2046     		mov	r0, r4
 4931 1632 FFF7FEFF 		bl	buffer_get_int32
 4932              	.LVL507:
 4933 1636 07EE100A 		vmov	s14, r0	@ int
 4934 163a DFED317A 		vldr.32	s15, .L216+8
 4935 163e B8EEC70A 		vcvt.f32.s32	s0, s14
 4936 1642 80EE270A 		vdiv.f32	s0, s0, s15
 4937 1646 FFF7FEFF 		bl	mc_interface_set_brake_current
 4938              	.LVL508:
 4939              		.loc 1 202 0
 4940 164a FFF7FEFF 		bl	timeout_reset
 4941              	.LVL509:
 4942              		.loc 1 203 0
 4943 164e FEF758BD 		b	.L75
 4944              	.L197:
 4945              		.loc 1 231 0
 4946 1652 FFF7FEFF 		bl	mc_interface_release_motor
 4947              	.LVL510:
 4948 1656 FEF771BD 		b	.L103
 4949              	.L198:
 4950              		.loc 1 616 0
 4951 165a FFF7FEFF 		bl	app_get_configuration
 4952              	.LVL511:
 4953 165e 04AC     		add	r4, sp, #16
 4954              	.LVL512:
 4955 1660 0146     		mov	r1, r0
 4956 1662 C822     		movs	r2, #200
 4957 1664 2046     		mov	r0, r4
 4958 1666 FFF7FEFF 		bl	memcpy
 4959              	.LVL513:
ARM GAS  /tmp/cc26jFNS.s 			page 88


 4960 166a FEF7C9BE 		b	.L118
 4961              	.LVL514:
 4962              	.L199:
 4963              		.loc 1 409 0
 4964 166e FFF7FEFF 		bl	mc_interface_get_configuration
 4965              	.LVL515:
 4966 1672 4FF4C272 		mov	r2, #388
 4967 1676 0146     		mov	r1, r0
 4968 1678 2348     		ldr	r0, .L216+16
 4969 167a FFF7FEFF 		bl	memcpy
 4970              	.LVL516:
 4971 167e FFF792B8 		b	.L116
 4972              	.LVL517:
 4973              	.L129:
 4974              	.LBB171:
 4975              	.LBB110:
 4976              	.LBB111:
 4977              		.loc 1 90 0
 4978 1682 3468     		ldr	r4, [r6]
 4979 1684 002C     		cmp	r4, #0
 4980 1686 3EF43CAD 		beq	.L75
 4981              		.loc 1 91 0
 4982 168a 1946     		mov	r1, r3
 4983 168c 1046     		mov	r0, r2
 4984 168e A047     		blx	r4
 4985              	.LVL518:
 4986 1690 FEF737BD 		b	.L75
 4987              	.LVL519:
 4988              	.L128:
 4989              	.LBE111:
 4990              	.LBE110:
 4991              	.LBE171:
 4992              		.loc 1 787 0
 4993 1694 194B     		ldr	r3, .L216+4
 4994              		.loc 1 789 0
 4995 1696 0021     		movs	r1, #0
 4996              		.loc 1 787 0
 4997 1698 4FF0FF32 		mov	r2, #-1
 4998              		.loc 1 789 0
 4999 169c 5972     		strb	r1, [r3, #9]
 5000              		.loc 1 787 0
 5001 169e C3E90022 		strd	r2, r2, [r3]
 5002 16a2 FEF72EBD 		b	.L75
 5003              	.LVL520:
 5004              	.L126:
 5005              	.LBB172:
 5006              	.LBB116:
 5007              	.LBB115:
 5008              		.loc 1 90 0
 5009 16a6 D8F80030 		ldr	r3, [r8]
 5010 16aa 002B     		cmp	r3, #0
 5011 16ac 7EF404AE 		bne	.L192
 5012 16b0 FEF727BD 		b	.L75
 5013              	.LVL521:
 5014              	.L125:
 5015              	.LBE115:
 5016              	.LBE116:
ARM GAS  /tmp/cc26jFNS.s 			page 89


 5017              	.LBE172:
 5018              		.loc 1 744 0
 5019 16b4 36AD     		add	r5, sp, #216
 5020              	.LVL522:
 5021 16b6 0123     		movs	r3, #1
 5022 16b8 45F8D03D 		str	r3, [r5, #-208]!
 5023 16bc 0F4C     		ldr	r4, .L216+4
 5024              	.LVL523:
 5025              		.loc 1 745 0
 5026 16be DFED130A 		vldr.32	s1, .L216+20
 5027 16c2 9FED130A 		vldr.32	s0, .L216+24
 5028              		.loc 1 744 0
 5029 16c6 1B23     		movs	r3, #27
 5030              		.loc 1 745 0
 5031 16c8 2946     		mov	r1, r5
 5032 16ca 2046     		mov	r0, r4
 5033              		.loc 1 744 0
 5034 16cc 2370     		strb	r3, [r4]
 5035              		.loc 1 745 0
 5036 16ce FFF7FEFF 		bl	buffer_append_float32
 5037              	.LVL524:
 5038              		.loc 1 746 0
 5039 16d2 2946     		mov	r1, r5
 5040 16d4 2046     		mov	r0, r4
 5041 16d6 DFED0D0A 		vldr.32	s1, .L216+20
 5042 16da 9FED0E0A 		vldr.32	s0, .L216+28
 5043 16de FFF7FEFF 		bl	buffer_append_float32
 5044              	.LVL525:
 5045              	.LBB173:
 5046              	.LBB174:
 5047              		.loc 1 90 0
 5048 16e2 054B     		ldr	r3, .L216
 5049              	.LBE174:
 5050              	.LBE173:
 5051              		.loc 1 747 0
 5052 16e4 0299     		ldr	r1, [sp, #8]
 5053              	.LBB177:
 5054              	.LBB175:
 5055              		.loc 1 90 0
 5056 16e6 1B68     		ldr	r3, [r3]
 5057              	.LBE175:
 5058              	.LBE177:
 5059              		.loc 1 747 0
 5060 16e8 6654     		strb	r6, [r4, r1]
 5061              	.LVL526:
 5062 16ea 0131     		adds	r1, r1, #1
 5063              	.LVL527:
 5064 16ec 0291     		str	r1, [sp, #8]
 5065              	.LBB178:
 5066              	.LBB176:
 5067              		.loc 1 90 0
 5068 16ee 002B     		cmp	r3, #0
 5069 16f0 7EF405AD 		bne	.L189
 5070 16f4 FEF705BD 		b	.L75
 5071              	.L217:
 5072              		.align	2
 5073              	.L216:
ARM GAS  /tmp/cc26jFNS.s 			page 90


 5074 16f8 00000000 		.word	.LANCHOR10
 5075 16fc 00000000 		.word	.LANCHOR8
 5076 1700 00007A44 		.word	1148846080
 5077 1704 0050C347 		.word	1203982336
 5078 1708 00000000 		.word	.LANCHOR15
 5079 170c 00247449 		.word	1232348160
 5080 1710 00407A44 		.word	1148862464
 5081 1714 00000000 		.word	0
 5082              	.LBE176:
 5083              	.LBE178:
 5084              		.cfi_endproc
 5085              	.LFE262:
 5086              		.size	commands_process_packet, .-commands_process_packet
 5087              		.section	.bss.appdata_func,"aw",%nobits
 5088              		.align	2
 5089              		.set	.LANCHOR14,. + 0
 5090              		.type	appdata_func, %object
 5091              		.size	appdata_func, 4
 5092              	appdata_func:
 5093 0000 00000000 		.space	4
 5094              		.section	.bss.detect_coupling_k,"aw",%nobits
 5095              		.align	2
 5096              		.set	.LANCHOR3,. + 0
 5097              		.type	detect_coupling_k, %object
 5098              		.size	detect_coupling_k, 4
 5099              	detect_coupling_k:
 5100 0000 00000000 		.space	4
 5101              		.section	.bss.detect_current,"aw",%nobits
 5102              		.align	2
 5103              		.set	.LANCHOR7,. + 0
 5104              		.type	detect_current, %object
 5105              		.size	detect_current, 4
 5106              	detect_current:
 5107 0000 00000000 		.space	4
 5108              		.section	.bss.detect_cycle_int_limit,"aw",%nobits
 5109              		.align	2
 5110              		.set	.LANCHOR4,. + 0
 5111              		.type	detect_cycle_int_limit, %object
 5112              		.size	detect_cycle_int_limit, 4
 5113              	detect_cycle_int_limit:
 5114 0000 00000000 		.space	4
 5115              		.section	.bss.detect_hall_res,"aw",%nobits
 5116              		.align	2
 5117              		.set	.LANCHOR1,. + 0
 5118              		.type	detect_hall_res, %object
 5119              		.size	detect_hall_res, 4
 5120              	detect_hall_res:
 5121 0000 00000000 		.space	4
 5122              		.section	.bss.detect_hall_table,"aw",%nobits
 5123              		.align	2
 5124              		.set	.LANCHOR2,. + 0
 5125              		.type	detect_hall_table, %object
 5126              		.size	detect_hall_table, 8
 5127              	detect_hall_table:
 5128 0000 00000000 		.space	8
 5128      00000000 
 5129              		.section	.bss.detect_low_duty,"aw",%nobits
ARM GAS  /tmp/cc26jFNS.s 			page 91


 5130              		.align	2
 5131              		.set	.LANCHOR5,. + 0
 5132              		.type	detect_low_duty, %object
 5133              		.size	detect_low_duty, 4
 5134              	detect_low_duty:
 5135 0000 00000000 		.space	4
 5136              		.section	.bss.detect_min_rpm,"aw",%nobits
 5137              		.align	2
 5138              		.set	.LANCHOR6,. + 0
 5139              		.type	detect_min_rpm, %object
 5140              		.size	detect_min_rpm, 4
 5141              	detect_min_rpm:
 5142 0000 00000000 		.space	4
 5143              		.section	.bss.detect_thread_wa,"aw",%nobits
 5144              		.align	3
 5145              		.set	.LANCHOR11,. + 0
 5146              		.type	detect_thread_wa, %object
 5147              		.size	detect_thread_wa, 2456
 5148              	detect_thread_wa:
 5149 0000 00000000 		.space	2456
 5149      00000000 
 5149      00000000 
 5149      00000000 
 5149      00000000 
 5150              		.section	.bss.detect_tp,"aw",%nobits
 5151              		.align	2
 5152              		.set	.LANCHOR0,. + 0
 5153              		.type	detect_tp, %object
 5154              		.size	detect_tp, 4
 5155              	detect_tp:
 5156 0000 00000000 		.space	4
 5157              		.section	.bss.display_position_mode,"aw",%nobits
 5158              		.set	.LANCHOR13,. + 0
 5159              		.type	display_position_mode, %object
 5160              		.size	display_position_mode, 1
 5161              	display_position_mode:
 5162 0000 00       		.space	1
 5163              		.section	.bss.mcconf.12970,"aw",%nobits
 5164              		.align	2
 5165              		.set	.LANCHOR15,. + 0
 5166              		.type	mcconf.12970, %object
 5167              		.size	mcconf.12970, 388
 5168              	mcconf.12970:
 5169 0000 00000000 		.space	388
 5169      00000000 
 5169      00000000 
 5169      00000000 
 5169      00000000 
 5170              		.section	.bss.mcconf_old.12971,"aw",%nobits
 5171              		.align	2
 5172              		.set	.LANCHOR16,. + 0
 5173              		.type	mcconf_old.12971, %object
 5174              		.size	mcconf_old.12971, 388
 5175              	mcconf_old.12971:
 5176 0000 00000000 		.space	388
 5176      00000000 
 5176      00000000 
ARM GAS  /tmp/cc26jFNS.s 			page 92


 5176      00000000 
 5176      00000000 
 5177              		.section	.bss.print_buffer.13038,"aw",%nobits
 5178              		.align	2
 5179              		.set	.LANCHOR12,. + 0
 5180              		.type	print_buffer.13038, %object
 5181              		.size	print_buffer.13038, 255
 5182              	print_buffer.13038:
 5183 0000 00000000 		.space	255
 5183      00000000 
 5183      00000000 
 5183      00000000 
 5183      00000000 
 5184              		.section	.bss.send_buffer,"aw",%nobits
 5185              		.align	2
 5186              		.set	.LANCHOR8,. + 0
 5187              		.type	send_buffer, %object
 5188              		.size	send_buffer, 1024
 5189              	send_buffer:
 5190 0000 00000000 		.space	1024
 5190      00000000 
 5190      00000000 
 5190      00000000 
 5190      00000000 
 5191              		.section	.bss.send_func,"aw",%nobits
 5192              		.align	2
 5193              		.set	.LANCHOR10,. + 0
 5194              		.type	send_func, %object
 5195              		.size	send_func, 4
 5196              	send_func:
 5197 0000 00000000 		.space	4
 5198              		.section	.bss.send_func_last,"aw",%nobits
 5199              		.align	2
 5200              		.set	.LANCHOR9,. + 0
 5201              		.type	send_func_last, %object
 5202              		.size	send_func_last, 4
 5203              	send_func_last:
 5204 0000 00000000 		.space	4
 5205              		.section	.rodata.commands_process_packet.str1.4,"aMS",%progbits,1
 5206              		.align	2
 5207              	.LC1:
 5208 0000 34313000 		.ascii	"410\000"
 5209              		.section	.rodata.detect_thread.str1.4,"aMS",%progbits,1
 5210              		.align	2
 5211              	.LC0:
 5212 0000 44657465 		.ascii	"Detect\000"
 5212      637400
 5213              		.text
 5214              	.Letext0:
 5215              		.file 4 "/usr/arm-none-eabi/include/machine/_default_types.h"
 5216              		.file 5 "/usr/arm-none-eabi/include/sys/_stdint.h"
 5217              		.file 6 "/usr/lib/gcc/arm-none-eabi/7.3.1/include/stddef.h"
 5218              		.file 7 "ChibiOS_3.0.2/os/rt/ports/ARMCMx/compilers/GCC/chtypes.h"
 5219              		.file 8 "ChibiOS_3.0.2/os/rt/include/chsystypes.h"
 5220              		.file 9 "ChibiOS_3.0.2/os/rt/include/chschd.h"
 5221              		.file 10 "ChibiOS_3.0.2/os/ext/CMSIS/include/core_cm4.h"
 5222              		.file 11 "ChibiOS_3.0.2/os/ext/CMSIS/ST/system_stm32f4xx.h"
ARM GAS  /tmp/cc26jFNS.s 			page 93


 5223              		.file 12 "ChibiOS_3.0.2/os/ext/CMSIS/ST/stm32f407xx.h"
 5224              		.file 13 "ChibiOS_3.0.2/os/rt/ports/ARMCMx/chcore.h"
 5225              		.file 14 "ChibiOS_3.0.2/os/rt/ports/ARMCMx/chcore_v7m.h"
 5226              		.file 15 "ChibiOS_3.0.2/os/rt/include/chtm.h"
 5227              		.file 16 "ChibiOS_3.0.2/os/rt/include/chsem.h"
 5228              		.file 17 "ChibiOS_3.0.2/os/rt/include/chmtx.h"
 5229              		.file 18 "ChibiOS_3.0.2/os/rt/include/chevents.h"
 5230              		.file 19 "ChibiOS_3.0.2/os/rt/include/chqueues.h"
 5231              		.file 20 "datatypes.h"
 5232              		.file 21 "./conf_general.h"
 5233              		.file 22 "ChibiOS_3.0.2/os/hal/ports/STM32/STM32F4xx/stm32_dma.h"
 5234              		.file 23 "ChibiOS_3.0.2/os/hal/ports/STM32/LLD/GPIOv2/pal_lld.h"
 5235              		.file 24 "ChibiOS_3.0.2/os/hal/include/can.h"
 5236              		.file 25 "ChibiOS_3.0.2/os/hal/ports/STM32/LLD/can_lld.h"
 5237              		.file 26 "ChibiOS_3.0.2/os/hal/include/i2c.h"
 5238              		.file 27 "ChibiOS_3.0.2/os/hal/ports/STM32/LLD/I2Cv1/i2c_lld.h"
 5239              		.file 28 "ChibiOS_3.0.2/os/hal/include/icu.h"
 5240              		.file 29 "ChibiOS_3.0.2/os/hal/ports/STM32/LLD/TIMv1/icu_lld.h"
 5241              		.file 30 "ChibiOS_3.0.2/os/hal/ports/STM32/LLD/TIMv1/stm32_tim.h"
 5242              		.file 31 "ChibiOS_3.0.2/os/hal/include/spi.h"
 5243              		.file 32 "ChibiOS_3.0.2/os/hal/ports/STM32/LLD/SPIv1/spi_lld.h"
 5244              		.file 33 "ChibiOS_3.0.2/os/hal/include/uart.h"
 5245              		.file 34 "ChibiOS_3.0.2/os/hal/ports/STM32/LLD/USARTv1/uart_lld.h"
 5246              		.file 35 "ChibiOS_3.0.2/os/hal/include/usb.h"
 5247              		.file 36 "ChibiOS_3.0.2/os/hal/ports/STM32/LLD/OTGv1/usb_lld.h"
 5248              		.file 37 "ChibiOS_3.0.2/os/hal/ports/STM32/LLD/OTGv1/stm32_otg.h"
 5249              		.file 38 "ChibiOS_3.0.2/ext/stdperiph_stm32f4/inc/stm32f4xx_flash.h"
 5250              		.file 39 "mc_interface.h"
 5251              		.file 40 "mcpwm.h"
 5252              		.file 41 "/usr/arm-none-eabi/include/sys/lock.h"
 5253              		.file 42 "/usr/arm-none-eabi/include/sys/_types.h"
 5254              		.file 43 "/usr/arm-none-eabi/include/sys/reent.h"
 5255              		.file 44 "/usr/arm-none-eabi/include/math.h"
 5256              		.file 45 "/usr/lib/gcc/arm-none-eabi/7.3.1/include/stdarg.h"
 5257              		.file 46 "<built-in>"
 5258              		.file 47 "buffer.h"
 5259              		.file 48 "/usr/arm-none-eabi/include/stdio.h"
 5260              		.file 49 "mcpwm_foc.h"
 5261              		.file 50 "timeout.h"
 5262              		.file 51 "encoder.h"
 5263              		.file 52 "terminal.h"
 5264              		.file 53 "applications/app.h"
 5265              		.file 54 "ChibiOS_3.0.2/os/rt/include/chthreads.h"
 5266              		.file 55 "utils.h"
 5267              		.file 56 "nrf/nrf_driver.h"
 5268              		.file 57 "comm_can.h"
 5269              		.file 58 "servo_dec.h"
 5270              		.file 59 "flash_helper.h"