ARM GAS  /tmp/cchfRUpo.s 			page 1


   1              		.cpu cortex-m4
   2              		.eabi_attribute 27, 1
   3              		.eabi_attribute 28, 1
   4              		.eabi_attribute 20, 1
   5              		.eabi_attribute 21, 1
   6              		.eabi_attribute 23, 3
   7              		.eabi_attribute 24, 1
   8              		.eabi_attribute 25, 1
   9              		.eabi_attribute 26, 1
  10              		.eabi_attribute 30, 2
  11              		.eabi_attribute 34, 1
  12              		.eabi_attribute 18, 4
  13              		.file	"comm_usb.c"
  14              		.text
  15              	.Ltext0:
  16              		.cfi_sections	.debug_frame
  17              		.section	.text.send_packet,"ax",%progbits
  18              		.align	1
  19              		.p2align 4,,15
  20              		.syntax unified
  21              		.thumb
  22              		.thumb_func
  23              		.fpu fpv4-sp-d16
  24              		.type	send_packet, %function
  25              	send_packet:
  26              	.LFB260:
  27              		.file 1 "comm_usb.c"
  28              		.loc 1 106 0
  29              		.cfi_startproc
  30              		@ args = 0, pretend = 0, frame = 0
  31              		@ frame_needed = 0, uses_anonymous_args = 0
  32              		@ link register save eliminated.
  33              	.LVL0:
  34              		.loc 1 107 0
  35 0000 054B     		ldr	r3, .L4
  36              		.loc 1 106 0
  37 0002 10B4     		push	{r4}
  38              		.cfi_def_cfa_offset 4
  39              		.cfi_offset 4, -4
  40              		.loc 1 107 0
  41 0004 1C68     		ldr	r4, [r3]
  42 0006 2468     		ldr	r4, [r4]
  43 0008 0A46     		mov	r2, r1
  44 000a 0146     		mov	r1, r0
  45              	.LVL1:
  46 000c 1846     		mov	r0, r3
  47              	.LVL2:
  48 000e 2346     		mov	r3, r4
  49              		.loc 1 108 0
  50 0010 5DF8044B 		ldr	r4, [sp], #4
  51              		.cfi_restore 4
  52              		.cfi_def_cfa_offset 0
  53              		.loc 1 107 0
  54 0014 1847     		bx	r3
  55              	.LVL3:
  56              	.L5:
  57 0016 00BF     		.align	2
ARM GAS  /tmp/cchfRUpo.s 			page 2


  58              	.L4:
  59 0018 00000000 		.word	SDU1
  60              		.cfi_endproc
  61              	.LFE260:
  62              		.size	send_packet, .-send_packet
  63              		.section	.text.serial_process_thread,"ax",%progbits
  64              		.align	1
  65              		.p2align 4,,15
  66              		.syntax unified
  67              		.thumb
  68              		.thumb_func
  69              		.fpu fpv4-sp-d16
  70              		.type	serial_process_thread, %function
  71              	serial_process_thread:
  72              	.LFB257:
  73              		.loc 1 75 0
  74              		.cfi_startproc
  75              		@ Volatile: function does not return.
  76              		@ args = 0, pretend = 0, frame = 0
  77              		@ frame_needed = 0, uses_anonymous_args = 0
  78              	.LVL4:
  79              	.LBB8:
  80              	.LBB9:
  81              		.file 2 "ChibiOS_3.0.2/os/rt/include/chregistry.h"
  82              		.loc 2 135 0
  83 0000 114B     		ldr	r3, .L13
  84              	.LBE9:
  85              	.LBE8:
  86              		.loc 1 80 0
  87 0002 124A     		ldr	r2, .L13+4
  88              	.LBB12:
  89              	.LBB10:
  90              		.loc 2 135 0
  91 0004 9B69     		ldr	r3, [r3, #24]
  92 0006 1249     		ldr	r1, .L13+8
  93 0008 124C     		ldr	r4, .L13+12
  94 000a 134E     		ldr	r6, .L13+16
  95              	.LBE10:
  96              	.LBE12:
  97              		.loc 1 75 0
  98 000c 80B5     		push	{r7, lr}
  99              		.cfi_def_cfa_offset 8
 100              		.cfi_offset 7, -8
 101              		.cfi_offset 14, -4
 102 000e 134F     		ldr	r7, .L13+20
 103              	.LBB13:
 104              	.LBB11:
 105              		.loc 2 135 0
 106 0010 9961     		str	r1, [r3, #24]
 107              	.LVL5:
 108              	.LBE11:
 109              	.LBE13:
 110              		.loc 1 80 0
 111 0012 1360     		str	r3, [r2]
 112              		.loc 1 86 0
 113 0014 4FF00008 		mov	r8, #0
 114              	.LVL6:
ARM GAS  /tmp/cchfRUpo.s 			page 3


 115              	.L10:
 116              		.loc 1 83 0
 117 0018 0120     		movs	r0, #1
 118 001a FFF7FEFF 		bl	chEvtWaitAny
 119              	.LVL7:
 120 001e 2368     		ldr	r3, [r4]
 121              	.L8:
 122              		.loc 1 85 0
 123 0020 3268     		ldr	r2, [r6]
 124 0022 9A42     		cmp	r2, r3
 125              		.loc 1 86 0
 126 0024 03F10105 		add	r5, r3, #1
 127 0028 4FF00001 		mov	r1, #0
 128              		.loc 1 85 0
 129 002c F4D0     		beq	.L10
 130              		.loc 1 86 0
 131 002e F85C     		ldrb	r0, [r7, r3]	@ zero_extendqisi2
 132 0030 2560     		str	r5, [r4]
 133 0032 FFF7FEFF 		bl	packet_process_byte
 134              	.LVL8:
 135              		.loc 1 88 0
 136 0036 2368     		ldr	r3, [r4]
 137 0038 B3F5006F 		cmp	r3, #2048
 138              		.loc 1 89 0
 139 003c 04BF     		itt	eq
 140 003e C4F80080 		streq	r8, [r4]
 141 0042 0023     		moveq	r3, #0
 142 0044 ECE7     		b	.L8
 143              	.L14:
 144 0046 00BF     		.align	2
 145              	.L13:
 146 0048 00000000 		.word	ch
 147 004c 00000000 		.word	.LANCHOR0
 148 0050 00000000 		.word	.LC0
 149 0054 00000000 		.word	.LANCHOR1
 150 0058 00000000 		.word	.LANCHOR3
 151 005c 00000000 		.word	.LANCHOR2
 152              		.cfi_endproc
 153              	.LFE257:
 154              		.size	serial_process_thread, .-serial_process_thread
 155              		.section	.text.serial_read_thread,"ax",%progbits
 156              		.align	1
 157              		.p2align 4,,15
 158              		.syntax unified
 159              		.thumb
 160              		.thumb_func
 161              		.fpu fpv4-sp-d16
 162              		.type	serial_read_thread, %function
 163              	serial_read_thread:
 164              	.LFB256:
 165              		.loc 1 45 0
 166              		.cfi_startproc
 167              		@ args = 0, pretend = 0, frame = 128
 168              		@ frame_needed = 0, uses_anonymous_args = 0
 169              	.LVL9:
 170 0000 2DE9F043 		push	{r4, r5, r6, r7, r8, r9, lr}
 171              		.cfi_def_cfa_offset 28
ARM GAS  /tmp/cchfRUpo.s 			page 4


 172              		.cfi_offset 4, -28
 173              		.cfi_offset 5, -24
 174              		.cfi_offset 6, -20
 175              		.cfi_offset 7, -16
 176              		.cfi_offset 8, -12
 177              		.cfi_offset 9, -8
 178              		.cfi_offset 14, -4
 179              	.LBB14:
 180              	.LBB15:
 181              		.loc 2 135 0
 182 0004 154B     		ldr	r3, .L24
 183 0006 164E     		ldr	r6, .L24+4
 184 0008 9B69     		ldr	r3, [r3, #24]
 185 000a 164A     		ldr	r2, .L24+8
 186 000c 164D     		ldr	r5, .L24+12
 187 000e DFF85C90 		ldr	r9, .L24+16
 188 0012 DFF85C80 		ldr	r8, .L24+20
 189 0016 9A61     		str	r2, [r3, #24]
 190              	.LVL10:
 191              	.LBE15:
 192              	.LBE14:
 193              		.loc 1 45 0
 194 0018 A1B0     		sub	sp, sp, #132
 195              		.cfi_def_cfa_offset 160
 196              		.loc 1 56 0
 197 001a 3746     		mov	r7, r6
 198 001c 6C46     		mov	r4, sp
 199              	.LVL11:
 200              	.L16:
 201 001e 3368     		ldr	r3, [r6]
 202 0020 0122     		movs	r2, #1
 203 0022 5B68     		ldr	r3, [r3, #4]
 204 0024 2146     		mov	r1, r4
 205 0026 3846     		mov	r0, r7
 206 0028 9847     		blx	r3
 207              	.LVL12:
 208              		.loc 1 58 0
 209 002a 0028     		cmp	r0, #0
 210 002c F7DD     		ble	.L16
 211 002e 2B68     		ldr	r3, [r5]
 212 0030 2246     		mov	r2, r4
 213              	.LVL13:
 214              	.L18:
 215              		.loc 1 59 0
 216 0032 12F8011B 		ldrb	r1, [r2], #1	@ zero_extendqisi2
 217              	.LVL14:
 218 0036 09F80310 		strb	r1, [r9, r3]
 219 003a 0133     		adds	r3, r3, #1
 220              		.loc 1 62 0
 221 003c B3F5006F 		cmp	r3, #2048
 222              		.loc 1 58 0
 223 0040 A2EB0401 		sub	r1, r2, r4
 224              		.loc 1 62 0
 225 0044 08BF     		it	eq
 226 0046 0023     		moveq	r3, #0
 227              	.LVL15:
 228              		.loc 1 58 0
ARM GAS  /tmp/cchfRUpo.s 			page 5


 229 0048 8842     		cmp	r0, r1
 230 004a F2DC     		bgt	.L18
 231              		.loc 1 69 0
 232 004c 0121     		movs	r1, #1
 233 004e D8F80000 		ldr	r0, [r8]
 234              	.LVL16:
 235 0052 2B60     		str	r3, [r5]
 236 0054 FFF7FEFF 		bl	chEvtSignal
 237              	.LVL17:
 238 0058 E1E7     		b	.L16
 239              	.L25:
 240 005a 00BF     		.align	2
 241              	.L24:
 242 005c 00000000 		.word	ch
 243 0060 00000000 		.word	SDU1
 244 0064 00000000 		.word	.LC1
 245 0068 00000000 		.word	.LANCHOR3
 246 006c 00000000 		.word	.LANCHOR2
 247 0070 00000000 		.word	.LANCHOR0
 248              		.cfi_endproc
 249              	.LFE256:
 250              		.size	serial_read_thread, .-serial_read_thread
 251              		.section	.text.process_packet,"ax",%progbits
 252              		.align	1
 253              		.p2align 4,,15
 254              		.syntax unified
 255              		.thumb
 256              		.thumb_func
 257              		.fpu fpv4-sp-d16
 258              		.type	process_packet, %function
 259              	process_packet:
 260              	.LFB258:
 261              		.loc 1 95 0
 262              		.cfi_startproc
 263              		@ args = 0, pretend = 0, frame = 0
 264              		@ frame_needed = 0, uses_anonymous_args = 0
 265              	.LVL18:
 266 0000 38B5     		push	{r3, r4, r5, lr}
 267              		.cfi_def_cfa_offset 16
 268              		.cfi_offset 3, -16
 269              		.cfi_offset 4, -12
 270              		.cfi_offset 5, -8
 271              		.cfi_offset 14, -4
 272              		.loc 1 95 0
 273 0002 0446     		mov	r4, r0
 274 0004 0D46     		mov	r5, r1
 275              		.loc 1 96 0
 276 0006 0448     		ldr	r0, .L28
 277              	.LVL19:
 278 0008 FFF7FEFF 		bl	commands_set_send_func
 279              	.LVL20:
 280              		.loc 1 97 0
 281 000c 2946     		mov	r1, r5
 282 000e 2046     		mov	r0, r4
 283              		.loc 1 98 0
 284 0010 BDE83840 		pop	{r3, r4, r5, lr}
 285              		.cfi_restore 14
ARM GAS  /tmp/cchfRUpo.s 			page 6


 286              		.cfi_restore 5
 287              		.cfi_restore 4
 288              		.cfi_restore 3
 289              		.cfi_def_cfa_offset 0
 290              	.LVL21:
 291              		.loc 1 97 0
 292 0014 FFF7FEBF 		b	commands_process_packet
 293              	.LVL22:
 294              	.L29:
 295              		.align	2
 296              	.L28:
 297 0018 00000000 		.word	send_packet_wrapper
 298              		.cfi_endproc
 299              	.LFE258:
 300              		.size	process_packet, .-process_packet
 301              		.section	.text.send_packet_wrapper,"ax",%progbits
 302              		.align	1
 303              		.p2align 4,,15
 304              		.syntax unified
 305              		.thumb
 306              		.thumb_func
 307              		.fpu fpv4-sp-d16
 308              		.type	send_packet_wrapper, %function
 309              	send_packet_wrapper:
 310              	.LFB259:
 311              		.loc 1 100 0
 312              		.cfi_startproc
 313              		@ args = 0, pretend = 0, frame = 0
 314              		@ frame_needed = 0, uses_anonymous_args = 0
 315              	.LVL23:
 316 0000 70B5     		push	{r4, r5, r6, lr}
 317              		.cfi_def_cfa_offset 16
 318              		.cfi_offset 4, -16
 319              		.cfi_offset 5, -12
 320              		.cfi_offset 6, -8
 321              		.cfi_offset 14, -4
 322              		.loc 1 101 0
 323 0002 084C     		ldr	r4, .L32
 324              		.loc 1 100 0
 325 0004 0546     		mov	r5, r0
 326 0006 0E46     		mov	r6, r1
 327              		.loc 1 101 0
 328 0008 2046     		mov	r0, r4
 329              	.LVL24:
 330 000a FFF7FEFF 		bl	chMtxLock
 331              	.LVL25:
 332              		.loc 1 102 0
 333 000e 2846     		mov	r0, r5
 334 0010 3146     		mov	r1, r6
 335 0012 0022     		movs	r2, #0
 336 0014 FFF7FEFF 		bl	packet_send_packet
 337              	.LVL26:
 338              		.loc 1 103 0
 339 0018 2046     		mov	r0, r4
 340              		.loc 1 104 0
 341 001a BDE87040 		pop	{r4, r5, r6, lr}
 342              		.cfi_restore 14
ARM GAS  /tmp/cchfRUpo.s 			page 7


 343              		.cfi_restore 6
 344              		.cfi_restore 5
 345              		.cfi_restore 4
 346              		.cfi_def_cfa_offset 0
 347              	.LVL27:
 348              		.loc 1 103 0
 349 001e FFF7FEBF 		b	chMtxUnlock
 350              	.LVL28:
 351              	.L33:
 352 0022 00BF     		.align	2
 353              	.L32:
 354 0024 00000000 		.word	.LANCHOR4
 355              		.cfi_endproc
 356              	.LFE259:
 357              		.size	send_packet_wrapper, .-send_packet_wrapper
 358              		.section	.text.comm_usb_init,"ax",%progbits
 359              		.align	1
 360              		.p2align 4,,15
 361              		.global	comm_usb_init
 362              		.syntax unified
 363              		.thumb
 364              		.thumb_func
 365              		.fpu fpv4-sp-d16
 366              		.type	comm_usb_init, %function
 367              	comm_usb_init:
 368              	.LFB261:
 369              		.loc 1 110 0
 370              		.cfi_startproc
 371              		@ args = 0, pretend = 0, frame = 0
 372              		@ frame_needed = 0, uses_anonymous_args = 0
 373 0000 10B5     		push	{r4, lr}
 374              		.cfi_def_cfa_offset 8
 375              		.cfi_offset 4, -8
 376              		.cfi_offset 14, -4
 377 0002 82B0     		sub	sp, sp, #8
 378              		.cfi_def_cfa_offset 16
 379              		.loc 1 111 0
 380 0004 FFF7FEFF 		bl	comm_usb_serial_init
 381              	.LVL29:
 382              		.loc 1 112 0
 383 0008 0022     		movs	r2, #0
 384 000a 0D49     		ldr	r1, .L36
 385 000c 0D48     		ldr	r0, .L36+4
 386 000e FFF7FEFF 		bl	packet_init
 387              	.LVL30:
 388              		.loc 1 117 0
 389 0012 0024     		movs	r4, #0
 390              		.loc 1 114 0
 391 0014 0C48     		ldr	r0, .L36+8
 392 0016 FFF7FEFF 		bl	chMtxObjectInit
 393              	.LVL31:
 394              		.loc 1 117 0
 395 001a 0094     		str	r4, [sp]
 396 001c 0B4B     		ldr	r3, .L36+12
 397 001e 0C48     		ldr	r0, .L36+16
 398 0020 4022     		movs	r2, #64
 399 0022 4FF46671 		mov	r1, #920
ARM GAS  /tmp/cchfRUpo.s 			page 8


 400 0026 FFF7FEFF 		bl	chThdCreateStatic
 401              	.LVL32:
 402              		.loc 1 118 0
 403 002a 0094     		str	r4, [sp]
 404 002c 094B     		ldr	r3, .L36+20
 405 002e 0A48     		ldr	r0, .L36+24
 406 0030 4022     		movs	r2, #64
 407 0032 41F29811 		movw	r1, #4504
 408 0036 FFF7FEFF 		bl	chThdCreateStatic
 409              	.LVL33:
 410              		.loc 1 119 0
 411 003a 02B0     		add	sp, sp, #8
 412              		.cfi_def_cfa_offset 8
 413              		@ sp needed
 414 003c 10BD     		pop	{r4, pc}
 415              	.L37:
 416 003e 00BF     		.align	2
 417              	.L36:
 418 0040 00000000 		.word	process_packet
 419 0044 00000000 		.word	send_packet
 420 0048 00000000 		.word	.LANCHOR4
 421 004c 00000000 		.word	serial_read_thread
 422 0050 00000000 		.word	.LANCHOR5
 423 0054 00000000 		.word	serial_process_thread
 424 0058 00000000 		.word	serial_process_thread_wa
 425              		.cfi_endproc
 426              	.LFE261:
 427              		.size	comm_usb_init, .-comm_usb_init
 428              		.section	.bss.process_tp,"aw",%nobits
 429              		.align	2
 430              		.set	.LANCHOR0,. + 0
 431              		.type	process_tp, %object
 432              		.size	process_tp, 4
 433              	process_tp:
 434 0000 00000000 		.space	4
 435              		.section	.bss.send_mutex,"aw",%nobits
 436              		.align	2
 437              		.set	.LANCHOR4,. + 0
 438              		.type	send_mutex, %object
 439              		.size	send_mutex, 16
 440              	send_mutex:
 441 0000 00000000 		.space	16
 441      00000000 
 441      00000000 
 441      00000000 
 442              		.section	.bss.serial_process_thread_wa,"aw",%nobits
 443              		.align	3
 444              		.type	serial_process_thread_wa, %object
 445              		.size	serial_process_thread_wa, 4504
 446              	serial_process_thread_wa:
 447 0000 00000000 		.space	4504
 447      00000000 
 447      00000000 
 447      00000000 
 447      00000000 
 448              		.section	.bss.serial_read_thread_wa,"aw",%nobits
 449              		.align	3
ARM GAS  /tmp/cchfRUpo.s 			page 9


 450              		.set	.LANCHOR5,. + 0
 451              		.type	serial_read_thread_wa, %object
 452              		.size	serial_read_thread_wa, 920
 453              	serial_read_thread_wa:
 454 0000 00000000 		.space	920
 454      00000000 
 454      00000000 
 454      00000000 
 454      00000000 
 455              		.section	.bss.serial_rx_buffer,"aw",%nobits
 456              		.align	2
 457              		.set	.LANCHOR2,. + 0
 458              		.type	serial_rx_buffer, %object
 459              		.size	serial_rx_buffer, 2048
 460              	serial_rx_buffer:
 461 0000 00000000 		.space	2048
 461      00000000 
 461      00000000 
 461      00000000 
 461      00000000 
 462              		.section	.bss.serial_rx_read_pos,"aw",%nobits
 463              		.align	2
 464              		.set	.LANCHOR1,. + 0
 465              		.type	serial_rx_read_pos, %object
 466              		.size	serial_rx_read_pos, 4
 467              	serial_rx_read_pos:
 468 0000 00000000 		.space	4
 469              		.section	.bss.serial_rx_write_pos,"aw",%nobits
 470              		.align	2
 471              		.set	.LANCHOR3,. + 0
 472              		.type	serial_rx_write_pos, %object
 473              		.size	serial_rx_write_pos, 4
 474              	serial_rx_write_pos:
 475 0000 00000000 		.space	4
 476              		.section	.rodata.serial_process_thread.str1.4,"aMS",%progbits,1
 477              		.align	2
 478              	.LC0:
 479 0000 5553422D 		.ascii	"USB-Serial process\000"
 479      53657269 
 479      616C2070 
 479      726F6365 
 479      737300
 480              		.section	.rodata.serial_read_thread.str1.4,"aMS",%progbits,1
 481              		.align	2
 482              	.LC1:
 483 0000 5553422D 		.ascii	"USB-Serial read\000"
 483      53657269 
 483      616C2072 
 483      65616400 
 484              		.text
 485              	.Letext0:
 486              		.file 3 "/usr/lib/gcc/arm-none-eabi/7.3.1/include/stddef.h"
 487              		.file 4 "/usr/arm-none-eabi/include/machine/_default_types.h"
 488              		.file 5 "/usr/arm-none-eabi/include/sys/_stdint.h"
 489              		.file 6 "ChibiOS_3.0.2/os/rt/ports/ARMCMx/compilers/GCC/chtypes.h"
 490              		.file 7 "ChibiOS_3.0.2/os/rt/include/chsystypes.h"
 491              		.file 8 "ChibiOS_3.0.2/os/rt/include/chschd.h"
ARM GAS  /tmp/cchfRUpo.s 			page 10


 492              		.file 9 "ChibiOS_3.0.2/os/ext/CMSIS/include/core_cm4.h"
 493              		.file 10 "ChibiOS_3.0.2/os/ext/CMSIS/ST/system_stm32f4xx.h"
 494              		.file 11 "ChibiOS_3.0.2/os/ext/CMSIS/ST/stm32f407xx.h"
 495              		.file 12 "ChibiOS_3.0.2/os/rt/ports/ARMCMx/chcore.h"
 496              		.file 13 "ChibiOS_3.0.2/os/rt/ports/ARMCMx/chcore_v7m.h"
 497              		.file 14 "ChibiOS_3.0.2/os/rt/include/chtm.h"
 498              		.file 15 "ChibiOS_3.0.2/os/rt/include/chsem.h"
 499              		.file 16 "ChibiOS_3.0.2/os/rt/include/chmtx.h"
 500              		.file 17 "ChibiOS_3.0.2/os/rt/include/chevents.h"
 501              		.file 18 "ChibiOS_3.0.2/os/rt/include/chqueues.h"
 502              		.file 19 "./conf_general.h"
 503              		.file 20 "ChibiOS_3.0.2/os/hal/ports/STM32/STM32F4xx/stm32_dma.h"
 504              		.file 21 "ChibiOS_3.0.2/os/hal/ports/STM32/LLD/GPIOv2/pal_lld.h"
 505              		.file 22 "ChibiOS_3.0.2/os/hal/include/can.h"
 506              		.file 23 "ChibiOS_3.0.2/os/hal/ports/STM32/LLD/can_lld.h"
 507              		.file 24 "ChibiOS_3.0.2/os/hal/include/i2c.h"
 508              		.file 25 "ChibiOS_3.0.2/os/hal/ports/STM32/LLD/I2Cv1/i2c_lld.h"
 509              		.file 26 "ChibiOS_3.0.2/os/hal/include/icu.h"
 510              		.file 27 "ChibiOS_3.0.2/os/hal/ports/STM32/LLD/TIMv1/icu_lld.h"
 511              		.file 28 "ChibiOS_3.0.2/os/hal/ports/STM32/LLD/TIMv1/stm32_tim.h"
 512              		.file 29 "ChibiOS_3.0.2/os/hal/include/spi.h"
 513              		.file 30 "ChibiOS_3.0.2/os/hal/ports/STM32/LLD/SPIv1/spi_lld.h"
 514              		.file 31 "ChibiOS_3.0.2/os/hal/include/uart.h"
 515              		.file 32 "ChibiOS_3.0.2/os/hal/ports/STM32/LLD/USARTv1/uart_lld.h"
 516              		.file 33 "ChibiOS_3.0.2/os/hal/include/usb.h"
 517              		.file 34 "ChibiOS_3.0.2/os/hal/ports/STM32/LLD/OTGv1/usb_lld.h"
 518              		.file 35 "ChibiOS_3.0.2/os/hal/ports/STM32/LLD/OTGv1/stm32_otg.h"
 519              		.file 36 "ChibiOS_3.0.2/os/hal/include/serial_usb.h"
 520              		.file 37 "comm_usb_serial.h"
 521              		.file 38 "packet.h"
 522              		.file 39 "ChibiOS_3.0.2/os/rt/include/chthreads.h"
 523              		.file 40 "commands.h"