ARM GAS  /tmp/ccmLrqtN.s 			page 1


   1              		.cpu cortex-m4
   2              		.eabi_attribute 27, 1
   3              		.eabi_attribute 28, 1
   4              		.eabi_attribute 20, 1
   5              		.eabi_attribute 21, 1
   6              		.eabi_attribute 23, 3
   7              		.eabi_attribute 24, 1
   8              		.eabi_attribute 25, 1
   9              		.eabi_attribute 26, 1
  10              		.eabi_attribute 30, 2
  11              		.eabi_attribute 34, 1
  12              		.eabi_attribute 18, 4
  13              		.file	"eeprom.c"
  14              		.text
  15              	.Ltext0:
  16              		.cfi_sections	.debug_frame
  17              		.section	.text.EE_VerifyPageFullWriteVariable,"ax",%progbits
  18              		.align	1
  19              		.p2align 4,,15
  20              		.syntax unified
  21              		.thumb
  22              		.thumb_func
  23              		.fpu fpv4-sp-d16
  24              		.type	EE_VerifyPageFullWriteVariable, %function
  25              	EE_VerifyPageFullWriteVariable:
  26              	.LFB224:
  27              		.file 1 "eeprom.c"
  28              		.loc 1 465 0
  29              		.cfi_startproc
  30              		@ args = 0, pretend = 0, frame = 0
  31              		@ frame_needed = 0, uses_anonymous_args = 0
  32              	.LVL0:
  33 0000 38B5     		push	{r3, r4, r5, lr}
  34              		.cfi_def_cfa_offset 16
  35              		.cfi_offset 3, -16
  36              		.cfi_offset 4, -12
  37              		.cfi_offset 5, -8
  38              		.cfi_offset 14, -4
  39              	.LBB9:
  40              	.LBB10:
  41              		.loc 1 397 0
  42 0002 1B4A     		ldr	r2, .L19
  43              		.loc 1 400 0
  44 0004 1B4B     		ldr	r3, .L19+4
  45              		.loc 1 397 0
  46 0006 1288     		ldrh	r2, [r2]
  47              		.loc 1 400 0
  48 0008 1B88     		ldrh	r3, [r3]
  49 000a 9CB2     		uxth	r4, r3
  50              		.loc 1 397 0
  51 000c 92B2     		uxth	r2, r2
  52              	.LVL1:
  53              		.loc 1 406 0
  54 000e ECB9     		cbnz	r4, .L2
  55              		.loc 1 409 0
  56 0010 4EF6EE63 		movw	r3, #61166
  57              		.loc 1 411 0
ARM GAS  /tmp/ccmLrqtN.s 			page 2


  58 0014 D31A     		subs	r3, r2, r3
  59 0016 18BF     		it	ne
  60 0018 0123     		movne	r3, #1
  61              	.L3:
  62              	.LBE10:
  63              	.LBE9:
  64              		.loc 1 480 0
  65 001a 03F50054 		add	r4, r3, #8192
  66              	.LVL2:
  67              		.loc 1 483 0
  68 001e 164A     		ldr	r2, .L19+8
  69              	.LVL3:
  70              		.loc 1 480 0
  71 0020 0134     		adds	r4, r4, #1
  72              		.loc 1 483 0
  73 0022 0133     		adds	r3, r3, #1
  74              		.loc 1 480 0
  75 0024 A403     		lsls	r4, r4, #14
  76              	.LVL4:
  77              		.loc 1 483 0
  78 0026 02EB8332 		add	r2, r2, r3, lsl #14
  79              	.LVL5:
  80              		.loc 1 486 0
  81 002a 9442     		cmp	r4, r2
  82 002c 03D3     		bcc	.L8
  83 002e 15E0     		b	.L10
  84              	.L6:
  85              		.loc 1 506 0
  86 0030 0434     		adds	r4, r4, #4
  87              	.LVL6:
  88              		.loc 1 486 0
  89 0032 A242     		cmp	r2, r4
  90 0034 12D9     		bls	.L10
  91              	.L8:
  92              		.loc 1 489 0
  93 0036 2368     		ldr	r3, [r4]
  94 0038 0133     		adds	r3, r3, #1
  95 003a F9D1     		bne	.L6
  96 003c 0546     		mov	r5, r0
  97              		.loc 1 492 0
  98 003e 2046     		mov	r0, r4
  99              	.LVL7:
 100 0040 FFF7FEFF 		bl	FLASH_ProgramHalfWord
 101              	.LVL8:
 102              		.loc 1 494 0
 103 0044 0928     		cmp	r0, #9
 104 0046 0DD0     		beq	.L7
 105              	.LVL9:
 106              	.L17:
 107              		.loc 1 501 0
 108 0048 80B2     		uxth	r0, r0
 109              	.LVL10:
 110              		.loc 1 512 0
 111 004a 38BD     		pop	{r3, r4, r5, pc}
 112              	.LVL11:
 113              	.L2:
 114              	.LBB12:
ARM GAS  /tmp/ccmLrqtN.s 			page 3


 115              	.LBB11:
 116              		.loc 1 418 0
 117 004c 42B9     		cbnz	r2, .L9
 118              		.loc 1 421 0
 119 004e 4EF6EE63 		movw	r3, #61166
 120              		.loc 1 411 0
 121 0052 E31A     		subs	r3, r4, r3
 122 0054 B3FA83F3 		clz	r3, r3
 123 0058 5B09     		lsrs	r3, r3, #5
 124 005a DEE7     		b	.L3
 125              	.LVL12:
 126              	.L10:
 127              	.LBE11:
 128              	.LBE12:
 129              		.loc 1 511 0
 130 005c 8020     		movs	r0, #128
 131              	.LVL13:
 132              		.loc 1 512 0
 133 005e 38BD     		pop	{r3, r4, r5, pc}
 134              	.LVL14:
 135              	.L9:
 136              		.loc 1 476 0
 137 0060 AB20     		movs	r0, #171
 138              	.LVL15:
 139              		.loc 1 512 0
 140 0062 38BD     		pop	{r3, r4, r5, pc}
 141              	.LVL16:
 142              	.L7:
 143              		.loc 1 499 0
 144 0064 2946     		mov	r1, r5
 145 0066 A01C     		adds	r0, r4, #2
 146              	.LVL17:
 147 0068 FFF7FEFF 		bl	FLASH_ProgramHalfWord
 148              	.LVL18:
 149 006c ECE7     		b	.L17
 150              	.L20:
 151 006e 00BF     		.align	2
 152              	.L19:
 153 0070 00400008 		.word	134234112
 154 0074 00800008 		.word	134250496
 155 0078 FE3F0008 		.word	134234110
 156              		.cfi_endproc
 157              	.LFE224:
 158              		.size	EE_VerifyPageFullWriteVariable, .-EE_VerifyPageFullWriteVariable
 159              		.section	.text.EE_EraseSectorIfNotEmpty.constprop.1,"ax",%progbits
 160              		.align	1
 161              		.p2align 4,,15
 162              		.syntax unified
 163              		.thumb
 164              		.thumb_func
 165              		.fpu fpv4-sp-d16
 166              		.type	EE_EraseSectorIfNotEmpty.constprop.1, %function
 167              	EE_EraseSectorIfNotEmpty.constprop.1:
 168              	.LFB228:
 169              		.loc 1 618 0
 170              		.cfi_startproc
 171              		@ args = 0, pretend = 0, frame = 0
ARM GAS  /tmp/ccmLrqtN.s 			page 4


 172              		@ frame_needed = 0, uses_anonymous_args = 0
 173              	.LVL19:
 174 0000 10B5     		push	{r4, lr}
 175              		.cfi_def_cfa_offset 8
 176              		.cfi_offset 4, -8
 177              		.cfi_offset 14, -4
 178              		.loc 1 618 0
 179 0002 0446     		mov	r4, r0
 180              		.loc 1 619 0
 181 0004 FFF7FEFF 		bl	flash_helper_get_sector_address
 182              	.LVL20:
 183 0008 00F57F52 		add	r2, r0, #16320
 184 000c 3F32     		adds	r2, r2, #63
 185 000e 0138     		subs	r0, r0, #1
 186              	.LVL21:
 187 0010 01E0     		b	.L24
 188              	.LVL22:
 189              	.L22:
 190              	.LBB13:
 191              		.loc 1 621 0
 192 0012 9042     		cmp	r0, r2
 193 0014 09D0     		beq	.L27
 194              	.LVL23:
 195              	.L24:
 196              		.loc 1 622 0
 197 0016 10F8013F 		ldrb	r3, [r0, #1]!	@ zero_extendqisi2
 198              	.LVL24:
 199 001a FF2B     		cmp	r3, #255
 200 001c F9D0     		beq	.L22
 201              		.loc 1 623 0
 202 001e 2046     		mov	r0, r4
 203              	.LVL25:
 204 0020 0221     		movs	r1, #2
 205 0022 FFF7FEFF 		bl	FLASH_EraseSector
 206              	.LVL26:
 207 0026 80B2     		uxth	r0, r0
 208              	.LBE13:
 209              		.loc 1 628 0
 210 0028 10BD     		pop	{r4, pc}
 211              	.LVL27:
 212              	.L27:
 213              		.loc 1 627 0
 214 002a 0920     		movs	r0, #9
 215              	.LVL28:
 216              		.loc 1 628 0
 217 002c 10BD     		pop	{r4, pc}
 218              		.cfi_endproc
 219              	.LFE228:
 220              		.size	EE_EraseSectorIfNotEmpty.constprop.1, .-EE_EraseSectorIfNotEmpty.constprop.1
 221 002e 00BF     		.section	.text.EE_Format,"ax",%progbits
 222              		.align	1
 223              		.p2align 4,,15
 224              		.syntax unified
 225              		.thumb
 226              		.thumb_func
 227              		.fpu fpv4-sp-d16
 228              		.type	EE_Format, %function
ARM GAS  /tmp/ccmLrqtN.s 			page 5


 229              	EE_Format:
 230              	.LFB222:
 231              		.loc 1 355 0
 232              		.cfi_startproc
 233              		@ args = 0, pretend = 0, frame = 0
 234              		@ frame_needed = 0, uses_anonymous_args = 0
 235              	.LVL29:
 236 0000 08B5     		push	{r3, lr}
 237              		.cfi_def_cfa_offset 8
 238              		.cfi_offset 3, -8
 239              		.cfi_offset 14, -4
 240              		.loc 1 359 0
 241 0002 0820     		movs	r0, #8
 242 0004 FFF7FEFF 		bl	EE_EraseSectorIfNotEmpty.constprop.1
 243              	.LVL30:
 244 0008 C0B2     		uxtb	r0, r0
 245              	.LVL31:
 246              		.loc 1 362 0
 247 000a 0928     		cmp	r0, #9
 248 000c 00D0     		beq	.L31
 249              	.L29:
 250              		.loc 1 381 0
 251 000e 08BD     		pop	{r3, pc}
 252              	.L31:
 253              		.loc 1 368 0
 254 0010 0021     		movs	r1, #0
 255 0012 0548     		ldr	r0, .L32
 256              	.LVL32:
 257 0014 FFF7FEFF 		bl	FLASH_ProgramHalfWord
 258              	.LVL33:
 259              		.loc 1 371 0
 260 0018 0928     		cmp	r0, #9
 261 001a F8D1     		bne	.L29
 262              	.LBB16:
 263              		.loc 1 377 0
 264 001c 1020     		movs	r0, #16
 265              	.LVL34:
 266 001e FFF7FEFF 		bl	EE_EraseSectorIfNotEmpty.constprop.1
 267              	.LVL35:
 268 0022 C0B2     		uxtb	r0, r0
 269              	.LBE16:
 270              		.loc 1 381 0
 271 0024 08BD     		pop	{r3, pc}
 272              	.L33:
 273 0026 00BF     		.align	2
 274              	.L32:
 275 0028 00400008 		.word	134234112
 276              		.cfi_endproc
 277              	.LFE222:
 278              		.size	EE_Format, .-EE_Format
 279              		.section	.text.EE_ReadVariable,"ax",%progbits
 280              		.align	1
 281              		.p2align 4,,15
 282              		.global	EE_ReadVariable
 283              		.syntax unified
 284              		.thumb
 285              		.thumb_func
ARM GAS  /tmp/ccmLrqtN.s 			page 6


 286              		.fpu fpv4-sp-d16
 287              		.type	EE_ReadVariable, %function
 288              	EE_ReadVariable:
 289              	.LFB220:
 290              		.loc 1 272 0
 291              		.cfi_startproc
 292              		@ args = 0, pretend = 0, frame = 0
 293              		@ frame_needed = 0, uses_anonymous_args = 0
 294              		@ link register save eliminated.
 295              	.LVL36:
 296              	.LBB17:
 297              	.LBB18:
 298              		.loc 1 397 0
 299 0000 144B     		ldr	r3, .L46
 300              		.loc 1 400 0
 301 0002 154A     		ldr	r2, .L46+4
 302              		.loc 1 397 0
 303 0004 1B88     		ldrh	r3, [r3]
 304              		.loc 1 400 0
 305 0006 1288     		ldrh	r2, [r2]
 306              		.loc 1 397 0
 307 0008 9BB2     		uxth	r3, r3
 308              	.LVL37:
 309              	.LBE18:
 310              	.LBE17:
 311              		.loc 1 272 0
 312 000a 10B4     		push	{r4}
 313              		.cfi_def_cfa_offset 4
 314              		.cfi_offset 4, -4
 315              	.LBB20:
 316              	.LBB19:
 317              		.loc 1 436 0
 318 000c 2BB1     		cbz	r3, .L40
 319 000e 92B2     		uxth	r2, r2
 320              		.loc 1 440 0
 321 0010 DAB9     		cbnz	r2, .L45
 322 0012 124B     		ldr	r3, .L46+8
 323              	.LVL38:
 324 0014 124C     		ldr	r4, .L46+12
 325 0016 1A46     		mov	r2, r3
 326              	.LVL39:
 327 0018 02E0     		b	.L35
 328              	.LVL40:
 329              	.L40:
 330              		.loc 1 436 0
 331 001a 124B     		ldr	r3, .L46+16
 332              	.LVL41:
 333 001c 124C     		ldr	r4, .L46+20
 334 001e 1A46     		mov	r2, r3
 335              	.LVL42:
 336              	.L35:
 337              	.LBE19:
 338              	.LBE20:
 339              		.loc 1 296 0
 340 0020 1288     		ldrh	r2, [r2]
 341              	.LVL43:
 342              		.loc 1 299 0
ARM GAS  /tmp/ccmLrqtN.s 			page 7


 343 0022 9042     		cmp	r0, r2
 344 0024 03D1     		bne	.L37
 345 0026 09E0     		b	.L39
 346              	.LVL44:
 347              	.L38:
 348              		.loc 1 296 0
 349 0028 1A88     		ldrh	r2, [r3]
 350              	.LVL45:
 351              		.loc 1 299 0
 352 002a 9042     		cmp	r0, r2
 353 002c 06D0     		beq	.L39
 354              	.LVL46:
 355              	.L37:
 356              		.loc 1 312 0
 357 002e 043B     		subs	r3, r3, #4
 358              	.LVL47:
 359              		.loc 1 293 0
 360 0030 A342     		cmp	r3, r4
 361 0032 F9D8     		bhi	.L38
 362              		.loc 1 274 0
 363 0034 0120     		movs	r0, #1
 364              	.LVL48:
 365              		.loc 1 318 0
 366 0036 5DF8044B 		ldr	r4, [sp], #4
 367              		.cfi_remember_state
 368              		.cfi_restore 4
 369              		.cfi_def_cfa_offset 0
 370 003a 7047     		bx	lr
 371              	.LVL49:
 372              	.L39:
 373              		.cfi_restore_state
 374              		.loc 1 302 0
 375 003c 33F8023C 		ldrh	r3, [r3, #-2]
 376 0040 0B80     		strh	r3, [r1]	@ movhi
 377              	.LVL50:
 378              		.loc 1 305 0
 379 0042 0020     		movs	r0, #0
 380              	.LVL51:
 381              		.loc 1 318 0
 382 0044 5DF8044B 		ldr	r4, [sp], #4
 383              		.cfi_remember_state
 384              		.cfi_restore 4
 385              		.cfi_def_cfa_offset 0
 386 0048 7047     		bx	lr
 387              	.LVL52:
 388              	.L45:
 389              		.cfi_restore_state
 390              		.loc 1 283 0
 391 004a AB20     		movs	r0, #171
 392              	.LVL53:
 393              		.loc 1 318 0
 394 004c 5DF8044B 		ldr	r4, [sp], #4
 395              		.cfi_restore 4
 396              		.cfi_def_cfa_offset 0
 397 0050 7047     		bx	lr
 398              	.L47:
 399 0052 00BF     		.align	2
ARM GAS  /tmp/ccmLrqtN.s 			page 8


 400              	.L46:
 401 0054 00400008 		.word	134234112
 402 0058 00800008 		.word	134250496
 403 005c FEBF0008 		.word	134266878
 404 0060 02800008 		.word	134250498
 405 0064 FE7F0008 		.word	134250494
 406 0068 02400008 		.word	134234114
 407              		.cfi_endproc
 408              	.LFE220:
 409              		.size	EE_ReadVariable, .-EE_ReadVariable
 410              		.section	.text.EE_Init,"ax",%progbits
 411              		.align	1
 412              		.p2align 4,,15
 413              		.global	EE_Init
 414              		.syntax unified
 415              		.thumb
 416              		.thumb_func
 417              		.fpu fpv4-sp-d16
 418              		.type	EE_Init, %function
 419              	EE_Init:
 420              	.LFB219:
 421              		.loc 1 57 0
 422              		.cfi_startproc
 423              		@ args = 0, pretend = 0, frame = 0
 424              		@ frame_needed = 0, uses_anonymous_args = 0
 425              	.LVL54:
 426 0000 2DE9F041 		push	{r4, r5, r6, r7, r8, lr}
 427              		.cfi_def_cfa_offset 24
 428              		.cfi_offset 4, -24
 429              		.cfi_offset 5, -20
 430              		.cfi_offset 6, -16
 431              		.cfi_offset 7, -12
 432              		.cfi_offset 8, -8
 433              		.cfi_offset 14, -4
 434              		.loc 1 65 0
 435 0004 484D     		ldr	r5, .L86
 436              		.loc 1 67 0
 437 0006 494E     		ldr	r6, .L86+4
 438              		.loc 1 65 0
 439 0008 2C88     		ldrh	r4, [r5]
 440              		.loc 1 67 0
 441 000a 3388     		ldrh	r3, [r6]
 442              		.loc 1 65 0
 443 000c A4B2     		uxth	r4, r4
 444              	.LVL55:
 445              		.loc 1 70 0
 446 000e 4EF6EE62 		movw	r2, #61166
 447 0012 9442     		cmp	r4, r2
 448              		.loc 1 67 0
 449 0014 9BB2     		uxth	r3, r3
 450              	.LVL56:
 451              		.loc 1 70 0
 452 0016 49D0     		beq	.L50
 453 0018 4FF6FF71 		movw	r1, #65535
 454 001c 8C42     		cmp	r4, r1
 455 001e 36D0     		beq	.L51
 456 0020 24B1     		cbz	r4, .L85
ARM GAS  /tmp/ccmLrqtN.s 			page 9


 457              	.L79:
 458              		.loc 1 249 0
 459 0022 FFF7FEFF 		bl	EE_Format
 460              	.LVL57:
 461 0026 80B2     		uxth	r0, r0
 462              	.LVL58:
 463              	.L55:
 464              		.loc 1 259 0
 465 0028 BDE8F081 		pop	{r4, r5, r6, r7, r8, pc}
 466              	.LVL59:
 467              	.L85:
 468              		.loc 1 184 0
 469 002c 002B     		cmp	r3, #0
 470 002e F8D0     		beq	.L79
 471              		.loc 1 194 0
 472 0030 8B42     		cmp	r3, r1
 473 0032 64D0     		beq	.L84
 474 0034 3E4D     		ldr	r5, .L86+8
 475              		.loc 1 209 0
 476 0036 3F4F     		ldr	r7, .L86+12
 477              		.loc 1 216 0
 478 0038 DFF8FC80 		ldr	r8, .L86+16
 479              		.loc 1 61 0
 480 003c 4FF0FF36 		mov	r6, #-1
 481              	.LVL60:
 482              	.L65:
 483              		.loc 1 209 0
 484 0040 35F8023B 		ldrh	r3, [r5], #2
 485 0044 3A88     		ldrh	r2, [r7]
 486              		.loc 1 216 0
 487 0046 3C49     		ldr	r1, .L86+16
 488              		.loc 1 209 0
 489 0048 9342     		cmp	r3, r2
 490              		.loc 1 211 0
 491 004a 08BF     		it	eq
 492 004c 26B2     		sxtheq	r6, r4
 493              	.LVL61:
 494              		.loc 1 213 0
 495 004e B442     		cmp	r4, r6
 496              		.loc 1 216 0
 497 0050 1846     		mov	r0, r3
 498 0052 04F10104 		add	r4, r4, #1
 499              	.LVL62:
 500              		.loc 1 213 0
 501 0056 0BD0     		beq	.L67
 502              		.loc 1 216 0
 503 0058 FFF7FEFF 		bl	EE_ReadVariable
 504              	.LVL63:
 505              		.loc 1 218 0
 506 005c 0128     		cmp	r0, #1
 507 005e 07D0     		beq	.L67
 508              		.loc 1 221 0
 509 0060 B8F80010 		ldrh	r1, [r8]
 510 0064 35F8020C 		ldrh	r0, [r5, #-2]
 511              	.LVL64:
 512 0068 FFF7FEFF 		bl	EE_VerifyPageFullWriteVariable
 513              	.LVL65:
ARM GAS  /tmp/ccmLrqtN.s 			page 10


 514              		.loc 1 223 0
 515 006c 0928     		cmp	r0, #9
 516 006e DBD1     		bne	.L55
 517              	.LVL66:
 518              	.L67:
 519              		.loc 1 207 0
 520 0070 B4F5937F 		cmp	r4, #294
 521 0074 E4D1     		bne	.L65
 522              		.loc 1 231 0
 523 0076 0021     		movs	r1, #0
 524 0078 2C48     		ldr	r0, .L86+4
 525 007a FFF7FEFF 		bl	FLASH_ProgramHalfWord
 526              	.LVL67:
 527 007e 80B2     		uxth	r0, r0
 528              	.LVL68:
 529              		.loc 1 233 0
 530 0080 0928     		cmp	r0, #9
 531 0082 D1D1     		bne	.L55
 532              	.LVL69:
 533              	.L83:
 534              		.loc 1 238 0
 535 0084 0820     		movs	r0, #8
 536              		.loc 1 259 0
 537 0086 BDE8F041 		pop	{r4, r5, r6, r7, r8, lr}
 538              		.cfi_remember_state
 539              		.cfi_restore 14
 540              		.cfi_restore 8
 541              		.cfi_restore 7
 542              		.cfi_restore 6
 543              		.cfi_restore 5
 544              		.cfi_restore 4
 545              		.cfi_def_cfa_offset 0
 546              		.loc 1 238 0
 547 008a FFF7FEBF 		b	EE_EraseSectorIfNotEmpty.constprop.1
 548              	.LVL70:
 549              	.L51:
 550              		.cfi_restore_state
 551              		.loc 1 73 0
 552 008e 002B     		cmp	r3, #0
 553 0090 F8D0     		beq	.L83
 554              		.loc 1 83 0
 555 0092 9342     		cmp	r3, r2
 556 0094 C5D1     		bne	.L79
 557              		.loc 1 86 0
 558 0096 0820     		movs	r0, #8
 559 0098 FFF7FEFF 		bl	EE_EraseSectorIfNotEmpty.constprop.1
 560              	.LVL71:
 561              		.loc 1 88 0
 562 009c 0928     		cmp	r0, #9
 563 009e C3D1     		bne	.L55
 564              		.loc 1 93 0
 565 00a0 3046     		mov	r0, r6
 566              	.LVL72:
 567 00a2 0021     		movs	r1, #0
 568 00a4 FFF7FEFF 		bl	FLASH_ProgramHalfWord
 569              	.LVL73:
 570 00a8 80B2     		uxth	r0, r0
ARM GAS  /tmp/ccmLrqtN.s 			page 11


 571              	.LVL74:
 572 00aa BDE7     		b	.L55
 573              	.LVL75:
 574              	.L50:
 575              		.loc 1 113 0
 576 00ac 63BB     		cbnz	r3, .L56
 577 00ae 204D     		ldr	r5, .L86+8
 578              		.loc 1 118 0
 579 00b0 224E     		ldr	r6, .L86+20
 580              		.loc 1 125 0
 581 00b2 214F     		ldr	r7, .L86+16
 582              		.loc 1 113 0
 583 00b4 1C46     		mov	r4, r3
 584              	.LVL76:
 585              		.loc 1 61 0
 586 00b6 4FF0FF38 		mov	r8, #-1
 587              	.LVL77:
 588              	.L59:
 589              		.loc 1 118 0
 590 00ba 35F8023B 		ldrh	r3, [r5], #2
 591 00be 3288     		ldrh	r2, [r6]
 592              		.loc 1 125 0
 593 00c0 1D49     		ldr	r1, .L86+16
 594              		.loc 1 118 0
 595 00c2 9342     		cmp	r3, r2
 596              		.loc 1 120 0
 597 00c4 08BF     		it	eq
 598 00c6 0FFA84F8 		sxtheq	r8, r4
 599              	.LVL78:
 600              		.loc 1 122 0
 601 00ca 4445     		cmp	r4, r8
 602              		.loc 1 125 0
 603 00cc 1846     		mov	r0, r3
 604 00ce 04F10104 		add	r4, r4, #1
 605              	.LVL79:
 606              		.loc 1 122 0
 607 00d2 0AD0     		beq	.L61
 608              		.loc 1 125 0
 609 00d4 FFF7FEFF 		bl	EE_ReadVariable
 610              	.LVL80:
 611              		.loc 1 127 0
 612 00d8 0128     		cmp	r0, #1
 613 00da 06D0     		beq	.L61
 614              		.loc 1 130 0
 615 00dc 3988     		ldrh	r1, [r7]
 616 00de 35F8020C 		ldrh	r0, [r5, #-2]
 617              	.LVL81:
 618 00e2 FFF7FEFF 		bl	EE_VerifyPageFullWriteVariable
 619              	.LVL82:
 620              		.loc 1 132 0
 621 00e6 0928     		cmp	r0, #9
 622 00e8 9ED1     		bne	.L55
 623              	.LVL83:
 624              	.L61:
 625              		.loc 1 116 0
 626 00ea B4F5937F 		cmp	r4, #294
 627 00ee E4D1     		bne	.L59
ARM GAS  /tmp/ccmLrqtN.s 			page 12


 628              		.loc 1 140 0
 629 00f0 0021     		movs	r1, #0
 630 00f2 0D48     		ldr	r0, .L86
 631 00f4 FFF7FEFF 		bl	FLASH_ProgramHalfWord
 632              	.LVL84:
 633 00f8 80B2     		uxth	r0, r0
 634              	.LVL85:
 635              		.loc 1 142 0
 636 00fa 0928     		cmp	r0, #9
 637 00fc 94D1     		bne	.L55
 638              	.LVL86:
 639              	.L84:
 640              		.loc 1 197 0
 641 00fe 1020     		movs	r0, #16
 642              		.loc 1 259 0
 643 0100 BDE8F041 		pop	{r4, r5, r6, r7, r8, lr}
 644              		.cfi_remember_state
 645              		.cfi_restore 14
 646              		.cfi_restore 8
 647              		.cfi_restore 7
 648              		.cfi_restore 6
 649              		.cfi_restore 5
 650              		.cfi_restore 4
 651              		.cfi_def_cfa_offset 0
 652              		.loc 1 197 0
 653 0104 FFF7FEBF 		b	EE_EraseSectorIfNotEmpty.constprop.1
 654              	.LVL87:
 655              	.L56:
 656              		.cfi_restore_state
 657              		.loc 1 154 0
 658 0108 4FF6FF72 		movw	r2, #65535
 659 010c 9342     		cmp	r3, r2
 660 010e 88D1     		bne	.L79
 661              		.loc 1 157 0
 662 0110 1020     		movs	r0, #16
 663 0112 FFF7FEFF 		bl	EE_EraseSectorIfNotEmpty.constprop.1
 664              	.LVL88:
 665              		.loc 1 159 0
 666 0116 0928     		cmp	r0, #9
 667 0118 86D1     		bne	.L55
 668              		.loc 1 164 0
 669 011a 2846     		mov	r0, r5
 670              	.LVL89:
 671 011c 0021     		movs	r1, #0
 672 011e FFF7FEFF 		bl	FLASH_ProgramHalfWord
 673              	.LVL90:
 674 0122 80B2     		uxth	r0, r0
 675              	.LVL91:
 676 0124 80E7     		b	.L55
 677              	.L87:
 678 0126 00BF     		.align	2
 679              	.L86:
 680 0128 00400008 		.word	134234112
 681 012c 00800008 		.word	134250496
 682 0130 00000000 		.word	VirtAddVarTab
 683 0134 06800008 		.word	134250502
 684 0138 00000000 		.word	.LANCHOR0
ARM GAS  /tmp/ccmLrqtN.s 			page 13


 685 013c 06400008 		.word	134234118
 686              		.cfi_endproc
 687              	.LFE219:
 688              		.size	EE_Init, .-EE_Init
 689              		.section	.text.EE_WriteVariable,"ax",%progbits
 690              		.align	1
 691              		.p2align 4,,15
 692              		.global	EE_WriteVariable
 693              		.syntax unified
 694              		.thumb
 695              		.thumb_func
 696              		.fpu fpv4-sp-d16
 697              		.type	EE_WriteVariable, %function
 698              	EE_WriteVariable:
 699              	.LFB221:
 700              		.loc 1 331 0
 701              		.cfi_startproc
 702              		@ args = 0, pretend = 0, frame = 0
 703              		@ frame_needed = 0, uses_anonymous_args = 0
 704              	.LVL92:
 705 0000 2DE9F047 		push	{r4, r5, r6, r7, r8, r9, r10, lr}
 706              		.cfi_def_cfa_offset 32
 707              		.cfi_offset 4, -32
 708              		.cfi_offset 5, -28
 709              		.cfi_offset 6, -24
 710              		.cfi_offset 7, -20
 711              		.cfi_offset 8, -16
 712              		.cfi_offset 9, -12
 713              		.cfi_offset 10, -8
 714              		.cfi_offset 14, -4
 715              		.loc 1 331 0
 716 0004 0646     		mov	r6, r0
 717 0006 0D46     		mov	r5, r1
 718              		.loc 1 335 0
 719 0008 FFF7FEFF 		bl	EE_VerifyPageFullWriteVariable
 720              	.LVL93:
 721              		.loc 1 338 0
 722 000c 8028     		cmp	r0, #128
 723              		.loc 1 335 0
 724 000e 0446     		mov	r4, r0
 725              	.LVL94:
 726              		.loc 1 338 0
 727 0010 02D0     		beq	.L110
 728              	.LVL95:
 729              	.L89:
 730              		.loc 1 346 0
 731 0012 2046     		mov	r0, r4
 732 0014 BDE8F087 		pop	{r4, r5, r6, r7, r8, r9, r10, pc}
 733              	.LVL96:
 734              	.L110:
 735              	.LBB25:
 736              	.LBB26:
 737              	.LBB27:
 738              	.LBB28:
 739              		.loc 1 397 0
 740 0018 2549     		ldr	r1, .L112
 741              		.loc 1 400 0
ARM GAS  /tmp/ccmLrqtN.s 			page 14


 742 001a 264F     		ldr	r7, .L112+4
 743              		.loc 1 397 0
 744 001c 0B88     		ldrh	r3, [r1]
 745              		.loc 1 400 0
 746 001e 3A88     		ldrh	r2, [r7]
 747              		.loc 1 397 0
 748 0020 9BB2     		uxth	r3, r3
 749              	.LVL97:
 750              		.loc 1 400 0
 751 0022 92B2     		uxth	r2, r2
 752              	.LVL98:
 753              		.loc 1 436 0
 754 0024 73B1     		cbz	r3, .L97
 755              		.loc 1 440 0
 756 0026 82B9     		cbnz	r2, .L98
 757              	.LBE28:
 758              	.LBE27:
 759              		.loc 1 539 0
 760 0028 0F46     		mov	r7, r1
 761              		.loc 1 542 0
 762 002a 4FF01008 		mov	r8, #16
 763              	.L90:
 764              	.LVL99:
 765              		.loc 1 558 0
 766 002e 4EF6EE61 		movw	r1, #61166
 767 0032 3846     		mov	r0, r7
 768              	.LVL100:
 769 0034 FFF7FEFF 		bl	FLASH_ProgramHalfWord
 770              	.LVL101:
 771              		.loc 1 560 0
 772 0038 0928     		cmp	r0, #9
 773 003a 08D0     		beq	.L91
 774              	.LVL102:
 775              	.L109:
 776              		.loc 1 607 0
 777 003c 84B2     		uxth	r4, r0
 778              	.LVL103:
 779              	.LBE26:
 780              	.LBE25:
 781              		.loc 1 346 0
 782 003e 2046     		mov	r0, r4
 783 0040 BDE8F087 		pop	{r4, r5, r6, r7, r8, r9, r10, pc}
 784              	.LVL104:
 785              	.L97:
 786              	.LBB30:
 787              	.LBB29:
 788              		.loc 1 550 0
 789 0044 4FF00808 		mov	r8, #8
 790 0048 F1E7     		b	.L90
 791              	.L98:
 792              		.loc 1 554 0
 793 004a AB24     		movs	r4, #171
 794 004c E1E7     		b	.L89
 795              	.LVL105:
 796              	.L91:
 797              		.loc 1 566 0
 798 004e 2946     		mov	r1, r5
ARM GAS  /tmp/ccmLrqtN.s 			page 15


 799 0050 3046     		mov	r0, r6
 800              	.LVL106:
 801 0052 FFF7FEFF 		bl	EE_VerifyPageFullWriteVariable
 802              	.LVL107:
 803              		.loc 1 568 0
 804 0056 0928     		cmp	r0, #9
 805              		.loc 1 566 0
 806 0058 0446     		mov	r4, r0
 807              	.LVL108:
 808              		.loc 1 568 0
 809 005a DAD1     		bne	.L89
 810 005c 164D     		ldr	r5, .L112+8
 811              	.LVL109:
 812              		.loc 1 579 0
 813 005e DFF85CA0 		ldr	r10, .L112+12
 814 0062 05F51379 		add	r9, r5, #588
 815 0066 01E0     		b	.L93
 816              	.LVL110:
 817              	.L95:
 818              		.loc 1 574 0
 819 0068 4D45     		cmp	r5, r9
 820 006a 13D0     		beq	.L111
 821              	.L93:
 822              		.loc 1 576 0
 823 006c 35F8023B 		ldrh	r3, [r5], #2
 824              		.loc 1 579 0
 825 0070 1249     		ldr	r1, .L112+12
 826              		.loc 1 576 0
 827 0072 9E42     		cmp	r6, r3
 828              		.loc 1 579 0
 829 0074 1846     		mov	r0, r3
 830              		.loc 1 576 0
 831 0076 F7D0     		beq	.L95
 832              		.loc 1 579 0
 833 0078 FFF7FEFF 		bl	EE_ReadVariable
 834              	.LVL111:
 835              		.loc 1 581 0
 836 007c 0128     		cmp	r0, #1
 837 007e F3D0     		beq	.L95
 838              		.loc 1 584 0
 839 0080 BAF80010 		ldrh	r1, [r10]
 840 0084 35F8020C 		ldrh	r0, [r5, #-2]
 841              	.LVL112:
 842 0088 FFF7FEFF 		bl	EE_VerifyPageFullWriteVariable
 843              	.LVL113:
 844              		.loc 1 586 0
 845 008c 0928     		cmp	r0, #9
 846 008e EBD0     		beq	.L95
 847 0090 0446     		mov	r4, r0
 848 0092 BEE7     		b	.L89
 849              	.LVL114:
 850              	.L111:
 851              		.loc 1 595 0
 852 0094 4046     		mov	r0, r8
 853 0096 FFF7FEFF 		bl	EE_EraseSectorIfNotEmpty.constprop.1
 854              	.LVL115:
 855              		.loc 1 597 0
ARM GAS  /tmp/ccmLrqtN.s 			page 16


 856 009a C0B2     		uxtb	r0, r0
 857 009c 0928     		cmp	r0, #9
 858 009e CDD1     		bne	.L109
 859              		.loc 1 603 0
 860 00a0 3846     		mov	r0, r7
 861              	.LVL116:
 862 00a2 0021     		movs	r1, #0
 863 00a4 FFF7FEFF 		bl	FLASH_ProgramHalfWord
 864              	.LVL117:
 865              		.loc 1 605 0
 866 00a8 0928     		cmp	r0, #9
 867 00aa C7D1     		bne	.L109
 868 00ac B1E7     		b	.L89
 869              	.L113:
 870 00ae 00BF     		.align	2
 871              	.L112:
 872 00b0 00400008 		.word	134234112
 873 00b4 00800008 		.word	134250496
 874 00b8 00000000 		.word	VirtAddVarTab
 875 00bc 00000000 		.word	.LANCHOR0
 876              	.LBE29:
 877              	.LBE30:
 878              		.cfi_endproc
 879              	.LFE221:
 880              		.size	EE_WriteVariable, .-EE_WriteVariable
 881              		.global	DataVar
 882              		.section	.bss.DataVar,"aw",%nobits
 883              		.align	1
 884              		.set	.LANCHOR0,. + 0
 885              		.type	DataVar, %object
 886              		.size	DataVar, 2
 887              	DataVar:
 888 0000 0000     		.space	2
 889              		.text
 890              	.Letext0:
 891              		.file 2 "/usr/arm-none-eabi/include/machine/_default_types.h"
 892              		.file 3 "/usr/arm-none-eabi/include/sys/_stdint.h"
 893              		.file 4 "ChibiOS_3.0.2/os/ext/CMSIS/include/core_cm4.h"
 894              		.file 5 "ChibiOS_3.0.2/os/ext/CMSIS/ST/system_stm32f4xx.h"
 895              		.file 6 "ChibiOS_3.0.2/ext/stdperiph_stm32f4/inc/stm32f4xx_flash.h"
 896              		.file 7 "/usr/lib/gcc/arm-none-eabi/7.3.1/include/stddef.h"
 897              		.file 8 "ChibiOS_3.0.2/os/rt/ports/ARMCMx/compilers/GCC/chtypes.h"
 898              		.file 9 "ChibiOS_3.0.2/os/rt/include/chsystypes.h"
 899              		.file 10 "ChibiOS_3.0.2/os/rt/include/chschd.h"
 900              		.file 11 "ChibiOS_3.0.2/os/rt/ports/ARMCMx/chcore.h"
 901              		.file 12 "ChibiOS_3.0.2/os/rt/ports/ARMCMx/chcore_v7m.h"
 902              		.file 13 "ChibiOS_3.0.2/os/rt/include/chtm.h"
 903              		.file 14 "ChibiOS_3.0.2/os/rt/include/chsem.h"
 904              		.file 15 "ChibiOS_3.0.2/os/rt/include/chmtx.h"
 905              		.file 16 "ChibiOS_3.0.2/os/rt/include/chregistry.h"
 906              		.file 17 "conf_general.h"
 907              		.file 18 "flash_helper.h"
 908              		.section	.debug_info,"",%progbits
 909              	.Ldebug_info0:
 910 0000 8C0F0000 		.4byte	0xf8c
 911 0004 0400     		.2byte	0x4
 912 0006 00000000 		.4byte	.Ldebug_abbrev0
ARM GAS  /tmp/ccmLrqtN.s 			page 17


 913 000a 04       		.byte	0x4
 914 000b 01       		.uleb128 0x1
 915 000c 4F000000 		.4byte	.LASF175
 916 0010 0C       		.byte	0xc
 917 0011 48020000 		.4byte	.LASF176
 918 0015 D6060000 		.4byte	.LASF177
 919 0019 48000000 		.4byte	.Ldebug_ranges0+0x48
 920 001d 00000000 		.4byte	0
 921 0021 00000000 		.4byte	.Ldebug_line0
 922 0025 02       		.uleb128 0x2
 923 0026 01       		.byte	0x1
 924 0027 06       		.byte	0x6
 925 0028 3C020000 		.4byte	.LASF0
 926 002c 03       		.uleb128 0x3
 927 002d 2A000000 		.4byte	.LASF2
 928 0031 02       		.byte	0x2
 929 0032 2B       		.byte	0x2b
 930 0033 37000000 		.4byte	0x37
 931 0037 02       		.uleb128 0x2
 932 0038 01       		.byte	0x1
 933 0039 08       		.byte	0x8
 934 003a 13060000 		.4byte	.LASF1
 935 003e 03       		.uleb128 0x3
 936 003f 2C030000 		.4byte	.LASF3
 937 0043 02       		.byte	0x2
 938 0044 37       		.byte	0x37
 939 0045 49000000 		.4byte	0x49
 940 0049 02       		.uleb128 0x2
 941 004a 02       		.byte	0x2
 942 004b 05       		.byte	0x5
 943 004c 42060000 		.4byte	.LASF4
 944 0050 03       		.uleb128 0x3
 945 0051 9D070000 		.4byte	.LASF5
 946 0055 02       		.byte	0x2
 947 0056 39       		.byte	0x39
 948 0057 5B000000 		.4byte	0x5b
 949 005b 02       		.uleb128 0x2
 950 005c 02       		.byte	0x2
 951 005d 07       		.byte	0x7
 952 005e D7030000 		.4byte	.LASF6
 953 0062 03       		.uleb128 0x3
 954 0063 85040000 		.4byte	.LASF7
 955 0067 02       		.byte	0x2
 956 0068 4D       		.byte	0x4d
 957 0069 6D000000 		.4byte	0x6d
 958 006d 02       		.uleb128 0x2
 959 006e 04       		.byte	0x4
 960 006f 05       		.byte	0x5
 961 0070 D0020000 		.4byte	.LASF8
 962 0074 03       		.uleb128 0x3
 963 0075 D6070000 		.4byte	.LASF9
 964 0079 02       		.byte	0x2
 965 007a 4F       		.byte	0x4f
 966 007b 7F000000 		.4byte	0x7f
 967 007f 02       		.uleb128 0x2
 968 0080 04       		.byte	0x4
 969 0081 07       		.byte	0x7
ARM GAS  /tmp/ccmLrqtN.s 			page 18


 970 0082 4F070000 		.4byte	.LASF10
 971 0086 02       		.uleb128 0x2
 972 0087 08       		.byte	0x8
 973 0088 05       		.byte	0x5
 974 0089 2E020000 		.4byte	.LASF11
 975 008d 03       		.uleb128 0x3
 976 008e 9B050000 		.4byte	.LASF12
 977 0092 02       		.byte	0x2
 978 0093 69       		.byte	0x69
 979 0094 98000000 		.4byte	0x98
 980 0098 02       		.uleb128 0x2
 981 0099 08       		.byte	0x8
 982 009a 07       		.byte	0x7
 983 009b 73010000 		.4byte	.LASF13
 984 009f 04       		.uleb128 0x4
 985 00a0 04       		.byte	0x4
 986 00a1 05       		.byte	0x5
 987 00a2 696E7400 		.ascii	"int\000"
 988 00a6 02       		.uleb128 0x2
 989 00a7 04       		.byte	0x4
 990 00a8 07       		.byte	0x7
 991 00a9 5A030000 		.4byte	.LASF14
 992 00ad 03       		.uleb128 0x3
 993 00ae 83080000 		.4byte	.LASF15
 994 00b2 03       		.byte	0x3
 995 00b3 18       		.byte	0x18
 996 00b4 2C000000 		.4byte	0x2c
 997 00b8 03       		.uleb128 0x3
 998 00b9 0E090000 		.4byte	.LASF16
 999 00bd 03       		.byte	0x3
 1000 00be 20       		.byte	0x20
 1001 00bf 3E000000 		.4byte	0x3e
 1002 00c3 03       		.uleb128 0x3
 1003 00c4 6F030000 		.4byte	.LASF17
 1004 00c8 03       		.byte	0x3
 1005 00c9 24       		.byte	0x24
 1006 00ca 50000000 		.4byte	0x50
 1007 00ce 03       		.uleb128 0x3
 1008 00cf 0B060000 		.4byte	.LASF18
 1009 00d3 03       		.byte	0x3
 1010 00d4 2C       		.byte	0x2c
 1011 00d5 62000000 		.4byte	0x62
 1012 00d9 05       		.uleb128 0x5
 1013 00da CE000000 		.4byte	0xce
 1014 00de 03       		.uleb128 0x3
 1015 00df 51080000 		.4byte	.LASF19
 1016 00e3 03       		.byte	0x3
 1017 00e4 30       		.byte	0x30
 1018 00e5 74000000 		.4byte	0x74
 1019 00e9 03       		.uleb128 0x3
 1020 00ea 21000000 		.4byte	.LASF20
 1021 00ee 03       		.byte	0x3
 1022 00ef 3C       		.byte	0x3c
 1023 00f0 8D000000 		.4byte	0x8d
 1024 00f4 06       		.uleb128 0x6
 1025 00f5 E6010000 		.4byte	.LASF21
 1026 00f9 04       		.byte	0x4
ARM GAS  /tmp/ccmLrqtN.s 			page 19


 1027 00fa A706     		.2byte	0x6a7
 1028 00fc D9000000 		.4byte	0xd9
 1029 0100 07       		.uleb128 0x7
 1030 0101 78030000 		.4byte	.LASF22
 1031 0105 05       		.byte	0x5
 1032 0106 4C       		.byte	0x4c
 1033 0107 DE000000 		.4byte	0xde
 1034 010b 08       		.uleb128 0x8
 1035 010c 07       		.byte	0x7
 1036 010d 01       		.byte	0x1
 1037 010e 37000000 		.4byte	0x37
 1038 0112 06       		.byte	0x6
 1039 0113 35       		.byte	0x35
 1040 0114 4F010000 		.4byte	0x14f
 1041 0118 09       		.uleb128 0x9
 1042 0119 7E020000 		.4byte	.LASF23
 1043 011d 01       		.byte	0x1
 1044 011e 09       		.uleb128 0x9
 1045 011f 42080000 		.4byte	.LASF24
 1046 0123 02       		.byte	0x2
 1047 0124 09       		.uleb128 0x9
 1048 0125 8D070000 		.4byte	.LASF25
 1049 0129 03       		.byte	0x3
 1050 012a 09       		.uleb128 0x9
 1051 012b 70070000 		.4byte	.LASF26
 1052 012f 04       		.byte	0x4
 1053 0130 09       		.uleb128 0x9
 1054 0131 0D070000 		.4byte	.LASF27
 1055 0135 05       		.byte	0x5
 1056 0136 09       		.uleb128 0x9
 1057 0137 E8080000 		.4byte	.LASF28
 1058 013b 06       		.byte	0x6
 1059 013c 09       		.uleb128 0x9
 1060 013d 87050000 		.4byte	.LASF29
 1061 0141 07       		.byte	0x7
 1062 0142 09       		.uleb128 0x9
 1063 0143 18020000 		.4byte	.LASF30
 1064 0147 08       		.byte	0x8
 1065 0148 09       		.uleb128 0x9
 1066 0149 FF080000 		.4byte	.LASF31
 1067 014d 09       		.byte	0x9
 1068 014e 00       		.byte	0
 1069 014f 03       		.uleb128 0x3
 1070 0150 06030000 		.4byte	.LASF32
 1071 0154 06       		.byte	0x6
 1072 0155 3F       		.byte	0x3f
 1073 0156 0B010000 		.4byte	0x10b
 1074 015a 03       		.uleb128 0x3
 1075 015b 36030000 		.4byte	.LASF33
 1076 015f 07       		.byte	0x7
 1077 0160 D8       		.byte	0xd8
 1078 0161 A6000000 		.4byte	0xa6
 1079 0165 03       		.uleb128 0x3
 1080 0166 08050000 		.4byte	.LASF34
 1081 016a 08       		.byte	0x8
 1082 016b 45       		.byte	0x45
 1083 016c DE000000 		.4byte	0xde
ARM GAS  /tmp/ccmLrqtN.s 			page 20


 1084 0170 03       		.uleb128 0x3
 1085 0171 89060000 		.4byte	.LASF35
 1086 0175 08       		.byte	0x8
 1087 0176 48       		.byte	0x48
 1088 0177 AD000000 		.4byte	0xad
 1089 017b 03       		.uleb128 0x3
 1090 017c E3020000 		.4byte	.LASF36
 1091 0180 08       		.byte	0x8
 1092 0181 49       		.byte	0x49
 1093 0182 AD000000 		.4byte	0xad
 1094 0186 03       		.uleb128 0x3
 1095 0187 AC050000 		.4byte	.LASF37
 1096 018b 08       		.byte	0x8
 1097 018c 4A       		.byte	0x4a
 1098 018d AD000000 		.4byte	0xad
 1099 0191 03       		.uleb128 0x3
 1100 0192 A9020000 		.4byte	.LASF38
 1101 0196 08       		.byte	0x8
 1102 0197 4B       		.byte	0x4b
 1103 0198 AD000000 		.4byte	0xad
 1104 019c 03       		.uleb128 0x3
 1105 019d E3050000 		.4byte	.LASF39
 1106 01a1 08       		.byte	0x8
 1107 01a2 4C       		.byte	0x4c
 1108 01a3 DE000000 		.4byte	0xde
 1109 01a7 03       		.uleb128 0x3
 1110 01a8 15040000 		.4byte	.LASF40
 1111 01ac 08       		.byte	0x8
 1112 01ad 4D       		.byte	0x4d
 1113 01ae CE000000 		.4byte	0xce
 1114 01b2 03       		.uleb128 0x3
 1115 01b3 79040000 		.4byte	.LASF41
 1116 01b7 08       		.byte	0x8
 1117 01b8 4F       		.byte	0x4f
 1118 01b9 DE000000 		.4byte	0xde
 1119 01bd 03       		.uleb128 0x3
 1120 01be 54030000 		.4byte	.LASF42
 1121 01c2 08       		.byte	0x8
 1122 01c3 51       		.byte	0x51
 1123 01c4 CE000000 		.4byte	0xce
 1124 01c8 03       		.uleb128 0x3
 1125 01c9 B8070000 		.4byte	.LASF43
 1126 01cd 09       		.byte	0x9
 1127 01ce 33       		.byte	0x33
 1128 01cf DE000000 		.4byte	0xde
 1129 01d3 05       		.uleb128 0x5
 1130 01d4 C8010000 		.4byte	0x1c8
 1131 01d8 03       		.uleb128 0x3
 1132 01d9 A8070000 		.4byte	.LASF44
 1133 01dd 09       		.byte	0x9
 1134 01de 3F       		.byte	0x3f
 1135 01df E3010000 		.4byte	0x1e3
 1136 01e3 0A       		.uleb128 0xa
 1137 01e4 0B040000 		.4byte	.LASF66
 1138 01e8 48       		.byte	0x48
 1139 01e9 0A       		.byte	0xa
 1140 01ea C2       		.byte	0xc2
ARM GAS  /tmp/ccmLrqtN.s 			page 21


 1141 01eb E8020000 		.4byte	0x2e8
 1142 01ef 0B       		.uleb128 0xb
 1143 01f0 82060000 		.4byte	.LASF45
 1144 01f4 0A       		.byte	0xa
 1145 01f5 C3       		.byte	0xc3
 1146 01f6 F3020000 		.4byte	0x2f3
 1147 01fa 00       		.byte	0
 1148 01fb 0B       		.uleb128 0xb
 1149 01fc DC050000 		.4byte	.LASF46
 1150 0200 0A       		.byte	0xa
 1151 0201 C5       		.byte	0xc5
 1152 0202 F3020000 		.4byte	0x2f3
 1153 0206 04       		.byte	0x4
 1154 0207 0B       		.uleb128 0xb
 1155 0208 04020000 		.4byte	.LASF47
 1156 020c 0A       		.byte	0xa
 1157 020d C7       		.byte	0xc7
 1158 020e 9C010000 		.4byte	0x19c
 1159 0212 08       		.byte	0x8
 1160 0213 0B       		.uleb128 0xb
 1161 0214 5E050000 		.4byte	.LASF48
 1162 0218 0A       		.byte	0xa
 1163 0219 C8       		.byte	0xc8
 1164 021a 1C050000 		.4byte	0x51c
 1165 021e 0C       		.byte	0xc
 1166 021f 0B       		.uleb128 0xb
 1167 0220 F6020000 		.4byte	.LASF49
 1168 0224 0A       		.byte	0xa
 1169 0225 CA       		.byte	0xca
 1170 0226 F3020000 		.4byte	0x2f3
 1171 022a 10       		.byte	0x10
 1172 022b 0B       		.uleb128 0xb
 1173 022c 50050000 		.4byte	.LASF50
 1174 0230 0A       		.byte	0xa
 1175 0231 CB       		.byte	0xcb
 1176 0232 F3020000 		.4byte	0x2f3
 1177 0236 14       		.byte	0x14
 1178 0237 0B       		.uleb128 0xb
 1179 0238 D6080000 		.4byte	.LASF51
 1180 023c 0A       		.byte	0xa
 1181 023d D2       		.byte	0xd2
 1182 023e 61070000 		.4byte	0x761
 1183 0242 18       		.byte	0x18
 1184 0243 0B       		.uleb128 0xb
 1185 0244 4C060000 		.4byte	.LASF52
 1186 0248 0A       		.byte	0xa
 1187 0249 DD       		.byte	0xdd
 1188 024a 7B010000 		.4byte	0x17b
 1189 024e 1C       		.byte	0x1c
 1190 024f 0B       		.uleb128 0xb
 1191 0250 A0060000 		.4byte	.LASF53
 1192 0254 0A       		.byte	0xa
 1193 0255 E1       		.byte	0xe1
 1194 0256 70010000 		.4byte	0x170
 1195 025a 1D       		.byte	0x1d
 1196 025b 0B       		.uleb128 0xb
 1197 025c 6E080000 		.4byte	.LASF54
ARM GAS  /tmp/ccmLrqtN.s 			page 22


 1198 0260 0A       		.byte	0xa
 1199 0261 E6       		.byte	0xe6
 1200 0262 86010000 		.4byte	0x186
 1201 0266 1E       		.byte	0x1e
 1202 0267 0B       		.uleb128 0xb
 1203 0268 66060000 		.4byte	.LASF55
 1204 026c 0A       		.byte	0xa
 1205 026d EC       		.byte	0xec
 1206 026e 91010000 		.4byte	0x191
 1207 0272 1F       		.byte	0x1f
 1208 0273 0B       		.uleb128 0xb
 1209 0274 88030000 		.4byte	.LASF56
 1210 0278 0A       		.byte	0xa
 1211 0279 F3       		.byte	0xf3
 1212 027a D3010000 		.4byte	0x1d3
 1213 027e 20       		.byte	0x20
 1214 027f 0C       		.uleb128 0xc
 1215 0280 705F7500 		.ascii	"p_u\000"
 1216 0284 0A       		.byte	0xa
 1217 0285 3101     		.2byte	0x131
 1218 0287 9C060000 		.4byte	0x69c
 1219 028b 24       		.byte	0x24
 1220 028c 0D       		.uleb128 0xd
 1221 028d EF040000 		.4byte	.LASF57
 1222 0291 0A       		.byte	0xa
 1223 0292 3601     		.2byte	0x136
 1224 0294 F9020000 		.4byte	0x2f9
 1225 0298 28       		.byte	0x28
 1226 0299 0D       		.uleb128 0xd
 1227 029a AF030000 		.4byte	.LASF58
 1228 029e 0A       		.byte	0xa
 1229 029f 3C01     		.2byte	0x13c
 1230 02a1 1D030000 		.4byte	0x31d
 1231 02a5 2C       		.byte	0x2c
 1232 02a6 0D       		.uleb128 0xd
 1233 02a7 0F080000 		.4byte	.LASF59
 1234 02ab 0A       		.byte	0xa
 1235 02ac 4001     		.2byte	0x140
 1236 02ae A7010000 		.4byte	0x1a7
 1237 02b2 34       		.byte	0x34
 1238 02b3 0D       		.uleb128 0xd
 1239 02b4 02070000 		.4byte	.LASF60
 1240 02b8 0A       		.byte	0xa
 1241 02b9 4601     		.2byte	0x146
 1242 02bb B2010000 		.4byte	0x1b2
 1243 02bf 38       		.byte	0x38
 1244 02c0 0D       		.uleb128 0xd
 1245 02c1 38060000 		.4byte	.LASF61
 1246 02c5 0A       		.byte	0xa
 1247 02c6 4D01     		.2byte	0x14d
 1248 02c8 5B070000 		.4byte	0x75b
 1249 02cc 3C       		.byte	0x3c
 1250 02cd 0D       		.uleb128 0xd
 1251 02ce C2070000 		.4byte	.LASF62
 1252 02d2 0A       		.byte	0xa
 1253 02d3 5101     		.2byte	0x151
 1254 02d5 9C010000 		.4byte	0x19c
ARM GAS  /tmp/ccmLrqtN.s 			page 23


 1255 02d9 40       		.byte	0x40
 1256 02da 0D       		.uleb128 0xd
 1257 02db 6E020000 		.4byte	.LASF63
 1258 02df 0A       		.byte	0xa
 1259 02e0 5801     		.2byte	0x158
 1260 02e2 D0030000 		.4byte	0x3d0
 1261 02e6 44       		.byte	0x44
 1262 02e7 00       		.byte	0
 1263 02e8 03       		.uleb128 0x3
 1264 02e9 AF080000 		.4byte	.LASF64
 1265 02ed 09       		.byte	0x9
 1266 02ee 44       		.byte	0x44
 1267 02ef F3020000 		.4byte	0x2f3
 1268 02f3 0E       		.uleb128 0xe
 1269 02f4 04       		.byte	0x4
 1270 02f5 D8010000 		.4byte	0x1d8
 1271 02f9 03       		.uleb128 0x3
 1272 02fa A5040000 		.4byte	.LASF65
 1273 02fe 09       		.byte	0x9
 1274 02ff 49       		.byte	0x49
 1275 0300 04030000 		.4byte	0x304
 1276 0304 0A       		.uleb128 0xa
 1277 0305 31070000 		.4byte	.LASF67
 1278 0309 04       		.byte	0x4
 1279 030a 0A       		.byte	0xa
 1280 030b B0       		.byte	0xb0
 1281 030c 1D030000 		.4byte	0x31d
 1282 0310 0B       		.uleb128 0xb
 1283 0311 82060000 		.4byte	.LASF45
 1284 0315 0A       		.byte	0xa
 1285 0316 B1       		.byte	0xb1
 1286 0317 F3020000 		.4byte	0x2f3
 1287 031b 00       		.byte	0
 1288 031c 00       		.byte	0
 1289 031d 03       		.uleb128 0x3
 1290 031e B5060000 		.4byte	.LASF68
 1291 0322 09       		.byte	0x9
 1292 0323 50       		.byte	0x50
 1293 0324 28030000 		.4byte	0x328
 1294 0328 0A       		.uleb128 0xa
 1295 0329 F3010000 		.4byte	.LASF69
 1296 032d 08       		.byte	0x8
 1297 032e 0A       		.byte	0xa
 1298 032f B7       		.byte	0xb7
 1299 0330 4D030000 		.4byte	0x34d
 1300 0334 0B       		.uleb128 0xb
 1301 0335 82060000 		.4byte	.LASF45
 1302 0339 0A       		.byte	0xa
 1303 033a B8       		.byte	0xb8
 1304 033b F3020000 		.4byte	0x2f3
 1305 033f 00       		.byte	0
 1306 0340 0B       		.uleb128 0xb
 1307 0341 DC050000 		.4byte	.LASF46
 1308 0345 0A       		.byte	0xa
 1309 0346 B9       		.byte	0xb9
 1310 0347 F3020000 		.4byte	0x2f3
 1311 034b 04       		.byte	0x4
ARM GAS  /tmp/ccmLrqtN.s 			page 24


 1312 034c 00       		.byte	0
 1313 034d 03       		.uleb128 0x3
 1314 034e 0D000000 		.4byte	.LASF70
 1315 0352 09       		.byte	0x9
 1316 0353 57       		.byte	0x57
 1317 0354 58030000 		.4byte	0x358
 1318 0358 0F       		.uleb128 0xf
 1319 0359 C3030000 		.4byte	.LASF71
 1320 035d 1C       		.byte	0x1c
 1321 035e 0A       		.byte	0xa
 1322 035f 9001     		.2byte	0x190
 1323 0361 B4030000 		.4byte	0x3b4
 1324 0365 0D       		.uleb128 0xd
 1325 0366 29070000 		.4byte	.LASF72
 1326 036a 0A       		.byte	0xa
 1327 036b 9101     		.2byte	0x191
 1328 036d 1D030000 		.4byte	0x31d
 1329 0371 00       		.byte	0
 1330 0372 0D       		.uleb128 0xd
 1331 0373 E8040000 		.4byte	.LASF73
 1332 0377 0A       		.byte	0xa
 1333 0378 9201     		.2byte	0x192
 1334 037a 9C010000 		.4byte	0x19c
 1335 037e 08       		.byte	0x8
 1336 037f 0D       		.uleb128 0xd
 1337 0380 58050000 		.4byte	.LASF74
 1338 0384 0A       		.byte	0xa
 1339 0385 9401     		.2byte	0x194
 1340 0387 1C050000 		.4byte	0x51c
 1341 038b 0C       		.byte	0xc
 1342 038c 0D       		.uleb128 0xd
 1343 038d 13030000 		.4byte	.LASF75
 1344 0391 0A       		.byte	0xa
 1345 0392 9701     		.2byte	0x197
 1346 0394 F3020000 		.4byte	0x2f3
 1347 0398 10       		.byte	0x10
 1348 0399 0D       		.uleb128 0xd
 1349 039a 7F050000 		.4byte	.LASF76
 1350 039e 0A       		.byte	0xa
 1351 039f 9801     		.2byte	0x198
 1352 03a1 F3020000 		.4byte	0x2f3
 1353 03a5 14       		.byte	0x14
 1354 03a6 0D       		.uleb128 0xd
 1355 03a7 75050000 		.4byte	.LASF77
 1356 03ab 0A       		.byte	0xa
 1357 03ac 9B01     		.2byte	0x19b
 1358 03ae F3020000 		.4byte	0x2f3
 1359 03b2 18       		.byte	0x18
 1360 03b3 00       		.byte	0
 1361 03b4 03       		.uleb128 0x3
 1362 03b5 CD070000 		.4byte	.LASF78
 1363 03b9 09       		.byte	0x9
 1364 03ba 5C       		.byte	0x5c
 1365 03bb BF030000 		.4byte	0x3bf
 1366 03bf 0E       		.uleb128 0xe
 1367 03c0 04       		.byte	0x4
 1368 03c1 C5030000 		.4byte	0x3c5
ARM GAS  /tmp/ccmLrqtN.s 			page 25


 1369 03c5 10       		.uleb128 0x10
 1370 03c6 D0030000 		.4byte	0x3d0
 1371 03ca 11       		.uleb128 0x11
 1372 03cb D0030000 		.4byte	0x3d0
 1373 03cf 00       		.byte	0
 1374 03d0 12       		.uleb128 0x12
 1375 03d1 04       		.byte	0x4
 1376 03d2 03       		.uleb128 0x3
 1377 03d3 CC050000 		.4byte	.LASF79
 1378 03d7 09       		.byte	0x9
 1379 03d8 61       		.byte	0x61
 1380 03d9 DD030000 		.4byte	0x3dd
 1381 03dd 0F       		.uleb128 0xf
 1382 03de C5060000 		.4byte	.LASF80
 1383 03e2 14       		.byte	0x14
 1384 03e3 0A       		.byte	0xa
 1385 03e4 6B01     		.2byte	0x16b
 1386 03e6 2C040000 		.4byte	0x42c
 1387 03ea 0D       		.uleb128 0xd
 1388 03eb 67030000 		.4byte	.LASF81
 1389 03ef 0A       		.byte	0xa
 1390 03f0 6C01     		.2byte	0x16c
 1391 03f2 78070000 		.4byte	0x778
 1392 03f6 00       		.byte	0
 1393 03f7 0D       		.uleb128 0xd
 1394 03f8 24030000 		.4byte	.LASF82
 1395 03fc 0A       		.byte	0xa
 1396 03fd 6D01     		.2byte	0x16d
 1397 03ff 78070000 		.4byte	0x778
 1398 0403 04       		.byte	0x4
 1399 0404 0D       		.uleb128 0xd
 1400 0405 96030000 		.4byte	.LASF83
 1401 0409 0A       		.byte	0xa
 1402 040a 6E01     		.2byte	0x16e
 1403 040c C8010000 		.4byte	0x1c8
 1404 0410 08       		.byte	0x8
 1405 0411 0D       		.uleb128 0xd
 1406 0412 2C090000 		.4byte	.LASF84
 1407 0416 0A       		.byte	0xa
 1408 0417 6F01     		.2byte	0x16f
 1409 0419 B4030000 		.4byte	0x3b4
 1410 041d 0C       		.byte	0xc
 1411 041e 0D       		.uleb128 0xd
 1412 041f 3B080000 		.4byte	.LASF85
 1413 0423 0A       		.byte	0xa
 1414 0424 7101     		.2byte	0x171
 1415 0426 D0030000 		.4byte	0x3d0
 1416 042a 10       		.byte	0x10
 1417 042b 00       		.byte	0
 1418 042c 03       		.uleb128 0x3
 1419 042d C4010000 		.4byte	.LASF86
 1420 0431 09       		.byte	0x9
 1421 0432 66       		.byte	0x66
 1422 0433 37040000 		.4byte	0x437
 1423 0437 0F       		.uleb128 0xf
 1424 0438 10050000 		.4byte	.LASF87
 1425 043c 10       		.byte	0x10
ARM GAS  /tmp/ccmLrqtN.s 			page 26


 1426 043d 0A       		.byte	0xa
 1427 043e 7B01     		.2byte	0x17b
 1428 0440 79040000 		.4byte	0x479
 1429 0444 0D       		.uleb128 0xd
 1430 0445 67030000 		.4byte	.LASF81
 1431 0449 0A       		.byte	0xa
 1432 044a 7C01     		.2byte	0x17c
 1433 044c 78070000 		.4byte	0x778
 1434 0450 00       		.byte	0
 1435 0451 0D       		.uleb128 0xd
 1436 0452 24030000 		.4byte	.LASF82
 1437 0456 0A       		.byte	0xa
 1438 0457 7E01     		.2byte	0x17e
 1439 0459 78070000 		.4byte	0x778
 1440 045d 04       		.byte	0x4
 1441 045e 0D       		.uleb128 0xd
 1442 045f 96030000 		.4byte	.LASF83
 1443 0463 0A       		.byte	0xa
 1444 0464 8001     		.2byte	0x180
 1445 0466 C8010000 		.4byte	0x1c8
 1446 046a 08       		.byte	0x8
 1447 046b 0D       		.uleb128 0xd
 1448 046c DD080000 		.4byte	.LASF88
 1449 0470 0A       		.byte	0xa
 1450 0471 8201     		.2byte	0x182
 1451 0473 D3010000 		.4byte	0x1d3
 1452 0477 0C       		.byte	0xc
 1453 0478 00       		.byte	0
 1454 0479 03       		.uleb128 0x3
 1455 047a 40000000 		.4byte	.LASF89
 1456 047e 09       		.byte	0x9
 1457 047f 6B       		.byte	0x6b
 1458 0480 84040000 		.4byte	0x484
 1459 0484 0F       		.uleb128 0xf
 1460 0485 F0050000 		.4byte	.LASF90
 1461 0489 04       		.byte	0x4
 1462 048a 0A       		.byte	0xa
 1463 048b A201     		.2byte	0x1a2
 1464 048d 9F040000 		.4byte	0x49f
 1465 0491 0D       		.uleb128 0xd
 1466 0492 E8070000 		.4byte	.LASF91
 1467 0496 0A       		.byte	0xa
 1468 0497 AA01     		.2byte	0x1aa
 1469 0499 67070000 		.4byte	0x767
 1470 049d 00       		.byte	0
 1471 049e 00       		.byte	0
 1472 049f 03       		.uleb128 0x3
 1473 04a0 36040000 		.4byte	.LASF92
 1474 04a4 09       		.byte	0x9
 1475 04a5 70       		.byte	0x70
 1476 04a6 AA040000 		.4byte	0x4aa
 1477 04aa 13       		.uleb128 0x13
 1478 04ab C6020000 		.4byte	.LASF93
 1479 04af 5802     		.2byte	0x258
 1480 04b1 0A       		.byte	0xa
 1481 04b2 C201     		.2byte	0x1c2
 1482 04b4 06050000 		.4byte	0x506
ARM GAS  /tmp/ccmLrqtN.s 			page 27


 1483 04b8 0D       		.uleb128 0xd
 1484 04b9 7D080000 		.4byte	.LASF94
 1485 04bd 0A       		.byte	0xa
 1486 04be C601     		.2byte	0x1c6
 1487 04c0 4D030000 		.4byte	0x34d
 1488 04c4 00       		.byte	0
 1489 04c5 0D       		.uleb128 0xd
 1490 04c6 A2020000 		.4byte	.LASF95
 1491 04ca 0A       		.byte	0xa
 1492 04cb CA01     		.2byte	0x1ca
 1493 04cd 2C040000 		.4byte	0x42c
 1494 04d1 1C       		.byte	0x1c
 1495 04d2 0C       		.uleb128 0xc
 1496 04d3 64626700 		.ascii	"dbg\000"
 1497 04d7 0A       		.byte	0xa
 1498 04d8 CE01     		.2byte	0x1ce
 1499 04da 79040000 		.4byte	0x479
 1500 04de 2C       		.byte	0x2c
 1501 04df 0D       		.uleb128 0xd
 1502 04e0 B2010000 		.4byte	.LASF96
 1503 04e4 0A       		.byte	0xa
 1504 04e5 D201     		.2byte	0x1d2
 1505 04e7 D8010000 		.4byte	0x1d8
 1506 04eb 30       		.byte	0x30
 1507 04ec 0C       		.uleb128 0xc
 1508 04ed 746D00   		.ascii	"tm\000"
 1509 04f0 0A       		.byte	0xa
 1510 04f1 D701     		.2byte	0x1d7
 1511 04f3 91060000 		.4byte	0x691
 1512 04f7 78       		.byte	0x78
 1513 04f8 0D       		.uleb128 0xd
 1514 04f9 45030000 		.4byte	.LASF97
 1515 04fd 0A       		.byte	0xa
 1516 04fe E301     		.2byte	0x1e3
 1517 0500 7E070000 		.4byte	0x77e
 1518 0504 80       		.byte	0x80
 1519 0505 00       		.byte	0
 1520 0506 03       		.uleb128 0x3
 1521 0507 1B030000 		.4byte	.LASF98
 1522 050b 0B       		.byte	0xb
 1523 050c 65       		.byte	0x65
 1524 050d D0030000 		.4byte	0x3d0
 1525 0511 03       		.uleb128 0x3
 1526 0512 9A040000 		.4byte	.LASF99
 1527 0516 0B       		.byte	0xb
 1528 0517 6D       		.byte	0x6d
 1529 0518 E9000000 		.4byte	0xe9
 1530 051c 0A       		.uleb128 0xa
 1531 051d F9070000 		.4byte	.LASF100
 1532 0521 04       		.byte	0x4
 1533 0522 0B       		.byte	0xb
 1534 0523 89       		.byte	0x89
 1535 0524 35050000 		.4byte	0x535
 1536 0528 14       		.uleb128 0x14
 1537 0529 72313300 		.ascii	"r13\000"
 1538 052d 0B       		.byte	0xb
 1539 052e 8A       		.byte	0x8a
ARM GAS  /tmp/ccmLrqtN.s 			page 28


 1540 052f 76060000 		.4byte	0x676
 1541 0533 00       		.byte	0
 1542 0534 00       		.byte	0
 1543 0535 0A       		.uleb128 0xa
 1544 0536 34000000 		.4byte	.LASF101
 1545 053a 64       		.byte	0x64
 1546 053b 0C       		.byte	0xc
 1547 053c F4       		.byte	0xf4
 1548 053d 76060000 		.4byte	0x676
 1549 0541 14       		.uleb128 0x14
 1550 0542 73313600 		.ascii	"s16\000"
 1551 0546 0C       		.byte	0xc
 1552 0547 F6       		.byte	0xf6
 1553 0548 06050000 		.4byte	0x506
 1554 054c 00       		.byte	0
 1555 054d 14       		.uleb128 0x14
 1556 054e 73313700 		.ascii	"s17\000"
 1557 0552 0C       		.byte	0xc
 1558 0553 F7       		.byte	0xf7
 1559 0554 06050000 		.4byte	0x506
 1560 0558 04       		.byte	0x4
 1561 0559 14       		.uleb128 0x14
 1562 055a 73313800 		.ascii	"s18\000"
 1563 055e 0C       		.byte	0xc
 1564 055f F8       		.byte	0xf8
 1565 0560 06050000 		.4byte	0x506
 1566 0564 08       		.byte	0x8
 1567 0565 14       		.uleb128 0x14
 1568 0566 73313900 		.ascii	"s19\000"
 1569 056a 0C       		.byte	0xc
 1570 056b F9       		.byte	0xf9
 1571 056c 06050000 		.4byte	0x506
 1572 0570 0C       		.byte	0xc
 1573 0571 14       		.uleb128 0x14
 1574 0572 73323000 		.ascii	"s20\000"
 1575 0576 0C       		.byte	0xc
 1576 0577 FA       		.byte	0xfa
 1577 0578 06050000 		.4byte	0x506
 1578 057c 10       		.byte	0x10
 1579 057d 14       		.uleb128 0x14
 1580 057e 73323100 		.ascii	"s21\000"
 1581 0582 0C       		.byte	0xc
 1582 0583 FB       		.byte	0xfb
 1583 0584 06050000 		.4byte	0x506
 1584 0588 14       		.byte	0x14
 1585 0589 14       		.uleb128 0x14
 1586 058a 73323200 		.ascii	"s22\000"
 1587 058e 0C       		.byte	0xc
 1588 058f FC       		.byte	0xfc
 1589 0590 06050000 		.4byte	0x506
 1590 0594 18       		.byte	0x18
 1591 0595 14       		.uleb128 0x14
 1592 0596 73323300 		.ascii	"s23\000"
 1593 059a 0C       		.byte	0xc
 1594 059b FD       		.byte	0xfd
 1595 059c 06050000 		.4byte	0x506
 1596 05a0 1C       		.byte	0x1c
ARM GAS  /tmp/ccmLrqtN.s 			page 29


 1597 05a1 14       		.uleb128 0x14
 1598 05a2 73323400 		.ascii	"s24\000"
 1599 05a6 0C       		.byte	0xc
 1600 05a7 FE       		.byte	0xfe
 1601 05a8 06050000 		.4byte	0x506
 1602 05ac 20       		.byte	0x20
 1603 05ad 14       		.uleb128 0x14
 1604 05ae 73323500 		.ascii	"s25\000"
 1605 05b2 0C       		.byte	0xc
 1606 05b3 FF       		.byte	0xff
 1607 05b4 06050000 		.4byte	0x506
 1608 05b8 24       		.byte	0x24
 1609 05b9 0C       		.uleb128 0xc
 1610 05ba 73323600 		.ascii	"s26\000"
 1611 05be 0C       		.byte	0xc
 1612 05bf 0001     		.2byte	0x100
 1613 05c1 06050000 		.4byte	0x506
 1614 05c5 28       		.byte	0x28
 1615 05c6 0C       		.uleb128 0xc
 1616 05c7 73323700 		.ascii	"s27\000"
 1617 05cb 0C       		.byte	0xc
 1618 05cc 0101     		.2byte	0x101
 1619 05ce 06050000 		.4byte	0x506
 1620 05d2 2C       		.byte	0x2c
 1621 05d3 0C       		.uleb128 0xc
 1622 05d4 73323800 		.ascii	"s28\000"
 1623 05d8 0C       		.byte	0xc
 1624 05d9 0201     		.2byte	0x102
 1625 05db 06050000 		.4byte	0x506
 1626 05df 30       		.byte	0x30
 1627 05e0 0C       		.uleb128 0xc
 1628 05e1 73323900 		.ascii	"s29\000"
 1629 05e5 0C       		.byte	0xc
 1630 05e6 0301     		.2byte	0x103
 1631 05e8 06050000 		.4byte	0x506
 1632 05ec 34       		.byte	0x34
 1633 05ed 0C       		.uleb128 0xc
 1634 05ee 73333000 		.ascii	"s30\000"
 1635 05f2 0C       		.byte	0xc
 1636 05f3 0401     		.2byte	0x104
 1637 05f5 06050000 		.4byte	0x506
 1638 05f9 38       		.byte	0x38
 1639 05fa 0C       		.uleb128 0xc
 1640 05fb 73333100 		.ascii	"s31\000"
 1641 05ff 0C       		.byte	0xc
 1642 0600 0501     		.2byte	0x105
 1643 0602 06050000 		.4byte	0x506
 1644 0606 3C       		.byte	0x3c
 1645 0607 0C       		.uleb128 0xc
 1646 0608 723400   		.ascii	"r4\000"
 1647 060b 0C       		.byte	0xc
 1648 060c 0701     		.2byte	0x107
 1649 060e 06050000 		.4byte	0x506
 1650 0612 40       		.byte	0x40
 1651 0613 0C       		.uleb128 0xc
 1652 0614 723500   		.ascii	"r5\000"
 1653 0617 0C       		.byte	0xc
ARM GAS  /tmp/ccmLrqtN.s 			page 30


 1654 0618 0801     		.2byte	0x108
 1655 061a 06050000 		.4byte	0x506
 1656 061e 44       		.byte	0x44
 1657 061f 0C       		.uleb128 0xc
 1658 0620 723600   		.ascii	"r6\000"
 1659 0623 0C       		.byte	0xc
 1660 0624 0901     		.2byte	0x109
 1661 0626 06050000 		.4byte	0x506
 1662 062a 48       		.byte	0x48
 1663 062b 0C       		.uleb128 0xc
 1664 062c 723700   		.ascii	"r7\000"
 1665 062f 0C       		.byte	0xc
 1666 0630 0A01     		.2byte	0x10a
 1667 0632 06050000 		.4byte	0x506
 1668 0636 4C       		.byte	0x4c
 1669 0637 0C       		.uleb128 0xc
 1670 0638 723800   		.ascii	"r8\000"
 1671 063b 0C       		.byte	0xc
 1672 063c 0B01     		.2byte	0x10b
 1673 063e 06050000 		.4byte	0x506
 1674 0642 50       		.byte	0x50
 1675 0643 0C       		.uleb128 0xc
 1676 0644 723900   		.ascii	"r9\000"
 1677 0647 0C       		.byte	0xc
 1678 0648 0C01     		.2byte	0x10c
 1679 064a 06050000 		.4byte	0x506
 1680 064e 54       		.byte	0x54
 1681 064f 0C       		.uleb128 0xc
 1682 0650 72313000 		.ascii	"r10\000"
 1683 0654 0C       		.byte	0xc
 1684 0655 0D01     		.2byte	0x10d
 1685 0657 06050000 		.4byte	0x506
 1686 065b 58       		.byte	0x58
 1687 065c 0C       		.uleb128 0xc
 1688 065d 72313100 		.ascii	"r11\000"
 1689 0661 0C       		.byte	0xc
 1690 0662 0E01     		.2byte	0x10e
 1691 0664 06050000 		.4byte	0x506
 1692 0668 5C       		.byte	0x5c
 1693 0669 0C       		.uleb128 0xc
 1694 066a 6C7200   		.ascii	"lr\000"
 1695 066d 0C       		.byte	0xc
 1696 066e 0F01     		.2byte	0x10f
 1697 0670 06050000 		.4byte	0x506
 1698 0674 60       		.byte	0x60
 1699 0675 00       		.byte	0
 1700 0676 0E       		.uleb128 0xe
 1701 0677 04       		.byte	0x4
 1702 0678 35050000 		.4byte	0x535
 1703 067c 15       		.uleb128 0x15
 1704 067d 04       		.byte	0x4
 1705 067e 0D       		.byte	0xd
 1706 067f 38       		.byte	0x38
 1707 0680 91060000 		.4byte	0x691
 1708 0684 0B       		.uleb128 0xb
 1709 0685 F2070000 		.4byte	.LASF102
 1710 0689 0D       		.byte	0xd
ARM GAS  /tmp/ccmLrqtN.s 			page 31


 1711 068a 3C       		.byte	0x3c
 1712 068b 65010000 		.4byte	0x165
 1713 068f 00       		.byte	0
 1714 0690 00       		.byte	0
 1715 0691 03       		.uleb128 0x3
 1716 0692 64050000 		.4byte	.LASF103
 1717 0696 0D       		.byte	0xd
 1718 0697 3D       		.byte	0x3d
 1719 0698 7C060000 		.4byte	0x67c
 1720 069c 16       		.uleb128 0x16
 1721 069d 04       		.byte	0x4
 1722 069e 0A       		.byte	0xa
 1723 069f FA       		.byte	0xfa
 1724 06a0 F9060000 		.4byte	0x6f9
 1725 06a4 17       		.uleb128 0x17
 1726 06a5 1A000000 		.4byte	.LASF104
 1727 06a9 0A       		.byte	0xa
 1728 06aa 0101     		.2byte	0x101
 1729 06ac A7010000 		.4byte	0x1a7
 1730 06b0 17       		.uleb128 0x17
 1731 06b1 A9010000 		.4byte	.LASF105
 1732 06b5 0A       		.byte	0xa
 1733 06b6 0801     		.2byte	0x108
 1734 06b8 A7010000 		.4byte	0x1a7
 1735 06bc 17       		.uleb128 0x17
 1736 06bd C2080000 		.4byte	.LASF106
 1737 06c1 0A       		.byte	0xa
 1738 06c2 0F01     		.2byte	0x10f
 1739 06c4 D0030000 		.4byte	0x3d0
 1740 06c8 17       		.uleb128 0x17
 1741 06c9 C0020000 		.4byte	.LASF107
 1742 06cd 0A       		.byte	0xa
 1743 06ce 1601     		.2byte	0x116
 1744 06d0 F9060000 		.4byte	0x6f9
 1745 06d4 17       		.uleb128 0x17
 1746 06d5 8F030000 		.4byte	.LASF108
 1747 06d9 0A       		.byte	0xa
 1748 06da 1E01     		.2byte	0x11e
 1749 06dc 24070000 		.4byte	0x724
 1750 06e0 17       		.uleb128 0x17
 1751 06e1 E1070000 		.4byte	.LASF109
 1752 06e5 0A       		.byte	0xa
 1753 06e6 2701     		.2byte	0x127
 1754 06e8 5B070000 		.4byte	0x75b
 1755 06ec 17       		.uleb128 0x17
 1756 06ed 7B060000 		.4byte	.LASF110
 1757 06f1 0A       		.byte	0xa
 1758 06f2 2F01     		.2byte	0x12f
 1759 06f4 B2010000 		.4byte	0x1b2
 1760 06f8 00       		.byte	0
 1761 06f9 0E       		.uleb128 0xe
 1762 06fa 04       		.byte	0x4
 1763 06fb E8020000 		.4byte	0x2e8
 1764 06ff 0A       		.uleb128 0xa
 1765 0700 F5060000 		.4byte	.LASF111
 1766 0704 0C       		.byte	0xc
 1767 0705 0E       		.byte	0xe
ARM GAS  /tmp/ccmLrqtN.s 			page 32


 1768 0706 34       		.byte	0x34
 1769 0707 24070000 		.4byte	0x724
 1770 070b 0B       		.uleb128 0xb
 1771 070c FE020000 		.4byte	.LASF112
 1772 0710 0E       		.byte	0xe
 1773 0711 35       		.byte	0x35
 1774 0712 1D030000 		.4byte	0x31d
 1775 0716 00       		.byte	0
 1776 0717 0B       		.uleb128 0xb
 1777 0718 D1030000 		.4byte	.LASF113
 1778 071c 0E       		.byte	0xe
 1779 071d 37       		.byte	0x37
 1780 071e BD010000 		.4byte	0x1bd
 1781 0722 08       		.byte	0x8
 1782 0723 00       		.byte	0
 1783 0724 0E       		.uleb128 0xe
 1784 0725 04       		.byte	0x4
 1785 0726 FF060000 		.4byte	0x6ff
 1786 072a 0A       		.uleb128 0xa
 1787 072b 65080000 		.4byte	.LASF114
 1788 072f 10       		.byte	0x10
 1789 0730 0F       		.byte	0xf
 1790 0731 39       		.byte	0x39
 1791 0732 5B070000 		.4byte	0x75b
 1792 0736 0B       		.uleb128 0xb
 1793 0737 76020000 		.4byte	.LASF115
 1794 073b 0F       		.byte	0xf
 1795 073c 3A       		.byte	0x3a
 1796 073d 1D030000 		.4byte	0x31d
 1797 0741 00       		.byte	0
 1798 0742 0B       		.uleb128 0xb
 1799 0743 16090000 		.4byte	.LASF116
 1800 0747 0F       		.byte	0xf
 1801 0748 3C       		.byte	0x3c
 1802 0749 F3020000 		.4byte	0x2f3
 1803 074d 08       		.byte	0x8
 1804 074e 0B       		.uleb128 0xb
 1805 074f B1070000 		.4byte	.LASF117
 1806 0753 0F       		.byte	0xf
 1807 0754 3E       		.byte	0x3e
 1808 0755 B0080000 		.4byte	0x8b0
 1809 0759 0C       		.byte	0xc
 1810 075a 00       		.byte	0
 1811 075b 0E       		.uleb128 0xe
 1812 075c 04       		.byte	0x4
 1813 075d 2A070000 		.4byte	0x72a
 1814 0761 0E       		.uleb128 0xe
 1815 0762 04       		.byte	0x4
 1816 0763 73070000 		.4byte	0x773
 1817 0767 05       		.uleb128 0x5
 1818 0768 61070000 		.4byte	0x761
 1819 076c 02       		.uleb128 0x2
 1820 076d 01       		.byte	0x1
 1821 076e 08       		.byte	0x8
 1822 076f 6B070000 		.4byte	.LASF118
 1823 0773 18       		.uleb128 0x18
 1824 0774 6C070000 		.4byte	0x76c
ARM GAS  /tmp/ccmLrqtN.s 			page 33


 1825 0778 0E       		.uleb128 0xe
 1826 0779 04       		.byte	0x4
 1827 077a D2030000 		.4byte	0x3d2
 1828 077e 19       		.uleb128 0x19
 1829 077f 11050000 		.4byte	0x511
 1830 0783 8E070000 		.4byte	0x78e
 1831 0787 1A       		.uleb128 0x1a
 1832 0788 A6000000 		.4byte	0xa6
 1833 078c 3A       		.byte	0x3a
 1834 078d 00       		.byte	0
 1835 078e 1B       		.uleb128 0x1b
 1836 078f 636800   		.ascii	"ch\000"
 1837 0792 0A       		.byte	0xa
 1838 0793 0902     		.2byte	0x209
 1839 0795 9F040000 		.4byte	0x49f
 1840 0799 15       		.uleb128 0x15
 1841 079a 16       		.byte	0x16
 1842 079b 10       		.byte	0x10
 1843 079c 34       		.byte	0x34
 1844 079d 7A080000 		.4byte	0x87a
 1845 07a1 0B       		.uleb128 0xb
 1846 07a2 1E090000 		.4byte	.LASF119
 1847 07a6 10       		.byte	0x10
 1848 07a7 35       		.byte	0x35
 1849 07a8 7A080000 		.4byte	0x87a
 1850 07ac 00       		.byte	0
 1851 07ad 0B       		.uleb128 0xb
 1852 07ae B4040000 		.4byte	.LASF120
 1853 07b2 10       		.byte	0x10
 1854 07b3 36       		.byte	0x36
 1855 07b4 AD000000 		.4byte	0xad
 1856 07b8 04       		.byte	0x4
 1857 07b9 0B       		.uleb128 0xb
 1858 07ba 41070000 		.4byte	.LASF121
 1859 07be 10       		.byte	0x10
 1860 07bf 37       		.byte	0x37
 1861 07c0 AD000000 		.4byte	0xad
 1862 07c4 05       		.byte	0x5
 1863 07c5 0B       		.uleb128 0xb
 1864 07c6 70060000 		.4byte	.LASF122
 1865 07ca 10       		.byte	0x10
 1866 07cb 38       		.byte	0x38
 1867 07cc C3000000 		.4byte	0xc3
 1868 07d0 06       		.byte	0x6
 1869 07d1 0B       		.uleb128 0xb
 1870 07d2 00060000 		.4byte	.LASF123
 1871 07d6 10       		.byte	0x10
 1872 07d7 39       		.byte	0x39
 1873 07d8 AD000000 		.4byte	0xad
 1874 07dc 08       		.byte	0x8
 1875 07dd 0B       		.uleb128 0xb
 1876 07de 38050000 		.4byte	.LASF124
 1877 07e2 10       		.byte	0x10
 1878 07e3 3A       		.byte	0x3a
 1879 07e4 AD000000 		.4byte	0xad
 1880 07e8 09       		.byte	0x9
 1881 07e9 0B       		.uleb128 0xb
ARM GAS  /tmp/ccmLrqtN.s 			page 34


 1882 07ea 9B010000 		.4byte	.LASF125
 1883 07ee 10       		.byte	0x10
 1884 07ef 3B       		.byte	0x3b
 1885 07f0 AD000000 		.4byte	0xad
 1886 07f4 0A       		.byte	0xa
 1887 07f5 0B       		.uleb128 0xb
 1888 07f6 1D070000 		.4byte	.LASF126
 1889 07fa 10       		.byte	0x10
 1890 07fb 3C       		.byte	0x3c
 1891 07fc AD000000 		.4byte	0xad
 1892 0800 0B       		.byte	0xb
 1893 0801 0B       		.uleb128 0xb
 1894 0802 5A080000 		.4byte	.LASF127
 1895 0806 10       		.byte	0x10
 1896 0807 3D       		.byte	0x3d
 1897 0808 AD000000 		.4byte	0xad
 1898 080c 0C       		.byte	0xc
 1899 080d 0B       		.uleb128 0xb
 1900 080e C9080000 		.4byte	.LASF128
 1901 0812 10       		.byte	0x10
 1902 0813 3E       		.byte	0x3e
 1903 0814 AD000000 		.4byte	0xad
 1904 0818 0D       		.byte	0xd
 1905 0819 0B       		.uleb128 0xb
 1906 081a 00000000 		.4byte	.LASF129
 1907 081e 10       		.byte	0x10
 1908 081f 3F       		.byte	0x3f
 1909 0820 AD000000 		.4byte	0xad
 1910 0824 0E       		.byte	0xe
 1911 0825 0B       		.uleb128 0xb
 1912 0826 44050000 		.4byte	.LASF130
 1913 082a 10       		.byte	0x10
 1914 082b 40       		.byte	0x40
 1915 082c AD000000 		.4byte	0xad
 1916 0830 0F       		.byte	0xf
 1917 0831 0B       		.uleb128 0xb
 1918 0832 51020000 		.4byte	.LASF131
 1919 0836 10       		.byte	0x10
 1920 0837 41       		.byte	0x41
 1921 0838 AD000000 		.4byte	0xad
 1922 083c 10       		.byte	0x10
 1923 083d 0B       		.uleb128 0xb
 1924 083e 0B020000 		.4byte	.LASF132
 1925 0842 10       		.byte	0x10
 1926 0843 43       		.byte	0x43
 1927 0844 AD000000 		.4byte	0xad
 1928 0848 11       		.byte	0x11
 1929 0849 0B       		.uleb128 0xb
 1930 084a 61020000 		.4byte	.LASF133
 1931 084e 10       		.byte	0x10
 1932 084f 44       		.byte	0x44
 1933 0850 AD000000 		.4byte	0xad
 1934 0854 12       		.byte	0x12
 1935 0855 0B       		.uleb128 0xb
 1936 0856 BC040000 		.4byte	.LASF134
 1937 085a 10       		.byte	0x10
 1938 085b 45       		.byte	0x45
ARM GAS  /tmp/ccmLrqtN.s 			page 35


 1939 085c AD000000 		.4byte	0xad
 1940 0860 13       		.byte	0x13
 1941 0861 0B       		.uleb128 0xb
 1942 0862 91060000 		.4byte	.LASF135
 1943 0866 10       		.byte	0x10
 1944 0867 46       		.byte	0x46
 1945 0868 AD000000 		.4byte	0xad
 1946 086c 14       		.byte	0x14
 1947 086d 0B       		.uleb128 0xb
 1948 086e 59040000 		.4byte	.LASF136
 1949 0872 10       		.byte	0x10
 1950 0873 48       		.byte	0x48
 1951 0874 AD000000 		.4byte	0xad
 1952 0878 15       		.byte	0x15
 1953 0879 00       		.byte	0
 1954 087a 19       		.uleb128 0x19
 1955 087b 6C070000 		.4byte	0x76c
 1956 087f 8A080000 		.4byte	0x88a
 1957 0883 1A       		.uleb128 0x1a
 1958 0884 A6000000 		.4byte	0xa6
 1959 0888 03       		.byte	0x3
 1960 0889 00       		.byte	0
 1961 088a 03       		.uleb128 0x3
 1962 088b EC020000 		.4byte	.LASF137
 1963 088f 10       		.byte	0x10
 1964 0890 49       		.byte	0x49
 1965 0891 99070000 		.4byte	0x799
 1966 0895 18       		.uleb128 0x18
 1967 0896 8A080000 		.4byte	0x88a
 1968 089a 07       		.uleb128 0x7
 1969 089b BA030000 		.4byte	.LASF138
 1970 089f 10       		.byte	0x10
 1971 08a0 6E       		.byte	0x6e
 1972 08a1 95080000 		.4byte	0x895
 1973 08a5 03       		.uleb128 0x3
 1974 08a6 3D030000 		.4byte	.LASF139
 1975 08aa 0F       		.byte	0xf
 1976 08ab 34       		.byte	0x34
 1977 08ac 2A070000 		.4byte	0x72a
 1978 08b0 0E       		.uleb128 0xe
 1979 08b1 04       		.byte	0x4
 1980 08b2 A5080000 		.4byte	0x8a5
 1981 08b6 0E       		.uleb128 0xe
 1982 08b7 04       		.byte	0x4
 1983 08b8 AD000000 		.4byte	0xad
 1984 08bc 02       		.uleb128 0x2
 1985 08bd 04       		.byte	0x4
 1986 08be 04       		.byte	0x4
 1987 08bf A6050000 		.4byte	.LASF140
 1988 08c3 02       		.uleb128 0x2
 1989 08c4 01       		.byte	0x1
 1990 08c5 02       		.byte	0x2
 1991 08c6 49070000 		.4byte	.LASF141
 1992 08ca 07       		.uleb128 0x7
 1993 08cb EA030000 		.4byte	.LASF142
 1994 08cf 11       		.byte	0x11
 1995 08d0 A7       		.byte	0xa7
ARM GAS  /tmp/ccmLrqtN.s 			page 36


 1996 08d1 C3080000 		.4byte	0x8c3
 1997 08d5 1C       		.uleb128 0x1c
 1998 08d6 75080000 		.4byte	.LASF143
 1999 08da 01       		.byte	0x1
 2000 08db 24       		.byte	0x24
 2001 08dc C3000000 		.4byte	0xc3
 2002 08e0 05       		.uleb128 0x5
 2003 08e1 03       		.byte	0x3
 2004 08e2 00000000 		.4byte	DataVar
 2005 08e6 19       		.uleb128 0x19
 2006 08e7 C3000000 		.4byte	0xc3
 2007 08eb F7080000 		.4byte	0x8f7
 2008 08ef 1D       		.uleb128 0x1d
 2009 08f0 A6000000 		.4byte	0xa6
 2010 08f4 2501     		.2byte	0x125
 2011 08f6 00       		.byte	0
 2012 08f7 07       		.uleb128 0x7
 2013 08f8 01080000 		.4byte	.LASF144
 2014 08fc 01       		.byte	0x1
 2015 08fd 27       		.byte	0x27
 2016 08fe E6080000 		.4byte	0x8e6
 2017 0902 1E       		.uleb128 0x1e
 2018 0903 89020000 		.4byte	.LASF148
 2019 0907 01       		.byte	0x1
 2020 0908 6A02     		.2byte	0x26a
 2021 090a C3000000 		.4byte	0xc3
 2022 090e 01       		.byte	0x1
 2023 090f 44090000 		.4byte	0x944
 2024 0913 1F       		.uleb128 0x1f
 2025 0914 B3020000 		.4byte	.LASF145
 2026 0918 01       		.byte	0x1
 2027 0919 6A02     		.2byte	0x26a
 2028 091b DE000000 		.4byte	0xde
 2029 091f 1F       		.uleb128 0x1f
 2030 0920 80070000 		.4byte	.LASF146
 2031 0924 01       		.byte	0x1
 2032 0925 6A02     		.2byte	0x26a
 2033 0927 AD000000 		.4byte	0xad
 2034 092b 20       		.uleb128 0x20
 2035 092c EB050000 		.4byte	.LASF147
 2036 0930 01       		.byte	0x1
 2037 0931 6B02     		.2byte	0x26b
 2038 0933 B6080000 		.4byte	0x8b6
 2039 0937 21       		.uleb128 0x21
 2040 0938 22       		.uleb128 0x22
 2041 0939 6900     		.ascii	"i\000"
 2042 093b 01       		.byte	0x1
 2043 093c 6D02     		.2byte	0x26d
 2044 093e A6000000 		.4byte	0xa6
 2045 0942 00       		.byte	0
 2046 0943 00       		.byte	0
 2047 0944 1E       		.uleb128 0x1e
 2048 0945 9F030000 		.4byte	.LASF149
 2049 0949 01       		.byte	0x1
 2050 094a 0D02     		.2byte	0x20d
 2051 094c C3000000 		.4byte	0xc3
 2052 0950 01       		.byte	0x1
ARM GAS  /tmp/ccmLrqtN.s 			page 37


 2053 0951 C2090000 		.4byte	0x9c2
 2054 0955 1F       		.uleb128 0x1f
 2055 0956 65040000 		.4byte	.LASF150
 2056 095a 01       		.byte	0x1
 2057 095b 0D02     		.2byte	0x20d
 2058 095d C3000000 		.4byte	0xc3
 2059 0961 1F       		.uleb128 0x1f
 2060 0962 8B080000 		.4byte	.LASF151
 2061 0966 01       		.byte	0x1
 2062 0967 0D02     		.2byte	0x20d
 2063 0969 C3000000 		.4byte	0xc3
 2064 096d 20       		.uleb128 0x20
 2065 096e DA010000 		.4byte	.LASF152
 2066 0972 01       		.byte	0x1
 2067 0973 0F02     		.2byte	0x20f
 2068 0975 4F010000 		.4byte	0x14f
 2069 0979 20       		.uleb128 0x20
 2070 097a F9040000 		.4byte	.LASF153
 2071 097e 01       		.byte	0x1
 2072 097f 1002     		.2byte	0x210
 2073 0981 DE000000 		.4byte	0xde
 2074 0985 20       		.uleb128 0x20
 2075 0986 2C040000 		.4byte	.LASF154
 2076 098a 01       		.byte	0x1
 2077 098b 1102     		.2byte	0x211
 2078 098d C3000000 		.4byte	0xc3
 2079 0991 20       		.uleb128 0x20
 2080 0992 61070000 		.4byte	.LASF155
 2081 0996 01       		.byte	0x1
 2082 0997 1202     		.2byte	0x212
 2083 0999 C3000000 		.4byte	0xc3
 2084 099d 20       		.uleb128 0x20
 2085 099e BD010000 		.4byte	.LASF156
 2086 09a2 01       		.byte	0x1
 2087 09a3 1202     		.2byte	0x212
 2088 09a5 C3000000 		.4byte	0xc3
 2089 09a9 20       		.uleb128 0x20
 2090 09aa A8060000 		.4byte	.LASF157
 2091 09ae 01       		.byte	0x1
 2092 09af 1302     		.2byte	0x213
 2093 09b1 C3000000 		.4byte	0xc3
 2094 09b5 20       		.uleb128 0x20
 2095 09b6 8F040000 		.4byte	.LASF158
 2096 09ba 01       		.byte	0x1
 2097 09bb 1302     		.2byte	0x213
 2098 09bd C3000000 		.4byte	0xc3
 2099 09c1 00       		.byte	0
 2100 09c2 23       		.uleb128 0x23
 2101 09c3 90080000 		.4byte	.LASF178
 2102 09c7 01       		.byte	0x1
 2103 09c8 D001     		.2byte	0x1d0
 2104 09ca C3000000 		.4byte	0xc3
 2105 09ce 00000000 		.4byte	.LFB224
 2106 09d2 7C000000 		.4byte	.LFE224-.LFB224
 2107 09d6 01       		.uleb128 0x1
 2108 09d7 9C       		.byte	0x9c
 2109 09d8 970A0000 		.4byte	0xa97
ARM GAS  /tmp/ccmLrqtN.s 			page 38


 2110 09dc 24       		.uleb128 0x24
 2111 09dd 65040000 		.4byte	.LASF150
 2112 09e1 01       		.byte	0x1
 2113 09e2 D001     		.2byte	0x1d0
 2114 09e4 C3000000 		.4byte	0xc3
 2115 09e8 00000000 		.4byte	.LLST0
 2116 09ec 24       		.uleb128 0x24
 2117 09ed 8B080000 		.4byte	.LASF151
 2118 09f1 01       		.byte	0x1
 2119 09f2 D001     		.2byte	0x1d0
 2120 09f4 C3000000 		.4byte	0xc3
 2121 09f8 53000000 		.4byte	.LLST1
 2122 09fc 25       		.uleb128 0x25
 2123 09fd DA010000 		.4byte	.LASF152
 2124 0a01 01       		.byte	0x1
 2125 0a02 D201     		.2byte	0x1d2
 2126 0a04 4F010000 		.4byte	0x14f
 2127 0a08 8D000000 		.4byte	.LLST2
 2128 0a0c 26       		.uleb128 0x26
 2129 0a0d 61070000 		.4byte	.LASF155
 2130 0a11 01       		.byte	0x1
 2131 0a12 D301     		.2byte	0x1d3
 2132 0a14 C3000000 		.4byte	0xc3
 2133 0a18 00       		.byte	0
 2134 0a19 25       		.uleb128 0x25
 2135 0a1a 71040000 		.4byte	.LASF159
 2136 0a1e 01       		.byte	0x1
 2137 0a1f D401     		.2byte	0x1d4
 2138 0a21 DE000000 		.4byte	0xde
 2139 0a25 C3000000 		.4byte	.LLST3
 2140 0a29 25       		.uleb128 0x25
 2141 0a2a 42040000 		.4byte	.LASF160
 2142 0a2e 01       		.byte	0x1
 2143 0a2f D401     		.2byte	0x1d4
 2144 0a31 DE000000 		.4byte	0xde
 2145 0a35 1C010000 		.4byte	.LLST4
 2146 0a39 27       		.uleb128 0x27
 2147 0a3a 970A0000 		.4byte	0xa97
 2148 0a3e 02000000 		.4byte	.LBB9
 2149 0a42 00000000 		.4byte	.Ldebug_ranges0+0
 2150 0a46 01       		.byte	0x1
 2151 0a47 D701     		.2byte	0x1d7
 2152 0a49 6C0A0000 		.4byte	0xa6c
 2153 0a4d 28       		.uleb128 0x28
 2154 0a4e A80A0000 		.4byte	0xaa8
 2155 0a52 01       		.byte	0x1
 2156 0a53 29       		.uleb128 0x29
 2157 0a54 00000000 		.4byte	.Ldebug_ranges0+0
 2158 0a58 2A       		.uleb128 0x2a
 2159 0a59 B40A0000 		.4byte	0xab4
 2160 0a5d 6A010000 		.4byte	.LLST5
 2161 0a61 2A       		.uleb128 0x2a
 2162 0a62 C00A0000 		.4byte	0xac0
 2163 0a66 9F010000 		.4byte	.LLST6
 2164 0a6a 00       		.byte	0
 2165 0a6b 00       		.byte	0
 2166 0a6c 2B       		.uleb128 0x2b
ARM GAS  /tmp/ccmLrqtN.s 			page 39


 2167 0a6d 44000000 		.4byte	.LVL8
 2168 0a71 6C0F0000 		.4byte	0xf6c
 2169 0a75 800A0000 		.4byte	0xa80
 2170 0a79 2C       		.uleb128 0x2c
 2171 0a7a 01       		.uleb128 0x1
 2172 0a7b 50       		.byte	0x50
 2173 0a7c 02       		.uleb128 0x2
 2174 0a7d 74       		.byte	0x74
 2175 0a7e 00       		.sleb128 0
 2176 0a7f 00       		.byte	0
 2177 0a80 2D       		.uleb128 0x2d
 2178 0a81 6C000000 		.4byte	.LVL18
 2179 0a85 6C0F0000 		.4byte	0xf6c
 2180 0a89 2C       		.uleb128 0x2c
 2181 0a8a 01       		.uleb128 0x1
 2182 0a8b 50       		.byte	0x50
 2183 0a8c 02       		.uleb128 0x2
 2184 0a8d 74       		.byte	0x74
 2185 0a8e 02       		.sleb128 2
 2186 0a8f 2C       		.uleb128 0x2c
 2187 0a90 01       		.uleb128 0x1
 2188 0a91 51       		.byte	0x51
 2189 0a92 02       		.uleb128 0x2
 2190 0a93 75       		.byte	0x75
 2191 0a94 00       		.sleb128 0
 2192 0a95 00       		.byte	0
 2193 0a96 00       		.byte	0
 2194 0a97 1E       		.uleb128 0x1e
 2195 0a98 1B040000 		.4byte	.LASF161
 2196 0a9c 01       		.byte	0x1
 2197 0a9d 8801     		.2byte	0x188
 2198 0a9f C3000000 		.4byte	0xc3
 2199 0aa3 01       		.byte	0x1
 2200 0aa4 CD0A0000 		.4byte	0xacd
 2201 0aa8 1F       		.uleb128 0x1f
 2202 0aa9 2E060000 		.4byte	.LASF162
 2203 0aad 01       		.byte	0x1
 2204 0aae 8801     		.2byte	0x188
 2205 0ab0 AD000000 		.4byte	0xad
 2206 0ab4 20       		.uleb128 0x20
 2207 0ab5 B4050000 		.4byte	.LASF163
 2208 0ab9 01       		.byte	0x1
 2209 0aba 8A01     		.2byte	0x18a
 2210 0abc C3000000 		.4byte	0xc3
 2211 0ac0 20       		.uleb128 0x20
 2212 0ac1 C0050000 		.4byte	.LASF164
 2213 0ac5 01       		.byte	0x1
 2214 0ac6 8A01     		.2byte	0x18a
 2215 0ac8 C3000000 		.4byte	0xc3
 2216 0acc 00       		.byte	0
 2217 0acd 1E       		.uleb128 0x1e
 2218 0ace D9020000 		.4byte	.LASF165
 2219 0ad2 01       		.byte	0x1
 2220 0ad3 6201     		.2byte	0x162
 2221 0ad5 4F010000 		.4byte	0x14f
 2222 0ad9 01       		.byte	0x1
 2223 0ada EB0A0000 		.4byte	0xaeb
ARM GAS  /tmp/ccmLrqtN.s 			page 40


 2224 0ade 20       		.uleb128 0x20
 2225 0adf DA010000 		.4byte	.LASF152
 2226 0ae3 01       		.byte	0x1
 2227 0ae4 6401     		.2byte	0x164
 2228 0ae6 4F010000 		.4byte	0x14f
 2229 0aea 00       		.byte	0
 2230 0aeb 2E       		.uleb128 0x2e
 2231 0aec 8A010000 		.4byte	.LASF167
 2232 0af0 01       		.byte	0x1
 2233 0af1 4A01     		.2byte	0x14a
 2234 0af3 C3000000 		.4byte	0xc3
 2235 0af7 00000000 		.4byte	.LFB221
 2236 0afb C0000000 		.4byte	.LFE221-.LFB221
 2237 0aff 01       		.uleb128 0x1
 2238 0b00 9C       		.byte	0x9c
 2239 0b01 650C0000 		.4byte	0xc65
 2240 0b05 24       		.uleb128 0x24
 2241 0b06 65040000 		.4byte	.LASF150
 2242 0b0a 01       		.byte	0x1
 2243 0b0b 4A01     		.2byte	0x14a
 2244 0b0d C3000000 		.4byte	0xc3
 2245 0b11 D4010000 		.4byte	.LLST25
 2246 0b15 24       		.uleb128 0x24
 2247 0b16 8B080000 		.4byte	.LASF151
 2248 0b1a 01       		.byte	0x1
 2249 0b1b 4A01     		.2byte	0x14a
 2250 0b1d C3000000 		.4byte	0xc3
 2251 0b21 F5010000 		.4byte	.LLST26
 2252 0b25 25       		.uleb128 0x25
 2253 0b26 F8080000 		.4byte	.LASF166
 2254 0b2a 01       		.byte	0x1
 2255 0b2b 4C01     		.2byte	0x14c
 2256 0b2d C3000000 		.4byte	0xc3
 2257 0b31 16020000 		.4byte	.LLST27
 2258 0b35 27       		.uleb128 0x27
 2259 0b36 44090000 		.4byte	0x944
 2260 0b3a 18000000 		.4byte	.LBB25
 2261 0b3e 30000000 		.4byte	.Ldebug_ranges0+0x30
 2262 0b42 01       		.byte	0x1
 2263 0b43 5501     		.2byte	0x155
 2264 0b45 4E0C0000 		.4byte	0xc4e
 2265 0b49 2F       		.uleb128 0x2f
 2266 0b4a 61090000 		.4byte	0x961
 2267 0b4e 61020000 		.4byte	.LLST28
 2268 0b52 30       		.uleb128 0x30
 2269 0b53 55090000 		.4byte	0x955
 2270 0b57 01       		.uleb128 0x1
 2271 0b58 56       		.byte	0x56
 2272 0b59 29       		.uleb128 0x29
 2273 0b5a 30000000 		.4byte	.Ldebug_ranges0+0x30
 2274 0b5e 2A       		.uleb128 0x2a
 2275 0b5f 6D090000 		.4byte	0x96d
 2276 0b63 7F020000 		.4byte	.LLST29
 2277 0b67 2A       		.uleb128 0x2a
 2278 0b68 79090000 		.4byte	0x979
 2279 0b6c CB020000 		.4byte	.LLST30
 2280 0b70 2A       		.uleb128 0x2a
ARM GAS  /tmp/ccmLrqtN.s 			page 41


 2281 0b71 85090000 		.4byte	0x985
 2282 0b75 09030000 		.4byte	.LLST31
 2283 0b79 31       		.uleb128 0x31
 2284 0b7a 91090000 		.4byte	0x991
 2285 0b7e 00       		.byte	0
 2286 0b7f 2A       		.uleb128 0x2a
 2287 0b80 9D090000 		.4byte	0x99d
 2288 0b84 3F030000 		.4byte	.LLST32
 2289 0b88 2A       		.uleb128 0x2a
 2290 0b89 A9090000 		.4byte	0x9a9
 2291 0b8d 5F030000 		.4byte	.LLST33
 2292 0b91 2A       		.uleb128 0x2a
 2293 0b92 B5090000 		.4byte	0x9b5
 2294 0b96 95030000 		.4byte	.LLST34
 2295 0b9a 32       		.uleb128 0x32
 2296 0b9b 970A0000 		.4byte	0xa97
 2297 0b9f 18000000 		.4byte	.LBB27
 2298 0ba3 10000000 		.4byte	.LBE27-.LBB27
 2299 0ba7 01       		.byte	0x1
 2300 0ba8 1602     		.2byte	0x216
 2301 0baa D10B0000 		.4byte	0xbd1
 2302 0bae 28       		.uleb128 0x28
 2303 0baf A80A0000 		.4byte	0xaa8
 2304 0bb3 00       		.byte	0
 2305 0bb4 33       		.uleb128 0x33
 2306 0bb5 18000000 		.4byte	.LBB28
 2307 0bb9 10000000 		.4byte	.LBE28-.LBB28
 2308 0bbd 2A       		.uleb128 0x2a
 2309 0bbe B40A0000 		.4byte	0xab4
 2310 0bc2 C0030000 		.4byte	.LLST35
 2311 0bc6 2A       		.uleb128 0x2a
 2312 0bc7 C00A0000 		.4byte	0xac0
 2313 0bcb EA030000 		.4byte	.LLST36
 2314 0bcf 00       		.byte	0
 2315 0bd0 00       		.byte	0
 2316 0bd1 2B       		.uleb128 0x2b
 2317 0bd2 38000000 		.4byte	.LVL101
 2318 0bd6 6C0F0000 		.4byte	0xf6c
 2319 0bda EC0B0000 		.4byte	0xbec
 2320 0bde 2C       		.uleb128 0x2c
 2321 0bdf 01       		.uleb128 0x1
 2322 0be0 50       		.byte	0x50
 2323 0be1 02       		.uleb128 0x2
 2324 0be2 77       		.byte	0x77
 2325 0be3 00       		.sleb128 0
 2326 0be4 2C       		.uleb128 0x2c
 2327 0be5 01       		.uleb128 0x1
 2328 0be6 51       		.byte	0x51
 2329 0be7 03       		.uleb128 0x3
 2330 0be8 0B       		.byte	0xb
 2331 0be9 EEEE     		.2byte	0xeeee
 2332 0beb 00       		.byte	0
 2333 0bec 2B       		.uleb128 0x2b
 2334 0bed 56000000 		.4byte	.LVL107
 2335 0bf1 C2090000 		.4byte	0x9c2
 2336 0bf5 060C0000 		.4byte	0xc06
 2337 0bf9 2C       		.uleb128 0x2c
ARM GAS  /tmp/ccmLrqtN.s 			page 42


 2338 0bfa 01       		.uleb128 0x1
 2339 0bfb 50       		.byte	0x50
 2340 0bfc 02       		.uleb128 0x2
 2341 0bfd 76       		.byte	0x76
 2342 0bfe 00       		.sleb128 0
 2343 0bff 2C       		.uleb128 0x2c
 2344 0c00 01       		.uleb128 0x1
 2345 0c01 51       		.byte	0x51
 2346 0c02 02       		.uleb128 0x2
 2347 0c03 75       		.byte	0x75
 2348 0c04 00       		.sleb128 0
 2349 0c05 00       		.byte	0
 2350 0c06 2B       		.uleb128 0x2b
 2351 0c07 7C000000 		.4byte	.LVL111
 2352 0c0b 650C0000 		.4byte	0xc65
 2353 0c0f 1A0C0000 		.4byte	0xc1a
 2354 0c13 2C       		.uleb128 0x2c
 2355 0c14 01       		.uleb128 0x1
 2356 0c15 51       		.byte	0x51
 2357 0c16 02       		.uleb128 0x2
 2358 0c17 71       		.byte	0x71
 2359 0c18 00       		.sleb128 0
 2360 0c19 00       		.byte	0
 2361 0c1a 34       		.uleb128 0x34
 2362 0c1b 8C000000 		.4byte	.LVL113
 2363 0c1f C2090000 		.4byte	0x9c2
 2364 0c23 2B       		.uleb128 0x2b
 2365 0c24 9A000000 		.4byte	.LVL115
 2366 0c28 960E0000 		.4byte	0xe96
 2367 0c2c 370C0000 		.4byte	0xc37
 2368 0c30 2C       		.uleb128 0x2c
 2369 0c31 01       		.uleb128 0x1
 2370 0c32 50       		.byte	0x50
 2371 0c33 02       		.uleb128 0x2
 2372 0c34 78       		.byte	0x78
 2373 0c35 00       		.sleb128 0
 2374 0c36 00       		.byte	0
 2375 0c37 2D       		.uleb128 0x2d
 2376 0c38 A8000000 		.4byte	.LVL117
 2377 0c3c 6C0F0000 		.4byte	0xf6c
 2378 0c40 2C       		.uleb128 0x2c
 2379 0c41 01       		.uleb128 0x1
 2380 0c42 50       		.byte	0x50
 2381 0c43 02       		.uleb128 0x2
 2382 0c44 77       		.byte	0x77
 2383 0c45 00       		.sleb128 0
 2384 0c46 2C       		.uleb128 0x2c
 2385 0c47 01       		.uleb128 0x1
 2386 0c48 51       		.byte	0x51
 2387 0c49 01       		.uleb128 0x1
 2388 0c4a 30       		.byte	0x30
 2389 0c4b 00       		.byte	0
 2390 0c4c 00       		.byte	0
 2391 0c4d 00       		.byte	0
 2392 0c4e 2D       		.uleb128 0x2d
 2393 0c4f 0C000000 		.4byte	.LVL93
 2394 0c53 C2090000 		.4byte	0x9c2
ARM GAS  /tmp/ccmLrqtN.s 			page 43


 2395 0c57 2C       		.uleb128 0x2c
 2396 0c58 01       		.uleb128 0x1
 2397 0c59 50       		.byte	0x50
 2398 0c5a 02       		.uleb128 0x2
 2399 0c5b 76       		.byte	0x76
 2400 0c5c 00       		.sleb128 0
 2401 0c5d 2C       		.uleb128 0x2c
 2402 0c5e 01       		.uleb128 0x1
 2403 0c5f 51       		.byte	0x51
 2404 0c60 02       		.uleb128 0x2
 2405 0c61 75       		.byte	0x75
 2406 0c62 00       		.sleb128 0
 2407 0c63 00       		.byte	0
 2408 0c64 00       		.byte	0
 2409 0c65 2E       		.uleb128 0x2e
 2410 0c66 2B080000 		.4byte	.LASF168
 2411 0c6a 01       		.byte	0x1
 2412 0c6b 0F01     		.2byte	0x10f
 2413 0c6d C3000000 		.4byte	0xc3
 2414 0c71 00000000 		.4byte	.LFB220
 2415 0c75 6C000000 		.4byte	.LFE220-.LFB220
 2416 0c79 01       		.uleb128 0x1
 2417 0c7a 9C       		.byte	0x9c
 2418 0c7b 1A0D0000 		.4byte	0xd1a
 2419 0c7f 24       		.uleb128 0x24
 2420 0c80 65040000 		.4byte	.LASF150
 2421 0c84 01       		.byte	0x1
 2422 0c85 0F01     		.2byte	0x10f
 2423 0c87 C3000000 		.4byte	0xc3
 2424 0c8b 14040000 		.4byte	.LLST11
 2425 0c8f 35       		.uleb128 0x35
 2426 0c90 8B080000 		.4byte	.LASF151
 2427 0c94 01       		.byte	0x1
 2428 0c95 0F01     		.2byte	0x10f
 2429 0c97 1A0D0000 		.4byte	0xd1a
 2430 0c9b 01       		.uleb128 0x1
 2431 0c9c 51       		.byte	0x51
 2432 0c9d 26       		.uleb128 0x26
 2433 0c9e 61070000 		.4byte	.LASF155
 2434 0ca2 01       		.byte	0x1
 2435 0ca3 1101     		.2byte	0x111
 2436 0ca5 C3000000 		.4byte	0xc3
 2437 0ca9 00       		.byte	0
 2438 0caa 25       		.uleb128 0x25
 2439 0cab 21060000 		.4byte	.LASF169
 2440 0caf 01       		.byte	0x1
 2441 0cb0 1201     		.2byte	0x112
 2442 0cb2 C3000000 		.4byte	0xc3
 2443 0cb6 67040000 		.4byte	.LLST12
 2444 0cba 25       		.uleb128 0x25
 2445 0cbb 8F040000 		.4byte	.LASF158
 2446 0cbf 01       		.byte	0x1
 2447 0cc0 1201     		.2byte	0x112
 2448 0cc2 C3000000 		.4byte	0xc3
 2449 0cc6 A1040000 		.4byte	.LLST13
 2450 0cca 25       		.uleb128 0x25
 2451 0ccb 71040000 		.4byte	.LASF159
ARM GAS  /tmp/ccmLrqtN.s 			page 44


 2452 0ccf 01       		.byte	0x1
 2453 0cd0 1301     		.2byte	0x113
 2454 0cd2 DE000000 		.4byte	0xde
 2455 0cd6 CD040000 		.4byte	.LLST14
 2456 0cda 25       		.uleb128 0x25
 2457 0cdb 27050000 		.4byte	.LASF170
 2458 0cdf 01       		.byte	0x1
 2459 0ce0 1301     		.2byte	0x113
 2460 0ce2 DE000000 		.4byte	0xde
 2461 0ce6 00050000 		.4byte	.LLST15
 2462 0cea 36       		.uleb128 0x36
 2463 0ceb 970A0000 		.4byte	0xa97
 2464 0cef 00000000 		.4byte	.LBB17
 2465 0cf3 18000000 		.4byte	.Ldebug_ranges0+0x18
 2466 0cf7 01       		.byte	0x1
 2467 0cf8 1601     		.2byte	0x116
 2468 0cfa 28       		.uleb128 0x28
 2469 0cfb A80A0000 		.4byte	0xaa8
 2470 0cff 00       		.byte	0
 2471 0d00 29       		.uleb128 0x29
 2472 0d01 18000000 		.4byte	.Ldebug_ranges0+0x18
 2473 0d05 2A       		.uleb128 0x2a
 2474 0d06 B40A0000 		.4byte	0xab4
 2475 0d0a 28050000 		.4byte	.LLST16
 2476 0d0e 2A       		.uleb128 0x2a
 2477 0d0f C00A0000 		.4byte	0xac0
 2478 0d13 5D050000 		.4byte	.LLST17
 2479 0d17 00       		.byte	0
 2480 0d18 00       		.byte	0
 2481 0d19 00       		.byte	0
 2482 0d1a 0E       		.uleb128 0xe
 2483 0d1b 04       		.byte	0x4
 2484 0d1c C3000000 		.4byte	0xc3
 2485 0d20 37       		.uleb128 0x37
 2486 0d21 51040000 		.4byte	.LASF171
 2487 0d25 01       		.byte	0x1
 2488 0d26 38       		.byte	0x38
 2489 0d27 C3000000 		.4byte	0xc3
 2490 0d2b 00000000 		.4byte	.LFB219
 2491 0d2f 40010000 		.4byte	.LFE219-.LFB219
 2492 0d33 01       		.uleb128 0x1
 2493 0d34 9C       		.byte	0x9c
 2494 0d35 960E0000 		.4byte	0xe96
 2495 0d39 38       		.uleb128 0x38
 2496 0d3a B4050000 		.4byte	.LASF163
 2497 0d3e 01       		.byte	0x1
 2498 0d3f 3A       		.byte	0x3a
 2499 0d40 C3000000 		.4byte	0xc3
 2500 0d44 92050000 		.4byte	.LLST18
 2501 0d48 38       		.uleb128 0x38
 2502 0d49 C0050000 		.4byte	.LASF164
 2503 0d4d 01       		.byte	0x1
 2504 0d4e 3A       		.byte	0x3a
 2505 0d4f C3000000 		.4byte	0xc3
 2506 0d53 D2050000 		.4byte	.LLST19
 2507 0d57 38       		.uleb128 0x38
 2508 0d58 BD010000 		.4byte	.LASF156
ARM GAS  /tmp/ccmLrqtN.s 			page 45


 2509 0d5c 01       		.byte	0x1
 2510 0d5d 3B       		.byte	0x3b
 2511 0d5e C3000000 		.4byte	0xc3
 2512 0d62 1D060000 		.4byte	.LLST20
 2513 0d66 38       		.uleb128 0x38
 2514 0d67 A8060000 		.4byte	.LASF157
 2515 0d6b 01       		.byte	0x1
 2516 0d6c 3C       		.byte	0x3c
 2517 0d6d C3000000 		.4byte	0xc3
 2518 0d71 6B060000 		.4byte	.LLST21
 2519 0d75 38       		.uleb128 0x38
 2520 0d76 8F040000 		.4byte	.LASF158
 2521 0d7a 01       		.byte	0x1
 2522 0d7b 3C       		.byte	0x3c
 2523 0d7c C3000000 		.4byte	0xc3
 2524 0d80 B9060000 		.4byte	.LLST22
 2525 0d84 39       		.uleb128 0x39
 2526 0d85 7800     		.ascii	"x\000"
 2527 0d87 01       		.byte	0x1
 2528 0d88 3D       		.byte	0x3d
 2529 0d89 B8000000 		.4byte	0xb8
 2530 0d8d 07070000 		.4byte	.LLST23
 2531 0d91 38       		.uleb128 0x38
 2532 0d92 DA010000 		.4byte	.LASF152
 2533 0d96 01       		.byte	0x1
 2534 0d97 3E       		.byte	0x3e
 2535 0d98 C3000000 		.4byte	0xc3
 2536 0d9c 59070000 		.4byte	.LLST24
 2537 0da0 34       		.uleb128 0x34
 2538 0da1 26000000 		.4byte	.LVL57
 2539 0da5 CD0A0000 		.4byte	0xacd
 2540 0da9 2B       		.uleb128 0x2b
 2541 0daa 5C000000 		.4byte	.LVL63
 2542 0dae 650C0000 		.4byte	0xc65
 2543 0db2 BD0D0000 		.4byte	0xdbd
 2544 0db6 2C       		.uleb128 0x2c
 2545 0db7 01       		.uleb128 0x1
 2546 0db8 51       		.byte	0x51
 2547 0db9 02       		.uleb128 0x2
 2548 0dba 71       		.byte	0x71
 2549 0dbb 00       		.sleb128 0
 2550 0dbc 00       		.byte	0
 2551 0dbd 34       		.uleb128 0x34
 2552 0dbe 6C000000 		.4byte	.LVL65
 2553 0dc2 C2090000 		.4byte	0x9c2
 2554 0dc6 2B       		.uleb128 0x2b
 2555 0dc7 7E000000 		.4byte	.LVL67
 2556 0dcb 6C0F0000 		.4byte	0xf6c
 2557 0dcf E20D0000 		.4byte	0xde2
 2558 0dd3 2C       		.uleb128 0x2c
 2559 0dd4 01       		.uleb128 0x1
 2560 0dd5 50       		.byte	0x50
 2561 0dd6 05       		.uleb128 0x5
 2562 0dd7 0C       		.byte	0xc
 2563 0dd8 00800008 		.4byte	0x8008000
 2564 0ddc 2C       		.uleb128 0x2c
 2565 0ddd 01       		.uleb128 0x1
ARM GAS  /tmp/ccmLrqtN.s 			page 46


 2566 0dde 51       		.byte	0x51
 2567 0ddf 01       		.uleb128 0x1
 2568 0de0 30       		.byte	0x30
 2569 0de1 00       		.byte	0
 2570 0de2 3A       		.uleb128 0x3a
 2571 0de3 8E000000 		.4byte	.LVL70
 2572 0de7 960E0000 		.4byte	0xe96
 2573 0deb F50D0000 		.4byte	0xdf5
 2574 0def 2C       		.uleb128 0x2c
 2575 0df0 01       		.uleb128 0x1
 2576 0df1 50       		.byte	0x50
 2577 0df2 01       		.uleb128 0x1
 2578 0df3 38       		.byte	0x38
 2579 0df4 00       		.byte	0
 2580 0df5 2B       		.uleb128 0x2b
 2581 0df6 9C000000 		.4byte	.LVL71
 2582 0dfa 960E0000 		.4byte	0xe96
 2583 0dfe 080E0000 		.4byte	0xe08
 2584 0e02 2C       		.uleb128 0x2c
 2585 0e03 01       		.uleb128 0x1
 2586 0e04 50       		.byte	0x50
 2587 0e05 01       		.uleb128 0x1
 2588 0e06 38       		.byte	0x38
 2589 0e07 00       		.byte	0
 2590 0e08 2B       		.uleb128 0x2b
 2591 0e09 A8000000 		.4byte	.LVL73
 2592 0e0d 6C0F0000 		.4byte	0xf6c
 2593 0e11 210E0000 		.4byte	0xe21
 2594 0e15 2C       		.uleb128 0x2c
 2595 0e16 01       		.uleb128 0x1
 2596 0e17 50       		.byte	0x50
 2597 0e18 02       		.uleb128 0x2
 2598 0e19 76       		.byte	0x76
 2599 0e1a 00       		.sleb128 0
 2600 0e1b 2C       		.uleb128 0x2c
 2601 0e1c 01       		.uleb128 0x1
 2602 0e1d 51       		.byte	0x51
 2603 0e1e 01       		.uleb128 0x1
 2604 0e1f 30       		.byte	0x30
 2605 0e20 00       		.byte	0
 2606 0e21 2B       		.uleb128 0x2b
 2607 0e22 D8000000 		.4byte	.LVL80
 2608 0e26 650C0000 		.4byte	0xc65
 2609 0e2a 350E0000 		.4byte	0xe35
 2610 0e2e 2C       		.uleb128 0x2c
 2611 0e2f 01       		.uleb128 0x1
 2612 0e30 51       		.byte	0x51
 2613 0e31 02       		.uleb128 0x2
 2614 0e32 71       		.byte	0x71
 2615 0e33 00       		.sleb128 0
 2616 0e34 00       		.byte	0
 2617 0e35 34       		.uleb128 0x34
 2618 0e36 E6000000 		.4byte	.LVL82
 2619 0e3a C2090000 		.4byte	0x9c2
 2620 0e3e 2B       		.uleb128 0x2b
 2621 0e3f F8000000 		.4byte	.LVL84
 2622 0e43 6C0F0000 		.4byte	0xf6c
ARM GAS  /tmp/ccmLrqtN.s 			page 47


 2623 0e47 5A0E0000 		.4byte	0xe5a
 2624 0e4b 2C       		.uleb128 0x2c
 2625 0e4c 01       		.uleb128 0x1
 2626 0e4d 50       		.byte	0x50
 2627 0e4e 05       		.uleb128 0x5
 2628 0e4f 0C       		.byte	0xc
 2629 0e50 00400008 		.4byte	0x8004000
 2630 0e54 2C       		.uleb128 0x2c
 2631 0e55 01       		.uleb128 0x1
 2632 0e56 51       		.byte	0x51
 2633 0e57 01       		.uleb128 0x1
 2634 0e58 30       		.byte	0x30
 2635 0e59 00       		.byte	0
 2636 0e5a 3A       		.uleb128 0x3a
 2637 0e5b 08010000 		.4byte	.LVL87
 2638 0e5f 960E0000 		.4byte	0xe96
 2639 0e63 6D0E0000 		.4byte	0xe6d
 2640 0e67 2C       		.uleb128 0x2c
 2641 0e68 01       		.uleb128 0x1
 2642 0e69 50       		.byte	0x50
 2643 0e6a 01       		.uleb128 0x1
 2644 0e6b 40       		.byte	0x40
 2645 0e6c 00       		.byte	0
 2646 0e6d 2B       		.uleb128 0x2b
 2647 0e6e 16010000 		.4byte	.LVL88
 2648 0e72 960E0000 		.4byte	0xe96
 2649 0e76 800E0000 		.4byte	0xe80
 2650 0e7a 2C       		.uleb128 0x2c
 2651 0e7b 01       		.uleb128 0x1
 2652 0e7c 50       		.byte	0x50
 2653 0e7d 01       		.uleb128 0x1
 2654 0e7e 40       		.byte	0x40
 2655 0e7f 00       		.byte	0
 2656 0e80 2D       		.uleb128 0x2d
 2657 0e81 22010000 		.4byte	.LVL90
 2658 0e85 6C0F0000 		.4byte	0xf6c
 2659 0e89 2C       		.uleb128 0x2c
 2660 0e8a 01       		.uleb128 0x1
 2661 0e8b 50       		.byte	0x50
 2662 0e8c 02       		.uleb128 0x2
 2663 0e8d 75       		.byte	0x75
 2664 0e8e 00       		.sleb128 0
 2665 0e8f 2C       		.uleb128 0x2c
 2666 0e90 01       		.uleb128 0x1
 2667 0e91 51       		.byte	0x51
 2668 0e92 01       		.uleb128 0x1
 2669 0e93 30       		.byte	0x30
 2670 0e94 00       		.byte	0
 2671 0e95 00       		.byte	0
 2672 0e96 3B       		.uleb128 0x3b
 2673 0e97 02090000 		.4byte	0x902
 2674 0e9b 00000000 		.4byte	.LFB228
 2675 0e9f 2E000000 		.4byte	.LFE228-.LFB228
 2676 0ea3 01       		.uleb128 0x1
 2677 0ea4 9C       		.byte	0x9c
 2678 0ea5 020F0000 		.4byte	0xf02
 2679 0ea9 2F       		.uleb128 0x2f
ARM GAS  /tmp/ccmLrqtN.s 			page 48


 2680 0eaa 13090000 		.4byte	0x913
 2681 0eae A3070000 		.4byte	.LLST7
 2682 0eb2 2A       		.uleb128 0x2a
 2683 0eb3 2B090000 		.4byte	0x92b
 2684 0eb7 C1070000 		.4byte	.LLST8
 2685 0ebb 28       		.uleb128 0x28
 2686 0ebc 1F090000 		.4byte	0x91f
 2687 0ec0 02       		.byte	0x2
 2688 0ec1 3C       		.uleb128 0x3c
 2689 0ec2 37090000 		.4byte	0x937
 2690 0ec6 12000000 		.4byte	.LBB13
 2691 0eca 16000000 		.4byte	.LBE13-.LBB13
 2692 0ece F10E0000 		.4byte	0xef1
 2693 0ed2 2A       		.uleb128 0x2a
 2694 0ed3 38090000 		.4byte	0x938
 2695 0ed7 FF070000 		.4byte	.LLST9
 2696 0edb 2D       		.uleb128 0x2d
 2697 0edc 26000000 		.4byte	.LVL26
 2698 0ee0 780F0000 		.4byte	0xf78
 2699 0ee4 2C       		.uleb128 0x2c
 2700 0ee5 01       		.uleb128 0x1
 2701 0ee6 50       		.byte	0x50
 2702 0ee7 02       		.uleb128 0x2
 2703 0ee8 74       		.byte	0x74
 2704 0ee9 00       		.sleb128 0
 2705 0eea 2C       		.uleb128 0x2c
 2706 0eeb 01       		.uleb128 0x1
 2707 0eec 51       		.byte	0x51
 2708 0eed 01       		.uleb128 0x1
 2709 0eee 32       		.byte	0x32
 2710 0eef 00       		.byte	0
 2711 0ef0 00       		.byte	0
 2712 0ef1 2D       		.uleb128 0x2d
 2713 0ef2 08000000 		.4byte	.LVL20
 2714 0ef6 840F0000 		.4byte	0xf84
 2715 0efa 2C       		.uleb128 0x2c
 2716 0efb 01       		.uleb128 0x1
 2717 0efc 50       		.byte	0x50
 2718 0efd 02       		.uleb128 0x2
 2719 0efe 74       		.byte	0x74
 2720 0eff 00       		.sleb128 0
 2721 0f00 00       		.byte	0
 2722 0f01 00       		.byte	0
 2723 0f02 3B       		.uleb128 0x3b
 2724 0f03 CD0A0000 		.4byte	0xacd
 2725 0f07 00000000 		.4byte	.LFB222
 2726 0f0b 2C000000 		.4byte	.LFE222-.LFB222
 2727 0f0f 01       		.uleb128 0x1
 2728 0f10 9C       		.byte	0x9c
 2729 0f11 6C0F0000 		.4byte	0xf6c
 2730 0f15 2A       		.uleb128 0x2a
 2731 0f16 DE0A0000 		.4byte	0xade
 2732 0f1a 3B080000 		.4byte	.LLST10
 2733 0f1e 3D       		.uleb128 0x3d
 2734 0f1f 1C000000 		.4byte	.LBB16
 2735 0f23 08000000 		.4byte	.LBE16-.LBB16
 2736 0f27 400F0000 		.4byte	0xf40
ARM GAS  /tmp/ccmLrqtN.s 			page 49


 2737 0f2b 3E       		.uleb128 0x3e
 2738 0f2c 150F0000 		.4byte	0xf15
 2739 0f30 2D       		.uleb128 0x2d
 2740 0f31 22000000 		.4byte	.LVL35
 2741 0f35 960E0000 		.4byte	0xe96
 2742 0f39 2C       		.uleb128 0x2c
 2743 0f3a 01       		.uleb128 0x1
 2744 0f3b 50       		.byte	0x50
 2745 0f3c 01       		.uleb128 0x1
 2746 0f3d 40       		.byte	0x40
 2747 0f3e 00       		.byte	0
 2748 0f3f 00       		.byte	0
 2749 0f40 2B       		.uleb128 0x2b
 2750 0f41 08000000 		.4byte	.LVL30
 2751 0f45 960E0000 		.4byte	0xe96
 2752 0f49 530F0000 		.4byte	0xf53
 2753 0f4d 2C       		.uleb128 0x2c
 2754 0f4e 01       		.uleb128 0x1
 2755 0f4f 50       		.byte	0x50
 2756 0f50 01       		.uleb128 0x1
 2757 0f51 38       		.byte	0x38
 2758 0f52 00       		.byte	0
 2759 0f53 2D       		.uleb128 0x2d
 2760 0f54 18000000 		.4byte	.LVL33
 2761 0f58 6C0F0000 		.4byte	0xf6c
 2762 0f5c 2C       		.uleb128 0x2c
 2763 0f5d 01       		.uleb128 0x1
 2764 0f5e 50       		.byte	0x50
 2765 0f5f 05       		.uleb128 0x5
 2766 0f60 0C       		.byte	0xc
 2767 0f61 00400008 		.4byte	0x8004000
 2768 0f65 2C       		.uleb128 0x2c
 2769 0f66 01       		.uleb128 0x1
 2770 0f67 51       		.byte	0x51
 2771 0f68 01       		.uleb128 0x1
 2772 0f69 30       		.byte	0x30
 2773 0f6a 00       		.byte	0
 2774 0f6b 00       		.byte	0
 2775 0f6c 3F       		.uleb128 0x3f
 2776 0f6d 15080000 		.4byte	.LASF172
 2777 0f71 15080000 		.4byte	.LASF172
 2778 0f75 06       		.byte	0x6
 2779 0f76 C001     		.2byte	0x1c0
 2780 0f78 3F       		.uleb128 0x3f
 2781 0f79 54060000 		.4byte	.LASF173
 2782 0f7d 54060000 		.4byte	.LASF173
 2783 0f81 06       		.byte	0x6
 2784 0f82 BA01     		.2byte	0x1ba
 2785 0f84 40       		.uleb128 0x40
 2786 0f85 C8040000 		.4byte	.LASF174
 2787 0f89 C8040000 		.4byte	.LASF174
 2788 0f8d 12       		.byte	0x12
 2789 0f8e 1D       		.byte	0x1d
 2790 0f8f 00       		.byte	0
 2791              		.section	.debug_abbrev,"",%progbits
 2792              	.Ldebug_abbrev0:
 2793 0000 01       		.uleb128 0x1
ARM GAS  /tmp/ccmLrqtN.s 			page 50


 2794 0001 11       		.uleb128 0x11
 2795 0002 01       		.byte	0x1
 2796 0003 25       		.uleb128 0x25
 2797 0004 0E       		.uleb128 0xe
 2798 0005 13       		.uleb128 0x13
 2799 0006 0B       		.uleb128 0xb
 2800 0007 03       		.uleb128 0x3
 2801 0008 0E       		.uleb128 0xe
 2802 0009 1B       		.uleb128 0x1b
 2803 000a 0E       		.uleb128 0xe
 2804 000b 55       		.uleb128 0x55
 2805 000c 17       		.uleb128 0x17
 2806 000d 11       		.uleb128 0x11
 2807 000e 01       		.uleb128 0x1
 2808 000f 10       		.uleb128 0x10
 2809 0010 17       		.uleb128 0x17
 2810 0011 00       		.byte	0
 2811 0012 00       		.byte	0
 2812 0013 02       		.uleb128 0x2
 2813 0014 24       		.uleb128 0x24
 2814 0015 00       		.byte	0
 2815 0016 0B       		.uleb128 0xb
 2816 0017 0B       		.uleb128 0xb
 2817 0018 3E       		.uleb128 0x3e
 2818 0019 0B       		.uleb128 0xb
 2819 001a 03       		.uleb128 0x3
 2820 001b 0E       		.uleb128 0xe
 2821 001c 00       		.byte	0
 2822 001d 00       		.byte	0
 2823 001e 03       		.uleb128 0x3
 2824 001f 16       		.uleb128 0x16
 2825 0020 00       		.byte	0
 2826 0021 03       		.uleb128 0x3
 2827 0022 0E       		.uleb128 0xe
 2828 0023 3A       		.uleb128 0x3a
 2829 0024 0B       		.uleb128 0xb
 2830 0025 3B       		.uleb128 0x3b
 2831 0026 0B       		.uleb128 0xb
 2832 0027 49       		.uleb128 0x49
 2833 0028 13       		.uleb128 0x13
 2834 0029 00       		.byte	0
 2835 002a 00       		.byte	0
 2836 002b 04       		.uleb128 0x4
 2837 002c 24       		.uleb128 0x24
 2838 002d 00       		.byte	0
 2839 002e 0B       		.uleb128 0xb
 2840 002f 0B       		.uleb128 0xb
 2841 0030 3E       		.uleb128 0x3e
 2842 0031 0B       		.uleb128 0xb
 2843 0032 03       		.uleb128 0x3
 2844 0033 08       		.uleb128 0x8
 2845 0034 00       		.byte	0
 2846 0035 00       		.byte	0
 2847 0036 05       		.uleb128 0x5
 2848 0037 35       		.uleb128 0x35
 2849 0038 00       		.byte	0
 2850 0039 49       		.uleb128 0x49
ARM GAS  /tmp/ccmLrqtN.s 			page 51


 2851 003a 13       		.uleb128 0x13
 2852 003b 00       		.byte	0
 2853 003c 00       		.byte	0
 2854 003d 06       		.uleb128 0x6
 2855 003e 34       		.uleb128 0x34
 2856 003f 00       		.byte	0
 2857 0040 03       		.uleb128 0x3
 2858 0041 0E       		.uleb128 0xe
 2859 0042 3A       		.uleb128 0x3a
 2860 0043 0B       		.uleb128 0xb
 2861 0044 3B       		.uleb128 0x3b
 2862 0045 05       		.uleb128 0x5
 2863 0046 49       		.uleb128 0x49
 2864 0047 13       		.uleb128 0x13
 2865 0048 3F       		.uleb128 0x3f
 2866 0049 19       		.uleb128 0x19
 2867 004a 3C       		.uleb128 0x3c
 2868 004b 19       		.uleb128 0x19
 2869 004c 00       		.byte	0
 2870 004d 00       		.byte	0
 2871 004e 07       		.uleb128 0x7
 2872 004f 34       		.uleb128 0x34
 2873 0050 00       		.byte	0
 2874 0051 03       		.uleb128 0x3
 2875 0052 0E       		.uleb128 0xe
 2876 0053 3A       		.uleb128 0x3a
 2877 0054 0B       		.uleb128 0xb
 2878 0055 3B       		.uleb128 0x3b
 2879 0056 0B       		.uleb128 0xb
 2880 0057 49       		.uleb128 0x49
 2881 0058 13       		.uleb128 0x13
 2882 0059 3F       		.uleb128 0x3f
 2883 005a 19       		.uleb128 0x19
 2884 005b 3C       		.uleb128 0x3c
 2885 005c 19       		.uleb128 0x19
 2886 005d 00       		.byte	0
 2887 005e 00       		.byte	0
 2888 005f 08       		.uleb128 0x8
 2889 0060 04       		.uleb128 0x4
 2890 0061 01       		.byte	0x1
 2891 0062 3E       		.uleb128 0x3e
 2892 0063 0B       		.uleb128 0xb
 2893 0064 0B       		.uleb128 0xb
 2894 0065 0B       		.uleb128 0xb
 2895 0066 49       		.uleb128 0x49
 2896 0067 13       		.uleb128 0x13
 2897 0068 3A       		.uleb128 0x3a
 2898 0069 0B       		.uleb128 0xb
 2899 006a 3B       		.uleb128 0x3b
 2900 006b 0B       		.uleb128 0xb
 2901 006c 01       		.uleb128 0x1
 2902 006d 13       		.uleb128 0x13
 2903 006e 00       		.byte	0
 2904 006f 00       		.byte	0
 2905 0070 09       		.uleb128 0x9
 2906 0071 28       		.uleb128 0x28
 2907 0072 00       		.byte	0
ARM GAS  /tmp/ccmLrqtN.s 			page 52


 2908 0073 03       		.uleb128 0x3
 2909 0074 0E       		.uleb128 0xe
 2910 0075 1C       		.uleb128 0x1c
 2911 0076 0B       		.uleb128 0xb
 2912 0077 00       		.byte	0
 2913 0078 00       		.byte	0
 2914 0079 0A       		.uleb128 0xa
 2915 007a 13       		.uleb128 0x13
 2916 007b 01       		.byte	0x1
 2917 007c 03       		.uleb128 0x3
 2918 007d 0E       		.uleb128 0xe
 2919 007e 0B       		.uleb128 0xb
 2920 007f 0B       		.uleb128 0xb
 2921 0080 3A       		.uleb128 0x3a
 2922 0081 0B       		.uleb128 0xb
 2923 0082 3B       		.uleb128 0x3b
 2924 0083 0B       		.uleb128 0xb
 2925 0084 01       		.uleb128 0x1
 2926 0085 13       		.uleb128 0x13
 2927 0086 00       		.byte	0
 2928 0087 00       		.byte	0
 2929 0088 0B       		.uleb128 0xb
 2930 0089 0D       		.uleb128 0xd
 2931 008a 00       		.byte	0
 2932 008b 03       		.uleb128 0x3
 2933 008c 0E       		.uleb128 0xe
 2934 008d 3A       		.uleb128 0x3a
 2935 008e 0B       		.uleb128 0xb
 2936 008f 3B       		.uleb128 0x3b
 2937 0090 0B       		.uleb128 0xb
 2938 0091 49       		.uleb128 0x49
 2939 0092 13       		.uleb128 0x13
 2940 0093 38       		.uleb128 0x38
 2941 0094 0B       		.uleb128 0xb
 2942 0095 00       		.byte	0
 2943 0096 00       		.byte	0
 2944 0097 0C       		.uleb128 0xc
 2945 0098 0D       		.uleb128 0xd
 2946 0099 00       		.byte	0
 2947 009a 03       		.uleb128 0x3
 2948 009b 08       		.uleb128 0x8
 2949 009c 3A       		.uleb128 0x3a
 2950 009d 0B       		.uleb128 0xb
 2951 009e 3B       		.uleb128 0x3b
 2952 009f 05       		.uleb128 0x5
 2953 00a0 49       		.uleb128 0x49
 2954 00a1 13       		.uleb128 0x13
 2955 00a2 38       		.uleb128 0x38
 2956 00a3 0B       		.uleb128 0xb
 2957 00a4 00       		.byte	0
 2958 00a5 00       		.byte	0
 2959 00a6 0D       		.uleb128 0xd
 2960 00a7 0D       		.uleb128 0xd
 2961 00a8 00       		.byte	0
 2962 00a9 03       		.uleb128 0x3
 2963 00aa 0E       		.uleb128 0xe
 2964 00ab 3A       		.uleb128 0x3a
ARM GAS  /tmp/ccmLrqtN.s 			page 53


 2965 00ac 0B       		.uleb128 0xb
 2966 00ad 3B       		.uleb128 0x3b
 2967 00ae 05       		.uleb128 0x5
 2968 00af 49       		.uleb128 0x49
 2969 00b0 13       		.uleb128 0x13
 2970 00b1 38       		.uleb128 0x38
 2971 00b2 0B       		.uleb128 0xb
 2972 00b3 00       		.byte	0
 2973 00b4 00       		.byte	0
 2974 00b5 0E       		.uleb128 0xe
 2975 00b6 0F       		.uleb128 0xf
 2976 00b7 00       		.byte	0
 2977 00b8 0B       		.uleb128 0xb
 2978 00b9 0B       		.uleb128 0xb
 2979 00ba 49       		.uleb128 0x49
 2980 00bb 13       		.uleb128 0x13
 2981 00bc 00       		.byte	0
 2982 00bd 00       		.byte	0
 2983 00be 0F       		.uleb128 0xf
 2984 00bf 13       		.uleb128 0x13
 2985 00c0 01       		.byte	0x1
 2986 00c1 03       		.uleb128 0x3
 2987 00c2 0E       		.uleb128 0xe
 2988 00c3 0B       		.uleb128 0xb
 2989 00c4 0B       		.uleb128 0xb
 2990 00c5 3A       		.uleb128 0x3a
 2991 00c6 0B       		.uleb128 0xb
 2992 00c7 3B       		.uleb128 0x3b
 2993 00c8 05       		.uleb128 0x5
 2994 00c9 01       		.uleb128 0x1
 2995 00ca 13       		.uleb128 0x13
 2996 00cb 00       		.byte	0
 2997 00cc 00       		.byte	0
 2998 00cd 10       		.uleb128 0x10
 2999 00ce 15       		.uleb128 0x15
 3000 00cf 01       		.byte	0x1
 3001 00d0 27       		.uleb128 0x27
 3002 00d1 19       		.uleb128 0x19
 3003 00d2 01       		.uleb128 0x1
 3004 00d3 13       		.uleb128 0x13
 3005 00d4 00       		.byte	0
 3006 00d5 00       		.byte	0
 3007 00d6 11       		.uleb128 0x11
 3008 00d7 05       		.uleb128 0x5
 3009 00d8 00       		.byte	0
 3010 00d9 49       		.uleb128 0x49
 3011 00da 13       		.uleb128 0x13
 3012 00db 00       		.byte	0
 3013 00dc 00       		.byte	0
 3014 00dd 12       		.uleb128 0x12
 3015 00de 0F       		.uleb128 0xf
 3016 00df 00       		.byte	0
 3017 00e0 0B       		.uleb128 0xb
 3018 00e1 0B       		.uleb128 0xb
 3019 00e2 00       		.byte	0
 3020 00e3 00       		.byte	0
 3021 00e4 13       		.uleb128 0x13
ARM GAS  /tmp/ccmLrqtN.s 			page 54


 3022 00e5 13       		.uleb128 0x13
 3023 00e6 01       		.byte	0x1
 3024 00e7 03       		.uleb128 0x3
 3025 00e8 0E       		.uleb128 0xe
 3026 00e9 0B       		.uleb128 0xb
 3027 00ea 05       		.uleb128 0x5
 3028 00eb 3A       		.uleb128 0x3a
 3029 00ec 0B       		.uleb128 0xb
 3030 00ed 3B       		.uleb128 0x3b
 3031 00ee 05       		.uleb128 0x5
 3032 00ef 01       		.uleb128 0x1
 3033 00f0 13       		.uleb128 0x13
 3034 00f1 00       		.byte	0
 3035 00f2 00       		.byte	0
 3036 00f3 14       		.uleb128 0x14
 3037 00f4 0D       		.uleb128 0xd
 3038 00f5 00       		.byte	0
 3039 00f6 03       		.uleb128 0x3
 3040 00f7 08       		.uleb128 0x8
 3041 00f8 3A       		.uleb128 0x3a
 3042 00f9 0B       		.uleb128 0xb
 3043 00fa 3B       		.uleb128 0x3b
 3044 00fb 0B       		.uleb128 0xb
 3045 00fc 49       		.uleb128 0x49
 3046 00fd 13       		.uleb128 0x13
 3047 00fe 38       		.uleb128 0x38
 3048 00ff 0B       		.uleb128 0xb
 3049 0100 00       		.byte	0
 3050 0101 00       		.byte	0
 3051 0102 15       		.uleb128 0x15
 3052 0103 13       		.uleb128 0x13
 3053 0104 01       		.byte	0x1
 3054 0105 0B       		.uleb128 0xb
 3055 0106 0B       		.uleb128 0xb
 3056 0107 3A       		.uleb128 0x3a
 3057 0108 0B       		.uleb128 0xb
 3058 0109 3B       		.uleb128 0x3b
 3059 010a 0B       		.uleb128 0xb
 3060 010b 01       		.uleb128 0x1
 3061 010c 13       		.uleb128 0x13
 3062 010d 00       		.byte	0
 3063 010e 00       		.byte	0
 3064 010f 16       		.uleb128 0x16
 3065 0110 17       		.uleb128 0x17
 3066 0111 01       		.byte	0x1
 3067 0112 0B       		.uleb128 0xb
 3068 0113 0B       		.uleb128 0xb
 3069 0114 3A       		.uleb128 0x3a
 3070 0115 0B       		.uleb128 0xb
 3071 0116 3B       		.uleb128 0x3b
 3072 0117 0B       		.uleb128 0xb
 3073 0118 01       		.uleb128 0x1
 3074 0119 13       		.uleb128 0x13
 3075 011a 00       		.byte	0
 3076 011b 00       		.byte	0
 3077 011c 17       		.uleb128 0x17
 3078 011d 0D       		.uleb128 0xd
ARM GAS  /tmp/ccmLrqtN.s 			page 55


 3079 011e 00       		.byte	0
 3080 011f 03       		.uleb128 0x3
 3081 0120 0E       		.uleb128 0xe
 3082 0121 3A       		.uleb128 0x3a
 3083 0122 0B       		.uleb128 0xb
 3084 0123 3B       		.uleb128 0x3b
 3085 0124 05       		.uleb128 0x5
 3086 0125 49       		.uleb128 0x49
 3087 0126 13       		.uleb128 0x13
 3088 0127 00       		.byte	0
 3089 0128 00       		.byte	0
 3090 0129 18       		.uleb128 0x18
 3091 012a 26       		.uleb128 0x26
 3092 012b 00       		.byte	0
 3093 012c 49       		.uleb128 0x49
 3094 012d 13       		.uleb128 0x13
 3095 012e 00       		.byte	0
 3096 012f 00       		.byte	0
 3097 0130 19       		.uleb128 0x19
 3098 0131 01       		.uleb128 0x1
 3099 0132 01       		.byte	0x1
 3100 0133 49       		.uleb128 0x49
 3101 0134 13       		.uleb128 0x13
 3102 0135 01       		.uleb128 0x1
 3103 0136 13       		.uleb128 0x13
 3104 0137 00       		.byte	0
 3105 0138 00       		.byte	0
 3106 0139 1A       		.uleb128 0x1a
 3107 013a 21       		.uleb128 0x21
 3108 013b 00       		.byte	0
 3109 013c 49       		.uleb128 0x49
 3110 013d 13       		.uleb128 0x13
 3111 013e 2F       		.uleb128 0x2f
 3112 013f 0B       		.uleb128 0xb
 3113 0140 00       		.byte	0
 3114 0141 00       		.byte	0
 3115 0142 1B       		.uleb128 0x1b
 3116 0143 34       		.uleb128 0x34
 3117 0144 00       		.byte	0
 3118 0145 03       		.uleb128 0x3
 3119 0146 08       		.uleb128 0x8
 3120 0147 3A       		.uleb128 0x3a
 3121 0148 0B       		.uleb128 0xb
 3122 0149 3B       		.uleb128 0x3b
 3123 014a 05       		.uleb128 0x5
 3124 014b 49       		.uleb128 0x49
 3125 014c 13       		.uleb128 0x13
 3126 014d 3F       		.uleb128 0x3f
 3127 014e 19       		.uleb128 0x19
 3128 014f 3C       		.uleb128 0x3c
 3129 0150 19       		.uleb128 0x19
 3130 0151 00       		.byte	0
 3131 0152 00       		.byte	0
 3132 0153 1C       		.uleb128 0x1c
 3133 0154 34       		.uleb128 0x34
 3134 0155 00       		.byte	0
 3135 0156 03       		.uleb128 0x3
ARM GAS  /tmp/ccmLrqtN.s 			page 56


 3136 0157 0E       		.uleb128 0xe
 3137 0158 3A       		.uleb128 0x3a
 3138 0159 0B       		.uleb128 0xb
 3139 015a 3B       		.uleb128 0x3b
 3140 015b 0B       		.uleb128 0xb
 3141 015c 49       		.uleb128 0x49
 3142 015d 13       		.uleb128 0x13
 3143 015e 3F       		.uleb128 0x3f
 3144 015f 19       		.uleb128 0x19
 3145 0160 02       		.uleb128 0x2
 3146 0161 18       		.uleb128 0x18
 3147 0162 00       		.byte	0
 3148 0163 00       		.byte	0
 3149 0164 1D       		.uleb128 0x1d
 3150 0165 21       		.uleb128 0x21
 3151 0166 00       		.byte	0
 3152 0167 49       		.uleb128 0x49
 3153 0168 13       		.uleb128 0x13
 3154 0169 2F       		.uleb128 0x2f
 3155 016a 05       		.uleb128 0x5
 3156 016b 00       		.byte	0
 3157 016c 00       		.byte	0
 3158 016d 1E       		.uleb128 0x1e
 3159 016e 2E       		.uleb128 0x2e
 3160 016f 01       		.byte	0x1
 3161 0170 03       		.uleb128 0x3
 3162 0171 0E       		.uleb128 0xe
 3163 0172 3A       		.uleb128 0x3a
 3164 0173 0B       		.uleb128 0xb
 3165 0174 3B       		.uleb128 0x3b
 3166 0175 05       		.uleb128 0x5
 3167 0176 27       		.uleb128 0x27
 3168 0177 19       		.uleb128 0x19
 3169 0178 49       		.uleb128 0x49
 3170 0179 13       		.uleb128 0x13
 3171 017a 20       		.uleb128 0x20
 3172 017b 0B       		.uleb128 0xb
 3173 017c 01       		.uleb128 0x1
 3174 017d 13       		.uleb128 0x13
 3175 017e 00       		.byte	0
 3176 017f 00       		.byte	0
 3177 0180 1F       		.uleb128 0x1f
 3178 0181 05       		.uleb128 0x5
 3179 0182 00       		.byte	0
 3180 0183 03       		.uleb128 0x3
 3181 0184 0E       		.uleb128 0xe
 3182 0185 3A       		.uleb128 0x3a
 3183 0186 0B       		.uleb128 0xb
 3184 0187 3B       		.uleb128 0x3b
 3185 0188 05       		.uleb128 0x5
 3186 0189 49       		.uleb128 0x49
 3187 018a 13       		.uleb128 0x13
 3188 018b 00       		.byte	0
 3189 018c 00       		.byte	0
 3190 018d 20       		.uleb128 0x20
 3191 018e 34       		.uleb128 0x34
 3192 018f 00       		.byte	0
ARM GAS  /tmp/ccmLrqtN.s 			page 57


 3193 0190 03       		.uleb128 0x3
 3194 0191 0E       		.uleb128 0xe
 3195 0192 3A       		.uleb128 0x3a
 3196 0193 0B       		.uleb128 0xb
 3197 0194 3B       		.uleb128 0x3b
 3198 0195 05       		.uleb128 0x5
 3199 0196 49       		.uleb128 0x49
 3200 0197 13       		.uleb128 0x13
 3201 0198 00       		.byte	0
 3202 0199 00       		.byte	0
 3203 019a 21       		.uleb128 0x21
 3204 019b 0B       		.uleb128 0xb
 3205 019c 01       		.byte	0x1
 3206 019d 00       		.byte	0
 3207 019e 00       		.byte	0
 3208 019f 22       		.uleb128 0x22
 3209 01a0 34       		.uleb128 0x34
 3210 01a1 00       		.byte	0
 3211 01a2 03       		.uleb128 0x3
 3212 01a3 08       		.uleb128 0x8
 3213 01a4 3A       		.uleb128 0x3a
 3214 01a5 0B       		.uleb128 0xb
 3215 01a6 3B       		.uleb128 0x3b
 3216 01a7 05       		.uleb128 0x5
 3217 01a8 49       		.uleb128 0x49
 3218 01a9 13       		.uleb128 0x13
 3219 01aa 00       		.byte	0
 3220 01ab 00       		.byte	0
 3221 01ac 23       		.uleb128 0x23
 3222 01ad 2E       		.uleb128 0x2e
 3223 01ae 01       		.byte	0x1
 3224 01af 03       		.uleb128 0x3
 3225 01b0 0E       		.uleb128 0xe
 3226 01b1 3A       		.uleb128 0x3a
 3227 01b2 0B       		.uleb128 0xb
 3228 01b3 3B       		.uleb128 0x3b
 3229 01b4 05       		.uleb128 0x5
 3230 01b5 27       		.uleb128 0x27
 3231 01b6 19       		.uleb128 0x19
 3232 01b7 49       		.uleb128 0x49
 3233 01b8 13       		.uleb128 0x13
 3234 01b9 11       		.uleb128 0x11
 3235 01ba 01       		.uleb128 0x1
 3236 01bb 12       		.uleb128 0x12
 3237 01bc 06       		.uleb128 0x6
 3238 01bd 40       		.uleb128 0x40
 3239 01be 18       		.uleb128 0x18
 3240 01bf 9742     		.uleb128 0x2117
 3241 01c1 19       		.uleb128 0x19
 3242 01c2 01       		.uleb128 0x1
 3243 01c3 13       		.uleb128 0x13
 3244 01c4 00       		.byte	0
 3245 01c5 00       		.byte	0
 3246 01c6 24       		.uleb128 0x24
 3247 01c7 05       		.uleb128 0x5
 3248 01c8 00       		.byte	0
 3249 01c9 03       		.uleb128 0x3
ARM GAS  /tmp/ccmLrqtN.s 			page 58


 3250 01ca 0E       		.uleb128 0xe
 3251 01cb 3A       		.uleb128 0x3a
 3252 01cc 0B       		.uleb128 0xb
 3253 01cd 3B       		.uleb128 0x3b
 3254 01ce 05       		.uleb128 0x5
 3255 01cf 49       		.uleb128 0x49
 3256 01d0 13       		.uleb128 0x13
 3257 01d1 02       		.uleb128 0x2
 3258 01d2 17       		.uleb128 0x17
 3259 01d3 00       		.byte	0
 3260 01d4 00       		.byte	0
 3261 01d5 25       		.uleb128 0x25
 3262 01d6 34       		.uleb128 0x34
 3263 01d7 00       		.byte	0
 3264 01d8 03       		.uleb128 0x3
 3265 01d9 0E       		.uleb128 0xe
 3266 01da 3A       		.uleb128 0x3a
 3267 01db 0B       		.uleb128 0xb
 3268 01dc 3B       		.uleb128 0x3b
 3269 01dd 05       		.uleb128 0x5
 3270 01de 49       		.uleb128 0x49
 3271 01df 13       		.uleb128 0x13
 3272 01e0 02       		.uleb128 0x2
 3273 01e1 17       		.uleb128 0x17
 3274 01e2 00       		.byte	0
 3275 01e3 00       		.byte	0
 3276 01e4 26       		.uleb128 0x26
 3277 01e5 34       		.uleb128 0x34
 3278 01e6 00       		.byte	0
 3279 01e7 03       		.uleb128 0x3
 3280 01e8 0E       		.uleb128 0xe
 3281 01e9 3A       		.uleb128 0x3a
 3282 01ea 0B       		.uleb128 0xb
 3283 01eb 3B       		.uleb128 0x3b
 3284 01ec 05       		.uleb128 0x5
 3285 01ed 49       		.uleb128 0x49
 3286 01ee 13       		.uleb128 0x13
 3287 01ef 1C       		.uleb128 0x1c
 3288 01f0 0B       		.uleb128 0xb
 3289 01f1 00       		.byte	0
 3290 01f2 00       		.byte	0
 3291 01f3 27       		.uleb128 0x27
 3292 01f4 1D       		.uleb128 0x1d
 3293 01f5 01       		.byte	0x1
 3294 01f6 31       		.uleb128 0x31
 3295 01f7 13       		.uleb128 0x13
 3296 01f8 52       		.uleb128 0x52
 3297 01f9 01       		.uleb128 0x1
 3298 01fa 55       		.uleb128 0x55
 3299 01fb 17       		.uleb128 0x17
 3300 01fc 58       		.uleb128 0x58
 3301 01fd 0B       		.uleb128 0xb
 3302 01fe 59       		.uleb128 0x59
 3303 01ff 05       		.uleb128 0x5
 3304 0200 01       		.uleb128 0x1
 3305 0201 13       		.uleb128 0x13
 3306 0202 00       		.byte	0
ARM GAS  /tmp/ccmLrqtN.s 			page 59


 3307 0203 00       		.byte	0
 3308 0204 28       		.uleb128 0x28
 3309 0205 05       		.uleb128 0x5
 3310 0206 00       		.byte	0
 3311 0207 31       		.uleb128 0x31
 3312 0208 13       		.uleb128 0x13
 3313 0209 1C       		.uleb128 0x1c
 3314 020a 0B       		.uleb128 0xb
 3315 020b 00       		.byte	0
 3316 020c 00       		.byte	0
 3317 020d 29       		.uleb128 0x29
 3318 020e 0B       		.uleb128 0xb
 3319 020f 01       		.byte	0x1
 3320 0210 55       		.uleb128 0x55
 3321 0211 17       		.uleb128 0x17
 3322 0212 00       		.byte	0
 3323 0213 00       		.byte	0
 3324 0214 2A       		.uleb128 0x2a
 3325 0215 34       		.uleb128 0x34
 3326 0216 00       		.byte	0
 3327 0217 31       		.uleb128 0x31
 3328 0218 13       		.uleb128 0x13
 3329 0219 02       		.uleb128 0x2
 3330 021a 17       		.uleb128 0x17
 3331 021b 00       		.byte	0
 3332 021c 00       		.byte	0
 3333 021d 2B       		.uleb128 0x2b
 3334 021e 898201   		.uleb128 0x4109
 3335 0221 01       		.byte	0x1
 3336 0222 11       		.uleb128 0x11
 3337 0223 01       		.uleb128 0x1
 3338 0224 31       		.uleb128 0x31
 3339 0225 13       		.uleb128 0x13
 3340 0226 01       		.uleb128 0x1
 3341 0227 13       		.uleb128 0x13
 3342 0228 00       		.byte	0
 3343 0229 00       		.byte	0
 3344 022a 2C       		.uleb128 0x2c
 3345 022b 8A8201   		.uleb128 0x410a
 3346 022e 00       		.byte	0
 3347 022f 02       		.uleb128 0x2
 3348 0230 18       		.uleb128 0x18
 3349 0231 9142     		.uleb128 0x2111
 3350 0233 18       		.uleb128 0x18
 3351 0234 00       		.byte	0
 3352 0235 00       		.byte	0
 3353 0236 2D       		.uleb128 0x2d
 3354 0237 898201   		.uleb128 0x4109
 3355 023a 01       		.byte	0x1
 3356 023b 11       		.uleb128 0x11
 3357 023c 01       		.uleb128 0x1
 3358 023d 31       		.uleb128 0x31
 3359 023e 13       		.uleb128 0x13
 3360 023f 00       		.byte	0
 3361 0240 00       		.byte	0
 3362 0241 2E       		.uleb128 0x2e
 3363 0242 2E       		.uleb128 0x2e
ARM GAS  /tmp/ccmLrqtN.s 			page 60


 3364 0243 01       		.byte	0x1
 3365 0244 3F       		.uleb128 0x3f
 3366 0245 19       		.uleb128 0x19
 3367 0246 03       		.uleb128 0x3
 3368 0247 0E       		.uleb128 0xe
 3369 0248 3A       		.uleb128 0x3a
 3370 0249 0B       		.uleb128 0xb
 3371 024a 3B       		.uleb128 0x3b
 3372 024b 05       		.uleb128 0x5
 3373 024c 27       		.uleb128 0x27
 3374 024d 19       		.uleb128 0x19
 3375 024e 49       		.uleb128 0x49
 3376 024f 13       		.uleb128 0x13
 3377 0250 11       		.uleb128 0x11
 3378 0251 01       		.uleb128 0x1
 3379 0252 12       		.uleb128 0x12
 3380 0253 06       		.uleb128 0x6
 3381 0254 40       		.uleb128 0x40
 3382 0255 18       		.uleb128 0x18
 3383 0256 9742     		.uleb128 0x2117
 3384 0258 19       		.uleb128 0x19
 3385 0259 01       		.uleb128 0x1
 3386 025a 13       		.uleb128 0x13
 3387 025b 00       		.byte	0
 3388 025c 00       		.byte	0
 3389 025d 2F       		.uleb128 0x2f
 3390 025e 05       		.uleb128 0x5
 3391 025f 00       		.byte	0
 3392 0260 31       		.uleb128 0x31
 3393 0261 13       		.uleb128 0x13
 3394 0262 02       		.uleb128 0x2
 3395 0263 17       		.uleb128 0x17
 3396 0264 00       		.byte	0
 3397 0265 00       		.byte	0
 3398 0266 30       		.uleb128 0x30
 3399 0267 05       		.uleb128 0x5
 3400 0268 00       		.byte	0
 3401 0269 31       		.uleb128 0x31
 3402 026a 13       		.uleb128 0x13
 3403 026b 02       		.uleb128 0x2
 3404 026c 18       		.uleb128 0x18
 3405 026d 00       		.byte	0
 3406 026e 00       		.byte	0
 3407 026f 31       		.uleb128 0x31
 3408 0270 34       		.uleb128 0x34
 3409 0271 00       		.byte	0
 3410 0272 31       		.uleb128 0x31
 3411 0273 13       		.uleb128 0x13
 3412 0274 1C       		.uleb128 0x1c
 3413 0275 0B       		.uleb128 0xb
 3414 0276 00       		.byte	0
 3415 0277 00       		.byte	0
 3416 0278 32       		.uleb128 0x32
 3417 0279 1D       		.uleb128 0x1d
 3418 027a 01       		.byte	0x1
 3419 027b 31       		.uleb128 0x31
 3420 027c 13       		.uleb128 0x13
ARM GAS  /tmp/ccmLrqtN.s 			page 61


 3421 027d 11       		.uleb128 0x11
 3422 027e 01       		.uleb128 0x1
 3423 027f 12       		.uleb128 0x12
 3424 0280 06       		.uleb128 0x6
 3425 0281 58       		.uleb128 0x58
 3426 0282 0B       		.uleb128 0xb
 3427 0283 59       		.uleb128 0x59
 3428 0284 05       		.uleb128 0x5
 3429 0285 01       		.uleb128 0x1
 3430 0286 13       		.uleb128 0x13
 3431 0287 00       		.byte	0
 3432 0288 00       		.byte	0
 3433 0289 33       		.uleb128 0x33
 3434 028a 0B       		.uleb128 0xb
 3435 028b 01       		.byte	0x1
 3436 028c 11       		.uleb128 0x11
 3437 028d 01       		.uleb128 0x1
 3438 028e 12       		.uleb128 0x12
 3439 028f 06       		.uleb128 0x6
 3440 0290 00       		.byte	0
 3441 0291 00       		.byte	0
 3442 0292 34       		.uleb128 0x34
 3443 0293 898201   		.uleb128 0x4109
 3444 0296 00       		.byte	0
 3445 0297 11       		.uleb128 0x11
 3446 0298 01       		.uleb128 0x1
 3447 0299 31       		.uleb128 0x31
 3448 029a 13       		.uleb128 0x13
 3449 029b 00       		.byte	0
 3450 029c 00       		.byte	0
 3451 029d 35       		.uleb128 0x35
 3452 029e 05       		.uleb128 0x5
 3453 029f 00       		.byte	0
 3454 02a0 03       		.uleb128 0x3
 3455 02a1 0E       		.uleb128 0xe
 3456 02a2 3A       		.uleb128 0x3a
 3457 02a3 0B       		.uleb128 0xb
 3458 02a4 3B       		.uleb128 0x3b
 3459 02a5 05       		.uleb128 0x5
 3460 02a6 49       		.uleb128 0x49
 3461 02a7 13       		.uleb128 0x13
 3462 02a8 02       		.uleb128 0x2
 3463 02a9 18       		.uleb128 0x18
 3464 02aa 00       		.byte	0
 3465 02ab 00       		.byte	0
 3466 02ac 36       		.uleb128 0x36
 3467 02ad 1D       		.uleb128 0x1d
 3468 02ae 01       		.byte	0x1
 3469 02af 31       		.uleb128 0x31
 3470 02b0 13       		.uleb128 0x13
 3471 02b1 52       		.uleb128 0x52
 3472 02b2 01       		.uleb128 0x1
 3473 02b3 55       		.uleb128 0x55
 3474 02b4 17       		.uleb128 0x17
 3475 02b5 58       		.uleb128 0x58
 3476 02b6 0B       		.uleb128 0xb
 3477 02b7 59       		.uleb128 0x59
ARM GAS  /tmp/ccmLrqtN.s 			page 62


 3478 02b8 05       		.uleb128 0x5
 3479 02b9 00       		.byte	0
 3480 02ba 00       		.byte	0
 3481 02bb 37       		.uleb128 0x37
 3482 02bc 2E       		.uleb128 0x2e
 3483 02bd 01       		.byte	0x1
 3484 02be 3F       		.uleb128 0x3f
 3485 02bf 19       		.uleb128 0x19
 3486 02c0 03       		.uleb128 0x3
 3487 02c1 0E       		.uleb128 0xe
 3488 02c2 3A       		.uleb128 0x3a
 3489 02c3 0B       		.uleb128 0xb
 3490 02c4 3B       		.uleb128 0x3b
 3491 02c5 0B       		.uleb128 0xb
 3492 02c6 27       		.uleb128 0x27
 3493 02c7 19       		.uleb128 0x19
 3494 02c8 49       		.uleb128 0x49
 3495 02c9 13       		.uleb128 0x13
 3496 02ca 11       		.uleb128 0x11
 3497 02cb 01       		.uleb128 0x1
 3498 02cc 12       		.uleb128 0x12
 3499 02cd 06       		.uleb128 0x6
 3500 02ce 40       		.uleb128 0x40
 3501 02cf 18       		.uleb128 0x18
 3502 02d0 9742     		.uleb128 0x2117
 3503 02d2 19       		.uleb128 0x19
 3504 02d3 01       		.uleb128 0x1
 3505 02d4 13       		.uleb128 0x13
 3506 02d5 00       		.byte	0
 3507 02d6 00       		.byte	0
 3508 02d7 38       		.uleb128 0x38
 3509 02d8 34       		.uleb128 0x34
 3510 02d9 00       		.byte	0
 3511 02da 03       		.uleb128 0x3
 3512 02db 0E       		.uleb128 0xe
 3513 02dc 3A       		.uleb128 0x3a
 3514 02dd 0B       		.uleb128 0xb
 3515 02de 3B       		.uleb128 0x3b
 3516 02df 0B       		.uleb128 0xb
 3517 02e0 49       		.uleb128 0x49
 3518 02e1 13       		.uleb128 0x13
 3519 02e2 02       		.uleb128 0x2
 3520 02e3 17       		.uleb128 0x17
 3521 02e4 00       		.byte	0
 3522 02e5 00       		.byte	0
 3523 02e6 39       		.uleb128 0x39
 3524 02e7 34       		.uleb128 0x34
 3525 02e8 00       		.byte	0
 3526 02e9 03       		.uleb128 0x3
 3527 02ea 08       		.uleb128 0x8
 3528 02eb 3A       		.uleb128 0x3a
 3529 02ec 0B       		.uleb128 0xb
 3530 02ed 3B       		.uleb128 0x3b
 3531 02ee 0B       		.uleb128 0xb
 3532 02ef 49       		.uleb128 0x49
 3533 02f0 13       		.uleb128 0x13
 3534 02f1 02       		.uleb128 0x2
ARM GAS  /tmp/ccmLrqtN.s 			page 63


 3535 02f2 17       		.uleb128 0x17
 3536 02f3 00       		.byte	0
 3537 02f4 00       		.byte	0
 3538 02f5 3A       		.uleb128 0x3a
 3539 02f6 898201   		.uleb128 0x4109
 3540 02f9 01       		.byte	0x1
 3541 02fa 11       		.uleb128 0x11
 3542 02fb 01       		.uleb128 0x1
 3543 02fc 9542     		.uleb128 0x2115
 3544 02fe 19       		.uleb128 0x19
 3545 02ff 31       		.uleb128 0x31
 3546 0300 13       		.uleb128 0x13
 3547 0301 01       		.uleb128 0x1
 3548 0302 13       		.uleb128 0x13
 3549 0303 00       		.byte	0
 3550 0304 00       		.byte	0
 3551 0305 3B       		.uleb128 0x3b
 3552 0306 2E       		.uleb128 0x2e
 3553 0307 01       		.byte	0x1
 3554 0308 31       		.uleb128 0x31
 3555 0309 13       		.uleb128 0x13
 3556 030a 11       		.uleb128 0x11
 3557 030b 01       		.uleb128 0x1
 3558 030c 12       		.uleb128 0x12
 3559 030d 06       		.uleb128 0x6
 3560 030e 40       		.uleb128 0x40
 3561 030f 18       		.uleb128 0x18
 3562 0310 9742     		.uleb128 0x2117
 3563 0312 19       		.uleb128 0x19
 3564 0313 01       		.uleb128 0x1
 3565 0314 13       		.uleb128 0x13
 3566 0315 00       		.byte	0
 3567 0316 00       		.byte	0
 3568 0317 3C       		.uleb128 0x3c
 3569 0318 0B       		.uleb128 0xb
 3570 0319 01       		.byte	0x1
 3571 031a 31       		.uleb128 0x31
 3572 031b 13       		.uleb128 0x13
 3573 031c 11       		.uleb128 0x11
 3574 031d 01       		.uleb128 0x1
 3575 031e 12       		.uleb128 0x12
 3576 031f 06       		.uleb128 0x6
 3577 0320 01       		.uleb128 0x1
 3578 0321 13       		.uleb128 0x13
 3579 0322 00       		.byte	0
 3580 0323 00       		.byte	0
 3581 0324 3D       		.uleb128 0x3d
 3582 0325 0B       		.uleb128 0xb
 3583 0326 01       		.byte	0x1
 3584 0327 11       		.uleb128 0x11
 3585 0328 01       		.uleb128 0x1
 3586 0329 12       		.uleb128 0x12
 3587 032a 06       		.uleb128 0x6
 3588 032b 01       		.uleb128 0x1
 3589 032c 13       		.uleb128 0x13
 3590 032d 00       		.byte	0
 3591 032e 00       		.byte	0
ARM GAS  /tmp/ccmLrqtN.s 			page 64


 3592 032f 3E       		.uleb128 0x3e
 3593 0330 34       		.uleb128 0x34
 3594 0331 00       		.byte	0
 3595 0332 31       		.uleb128 0x31
 3596 0333 13       		.uleb128 0x13
 3597 0334 00       		.byte	0
 3598 0335 00       		.byte	0
 3599 0336 3F       		.uleb128 0x3f
 3600 0337 2E       		.uleb128 0x2e
 3601 0338 00       		.byte	0
 3602 0339 3F       		.uleb128 0x3f
 3603 033a 19       		.uleb128 0x19
 3604 033b 3C       		.uleb128 0x3c
 3605 033c 19       		.uleb128 0x19
 3606 033d 6E       		.uleb128 0x6e
 3607 033e 0E       		.uleb128 0xe
 3608 033f 03       		.uleb128 0x3
 3609 0340 0E       		.uleb128 0xe
 3610 0341 3A       		.uleb128 0x3a
 3611 0342 0B       		.uleb128 0xb
 3612 0343 3B       		.uleb128 0x3b
 3613 0344 05       		.uleb128 0x5
 3614 0345 00       		.byte	0
 3615 0346 00       		.byte	0
 3616 0347 40       		.uleb128 0x40
 3617 0348 2E       		.uleb128 0x2e
 3618 0349 00       		.byte	0
 3619 034a 3F       		.uleb128 0x3f
 3620 034b 19       		.uleb128 0x19
 3621 034c 3C       		.uleb128 0x3c
 3622 034d 19       		.uleb128 0x19
 3623 034e 6E       		.uleb128 0x6e
 3624 034f 0E       		.uleb128 0xe
 3625 0350 03       		.uleb128 0x3
 3626 0351 0E       		.uleb128 0xe
 3627 0352 3A       		.uleb128 0x3a
 3628 0353 0B       		.uleb128 0xb
 3629 0354 3B       		.uleb128 0x3b
 3630 0355 0B       		.uleb128 0xb
 3631 0356 00       		.byte	0
 3632 0357 00       		.byte	0
 3633 0358 00       		.byte	0
 3634              		.section	.debug_loc,"",%progbits
 3635              	.Ldebug_loc0:
 3636              	.LLST0:
 3637 0000 00000000 		.4byte	.LVL0
 3638 0004 40000000 		.4byte	.LVL7
 3639 0008 0100     		.2byte	0x1
 3640 000a 50       		.byte	0x50
 3641 000b 40000000 		.4byte	.LVL7
 3642 000f 4C000000 		.4byte	.LVL11
 3643 0013 0400     		.2byte	0x4
 3644 0015 F3       		.byte	0xf3
 3645 0016 01       		.uleb128 0x1
 3646 0017 50       		.byte	0x50
 3647 0018 9F       		.byte	0x9f
 3648 0019 4C000000 		.4byte	.LVL11
ARM GAS  /tmp/ccmLrqtN.s 			page 65


 3649 001d 5E000000 		.4byte	.LVL13
 3650 0021 0100     		.2byte	0x1
 3651 0023 50       		.byte	0x50
 3652 0024 5E000000 		.4byte	.LVL13
 3653 0028 60000000 		.4byte	.LVL14
 3654 002c 0400     		.2byte	0x4
 3655 002e F3       		.byte	0xf3
 3656 002f 01       		.uleb128 0x1
 3657 0030 50       		.byte	0x50
 3658 0031 9F       		.byte	0x9f
 3659 0032 60000000 		.4byte	.LVL14
 3660 0036 62000000 		.4byte	.LVL15
 3661 003a 0100     		.2byte	0x1
 3662 003c 50       		.byte	0x50
 3663 003d 62000000 		.4byte	.LVL15
 3664 0041 7C000000 		.4byte	.LFE224
 3665 0045 0400     		.2byte	0x4
 3666 0047 F3       		.byte	0xf3
 3667 0048 01       		.uleb128 0x1
 3668 0049 50       		.byte	0x50
 3669 004a 9F       		.byte	0x9f
 3670 004b 00000000 		.4byte	0
 3671 004f 00000000 		.4byte	0
 3672              	.LLST1:
 3673 0053 00000000 		.4byte	.LVL0
 3674 0057 43000000 		.4byte	.LVL8-1
 3675 005b 0100     		.2byte	0x1
 3676 005d 51       		.byte	0x51
 3677 005e 43000000 		.4byte	.LVL8-1
 3678 0062 4C000000 		.4byte	.LVL11
 3679 0066 0400     		.2byte	0x4
 3680 0068 F3       		.byte	0xf3
 3681 0069 01       		.uleb128 0x1
 3682 006a 51       		.byte	0x51
 3683 006b 9F       		.byte	0x9f
 3684 006c 4C000000 		.4byte	.LVL11
 3685 0070 64000000 		.4byte	.LVL16
 3686 0074 0100     		.2byte	0x1
 3687 0076 51       		.byte	0x51
 3688 0077 64000000 		.4byte	.LVL16
 3689 007b 7C000000 		.4byte	.LFE224
 3690 007f 0400     		.2byte	0x4
 3691 0081 F3       		.byte	0xf3
 3692 0082 01       		.uleb128 0x1
 3693 0083 51       		.byte	0x51
 3694 0084 9F       		.byte	0x9f
 3695 0085 00000000 		.4byte	0
 3696 0089 00000000 		.4byte	0
 3697              	.LLST2:
 3698 008d 00000000 		.4byte	.LVL0
 3699 0091 44000000 		.4byte	.LVL8
 3700 0095 0200     		.2byte	0x2
 3701 0097 39       		.byte	0x39
 3702 0098 9F       		.byte	0x9f
 3703 0099 44000000 		.4byte	.LVL8
 3704 009d 4A000000 		.4byte	.LVL10
 3705 00a1 0100     		.2byte	0x1
ARM GAS  /tmp/ccmLrqtN.s 			page 66


 3706 00a3 50       		.byte	0x50
 3707 00a4 4C000000 		.4byte	.LVL11
 3708 00a8 64000000 		.4byte	.LVL16
 3709 00ac 0200     		.2byte	0x2
 3710 00ae 39       		.byte	0x39
 3711 00af 9F       		.byte	0x9f
 3712 00b0 64000000 		.4byte	.LVL16
 3713 00b4 68000000 		.4byte	.LVL17
 3714 00b8 0100     		.2byte	0x1
 3715 00ba 50       		.byte	0x50
 3716 00bb 00000000 		.4byte	0
 3717 00bf 00000000 		.4byte	0
 3718              	.LLST3:
 3719 00c3 00000000 		.4byte	.LVL0
 3720 00c7 26000000 		.4byte	.LVL4
 3721 00cb 0600     		.2byte	0x6
 3722 00cd 0C       		.byte	0xc
 3723 00ce 00400008 		.4byte	0x8004000
 3724 00d2 9F       		.byte	0x9f
 3725 00d3 26000000 		.4byte	.LVL4
 3726 00d7 4C000000 		.4byte	.LVL11
 3727 00db 0100     		.2byte	0x1
 3728 00dd 54       		.byte	0x54
 3729 00de 4C000000 		.4byte	.LVL11
 3730 00e2 5C000000 		.4byte	.LVL12
 3731 00e6 0600     		.2byte	0x6
 3732 00e8 0C       		.byte	0xc
 3733 00e9 00400008 		.4byte	0x8004000
 3734 00ed 9F       		.byte	0x9f
 3735 00ee 5C000000 		.4byte	.LVL12
 3736 00f2 60000000 		.4byte	.LVL14
 3737 00f6 0100     		.2byte	0x1
 3738 00f8 54       		.byte	0x54
 3739 00f9 60000000 		.4byte	.LVL14
 3740 00fd 64000000 		.4byte	.LVL16
 3741 0101 0600     		.2byte	0x6
 3742 0103 0C       		.byte	0xc
 3743 0104 00400008 		.4byte	0x8004000
 3744 0108 9F       		.byte	0x9f
 3745 0109 64000000 		.4byte	.LVL16
 3746 010d 7C000000 		.4byte	.LFE224
 3747 0111 0100     		.2byte	0x1
 3748 0113 54       		.byte	0x54
 3749 0114 00000000 		.4byte	0
 3750 0118 00000000 		.4byte	0
 3751              	.LLST4:
 3752 011c 00000000 		.4byte	.LVL0
 3753 0120 2A000000 		.4byte	.LVL5
 3754 0124 0600     		.2byte	0x6
 3755 0126 0C       		.byte	0xc
 3756 0127 00800008 		.4byte	0x8008000
 3757 012b 9F       		.byte	0x9f
 3758 012c 2A000000 		.4byte	.LVL5
 3759 0130 43000000 		.4byte	.LVL8-1
 3760 0134 0100     		.2byte	0x1
 3761 0136 52       		.byte	0x52
 3762 0137 4C000000 		.4byte	.LVL11
ARM GAS  /tmp/ccmLrqtN.s 			page 67


 3763 013b 5C000000 		.4byte	.LVL12
 3764 013f 0600     		.2byte	0x6
 3765 0141 0C       		.byte	0xc
 3766 0142 00800008 		.4byte	0x8008000
 3767 0146 9F       		.byte	0x9f
 3768 0147 5C000000 		.4byte	.LVL12
 3769 014b 60000000 		.4byte	.LVL14
 3770 014f 0100     		.2byte	0x1
 3771 0151 52       		.byte	0x52
 3772 0152 60000000 		.4byte	.LVL14
 3773 0156 64000000 		.4byte	.LVL16
 3774 015a 0600     		.2byte	0x6
 3775 015c 0C       		.byte	0xc
 3776 015d 00800008 		.4byte	0x8008000
 3777 0161 9F       		.byte	0x9f
 3778 0162 00000000 		.4byte	0
 3779 0166 00000000 		.4byte	0
 3780              	.LLST5:
 3781 016a 00000000 		.4byte	.LVL0
 3782 016e 0E000000 		.4byte	.LVL1
 3783 0172 0200     		.2byte	0x2
 3784 0174 36       		.byte	0x36
 3785 0175 9F       		.byte	0x9f
 3786 0176 0E000000 		.4byte	.LVL1
 3787 017a 20000000 		.4byte	.LVL3
 3788 017e 0100     		.2byte	0x1
 3789 0180 52       		.byte	0x52
 3790 0181 4C000000 		.4byte	.LVL11
 3791 0185 5C000000 		.4byte	.LVL12
 3792 0189 0100     		.2byte	0x1
 3793 018b 52       		.byte	0x52
 3794 018c 60000000 		.4byte	.LVL14
 3795 0190 64000000 		.4byte	.LVL16
 3796 0194 0100     		.2byte	0x1
 3797 0196 52       		.byte	0x52
 3798 0197 00000000 		.4byte	0
 3799 019b 00000000 		.4byte	0
 3800              	.LLST6:
 3801 019f 00000000 		.4byte	.LVL0
 3802 01a3 0E000000 		.4byte	.LVL1
 3803 01a7 0200     		.2byte	0x2
 3804 01a9 36       		.byte	0x36
 3805 01aa 9F       		.byte	0x9f
 3806 01ab 0E000000 		.4byte	.LVL1
 3807 01af 1E000000 		.4byte	.LVL2
 3808 01b3 0100     		.2byte	0x1
 3809 01b5 54       		.byte	0x54
 3810 01b6 4C000000 		.4byte	.LVL11
 3811 01ba 5C000000 		.4byte	.LVL12
 3812 01be 0100     		.2byte	0x1
 3813 01c0 54       		.byte	0x54
 3814 01c1 60000000 		.4byte	.LVL14
 3815 01c5 64000000 		.4byte	.LVL16
 3816 01c9 0100     		.2byte	0x1
 3817 01cb 54       		.byte	0x54
 3818 01cc 00000000 		.4byte	0
 3819 01d0 00000000 		.4byte	0
ARM GAS  /tmp/ccmLrqtN.s 			page 68


 3820              	.LLST25:
 3821 01d4 00000000 		.4byte	.LVL92
 3822 01d8 0B000000 		.4byte	.LVL93-1
 3823 01dc 0100     		.2byte	0x1
 3824 01de 50       		.byte	0x50
 3825 01df 0B000000 		.4byte	.LVL93-1
 3826 01e3 C0000000 		.4byte	.LFE221
 3827 01e7 0400     		.2byte	0x4
 3828 01e9 F3       		.byte	0xf3
 3829 01ea 01       		.uleb128 0x1
 3830 01eb 50       		.byte	0x50
 3831 01ec 9F       		.byte	0x9f
 3832 01ed 00000000 		.4byte	0
 3833 01f1 00000000 		.4byte	0
 3834              	.LLST26:
 3835 01f5 00000000 		.4byte	.LVL92
 3836 01f9 0B000000 		.4byte	.LVL93-1
 3837 01fd 0100     		.2byte	0x1
 3838 01ff 51       		.byte	0x51
 3839 0200 0B000000 		.4byte	.LVL93-1
 3840 0204 C0000000 		.4byte	.LFE221
 3841 0208 0400     		.2byte	0x4
 3842 020a F3       		.byte	0xf3
 3843 020b 01       		.uleb128 0x1
 3844 020c 51       		.byte	0x51
 3845 020d 9F       		.byte	0x9f
 3846 020e 00000000 		.4byte	0
 3847 0212 00000000 		.4byte	0
 3848              	.LLST27:
 3849 0216 00000000 		.4byte	.LVL92
 3850 021a 10000000 		.4byte	.LVL94
 3851 021e 0200     		.2byte	0x2
 3852 0220 30       		.byte	0x30
 3853 0221 9F       		.byte	0x9f
 3854 0222 10000000 		.4byte	.LVL94
 3855 0226 12000000 		.4byte	.LVL95
 3856 022a 0100     		.2byte	0x1
 3857 022c 50       		.byte	0x50
 3858 022d 12000000 		.4byte	.LVL95
 3859 0231 18000000 		.4byte	.LVL96
 3860 0235 0100     		.2byte	0x1
 3861 0237 54       		.byte	0x54
 3862 0238 18000000 		.4byte	.LVL96
 3863 023c 34000000 		.4byte	.LVL100
 3864 0240 0100     		.2byte	0x1
 3865 0242 50       		.byte	0x50
 3866 0243 3E000000 		.4byte	.LVL103
 3867 0247 44000000 		.4byte	.LVL104
 3868 024b 0100     		.2byte	0x1
 3869 024d 54       		.byte	0x54
 3870 024e 44000000 		.4byte	.LVL104
 3871 0252 4E000000 		.4byte	.LVL105
 3872 0256 0100     		.2byte	0x1
 3873 0258 50       		.byte	0x50
 3874 0259 00000000 		.4byte	0
 3875 025d 00000000 		.4byte	0
 3876              	.LLST28:
ARM GAS  /tmp/ccmLrqtN.s 			page 69


 3877 0261 18000000 		.4byte	.LVL96
 3878 0265 3C000000 		.4byte	.LVL102
 3879 0269 0100     		.2byte	0x1
 3880 026b 55       		.byte	0x55
 3881 026c 44000000 		.4byte	.LVL104
 3882 0270 5E000000 		.4byte	.LVL109
 3883 0274 0100     		.2byte	0x1
 3884 0276 55       		.byte	0x55
 3885 0277 00000000 		.4byte	0
 3886 027b 00000000 		.4byte	0
 3887              	.LLST29:
 3888 027f 18000000 		.4byte	.LVL96
 3889 0283 38000000 		.4byte	.LVL101
 3890 0287 0200     		.2byte	0x2
 3891 0289 39       		.byte	0x39
 3892 028a 9F       		.byte	0x9f
 3893 028b 38000000 		.4byte	.LVL101
 3894 028f 3C000000 		.4byte	.LVL102
 3895 0293 0100     		.2byte	0x1
 3896 0295 50       		.byte	0x50
 3897 0296 44000000 		.4byte	.LVL104
 3898 029a 4E000000 		.4byte	.LVL105
 3899 029e 0200     		.2byte	0x2
 3900 02a0 39       		.byte	0x39
 3901 02a1 9F       		.byte	0x9f
 3902 02a2 4E000000 		.4byte	.LVL105
 3903 02a6 52000000 		.4byte	.LVL106
 3904 02aa 0100     		.2byte	0x1
 3905 02ac 50       		.byte	0x50
 3906 02ad 9A000000 		.4byte	.LVL115
 3907 02b1 A2000000 		.4byte	.LVL116
 3908 02b5 0100     		.2byte	0x1
 3909 02b7 50       		.byte	0x50
 3910 02b8 A8000000 		.4byte	.LVL117
 3911 02bc C0000000 		.4byte	.LFE221
 3912 02c0 0100     		.2byte	0x1
 3913 02c2 50       		.byte	0x50
 3914 02c3 00000000 		.4byte	0
 3915 02c7 00000000 		.4byte	0
 3916              	.LLST30:
 3917 02cb 18000000 		.4byte	.LVL96
 3918 02cf 2E000000 		.4byte	.LVL99
 3919 02d3 0600     		.2byte	0x6
 3920 02d5 0C       		.byte	0xc
 3921 02d6 00400008 		.4byte	0x8004000
 3922 02da 9F       		.byte	0x9f
 3923 02db 2E000000 		.4byte	.LVL99
 3924 02df 44000000 		.4byte	.LVL104
 3925 02e3 0100     		.2byte	0x1
 3926 02e5 57       		.byte	0x57
 3927 02e6 44000000 		.4byte	.LVL104
 3928 02ea 4E000000 		.4byte	.LVL105
 3929 02ee 0600     		.2byte	0x6
 3930 02f0 0C       		.byte	0xc
 3931 02f1 00400008 		.4byte	0x8004000
 3932 02f5 9F       		.byte	0x9f
 3933 02f6 4E000000 		.4byte	.LVL105
ARM GAS  /tmp/ccmLrqtN.s 			page 70


 3934 02fa C0000000 		.4byte	.LFE221
 3935 02fe 0100     		.2byte	0x1
 3936 0300 57       		.byte	0x57
 3937 0301 00000000 		.4byte	0
 3938 0305 00000000 		.4byte	0
 3939              	.LLST31:
 3940 0309 18000000 		.4byte	.LVL96
 3941 030d 2E000000 		.4byte	.LVL99
 3942 0311 0200     		.2byte	0x2
 3943 0313 30       		.byte	0x30
 3944 0314 9F       		.byte	0x9f
 3945 0315 2E000000 		.4byte	.LVL99
 3946 0319 44000000 		.4byte	.LVL104
 3947 031d 0100     		.2byte	0x1
 3948 031f 58       		.byte	0x58
 3949 0320 44000000 		.4byte	.LVL104
 3950 0324 4E000000 		.4byte	.LVL105
 3951 0328 0200     		.2byte	0x2
 3952 032a 30       		.byte	0x30
 3953 032b 9F       		.byte	0x9f
 3954 032c 4E000000 		.4byte	.LVL105
 3955 0330 C0000000 		.4byte	.LFE221
 3956 0334 0100     		.2byte	0x1
 3957 0336 58       		.byte	0x58
 3958 0337 00000000 		.4byte	0
 3959 033b 00000000 		.4byte	0
 3960              	.LLST32:
 3961 033f 18000000 		.4byte	.LVL96
 3962 0343 3C000000 		.4byte	.LVL102
 3963 0347 0200     		.2byte	0x2
 3964 0349 30       		.byte	0x30
 3965 034a 9F       		.byte	0x9f
 3966 034b 44000000 		.4byte	.LVL104
 3967 034f 68000000 		.4byte	.LVL110
 3968 0353 0200     		.2byte	0x2
 3969 0355 30       		.byte	0x30
 3970 0356 9F       		.byte	0x9f
 3971 0357 00000000 		.4byte	0
 3972 035b 00000000 		.4byte	0
 3973              	.LLST33:
 3974 035f 18000000 		.4byte	.LVL96
 3975 0363 3C000000 		.4byte	.LVL102
 3976 0367 0200     		.2byte	0x2
 3977 0369 30       		.byte	0x30
 3978 036a 9F       		.byte	0x9f
 3979 036b 44000000 		.4byte	.LVL104
 3980 036f 5A000000 		.4byte	.LVL108
 3981 0373 0200     		.2byte	0x2
 3982 0375 30       		.byte	0x30
 3983 0376 9F       		.byte	0x9f
 3984 0377 5A000000 		.4byte	.LVL108
 3985 037b 68000000 		.4byte	.LVL110
 3986 037f 0100     		.2byte	0x1
 3987 0381 50       		.byte	0x50
 3988 0382 8C000000 		.4byte	.LVL113
 3989 0386 94000000 		.4byte	.LVL114
 3990 038a 0100     		.2byte	0x1
ARM GAS  /tmp/ccmLrqtN.s 			page 71


 3991 038c 50       		.byte	0x50
 3992 038d 00000000 		.4byte	0
 3993 0391 00000000 		.4byte	0
 3994              	.LLST34:
 3995 0395 18000000 		.4byte	.LVL96
 3996 0399 3C000000 		.4byte	.LVL102
 3997 039d 0200     		.2byte	0x2
 3998 039f 30       		.byte	0x30
 3999 03a0 9F       		.byte	0x9f
 4000 03a1 44000000 		.4byte	.LVL104
 4001 03a5 68000000 		.4byte	.LVL110
 4002 03a9 0200     		.2byte	0x2
 4003 03ab 30       		.byte	0x30
 4004 03ac 9F       		.byte	0x9f
 4005 03ad 7C000000 		.4byte	.LVL111
 4006 03b1 88000000 		.4byte	.LVL112
 4007 03b5 0100     		.2byte	0x1
 4008 03b7 50       		.byte	0x50
 4009 03b8 00000000 		.4byte	0
 4010 03bc 00000000 		.4byte	0
 4011              	.LLST35:
 4012 03c0 18000000 		.4byte	.LVL96
 4013 03c4 22000000 		.4byte	.LVL97
 4014 03c8 0200     		.2byte	0x2
 4015 03ca 36       		.byte	0x36
 4016 03cb 9F       		.byte	0x9f
 4017 03cc 22000000 		.4byte	.LVL97
 4018 03d0 37000000 		.4byte	.LVL101-1
 4019 03d4 0100     		.2byte	0x1
 4020 03d6 53       		.byte	0x53
 4021 03d7 44000000 		.4byte	.LVL104
 4022 03db 4E000000 		.4byte	.LVL105
 4023 03df 0100     		.2byte	0x1
 4024 03e1 53       		.byte	0x53
 4025 03e2 00000000 		.4byte	0
 4026 03e6 00000000 		.4byte	0
 4027              	.LLST36:
 4028 03ea 18000000 		.4byte	.LVL96
 4029 03ee 24000000 		.4byte	.LVL98
 4030 03f2 0200     		.2byte	0x2
 4031 03f4 36       		.byte	0x36
 4032 03f5 9F       		.byte	0x9f
 4033 03f6 24000000 		.4byte	.LVL98
 4034 03fa 37000000 		.4byte	.LVL101-1
 4035 03fe 0100     		.2byte	0x1
 4036 0400 52       		.byte	0x52
 4037 0401 44000000 		.4byte	.LVL104
 4038 0405 4E000000 		.4byte	.LVL105
 4039 0409 0100     		.2byte	0x1
 4040 040b 52       		.byte	0x52
 4041 040c 00000000 		.4byte	0
 4042 0410 00000000 		.4byte	0
 4043              	.LLST11:
 4044 0414 00000000 		.4byte	.LVL36
 4045 0418 36000000 		.4byte	.LVL48
 4046 041c 0100     		.2byte	0x1
 4047 041e 50       		.byte	0x50
ARM GAS  /tmp/ccmLrqtN.s 			page 72


 4048 041f 36000000 		.4byte	.LVL48
 4049 0423 3C000000 		.4byte	.LVL49
 4050 0427 0400     		.2byte	0x4
 4051 0429 F3       		.byte	0xf3
 4052 042a 01       		.uleb128 0x1
 4053 042b 50       		.byte	0x50
 4054 042c 9F       		.byte	0x9f
 4055 042d 3C000000 		.4byte	.LVL49
 4056 0431 44000000 		.4byte	.LVL51
 4057 0435 0100     		.2byte	0x1
 4058 0437 50       		.byte	0x50
 4059 0438 44000000 		.4byte	.LVL51
 4060 043c 4A000000 		.4byte	.LVL52
 4061 0440 0400     		.2byte	0x4
 4062 0442 F3       		.byte	0xf3
 4063 0443 01       		.uleb128 0x1
 4064 0444 50       		.byte	0x50
 4065 0445 9F       		.byte	0x9f
 4066 0446 4A000000 		.4byte	.LVL52
 4067 044a 4C000000 		.4byte	.LVL53
 4068 044e 0100     		.2byte	0x1
 4069 0450 50       		.byte	0x50
 4070 0451 4C000000 		.4byte	.LVL53
 4071 0455 6C000000 		.4byte	.LFE220
 4072 0459 0400     		.2byte	0x4
 4073 045b F3       		.byte	0xf3
 4074 045c 01       		.uleb128 0x1
 4075 045d 50       		.byte	0x50
 4076 045e 9F       		.byte	0x9f
 4077 045f 00000000 		.4byte	0
 4078 0463 00000000 		.4byte	0
 4079              	.LLST12:
 4080 0467 00000000 		.4byte	.LVL36
 4081 046b 22000000 		.4byte	.LVL43
 4082 046f 0400     		.2byte	0x4
 4083 0471 0A       		.byte	0xa
 4084 0472 5555     		.2byte	0x5555
 4085 0474 9F       		.byte	0x9f
 4086 0475 22000000 		.4byte	.LVL43
 4087 0479 28000000 		.4byte	.LVL44
 4088 047d 0100     		.2byte	0x1
 4089 047f 52       		.byte	0x52
 4090 0480 2A000000 		.4byte	.LVL45
 4091 0484 2E000000 		.4byte	.LVL46
 4092 0488 0100     		.2byte	0x1
 4093 048a 52       		.byte	0x52
 4094 048b 4A000000 		.4byte	.LVL52
 4095 048f 6C000000 		.4byte	.LFE220
 4096 0493 0400     		.2byte	0x4
 4097 0495 0A       		.byte	0xa
 4098 0496 5555     		.2byte	0x5555
 4099 0498 9F       		.byte	0x9f
 4100 0499 00000000 		.4byte	0
 4101 049d 00000000 		.4byte	0
 4102              	.LLST13:
 4103 04a1 00000000 		.4byte	.LVL36
 4104 04a5 42000000 		.4byte	.LVL50
ARM GAS  /tmp/ccmLrqtN.s 			page 73


 4105 04a9 0200     		.2byte	0x2
 4106 04ab 31       		.byte	0x31
 4107 04ac 9F       		.byte	0x9f
 4108 04ad 42000000 		.4byte	.LVL50
 4109 04b1 4A000000 		.4byte	.LVL52
 4110 04b5 0200     		.2byte	0x2
 4111 04b7 30       		.byte	0x30
 4112 04b8 9F       		.byte	0x9f
 4113 04b9 4A000000 		.4byte	.LVL52
 4114 04bd 6C000000 		.4byte	.LFE220
 4115 04c1 0200     		.2byte	0x2
 4116 04c3 31       		.byte	0x31
 4117 04c4 9F       		.byte	0x9f
 4118 04c5 00000000 		.4byte	0
 4119 04c9 00000000 		.4byte	0
 4120              	.LLST14:
 4121 04cd 00000000 		.4byte	.LVL36
 4122 04d1 20000000 		.4byte	.LVL42
 4123 04d5 0600     		.2byte	0x6
 4124 04d7 0C       		.byte	0xc
 4125 04d8 00400008 		.4byte	0x8004000
 4126 04dc 9F       		.byte	0x9f
 4127 04dd 28000000 		.4byte	.LVL44
 4128 04e1 3C000000 		.4byte	.LVL49
 4129 04e5 0100     		.2byte	0x1
 4130 04e7 53       		.byte	0x53
 4131 04e8 4A000000 		.4byte	.LVL52
 4132 04ec 6C000000 		.4byte	.LFE220
 4133 04f0 0600     		.2byte	0x6
 4134 04f2 0C       		.byte	0xc
 4135 04f3 00400008 		.4byte	0x8004000
 4136 04f7 9F       		.byte	0x9f
 4137 04f8 00000000 		.4byte	0
 4138 04fc 00000000 		.4byte	0
 4139              	.LLST15:
 4140 0500 00000000 		.4byte	.LVL36
 4141 0504 20000000 		.4byte	.LVL42
 4142 0508 0600     		.2byte	0x6
 4143 050a 0C       		.byte	0xc
 4144 050b 00400008 		.4byte	0x8004000
 4145 050f 9F       		.byte	0x9f
 4146 0510 4A000000 		.4byte	.LVL52
 4147 0514 6C000000 		.4byte	.LFE220
 4148 0518 0600     		.2byte	0x6
 4149 051a 0C       		.byte	0xc
 4150 051b 00400008 		.4byte	0x8004000
 4151 051f 9F       		.byte	0x9f
 4152 0520 00000000 		.4byte	0
 4153 0524 00000000 		.4byte	0
 4154              	.LLST16:
 4155 0528 00000000 		.4byte	.LVL36
 4156 052c 0A000000 		.4byte	.LVL37
 4157 0530 0200     		.2byte	0x2
 4158 0532 36       		.byte	0x36
 4159 0533 9F       		.byte	0x9f
 4160 0534 0A000000 		.4byte	.LVL37
 4161 0538 14000000 		.4byte	.LVL38
ARM GAS  /tmp/ccmLrqtN.s 			page 74


 4162 053c 0100     		.2byte	0x1
 4163 053e 53       		.byte	0x53
 4164 053f 1A000000 		.4byte	.LVL40
 4165 0543 1C000000 		.4byte	.LVL41
 4166 0547 0100     		.2byte	0x1
 4167 0549 53       		.byte	0x53
 4168 054a 4A000000 		.4byte	.LVL52
 4169 054e 6C000000 		.4byte	.LFE220
 4170 0552 0100     		.2byte	0x1
 4171 0554 53       		.byte	0x53
 4172 0555 00000000 		.4byte	0
 4173 0559 00000000 		.4byte	0
 4174              	.LLST17:
 4175 055d 00000000 		.4byte	.LVL36
 4176 0561 0A000000 		.4byte	.LVL37
 4177 0565 0200     		.2byte	0x2
 4178 0567 36       		.byte	0x36
 4179 0568 9F       		.byte	0x9f
 4180 0569 0A000000 		.4byte	.LVL37
 4181 056d 18000000 		.4byte	.LVL39
 4182 0571 0100     		.2byte	0x1
 4183 0573 52       		.byte	0x52
 4184 0574 1A000000 		.4byte	.LVL40
 4185 0578 20000000 		.4byte	.LVL42
 4186 057c 0100     		.2byte	0x1
 4187 057e 52       		.byte	0x52
 4188 057f 4A000000 		.4byte	.LVL52
 4189 0583 6C000000 		.4byte	.LFE220
 4190 0587 0100     		.2byte	0x1
 4191 0589 52       		.byte	0x52
 4192 058a 00000000 		.4byte	0
 4193 058e 00000000 		.4byte	0
 4194              	.LLST18:
 4195 0592 00000000 		.4byte	.LVL54
 4196 0596 0E000000 		.4byte	.LVL55
 4197 059a 0200     		.2byte	0x2
 4198 059c 36       		.byte	0x36
 4199 059d 9F       		.byte	0x9f
 4200 059e 0E000000 		.4byte	.LVL55
 4201 05a2 28000000 		.4byte	.LVL58
 4202 05a6 0100     		.2byte	0x1
 4203 05a8 54       		.byte	0x54
 4204 05a9 2C000000 		.4byte	.LVL59
 4205 05ad 40000000 		.4byte	.LVL60
 4206 05b1 0100     		.2byte	0x1
 4207 05b3 54       		.byte	0x54
 4208 05b4 8E000000 		.4byte	.LVL70
 4209 05b8 B6000000 		.4byte	.LVL76
 4210 05bc 0100     		.2byte	0x1
 4211 05be 54       		.byte	0x54
 4212 05bf 08010000 		.4byte	.LVL87
 4213 05c3 40010000 		.4byte	.LFE219
 4214 05c7 0100     		.2byte	0x1
 4215 05c9 54       		.byte	0x54
 4216 05ca 00000000 		.4byte	0
 4217 05ce 00000000 		.4byte	0
 4218              	.LLST19:
ARM GAS  /tmp/ccmLrqtN.s 			page 75


 4219 05d2 00000000 		.4byte	.LVL54
 4220 05d6 16000000 		.4byte	.LVL56
 4221 05da 0200     		.2byte	0x2
 4222 05dc 36       		.byte	0x36
 4223 05dd 9F       		.byte	0x9f
 4224 05de 16000000 		.4byte	.LVL56
 4225 05e2 25000000 		.4byte	.LVL57-1
 4226 05e6 0100     		.2byte	0x1
 4227 05e8 53       		.byte	0x53
 4228 05e9 2C000000 		.4byte	.LVL59
 4229 05ed 40000000 		.4byte	.LVL60
 4230 05f1 0100     		.2byte	0x1
 4231 05f3 53       		.byte	0x53
 4232 05f4 8E000000 		.4byte	.LVL70
 4233 05f8 9B000000 		.4byte	.LVL71-1
 4234 05fc 0100     		.2byte	0x1
 4235 05fe 53       		.byte	0x53
 4236 05ff AC000000 		.4byte	.LVL75
 4237 0603 BA000000 		.4byte	.LVL77
 4238 0607 0100     		.2byte	0x1
 4239 0609 53       		.byte	0x53
 4240 060a 08010000 		.4byte	.LVL87
 4241 060e 15010000 		.4byte	.LVL88-1
 4242 0612 0100     		.2byte	0x1
 4243 0614 53       		.byte	0x53
 4244 0615 00000000 		.4byte	0
 4245 0619 00000000 		.4byte	0
 4246              	.LLST20:
 4247 061d 00000000 		.4byte	.LVL54
 4248 0621 28000000 		.4byte	.LVL58
 4249 0625 0200     		.2byte	0x2
 4250 0627 30       		.byte	0x30
 4251 0628 9F       		.byte	0x9f
 4252 0629 2C000000 		.4byte	.LVL59
 4253 062d 40000000 		.4byte	.LVL60
 4254 0631 0200     		.2byte	0x2
 4255 0633 30       		.byte	0x30
 4256 0634 9F       		.byte	0x9f
 4257 0635 40000000 		.4byte	.LVL60
 4258 0639 56000000 		.4byte	.LVL62
 4259 063d 0100     		.2byte	0x1
 4260 063f 54       		.byte	0x54
 4261 0640 8E000000 		.4byte	.LVL70
 4262 0644 BA000000 		.4byte	.LVL77
 4263 0648 0200     		.2byte	0x2
 4264 064a 30       		.byte	0x30
 4265 064b 9F       		.byte	0x9f
 4266 064c BA000000 		.4byte	.LVL77
 4267 0650 D2000000 		.4byte	.LVL79
 4268 0654 0100     		.2byte	0x1
 4269 0656 54       		.byte	0x54
 4270 0657 08010000 		.4byte	.LVL87
 4271 065b 40010000 		.4byte	.LFE219
 4272 065f 0200     		.2byte	0x2
 4273 0661 30       		.byte	0x30
 4274 0662 9F       		.byte	0x9f
 4275 0663 00000000 		.4byte	0
ARM GAS  /tmp/ccmLrqtN.s 			page 76


 4276 0667 00000000 		.4byte	0
 4277              	.LLST21:
 4278 066b 00000000 		.4byte	.LVL54
 4279 066f 28000000 		.4byte	.LVL58
 4280 0673 0200     		.2byte	0x2
 4281 0675 30       		.byte	0x30
 4282 0676 9F       		.byte	0x9f
 4283 0677 2C000000 		.4byte	.LVL59
 4284 067b 40000000 		.4byte	.LVL60
 4285 067f 0200     		.2byte	0x2
 4286 0681 30       		.byte	0x30
 4287 0682 9F       		.byte	0x9f
 4288 0683 6C000000 		.4byte	.LVL65
 4289 0687 70000000 		.4byte	.LVL66
 4290 068b 0100     		.2byte	0x1
 4291 068d 50       		.byte	0x50
 4292 068e 8E000000 		.4byte	.LVL70
 4293 0692 BA000000 		.4byte	.LVL77
 4294 0696 0200     		.2byte	0x2
 4295 0698 30       		.byte	0x30
 4296 0699 9F       		.byte	0x9f
 4297 069a E6000000 		.4byte	.LVL82
 4298 069e EA000000 		.4byte	.LVL83
 4299 06a2 0100     		.2byte	0x1
 4300 06a4 50       		.byte	0x50
 4301 06a5 08010000 		.4byte	.LVL87
 4302 06a9 40010000 		.4byte	.LFE219
 4303 06ad 0200     		.2byte	0x2
 4304 06af 30       		.byte	0x30
 4305 06b0 9F       		.byte	0x9f
 4306 06b1 00000000 		.4byte	0
 4307 06b5 00000000 		.4byte	0
 4308              	.LLST22:
 4309 06b9 00000000 		.4byte	.LVL54
 4310 06bd 28000000 		.4byte	.LVL58
 4311 06c1 0200     		.2byte	0x2
 4312 06c3 30       		.byte	0x30
 4313 06c4 9F       		.byte	0x9f
 4314 06c5 2C000000 		.4byte	.LVL59
 4315 06c9 40000000 		.4byte	.LVL60
 4316 06cd 0200     		.2byte	0x2
 4317 06cf 30       		.byte	0x30
 4318 06d0 9F       		.byte	0x9f
 4319 06d1 5C000000 		.4byte	.LVL63
 4320 06d5 68000000 		.4byte	.LVL64
 4321 06d9 0100     		.2byte	0x1
 4322 06db 50       		.byte	0x50
 4323 06dc 8E000000 		.4byte	.LVL70
 4324 06e0 BA000000 		.4byte	.LVL77
 4325 06e4 0200     		.2byte	0x2
 4326 06e6 30       		.byte	0x30
 4327 06e7 9F       		.byte	0x9f
 4328 06e8 D8000000 		.4byte	.LVL80
 4329 06ec E2000000 		.4byte	.LVL81
 4330 06f0 0100     		.2byte	0x1
 4331 06f2 50       		.byte	0x50
 4332 06f3 08010000 		.4byte	.LVL87
ARM GAS  /tmp/ccmLrqtN.s 			page 77


 4333 06f7 40010000 		.4byte	.LFE219
 4334 06fb 0200     		.2byte	0x2
 4335 06fd 30       		.byte	0x30
 4336 06fe 9F       		.byte	0x9f
 4337 06ff 00000000 		.4byte	0
 4338 0703 00000000 		.4byte	0
 4339              	.LLST23:
 4340 0707 00000000 		.4byte	.LVL54
 4341 070b 28000000 		.4byte	.LVL58
 4342 070f 0300     		.2byte	0x3
 4343 0711 09       		.byte	0x9
 4344 0712 FF       		.byte	0xff
 4345 0713 9F       		.byte	0x9f
 4346 0714 2C000000 		.4byte	.LVL59
 4347 0718 40000000 		.4byte	.LVL60
 4348 071c 0300     		.2byte	0x3
 4349 071e 09       		.byte	0x9
 4350 071f FF       		.byte	0xff
 4351 0720 9F       		.byte	0x9f
 4352 0721 40000000 		.4byte	.LVL60
 4353 0725 84000000 		.4byte	.LVL69
 4354 0729 0100     		.2byte	0x1
 4355 072b 56       		.byte	0x56
 4356 072c 8E000000 		.4byte	.LVL70
 4357 0730 BA000000 		.4byte	.LVL77
 4358 0734 0300     		.2byte	0x3
 4359 0736 09       		.byte	0x9
 4360 0737 FF       		.byte	0xff
 4361 0738 9F       		.byte	0x9f
 4362 0739 BA000000 		.4byte	.LVL77
 4363 073d FE000000 		.4byte	.LVL86
 4364 0741 0100     		.2byte	0x1
 4365 0743 58       		.byte	0x58
 4366 0744 08010000 		.4byte	.LVL87
 4367 0748 40010000 		.4byte	.LFE219
 4368 074c 0300     		.2byte	0x3
 4369 074e 09       		.byte	0x9
 4370 074f FF       		.byte	0xff
 4371 0750 9F       		.byte	0x9f
 4372 0751 00000000 		.4byte	0
 4373 0755 00000000 		.4byte	0
 4374              	.LLST24:
 4375 0759 80000000 		.4byte	.LVL68
 4376 075d 84000000 		.4byte	.LVL69
 4377 0761 0100     		.2byte	0x1
 4378 0763 50       		.byte	0x50
 4379 0764 9C000000 		.4byte	.LVL71
 4380 0768 A2000000 		.4byte	.LVL72
 4381 076c 0100     		.2byte	0x1
 4382 076e 50       		.byte	0x50
 4383 076f AA000000 		.4byte	.LVL74
 4384 0773 AC000000 		.4byte	.LVL75
 4385 0777 0100     		.2byte	0x1
 4386 0779 50       		.byte	0x50
 4387 077a FA000000 		.4byte	.LVL85
 4388 077e FE000000 		.4byte	.LVL86
 4389 0782 0100     		.2byte	0x1
ARM GAS  /tmp/ccmLrqtN.s 			page 78


 4390 0784 50       		.byte	0x50
 4391 0785 16010000 		.4byte	.LVL88
 4392 0789 1C010000 		.4byte	.LVL89
 4393 078d 0100     		.2byte	0x1
 4394 078f 50       		.byte	0x50
 4395 0790 24010000 		.4byte	.LVL91
 4396 0794 40010000 		.4byte	.LFE219
 4397 0798 0100     		.2byte	0x1
 4398 079a 50       		.byte	0x50
 4399 079b 00000000 		.4byte	0
 4400 079f 00000000 		.4byte	0
 4401              	.LLST7:
 4402 07a3 00000000 		.4byte	.LVL19
 4403 07a7 07000000 		.4byte	.LVL20-1
 4404 07ab 0100     		.2byte	0x1
 4405 07ad 50       		.byte	0x50
 4406 07ae 07000000 		.4byte	.LVL20-1
 4407 07b2 2E000000 		.4byte	.LFE228
 4408 07b6 0100     		.2byte	0x1
 4409 07b8 54       		.byte	0x54
 4410 07b9 00000000 		.4byte	0
 4411 07bd 00000000 		.4byte	0
 4412              	.LLST8:
 4413 07c1 08000000 		.4byte	.LVL20
 4414 07c5 10000000 		.4byte	.LVL21
 4415 07c9 0100     		.2byte	0x1
 4416 07cb 50       		.byte	0x50
 4417 07cc 10000000 		.4byte	.LVL21
 4418 07d0 12000000 		.4byte	.LVL22
 4419 07d4 0300     		.2byte	0x3
 4420 07d6 70       		.byte	0x70
 4421 07d7 01       		.sleb128 1
 4422 07d8 9F       		.byte	0x9f
 4423 07d9 12000000 		.4byte	.LVL22
 4424 07dd 25000000 		.4byte	.LVL26-1
 4425 07e1 0500     		.2byte	0x5
 4426 07e3 72       		.byte	0x72
 4427 07e4 81807F   		.sleb128 -16383
 4428 07e7 9F       		.byte	0x9f
 4429 07e8 2A000000 		.4byte	.LVL27
 4430 07ec 2E000000 		.4byte	.LFE228
 4431 07f0 0500     		.2byte	0x5
 4432 07f2 72       		.byte	0x72
 4433 07f3 81807F   		.sleb128 -16383
 4434 07f6 9F       		.byte	0x9f
 4435 07f7 00000000 		.4byte	0
 4436 07fb 00000000 		.4byte	0
 4437              	.LLST9:
 4438 07ff 08000000 		.4byte	.LVL20
 4439 0803 12000000 		.4byte	.LVL22
 4440 0807 0200     		.2byte	0x2
 4441 0809 30       		.byte	0x30
 4442 080a 9F       		.byte	0x9f
 4443 080b 12000000 		.4byte	.LVL22
 4444 080f 20000000 		.4byte	.LVL25
 4445 0813 0A00     		.2byte	0xa
 4446 0815 70       		.byte	0x70
ARM GAS  /tmp/ccmLrqtN.s 			page 79


 4447 0816 00       		.sleb128 0
 4448 0817 72       		.byte	0x72
 4449 0818 00       		.sleb128 0
 4450 0819 1C       		.byte	0x1c
 4451 081a 23       		.byte	0x23
 4452 081b 808001   		.uleb128 0x4000
 4453 081e 9F       		.byte	0x9f
 4454 081f 2A000000 		.4byte	.LVL27
 4455 0823 2C000000 		.4byte	.LVL28
 4456 0827 0A00     		.2byte	0xa
 4457 0829 70       		.byte	0x70
 4458 082a 00       		.sleb128 0
 4459 082b 72       		.byte	0x72
 4460 082c 00       		.sleb128 0
 4461 082d 1C       		.byte	0x1c
 4462 082e 23       		.byte	0x23
 4463 082f 808001   		.uleb128 0x4000
 4464 0832 9F       		.byte	0x9f
 4465 0833 00000000 		.4byte	0
 4466 0837 00000000 		.4byte	0
 4467              	.LLST10:
 4468 083b 00000000 		.4byte	.LVL29
 4469 083f 0A000000 		.4byte	.LVL31
 4470 0843 0200     		.2byte	0x2
 4471 0845 39       		.byte	0x39
 4472 0846 9F       		.byte	0x9f
 4473 0847 0A000000 		.4byte	.LVL31
 4474 084b 14000000 		.4byte	.LVL32
 4475 084f 0100     		.2byte	0x1
 4476 0851 50       		.byte	0x50
 4477 0852 18000000 		.4byte	.LVL33
 4478 0856 1E000000 		.4byte	.LVL34
 4479 085a 0100     		.2byte	0x1
 4480 085c 50       		.byte	0x50
 4481 085d 00000000 		.4byte	0
 4482 0861 00000000 		.4byte	0
 4483              		.section	.debug_aranges,"",%progbits
 4484 0000 44000000 		.4byte	0x44
 4485 0004 0200     		.2byte	0x2
 4486 0006 00000000 		.4byte	.Ldebug_info0
 4487 000a 04       		.byte	0x4
 4488 000b 00       		.byte	0
 4489 000c 0000     		.2byte	0
 4490 000e 0000     		.2byte	0
 4491 0010 00000000 		.4byte	.LFB224
 4492 0014 7C000000 		.4byte	.LFE224-.LFB224
 4493 0018 00000000 		.4byte	.LFB228
 4494 001c 2E000000 		.4byte	.LFE228-.LFB228
 4495 0020 00000000 		.4byte	.LFB222
 4496 0024 2C000000 		.4byte	.LFE222-.LFB222
 4497 0028 00000000 		.4byte	.LFB220
 4498 002c 6C000000 		.4byte	.LFE220-.LFB220
 4499 0030 00000000 		.4byte	.LFB219
 4500 0034 40010000 		.4byte	.LFE219-.LFB219
 4501 0038 00000000 		.4byte	.LFB221
 4502 003c C0000000 		.4byte	.LFE221-.LFB221
 4503 0040 00000000 		.4byte	0
ARM GAS  /tmp/ccmLrqtN.s 			page 80


 4504 0044 00000000 		.4byte	0
 4505              		.section	.debug_ranges,"",%progbits
 4506              	.Ldebug_ranges0:
 4507 0000 02000000 		.4byte	.LBB9
 4508 0004 1A000000 		.4byte	.LBE9
 4509 0008 4C000000 		.4byte	.LBB12
 4510 000c 5C000000 		.4byte	.LBE12
 4511 0010 00000000 		.4byte	0
 4512 0014 00000000 		.4byte	0
 4513 0018 00000000 		.4byte	.LBB17
 4514 001c 0A000000 		.4byte	.LBE17
 4515 0020 0C000000 		.4byte	.LBB20
 4516 0024 20000000 		.4byte	.LBE20
 4517 0028 00000000 		.4byte	0
 4518 002c 00000000 		.4byte	0
 4519 0030 18000000 		.4byte	.LBB25
 4520 0034 3E000000 		.4byte	.LBE25
 4521 0038 44000000 		.4byte	.LBB30
 4522 003c C0000000 		.4byte	.LBE30
 4523 0040 00000000 		.4byte	0
 4524 0044 00000000 		.4byte	0
 4525 0048 00000000 		.4byte	.LFB224
 4526 004c 7C000000 		.4byte	.LFE224
 4527 0050 00000000 		.4byte	.LFB228
 4528 0054 2E000000 		.4byte	.LFE228
 4529 0058 00000000 		.4byte	.LFB222
 4530 005c 2C000000 		.4byte	.LFE222
 4531 0060 00000000 		.4byte	.LFB220
 4532 0064 6C000000 		.4byte	.LFE220
 4533 0068 00000000 		.4byte	.LFB219
 4534 006c 40010000 		.4byte	.LFE219
 4535 0070 00000000 		.4byte	.LFB221
 4536 0074 C0000000 		.4byte	.LFE221
 4537 0078 00000000 		.4byte	0
 4538 007c 00000000 		.4byte	0
 4539              		.section	.debug_line,"",%progbits
 4540              	.Ldebug_line0:
 4541 0000 F8030000 		.section	.debug_str,"MS",%progbits,1
 4541      02005E02 
 4541      00000201 
 4541      FB0E0D00 
 4541      01010101 
 4542              	.LASF129:
 4543 0000 63665F6F 		.ascii	"cf_off_older\000"
 4543      66665F6F 
 4543      6C646572 
 4543      00
 4544              	.LASF70:
 4545 000d 72656164 		.ascii	"ready_list_t\000"
 4545      795F6C69 
 4545      73745F74 
 4545      00
 4546              	.LASF104:
 4547 001a 7264796D 		.ascii	"rdymsg\000"
 4547      736700
 4548              	.LASF20:
 4549 0021 75696E74 		.ascii	"uint64_t\000"
ARM GAS  /tmp/ccmLrqtN.s 			page 81


 4549      36345F74 
 4549      00
 4550              	.LASF2:
 4551 002a 5F5F7569 		.ascii	"__uint8_t\000"
 4551      6E74385F 
 4551      7400
 4552              	.LASF101:
 4553 0034 706F7274 		.ascii	"port_intctx\000"
 4553      5F696E74 
 4553      63747800 
 4554              	.LASF89:
 4555 0040 73797374 		.ascii	"system_debug_t\000"
 4555      656D5F64 
 4555      65627567 
 4555      5F7400
 4556              	.LASF175:
 4557 004f 474E5520 		.ascii	"GNU C99 7.3.1 20180622 (release) [ARM/embedded-7-br"
 4557      43393920 
 4557      372E332E 
 4557      31203230 
 4557      31383036 
 4558 0082 616E6368 		.ascii	"anch revision 261907] -mcpu=cortex-m4 -mfloat-abi=h"
 4558      20726576 
 4558      6973696F 
 4558      6E203236 
 4558      31393037 
 4559 00b5 61726420 		.ascii	"ard -mfpu=fpv4-sp-d16 -mno-thumb-interwork -mthumb "
 4559      2D6D6670 
 4559      753D6670 
 4559      76342D73 
 4559      702D6431 
 4560 00e8 2D676764 		.ascii	"-ggdb -O2 -std=gnu99 -fomit-frame-pointer -falign-f"
 4560      62202D4F 
 4560      32202D73 
 4560      74643D67 
 4560      6E753939 
 4561 011b 756E6374 		.ascii	"unctions=16 -ffunction-sections -fdata-sections -fn"
 4561      696F6E73 
 4561      3D313620 
 4561      2D666675 
 4561      6E637469 
 4562 014e 6F2D636F 		.ascii	"o-common -fsingle-precision-constant\000"
 4562      6D6D6F6E 
 4562      202D6673 
 4562      696E676C 
 4562      652D7072 
 4563              	.LASF13:
 4564 0173 6C6F6E67 		.ascii	"long long unsigned int\000"
 4564      206C6F6E 
 4564      6720756E 
 4564      7369676E 
 4564      65642069 
 4565              	.LASF167:
 4566 018a 45455F57 		.ascii	"EE_WriteVariable\000"
 4566      72697465 
 4566      56617269 
 4566      61626C65 
ARM GAS  /tmp/ccmLrqtN.s 			page 82


 4566      00
 4567              	.LASF125:
 4568 019b 63685F74 		.ascii	"ch_threadsize\000"
 4568      68726561 
 4568      6473697A 
 4568      6500
 4569              	.LASF105:
 4570 01a9 65786974 		.ascii	"exitcode\000"
 4570      636F6465 
 4570      00
 4571              	.LASF96:
 4572 01b2 6D61696E 		.ascii	"mainthread\000"
 4572      74687265 
 4572      616400
 4573              	.LASF156:
 4574 01bd 56617249 		.ascii	"VarIdx\000"
 4574      647800
 4575              	.LASF86:
 4576 01c4 76697274 		.ascii	"virtual_timers_list_t\000"
 4576      75616C5F 
 4576      74696D65 
 4576      72735F6C 
 4576      6973745F 
 4577              	.LASF152:
 4578 01da 466C6173 		.ascii	"FlashStatus\000"
 4578      68537461 
 4578      74757300 
 4579              	.LASF21:
 4580 01e6 49544D5F 		.ascii	"ITM_RxBuffer\000"
 4580      52784275 
 4580      66666572 
 4580      00
 4581              	.LASF69:
 4582 01f3 63685F74 		.ascii	"ch_threads_queue\000"
 4582      68726561 
 4582      64735F71 
 4582      75657565 
 4582      00
 4583              	.LASF47:
 4584 0204 705F7072 		.ascii	"p_prio\000"
 4584      696F00
 4585              	.LASF132:
 4586 020b 63665F6F 		.ascii	"cf_off_state\000"
 4586      66665F73 
 4586      74617465 
 4586      00
 4587              	.LASF30:
 4588 0218 464C4153 		.ascii	"FLASH_ERROR_OPERATION\000"
 4588      485F4552 
 4588      524F525F 
 4588      4F504552 
 4588      4154494F 
 4589              	.LASF11:
 4590 022e 6C6F6E67 		.ascii	"long long int\000"
 4590      206C6F6E 
 4590      6720696E 
 4590      7400
ARM GAS  /tmp/ccmLrqtN.s 			page 83


 4591              	.LASF0:
 4592 023c 7369676E 		.ascii	"signed char\000"
 4592      65642063 
 4592      68617200 
 4593              	.LASF176:
 4594 0248 65657072 		.ascii	"eeprom.c\000"
 4594      6F6D2E63 
 4594      00
 4595              	.LASF131:
 4596 0251 63665F6F 		.ascii	"cf_off_stklimit\000"
 4596      66665F73 
 4596      746B6C69 
 4596      6D697400 
 4597              	.LASF133:
 4598 0261 63665F6F 		.ascii	"cf_off_flags\000"
 4598      66665F66 
 4598      6C616773 
 4598      00
 4599              	.LASF63:
 4600 026e 705F6D70 		.ascii	"p_mpool\000"
 4600      6F6F6C00 
 4601              	.LASF115:
 4602 0276 6D5F7175 		.ascii	"m_queue\000"
 4602      65756500 
 4603              	.LASF23:
 4604 027e 464C4153 		.ascii	"FLASH_BUSY\000"
 4604      485F4255 
 4604      535900
 4605              	.LASF148:
 4606 0289 45455F45 		.ascii	"EE_EraseSectorIfNotEmpty\000"
 4606      72617365 
 4606      53656374 
 4606      6F724966 
 4606      4E6F7445 
 4607              	.LASF95:
 4608 02a2 76746C69 		.ascii	"vtlist\000"
 4608      737400
 4609              	.LASF38:
 4610 02a9 74736C69 		.ascii	"tslices_t\000"
 4610      6365735F 
 4610      7400
 4611              	.LASF145:
 4612 02b3 464C4153 		.ascii	"FLASH_Sector\000"
 4612      485F5365 
 4612      63746F72 
 4612      00
 4613              	.LASF107:
 4614 02c0 77747472 		.ascii	"wttrp\000"
 4614      7000
 4615              	.LASF93:
 4616 02c6 63685F73 		.ascii	"ch_system\000"
 4616      79737465 
 4616      6D00
 4617              	.LASF8:
 4618 02d0 6C6F6E67 		.ascii	"long int\000"
 4618      20696E74 
 4618      00
ARM GAS  /tmp/ccmLrqtN.s 			page 84


 4619              	.LASF165:
 4620 02d9 45455F46 		.ascii	"EE_Format\000"
 4620      6F726D61 
 4620      7400
 4621              	.LASF36:
 4622 02e3 74737461 		.ascii	"tstate_t\000"
 4622      74655F74 
 4622      00
 4623              	.LASF137:
 4624 02ec 63686465 		.ascii	"chdebug_t\000"
 4624      6275675F 
 4624      7400
 4625              	.LASF49:
 4626 02f6 705F6E65 		.ascii	"p_newer\000"
 4626      77657200 
 4627              	.LASF112:
 4628 02fe 735F7175 		.ascii	"s_queue\000"
 4628      65756500 
 4629              	.LASF32:
 4630 0306 464C4153 		.ascii	"FLASH_Status\000"
 4630      485F5374 
 4630      61747573 
 4630      00
 4631              	.LASF75:
 4632 0313 725F6E65 		.ascii	"r_newer\000"
 4632      77657200 
 4633              	.LASF98:
 4634 031b 72656761 		.ascii	"regarm_t\000"
 4634      726D5F74 
 4634      00
 4635              	.LASF82:
 4636 0324 76745F70 		.ascii	"vt_prev\000"
 4636      72657600 
 4637              	.LASF3:
 4638 032c 5F5F696E 		.ascii	"__int16_t\000"
 4638      7431365F 
 4638      7400
 4639              	.LASF33:
 4640 0336 73697A65 		.ascii	"size_t\000"
 4640      5F7400
 4641              	.LASF139:
 4642 033d 6D757465 		.ascii	"mutex_t\000"
 4642      785F7400 
 4643              	.LASF97:
 4644 0345 69646C65 		.ascii	"idle_thread_wa\000"
 4644      5F746872 
 4644      6561645F 
 4644      776100
 4645              	.LASF42:
 4646 0354 636E745F 		.ascii	"cnt_t\000"
 4646      7400
 4647              	.LASF14:
 4648 035a 756E7369 		.ascii	"unsigned int\000"
 4648      676E6564 
 4648      20696E74 
 4648      00
 4649              	.LASF81:
ARM GAS  /tmp/ccmLrqtN.s 			page 85


 4650 0367 76745F6E 		.ascii	"vt_next\000"
 4650      65787400 
 4651              	.LASF17:
 4652 036f 75696E74 		.ascii	"uint16_t\000"
 4652      31365F74 
 4652      00
 4653              	.LASF22:
 4654 0378 53797374 		.ascii	"SystemCoreClock\000"
 4654      656D436F 
 4654      7265436C 
 4654      6F636B00 
 4655              	.LASF56:
 4656 0388 705F7469 		.ascii	"p_time\000"
 4656      6D6500
 4657              	.LASF108:
 4658 038f 77747365 		.ascii	"wtsemp\000"
 4658      6D7000
 4659              	.LASF83:
 4660 0396 76745F64 		.ascii	"vt_delta\000"
 4660      656C7461 
 4660      00
 4661              	.LASF149:
 4662 039f 45455F50 		.ascii	"EE_PageTransfer\000"
 4662      61676554 
 4662      72616E73 
 4662      66657200 
 4663              	.LASF58:
 4664 03af 705F6D73 		.ascii	"p_msgqueue\000"
 4664      67717565 
 4664      756500
 4665              	.LASF138:
 4666 03ba 63685F64 		.ascii	"ch_debug\000"
 4666      65627567 
 4666      00
 4667              	.LASF71:
 4668 03c3 63685F72 		.ascii	"ch_ready_list\000"
 4668      65616479 
 4668      5F6C6973 
 4668      7400
 4669              	.LASF113:
 4670 03d1 735F636E 		.ascii	"s_cnt\000"
 4670      7400
 4671              	.LASF6:
 4672 03d7 73686F72 		.ascii	"short unsigned int\000"
 4672      7420756E 
 4672      7369676E 
 4672      65642069 
 4672      6E7400
 4673              	.LASF142:
 4674 03ea 636F6E66 		.ascii	"conf_general_permanent_nrf_found\000"
 4674      5F67656E 
 4674      6572616C 
 4674      5F706572 
 4674      6D616E65 
 4675              	.LASF66:
 4676 040b 63685F74 		.ascii	"ch_thread\000"
 4676      68726561 
ARM GAS  /tmp/ccmLrqtN.s 			page 86


 4676      6400
 4677              	.LASF40:
 4678 0415 6D73675F 		.ascii	"msg_t\000"
 4678      7400
 4679              	.LASF161:
 4680 041b 45455F46 		.ascii	"EE_FindValidPage\000"
 4680      696E6456 
 4680      616C6964 
 4680      50616765 
 4680      00
 4681              	.LASF154:
 4682 042c 4F6C6450 		.ascii	"OldPageId\000"
 4682      61676549 
 4682      6400
 4683              	.LASF92:
 4684 0436 63685F73 		.ascii	"ch_system_t\000"
 4684      79737465 
 4684      6D5F7400 
 4685              	.LASF160:
 4686 0442 50616765 		.ascii	"PageEndAddress\000"
 4686      456E6441 
 4686      64647265 
 4686      737300
 4687              	.LASF171:
 4688 0451 45455F49 		.ascii	"EE_Init\000"
 4688      6E697400 
 4689              	.LASF136:
 4690 0459 63665F6F 		.ascii	"cf_off_time\000"
 4690      66665F74 
 4690      696D6500 
 4691              	.LASF150:
 4692 0465 56697274 		.ascii	"VirtAddress\000"
 4692      41646472 
 4692      65737300 
 4693              	.LASF159:
 4694 0471 41646472 		.ascii	"Address\000"
 4694      65737300 
 4695              	.LASF41:
 4696 0479 6576656E 		.ascii	"eventmask_t\000"
 4696      746D6173 
 4696      6B5F7400 
 4697              	.LASF7:
 4698 0485 5F5F696E 		.ascii	"__int32_t\000"
 4698      7433325F 
 4698      7400
 4699              	.LASF158:
 4700 048f 52656164 		.ascii	"ReadStatus\000"
 4700      53746174 
 4700      757300
 4701              	.LASF99:
 4702 049a 73746B61 		.ascii	"stkalign_t\000"
 4702      6C69676E 
 4702      5F7400
 4703              	.LASF65:
 4704 04a5 74687265 		.ascii	"threads_list_t\000"
 4704      6164735F 
 4704      6C697374 
ARM GAS  /tmp/ccmLrqtN.s 			page 87


 4704      5F7400
 4705              	.LASF120:
 4706 04b4 63685F7A 		.ascii	"ch_zero\000"
 4706      65726F00 
 4707              	.LASF134:
 4708 04bc 63665F6F 		.ascii	"cf_off_refs\000"
 4708      66665F72 
 4708      65667300 
 4709              	.LASF174:
 4710 04c8 666C6173 		.ascii	"flash_helper_get_sector_address\000"
 4710      685F6865 
 4710      6C706572 
 4710      5F676574 
 4710      5F736563 
 4711              	.LASF73:
 4712 04e8 725F7072 		.ascii	"r_prio\000"
 4712      696F00
 4713              	.LASF57:
 4714 04ef 705F7761 		.ascii	"p_waiting\000"
 4714      6974696E 
 4714      6700
 4715              	.LASF153:
 4716 04f9 4E657750 		.ascii	"NewPageAddress\000"
 4716      61676541 
 4716      64647265 
 4716      737300
 4717              	.LASF34:
 4718 0508 7274636E 		.ascii	"rtcnt_t\000"
 4718      745F7400 
 4719              	.LASF87:
 4720 0510 63685F76 		.ascii	"ch_virtual_timers_list\000"
 4720      69727475 
 4720      616C5F74 
 4720      696D6572 
 4720      735F6C69 
 4721              	.LASF170:
 4722 0527 50616765 		.ascii	"PageStartAddress\000"
 4722      53746172 
 4722      74416464 
 4722      72657373 
 4722      00
 4723              	.LASF124:
 4724 0538 63685F74 		.ascii	"ch_timesize\000"
 4724      696D6573 
 4724      697A6500 
 4725              	.LASF130:
 4726 0544 63665F6F 		.ascii	"cf_off_name\000"
 4726      66665F6E 
 4726      616D6500 
 4727              	.LASF50:
 4728 0550 705F6F6C 		.ascii	"p_older\000"
 4728      64657200 
 4729              	.LASF74:
 4730 0558 725F6374 		.ascii	"r_ctx\000"
 4730      7800
 4731              	.LASF48:
 4732 055e 705F6374 		.ascii	"p_ctx\000"
ARM GAS  /tmp/ccmLrqtN.s 			page 88


 4732      7800
 4733              	.LASF103:
 4734 0564 746D5F63 		.ascii	"tm_calibration_t\000"
 4734      616C6962 
 4734      72617469 
 4734      6F6E5F74 
 4734      00
 4735              	.LASF77:
 4736 0575 725F6375 		.ascii	"r_current\000"
 4736      7272656E 
 4736      7400
 4737              	.LASF76:
 4738 057f 725F6F6C 		.ascii	"r_older\000"
 4738      64657200 
 4739              	.LASF29:
 4740 0587 464C4153 		.ascii	"FLASH_ERROR_PROGRAM\000"
 4740      485F4552 
 4740      524F525F 
 4740      50524F47 
 4740      52414D00 
 4741              	.LASF12:
 4742 059b 5F5F7569 		.ascii	"__uint64_t\000"
 4742      6E743634 
 4742      5F7400
 4743              	.LASF140:
 4744 05a6 666C6F61 		.ascii	"float\000"
 4744      7400
 4745              	.LASF37:
 4746 05ac 74726566 		.ascii	"trefs_t\000"
 4746      735F7400 
 4747              	.LASF163:
 4748 05b4 50616765 		.ascii	"PageStatus0\000"
 4748      53746174 
 4748      75733000 
 4749              	.LASF164:
 4750 05c0 50616765 		.ascii	"PageStatus1\000"
 4750      53746174 
 4750      75733100 
 4751              	.LASF79:
 4752 05cc 76697274 		.ascii	"virtual_timer_t\000"
 4752      75616C5F 
 4752      74696D65 
 4752      725F7400 
 4753              	.LASF46:
 4754 05dc 705F7072 		.ascii	"p_prev\000"
 4754      657600
 4755              	.LASF39:
 4756 05e3 74707269 		.ascii	"tprio_t\000"
 4756      6F5F7400 
 4757              	.LASF147:
 4758 05eb 61646472 		.ascii	"addr\000"
 4758      00
 4759              	.LASF90:
 4760 05f0 63685F73 		.ascii	"ch_system_debug\000"
 4760      79737465 
 4760      6D5F6465 
 4760      62756700 
ARM GAS  /tmp/ccmLrqtN.s 			page 89


 4761              	.LASF123:
 4762 0600 63685F70 		.ascii	"ch_ptrsize\000"
 4762      74727369 
 4762      7A6500
 4763              	.LASF18:
 4764 060b 696E7433 		.ascii	"int32_t\000"
 4764      325F7400 
 4765              	.LASF1:
 4766 0613 756E7369 		.ascii	"unsigned char\000"
 4766      676E6564 
 4766      20636861 
 4766      7200
 4767              	.LASF169:
 4768 0621 41646472 		.ascii	"AddressValue\000"
 4768      65737356 
 4768      616C7565 
 4768      00
 4769              	.LASF162:
 4770 062e 4F706572 		.ascii	"Operation\000"
 4770      6174696F 
 4770      6E00
 4771              	.LASF61:
 4772 0638 705F6D74 		.ascii	"p_mtxlist\000"
 4772      786C6973 
 4772      7400
 4773              	.LASF4:
 4774 0642 73686F72 		.ascii	"short int\000"
 4774      7420696E 
 4774      7400
 4775              	.LASF52:
 4776 064c 705F7374 		.ascii	"p_state\000"
 4776      61746500 
 4777              	.LASF173:
 4778 0654 464C4153 		.ascii	"FLASH_EraseSector\000"
 4778      485F4572 
 4778      61736553 
 4778      6563746F 
 4778      7200
 4779              	.LASF55:
 4780 0666 705F7072 		.ascii	"p_preempt\000"
 4780      65656D70 
 4780      7400
 4781              	.LASF122:
 4782 0670 63685F76 		.ascii	"ch_version\000"
 4782      65727369 
 4782      6F6E00
 4783              	.LASF110:
 4784 067b 65776D61 		.ascii	"ewmask\000"
 4784      736B00
 4785              	.LASF45:
 4786 0682 705F6E65 		.ascii	"p_next\000"
 4786      787400
 4787              	.LASF35:
 4788 0689 746D6F64 		.ascii	"tmode_t\000"
 4788      655F7400 
 4789              	.LASF135:
 4790 0691 63665F6F 		.ascii	"cf_off_preempt\000"
ARM GAS  /tmp/ccmLrqtN.s 			page 90


 4790      66665F70 
 4790      7265656D 
 4790      707400
 4791              	.LASF53:
 4792 06a0 705F666C 		.ascii	"p_flags\000"
 4792      61677300 
 4793              	.LASF157:
 4794 06a8 45657072 		.ascii	"EepromStatus\000"
 4794      6F6D5374 
 4794      61747573 
 4794      00
 4795              	.LASF68:
 4796 06b5 74687265 		.ascii	"threads_queue_t\000"
 4796      6164735F 
 4796      71756575 
 4796      655F7400 
 4797              	.LASF80:
 4798 06c5 63685F76 		.ascii	"ch_virtual_timer\000"
 4798      69727475 
 4798      616C5F74 
 4798      696D6572 
 4798      00
 4799              	.LASF177:
 4800 06d6 2F686F6D 		.ascii	"/home/renan/BLDC/bldc-firmware\000"
 4800      652F7265 
 4800      6E616E2F 
 4800      424C4443 
 4800      2F626C64 
 4801              	.LASF111:
 4802 06f5 63685F73 		.ascii	"ch_semaphore\000"
 4802      656D6170 
 4802      686F7265 
 4802      00
 4803              	.LASF60:
 4804 0702 705F6570 		.ascii	"p_epending\000"
 4804      656E6469 
 4804      6E6700
 4805              	.LASF27:
 4806 070d 464C4153 		.ascii	"FLASH_ERROR_PGA\000"
 4806      485F4552 
 4806      524F525F 
 4806      50474100 
 4807              	.LASF126:
 4808 071d 63665F6F 		.ascii	"cf_off_prio\000"
 4808      66665F70 
 4808      72696F00 
 4809              	.LASF72:
 4810 0729 725F7175 		.ascii	"r_queue\000"
 4810      65756500 
 4811              	.LASF67:
 4812 0731 63685F74 		.ascii	"ch_threads_list\000"
 4812      68726561 
 4812      64735F6C 
 4812      69737400 
 4813              	.LASF121:
 4814 0741 63685F73 		.ascii	"ch_size\000"
 4814      697A6500 
ARM GAS  /tmp/ccmLrqtN.s 			page 91


 4815              	.LASF141:
 4816 0749 5F426F6F 		.ascii	"_Bool\000"
 4816      6C00
 4817              	.LASF10:
 4818 074f 6C6F6E67 		.ascii	"long unsigned int\000"
 4818      20756E73 
 4818      69676E65 
 4818      6420696E 
 4818      7400
 4819              	.LASF155:
 4820 0761 56616C69 		.ascii	"ValidPage\000"
 4820      64506167 
 4820      6500
 4821              	.LASF118:
 4822 076b 63686172 		.ascii	"char\000"
 4822      00
 4823              	.LASF26:
 4824 0770 464C4153 		.ascii	"FLASH_ERROR_PGP\000"
 4824      485F4552 
 4824      524F525F 
 4824      50475000 
 4825              	.LASF146:
 4826 0780 566F6C74 		.ascii	"VoltageRange\000"
 4826      61676552 
 4826      616E6765 
 4826      00
 4827              	.LASF25:
 4828 078d 464C4153 		.ascii	"FLASH_ERROR_PGS\000"
 4828      485F4552 
 4828      524F525F 
 4828      50475300 
 4829              	.LASF5:
 4830 079d 5F5F7569 		.ascii	"__uint16_t\000"
 4830      6E743136 
 4830      5F7400
 4831              	.LASF44:
 4832 07a8 74687265 		.ascii	"thread_t\000"
 4832      61645F74 
 4832      00
 4833              	.LASF117:
 4834 07b1 6D5F6E65 		.ascii	"m_next\000"
 4834      787400
 4835              	.LASF43:
 4836 07b8 73797374 		.ascii	"systime_t\000"
 4836      696D655F 
 4836      7400
 4837              	.LASF62:
 4838 07c2 705F7265 		.ascii	"p_realprio\000"
 4838      616C7072 
 4838      696F00
 4839              	.LASF78:
 4840 07cd 76746675 		.ascii	"vtfunc_t\000"
 4840      6E635F74 
 4840      00
 4841              	.LASF9:
 4842 07d6 5F5F7569 		.ascii	"__uint32_t\000"
 4842      6E743332 
ARM GAS  /tmp/ccmLrqtN.s 			page 92


 4842      5F7400
 4843              	.LASF109:
 4844 07e1 77746D74 		.ascii	"wtmtxp\000"
 4844      787000
 4845              	.LASF91:
 4846 07e8 70616E69 		.ascii	"panic_msg\000"
 4846      635F6D73 
 4846      6700
 4847              	.LASF102:
 4848 07f2 6F666673 		.ascii	"offset\000"
 4848      657400
 4849              	.LASF100:
 4850 07f9 636F6E74 		.ascii	"context\000"
 4850      65787400 
 4851              	.LASF144:
 4852 0801 56697274 		.ascii	"VirtAddVarTab\000"
 4852      41646456 
 4852      61725461 
 4852      6200
 4853              	.LASF59:
 4854 080f 705F6D73 		.ascii	"p_msg\000"
 4854      6700
 4855              	.LASF172:
 4856 0815 464C4153 		.ascii	"FLASH_ProgramHalfWord\000"
 4856      485F5072 
 4856      6F677261 
 4856      6D48616C 
 4856      66576F72 
 4857              	.LASF168:
 4858 082b 45455F52 		.ascii	"EE_ReadVariable\000"
 4858      65616456 
 4858      61726961 
 4858      626C6500 
 4859              	.LASF85:
 4860 083b 76745F70 		.ascii	"vt_par\000"
 4860      617200
 4861              	.LASF24:
 4862 0842 464C4153 		.ascii	"FLASH_ERROR_RD\000"
 4862      485F4552 
 4862      524F525F 
 4862      524400
 4863              	.LASF19:
 4864 0851 75696E74 		.ascii	"uint32_t\000"
 4864      33325F74 
 4864      00
 4865              	.LASF127:
 4866 085a 63665F6F 		.ascii	"cf_off_ctx\000"
 4866      66665F63 
 4866      747800
 4867              	.LASF114:
 4868 0865 63685F6D 		.ascii	"ch_mutex\000"
 4868      75746578 
 4868      00
 4869              	.LASF54:
 4870 086e 705F7265 		.ascii	"p_refs\000"
 4870      667300
 4871              	.LASF143:
ARM GAS  /tmp/ccmLrqtN.s 			page 93


 4872 0875 44617461 		.ascii	"DataVar\000"
 4872      56617200 
 4873              	.LASF94:
 4874 087d 726C6973 		.ascii	"rlist\000"
 4874      7400
 4875              	.LASF15:
 4876 0883 75696E74 		.ascii	"uint8_t\000"
 4876      385F7400 
 4877              	.LASF151:
 4878 088b 44617461 		.ascii	"Data\000"
 4878      00
 4879              	.LASF178:
 4880 0890 45455F56 		.ascii	"EE_VerifyPageFullWriteVariable\000"
 4880      65726966 
 4880      79506167 
 4880      6546756C 
 4880      6C577269 
 4881              	.LASF64:
 4882 08af 74687265 		.ascii	"thread_reference_t\000"
 4882      61645F72 
 4882      65666572 
 4882      656E6365 
 4882      5F7400
 4883              	.LASF106:
 4884 08c2 77746F62 		.ascii	"wtobjp\000"
 4884      6A7000
 4885              	.LASF128:
 4886 08c9 63665F6F 		.ascii	"cf_off_newer\000"
 4886      66665F6E 
 4886      65776572 
 4886      00
 4887              	.LASF51:
 4888 08d6 705F6E61 		.ascii	"p_name\000"
 4888      6D6500
 4889              	.LASF88:
 4890 08dd 76745F73 		.ascii	"vt_systime\000"
 4890      79737469 
 4890      6D6500
 4891              	.LASF28:
 4892 08e8 464C4153 		.ascii	"FLASH_ERROR_WRP\000"
 4892      485F4552 
 4892      524F525F 
 4892      57525000 
 4893              	.LASF166:
 4894 08f8 53746174 		.ascii	"Status\000"
 4894      757300
 4895              	.LASF31:
 4896 08ff 464C4153 		.ascii	"FLASH_COMPLETE\000"
 4896      485F434F 
 4896      4D504C45 
 4896      544500
 4897              	.LASF16:
 4898 090e 696E7431 		.ascii	"int16_t\000"
 4898      365F7400 
 4899              	.LASF116:
 4900 0916 6D5F6F77 		.ascii	"m_owner\000"
 4900      6E657200 
ARM GAS  /tmp/ccmLrqtN.s 			page 94


 4901              	.LASF119:
 4902 091e 63685F69 		.ascii	"ch_identifier\000"
 4902      64656E74 
 4902      69666965 
 4902      7200
 4903              	.LASF84:
 4904 092c 76745F66 		.ascii	"vt_func\000"
 4904      756E6300 
 4905              		.ident	"GCC: (GNU Tools for Arm Embedded Processors 7-2018-q3-update) 7.3.1 20180622 (release) [AR
ARM GAS  /tmp/ccmLrqtN.s 			page 95


DEFINED SYMBOLS
                            *ABS*:0000000000000000 eeprom.c
     /tmp/ccmLrqtN.s:18     .text.EE_VerifyPageFullWriteVariable:0000000000000000 $t
     /tmp/ccmLrqtN.s:25     .text.EE_VerifyPageFullWriteVariable:0000000000000000 EE_VerifyPageFullWriteVariable
     /tmp/ccmLrqtN.s:153    .text.EE_VerifyPageFullWriteVariable:0000000000000070 $d
     /tmp/ccmLrqtN.s:160    .text.EE_EraseSectorIfNotEmpty.constprop.1:0000000000000000 $t
     /tmp/ccmLrqtN.s:167    .text.EE_EraseSectorIfNotEmpty.constprop.1:0000000000000000 EE_EraseSectorIfNotEmpty.constprop.1
     /tmp/ccmLrqtN.s:222    .text.EE_Format:0000000000000000 $t
     /tmp/ccmLrqtN.s:229    .text.EE_Format:0000000000000000 EE_Format
     /tmp/ccmLrqtN.s:275    .text.EE_Format:0000000000000028 $d
     /tmp/ccmLrqtN.s:280    .text.EE_ReadVariable:0000000000000000 $t
     /tmp/ccmLrqtN.s:288    .text.EE_ReadVariable:0000000000000000 EE_ReadVariable
     /tmp/ccmLrqtN.s:401    .text.EE_ReadVariable:0000000000000054 $d
     /tmp/ccmLrqtN.s:411    .text.EE_Init:0000000000000000 $t
     /tmp/ccmLrqtN.s:419    .text.EE_Init:0000000000000000 EE_Init
     /tmp/ccmLrqtN.s:680    .text.EE_Init:0000000000000128 $d
     /tmp/ccmLrqtN.s:690    .text.EE_WriteVariable:0000000000000000 $t
     /tmp/ccmLrqtN.s:698    .text.EE_WriteVariable:0000000000000000 EE_WriteVariable
     /tmp/ccmLrqtN.s:872    .text.EE_WriteVariable:00000000000000b0 $d
     /tmp/ccmLrqtN.s:887    .bss.DataVar:0000000000000000 DataVar
     /tmp/ccmLrqtN.s:883    .bss.DataVar:0000000000000000 $d

UNDEFINED SYMBOLS
FLASH_ProgramHalfWord
flash_helper_get_sector_address
FLASH_EraseSector
VirtAddVarTab
