ARM GAS  /tmp/ccmLrqtN.s 			page 1


   1              		.cpu cortex-m4
   2              		.eabi_attribute 27, 1
   3              		.eabi_attribute 28, 1
   4              		.eabi_attribute 20, 1
   5              		.eabi_attribute 21, 1
   6              		.eabi_attribute 23, 3
   7              		.eabi_attribute 24, 1
   8              		.eabi_attribute 25, 1
   9              		.eabi_attribute 26, 1
  10              		.eabi_attribute 30, 2
  11              		.eabi_attribute 34, 1
  12              		.eabi_attribute 18, 4
  13              		.file	"eeprom.c"
  14              		.text
  15              	.Ltext0:
  16              		.cfi_sections	.debug_frame
  17              		.section	.text.EE_VerifyPageFullWriteVariable,"ax",%progbits
  18              		.align	1
  19              		.p2align 4,,15
  20              		.syntax unified
  21              		.thumb
  22              		.thumb_func
  23              		.fpu fpv4-sp-d16
  24              		.type	EE_VerifyPageFullWriteVariable, %function
  25              	EE_VerifyPageFullWriteVariable:
  26              	.LFB224:
  27              		.file 1 "eeprom.c"
  28              		.loc 1 465 0
  29              		.cfi_startproc
  30              		@ args = 0, pretend = 0, frame = 0
  31              		@ frame_needed = 0, uses_anonymous_args = 0
  32              	.LVL0:
  33 0000 38B5     		push	{r3, r4, r5, lr}
  34              		.cfi_def_cfa_offset 16
  35              		.cfi_offset 3, -16
  36              		.cfi_offset 4, -12
  37              		.cfi_offset 5, -8
  38              		.cfi_offset 14, -4
  39              	.LBB9:
  40              	.LBB10:
  41              		.loc 1 397 0
  42 0002 1B4A     		ldr	r2, .L19
  43              		.loc 1 400 0
  44 0004 1B4B     		ldr	r3, .L19+4
  45              		.loc 1 397 0
  46 0006 1288     		ldrh	r2, [r2]
  47              		.loc 1 400 0
  48 0008 1B88     		ldrh	r3, [r3]
  49 000a 9CB2     		uxth	r4, r3
  50              		.loc 1 397 0
  51 000c 92B2     		uxth	r2, r2
  52              	.LVL1:
  53              		.loc 1 406 0
  54 000e ECB9     		cbnz	r4, .L2
  55              		.loc 1 409 0
  56 0010 4EF6EE63 		movw	r3, #61166
  57              		.loc 1 411 0
ARM GAS  /tmp/ccmLrqtN.s 			page 2


  58 0014 D31A     		subs	r3, r2, r3
  59 0016 18BF     		it	ne
  60 0018 0123     		movne	r3, #1
  61              	.L3:
  62              	.LBE10:
  63              	.LBE9:
  64              		.loc 1 480 0
  65 001a 03F50054 		add	r4, r3, #8192
  66              	.LVL2:
  67              		.loc 1 483 0
  68 001e 164A     		ldr	r2, .L19+8
  69              	.LVL3:
  70              		.loc 1 480 0
  71 0020 0134     		adds	r4, r4, #1
  72              		.loc 1 483 0
  73 0022 0133     		adds	r3, r3, #1
  74              		.loc 1 480 0
  75 0024 A403     		lsls	r4, r4, #14
  76              	.LVL4:
  77              		.loc 1 483 0
  78 0026 02EB8332 		add	r2, r2, r3, lsl #14
  79              	.LVL5:
  80              		.loc 1 486 0
  81 002a 9442     		cmp	r4, r2
  82 002c 03D3     		bcc	.L8
  83 002e 15E0     		b	.L10
  84              	.L6:
  85              		.loc 1 506 0
  86 0030 0434     		adds	r4, r4, #4
  87              	.LVL6:
  88              		.loc 1 486 0
  89 0032 A242     		cmp	r2, r4
  90 0034 12D9     		bls	.L10
  91              	.L8:
  92              		.loc 1 489 0
  93 0036 2368     		ldr	r3, [r4]
  94 0038 0133     		adds	r3, r3, #1
  95 003a F9D1     		bne	.L6
  96 003c 0546     		mov	r5, r0
  97              		.loc 1 492 0
  98 003e 2046     		mov	r0, r4
  99              	.LVL7:
 100 0040 FFF7FEFF 		bl	FLASH_ProgramHalfWord
 101              	.LVL8:
 102              		.loc 1 494 0
 103 0044 0928     		cmp	r0, #9
 104 0046 0DD0     		beq	.L7
 105              	.LVL9:
 106              	.L17:
 107              		.loc 1 501 0
 108 0048 80B2     		uxth	r0, r0
 109              	.LVL10:
 110              		.loc 1 512 0
 111 004a 38BD     		pop	{r3, r4, r5, pc}
 112              	.LVL11:
 113              	.L2:
 114              	.LBB12:
ARM GAS  /tmp/ccmLrqtN.s 			page 3


 115              	.LBB11:
 116              		.loc 1 418 0
 117 004c 42B9     		cbnz	r2, .L9
 118              		.loc 1 421 0
 119 004e 4EF6EE63 		movw	r3, #61166
 120              		.loc 1 411 0
 121 0052 E31A     		subs	r3, r4, r3
 122 0054 B3FA83F3 		clz	r3, r3
 123 0058 5B09     		lsrs	r3, r3, #5
 124 005a DEE7     		b	.L3
 125              	.LVL12:
 126              	.L10:
 127              	.LBE11:
 128              	.LBE12:
 129              		.loc 1 511 0
 130 005c 8020     		movs	r0, #128
 131              	.LVL13:
 132              		.loc 1 512 0
 133 005e 38BD     		pop	{r3, r4, r5, pc}
 134              	.LVL14:
 135              	.L9:
 136              		.loc 1 476 0
 137 0060 AB20     		movs	r0, #171
 138              	.LVL15:
 139              		.loc 1 512 0
 140 0062 38BD     		pop	{r3, r4, r5, pc}
 141              	.LVL16:
 142              	.L7:
 143              		.loc 1 499 0
 144 0064 2946     		mov	r1, r5
 145 0066 A01C     		adds	r0, r4, #2
 146              	.LVL17:
 147 0068 FFF7FEFF 		bl	FLASH_ProgramHalfWord
 148              	.LVL18:
 149 006c ECE7     		b	.L17
 150              	.L20:
 151 006e 00BF     		.align	2
 152              	.L19:
 153 0070 00400008 		.word	134234112
 154 0074 00800008 		.word	134250496
 155 0078 FE3F0008 		.word	134234110
 156              		.cfi_endproc
 157              	.LFE224:
 158              		.size	EE_VerifyPageFullWriteVariable, .-EE_VerifyPageFullWriteVariable
 159              		.section	.text.EE_EraseSectorIfNotEmpty.constprop.1,"ax",%progbits
 160              		.align	1
 161              		.p2align 4,,15
 162              		.syntax unified
 163              		.thumb
 164              		.thumb_func
 165              		.fpu fpv4-sp-d16
 166              		.type	EE_EraseSectorIfNotEmpty.constprop.1, %function
 167              	EE_EraseSectorIfNotEmpty.constprop.1:
 168              	.LFB228:
 169              		.loc 1 618 0
 170              		.cfi_startproc
 171              		@ args = 0, pretend = 0, frame = 0
ARM GAS  /tmp/ccmLrqtN.s 			page 4


 172              		@ frame_needed = 0, uses_anonymous_args = 0
 173              	.LVL19:
 174 0000 10B5     		push	{r4, lr}
 175              		.cfi_def_cfa_offset 8
 176              		.cfi_offset 4, -8
 177              		.cfi_offset 14, -4
 178              		.loc 1 618 0
 179 0002 0446     		mov	r4, r0
 180              		.loc 1 619 0
 181 0004 FFF7FEFF 		bl	flash_helper_get_sector_address
 182              	.LVL20:
 183 0008 00F57F52 		add	r2, r0, #16320
 184 000c 3F32     		adds	r2, r2, #63
 185 000e 0138     		subs	r0, r0, #1
 186              	.LVL21:
 187 0010 01E0     		b	.L24
 188              	.LVL22:
 189              	.L22:
 190              	.LBB13:
 191              		.loc 1 621 0
 192 0012 9042     		cmp	r0, r2
 193 0014 09D0     		beq	.L27
 194              	.LVL23:
 195              	.L24:
 196              		.loc 1 622 0
 197 0016 10F8013F 		ldrb	r3, [r0, #1]!	@ zero_extendqisi2
 198              	.LVL24:
 199 001a FF2B     		cmp	r3, #255
 200 001c F9D0     		beq	.L22
 201              		.loc 1 623 0
 202 001e 2046     		mov	r0, r4
 203              	.LVL25:
 204 0020 0221     		movs	r1, #2
 205 0022 FFF7FEFF 		bl	FLASH_EraseSector
 206              	.LVL26:
 207 0026 80B2     		uxth	r0, r0
 208              	.LBE13:
 209              		.loc 1 628 0
 210 0028 10BD     		pop	{r4, pc}
 211              	.LVL27:
 212              	.L27:
 213              		.loc 1 627 0
 214 002a 0920     		movs	r0, #9
 215              	.LVL28:
 216              		.loc 1 628 0
 217 002c 10BD     		pop	{r4, pc}
 218              		.cfi_endproc
 219              	.LFE228:
 220              		.size	EE_EraseSectorIfNotEmpty.constprop.1, .-EE_EraseSectorIfNotEmpty.constprop.1
 221 002e 00BF     		.section	.text.EE_Format,"ax",%progbits
 222              		.align	1
 223              		.p2align 4,,15
 224              		.syntax unified
 225              		.thumb
 226              		.thumb_func
 227              		.fpu fpv4-sp-d16
 228              		.type	EE_Format, %function
ARM GAS  /tmp/ccmLrqtN.s 			page 5


 229              	EE_Format:
 230              	.LFB222:
 231              		.loc 1 355 0
 232              		.cfi_startproc
 233              		@ args = 0, pretend = 0, frame = 0
 234              		@ frame_needed = 0, uses_anonymous_args = 0
 235              	.LVL29:
 236 0000 08B5     		push	{r3, lr}
 237              		.cfi_def_cfa_offset 8
 238              		.cfi_offset 3, -8
 239              		.cfi_offset 14, -4
 240              		.loc 1 359 0
 241 0002 0820     		movs	r0, #8
 242 0004 FFF7FEFF 		bl	EE_EraseSectorIfNotEmpty.constprop.1
 243              	.LVL30:
 244 0008 C0B2     		uxtb	r0, r0
 245              	.LVL31:
 246              		.loc 1 362 0
 247 000a 0928     		cmp	r0, #9
 248 000c 00D0     		beq	.L31
 249              	.L29:
 250              		.loc 1 381 0
 251 000e 08BD     		pop	{r3, pc}
 252              	.L31:
 253              		.loc 1 368 0
 254 0010 0021     		movs	r1, #0
 255 0012 0548     		ldr	r0, .L32
 256              	.LVL32:
 257 0014 FFF7FEFF 		bl	FLASH_ProgramHalfWord
 258              	.LVL33:
 259              		.loc 1 371 0
 260 0018 0928     		cmp	r0, #9
 261 001a F8D1     		bne	.L29
 262              	.LBB16:
 263              		.loc 1 377 0
 264 001c 1020     		movs	r0, #16
 265              	.LVL34:
 266 001e FFF7FEFF 		bl	EE_EraseSectorIfNotEmpty.constprop.1
 267              	.LVL35:
 268 0022 C0B2     		uxtb	r0, r0
 269              	.LBE16:
 270              		.loc 1 381 0
 271 0024 08BD     		pop	{r3, pc}
 272              	.L33:
 273 0026 00BF     		.align	2
 274              	.L32:
 275 0028 00400008 		.word	134234112
 276              		.cfi_endproc
 277              	.LFE222:
 278              		.size	EE_Format, .-EE_Format
 279              		.section	.text.EE_ReadVariable,"ax",%progbits
 280              		.align	1
 281              		.p2align 4,,15
 282              		.global	EE_ReadVariable
 283              		.syntax unified
 284              		.thumb
 285              		.thumb_func
ARM GAS  /tmp/ccmLrqtN.s 			page 6


 286              		.fpu fpv4-sp-d16
 287              		.type	EE_ReadVariable, %function
 288              	EE_ReadVariable:
 289              	.LFB220:
 290              		.loc 1 272 0
 291              		.cfi_startproc
 292              		@ args = 0, pretend = 0, frame = 0
 293              		@ frame_needed = 0, uses_anonymous_args = 0
 294              		@ link register save eliminated.
 295              	.LVL36:
 296              	.LBB17:
 297              	.LBB18:
 298              		.loc 1 397 0
 299 0000 144B     		ldr	r3, .L46
 300              		.loc 1 400 0
 301 0002 154A     		ldr	r2, .L46+4
 302              		.loc 1 397 0
 303 0004 1B88     		ldrh	r3, [r3]
 304              		.loc 1 400 0
 305 0006 1288     		ldrh	r2, [r2]
 306              		.loc 1 397 0
 307 0008 9BB2     		uxth	r3, r3
 308              	.LVL37:
 309              	.LBE18:
 310              	.LBE17:
 311              		.loc 1 272 0
 312 000a 10B4     		push	{r4}
 313              		.cfi_def_cfa_offset 4
 314              		.cfi_offset 4, -4
 315              	.LBB20:
 316              	.LBB19:
 317              		.loc 1 436 0
 318 000c 2BB1     		cbz	r3, .L40
 319 000e 92B2     		uxth	r2, r2
 320              		.loc 1 440 0
 321 0010 DAB9     		cbnz	r2, .L45
 322 0012 124B     		ldr	r3, .L46+8
 323              	.LVL38:
 324 0014 124C     		ldr	r4, .L46+12
 325 0016 1A46     		mov	r2, r3
 326              	.LVL39:
 327 0018 02E0     		b	.L35
 328              	.LVL40:
 329              	.L40:
 330              		.loc 1 436 0
 331 001a 124B     		ldr	r3, .L46+16
 332              	.LVL41:
 333 001c 124C     		ldr	r4, .L46+20
 334 001e 1A46     		mov	r2, r3
 335              	.LVL42:
 336              	.L35:
 337              	.LBE19:
 338              	.LBE20:
 339              		.loc 1 296 0
 340 0020 1288     		ldrh	r2, [r2]
 341              	.LVL43:
 342              		.loc 1 299 0
ARM GAS  /tmp/ccmLrqtN.s 			page 7


 343 0022 9042     		cmp	r0, r2
 344 0024 03D1     		bne	.L37
 345 0026 09E0     		b	.L39
 346              	.LVL44:
 347              	.L38:
 348              		.loc 1 296 0
 349 0028 1A88     		ldrh	r2, [r3]
 350              	.LVL45:
 351              		.loc 1 299 0
 352 002a 9042     		cmp	r0, r2
 353 002c 06D0     		beq	.L39
 354              	.LVL46:
 355              	.L37:
 356              		.loc 1 312 0
 357 002e 043B     		subs	r3, r3, #4
 358              	.LVL47:
 359              		.loc 1 293 0
 360 0030 A342     		cmp	r3, r4
 361 0032 F9D8     		bhi	.L38
 362              		.loc 1 274 0
 363 0034 0120     		movs	r0, #1
 364              	.LVL48:
 365              		.loc 1 318 0
 366 0036 5DF8044B 		ldr	r4, [sp], #4
 367              		.cfi_remember_state
 368              		.cfi_restore 4
 369              		.cfi_def_cfa_offset 0
 370 003a 7047     		bx	lr
 371              	.LVL49:
 372              	.L39:
 373              		.cfi_restore_state
 374              		.loc 1 302 0
 375 003c 33F8023C 		ldrh	r3, [r3, #-2]
 376 0040 0B80     		strh	r3, [r1]	@ movhi
 377              	.LVL50:
 378              		.loc 1 305 0
 379 0042 0020     		movs	r0, #0
 380              	.LVL51:
 381              		.loc 1 318 0
 382 0044 5DF8044B 		ldr	r4, [sp], #4
 383              		.cfi_remember_state
 384              		.cfi_restore 4
 385              		.cfi_def_cfa_offset 0
 386 0048 7047     		bx	lr
 387              	.LVL52:
 388              	.L45:
 389              		.cfi_restore_state
 390              		.loc 1 283 0
 391 004a AB20     		movs	r0, #171
 392              	.LVL53:
 393              		.loc 1 318 0
 394 004c 5DF8044B 		ldr	r4, [sp], #4
 395              		.cfi_restore 4
 396              		.cfi_def_cfa_offset 0
 397 0050 7047     		bx	lr
 398              	.L47:
 399 0052 00BF     		.align	2
ARM GAS  /tmp/ccmLrqtN.s 			page 8


 400              	.L46:
 401 0054 00400008 		.word	134234112
 402 0058 00800008 		.word	134250496
 403 005c FEBF0008 		.word	134266878
 404 0060 02800008 		.word	134250498
 405 0064 FE7F0008 		.word	134250494
 406 0068 02400008 		.word	134234114
 407              		.cfi_endproc
 408              	.LFE220:
 409              		.size	EE_ReadVariable, .-EE_ReadVariable
 410              		.section	.text.EE_Init,"ax",%progbits
 411              		.align	1
 412              		.p2align 4,,15
 413              		.global	EE_Init
 414              		.syntax unified
 415              		.thumb
 416              		.thumb_func
 417              		.fpu fpv4-sp-d16
 418              		.type	EE_Init, %function
 419              	EE_Init:
 420              	.LFB219:
 421              		.loc 1 57 0
 422              		.cfi_startproc
 423              		@ args = 0, pretend = 0, frame = 0
 424              		@ frame_needed = 0, uses_anonymous_args = 0
 425              	.LVL54:
 426 0000 2DE9F041 		push	{r4, r5, r6, r7, r8, lr}
 427              		.cfi_def_cfa_offset 24
 428              		.cfi_offset 4, -24
 429              		.cfi_offset 5, -20
 430              		.cfi_offset 6, -16
 431              		.cfi_offset 7, -12
 432              		.cfi_offset 8, -8
 433              		.cfi_offset 14, -4
 434              		.loc 1 65 0
 435 0004 484D     		ldr	r5, .L86
 436              		.loc 1 67 0
 437 0006 494E     		ldr	r6, .L86+4
 438              		.loc 1 65 0
 439 0008 2C88     		ldrh	r4, [r5]
 440              		.loc 1 67 0
 441 000a 3388     		ldrh	r3, [r6]
 442              		.loc 1 65 0
 443 000c A4B2     		uxth	r4, r4
 444              	.LVL55:
 445              		.loc 1 70 0
 446 000e 4EF6EE62 		movw	r2, #61166
 447 0012 9442     		cmp	r4, r2
 448              		.loc 1 67 0
 449 0014 9BB2     		uxth	r3, r3
 450              	.LVL56:
 451              		.loc 1 70 0
 452 0016 49D0     		beq	.L50
 453 0018 4FF6FF71 		movw	r1, #65535
 454 001c 8C42     		cmp	r4, r1
 455 001e 36D0     		beq	.L51
 456 0020 24B1     		cbz	r4, .L85
ARM GAS  /tmp/ccmLrqtN.s 			page 9


 457              	.L79:
 458              		.loc 1 249 0
 459 0022 FFF7FEFF 		bl	EE_Format
 460              	.LVL57:
 461 0026 80B2     		uxth	r0, r0
 462              	.LVL58:
 463              	.L55:
 464              		.loc 1 259 0
 465 0028 BDE8F081 		pop	{r4, r5, r6, r7, r8, pc}
 466              	.LVL59:
 467              	.L85:
 468              		.loc 1 184 0
 469 002c 002B     		cmp	r3, #0
 470 002e F8D0     		beq	.L79
 471              		.loc 1 194 0
 472 0030 8B42     		cmp	r3, r1
 473 0032 64D0     		beq	.L84
 474 0034 3E4D     		ldr	r5, .L86+8
 475              		.loc 1 209 0
 476 0036 3F4F     		ldr	r7, .L86+12
 477              		.loc 1 216 0
 478 0038 DFF8FC80 		ldr	r8, .L86+16
 479              		.loc 1 61 0
 480 003c 4FF0FF36 		mov	r6, #-1
 481              	.LVL60:
 482              	.L65:
 483              		.loc 1 209 0
 484 0040 35F8023B 		ldrh	r3, [r5], #2
 485 0044 3A88     		ldrh	r2, [r7]
 486              		.loc 1 216 0
 487 0046 3C49     		ldr	r1, .L86+16
 488              		.loc 1 209 0
 489 0048 9342     		cmp	r3, r2
 490              		.loc 1 211 0
 491 004a 08BF     		it	eq
 492 004c 26B2     		sxtheq	r6, r4
 493              	.LVL61:
 494              		.loc 1 213 0
 495 004e B442     		cmp	r4, r6
 496              		.loc 1 216 0
 497 0050 1846     		mov	r0, r3
 498 0052 04F10104 		add	r4, r4, #1
 499              	.LVL62:
 500              		.loc 1 213 0
 501 0056 0BD0     		beq	.L67
 502              		.loc 1 216 0
 503 0058 FFF7FEFF 		bl	EE_ReadVariable
 504              	.LVL63:
 505              		.loc 1 218 0
 506 005c 0128     		cmp	r0, #1
 507 005e 07D0     		beq	.L67
 508              		.loc 1 221 0
 509 0060 B8F80010 		ldrh	r1, [r8]
 510 0064 35F8020C 		ldrh	r0, [r5, #-2]
 511              	.LVL64:
 512 0068 FFF7FEFF 		bl	EE_VerifyPageFullWriteVariable
 513              	.LVL65:
ARM GAS  /tmp/ccmLrqtN.s 			page 10


 514              		.loc 1 223 0
 515 006c 0928     		cmp	r0, #9
 516 006e DBD1     		bne	.L55
 517              	.LVL66:
 518              	.L67:
 519              		.loc 1 207 0
 520 0070 B4F5937F 		cmp	r4, #294
 521 0074 E4D1     		bne	.L65
 522              		.loc 1 231 0
 523 0076 0021     		movs	r1, #0
 524 0078 2C48     		ldr	r0, .L86+4
 525 007a FFF7FEFF 		bl	FLASH_ProgramHalfWord
 526              	.LVL67:
 527 007e 80B2     		uxth	r0, r0
 528              	.LVL68:
 529              		.loc 1 233 0
 530 0080 0928     		cmp	r0, #9
 531 0082 D1D1     		bne	.L55
 532              	.LVL69:
 533              	.L83:
 534              		.loc 1 238 0
 535 0084 0820     		movs	r0, #8
 536              		.loc 1 259 0
 537 0086 BDE8F041 		pop	{r4, r5, r6, r7, r8, lr}
 538              		.cfi_remember_state
 539              		.cfi_restore 14
 540              		.cfi_restore 8
 541              		.cfi_restore 7
 542              		.cfi_restore 6
 543              		.cfi_restore 5
 544              		.cfi_restore 4
 545              		.cfi_def_cfa_offset 0
 546              		.loc 1 238 0
 547 008a FFF7FEBF 		b	EE_EraseSectorIfNotEmpty.constprop.1
 548              	.LVL70:
 549              	.L51:
 550              		.cfi_restore_state
 551              		.loc 1 73 0
 552 008e 002B     		cmp	r3, #0
 553 0090 F8D0     		beq	.L83
 554              		.loc 1 83 0
 555 0092 9342     		cmp	r3, r2
 556 0094 C5D1     		bne	.L79
 557              		.loc 1 86 0
 558 0096 0820     		movs	r0, #8
 559 0098 FFF7FEFF 		bl	EE_EraseSectorIfNotEmpty.constprop.1
 560              	.LVL71:
 561              		.loc 1 88 0
 562 009c 0928     		cmp	r0, #9
 563 009e C3D1     		bne	.L55
 564              		.loc 1 93 0
 565 00a0 3046     		mov	r0, r6
 566              	.LVL72:
 567 00a2 0021     		movs	r1, #0
 568 00a4 FFF7FEFF 		bl	FLASH_ProgramHalfWord
 569              	.LVL73:
 570 00a8 80B2     		uxth	r0, r0
ARM GAS  /tmp/ccmLrqtN.s 			page 11


 571              	.LVL74:
 572 00aa BDE7     		b	.L55
 573              	.LVL75:
 574              	.L50:
 575              		.loc 1 113 0
 576 00ac 63BB     		cbnz	r3, .L56
 577 00ae 204D     		ldr	r5, .L86+8
 578              		.loc 1 118 0
 579 00b0 224E     		ldr	r6, .L86+20
 580              		.loc 1 125 0
 581 00b2 214F     		ldr	r7, .L86+16
 582              		.loc 1 113 0
 583 00b4 1C46     		mov	r4, r3
 584              	.LVL76:
 585              		.loc 1 61 0
 586 00b6 4FF0FF38 		mov	r8, #-1
 587              	.LVL77:
 588              	.L59:
 589              		.loc 1 118 0
 590 00ba 35F8023B 		ldrh	r3, [r5], #2
 591 00be 3288     		ldrh	r2, [r6]
 592              		.loc 1 125 0
 593 00c0 1D49     		ldr	r1, .L86+16
 594              		.loc 1 118 0
 595 00c2 9342     		cmp	r3, r2
 596              		.loc 1 120 0
 597 00c4 08BF     		it	eq
 598 00c6 0FFA84F8 		sxtheq	r8, r4
 599              	.LVL78:
 600              		.loc 1 122 0
 601 00ca 4445     		cmp	r4, r8
 602              		.loc 1 125 0
 603 00cc 1846     		mov	r0, r3
 604 00ce 04F10104 		add	r4, r4, #1
 605              	.LVL79:
 606              		.loc 1 122 0
 607 00d2 0AD0     		beq	.L61
 608              		.loc 1 125 0
 609 00d4 FFF7FEFF 		bl	EE_ReadVariable
 610              	.LVL80:
 611              		.loc 1 127 0
 612 00d8 0128     		cmp	r0, #1
 613 00da 06D0     		beq	.L61
 614              		.loc 1 130 0
 615 00dc 3988     		ldrh	r1, [r7]
 616 00de 35F8020C 		ldrh	r0, [r5, #-2]
 617              	.LVL81:
 618 00e2 FFF7FEFF 		bl	EE_VerifyPageFullWriteVariable
 619              	.LVL82:
 620              		.loc 1 132 0
 621 00e6 0928     		cmp	r0, #9
 622 00e8 9ED1     		bne	.L55
 623              	.LVL83:
 624              	.L61:
 625              		.loc 1 116 0
 626 00ea B4F5937F 		cmp	r4, #294
 627 00ee E4D1     		bne	.L59
ARM GAS  /tmp/ccmLrqtN.s 			page 12


 628              		.loc 1 140 0
 629 00f0 0021     		movs	r1, #0
 630 00f2 0D48     		ldr	r0, .L86
 631 00f4 FFF7FEFF 		bl	FLASH_ProgramHalfWord
 632              	.LVL84:
 633 00f8 80B2     		uxth	r0, r0
 634              	.LVL85:
 635              		.loc 1 142 0
 636 00fa 0928     		cmp	r0, #9
 637 00fc 94D1     		bne	.L55
 638              	.LVL86:
 639              	.L84:
 640              		.loc 1 197 0
 641 00fe 1020     		movs	r0, #16
 642              		.loc 1 259 0
 643 0100 BDE8F041 		pop	{r4, r5, r6, r7, r8, lr}
 644              		.cfi_remember_state
 645              		.cfi_restore 14
 646              		.cfi_restore 8
 647              		.cfi_restore 7
 648              		.cfi_restore 6
 649              		.cfi_restore 5
 650              		.cfi_restore 4
 651              		.cfi_def_cfa_offset 0
 652              		.loc 1 197 0
 653 0104 FFF7FEBF 		b	EE_EraseSectorIfNotEmpty.constprop.1
 654              	.LVL87:
 655              	.L56:
 656              		.cfi_restore_state
 657              		.loc 1 154 0
 658 0108 4FF6FF72 		movw	r2, #65535
 659 010c 9342     		cmp	r3, r2
 660 010e 88D1     		bne	.L79
 661              		.loc 1 157 0
 662 0110 1020     		movs	r0, #16
 663 0112 FFF7FEFF 		bl	EE_EraseSectorIfNotEmpty.constprop.1
 664              	.LVL88:
 665              		.loc 1 159 0
 666 0116 0928     		cmp	r0, #9
 667 0118 86D1     		bne	.L55
 668              		.loc 1 164 0
 669 011a 2846     		mov	r0, r5
 670              	.LVL89:
 671 011c 0021     		movs	r1, #0
 672 011e FFF7FEFF 		bl	FLASH_ProgramHalfWord
 673              	.LVL90:
 674 0122 80B2     		uxth	r0, r0
 675              	.LVL91:
 676 0124 80E7     		b	.L55
 677              	.L87:
 678 0126 00BF     		.align	2
 679              	.L86:
 680 0128 00400008 		.word	134234112
 681 012c 00800008 		.word	134250496
 682 0130 00000000 		.word	VirtAddVarTab
 683 0134 06800008 		.word	134250502
 684 0138 00000000 		.word	.LANCHOR0
ARM GAS  /tmp/ccmLrqtN.s 			page 13


 685 013c 06400008 		.word	134234118
 686              		.cfi_endproc
 687              	.LFE219:
 688              		.size	EE_Init, .-EE_Init
 689              		.section	.text.EE_WriteVariable,"ax",%progbits
 690              		.align	1
 691              		.p2align 4,,15
 692              		.global	EE_WriteVariable
 693              		.syntax unified
 694              		.thumb
 695              		.thumb_func
 696              		.fpu fpv4-sp-d16
 697              		.type	EE_WriteVariable, %function
 698              	EE_WriteVariable:
 699              	.LFB221:
 700              		.loc 1 331 0
 701              		.cfi_startproc
 702              		@ args = 0, pretend = 0, frame = 0
 703              		@ frame_needed = 0, uses_anonymous_args = 0
 704              	.LVL92:
 705 0000 2DE9F047 		push	{r4, r5, r6, r7, r8, r9, r10, lr}
 706              		.cfi_def_cfa_offset 32
 707              		.cfi_offset 4, -32
 708              		.cfi_offset 5, -28
 709              		.cfi_offset 6, -24
 710              		.cfi_offset 7, -20
 711              		.cfi_offset 8, -16
 712              		.cfi_offset 9, -12
 713              		.cfi_offset 10, -8
 714              		.cfi_offset 14, -4
 715              		.loc 1 331 0
 716 0004 0646     		mov	r6, r0
 717 0006 0D46     		mov	r5, r1
 718              		.loc 1 335 0
 719 0008 FFF7FEFF 		bl	EE_VerifyPageFullWriteVariable
 720              	.LVL93:
 721              		.loc 1 338 0
 722 000c 8028     		cmp	r0, #128
 723              		.loc 1 335 0
 724 000e 0446     		mov	r4, r0
 725              	.LVL94:
 726              		.loc 1 338 0
 727 0010 02D0     		beq	.L110
 728              	.LVL95:
 729              	.L89:
 730              		.loc 1 346 0
 731 0012 2046     		mov	r0, r4
 732 0014 BDE8F087 		pop	{r4, r5, r6, r7, r8, r9, r10, pc}
 733              	.LVL96:
 734              	.L110:
 735              	.LBB25:
 736              	.LBB26:
 737              	.LBB27:
 738              	.LBB28:
 739              		.loc 1 397 0
 740 0018 2549     		ldr	r1, .L112
 741              		.loc 1 400 0
ARM GAS  /tmp/ccmLrqtN.s 			page 14


 742 001a 264F     		ldr	r7, .L112+4
 743              		.loc 1 397 0
 744 001c 0B88     		ldrh	r3, [r1]
 745              		.loc 1 400 0
 746 001e 3A88     		ldrh	r2, [r7]
 747              		.loc 1 397 0
 748 0020 9BB2     		uxth	r3, r3
 749              	.LVL97:
 750              		.loc 1 400 0
 751 0022 92B2     		uxth	r2, r2
 752              	.LVL98:
 753              		.loc 1 436 0
 754 0024 73B1     		cbz	r3, .L97
 755              		.loc 1 440 0
 756 0026 82B9     		cbnz	r2, .L98
 757              	.LBE28:
 758              	.LBE27:
 759              		.loc 1 539 0
 760 0028 0F46     		mov	r7, r1
 761              		.loc 1 542 0
 762 002a 4FF01008 		mov	r8, #16
 763              	.L90:
 764              	.LVL99:
 765              		.loc 1 558 0
 766 002e 4EF6EE61 		movw	r1, #61166
 767 0032 3846     		mov	r0, r7
 768              	.LVL100:
 769 0034 FFF7FEFF 		bl	FLASH_ProgramHalfWord
 770              	.LVL101:
 771              		.loc 1 560 0
 772 0038 0928     		cmp	r0, #9
 773 003a 08D0     		beq	.L91
 774              	.LVL102:
 775              	.L109:
 776              		.loc 1 607 0
 777 003c 84B2     		uxth	r4, r0
 778              	.LVL103:
 779              	.LBE26:
 780              	.LBE25:
 781              		.loc 1 346 0
 782 003e 2046     		mov	r0, r4
 783 0040 BDE8F087 		pop	{r4, r5, r6, r7, r8, r9, r10, pc}
 784              	.LVL104:
 785              	.L97:
 786              	.LBB30:
 787              	.LBB29:
 788              		.loc 1 550 0
 789 0044 4FF00808 		mov	r8, #8
 790 0048 F1E7     		b	.L90
 791              	.L98:
 792              		.loc 1 554 0
 793 004a AB24     		movs	r4, #171
 794 004c E1E7     		b	.L89
 795              	.LVL105:
 796              	.L91:
 797              		.loc 1 566 0
 798 004e 2946     		mov	r1, r5
ARM GAS  /tmp/ccmLrqtN.s 			page 15


 799 0050 3046     		mov	r0, r6
 800              	.LVL106:
 801 0052 FFF7FEFF 		bl	EE_VerifyPageFullWriteVariable
 802              	.LVL107:
 803              		.loc 1 568 0
 804 0056 0928     		cmp	r0, #9
 805              		.loc 1 566 0
 806 0058 0446     		mov	r4, r0
 807              	.LVL108:
 808              		.loc 1 568 0
 809 005a DAD1     		bne	.L89
 810 005c 164D     		ldr	r5, .L112+8
 811              	.LVL109:
 812              		.loc 1 579 0
 813 005e DFF85CA0 		ldr	r10, .L112+12
 814 0062 05F51379 		add	r9, r5, #588
 815 0066 01E0     		b	.L93
 816              	.LVL110:
 817              	.L95:
 818              		.loc 1 574 0
 819 0068 4D45     		cmp	r5, r9
 820 006a 13D0     		beq	.L111
 821              	.L93:
 822              		.loc 1 576 0
 823 006c 35F8023B 		ldrh	r3, [r5], #2
 824              		.loc 1 579 0
 825 0070 1249     		ldr	r1, .L112+12
 826              		.loc 1 576 0
 827 0072 9E42     		cmp	r6, r3
 828              		.loc 1 579 0
 829 0074 1846     		mov	r0, r3
 830              		.loc 1 576 0
 831 0076 F7D0     		beq	.L95
 832              		.loc 1 579 0
 833 0078 FFF7FEFF 		bl	EE_ReadVariable
 834              	.LVL111:
 835              		.loc 1 581 0
 836 007c 0128     		cmp	r0, #1
 837 007e F3D0     		beq	.L95
 838              		.loc 1 584 0
 839 0080 BAF80010 		ldrh	r1, [r10]
 840 0084 35F8020C 		ldrh	r0, [r5, #-2]
 841              	.LVL112:
 842 0088 FFF7FEFF 		bl	EE_VerifyPageFullWriteVariable
 843              	.LVL113:
 844              		.loc 1 586 0
 845 008c 0928     		cmp	r0, #9
 846 008e EBD0     		beq	.L95
 847 0090 0446     		mov	r4, r0
 848 0092 BEE7     		b	.L89
 849              	.LVL114:
 850              	.L111:
 851              		.loc 1 595 0
 852 0094 4046     		mov	r0, r8
 853 0096 FFF7FEFF 		bl	EE_EraseSectorIfNotEmpty.constprop.1
 854              	.LVL115:
 855              		.loc 1 597 0
ARM GAS  /tmp/ccmLrqtN.s 			page 16


 856 009a C0B2     		uxtb	r0, r0
 857 009c 0928     		cmp	r0, #9
 858 009e CDD1     		bne	.L109
 859              		.loc 1 603 0
 860 00a0 3846     		mov	r0, r7
 861              	.LVL116:
 862 00a2 0021     		movs	r1, #0
 863 00a4 FFF7FEFF 		bl	FLASH_ProgramHalfWord
 864              	.LVL117:
 865              		.loc 1 605 0
 866 00a8 0928     		cmp	r0, #9
 867 00aa C7D1     		bne	.L109
 868 00ac B1E7     		b	.L89
 869              	.L113:
 870 00ae 00BF     		.align	2
 871              	.L112:
 872 00b0 00400008 		.word	134234112
 873 00b4 00800008 		.word	134250496
 874 00b8 00000000 		.word	VirtAddVarTab
 875 00bc 00000000 		.word	.LANCHOR0
 876              	.LBE29:
 877              	.LBE30:
 878              		.cfi_endproc
 879              	.LFE221:
 880              		.size	EE_WriteVariable, .-EE_WriteVariable
 881              		.global	DataVar
 882              		.section	.bss.DataVar,"aw",%nobits
 883              		.align	1
 884              		.set	.LANCHOR0,. + 0
 885              		.type	DataVar, %object
 886              		.size	DataVar, 2
 887              	DataVar:
 888 0000 0000     		.space	2
 889              		.text
 890              	.Letext0:
 891              		.file 2 "/usr/arm-none-eabi/include/machine/_default_types.h"
 892              		.file 3 "/usr/arm-none-eabi/include/sys/_stdint.h"
 893              		.file 4 "ChibiOS_3.0.2/os/ext/CMSIS/include/core_cm4.h"
 894              		.file 5 "ChibiOS_3.0.2/os/ext/CMSIS/ST/system_stm32f4xx.h"
 895              		.file 6 "ChibiOS_3.0.2/ext/stdperiph_stm32f4/inc/stm32f4xx_flash.h"
 896              		.file 7 "/usr/lib/gcc/arm-none-eabi/7.3.1/include/stddef.h"
 897              		.file 8 "ChibiOS_3.0.2/os/rt/ports/ARMCMx/compilers/GCC/chtypes.h"
 898              		.file 9 "ChibiOS_3.0.2/os/rt/include/chsystypes.h"
 899              		.file 10 "ChibiOS_3.0.2/os/rt/include/chschd.h"
 900              		.file 11 "ChibiOS_3.0.2/os/rt/ports/ARMCMx/chcore.h"
 901              		.file 12 "ChibiOS_3.0.2/os/rt/ports/ARMCMx/chcore_v7m.h"
 902              		.file 13 "ChibiOS_3.0.2/os/rt/include/chtm.h"
 903              		.file 14 "ChibiOS_3.0.2/os/rt/include/chsem.h"
 904              		.file 15 "ChibiOS_3.0.2/os/rt/include/chmtx.h"
 905              		.file 16 "ChibiOS_3.0.2/os/rt/include/chregistry.h"
 906              		.file 17 "conf_general.h"
 907              		.file 18 "flash_helper.h"