ARM GAS  /tmp/ccrjx8sG.s 			page 1


   1              		.cpu cortex-m4
   2              		.eabi_attribute 27, 1
   3              		.eabi_attribute 28, 1
   4              		.eabi_attribute 20, 1
   5              		.eabi_attribute 21, 1
   6              		.eabi_attribute 23, 3
   7              		.eabi_attribute 24, 1
   8              		.eabi_attribute 25, 1
   9              		.eabi_attribute 26, 1
  10              		.eabi_attribute 30, 2
  11              		.eabi_attribute 34, 1
  12              		.eabi_attribute 18, 4
  13              		.file	"hw_410.c"
  14              		.text
  15              	.Ltext0:
  16              		.cfi_sections	.debug_frame
  17              		.section	.text.hw_init_gpio,"ax",%progbits
  18              		.align	1
  19              		.p2align 4,,15
  20              		.global	hw_init_gpio
  21              		.syntax unified
  22              		.thumb
  23              		.thumb_func
  24              		.fpu fpv4-sp-d16
  25              		.type	hw_init_gpio, %function
  26              	hw_init_gpio:
  27              	.LFB256:
  28              		.file 1 "hwconf/hw_410.c"
  29              		.loc 1 35 0
  30              		.cfi_startproc
  31              		@ args = 0, pretend = 0, frame = 0
  32              		@ frame_needed = 0, uses_anonymous_args = 0
  33              		.loc 1 37 0
  34 0000 0121     		movs	r1, #1
  35              		.loc 1 35 0
  36 0002 F8B5     		push	{r3, r4, r5, r6, r7, lr}
  37              		.cfi_def_cfa_offset 24
  38              		.cfi_offset 3, -24
  39              		.cfi_offset 4, -20
  40              		.cfi_offset 5, -16
  41              		.cfi_offset 6, -12
  42              		.cfi_offset 7, -8
  43              		.cfi_offset 14, -4
  44              		.loc 1 37 0
  45 0004 0846     		mov	r0, r1
  46              		.loc 1 42 0
  47 0006 504C     		ldr	r4, .L4
  48              		.loc 1 56 0
  49 0008 504E     		ldr	r6, .L4+4
  50              		.loc 1 61 0
  51 000a 514D     		ldr	r5, .L4+8
  52              		.loc 1 37 0
  53 000c FFF7FEFF 		bl	RCC_AHB1PeriphClockCmd
  54              	.LVL0:
  55              		.loc 1 38 0
  56 0010 0121     		movs	r1, #1
  57 0012 0220     		movs	r0, #2
ARM GAS  /tmp/ccrjx8sG.s 			page 2


  58 0014 FFF7FEFF 		bl	RCC_AHB1PeriphClockCmd
  59              	.LVL1:
  60              		.loc 1 39 0
  61 0018 0121     		movs	r1, #1
  62 001a 0420     		movs	r0, #4
  63 001c FFF7FEFF 		bl	RCC_AHB1PeriphClockCmd
  64              	.LVL2:
  65              		.loc 1 42 0
  66 0020 2046     		mov	r0, r4
  67 0022 1922     		movs	r2, #25
  68 0024 1021     		movs	r1, #16
  69 0026 FFF7FEFF 		bl	_pal_lld_setgroupmode
  70              	.LVL3:
  71              		.loc 1 53 0
  72 002a 4FF48067 		mov	r7, #1024
  73              		.loc 1 45 0
  74 002e 2046     		mov	r0, r4
  75 0030 1922     		movs	r2, #25
  76 0032 2021     		movs	r1, #32
  77 0034 FFF7FEFF 		bl	_pal_lld_setgroupmode
  78              	.LVL4:
  79              		.loc 1 50 0
  80 0038 2046     		mov	r0, r4
  81 003a 3946     		mov	r1, r7
  82 003c 1922     		movs	r2, #25
  83 003e FFF7FEFF 		bl	_pal_lld_setgroupmode
  84              	.LVL5:
  85              		.loc 1 56 0
  86 0042 3046     		mov	r0, r6
  87              		.loc 1 53 0
  88 0044 6783     		strh	r7, [r4, #26]	@ movhi
  89              		.loc 1 56 0
  90 0046 1922     		movs	r2, #25
  91 0048 4FF48051 		mov	r1, #4096
  92 004c FFF7FEFF 		bl	_pal_lld_setgroupmode
  93              	.LVL6:
  94              		.loc 1 61 0
  95 0050 2846     		mov	r0, r5
  96 0052 9A22     		movs	r2, #154
  97 0054 4FF48071 		mov	r1, #256
  98 0058 FFF7FEFF 		bl	_pal_lld_setgroupmode
  99              	.LVL7:
 100              		.loc 1 64 0
 101 005c 2846     		mov	r0, r5
 102 005e 9A22     		movs	r2, #154
 103 0060 4FF40071 		mov	r1, #512
 104 0064 FFF7FEFF 		bl	_pal_lld_setgroupmode
 105              	.LVL8:
 106              		.loc 1 67 0
 107 0068 3946     		mov	r1, r7
 108 006a 2846     		mov	r0, r5
 109 006c 9A22     		movs	r2, #154
 110 006e FFF7FEFF 		bl	_pal_lld_setgroupmode
 111              	.LVL9:
 112              		.loc 1 71 0
 113 0072 3046     		mov	r0, r6
 114 0074 9A22     		movs	r2, #154
ARM GAS  /tmp/ccrjx8sG.s 			page 3


 115 0076 4FF40051 		mov	r1, #8192
 116 007a FFF7FEFF 		bl	_pal_lld_setgroupmode
 117              	.LVL10:
 118              		.loc 1 74 0
 119 007e 3046     		mov	r0, r6
 120 0080 9A22     		movs	r2, #154
 121 0082 4FF48041 		mov	r1, #16384
 122 0086 FFF7FEFF 		bl	_pal_lld_setgroupmode
 123              	.LVL11:
 124              		.loc 1 77 0
 125 008a 3046     		mov	r0, r6
 126 008c 9A22     		movs	r2, #154
 127 008e 4FF40041 		mov	r1, #32768
 128 0092 FFF7FEFF 		bl	_pal_lld_setgroupmode
 129              	.LVL12:
 130              		.loc 1 82 0
 131 0096 3046     		mov	r0, r6
 132 0098 2022     		movs	r2, #32
 133 009a 4021     		movs	r1, #64
 134 009c FFF7FEFF 		bl	_pal_lld_setgroupmode
 135              	.LVL13:
 136              		.loc 1 83 0
 137 00a0 3046     		mov	r0, r6
 138 00a2 2022     		movs	r2, #32
 139 00a4 8021     		movs	r1, #128
 140 00a6 FFF7FEFF 		bl	_pal_lld_setgroupmode
 141              	.LVL14:
 142              		.loc 1 84 0
 143 00aa 2046     		mov	r0, r4
 144 00ac 2022     		movs	r2, #32
 145 00ae 4FF40061 		mov	r1, #2048
 146 00b2 FFF7FEFF 		bl	_pal_lld_setgroupmode
 147              	.LVL15:
 148              		.loc 1 87 0
 149 00b6 2046     		mov	r0, r4
 150 00b8 2022     		movs	r2, #32
 151 00ba 4FF48051 		mov	r1, #4096
 152 00be FFF7FEFF 		bl	_pal_lld_setgroupmode
 153              	.LVL16:
 154              		.loc 1 90 0
 155 00c2 2846     		mov	r0, r5
 156 00c4 0322     		movs	r2, #3
 157 00c6 0121     		movs	r1, #1
 158 00c8 FFF7FEFF 		bl	_pal_lld_setgroupmode
 159              	.LVL17:
 160              		.loc 1 91 0
 161 00cc 2846     		mov	r0, r5
 162 00ce 0322     		movs	r2, #3
 163 00d0 0221     		movs	r1, #2
 164 00d2 FFF7FEFF 		bl	_pal_lld_setgroupmode
 165              	.LVL18:
 166              		.loc 1 92 0
 167 00d6 2846     		mov	r0, r5
 168 00d8 0322     		movs	r2, #3
 169 00da 0421     		movs	r1, #4
 170 00dc FFF7FEFF 		bl	_pal_lld_setgroupmode
 171              	.LVL19:
ARM GAS  /tmp/ccrjx8sG.s 			page 4


 172              		.loc 1 93 0
 173 00e0 2846     		mov	r0, r5
 174 00e2 0322     		movs	r2, #3
 175 00e4 0821     		movs	r1, #8
 176 00e6 FFF7FEFF 		bl	_pal_lld_setgroupmode
 177              	.LVL20:
 178              		.loc 1 94 0
 179 00ea 2846     		mov	r0, r5
 180 00ec 0322     		movs	r2, #3
 181 00ee 1021     		movs	r1, #16
 182 00f0 FFF7FEFF 		bl	_pal_lld_setgroupmode
 183              	.LVL21:
 184              		.loc 1 95 0
 185 00f4 2846     		mov	r0, r5
 186 00f6 0322     		movs	r2, #3
 187 00f8 2021     		movs	r1, #32
 188 00fa FFF7FEFF 		bl	_pal_lld_setgroupmode
 189              	.LVL22:
 190              		.loc 1 96 0
 191 00fe 2846     		mov	r0, r5
 192 0100 0322     		movs	r2, #3
 193 0102 4021     		movs	r1, #64
 194 0104 FFF7FEFF 		bl	_pal_lld_setgroupmode
 195              	.LVL23:
 196              		.loc 1 98 0
 197 0108 3046     		mov	r0, r6
 198 010a 0322     		movs	r2, #3
 199 010c 0121     		movs	r1, #1
 200 010e FFF7FEFF 		bl	_pal_lld_setgroupmode
 201              	.LVL24:
 202              		.loc 1 99 0
 203 0112 3046     		mov	r0, r6
 204 0114 0322     		movs	r2, #3
 205 0116 0221     		movs	r1, #2
 206 0118 FFF7FEFF 		bl	_pal_lld_setgroupmode
 207              	.LVL25:
 208              		.loc 1 101 0
 209 011c 2046     		mov	r0, r4
 210 011e 0322     		movs	r2, #3
 211 0120 0121     		movs	r1, #1
 212 0122 FFF7FEFF 		bl	_pal_lld_setgroupmode
 213              	.LVL26:
 214              		.loc 1 102 0
 215 0126 2046     		mov	r0, r4
 216 0128 0322     		movs	r2, #3
 217 012a 0221     		movs	r1, #2
 218 012c FFF7FEFF 		bl	_pal_lld_setgroupmode
 219              	.LVL27:
 220              		.loc 1 103 0
 221 0130 2046     		mov	r0, r4
 222 0132 0322     		movs	r2, #3
 223 0134 0421     		movs	r1, #4
 224 0136 FFF7FEFF 		bl	_pal_lld_setgroupmode
 225              	.LVL28:
 226              		.loc 1 104 0
 227 013a 2046     		mov	r0, r4
 228 013c 0322     		movs	r2, #3
ARM GAS  /tmp/ccrjx8sG.s 			page 5


 229 013e 0821     		movs	r1, #8
 230              		.loc 1 105 0
 231 0140 BDE8F840 		pop	{r3, r4, r5, r6, r7, lr}
 232              		.cfi_restore 14
 233              		.cfi_restore 7
 234              		.cfi_restore 6
 235              		.cfi_restore 5
 236              		.cfi_restore 4
 237              		.cfi_restore 3
 238              		.cfi_def_cfa_offset 0
 239              		.loc 1 104 0
 240 0144 FFF7FEBF 		b	_pal_lld_setgroupmode
 241              	.LVL29:
 242              	.L5:
 243              		.align	2
 244              	.L4:
 245 0148 00080240 		.word	1073874944
 246 014c 00040240 		.word	1073873920
 247 0150 00000240 		.word	1073872896
 248              		.cfi_endproc
 249              	.LFE256:
 250              		.size	hw_init_gpio, .-hw_init_gpio
 251              		.section	.text.hw_setup_adc_channels,"ax",%progbits
 252              		.align	1
 253              		.p2align 4,,15
 254              		.global	hw_setup_adc_channels
 255              		.syntax unified
 256              		.thumb
 257              		.thumb_func
 258              		.fpu fpv4-sp-d16
 259              		.type	hw_setup_adc_channels, %function
 260              	hw_setup_adc_channels:
 261              	.LFB257:
 262              		.loc 1 107 0
 263              		.cfi_startproc
 264              		@ args = 0, pretend = 0, frame = 0
 265              		@ frame_needed = 0, uses_anonymous_args = 0
 266 0000 70B5     		push	{r4, r5, r6, lr}
 267              		.cfi_def_cfa_offset 16
 268              		.cfi_offset 4, -16
 269              		.cfi_offset 5, -12
 270              		.cfi_offset 6, -8
 271              		.cfi_offset 14, -4
 272              		.loc 1 109 0
 273 0002 324D     		ldr	r5, .L8
 274              		.loc 1 115 0
 275 0004 324C     		ldr	r4, .L8+4
 276              		.loc 1 121 0
 277 0006 334E     		ldr	r6, .L8+8
 278              		.loc 1 109 0
 279 0008 0123     		movs	r3, #1
 280 000a 2846     		mov	r0, r5
 281 000c 1A46     		mov	r2, r3
 282 000e 0021     		movs	r1, #0
 283 0010 FFF7FEFF 		bl	ADC_RegularChannelConfig
 284              	.LVL30:
 285              		.loc 1 110 0
ARM GAS  /tmp/ccrjx8sG.s 			page 6


 286 0014 2846     		mov	r0, r5
 287 0016 0123     		movs	r3, #1
 288 0018 0222     		movs	r2, #2
 289 001a 0821     		movs	r1, #8
 290 001c FFF7FEFF 		bl	ADC_RegularChannelConfig
 291              	.LVL31:
 292              		.loc 1 111 0
 293 0020 2846     		mov	r0, r5
 294 0022 0123     		movs	r3, #1
 295 0024 0322     		movs	r2, #3
 296 0026 1121     		movs	r1, #17
 297 0028 FFF7FEFF 		bl	ADC_RegularChannelConfig
 298              	.LVL32:
 299              		.loc 1 112 0
 300 002c 0422     		movs	r2, #4
 301 002e 2846     		mov	r0, r5
 302 0030 1146     		mov	r1, r2
 303 0032 0123     		movs	r3, #1
 304 0034 FFF7FEFF 		bl	ADC_RegularChannelConfig
 305              	.LVL33:
 306              		.loc 1 115 0
 307 0038 0123     		movs	r3, #1
 308 003a 2046     		mov	r0, r4
 309 003c 1A46     		mov	r2, r3
 310 003e 1946     		mov	r1, r3
 311 0040 FFF7FEFF 		bl	ADC_RegularChannelConfig
 312              	.LVL34:
 313              		.loc 1 116 0
 314 0044 2046     		mov	r0, r4
 315 0046 0123     		movs	r3, #1
 316 0048 0222     		movs	r2, #2
 317 004a 0921     		movs	r1, #9
 318 004c FFF7FEFF 		bl	ADC_RegularChannelConfig
 319              	.LVL35:
 320              		.loc 1 117 0
 321 0050 2046     		mov	r0, r4
 322 0052 0123     		movs	r3, #1
 323 0054 0322     		movs	r2, #3
 324 0056 0621     		movs	r1, #6
 325 0058 FFF7FEFF 		bl	ADC_RegularChannelConfig
 326              	.LVL36:
 327              		.loc 1 118 0
 328 005c 2046     		mov	r0, r4
 329 005e 0123     		movs	r3, #1
 330 0060 0422     		movs	r2, #4
 331 0062 0521     		movs	r1, #5
 332 0064 FFF7FEFF 		bl	ADC_RegularChannelConfig
 333              	.LVL37:
 334              		.loc 1 121 0
 335 0068 0123     		movs	r3, #1
 336 006a 3046     		mov	r0, r6
 337 006c 1A46     		mov	r2, r3
 338 006e 0221     		movs	r1, #2
 339 0070 FFF7FEFF 		bl	ADC_RegularChannelConfig
 340              	.LVL38:
 341              		.loc 1 122 0
 342 0074 3046     		mov	r0, r6
ARM GAS  /tmp/ccrjx8sG.s 			page 7


 343 0076 0123     		movs	r3, #1
 344 0078 0222     		movs	r2, #2
 345 007a 0321     		movs	r1, #3
 346 007c FFF7FEFF 		bl	ADC_RegularChannelConfig
 347              	.LVL39:
 348              		.loc 1 123 0
 349 0080 3046     		mov	r0, r6
 350 0082 0123     		movs	r3, #1
 351 0084 0322     		movs	r2, #3
 352 0086 0C21     		movs	r1, #12
 353 0088 FFF7FEFF 		bl	ADC_RegularChannelConfig
 354              	.LVL40:
 355              		.loc 1 124 0
 356 008c 3046     		mov	r0, r6
 357 008e 0123     		movs	r3, #1
 358 0090 0422     		movs	r2, #4
 359 0092 0A21     		movs	r1, #10
 360 0094 FFF7FEFF 		bl	ADC_RegularChannelConfig
 361              	.LVL41:
 362              		.loc 1 127 0
 363 0098 0123     		movs	r3, #1
 364 009a 2846     		mov	r0, r5
 365 009c 1A46     		mov	r2, r3
 366 009e 0921     		movs	r1, #9
 367 00a0 FFF7FEFF 		bl	ADC_InjectedChannelConfig
 368              	.LVL42:
 369              		.loc 1 128 0
 370 00a4 2846     		mov	r0, r5
 371 00a6 0123     		movs	r3, #1
 372 00a8 0222     		movs	r2, #2
 373 00aa 0821     		movs	r1, #8
 374 00ac FFF7FEFF 		bl	ADC_InjectedChannelConfig
 375              	.LVL43:
 376              		.loc 1 129 0
 377 00b0 0123     		movs	r3, #1
 378 00b2 2046     		mov	r0, r4
 379 00b4 1A46     		mov	r2, r3
 380 00b6 0821     		movs	r1, #8
 381 00b8 FFF7FEFF 		bl	ADC_InjectedChannelConfig
 382              	.LVL44:
 383              		.loc 1 130 0
 384 00bc 2046     		mov	r0, r4
 385 00be 0123     		movs	r3, #1
 386 00c0 0222     		movs	r2, #2
 387 00c2 0921     		movs	r1, #9
 388              		.loc 1 131 0
 389 00c4 BDE87040 		pop	{r4, r5, r6, lr}
 390              		.cfi_restore 14
 391              		.cfi_restore 6
 392              		.cfi_restore 5
 393              		.cfi_restore 4
 394              		.cfi_def_cfa_offset 0
 395              		.loc 1 130 0
 396 00c8 FFF7FEBF 		b	ADC_InjectedChannelConfig
 397              	.LVL45:
 398              	.L9:
 399              		.align	2
ARM GAS  /tmp/ccrjx8sG.s 			page 8


 400              	.L8:
 401 00cc 00200140 		.word	1073815552
 402 00d0 00210140 		.word	1073815808
 403 00d4 00220140 		.word	1073816064
 404              		.cfi_endproc
 405              	.LFE257:
 406              		.size	hw_setup_adc_channels, .-hw_setup_adc_channels
 407              		.section	.text.hw_start_i2c,"ax",%progbits
 408              		.align	1
 409              		.p2align 4,,15
 410              		.global	hw_start_i2c
 411              		.syntax unified
 412              		.thumb
 413              		.thumb_func
 414              		.fpu fpv4-sp-d16
 415              		.type	hw_start_i2c, %function
 416              	hw_start_i2c:
 417              	.LFB258:
 418              		.loc 1 133 0
 419              		.cfi_startproc
 420              		@ args = 0, pretend = 0, frame = 0
 421              		@ frame_needed = 0, uses_anonymous_args = 0
 422 0000 10B5     		push	{r4, lr}
 423              		.cfi_def_cfa_offset 8
 424              		.cfi_offset 4, -8
 425              		.cfi_offset 14, -4
 426              		.loc 1 136 0
 427 0002 0F4C     		ldr	r4, .L13
 428              		.loc 1 134 0
 429 0004 0F48     		ldr	r0, .L13+4
 430 0006 FFF7FEFF 		bl	i2cAcquireBus
 431              	.LVL46:
 432              		.loc 1 136 0
 433 000a 2378     		ldrb	r3, [r4]	@ zero_extendqisi2
 434 000c 9BB9     		cbnz	r3, .L11
 435              		.loc 1 137 0
 436 000e 40F22E22 		movw	r2, #558
 437 0012 4FF48061 		mov	r1, #1024
 438 0016 0C48     		ldr	r0, .L13+8
 439 0018 FFF7FEFF 		bl	_pal_lld_setgroupmode
 440              	.LVL47:
 441              		.loc 1 142 0
 442 001c 40F22E22 		movw	r2, #558
 443 0020 4FF40061 		mov	r1, #2048
 444 0024 0848     		ldr	r0, .L13+8
 445 0026 FFF7FEFF 		bl	_pal_lld_setgroupmode
 446              	.LVL48:
 447              		.loc 1 148 0
 448 002a 0849     		ldr	r1, .L13+12
 449 002c 0548     		ldr	r0, .L13+4
 450 002e FFF7FEFF 		bl	i2cStart
 451              	.LVL49:
 452              		.loc 1 149 0
 453 0032 0123     		movs	r3, #1
 454 0034 2370     		strb	r3, [r4]
 455              	.L11:
 456              		.loc 1 152 0
ARM GAS  /tmp/ccrjx8sG.s 			page 9


 457 0036 0348     		ldr	r0, .L13+4
 458              		.loc 1 153 0
 459 0038 BDE81040 		pop	{r4, lr}
 460              		.cfi_restore 14
 461              		.cfi_restore 4
 462              		.cfi_def_cfa_offset 0
 463              		.loc 1 152 0
 464 003c FFF7FEBF 		b	i2cReleaseBus
 465              	.LVL50:
 466              	.L14:
 467              		.align	2
 468              	.L13:
 469 0040 00000000 		.word	.LANCHOR0
 470 0044 00000000 		.word	I2CD2
 471 0048 00040240 		.word	1073873920
 472 004c 00000000 		.word	.LANCHOR1
 473              		.cfi_endproc
 474              	.LFE258:
 475              		.size	hw_start_i2c, .-hw_start_i2c
 476              		.section	.text.hw_stop_i2c,"ax",%progbits
 477              		.align	1
 478              		.p2align 4,,15
 479              		.global	hw_stop_i2c
 480              		.syntax unified
 481              		.thumb
 482              		.thumb_func
 483              		.fpu fpv4-sp-d16
 484              		.type	hw_stop_i2c, %function
 485              	hw_stop_i2c:
 486              	.LFB259:
 487              		.loc 1 155 0
 488              		.cfi_startproc
 489              		@ args = 0, pretend = 0, frame = 0
 490              		@ frame_needed = 0, uses_anonymous_args = 0
 491 0000 10B5     		push	{r4, lr}
 492              		.cfi_def_cfa_offset 8
 493              		.cfi_offset 4, -8
 494              		.cfi_offset 14, -4
 495              		.loc 1 158 0
 496 0002 0E4C     		ldr	r4, .L21
 497              		.loc 1 156 0
 498 0004 0E48     		ldr	r0, .L21+4
 499 0006 FFF7FEFF 		bl	i2cAcquireBus
 500              	.LVL51:
 501              		.loc 1 158 0
 502 000a 2378     		ldrb	r3, [r4]	@ zero_extendqisi2
 503 000c 83B1     		cbz	r3, .L16
 504              		.loc 1 159 0
 505 000e 0022     		movs	r2, #0
 506 0010 4FF48061 		mov	r1, #1024
 507 0014 0B48     		ldr	r0, .L21+8
 508 0016 FFF7FEFF 		bl	_pal_lld_setgroupmode
 509              	.LVL52:
 510              		.loc 1 160 0
 511 001a 0022     		movs	r2, #0
 512 001c 4FF40061 		mov	r1, #2048
 513 0020 0848     		ldr	r0, .L21+8
ARM GAS  /tmp/ccrjx8sG.s 			page 10


 514 0022 FFF7FEFF 		bl	_pal_lld_setgroupmode
 515              	.LVL53:
 516              		.loc 1 162 0
 517 0026 0648     		ldr	r0, .L21+4
 518 0028 FFF7FEFF 		bl	i2cStop
 519              	.LVL54:
 520              		.loc 1 163 0
 521 002c 0023     		movs	r3, #0
 522 002e 2370     		strb	r3, [r4]
 523              	.L16:
 524              		.loc 1 167 0
 525 0030 0348     		ldr	r0, .L21+4
 526              		.loc 1 168 0
 527 0032 BDE81040 		pop	{r4, lr}
 528              		.cfi_restore 14
 529              		.cfi_restore 4
 530              		.cfi_def_cfa_offset 0
 531              		.loc 1 167 0
 532 0036 FFF7FEBF 		b	i2cReleaseBus
 533              	.LVL55:
 534              	.L22:
 535 003a 00BF     		.align	2
 536              	.L21:
 537 003c 00000000 		.word	.LANCHOR0
 538 0040 00000000 		.word	I2CD2
 539 0044 00040240 		.word	1073873920
 540              		.cfi_endproc
 541              	.LFE259:
 542              		.size	hw_stop_i2c, .-hw_stop_i2c
 543              		.section	.text.hw_try_restore_i2c,"ax",%progbits
 544              		.align	1
 545              		.p2align 4,,15
 546              		.global	hw_try_restore_i2c
 547              		.syntax unified
 548              		.thumb
 549              		.thumb_func
 550              		.fpu fpv4-sp-d16
 551              		.type	hw_try_restore_i2c, %function
 552              	hw_try_restore_i2c:
 553              	.LFB260:
 554              		.loc 1 173 0
 555              		.cfi_startproc
 556              		@ args = 0, pretend = 0, frame = 0
 557              		@ frame_needed = 0, uses_anonymous_args = 0
 558 0000 F8B5     		push	{r3, r4, r5, r6, r7, lr}
 559              		.cfi_def_cfa_offset 24
 560              		.cfi_offset 3, -24
 561              		.cfi_offset 4, -20
 562              		.cfi_offset 5, -16
 563              		.cfi_offset 6, -12
 564              		.cfi_offset 7, -8
 565              		.cfi_offset 14, -4
 566              		.loc 1 174 0
 567 0002 284B     		ldr	r3, .L29
 568 0004 1B78     		ldrb	r3, [r3]	@ zero_extendqisi2
 569 0006 03B9     		cbnz	r3, .L28
 570              		.loc 1 225 0
ARM GAS  /tmp/ccrjx8sG.s 			page 11


 571 0008 F8BD     		pop	{r3, r4, r5, r6, r7, pc}
 572              	.L28:
 573              		.loc 1 177 0
 574 000a 274D     		ldr	r5, .L29+4
 575              		.loc 1 175 0
 576 000c 2748     		ldr	r0, .L29+8
 577 000e FFF7FEFF 		bl	i2cAcquireBus
 578              	.LVL56:
 579              		.loc 1 177 0
 580 0012 2846     		mov	r0, r5
 581 0014 2C22     		movs	r2, #44
 582 0016 4FF48061 		mov	r1, #1024
 583 001a FFF7FEFF 		bl	_pal_lld_setgroupmode
 584              	.LVL57:
 585              		.loc 1 182 0
 586 001e 2846     		mov	r0, r5
 587 0020 2C22     		movs	r2, #44
 588 0022 4FF40061 		mov	r1, #2048
 589 0026 FFF7FEFF 		bl	_pal_lld_setgroupmode
 590              	.LVL58:
 591              		.loc 1 187 0
 592 002a 4FF48066 		mov	r6, #1024
 593              		.loc 1 188 0
 594 002e 4FF40063 		mov	r3, #2048
 595              		.loc 1 187 0
 596 0032 2E83     		strh	r6, [r5, #24]	@ movhi
 597              		.loc 1 190 0
 598 0034 0120     		movs	r0, #1
 599              		.loc 1 188 0
 600 0036 2B83     		strh	r3, [r5, #24]	@ movhi
 601              		.loc 1 190 0
 602 0038 FFF7FEFF 		bl	chThdSleep
 603              	.LVL59:
 604              	.LBB2:
 605              		.loc 1 193 0
 606 003c 3746     		mov	r7, r6	@ movhi
 607              	.LBE2:
 608              		.loc 1 190 0
 609 003e 1024     		movs	r4, #16
 610              	.LVL60:
 611              	.L25:
 612              	.LBB3:
 613              		.loc 1 194 0 discriminator 3
 614 0040 0120     		movs	r0, #1
 615              		.loc 1 193 0 discriminator 3
 616 0042 6F83     		strh	r7, [r5, #26]	@ movhi
 617              		.loc 1 194 0 discriminator 3
 618 0044 FFF7FEFF 		bl	chThdSleep
 619              	.LVL61:
 620              		.loc 1 195 0 discriminator 3
 621 0048 2E83     		strh	r6, [r5, #24]	@ movhi
 622              		.loc 1 196 0 discriminator 3
 623 004a 0120     		movs	r0, #1
 624 004c FFF7FEFF 		bl	chThdSleep
 625              	.LVL62:
 626              		.loc 1 192 0 discriminator 3
 627 0050 013C     		subs	r4, r4, #1
ARM GAS  /tmp/ccrjx8sG.s 			page 12


 628              	.LVL63:
 629 0052 F5D1     		bne	.L25
 630              	.LBE3:
 631              		.loc 1 200 0
 632 0054 4FF40067 		mov	r7, #2048
 633 0058 6F83     		strh	r7, [r5, #26]	@ movhi
 634              		.loc 1 201 0
 635 005a 0120     		movs	r0, #1
 636 005c FFF7FEFF 		bl	chThdSleep
 637              	.LVL64:
 638              		.loc 1 202 0
 639 0060 6E83     		strh	r6, [r5, #26]	@ movhi
 640              		.loc 1 203 0
 641 0062 0120     		movs	r0, #1
 642 0064 FFF7FEFF 		bl	chThdSleep
 643              	.LVL65:
 644              		.loc 1 204 0
 645 0068 2E83     		strh	r6, [r5, #24]	@ movhi
 646              		.loc 1 205 0
 647 006a 0120     		movs	r0, #1
 648 006c FFF7FEFF 		bl	chThdSleep
 649              	.LVL66:
 650              		.loc 1 220 0
 651 0070 0E4C     		ldr	r4, .L29+8
 652              	.LVL67:
 653              		.loc 1 206 0
 654 0072 2F83     		strh	r7, [r5, #24]	@ movhi
 655              		.loc 1 208 0
 656 0074 40F22E22 		movw	r2, #558
 657 0078 4FF48061 		mov	r1, #1024
 658 007c 0A48     		ldr	r0, .L29+4
 659 007e FFF7FEFF 		bl	_pal_lld_setgroupmode
 660              	.LVL68:
 661              		.loc 1 214 0
 662 0082 3946     		mov	r1, r7
 663 0084 40F22E22 		movw	r2, #558
 664 0088 0748     		ldr	r0, .L29+4
 665 008a FFF7FEFF 		bl	_pal_lld_setgroupmode
 666              	.LVL69:
 667              		.loc 1 220 0
 668 008e 0123     		movs	r3, #1
 669              		.loc 1 221 0
 670 0090 2046     		mov	r0, r4
 671 0092 0749     		ldr	r1, .L29+12
 672              		.loc 1 220 0
 673 0094 2370     		strb	r3, [r4]
 674              		.loc 1 221 0
 675 0096 FFF7FEFF 		bl	i2cStart
 676              	.LVL70:
 677              		.loc 1 223 0
 678 009a 2046     		mov	r0, r4
 679              		.loc 1 225 0
 680 009c BDE8F840 		pop	{r3, r4, r5, r6, r7, lr}
 681              		.cfi_restore 14
 682              		.cfi_restore 7
 683              		.cfi_restore 6
 684              		.cfi_restore 5
ARM GAS  /tmp/ccrjx8sG.s 			page 13


 685              		.cfi_restore 4
 686              		.cfi_restore 3
 687              		.cfi_def_cfa_offset 0
 688              		.loc 1 223 0
 689 00a0 FFF7FEBF 		b	i2cReleaseBus
 690              	.LVL71:
 691              	.L30:
 692              		.align	2
 693              	.L29:
 694 00a4 00000000 		.word	.LANCHOR0
 695 00a8 00040240 		.word	1073873920
 696 00ac 00000000 		.word	I2CD2
 697 00b0 00000000 		.word	.LANCHOR1
 698              		.cfi_endproc
 699              	.LFE260:
 700              		.size	hw_try_restore_i2c, .-hw_try_restore_i2c
 701              		.section	.bss.i2c_running,"aw",%nobits
 702              		.set	.LANCHOR0,. + 0
 703              		.type	i2c_running, %object
 704              		.size	i2c_running, 1
 705              	i2c_running:
 706 0000 00       		.space	1
 707              		.section	.rodata.i2cfg,"a",%progbits
 708              		.align	2
 709              		.set	.LANCHOR1,. + 0
 710              		.type	i2cfg, %object
 711              		.size	i2cfg, 12
 712              	i2cfg:
 713 0000 01       		.byte	1
 714 0001 000000   		.space	3
 715 0004 A0860100 		.word	100000
 716 0008 01       		.byte	1
 717 0009 000000   		.space	3
 718              		.text
 719              	.Letext0:
 720              		.file 2 "/usr/arm-none-eabi/include/machine/_default_types.h"
 721              		.file 3 "/usr/arm-none-eabi/include/sys/_stdint.h"
 722              		.file 4 "/usr/lib/gcc/arm-none-eabi/7.3.1/include/stddef.h"
 723              		.file 5 "ChibiOS_3.0.2/os/rt/ports/ARMCMx/compilers/GCC/chtypes.h"
 724              		.file 6 "ChibiOS_3.0.2/os/rt/include/chsystypes.h"
 725              		.file 7 "ChibiOS_3.0.2/os/rt/include/chschd.h"
 726              		.file 8 "ChibiOS_3.0.2/os/ext/CMSIS/include/core_cm4.h"
 727              		.file 9 "ChibiOS_3.0.2/os/ext/CMSIS/ST/system_stm32f4xx.h"
 728              		.file 10 "ChibiOS_3.0.2/os/ext/CMSIS/ST/stm32f407xx.h"
 729              		.file 11 "ChibiOS_3.0.2/os/rt/ports/ARMCMx/chcore.h"
 730              		.file 12 "ChibiOS_3.0.2/os/rt/ports/ARMCMx/chcore_v7m.h"
 731              		.file 13 "ChibiOS_3.0.2/os/rt/include/chtm.h"
 732              		.file 14 "ChibiOS_3.0.2/os/rt/include/chsem.h"
 733              		.file 15 "ChibiOS_3.0.2/os/rt/include/chmtx.h"
 734              		.file 16 "ChibiOS_3.0.2/os/rt/include/chregistry.h"
 735              		.file 17 "ChibiOS_3.0.2/os/rt/include/chevents.h"
 736              		.file 18 "ChibiOS_3.0.2/os/rt/include/chqueues.h"
 737              		.file 19 "./conf_general.h"
 738              		.file 20 "ChibiOS_3.0.2/os/hal/ports/STM32/STM32F4xx/stm32_dma.h"
 739              		.file 21 "ChibiOS_3.0.2/os/hal/ports/STM32/LLD/GPIOv2/pal_lld.h"
 740              		.file 22 "ChibiOS_3.0.2/os/ext/CMSIS/ST/stm32f4xx.h"
 741              		.file 23 "ChibiOS_3.0.2/os/hal/include/can.h"
ARM GAS  /tmp/ccrjx8sG.s 			page 14


 742              		.file 24 "ChibiOS_3.0.2/os/hal/ports/STM32/LLD/can_lld.h"
 743              		.file 25 "ChibiOS_3.0.2/os/hal/include/i2c.h"
 744              		.file 26 "ChibiOS_3.0.2/os/hal/ports/STM32/LLD/I2Cv1/i2c_lld.h"
 745              		.file 27 "ChibiOS_3.0.2/os/hal/include/icu.h"
 746              		.file 28 "ChibiOS_3.0.2/os/hal/ports/STM32/LLD/TIMv1/icu_lld.h"
 747              		.file 29 "ChibiOS_3.0.2/os/hal/ports/STM32/LLD/TIMv1/stm32_tim.h"
 748              		.file 30 "ChibiOS_3.0.2/os/hal/include/spi.h"
 749              		.file 31 "ChibiOS_3.0.2/os/hal/ports/STM32/LLD/SPIv1/spi_lld.h"
 750              		.file 32 "ChibiOS_3.0.2/os/hal/include/uart.h"
 751              		.file 33 "ChibiOS_3.0.2/os/hal/ports/STM32/LLD/USARTv1/uart_lld.h"
 752              		.file 34 "ChibiOS_3.0.2/os/hal/include/usb.h"
 753              		.file 35 "ChibiOS_3.0.2/os/hal/ports/STM32/LLD/OTGv1/usb_lld.h"
 754              		.file 36 "ChibiOS_3.0.2/os/hal/ports/STM32/LLD/OTGv1/stm32_otg.h"
 755              		.file 37 "ChibiOS_3.0.2/os/rt/include/chthreads.h"
 756              		.file 38 "ChibiOS_3.0.2/ext/stdperiph_stm32f4/inc/stm32f4xx_adc.h"
 757              		.file 39 "ChibiOS_3.0.2/ext/stdperiph_stm32f4/inc/stm32f4xx_rcc.h"