ARM GAS  /tmp/ccoeX4ZI.s 			page 1


   1              		.cpu cortex-m4
   2              		.eabi_attribute 27, 1
   3              		.eabi_attribute 28, 1
   4              		.eabi_attribute 20, 1
   5              		.eabi_attribute 21, 1
   6              		.eabi_attribute 23, 3
   7              		.eabi_attribute 24, 1
   8              		.eabi_attribute 25, 1
   9              		.eabi_attribute 26, 1
  10              		.eabi_attribute 30, 2
  11              		.eabi_attribute 34, 1
  12              		.eabi_attribute 18, 4
  13              		.file	"icu_lld.c"
  14              		.text
  15              	.Ltext0:
  16              		.cfi_sections	.debug_frame
  17              		.section	.text.icu_lld_wait_edge.isra.0,"ax",%progbits
  18              		.align	1
  19              		.p2align 4,,15
  20              		.syntax unified
  21              		.thumb
  22              		.thumb_func
  23              		.fpu fpv4-sp-d16
  24              		.type	icu_lld_wait_edge.isra.0, %function
  25              	icu_lld_wait_edge.isra.0:
  26              	.LFB267:
  27              		.file 1 "ChibiOS_3.0.2/os/hal/ports/STM32/LLD/TIMv1/icu_lld.c"
  28              		.loc 1 105 0
  29              		.cfi_startproc
  30              		@ args = 0, pretend = 0, frame = 0
  31              		@ frame_needed = 0, uses_anonymous_args = 0
  32              		@ link register save eliminated.
  33              	.LVL0:
  34              	.LBB33:
  35              	.LBB34:
  36              	.LBB35:
  37              	.LBB36:
  38              	.LBB37:
  39              		.file 2 "ChibiOS_3.0.2/os/ext/CMSIS/include/core_cmFunc.h"
  40              		.loc 2 546 0
  41 0000 0023     		movs	r3, #0
  42              		.syntax unified
  43              	@ 546 "ChibiOS_3.0.2/os/ext/CMSIS/include/core_cmFunc.h" 1
  44 0002 83F31188 		MSR basepri, r3
  45              	@ 0 "" 2
  46              	.LVL1:
  47              		.thumb
  48              		.syntax unified
  49              	.LBE37:
  50              	.LBE36:
  51              	.LBE35:
  52              	.LBE34:
  53              	.LBE33:
  54              		.loc 1 114 0
  55 0006 0368     		ldr	r3, [r0]
  56 0008 1B7D     		ldrb	r3, [r3, #20]	@ zero_extendqisi2
  57 000a 73B9     		cbnz	r3, .L2
ARM GAS  /tmp/ccoeX4ZI.s 			page 2


  58              		.loc 1 116 0
  59 000c 0B68     		ldr	r3, [r1]
  60              	.L3:
  61 000e 1869     		ldr	r0, [r3, #16]
  62              	.LVL2:
  63 0010 8207     		lsls	r2, r0, #30
  64 0012 FCD0     		beq	.L3
  65              	.L4:
  66              	.LVL3:
  67              	.LBB38:
  68              	.LBB39:
  69              	.LBB40:
  70              	.LBB41:
  71              		.loc 2 546 0
  72 0014 2023     		movs	r3, #32
  73              		.syntax unified
  74              	@ 546 "ChibiOS_3.0.2/os/ext/CMSIS/include/core_cmFunc.h" 1
  75 0016 83F31188 		MSR basepri, r3
  76              	@ 0 "" 2
  77              	.LVL4:
  78              		.thumb
  79              		.syntax unified
  80              	.LBE41:
  81              	.LBE40:
  82              	.LBE39:
  83              	.LBE38:
  84              		.loc 1 134 0
  85 001a 0A68     		ldr	r2, [r1]
  86 001c 1369     		ldr	r3, [r2, #16]
  87 001e 23F00703 		bic	r3, r3, #7
  88              		.loc 1 139 0
  89 0022 00F00100 		and	r0, r0, #1
  90              	.LVL5:
  91              		.loc 1 134 0
  92 0026 1361     		str	r3, [r2, #16]
  93              		.loc 1 139 0
  94 0028 7047     		bx	lr
  95              	.L2:
  96              		.loc 1 122 0
  97 002a 0B68     		ldr	r3, [r1]
  98              	.L5:
  99 002c 1869     		ldr	r0, [r3, #16]
 100              	.LVL6:
 101 002e 10F0050F 		tst	r0, #5
 102 0032 FBD0     		beq	.L5
 103 0034 EEE7     		b	.L4
 104              		.cfi_endproc
 105              	.LFE267:
 106              		.size	icu_lld_wait_edge.isra.0, .-icu_lld_wait_edge.isra.0
 107 0036 00BF     		.section	.text.VectorB4,"ax",%progbits
 108              		.align	1
 109              		.p2align 4,,15
 110              		.global	VectorB4
 111              		.syntax unified
 112              		.thumb
 113              		.thumb_func
 114              		.fpu fpv4-sp-d16
ARM GAS  /tmp/ccoeX4ZI.s 			page 3


 115              		.type	VectorB4, %function
 116              	VectorB4:
 117              	.LFB258:
 118              		.loc 1 248 0
 119              		.cfi_startproc
 120              		@ args = 0, pretend = 0, frame = 0
 121              		@ frame_needed = 0, uses_anonymous_args = 0
 122              	.LVL7:
 123 0000 F8B5     		push	{r3, r4, r5, r6, r7, lr}
 124              		.cfi_def_cfa_offset 24
 125              		.cfi_offset 3, -24
 126              		.cfi_offset 4, -20
 127              		.cfi_offset 5, -16
 128              		.cfi_offset 6, -12
 129              		.cfi_offset 7, -8
 130              		.cfi_offset 14, -4
 131              	.LBB44:
 132              	.LBB45:
 133              		.loc 1 149 0
 134 0002 264D     		ldr	r5, .L55
 135 0004 EB68     		ldr	r3, [r5, #12]
 136              		.loc 1 152 0
 137 0006 6968     		ldr	r1, [r5, #4]
 138              		.loc 1 149 0
 139 0008 1C69     		ldr	r4, [r3, #16]
 140              	.LVL8:
 141              		.loc 1 150 0
 142 000a DA68     		ldr	r2, [r3, #12]
 143              		.loc 1 152 0
 144 000c 087D     		ldrb	r0, [r1, #20]	@ zero_extendqisi2
 145 000e 1440     		ands	r4, r4, r2
 146              	.LVL9:
 147              		.loc 1 150 0
 148 0010 E2B2     		uxtb	r2, r4
 149              		.loc 1 151 0
 150 0012 D243     		mvns	r2, r2
 151 0014 1A61     		str	r2, [r3, #16]
 152 0016 04F00206 		and	r6, r4, #2
 153              		.loc 1 152 0
 154 001a 88B9     		cbnz	r0, .L12
 155              		.loc 1 153 0
 156 001c 6207     		lsls	r2, r4, #29
 157 001e 30D5     		bpl	.L13
 158              		.loc 1 154 0
 159 0020 2B78     		ldrb	r3, [r5]	@ zero_extendqisi2
 160 0022 042B     		cmp	r3, #4
 161 0024 29D0     		beq	.L52
 162              		.loc 1 155 0
 163 0026 9EB9     		cbnz	r6, .L19
 164              	.L17:
 165              		.loc 1 164 0
 166 0028 E307     		lsls	r3, r4, #31
 167 002a 05D5     		bpl	.L25
 168              		.loc 1 165 0
 169 002c 6B68     		ldr	r3, [r5, #4]
 170 002e 1B48     		ldr	r0, .L55
 171 0030 1B69     		ldr	r3, [r3, #16]
ARM GAS  /tmp/ccoeX4ZI.s 			page 4


 172 0032 9847     		blx	r3
 173              	.LVL10:
 174 0034 0323     		movs	r3, #3
 175 0036 2B70     		strb	r3, [r5]
 176              	.L25:
 177              	.LVL11:
 178              	.LBE45:
 179              	.LBE44:
 180              		.loc 1 255 0
 181 0038 BDE8F840 		pop	{r3, r4, r5, r6, r7, lr}
 182              		.cfi_remember_state
 183              		.cfi_restore 14
 184              		.cfi_restore 7
 185              		.cfi_restore 6
 186              		.cfi_restore 5
 187              		.cfi_restore 4
 188              		.cfi_restore 3
 189              		.cfi_def_cfa_offset 0
 190              		.loc 1 254 0
 191 003c FFF7FEBF 		b	_port_irq_epilogue
 192              	.LVL12:
 193              	.L12:
 194              		.cfi_restore_state
 195 0040 04F00407 		and	r7, r4, #4
 196              	.LBB47:
 197              	.LBB46:
 198              		.loc 1 159 0
 199 0044 5EB1     		cbz	r6, .L21
 200              		.loc 1 160 0
 201 0046 2B78     		ldrb	r3, [r5]	@ zero_extendqisi2
 202 0048 042B     		cmp	r3, #4
 203 004a 04D0     		beq	.L53
 204              		.loc 1 161 0
 205 004c 002F     		cmp	r7, #0
 206 004e EBD0     		beq	.L17
 207              	.L19:
 208              		.loc 1 156 0
 209 0050 0423     		movs	r3, #4
 210 0052 2B70     		strb	r3, [r5]
 211 0054 E8E7     		b	.L17
 212              	.L53:
 213              		.loc 1 160 0
 214 0056 8B68     		ldr	r3, [r1, #8]
 215 0058 E3B1     		cbz	r3, .L23
 216 005a 2846     		mov	r0, r5
 217 005c 9847     		blx	r3
 218              	.LVL13:
 219              	.L21:
 220              		.loc 1 161 0
 221 005e 002F     		cmp	r7, #0
 222 0060 E2D0     		beq	.L17
 223              		.loc 1 156 0
 224 0062 2B78     		ldrb	r3, [r5]	@ zero_extendqisi2
 225 0064 042B     		cmp	r3, #4
 226 0066 F3D1     		bne	.L19
 227              	.L54:
 228 0068 6968     		ldr	r1, [r5, #4]
ARM GAS  /tmp/ccoeX4ZI.s 			page 5


 229              	.L26:
 230 006a CB68     		ldr	r3, [r1, #12]
 231 006c 002B     		cmp	r3, #0
 232 006e EFD0     		beq	.L19
 233 0070 0A48     		ldr	r0, .L55
 234 0072 9847     		blx	r3
 235              	.LVL14:
 236 0074 0423     		movs	r3, #4
 237 0076 2B70     		strb	r3, [r5]
 238 0078 D6E7     		b	.L17
 239              	.L52:
 240              		.loc 1 154 0
 241 007a 8B68     		ldr	r3, [r1, #8]
 242 007c 3BB1     		cbz	r3, .L15
 243 007e 2846     		mov	r0, r5
 244 0080 9847     		blx	r3
 245              	.LVL15:
 246              	.L13:
 247              		.loc 1 155 0
 248 0082 002E     		cmp	r6, #0
 249 0084 D0D0     		beq	.L17
 250              		.loc 1 156 0
 251 0086 2B78     		ldrb	r3, [r5]	@ zero_extendqisi2
 252 0088 042B     		cmp	r3, #4
 253 008a E1D1     		bne	.L19
 254 008c ECE7     		b	.L54
 255              	.L15:
 256              		.loc 1 155 0
 257 008e 002E     		cmp	r6, #0
 258 0090 CAD0     		beq	.L17
 259 0092 EAE7     		b	.L26
 260              	.L23:
 261              		.loc 1 161 0
 262 0094 002F     		cmp	r7, #0
 263 0096 C7D0     		beq	.L17
 264 0098 E7E7     		b	.L26
 265              	.L56:
 266 009a 00BF     		.align	2
 267              	.L55:
 268 009c 00000000 		.word	.LANCHOR0
 269              	.LBE46:
 270              	.LBE47:
 271              		.cfi_endproc
 272              	.LFE258:
 273              		.size	VectorB4, .-VectorB4
 274              		.section	.text.icu_lld_init,"ax",%progbits
 275              		.align	1
 276              		.p2align 4,,15
 277              		.global	icu_lld_init
 278              		.syntax unified
 279              		.thumb
 280              		.thumb_func
 281              		.fpu fpv4-sp-d16
 282              		.type	icu_lld_init, %function
 283              	icu_lld_init:
 284              	.LFB259:
 285              		.loc 1 375 0
ARM GAS  /tmp/ccoeX4ZI.s 			page 6


 286              		.cfi_startproc
 287              		@ args = 0, pretend = 0, frame = 0
 288              		@ frame_needed = 0, uses_anonymous_args = 0
 289 0000 10B5     		push	{r4, lr}
 290              		.cfi_def_cfa_offset 8
 291              		.cfi_offset 4, -8
 292              		.cfi_offset 14, -4
 293              		.loc 1 391 0
 294 0002 034C     		ldr	r4, .L59
 295 0004 2046     		mov	r0, r4
 296 0006 FFF7FEFF 		bl	icuObjectInit
 297              	.LVL16:
 298              		.loc 1 392 0
 299 000a 024B     		ldr	r3, .L59+4
 300 000c E360     		str	r3, [r4, #12]
 301              		.loc 1 418 0
 302 000e 10BD     		pop	{r4, pc}
 303              	.L60:
 304              		.align	2
 305              	.L59:
 306 0010 00000000 		.word	.LANCHOR0
 307 0014 00040040 		.word	1073742848
 308              		.cfi_endproc
 309              	.LFE259:
 310              		.size	icu_lld_init, .-icu_lld_init
 311              		.section	.text.icu_lld_start,"ax",%progbits
 312              		.align	1
 313              		.p2align 4,,15
 314              		.global	icu_lld_start
 315              		.syntax unified
 316              		.thumb
 317              		.thumb_func
 318              		.fpu fpv4-sp-d16
 319              		.type	icu_lld_start, %function
 320              	icu_lld_start:
 321              	.LFB260:
 322              		.loc 1 427 0
 323              		.cfi_startproc
 324              		@ args = 0, pretend = 0, frame = 0
 325              		@ frame_needed = 0, uses_anonymous_args = 0
 326              	.LVL17:
 327              		.loc 1 434 0
 328 0000 0378     		ldrb	r3, [r0]	@ zero_extendqisi2
 329 0002 012B     		cmp	r3, #1
 330              		.loc 1 427 0
 331 0004 70B5     		push	{r4, r5, r6, lr}
 332              		.cfi_def_cfa_offset 16
 333              		.cfi_offset 4, -16
 334              		.cfi_offset 5, -12
 335              		.cfi_offset 6, -8
 336              		.cfi_offset 14, -4
 337              		.loc 1 427 0
 338 0006 0446     		mov	r4, r0
 339              		.loc 1 434 0
 340 0008 3AD0     		beq	.L73
 341              		.loc 1 505 0
 342 000a C368     		ldr	r3, [r0, #12]
ARM GAS  /tmp/ccoeX4ZI.s 			page 7


 343 000c 0022     		movs	r2, #0
 344 000e 1A60     		str	r2, [r3]
 345              		.loc 1 506 0
 346 0010 5A63     		str	r2, [r3, #52]
 347              		.loc 1 507 0
 348 0012 9A63     		str	r2, [r3, #56]
 349              		.loc 1 508 0
 350 0014 5A62     		str	r2, [r3, #36]
 351              	.LVL18:
 352              	.L64:
 353              		.loc 1 515 0
 354 0016 D4E90112 		ldrd	r1, r2, [r4, #4]
 355              		.loc 1 513 0
 356 001a 8869     		ldr	r0, [r1, #24]
 357              		.loc 1 522 0
 358 001c 0D7D     		ldrb	r5, [r1, #20]	@ zero_extendqisi2
 359              		.loc 1 513 0
 360 001e 20F0FF00 		bic	r0, r0, #255
 361              		.loc 1 512 0
 362 0022 0026     		movs	r6, #0
 363 0024 1E61     		str	r6, [r3, #16]
 364              		.loc 1 513 0
 365 0026 D860     		str	r0, [r3, #12]
 366              		.loc 1 515 0
 367 0028 4868     		ldr	r0, [r1, #4]
 368 002a B2FBF0F2 		udiv	r2, r2, r0
 369              		.loc 1 520 0
 370 002e 4FF6FF70 		movw	r0, #65535
 371              		.loc 1 515 0
 372 0032 013A     		subs	r2, r2, #1
 373              	.LVL19:
 374              		.loc 1 519 0
 375 0034 9A62     		str	r2, [r3, #40]
 376 0036 0A78     		ldrb	r2, [r1]	@ zero_extendqisi2
 377              	.LVL20:
 378              		.loc 1 520 0
 379 0038 D862     		str	r0, [r3, #44]
 380              	.LVL21:
 381              		.loc 1 522 0
 382 003a 6DB9     		cbnz	r5, .L65
 383              		.loc 1 526 0
 384 003c 40F20120 		movw	r0, #513
 385              		.loc 1 530 0
 386 0040 5421     		movs	r1, #84
 387              	.LVL22:
 388              		.loc 1 526 0
 389 0042 9861     		str	r0, [r3, #24]
 390              		.loc 1 530 0
 391 0044 9960     		str	r1, [r3, #8]
 392              		.loc 1 535 0
 393 0046 C2B1     		cbz	r2, .L74
 394              		.loc 1 539 0
 395 0048 1322     		movs	r2, #19
 396 004a 1A62     		str	r2, [r3, #32]
 397              	.LVL23:
 398              	.L67:
 399              		.loc 1 544 0
ARM GAS  /tmp/ccoeX4ZI.s 			page 8


 400 004c 03F13802 		add	r2, r3, #56
 401              		.loc 1 545 0
 402 0050 3433     		adds	r3, r3, #52
 403 0052 C4E90423 		strd	r2, r3, [r4, #16]
 404              		.loc 1 572 0
 405 0056 70BD     		pop	{r4, r5, r6, pc}
 406              	.LVL24:
 407              	.L65:
 408              		.loc 1 551 0
 409 0058 4FF48170 		mov	r0, #258
 410              		.loc 1 555 0
 411 005c 6421     		movs	r1, #100
 412              	.LVL25:
 413              		.loc 1 551 0
 414 005e 9861     		str	r0, [r3, #24]
 415              		.loc 1 555 0
 416 0060 9960     		str	r1, [r3, #8]
 417              		.loc 1 560 0
 418 0062 3AB1     		cbz	r2, .L75
 419              		.loc 1 564 0
 420 0064 3122     		movs	r2, #49
 421 0066 1A62     		str	r2, [r3, #32]
 422              	.LVL26:
 423              	.L70:
 424              		.loc 1 569 0
 425 0068 03F13402 		add	r2, r3, #52
 426              		.loc 1 570 0
 427 006c 3833     		adds	r3, r3, #56
 428 006e C4E90423 		strd	r2, r3, [r4, #16]
 429              		.loc 1 572 0
 430 0072 70BD     		pop	{r4, r5, r6, pc}
 431              	.LVL27:
 432              	.L75:
 433              		.loc 1 561 0
 434 0074 1322     		movs	r2, #19
 435 0076 1A62     		str	r2, [r3, #32]
 436              	.LVL28:
 437 0078 F6E7     		b	.L70
 438              	.LVL29:
 439              	.L74:
 440              		.loc 1 536 0
 441 007a 3122     		movs	r2, #49
 442 007c 1A62     		str	r2, [r3, #32]
 443              	.LVL30:
 444 007e E5E7     		b	.L67
 445              	.LVL31:
 446              	.L73:
 447              		.loc 1 458 0
 448 0080 0B4B     		ldr	r3, .L76
 449 0082 9842     		cmp	r0, r3
 450 0084 01D0     		beq	.L63
 451              	.LVL32:
 452              	.L72:
 453 0086 E368     		ldr	r3, [r4, #12]
 454 0088 C5E7     		b	.L64
 455              	.LVL33:
 456              	.L63:
ARM GAS  /tmp/ccoeX4ZI.s 			page 9


 457              		.loc 1 459 0
 458 008a 0A4B     		ldr	r3, .L76+4
 459 008c 1A6C     		ldr	r2, [r3, #64]
 460 008e 42F00202 		orr	r2, r2, #2
 461 0092 1A64     		str	r2, [r3, #64]
 462              		.loc 1 460 0
 463 0094 1A6A     		ldr	r2, [r3, #32]
 464 0096 0020     		movs	r0, #0
 465              	.LVL34:
 466 0098 42F00202 		orr	r2, r2, #2
 467 009c 1A62     		str	r2, [r3, #32]
 468              		.loc 1 461 0
 469 009e 0721     		movs	r1, #7
 470              		.loc 1 460 0
 471 00a0 1862     		str	r0, [r3, #32]
 472              		.loc 1 461 0
 473 00a2 1D20     		movs	r0, #29
 474 00a4 FFF7FEFF 		bl	nvicEnableVector
 475              	.LVL35:
 476              		.loc 1 462 0
 477 00a8 034B     		ldr	r3, .L76+8
 478 00aa A360     		str	r3, [r4, #8]
 479 00ac EBE7     		b	.L72
 480              	.L77:
 481 00ae 00BF     		.align	2
 482              	.L76:
 483 00b0 00000000 		.word	.LANCHOR0
 484 00b4 00380240 		.word	1073887232
 485 00b8 00BD0105 		.word	84000000
 486              		.cfi_endproc
 487              	.LFE260:
 488              		.size	icu_lld_start, .-icu_lld_start
 489              		.section	.text.icu_lld_stop,"ax",%progbits
 490              		.align	1
 491              		.p2align 4,,15
 492              		.global	icu_lld_stop
 493              		.syntax unified
 494              		.thumb
 495              		.thumb_func
 496              		.fpu fpv4-sp-d16
 497              		.type	icu_lld_stop, %function
 498              	icu_lld_stop:
 499              	.LFB261:
 500              		.loc 1 581 0
 501              		.cfi_startproc
 502              		@ args = 0, pretend = 0, frame = 0
 503              		@ frame_needed = 0, uses_anonymous_args = 0
 504              	.LVL36:
 505 0000 08B5     		push	{r3, lr}
 506              		.cfi_def_cfa_offset 8
 507              		.cfi_offset 3, -8
 508              		.cfi_offset 14, -4
 509              		.loc 1 583 0
 510 0002 0378     		ldrb	r3, [r0]	@ zero_extendqisi2
 511 0004 022B     		cmp	r3, #2
 512 0006 00D0     		beq	.L83
 513              	.L78:
ARM GAS  /tmp/ccoeX4ZI.s 			page 10


 514              		.loc 1 634 0
 515 0008 08BD     		pop	{r3, pc}
 516              	.L83:
 517              		.loc 1 603 0
 518 000a 0849     		ldr	r1, .L84
 519              		.loc 1 585 0
 520 000c C368     		ldr	r3, [r0, #12]
 521 000e 0022     		movs	r2, #0
 522              		.loc 1 603 0
 523 0010 8842     		cmp	r0, r1
 524              		.loc 1 585 0
 525 0012 1A60     		str	r2, [r3]
 526              		.loc 1 586 0
 527 0014 DA60     		str	r2, [r3, #12]
 528              		.loc 1 587 0
 529 0016 1A61     		str	r2, [r3, #16]
 530              		.loc 1 603 0
 531 0018 F6D1     		bne	.L78
 532              		.loc 1 604 0
 533 001a 1D20     		movs	r0, #29
 534              	.LVL37:
 535 001c FFF7FEFF 		bl	nvicDisableVector
 536              	.LVL38:
 537              		.loc 1 605 0
 538 0020 034A     		ldr	r2, .L84+4
 539 0022 136C     		ldr	r3, [r2, #64]
 540 0024 23F00203 		bic	r3, r3, #2
 541 0028 1364     		str	r3, [r2, #64]
 542              		.loc 1 634 0
 543 002a 08BD     		pop	{r3, pc}
 544              	.L85:
 545              		.align	2
 546              	.L84:
 547 002c 00000000 		.word	.LANCHOR0
 548 0030 00380240 		.word	1073887232
 549              		.cfi_endproc
 550              	.LFE261:
 551              		.size	icu_lld_stop, .-icu_lld_stop
 552              		.section	.text.icu_lld_start_capture,"ax",%progbits
 553              		.align	1
 554              		.p2align 4,,15
 555              		.global	icu_lld_start_capture
 556              		.syntax unified
 557              		.thumb
 558              		.thumb_func
 559              		.fpu fpv4-sp-d16
 560              		.type	icu_lld_start_capture, %function
 561              	icu_lld_start_capture:
 562              	.LFB262:
 563              		.loc 1 643 0
 564              		.cfi_startproc
 565              		@ args = 0, pretend = 0, frame = 0
 566              		@ frame_needed = 0, uses_anonymous_args = 0
 567              		@ link register save eliminated.
 568              	.LVL39:
 569              		.loc 1 646 0
 570 0000 C368     		ldr	r3, [r0, #12]
ARM GAS  /tmp/ccoeX4ZI.s 			page 11


 571 0002 5A69     		ldr	r2, [r3, #20]
 572              		.loc 1 647 0
 573 0004 0020     		movs	r0, #0
 574              	.LVL40:
 575              		.loc 1 646 0
 576 0006 42F00102 		orr	r2, r2, #1
 577              		.loc 1 650 0
 578 000a 0521     		movs	r1, #5
 579              		.loc 1 646 0
 580 000c 5A61     		str	r2, [r3, #20]
 581              		.loc 1 647 0
 582 000e 1861     		str	r0, [r3, #16]
 583              		.loc 1 650 0
 584 0010 1960     		str	r1, [r3]
 585              		.loc 1 651 0
 586 0012 7047     		bx	lr
 587              		.cfi_endproc
 588              	.LFE262:
 589              		.size	icu_lld_start_capture, .-icu_lld_start_capture
 590              		.section	.text.icu_lld_wait_capture,"ax",%progbits
 591              		.align	1
 592              		.p2align 4,,15
 593              		.global	icu_lld_wait_capture
 594              		.syntax unified
 595              		.thumb
 596              		.thumb_func
 597              		.fpu fpv4-sp-d16
 598              		.type	icu_lld_wait_capture, %function
 599              	icu_lld_wait_capture:
 600              	.LFB263:
 601              		.loc 1 665 0
 602              		.cfi_startproc
 603              		@ args = 0, pretend = 0, frame = 0
 604              		@ frame_needed = 0, uses_anonymous_args = 0
 605              	.LVL41:
 606 0000 38B5     		push	{r3, r4, r5, lr}
 607              		.cfi_def_cfa_offset 16
 608              		.cfi_offset 3, -16
 609              		.cfi_offset 4, -12
 610              		.cfi_offset 5, -8
 611              		.cfi_offset 14, -4
 612              		.loc 1 669 0
 613 0002 0378     		ldrb	r3, [r0]	@ zero_extendqisi2
 614 0004 032B     		cmp	r3, #3
 615 0006 00F10405 		add	r5, r0, #4
 616 000a 00F10C04 		add	r4, r0, #12
 617 000e 05D0     		beq	.L88
 618              	.LVL42:
 619              	.L89:
 620              		.loc 1 674 0
 621 0010 2146     		mov	r1, r4
 622 0012 2846     		mov	r0, r5
 623              		.loc 1 675 0
 624 0014 BDE83840 		pop	{r3, r4, r5, lr}
 625              		.cfi_remember_state
 626              		.cfi_restore 14
 627              		.cfi_restore 5
ARM GAS  /tmp/ccoeX4ZI.s 			page 12


 628              		.cfi_restore 4
 629              		.cfi_restore 3
 630              		.cfi_def_cfa_offset 0
 631              	.LVL43:
 632              		.loc 1 674 0
 633 0018 FFF7FEBF 		b	icu_lld_wait_edge.isra.0
 634              	.LVL44:
 635              	.L88:
 636              		.cfi_restore_state
 637              		.loc 1 670 0
 638 001c 2146     		mov	r1, r4
 639 001e 2846     		mov	r0, r5
 640              	.LVL45:
 641 0020 FFF7FEFF 		bl	icu_lld_wait_edge.isra.0
 642              	.LVL46:
 643 0024 0028     		cmp	r0, #0
 644 0026 F3D0     		beq	.L89
 645              	.LVL47:
 646              		.loc 1 675 0
 647 0028 38BD     		pop	{r3, r4, r5, pc}
 648              		.cfi_endproc
 649              	.LFE263:
 650              		.size	icu_lld_wait_capture, .-icu_lld_wait_capture
 651 002a 00BF     		.section	.text.icu_lld_stop_capture,"ax",%progbits
 652              		.align	1
 653              		.p2align 4,,15
 654              		.global	icu_lld_stop_capture
 655              		.syntax unified
 656              		.thumb
 657              		.thumb_func
 658              		.fpu fpv4-sp-d16
 659              		.type	icu_lld_stop_capture, %function
 660              	icu_lld_stop_capture:
 661              	.LFB264:
 662              		.loc 1 684 0
 663              		.cfi_startproc
 664              		@ args = 0, pretend = 0, frame = 0
 665              		@ frame_needed = 0, uses_anonymous_args = 0
 666              		@ link register save eliminated.
 667              	.LVL48:
 668              		.loc 1 687 0
 669 0000 C368     		ldr	r3, [r0, #12]
 670 0002 0022     		movs	r2, #0
 671 0004 1A60     		str	r2, [r3]
 672              		.loc 1 690 0
 673 0006 DA68     		ldr	r2, [r3, #12]
 674 0008 22F0FF02 		bic	r2, r2, #255
 675 000c DA60     		str	r2, [r3, #12]
 676              		.loc 1 691 0
 677 000e 7047     		bx	lr
 678              		.cfi_endproc
 679              	.LFE264:
 680              		.size	icu_lld_stop_capture, .-icu_lld_stop_capture
 681              		.section	.text.icu_lld_enable_notifications,"ax",%progbits
 682              		.align	1
 683              		.p2align 4,,15
 684              		.global	icu_lld_enable_notifications
ARM GAS  /tmp/ccoeX4ZI.s 			page 13


 685              		.syntax unified
 686              		.thumb
 687              		.thumb_func
 688              		.fpu fpv4-sp-d16
 689              		.type	icu_lld_enable_notifications, %function
 690              	icu_lld_enable_notifications:
 691              	.LFB265:
 692              		.loc 1 702 0
 693              		.cfi_startproc
 694              		@ args = 0, pretend = 0, frame = 0
 695              		@ frame_needed = 0, uses_anonymous_args = 0
 696              		@ link register save eliminated.
 697              	.LVL49:
 698              		.loc 1 703 0
 699 0000 C268     		ldr	r2, [r0, #12]
 700 0002 D368     		ldr	r3, [r2, #12]
 701              	.LVL50:
 702              		.loc 1 702 0
 703 0004 10B4     		push	{r4}
 704              		.cfi_def_cfa_offset 4
 705              		.cfi_offset 4, -4
 706              		.loc 1 708 0
 707 0006 13F0FF04 		ands	r4, r3, #255
 708 000a 0CD1     		bne	.L95
 709              		.loc 1 712 0
 710 000c 4168     		ldr	r1, [r0, #4]
 711              		.loc 1 710 0
 712 000e 1461     		str	r4, [r2, #16]
 713              		.loc 1 712 0
 714 0010 0C7D     		ldrb	r4, [r1, #20]	@ zero_extendqisi2
 715 0012 8868     		ldr	r0, [r1, #8]
 716              	.LVL51:
 717 0014 54B9     		cbnz	r4, .L97
 718              	.LVL52:
 719              		.loc 1 717 0
 720 0016 70B1     		cbz	r0, .L106
 721              	.LVL53:
 722              	.L100:
 723              		.loc 1 726 0
 724 0018 43F00603 		orr	r3, r3, #6
 725              	.LVL54:
 726              	.L99:
 727              		.loc 1 731 0
 728 001c 0969     		ldr	r1, [r1, #16]
 729 001e 09B1     		cbz	r1, .L101
 730              		.loc 1 732 0
 731 0020 43F00103 		orr	r3, r3, #1
 732              	.LVL55:
 733              	.L101:
 734              		.loc 1 735 0
 735 0024 D360     		str	r3, [r2, #12]
 736              	.L95:
 737              		.loc 1 737 0
 738 0026 5DF8044B 		ldr	r4, [sp], #4
 739              		.cfi_remember_state
 740              		.cfi_restore 4
 741              		.cfi_def_cfa_offset 0
ARM GAS  /tmp/ccoeX4ZI.s 			page 14


 742 002a 7047     		bx	lr
 743              	.L97:
 744              		.cfi_restore_state
 745              	.LVL56:
 746              		.loc 1 725 0
 747 002c 0028     		cmp	r0, #0
 748 002e F3D1     		bne	.L100
 749              		.loc 1 722 0
 750 0030 43F00403 		orr	r3, r3, #4
 751              	.LVL57:
 752 0034 F2E7     		b	.L99
 753              	.LVL58:
 754              	.L106:
 755              		.loc 1 714 0
 756 0036 43F00203 		orr	r3, r3, #2
 757              	.LVL59:
 758 003a EFE7     		b	.L99
 759              		.cfi_endproc
 760              	.LFE265:
 761              		.size	icu_lld_enable_notifications, .-icu_lld_enable_notifications
 762              		.section	.text.icu_lld_disable_notifications,"ax",%progbits
 763              		.align	1
 764              		.p2align 4,,15
 765              		.global	icu_lld_disable_notifications
 766              		.syntax unified
 767              		.thumb
 768              		.thumb_func
 769              		.fpu fpv4-sp-d16
 770              		.type	icu_lld_disable_notifications, %function
 771              	icu_lld_disable_notifications:
 772              	.LFB266:
 773              		.loc 1 748 0
 774              		.cfi_startproc
 775              		@ args = 0, pretend = 0, frame = 0
 776              		@ frame_needed = 0, uses_anonymous_args = 0
 777              		@ link register save eliminated.
 778              	.LVL60:
 779              		.loc 1 751 0
 780 0000 C268     		ldr	r2, [r0, #12]
 781 0002 D368     		ldr	r3, [r2, #12]
 782 0004 23F0FF03 		bic	r3, r3, #255
 783 0008 D360     		str	r3, [r2, #12]
 784              		.loc 1 752 0
 785 000a 7047     		bx	lr
 786              		.cfi_endproc
 787              	.LFE266:
 788              		.size	icu_lld_disable_notifications, .-icu_lld_disable_notifications
 789              		.global	ICUD3
 790              		.section	.bss.ICUD3,"aw",%nobits
 791              		.align	2
 792              		.set	.LANCHOR0,. + 0
 793              		.type	ICUD3, %object
 794              		.size	ICUD3, 24
 795              	ICUD3:
 796 0000 00000000 		.space	24
 796      00000000 
 796      00000000 
ARM GAS  /tmp/ccoeX4ZI.s 			page 15


 796      00000000 
 796      00000000 
 797              		.text
 798              	.Letext0:
 799              		.file 3 "/usr/lib/gcc/arm-none-eabi/7.3.1/include/stddef.h"
 800              		.file 4 "/usr/arm-none-eabi/include/machine/_default_types.h"
 801              		.file 5 "/usr/arm-none-eabi/include/sys/_stdint.h"
 802              		.file 6 "ChibiOS_3.0.2/os/rt/ports/ARMCMx/compilers/GCC/chtypes.h"
 803              		.file 7 "ChibiOS_3.0.2/os/rt/include/chsystypes.h"
 804              		.file 8 "ChibiOS_3.0.2/os/rt/include/chschd.h"
 805              		.file 9 "ChibiOS_3.0.2/os/ext/CMSIS/include/core_cm4.h"
 806              		.file 10 "ChibiOS_3.0.2/os/ext/CMSIS/ST/system_stm32f4xx.h"
 807              		.file 11 "ChibiOS_3.0.2/os/ext/CMSIS/ST/stm32f407xx.h"
 808              		.file 12 "ChibiOS_3.0.2/os/rt/ports/ARMCMx/chcore.h"
 809              		.file 13 "ChibiOS_3.0.2/os/rt/ports/ARMCMx/chcore_v7m.h"
 810              		.file 14 "ChibiOS_3.0.2/os/rt/include/chtm.h"
 811              		.file 15 "ChibiOS_3.0.2/os/rt/include/chsem.h"
 812              		.file 16 "ChibiOS_3.0.2/os/rt/include/chmtx.h"
 813              		.file 17 "ChibiOS_3.0.2/os/rt/include/chregistry.h"
 814              		.file 18 "ChibiOS_3.0.2/os/rt/include/chevents.h"
 815              		.file 19 "ChibiOS_3.0.2/os/rt/include/chqueues.h"
 816              		.file 20 "./conf_general.h"
 817              		.file 21 "ChibiOS_3.0.2/os/hal/ports/STM32/STM32F4xx/stm32_dma.h"
 818              		.file 22 "ChibiOS_3.0.2/os/hal/ports/STM32/LLD/GPIOv2/pal_lld.h"
 819              		.file 23 "ChibiOS_3.0.2/os/hal/include/can.h"
 820              		.file 24 "ChibiOS_3.0.2/os/hal/ports/STM32/LLD/can_lld.h"
 821              		.file 25 "ChibiOS_3.0.2/os/hal/include/i2c.h"
 822              		.file 26 "ChibiOS_3.0.2/os/hal/ports/STM32/LLD/I2Cv1/i2c_lld.h"
 823              		.file 27 "ChibiOS_3.0.2/os/hal/include/icu.h"
 824              		.file 28 "ChibiOS_3.0.2/os/hal/ports/STM32/LLD/TIMv1/icu_lld.h"
 825              		.file 29 "ChibiOS_3.0.2/os/hal/ports/STM32/LLD/TIMv1/stm32_tim.h"
 826              		.file 30 "ChibiOS_3.0.2/os/hal/include/spi.h"
 827              		.file 31 "ChibiOS_3.0.2/os/hal/ports/STM32/LLD/SPIv1/spi_lld.h"
 828              		.file 32 "ChibiOS_3.0.2/os/hal/include/uart.h"
 829              		.file 33 "ChibiOS_3.0.2/os/hal/ports/STM32/LLD/USARTv1/uart_lld.h"
 830              		.file 34 "ChibiOS_3.0.2/os/hal/include/usb.h"
 831              		.file 35 "ChibiOS_3.0.2/os/hal/ports/STM32/LLD/OTGv1/usb_lld.h"
 832              		.file 36 "ChibiOS_3.0.2/os/hal/ports/STM32/LLD/OTGv1/stm32_otg.h"
 833              		.file 37 "ChibiOS_3.0.2/os/rt/include/chsys.h"
 834              		.file 38 "ChibiOS_3.0.2/os/hal/ports/common/ARMCMx/nvic.h"