ARM GAS  /tmp/cc6wU0ld.s 			page 1


   1              		.cpu cortex-m4
   2              		.eabi_attribute 27, 1
   3              		.eabi_attribute 28, 1
   4              		.eabi_attribute 20, 1
   5              		.eabi_attribute 21, 1
   6              		.eabi_attribute 23, 3
   7              		.eabi_attribute 24, 1
   8              		.eabi_attribute 25, 1
   9              		.eabi_attribute 26, 1
  10              		.eabi_attribute 30, 2
  11              		.eabi_attribute 34, 1
  12              		.eabi_attribute 18, 4
  13              		.file	"main.c"
  14              		.text
  15              	.Ltext0:
  16              		.cfi_sections	.debug_frame
  17              		.section	.text.timer_thread,"ax",%progbits
  18              		.align	1
  19              		.p2align 4,,15
  20              		.syntax unified
  21              		.thumb
  22              		.thumb_func
  23              		.fpu fpv4-sp-d16
  24              		.type	timer_thread, %function
  25              	timer_thread:
  26              	.LFB260:
  27              		.file 1 "main.c"
  28              		.loc 1 167 0
  29              		.cfi_startproc
  30              		@ Volatile: function does not return.
  31              		@ args = 0, pretend = 0, frame = 0
  32              		@ frame_needed = 0, uses_anonymous_args = 0
  33              	.LVL0:
  34 0000 08B5     		push	{r3, lr}
  35              		.cfi_def_cfa_offset 8
  36              		.cfi_offset 3, -8
  37              		.cfi_offset 14, -4
  38              	.LBB8:
  39              	.LBB9:
  40              		.file 2 "ChibiOS_3.0.2/os/rt/include/chregistry.h"
  41              		.loc 2 135 0
  42 0002 054B     		ldr	r3, .L5
  43 0004 054A     		ldr	r2, .L5+4
  44 0006 9B69     		ldr	r3, [r3, #24]
  45 0008 9A61     		str	r2, [r3, #24]
  46              	.LVL1:
  47              	.L2:
  48              	.LBE9:
  49              	.LBE8:
  50              		.loc 1 173 0 discriminator 1
  51 000a FFF7FEFF 		bl	packet_timerfunc
  52              	.LVL2:
  53              		.loc 1 174 0 discriminator 1
  54 000e 0A20     		movs	r0, #10
  55 0010 FFF7FEFF 		bl	chThdSleep
  56              	.LVL3:
  57 0014 F9E7     		b	.L2
ARM GAS  /tmp/cc6wU0ld.s 			page 2


  58              	.L6:
  59 0016 00BF     		.align	2
  60              	.L5:
  61 0018 00000000 		.word	ch
  62 001c 00000000 		.word	.LC0
  63              		.cfi_endproc
  64              	.LFE260:
  65              		.size	timer_thread, .-timer_thread
  66              		.section	.text.periodic_thread,"ax",%progbits
  67              		.align	1
  68              		.p2align 4,,15
  69              		.syntax unified
  70              		.thumb
  71              		.thumb_func
  72              		.fpu fpv4-sp-d16
  73              		.type	periodic_thread, %function
  74              	periodic_thread:
  75              	.LFB259:
  76              		.loc 1 79 0
  77              		.cfi_startproc
  78              		@ args = 0, pretend = 0, frame = 0
  79              		@ frame_needed = 0, uses_anonymous_args = 0
  80              	.LVL4:
  81 0000 38B5     		push	{r3, r4, r5, lr}
  82              		.cfi_def_cfa_offset 16
  83              		.cfi_offset 3, -16
  84              		.cfi_offset 4, -12
  85              		.cfi_offset 5, -8
  86              		.cfi_offset 14, -4
  87              	.LBB10:
  88              	.LBB11:
  89              		.loc 2 135 0
  90 0002 474B     		ldr	r3, .L31
  91 0004 474A     		ldr	r2, .L31+4
  92 0006 9B69     		ldr	r3, [r3, #24]
  93              	.LBE11:
  94              	.LBE10:
  95              		.loc 1 79 0
  96 0008 2DED048B 		vpush.64	{d8, d9}
  97              		.cfi_def_cfa_offset 32
  98              		.cfi_offset 80, -32
  99              		.cfi_offset 81, -28
 100              		.cfi_offset 82, -24
 101              		.cfi_offset 83, -20
 102              	.LBB13:
 103              		.loc 1 88 0
 104 000c DFED468A 		vldr.32	s17, .L31+8
 105              	.LBB14:
 106              		.loc 1 96 0
 107 0010 9FED468A 		vldr.32	s16, .L31+12
 108              	.LBE14:
 109              	.LBE13:
 110              	.LBB16:
 111              	.LBB12:
 112              		.loc 2 135 0
 113 0014 9A61     		str	r2, [r3, #24]
 114 0016 2BE0     		b	.L21
ARM GAS  /tmp/cc6wU0ld.s 			page 3


 115              	.LVL5:
 116              	.L26:
 117              	.LBE12:
 118              	.LBE16:
 119              	.LBB17:
 120              		.loc 1 102 0
 121 0018 B0EE480A 		vmov.f32	s0, s16
 122 001c 0120     		movs	r0, #1
 123              	.LVL6:
 124 001e FFF7FEFF 		bl	ledpwm_set_intensity
 125              	.LVL7:
 126              		.loc 1 105 0
 127 0022 FFF7FEFF 		bl	mc_interface_get_state
 128              	.LVL8:
 129 0026 0128     		cmp	r0, #1
 130 0028 50D0     		beq	.L28
 131              	.L12:
 132              		.loc 1 109 0
 133 002a FFF7FEFF 		bl	commands_get_disp_pos_mode
 134              	.LVL9:
 135              		.loc 1 111 0
 136 002e 0428     		cmp	r0, #4
 137              		.loc 1 109 0
 138 0030 0446     		mov	r4, r0
 139              	.LVL10:
 140              		.loc 1 111 0
 141 0032 54D0     		beq	.L14
 142              	.L30:
 143 0034 0528     		cmp	r0, #5
 144 0036 5FD0     		beq	.L15
 145 0038 0328     		cmp	r0, #3
 146 003a 55D0     		beq	.L29
 147              		.loc 1 128 0
 148 003c FFF7FEFF 		bl	mc_interface_get_configuration
 149              	.LVL11:
 150 0040 8378     		ldrb	r3, [r0, #2]	@ zero_extendqisi2
 151 0042 022B     		cmp	r3, #2
 152 0044 11D1     		bne	.L18
 153              		.loc 1 129 0
 154 0046 022C     		cmp	r4, #2
 155 0048 65D0     		beq	.L19
 156 004a 062C     		cmp	r4, #6
 157 004c 0DD1     		bne	.L18
 158              		.loc 1 135 0
 159 004e FFF7FEFF 		bl	mcpwm_foc_get_phase_observer
 160              	.LVL12:
 161 0052 B0EE409A 		vmov.f32	s18, s0
 162 0056 FFF7FEFF 		bl	mcpwm_foc_get_phase_encoder
 163              	.LVL13:
 164 005a F0EE400A 		vmov.f32	s1, s0
 165 005e B0EE490A 		vmov.f32	s0, s18
 166 0062 FFF7FEFF 		bl	utils_angle_difference
 167              	.LVL14:
 168 0066 FFF7FEFF 		bl	commands_send_rotor_pos
 169              	.LVL15:
 170              	.L18:
 171              		.loc 1 143 0
ARM GAS  /tmp/cc6wU0ld.s 			page 4


 172 006a 6420     		movs	r0, #100
 173 006c FFF7FEFF 		bl	chThdSleep
 174              	.LVL16:
 175              	.L21:
 176              		.loc 1 85 0
 177 0070 FFF7FEFF 		bl	mc_interface_get_state
 178              	.LVL17:
 179 0074 0228     		cmp	r0, #2
 180              		.loc 1 86 0
 181 0076 0CBF     		ite	eq
 182 0078 B7EE000A 		vmoveq.f32	s0, #1.0e+0
 183              		.loc 1 88 0
 184 007c B0EE680A 		vmovne.f32	s0, s17
 185 0080 0020     		movs	r0, #0
 186 0082 FFF7FEFF 		bl	ledpwm_set_intensity
 187              	.LVL18:
 188              		.loc 1 91 0
 189 0086 FFF7FEFF 		bl	mc_interface_get_fault
 190              	.LVL19:
 191              		.loc 1 92 0
 192 008a 0546     		mov	r5, r0
 193 008c 0028     		cmp	r0, #0
 194 008e C3D0     		beq	.L26
 195              	.LVL20:
 196              	.LBB15:
 197              		.loc 1 93 0
 198 0090 0024     		movs	r4, #0
 199              	.LVL21:
 200              	.L10:
 201              		.loc 1 94 0 discriminator 3
 202 0092 B7EE000A 		vmov.f32	s0, #1.0e+0
 203 0096 0120     		movs	r0, #1
 204 0098 FFF7FEFF 		bl	ledpwm_set_intensity
 205              	.LVL22:
 206              		.loc 1 95 0 discriminator 3
 207 009c 40F6C410 		movw	r0, #2500
 208 00a0 FFF7FEFF 		bl	chThdSleep
 209              	.LVL23:
 210              		.loc 1 96 0 discriminator 3
 211 00a4 0120     		movs	r0, #1
 212 00a6 B0EE480A 		vmov.f32	s0, s16
 213              		.loc 1 93 0 discriminator 3
 214 00aa 0444     		add	r4, r4, r0
 215              	.LVL24:
 216              		.loc 1 96 0 discriminator 3
 217 00ac FFF7FEFF 		bl	ledpwm_set_intensity
 218              	.LVL25:
 219              		.loc 1 97 0 discriminator 3
 220 00b0 40F6C410 		movw	r0, #2500
 221 00b4 FFF7FEFF 		bl	chThdSleep
 222              	.LVL26:
 223              		.loc 1 93 0 discriminator 3
 224 00b8 AC42     		cmp	r4, r5
 225 00ba EAD1     		bne	.L10
 226              	.LBE15:
 227              		.loc 1 100 0
 228 00bc 41F28830 		movw	r0, #5000
ARM GAS  /tmp/cc6wU0ld.s 			page 5


 229 00c0 FFF7FEFF 		bl	chThdSleep
 230              	.LVL27:
 231              		.loc 1 105 0
 232 00c4 FFF7FEFF 		bl	mc_interface_get_state
 233              	.LVL28:
 234 00c8 0128     		cmp	r0, #1
 235 00ca AED1     		bne	.L12
 236              	.LVL29:
 237              	.L28:
 238              		.loc 1 106 0
 239 00cc FFF7FEFF 		bl	mcpwm_get_detect_pos
 240              	.LVL30:
 241 00d0 FFF7FEFF 		bl	commands_send_rotor_pos
 242              	.LVL31:
 243              		.loc 1 109 0
 244 00d4 FFF7FEFF 		bl	commands_get_disp_pos_mode
 245              	.LVL32:
 246              		.loc 1 111 0
 247 00d8 0428     		cmp	r0, #4
 248              		.loc 1 109 0
 249 00da 0446     		mov	r4, r0
 250              	.LVL33:
 251              		.loc 1 111 0
 252 00dc AAD1     		bne	.L30
 253              	.L14:
 254              		.loc 1 117 0
 255 00de FFF7FEFF 		bl	mc_interface_get_pid_pos_now
 256              	.LVL34:
 257 00e2 FFF7FEFF 		bl	commands_send_rotor_pos
 258              	.LVL35:
 259              		.loc 1 118 0
 260 00e6 03E0     		b	.L17
 261              	.LVL36:
 262              	.L29:
 263              		.loc 1 113 0
 264 00e8 FFF7FEFF 		bl	encoder_read_deg
 265              	.LVL37:
 266 00ec FFF7FEFF 		bl	commands_send_rotor_pos
 267              	.LVL38:
 268              	.L17:
 269              		.loc 1 128 0
 270 00f0 FFF7FEFF 		bl	mc_interface_get_configuration
 271              	.LVL39:
 272 00f4 8378     		ldrb	r3, [r0, #2]	@ zero_extendqisi2
 273 00f6 B8E7     		b	.L18
 274              	.LVL40:
 275              	.L15:
 276              		.loc 1 121 0
 277 00f8 FFF7FEFF 		bl	mc_interface_get_pid_pos_set
 278              	.LVL41:
 279 00fc B0EE409A 		vmov.f32	s18, s0
 280 0100 FFF7FEFF 		bl	mc_interface_get_pid_pos_now
 281              	.LVL42:
 282 0104 F0EE400A 		vmov.f32	s1, s0
 283 0108 B0EE490A 		vmov.f32	s0, s18
 284 010c FFF7FEFF 		bl	utils_angle_difference
 285              	.LVL43:
ARM GAS  /tmp/cc6wU0ld.s 			page 6


 286 0110 FFF7FEFF 		bl	commands_send_rotor_pos
 287              	.LVL44:
 288              		.loc 1 122 0
 289 0114 ECE7     		b	.L17
 290              	.L19:
 291              		.loc 1 131 0
 292 0116 FFF7FEFF 		bl	mcpwm_foc_get_phase_observer
 293              	.LVL45:
 294 011a FFF7FEFF 		bl	commands_send_rotor_pos
 295              	.LVL46:
 296              		.loc 1 132 0
 297 011e A4E7     		b	.L18
 298              	.L32:
 299              		.align	2
 300              	.L31:
 301 0120 00000000 		.word	ch
 302 0124 00000000 		.word	.LC1
 303 0128 CDCC4C3E 		.word	1045220557
 304 012c 00000000 		.word	0
 305              	.LBE17:
 306              		.cfi_endproc
 307              	.LFE259:
 308              		.size	periodic_thread, .-periodic_thread
 309              		.section	.text.startup.main,"ax",%progbits
 310              		.align	1
 311              		.p2align 4,,15
 312              		.global	main
 313              		.syntax unified
 314              		.thumb
 315              		.thumb_func
 316              		.fpu fpv4-sp-d16
 317              		.type	main, %function
 318              	main:
 319              	.LFB261:
 320              		.loc 1 178 0
 321              		.cfi_startproc
 322              		@ Volatile: function does not return.
 323              		@ args = 0, pretend = 0, frame = 592
 324              		@ frame_needed = 0, uses_anonymous_args = 0
 325 0000 00B5     		push	{lr}
 326              		.cfi_def_cfa_offset 4
 327              		.cfi_offset 14, -4
 328 0002 ADF5177D 		sub	sp, sp, #604
 329              		.cfi_def_cfa_offset 608
 330              		.loc 1 179 0
 331 0006 FFF7FEFF 		bl	halInit
 332              	.LVL47:
 333              		.loc 1 180 0
 334 000a FFF7FEFF 		bl	chSysInit
 335              	.LVL48:
 336              		.loc 1 189 0
 337 000e 42F21070 		movw	r0, #10000
 338 0012 FFF7FEFF 		bl	chThdSleep
 339              	.LVL49:
 340              		.loc 1 191 0
 341 0016 FFF7FEFF 		bl	hw_init_gpio
 342              	.LVL50:
ARM GAS  /tmp/cc6wU0ld.s 			page 7


 343              		.loc 1 192 0
 344 001a 1C4B     		ldr	r3, .L36
 345 001c 2021     		movs	r1, #32
 346              		.loc 1 193 0
 347 001e 1022     		movs	r2, #16
 348              		.loc 1 192 0
 349 0020 5983     		strh	r1, [r3, #26]	@ movhi
 350              		.loc 1 193 0
 351 0022 5A83     		strh	r2, [r3, #26]	@ movhi
 352              		.loc 1 195 0
 353 0024 FFF7FEFF 		bl	conf_general_init
 354              	.LVL51:
 355              		.loc 1 196 0
 356 0028 FFF7FEFF 		bl	ledpwm_init
 357              	.LVL52:
 358              		.loc 1 199 0
 359 002c 35A8     		add	r0, sp, #212
 360 002e FFF7FEFF 		bl	conf_general_read_mc_configuration
 361              	.LVL53:
 362              		.loc 1 200 0
 363 0032 35A8     		add	r0, sp, #212
 364 0034 FFF7FEFF 		bl	mc_interface_init
 365              	.LVL54:
 366              		.loc 1 202 0
 367 0038 FFF7FEFF 		bl	commands_init
 368              	.LVL55:
 369              		.loc 1 203 0
 370 003c FFF7FEFF 		bl	comm_usb_init
 371              	.LVL56:
 372              		.loc 1 206 0
 373 0040 FFF7FEFF 		bl	comm_can_init
 374              	.LVL57:
 375              		.loc 1 210 0
 376 0044 03A8     		add	r0, sp, #12
 377 0046 FFF7FEFF 		bl	conf_general_read_app_configuration
 378              	.LVL58:
 379              		.loc 1 211 0
 380 004a 03A8     		add	r0, sp, #12
 381 004c FFF7FEFF 		bl	app_set_configuration
 382              	.LVL59:
 383              		.loc 1 244 0
 384 0050 0024     		movs	r4, #0
 385              		.loc 1 229 0
 386 0052 FFF7FEFF 		bl	timeout_init
 387              	.LVL60:
 388              		.loc 1 230 0
 389 0056 9DED050A 		vldr.32	s0, [sp, #20]
 390 005a 0498     		ldr	r0, [sp, #16]
 391 005c FFF7FEFF 		bl	timeout_configure
 392              	.LVL61:
 393              		.loc 1 244 0
 394 0060 0B4B     		ldr	r3, .L36+4
 395 0062 0094     		str	r4, [sp]
 396 0064 4022     		movs	r2, #64
 397 0066 4FF4B361 		mov	r1, #1432
 398 006a 0A48     		ldr	r0, .L36+8
 399 006c FFF7FEFF 		bl	chThdCreateStatic
ARM GAS  /tmp/cc6wU0ld.s 			page 8


 400              	.LVL62:
 401              		.loc 1 245 0
 402 0070 0094     		str	r4, [sp]
 403 0072 094B     		ldr	r3, .L36+12
 404 0074 0948     		ldr	r0, .L36+16
 405 0076 4022     		movs	r2, #64
 406 0078 4FF40671 		mov	r1, #536
 407 007c FFF7FEFF 		bl	chThdCreateStatic
 408              	.LVL63:
 409              	.L34:
 410              		.loc 1 308 0
 411 0080 6420     		movs	r0, #100
 412 0082 FFF7FEFF 		bl	chThdSleep
 413              	.LVL64:
 414              		.loc 1 310 0
 415 0086 FFF7FEFF 		bl	encoder_is_configured
 416              	.LVL65:
 417 008a F9E7     		b	.L34
 418              	.L37:
 419              		.align	2
 420              	.L36:
 421 008c 00080240 		.word	1073874944
 422 0090 00000000 		.word	periodic_thread
 423 0094 00000000 		.word	.LANCHOR0
 424 0098 00000000 		.word	timer_thread
 425 009c 00000000 		.word	.LANCHOR1
 426              		.cfi_endproc
 427              	.LFE261:
 428              		.size	main, .-main
 429              		.section	.bss.periodic_thread_wa,"aw",%nobits
 430              		.align	3
 431              		.set	.LANCHOR0,. + 0
 432              		.type	periodic_thread_wa, %object
 433              		.size	periodic_thread_wa, 1432
 434              	periodic_thread_wa:
 435 0000 00000000 		.space	1432
 435      00000000 
 435      00000000 
 435      00000000 
 435      00000000 
 436              		.section	.bss.timer_thread_wa,"aw",%nobits
 437              		.align	3
 438              		.set	.LANCHOR1,. + 0
 439              		.type	timer_thread_wa, %object
 440              		.size	timer_thread_wa, 536
 441              	timer_thread_wa:
 442 0000 00000000 		.space	536
 442      00000000 
 442      00000000 
 442      00000000 
 442      00000000 
 443              		.section	.rodata.periodic_thread.str1.4,"aMS",%progbits,1
 444              		.align	2
 445              	.LC1:
 446 0000 4D61696E 		.ascii	"Main periodic\000"
 446      20706572 
 446      696F6469 
ARM GAS  /tmp/cc6wU0ld.s 			page 9


 446      6300
 447              		.section	.rodata.timer_thread.str1.4,"aMS",%progbits,1
 448              		.align	2
 449              	.LC0:
 450 0000 6D736563 		.ascii	"msec_timer\000"
 450      5F74696D 
 450      657200
 451              		.text
 452              	.Letext0:
 453              		.file 3 "/usr/lib/gcc/arm-none-eabi/7.3.1/include/stddef.h"
 454              		.file 4 "/usr/arm-none-eabi/include/machine/_default_types.h"
 455              		.file 5 "/usr/arm-none-eabi/include/sys/_stdint.h"
 456              		.file 6 "ChibiOS_3.0.2/os/rt/ports/ARMCMx/compilers/GCC/chtypes.h"
 457              		.file 7 "ChibiOS_3.0.2/os/rt/include/chsystypes.h"
 458              		.file 8 "ChibiOS_3.0.2/os/rt/include/chschd.h"
 459              		.file 9 "ChibiOS_3.0.2/os/ext/CMSIS/include/core_cm4.h"
 460              		.file 10 "ChibiOS_3.0.2/os/ext/CMSIS/ST/system_stm32f4xx.h"
 461              		.file 11 "ChibiOS_3.0.2/os/ext/CMSIS/ST/stm32f407xx.h"
 462              		.file 12 "ChibiOS_3.0.2/os/rt/ports/ARMCMx/chcore.h"
 463              		.file 13 "ChibiOS_3.0.2/os/rt/ports/ARMCMx/chcore_v7m.h"
 464              		.file 14 "ChibiOS_3.0.2/os/rt/include/chtm.h"
 465              		.file 15 "ChibiOS_3.0.2/os/rt/include/chsem.h"
 466              		.file 16 "ChibiOS_3.0.2/os/rt/include/chmtx.h"
 467              		.file 17 "ChibiOS_3.0.2/os/rt/include/chevents.h"
 468              		.file 18 "ChibiOS_3.0.2/os/rt/include/chqueues.h"
 469              		.file 19 "./datatypes.h"
 470              		.file 20 "./conf_general.h"
 471              		.file 21 "ChibiOS_3.0.2/os/hal/ports/STM32/STM32F4xx/stm32_dma.h"
 472              		.file 22 "ChibiOS_3.0.2/os/hal/ports/STM32/LLD/GPIOv2/pal_lld.h"
 473              		.file 23 "ChibiOS_3.0.2/os/hal/include/can.h"
 474              		.file 24 "ChibiOS_3.0.2/os/hal/ports/STM32/LLD/can_lld.h"
 475              		.file 25 "ChibiOS_3.0.2/os/hal/include/i2c.h"
 476              		.file 26 "ChibiOS_3.0.2/os/hal/ports/STM32/LLD/I2Cv1/i2c_lld.h"
 477              		.file 27 "ChibiOS_3.0.2/os/hal/include/icu.h"
 478              		.file 28 "ChibiOS_3.0.2/os/hal/ports/STM32/LLD/TIMv1/icu_lld.h"
 479              		.file 29 "ChibiOS_3.0.2/os/hal/ports/STM32/LLD/TIMv1/stm32_tim.h"
 480              		.file 30 "ChibiOS_3.0.2/os/hal/include/spi.h"
 481              		.file 31 "ChibiOS_3.0.2/os/hal/ports/STM32/LLD/SPIv1/spi_lld.h"
 482              		.file 32 "ChibiOS_3.0.2/os/hal/include/uart.h"
 483              		.file 33 "ChibiOS_3.0.2/os/hal/ports/STM32/LLD/USARTv1/uart_lld.h"
 484              		.file 34 "ChibiOS_3.0.2/os/hal/include/usb.h"
 485              		.file 35 "ChibiOS_3.0.2/os/hal/ports/STM32/LLD/OTGv1/usb_lld.h"
 486              		.file 36 "ChibiOS_3.0.2/os/hal/ports/STM32/LLD/OTGv1/stm32_otg.h"
 487              		.file 37 "/usr/arm-none-eabi/include/sys/lock.h"
 488              		.file 38 "/usr/arm-none-eabi/include/sys/_types.h"
 489              		.file 39 "/usr/arm-none-eabi/include/sys/reent.h"
 490              		.file 40 "/usr/arm-none-eabi/include/math.h"
 491              		.file 41 "/usr/arm-none-eabi/include/stdlib.h"
 492              		.file 42 "mc_interface.h"
 493              		.file 43 "mcpwm.h"
 494              		.file 44 "ChibiOS_3.0.2/os/hal/include/hal.h"
 495              		.file 45 "ChibiOS_3.0.2/os/rt/include/chsys.h"
 496              		.file 46 "ChibiOS_3.0.2/os/rt/include/chthreads.h"
 497              		.file 47 "hwconf/hw.h"
 498              		.file 48 "ledpwm.h"
 499              		.file 49 "commands.h"
 500              		.file 50 "comm_usb.h"
ARM GAS  /tmp/cc6wU0ld.s 			page 10


 501              		.file 51 "comm_can.h"
 502              		.file 52 "applications/app.h"
 503              		.file 53 "timeout.h"
 504              		.file 54 "encoder.h"
 505              		.file 55 "packet.h"
 506              		.file 56 "mcpwm_foc.h"
 507              		.file 57 "utils.h"