ARM GAS  /tmp/ccETYwEL.s 			page 1


   1              		.cpu cortex-m4
   2              		.eabi_attribute 27, 1
   3              		.eabi_attribute 28, 1
   4              		.eabi_attribute 20, 1
   5              		.eabi_attribute 21, 1
   6              		.eabi_attribute 23, 3
   7              		.eabi_attribute 24, 1
   8              		.eabi_attribute 25, 1
   9              		.eabi_attribute 26, 1
  10              		.eabi_attribute 30, 2
  11              		.eabi_attribute 34, 1
  12              		.eabi_attribute 18, 4
  13              		.file	"mc_interface.c"
  14              		.text
  15              	.Ltext0:
  16              		.cfi_sections	.debug_frame
  17              		.section	.text.sample_send_thread,"ax",%progbits
  18              		.align	1
  19              		.p2align 4,,15
  20              		.syntax unified
  21              		.thumb
  22              		.thumb_func
  23              		.fpu fpv4-sp-d16
  24              		.type	sample_send_thread, %function
  25              	sample_send_thread:
  26              	.LFB312:
  27              		.file 1 "mc_interface.c"
  28              		.loc 1 1555 0
  29              		.cfi_startproc
  30              		@ args = 0, pretend = 0, frame = 48
  31              		@ frame_needed = 0, uses_anonymous_args = 0
  32              	.LVL0:
  33 0000 2DE9F04F 		push	{r4, r5, r6, r7, r8, r9, r10, fp, lr}
  34              		.cfi_def_cfa_offset 36
  35              		.cfi_offset 4, -36
  36              		.cfi_offset 5, -32
  37              		.cfi_offset 6, -28
  38              		.cfi_offset 7, -24
  39              		.cfi_offset 8, -20
  40              		.cfi_offset 9, -16
  41              		.cfi_offset 10, -12
  42              		.cfi_offset 11, -8
  43              		.cfi_offset 14, -4
  44              	.LBB117:
  45              	.LBB118:
  46              		.file 2 "ChibiOS_3.0.2/os/rt/include/chregistry.h"
  47              		.loc 2 135 0
  48 0004 7B4B     		ldr	r3, .L21
  49              	.LBE118:
  50              	.LBE117:
  51              		.loc 1 1560 0
  52 0006 7C4A     		ldr	r2, .L21+4
  53              	.LBB121:
  54              	.LBB119:
  55              		.loc 2 135 0
  56 0008 9B69     		ldr	r3, [r3, #24]
  57 000a 7C49     		ldr	r1, .L21+8
ARM GAS  /tmp/ccETYwEL.s 			page 2


  58 000c 7C4E     		ldr	r6, .L21+12
  59 000e DFF828B2 		ldr	fp, .L21+68
  60 0012 DFF828A2 		ldr	r10, .L21+72
  61              	.LBE119:
  62              	.LBE121:
  63              		.loc 1 1555 0
  64 0016 2DED068B 		vpush.64	{d8, d9, d10}
  65              		.cfi_def_cfa_offset 60
  66              		.cfi_offset 80, -60
  67              		.cfi_offset 81, -56
  68              		.cfi_offset 82, -52
  69              		.cfi_offset 83, -48
  70              		.cfi_offset 84, -44
  71              		.cfi_offset 85, -40
  72              	.LBB122:
  73              	.LBB123:
  74              	.LBB124:
  75              		.loc 1 1600 0
  76 001a DFED7A9A 		vldr.32	s19, .L21+16
  77              		.loc 1 1602 0
  78 001e 9FED7A9A 		vldr.32	s18, .L21+20
  79 0022 DFED7A8A 		vldr.32	s17, .L21+24
  80 0026 9FED7A8A 		vldr.32	s16, .L21+28
  81              		.loc 1 1606 0
  82 002a 9FED7AAA 		vldr.32	s20, .L21+32
  83              	.LBE124:
  84              	.LBE123:
  85              	.LBE122:
  86              	.LBB132:
  87              	.LBB120:
  88              		.loc 2 135 0
  89 002e 9961     		str	r1, [r3, #24]
  90              	.LVL1:
  91              	.LBE120:
  92              	.LBE132:
  93              		.loc 1 1555 0
  94 0030 8DB0     		sub	sp, sp, #52
  95              		.cfi_def_cfa_offset 112
  96              		.loc 1 1560 0
  97 0032 1360     		str	r3, [r2]
  98              	.LVL2:
  99              	.L13:
 100              	.LBB133:
 101              		.loc 1 1563 0
 102 0034 0120     		movs	r0, #1
 103 0036 FFF7FEFF 		bl	chEvtWaitAny
 104              	.LVL3:
 105              		.loc 1 1568 0
 106 003a 774B     		ldr	r3, .L21+36
 107 003c 1B78     		ldrb	r3, [r3]	@ zero_extendqisi2
 108 003e 013B     		subs	r3, r3, #1
 109 0040 052B     		cmp	r3, #5
 110 0042 F7D8     		bhi	.L13
 111 0044 DFE803F0 		tbb	[pc, r3]
 112              	.L4:
 113 0048 03       		.byte	(.L3-.L4)/2
 114 0049 03       		.byte	(.L3-.L4)/2
ARM GAS  /tmp/ccETYwEL.s 			page 3


 115 004a CC       		.byte	(.L5-.L4)/2
 116 004b CC       		.byte	(.L5-.L4)/2
 117 004c CC       		.byte	(.L5-.L4)/2
 118 004d CC       		.byte	(.L5-.L4)/2
 119              		.p2align 1
 120              	.L3:
 121              		.loc 1 1571 0
 122 004e 734B     		ldr	r3, .L21+40
 123 0050 D3F80080 		ldr	r8, [r3]
 124              	.LVL4:
 125              	.LBB129:
 126              		.loc 1 1586 0
 127 0054 B8F1000F 		cmp	r8, #0
 128              	.LBE129:
 129              		.loc 1 1566 0
 130 0058 C8BF     		it	gt
 131 005a 4FF00009 		movgt	r9, #0
 132              	.LBB130:
 133              		.loc 1 1586 0
 134 005e E9DD     		ble	.L13
 135              	.LVL5:
 136              	.L6:
 137              	.LBB125:
 138              		.loc 1 1591 0
 139 0060 B9F5FA6F 		cmp	r9, #2000
 140              	.LBE125:
 141              	.LBE130:
 142              		.loc 1 1578 0
 143 0064 4FF00007 		mov	r7, #0
 144              	.LVL6:
 145              	.LBB131:
 146              	.LBB126:
 147              		.loc 1 1589 0
 148 0068 4C46     		mov	r4, r9
 149              	.LVL7:
 150              		.loc 1 1591 0
 151 006a C0F2B180 		blt	.L7
 152              	.L8:
 153              		.loc 1 1592 0
 154 006e A4F5FA64 		sub	r4, r4, #2000
 155              	.LVL8:
 156              		.loc 1 1591 0
 157 0072 B4F5FA6F 		cmp	r4, #2000
 158 0076 FADA     		bge	.L8
 159              	.L9:
 160              		.loc 1 1600 0 discriminator 2
 161 0078 36F81430 		ldrh	r3, [r6, r4, lsl #1]
 162 007c 1BB2     		sxth	r3, r3
 163 007e 07EE903A 		vmov	s15, r3	@ int
 164 0082 B8EEE70A 		vcvt.f32.s32	s0, s15
 165              		.loc 1 1599 0 discriminator 2
 166 0086 0122     		movs	r2, #1
 167              		.loc 1 1601 0 discriminator 2
 168 0088 04FA02F5 		lsl	r5, r4, r2
 169              		.loc 1 1599 0 discriminator 2
 170 008c 1323     		movs	r3, #19
 171              		.loc 1 1600 0 discriminator 2
ARM GAS  /tmp/ccETYwEL.s 			page 4


 172 008e 20EE290A 		vmul.f32	s0, s0, s19
 173 0092 01A9     		add	r1, sp, #4
 174 0094 02A8     		add	r0, sp, #8
 175              		.loc 1 1599 0 discriminator 2
 176 0096 0192     		str	r2, [sp, #4]
 177 0098 8DF80830 		strb	r3, [sp, #8]
 178              		.loc 1 1600 0 discriminator 2
 179 009c FFF7FEFF 		bl	buffer_append_float32_auto
 180              	.LVL9:
 181              		.loc 1 1601 0 discriminator 2
 182 00a0 7319     		adds	r3, r6, r5
 183 00a2 01A9     		add	r1, sp, #4
 184 00a4 B3F8A03F 		ldrh	r3, [r3, #4000]
 185 00a8 1BB2     		sxth	r3, r3
 186 00aa 07EE903A 		vmov	s15, r3	@ int
 187 00ae B8EEE70A 		vcvt.f32.s32	s0, s15
 188 00b2 02A8     		add	r0, sp, #8
 189 00b4 20EE290A 		vmul.f32	s0, s0, s19
 190 00b8 FFF7FEFF 		bl	buffer_append_float32_auto
 191              	.LVL10:
 192              		.loc 1 1602 0 discriminator 2
 193 00bc 0BEB0503 		add	r3, fp, r5
 194 00c0 01A9     		add	r1, sp, #4
 195 00c2 B3F8483E 		ldrh	r3, [r3, #3656]
 196 00c6 1BB2     		sxth	r3, r3
 197 00c8 00EE103A 		vmov	s0, r3	@ int
 198 00cc B8EEC00A 		vcvt.f32.s32	s0, s0
 199 00d0 02A8     		add	r0, sp, #8
 200 00d2 20EE090A 		vmul.f32	s0, s0, s18
 201              	.LBE126:
 202              		.loc 1 1586 0 discriminator 2
 203 00d6 0137     		adds	r7, r7, #1
 204              	.LVL11:
 205              	.LBB127:
 206              		.loc 1 1602 0 discriminator 2
 207 00d8 20EE280A 		vmul.f32	s0, s0, s17
 208 00dc 09F10109 		add	r9, r9, #1
 209 00e0 20EE080A 		vmul.f32	s0, s0, s16
 210 00e4 FFF7FEFF 		bl	buffer_append_float32_auto
 211              	.LVL12:
 212              		.loc 1 1603 0 discriminator 2
 213 00e8 0AEB0503 		add	r3, r10, r5
 214 00ec 01A9     		add	r1, sp, #4
 215 00ee B3F8F03C 		ldrh	r3, [r3, #3312]
 216 00f2 1BB2     		sxth	r3, r3
 217 00f4 00EE103A 		vmov	s0, r3	@ int
 218 00f8 B8EEC00A 		vcvt.f32.s32	s0, s0
 219 00fc 02A8     		add	r0, sp, #8
 220 00fe 20EE090A 		vmul.f32	s0, s0, s18
 221 0102 20EE280A 		vmul.f32	s0, s0, s17
 222 0106 20EE080A 		vmul.f32	s0, s0, s16
 223 010a FFF7FEFF 		bl	buffer_append_float32_auto
 224              	.LVL13:
 225              		.loc 1 1604 0 discriminator 2
 226 010e 444B     		ldr	r3, .L21+44
 227 0110 2B44     		add	r3, r3, r5
 228 0112 01A9     		add	r1, sp, #4
ARM GAS  /tmp/ccETYwEL.s 			page 5


 229 0114 B3F8983B 		ldrh	r3, [r3, #2968]
 230 0118 1BB2     		sxth	r3, r3
 231 011a 00EE103A 		vmov	s0, r3	@ int
 232 011e B8EEC00A 		vcvt.f32.s32	s0, s0
 233 0122 02A8     		add	r0, sp, #8
 234 0124 20EE090A 		vmul.f32	s0, s0, s18
 235 0128 20EE280A 		vmul.f32	s0, s0, s17
 236 012c 20EE080A 		vmul.f32	s0, s0, s16
 237 0130 FFF7FEFF 		bl	buffer_append_float32_auto
 238              	.LVL14:
 239              		.loc 1 1605 0 discriminator 2
 240 0134 3B4B     		ldr	r3, .L21+48
 241 0136 2B44     		add	r3, r3, r5
 242 0138 01A9     		add	r1, sp, #4
 243 013a B3F8403A 		ldrh	r3, [r3, #2624]
 244 013e 1BB2     		sxth	r3, r3
 245 0140 00EE103A 		vmov	s0, r3	@ int
 246 0144 B8EEC00A 		vcvt.f32.s32	s0, s0
 247 0148 02A8     		add	r0, sp, #8
 248 014a 20EE090A 		vmul.f32	s0, s0, s18
 249 014e 20EE280A 		vmul.f32	s0, s0, s17
 250 0152 20EE080A 		vmul.f32	s0, s0, s16
 251 0156 FFF7FEFF 		bl	buffer_append_float32_auto
 252              	.LVL15:
 253              		.loc 1 1606 0 discriminator 2
 254 015a 334B     		ldr	r3, .L21+52
 255 015c 2B44     		add	r3, r3, r5
 256 015e 01A9     		add	r1, sp, #4
 257 0160 B3F8E838 		ldrh	r3, [r3, #2280]
 258 0164 1BB2     		sxth	r3, r3
 259 0166 07EE903A 		vmov	s15, r3	@ int
 260 016a B8EEE70A 		vcvt.f32.s32	s0, s15
 261 016e 02A8     		add	r0, sp, #8
 262 0170 80EE0A0A 		vdiv.f32	s0, s0, s20
 263 0174 FFF7FEFF 		bl	buffer_append_float32_auto
 264              	.LVL16:
 265              		.loc 1 1607 0 discriminator 2
 266 0178 2C4B     		ldr	r3, .L21+56
 267 017a 1D44     		add	r5, r5, r3
 268 017c 01A9     		add	r1, sp, #4
 269 017e B5F89037 		ldrh	r3, [r5, #1936]
 270 0182 1BB2     		sxth	r3, r3
 271 0184 02A8     		add	r0, sp, #8
 272 0186 07EE903A 		vmov	s15, r3	@ int
 273 018a F8EEE77A 		vcvt.f32.s32	s15, s15
 274 018e B2EE040A 		vmov.f32	s0, #1.0e+1
 275 0192 27EE800A 		vmul.f32	s0, s15, s0
 276 0196 FFF7FEFF 		bl	buffer_append_float32_auto
 277              	.LVL17:
 278              		.loc 1 1608 0 discriminator 2
 279 019a 254A     		ldr	r2, .L21+60
 280 019c 019B     		ldr	r3, [sp, #4]
 281 019e 1444     		add	r4, r4, r2
 282              	.LVL18:
 283 01a0 0CAA     		add	r2, sp, #48
 284 01a2 1A44     		add	r2, r2, r3
 285 01a4 94F83816 		ldrb	r1, [r4, #1592]	@ zero_extendqisi2
ARM GAS  /tmp/ccETYwEL.s 			page 6


 286 01a8 02F8281C 		strb	r1, [r2, #-40]
 287              		.loc 1 1609 0 discriminator 2
 288 01ac 0233     		adds	r3, r3, #2
 289 01ae 94F8084E 		ldrb	r4, [r4, #3592]	@ zero_extendqisi2
 290              	.LVL19:
 291 01b2 02F8274C 		strb	r4, [r2, #-39]
 292              		.loc 1 1611 0 discriminator 2
 293 01b6 1946     		mov	r1, r3
 294 01b8 02A8     		add	r0, sp, #8
 295              		.loc 1 1609 0 discriminator 2
 296 01ba 0193     		str	r3, [sp, #4]
 297              		.loc 1 1611 0 discriminator 2
 298 01bc FFF7FEFF 		bl	commands_send_packet
 299              	.LVL20:
 300              	.LBE127:
 301              		.loc 1 1586 0 discriminator 2
 302 01c0 4745     		cmp	r7, r8
 303 01c2 BFF637AF 		bge	.L13
 304              	.LBB128:
 305              		.loc 1 1591 0
 306 01c6 B9F5FA6F 		cmp	r9, #2000
 307              		.loc 1 1589 0
 308 01ca 4C46     		mov	r4, r9
 309              	.LVL21:
 310              		.loc 1 1591 0
 311 01cc BFF64FAF 		bge	.L8
 312              	.L7:
 313              		.loc 1 1595 0
 314 01d0 B9F1000F 		cmp	r9, #0
 315 01d4 BFF650AF 		bge	.L9
 316              	.L10:
 317              	.LVL22:
 318 01d8 14F5FA64 		adds	r4, r4, #2000
 319              	.LVL23:
 320 01dc FCD4     		bmi	.L10
 321 01de 4BE7     		b	.L9
 322              	.LVL24:
 323              	.L5:
 324              	.LBE128:
 325              	.LBE131:
 326              		.loc 1 1579 0
 327 01e0 144B     		ldr	r3, .L21+64
 328 01e2 0E4A     		ldr	r2, .L21+40
 329 01e4 1B68     		ldr	r3, [r3]
 330 01e6 1268     		ldr	r2, [r2]
 331              		.loc 1 1578 0
 332 01e8 4FF4FA68 		mov	r8, #2000
 333              		.loc 1 1579 0
 334 01ec A3EB0209 		sub	r9, r3, r2
 335              	.LVL25:
 336 01f0 36E7     		b	.L6
 337              	.L22:
 338 01f2 00BF     		.align	2
 339              	.L21:
 340 01f4 00000000 		.word	ch
 341 01f8 00000000 		.word	.LANCHOR0
 342 01fc 00000000 		.word	.LC0
ARM GAS  /tmp/ccETYwEL.s 			page 7


 343 0200 00000000 		.word	.LANCHOR4
 344 0204 500AA53D 		.word	1034226256
 345 0208 00008039 		.word	964689920
 346 020c 33335340 		.word	1079194419
 347 0210 74D19541 		.word	1100337524
 348 0214 A48BC642 		.word	1120308132
 349 0218 00000000 		.word	.LANCHOR1
 350 021c 00000000 		.word	.LANCHOR2
 351 0220 E8320000 		.word	.LANCHOR7
 352 0224 E0430000 		.word	.LANCHOR8
 353 0228 D8540000 		.word	.LANCHOR9
 354 022c D0650000 		.word	.LANCHOR10
 355 0230 C8760000 		.word	.LANCHOR11
 356 0234 00000000 		.word	.LANCHOR3
 357 0238 F8100000 		.word	.LANCHOR5
 358 023c F0210000 		.word	.LANCHOR6
 359              	.LBE133:
 360              		.cfi_endproc
 361              	.LFE312:
 362              		.size	sample_send_thread, .-sample_send_thread
 363              		.section	.text.mc_interface_set_handbrake.part.3,"ax",%progbits
 364              		.align	1
 365              		.p2align 4,,15
 366              		.syntax unified
 367              		.thumb
 368              		.thumb_func
 369              		.fpu fpv4-sp-d16
 370              		.type	mc_interface_set_handbrake.part.3, %function
 371              	mc_interface_set_handbrake.part.3:
 372              	.LFB316:
 373              		.loc 1 482 0
 374              		.cfi_startproc
 375              		@ args = 0, pretend = 0, frame = 0
 376              		@ frame_needed = 0, uses_anonymous_args = 0
 377              		@ link register save eliminated.
 378              	.LVL26:
 379              		.loc 1 487 0
 380 0000 054B     		ldr	r3, .L29
 381 0002 9B78     		ldrb	r3, [r3, #2]	@ zero_extendqisi2
 382 0004 DBB2     		uxtb	r3, r3
 383 0006 012B     		cmp	r3, #1
 384 0008 04D9     		bls	.L25
 385 000a 022B     		cmp	r3, #2
 386 000c 01D1     		bne	.L28
 387              		.loc 1 495 0
 388 000e FFF7FEBF 		b	mcpwm_foc_set_handbrake
 389              	.LVL27:
 390              	.L28:
 391 0012 7047     		bx	lr
 392              	.L25:
 393              		.loc 1 491 0
 394 0014 FFF7FEBF 		b	mcpwm_set_brake_current
 395              	.LVL28:
 396              	.L30:
 397              		.align	2
 398              	.L29:
 399 0018 00000000 		.word	.LANCHOR12
ARM GAS  /tmp/ccETYwEL.s 			page 8


 400              		.cfi_endproc
 401              	.LFE316:
 402              		.size	mc_interface_set_handbrake.part.3, .-mc_interface_set_handbrake.part.3
 403              		.section	.text.mc_interface_init,"ax",%progbits
 404              		.align	1
 405              		.p2align 4,,15
 406              		.global	mc_interface_init
 407              		.syntax unified
 408              		.thumb
 409              		.thumb_func
 410              		.fpu fpv4-sp-d16
 411              		.type	mc_interface_init, %function
 412              	mc_interface_init:
 413              	.LFB256:
 414              		.loc 1 100 0
 415              		.cfi_startproc
 416              		@ args = 0, pretend = 0, frame = 0
 417              		@ frame_needed = 0, uses_anonymous_args = 0
 418              	.LVL29:
 419 0000 F0B5     		push	{r4, r5, r6, r7, lr}
 420              		.cfi_def_cfa_offset 20
 421              		.cfi_offset 4, -20
 422              		.cfi_offset 5, -16
 423              		.cfi_offset 6, -12
 424              		.cfi_offset 7, -8
 425              		.cfi_offset 14, -4
 426              		.loc 1 101 0
 427 0002 3D4D     		ldr	r5, .L42
 428              		.loc 1 107 0
 429 0004 3D4E     		ldr	r6, .L42+4
 430              		.loc 1 124 0
 431 0006 3E4F     		ldr	r7, .L42+8
 432              		.loc 1 100 0
 433 0008 83B0     		sub	sp, sp, #12
 434              		.cfi_def_cfa_offset 32
 435              		.loc 1 101 0
 436 000a 0146     		mov	r1, r0
 437 000c 4FF4C272 		mov	r2, #388
 438 0010 2846     		mov	r0, r5
 439              	.LVL30:
 440 0012 FFF7FEFF 		bl	memcpy
 441              	.LVL31:
 442              		.loc 1 104 0
 443 0016 3B48     		ldr	r0, .L42+12
 444              		.loc 1 105 0
 445 0018 3B49     		ldr	r1, .L42+16
 446              		.loc 1 106 0
 447 001a 3C4A     		ldr	r2, .L42+20
 448              		.loc 1 102 0
 449 001c 0024     		movs	r4, #0
 450              		.loc 1 132 0
 451 001e 0094     		str	r4, [sp]
 452              		.loc 1 104 0
 453 0020 0460     		str	r4, [r0]
 454              		.loc 1 108 0
 455 0022 3B48     		ldr	r0, .L42+24
 456              		.loc 1 105 0
ARM GAS  /tmp/ccETYwEL.s 			page 9


 457 0024 0C70     		strb	r4, [r1]
 458              		.loc 1 107 0
 459 0026 0023     		movs	r3, #0
 460              		.loc 1 106 0
 461 0028 1470     		strb	r4, [r2]
 462              		.loc 1 109 0
 463 002a 3A49     		ldr	r1, .L42+28
 464              		.loc 1 110 0
 465 002c 3A4A     		ldr	r2, .L42+32
 466              		.loc 1 107 0
 467 002e 3360     		str	r3, [r6]	@ float
 468              		.loc 1 108 0
 469 0030 0360     		str	r3, [r0]	@ float
 470              		.loc 1 111 0
 471 0032 3A4E     		ldr	r6, .L42+36
 472              		.loc 1 112 0
 473 0034 3A48     		ldr	r0, .L42+40
 474              		.loc 1 109 0
 475 0036 0B60     		str	r3, [r1]	@ float
 476              		.loc 1 110 0
 477 0038 1360     		str	r3, [r2]	@ float
 478              		.loc 1 113 0
 479 003a 3A49     		ldr	r1, .L42+44
 480              		.loc 1 114 0
 481 003c 3A4A     		ldr	r2, .L42+48
 482              		.loc 1 111 0
 483 003e 3360     		str	r3, [r6]	@ float
 484              		.loc 1 112 0
 485 0040 0360     		str	r3, [r0]	@ float
 486              		.loc 1 115 0
 487 0042 3A4E     		ldr	r6, .L42+52
 488              		.loc 1 116 0
 489 0044 3A48     		ldr	r0, .L42+56
 490              		.loc 1 113 0
 491 0046 0B60     		str	r3, [r1]	@ float
 492              		.loc 1 114 0
 493 0048 1360     		str	r3, [r2]	@ float
 494              		.loc 1 117 0
 495 004a 3A49     		ldr	r1, .L42+60
 496              		.loc 1 118 0
 497 004c 3A4A     		ldr	r2, .L42+64
 498              		.loc 1 115 0
 499 004e 3360     		str	r3, [r6]	@ float
 500              		.loc 1 116 0
 501 0050 0360     		str	r3, [r0]	@ float
 502              		.loc 1 119 0
 503 0052 3A4E     		ldr	r6, .L42+68
 504              		.loc 1 120 0
 505 0054 3A48     		ldr	r0, .L42+72
 506              		.loc 1 117 0
 507 0056 0B60     		str	r3, [r1]	@ float
 508              		.loc 1 118 0
 509 0058 1360     		str	r3, [r2]	@ float
 510              		.loc 1 121 0
 511 005a 3A49     		ldr	r1, .L42+76
 512              		.loc 1 122 0
 513 005c 3A4A     		ldr	r2, .L42+80
ARM GAS  /tmp/ccETYwEL.s 			page 10


 514              		.loc 1 119 0
 515 005e 3360     		str	r3, [r6]	@ float
 516              		.loc 1 124 0
 517 0060 4FF47A7C 		mov	ip, #1000
 518              		.loc 1 120 0
 519 0064 0360     		str	r3, [r0]	@ float
 520              		.loc 1 126 0
 521 0066 394E     		ldr	r6, .L42+84
 522              		.loc 1 125 0
 523 0068 3948     		ldr	r0, .L42+88
 524              		.loc 1 121 0
 525 006a 0B60     		str	r3, [r1]	@ float
 526              		.loc 1 122 0
 527 006c 1360     		str	r3, [r2]	@ float
 528              		.loc 1 124 0
 529 006e C7F800C0 		str	ip, [r7]
 530              		.loc 1 125 0
 531 0072 0127     		movs	r7, #1
 532 0074 0760     		str	r7, [r0]
 533              		.loc 1 127 0
 534 0076 374B     		ldr	r3, .L42+92
 535              		.loc 1 126 0
 536 0078 3460     		str	r4, [r6]
 537              		.loc 1 128 0
 538 007a 374A     		ldr	r2, .L42+96
 539              		.loc 1 102 0
 540 007c 3749     		ldr	r1, .L42+100
 541              		.loc 1 103 0
 542 007e 3848     		ldr	r0, .L42+104
 543              		.loc 1 129 0
 544 0080 384E     		ldr	r6, .L42+108
 545              		.loc 1 127 0
 546 0082 1C60     		str	r4, [r3]
 547              		.loc 1 102 0
 548 0084 0C70     		strb	r4, [r1]
 549              		.loc 1 128 0
 550 0086 1470     		strb	r4, [r2]
 551              		.loc 1 132 0
 552 0088 374B     		ldr	r3, .L42+112
 553              		.loc 1 103 0
 554 008a 0460     		str	r4, [r0]
 555              		.loc 1 132 0
 556 008c 4022     		movs	r2, #64
 557 008e 4FF4B361 		mov	r1, #1432
 558 0092 3648     		ldr	r0, .L42+116
 559              		.loc 1 129 0
 560 0094 3470     		strb	r4, [r6]
 561              		.loc 1 132 0
 562 0096 FFF7FEFF 		bl	chThdCreateStatic
 563              	.LVL32:
 564              		.loc 1 133 0
 565 009a 354B     		ldr	r3, .L42+120
 566 009c 0094     		str	r4, [sp]
 567 009e 3548     		ldr	r0, .L42+124
 568 00a0 3F22     		movs	r2, #63
 569 00a2 4FF4B361 		mov	r1, #1432
 570 00a6 FFF7FEFF 		bl	chThdCreateStatic
ARM GAS  /tmp/ccETYwEL.s 			page 11


 571              	.LVL33:
 572              		.loc 1 145 0
 573 00aa 95F86831 		ldrb	r3, [r5, #360]	@ zero_extendqisi2
 574 00ae DBB2     		uxtb	r3, r3
 575 00b0 BB42     		cmp	r3, r7
 576 00b2 1BD0     		beq	.L33
 577 00b4 022B     		cmp	r3, #2
 578 00b6 0BD0     		beq	.L34
 579              	.L32:
 580              		.loc 1 160 0
 581 00b8 AB78     		ldrb	r3, [r5, #2]	@ zero_extendqisi2
 582 00ba DBB2     		uxtb	r3, r3
 583 00bc 012B     		cmp	r3, #1
 584 00be 0DD9     		bls	.L36
 585              	.L41:
 586 00c0 022B     		cmp	r3, #2
 587 00c2 11D1     		bne	.L40
 588              		.loc 1 167 0
 589 00c4 0C48     		ldr	r0, .L42
 590              		.loc 1 173 0
 591 00c6 03B0     		add	sp, sp, #12
 592              		.cfi_remember_state
 593              		.cfi_def_cfa_offset 20
 594              		@ sp needed
 595 00c8 BDE8F040 		pop	{r4, r5, r6, r7, lr}
 596              		.cfi_restore 14
 597              		.cfi_restore 7
 598              		.cfi_restore 6
 599              		.cfi_restore 5
 600              		.cfi_restore 4
 601              		.cfi_def_cfa_offset 0
 602              		.loc 1 167 0
 603 00cc FFF7FEBF 		b	mcpwm_foc_init
 604              	.LVL34:
 605              	.L34:
 606              		.cfi_restore_state
 607              		.loc 1 151 0
 608 00d0 FFF7FEFF 		bl	encoder_init_as5047p_spi
 609              	.LVL35:
 610              		.loc 1 160 0
 611 00d4 AB78     		ldrb	r3, [r5, #2]	@ zero_extendqisi2
 612 00d6 DBB2     		uxtb	r3, r3
 613 00d8 012B     		cmp	r3, #1
 614 00da F1D8     		bhi	.L41
 615              	.L36:
 616              		.loc 1 163 0
 617 00dc 0648     		ldr	r0, .L42
 618              		.loc 1 173 0
 619 00de 03B0     		add	sp, sp, #12
 620              		.cfi_remember_state
 621              		.cfi_def_cfa_offset 20
 622              		@ sp needed
 623 00e0 BDE8F040 		pop	{r4, r5, r6, r7, lr}
 624              		.cfi_restore 14
 625              		.cfi_restore 7
 626              		.cfi_restore 6
 627              		.cfi_restore 5
ARM GAS  /tmp/ccETYwEL.s 			page 12


 628              		.cfi_restore 4
 629              		.cfi_def_cfa_offset 0
 630              		.loc 1 163 0
 631 00e4 FFF7FEBF 		b	mcpwm_init
 632              	.LVL36:
 633              	.L40:
 634              		.cfi_restore_state
 635              		.loc 1 173 0
 636 00e8 03B0     		add	sp, sp, #12
 637              		.cfi_remember_state
 638              		.cfi_def_cfa_offset 20
 639              		@ sp needed
 640 00ea F0BD     		pop	{r4, r5, r6, r7, pc}
 641              	.L33:
 642              		.cfi_restore_state
 643              		.loc 1 147 0
 644 00ec D5F86401 		ldr	r0, [r5, #356]
 645 00f0 FFF7FEFF 		bl	encoder_init_abi
 646              	.LVL37:
 647              		.loc 1 148 0
 648 00f4 E0E7     		b	.L32
 649              	.L43:
 650 00f6 00BF     		.align	2
 651              	.L42:
 652 00f8 00000000 		.word	.LANCHOR12
 653 00fc 00000000 		.word	.LANCHOR18
 654 0100 00000000 		.word	.LANCHOR2
 655 0104 00000000 		.word	.LANCHOR15
 656 0108 00000000 		.word	.LANCHOR16
 657 010c 00000000 		.word	.LANCHOR17
 658 0110 00000000 		.word	.LANCHOR19
 659 0114 00000000 		.word	.LANCHOR20
 660 0118 00000000 		.word	.LANCHOR21
 661 011c 00000000 		.word	.LANCHOR22
 662 0120 00000000 		.word	.LANCHOR23
 663 0124 00000000 		.word	.LANCHOR24
 664 0128 00000000 		.word	.LANCHOR25
 665 012c 00000000 		.word	.LANCHOR26
 666 0130 00000000 		.word	.LANCHOR27
 667 0134 00000000 		.word	.LANCHOR28
 668 0138 00000000 		.word	.LANCHOR29
 669 013c 00000000 		.word	.LANCHOR30
 670 0140 00000000 		.word	.LANCHOR31
 671 0144 00000000 		.word	.LANCHOR32
 672 0148 00000000 		.word	.LANCHOR33
 673 014c 00000000 		.word	.LANCHOR35
 674 0150 00000000 		.word	.LANCHOR34
 675 0154 00000000 		.word	.LANCHOR3
 676 0158 00000000 		.word	.LANCHOR36
 677 015c 00000000 		.word	.LANCHOR13
 678 0160 00000000 		.word	.LANCHOR14
 679 0164 00000000 		.word	.LANCHOR1
 680 0168 00000000 		.word	timer_thread
 681 016c 00000000 		.word	.LANCHOR37
 682 0170 00000000 		.word	sample_send_thread
 683 0174 00000000 		.word	.LANCHOR38
 684              		.cfi_endproc
ARM GAS  /tmp/ccETYwEL.s 			page 13


 685              	.LFE256:
 686              		.size	mc_interface_init, .-mc_interface_init
 687              		.section	.text.mc_interface_get_configuration,"ax",%progbits
 688              		.align	1
 689              		.p2align 4,,15
 690              		.global	mc_interface_get_configuration
 691              		.syntax unified
 692              		.thumb
 693              		.thumb_func
 694              		.fpu fpv4-sp-d16
 695              		.type	mc_interface_get_configuration, %function
 696              	mc_interface_get_configuration:
 697              	.LFB257:
 698              		.loc 1 175 0
 699              		.cfi_startproc
 700              		@ args = 0, pretend = 0, frame = 0
 701              		@ frame_needed = 0, uses_anonymous_args = 0
 702              		@ link register save eliminated.
 703              		.loc 1 177 0
 704 0000 0048     		ldr	r0, .L45
 705 0002 7047     		bx	lr
 706              	.L46:
 707              		.align	2
 708              	.L45:
 709 0004 00000000 		.word	.LANCHOR12
 710              		.cfi_endproc
 711              	.LFE257:
 712              		.size	mc_interface_get_configuration, .-mc_interface_get_configuration
 713              		.section	.text.mc_interface_dccal_done,"ax",%progbits
 714              		.align	1
 715              		.p2align 4,,15
 716              		.global	mc_interface_dccal_done
 717              		.syntax unified
 718              		.thumb
 719              		.thumb_func
 720              		.fpu fpv4-sp-d16
 721              		.type	mc_interface_dccal_done, %function
 722              	mc_interface_dccal_done:
 723              	.LFB259:
 724              		.loc 1 241 0
 725              		.cfi_startproc
 726              		@ args = 0, pretend = 0, frame = 0
 727              		@ frame_needed = 0, uses_anonymous_args = 0
 728              		@ link register save eliminated.
 729              	.LVL38:
 730              		.loc 1 243 0
 731 0000 064B     		ldr	r3, .L53
 732 0002 9B78     		ldrb	r3, [r3, #2]	@ zero_extendqisi2
 733 0004 DBB2     		uxtb	r3, r3
 734 0006 012B     		cmp	r3, #1
 735 0008 05D9     		bls	.L49
 736 000a 022B     		cmp	r3, #2
 737 000c 01D1     		bne	.L52
 738              		.loc 1 250 0
 739 000e FFF7FEBF 		b	mcpwm_foc_is_dccal_done
 740              	.LVL39:
 741              	.L52:
ARM GAS  /tmp/ccETYwEL.s 			page 14


 742              		.loc 1 258 0
 743 0012 0020     		movs	r0, #0
 744 0014 7047     		bx	lr
 745              	.L49:
 746              		.loc 1 246 0
 747 0016 FFF7FEBF 		b	mcpwm_is_dccal_done
 748              	.LVL40:
 749              	.L54:
 750 001a 00BF     		.align	2
 751              	.L53:
 752 001c 00000000 		.word	.LANCHOR12
 753              		.cfi_endproc
 754              	.LFE259:
 755              		.size	mc_interface_dccal_done, .-mc_interface_dccal_done
 756              		.section	.text.mc_interface_set_pwm_callback,"ax",%progbits
 757              		.align	1
 758              		.p2align 4,,15
 759              		.global	mc_interface_set_pwm_callback
 760              		.syntax unified
 761              		.thumb
 762              		.thumb_func
 763              		.fpu fpv4-sp-d16
 764              		.type	mc_interface_set_pwm_callback, %function
 765              	mc_interface_set_pwm_callback:
 766              	.LFB260:
 767              		.loc 1 266 0
 768              		.cfi_startproc
 769              		@ args = 0, pretend = 0, frame = 0
 770              		@ frame_needed = 0, uses_anonymous_args = 0
 771              		@ link register save eliminated.
 772              	.LVL41:
 773              		.loc 1 267 0
 774 0000 014B     		ldr	r3, .L56
 775 0002 1860     		str	r0, [r3]
 776              		.loc 1 268 0
 777 0004 7047     		bx	lr
 778              	.L57:
 779 0006 00BF     		.align	2
 780              	.L56:
 781 0008 00000000 		.word	.LANCHOR39
 782              		.cfi_endproc
 783              	.LFE260:
 784              		.size	mc_interface_set_pwm_callback, .-mc_interface_set_pwm_callback
 785              		.section	.text.mc_interface_lock,"ax",%progbits
 786              		.align	1
 787              		.p2align 4,,15
 788              		.global	mc_interface_lock
 789              		.syntax unified
 790              		.thumb
 791              		.thumb_func
 792              		.fpu fpv4-sp-d16
 793              		.type	mc_interface_lock, %function
 794              	mc_interface_lock:
 795              	.LFB261:
 796              		.loc 1 273 0
 797              		.cfi_startproc
 798              		@ args = 0, pretend = 0, frame = 0
ARM GAS  /tmp/ccETYwEL.s 			page 15


 799              		@ frame_needed = 0, uses_anonymous_args = 0
 800              		@ link register save eliminated.
 801              		.loc 1 274 0
 802 0000 014B     		ldr	r3, .L59
 803 0002 0122     		movs	r2, #1
 804 0004 1A70     		strb	r2, [r3]
 805              		.loc 1 275 0
 806 0006 7047     		bx	lr
 807              	.L60:
 808              		.align	2
 809              	.L59:
 810 0008 00000000 		.word	.LANCHOR16
 811              		.cfi_endproc
 812              	.LFE261:
 813              		.size	mc_interface_lock, .-mc_interface_lock
 814              		.section	.text.mc_interface_unlock,"ax",%progbits
 815              		.align	1
 816              		.p2align 4,,15
 817              		.global	mc_interface_unlock
 818              		.syntax unified
 819              		.thumb
 820              		.thumb_func
 821              		.fpu fpv4-sp-d16
 822              		.type	mc_interface_unlock, %function
 823              	mc_interface_unlock:
 824              	.LFB262:
 825              		.loc 1 280 0
 826              		.cfi_startproc
 827              		@ args = 0, pretend = 0, frame = 0
 828              		@ frame_needed = 0, uses_anonymous_args = 0
 829              		@ link register save eliminated.
 830              		.loc 1 281 0
 831 0000 014B     		ldr	r3, .L62
 832 0002 0022     		movs	r2, #0
 833 0004 1A70     		strb	r2, [r3]
 834              		.loc 1 282 0
 835 0006 7047     		bx	lr
 836              	.L63:
 837              		.align	2
 838              	.L62:
 839 0008 00000000 		.word	.LANCHOR16
 840              		.cfi_endproc
 841              	.LFE262:
 842              		.size	mc_interface_unlock, .-mc_interface_unlock
 843              		.section	.text.mc_interface_lock_override_once,"ax",%progbits
 844              		.align	1
 845              		.p2align 4,,15
 846              		.global	mc_interface_lock_override_once
 847              		.syntax unified
 848              		.thumb
 849              		.thumb_func
 850              		.fpu fpv4-sp-d16
 851              		.type	mc_interface_lock_override_once, %function
 852              	mc_interface_lock_override_once:
 853              	.LFB263:
 854              		.loc 1 287 0
 855              		.cfi_startproc
ARM GAS  /tmp/ccETYwEL.s 			page 16


 856              		@ args = 0, pretend = 0, frame = 0
 857              		@ frame_needed = 0, uses_anonymous_args = 0
 858              		@ link register save eliminated.
 859              		.loc 1 288 0
 860 0000 014B     		ldr	r3, .L65
 861 0002 0122     		movs	r2, #1
 862 0004 1A70     		strb	r2, [r3]
 863              		.loc 1 289 0
 864 0006 7047     		bx	lr
 865              	.L66:
 866              		.align	2
 867              	.L65:
 868 0008 00000000 		.word	.LANCHOR17
 869              		.cfi_endproc
 870              	.LFE263:
 871              		.size	mc_interface_lock_override_once, .-mc_interface_lock_override_once
 872              		.section	.text.mc_interface_get_fault,"ax",%progbits
 873              		.align	1
 874              		.p2align 4,,15
 875              		.global	mc_interface_get_fault
 876              		.syntax unified
 877              		.thumb
 878              		.thumb_func
 879              		.fpu fpv4-sp-d16
 880              		.type	mc_interface_get_fault, %function
 881              	mc_interface_get_fault:
 882              	.LFB264:
 883              		.loc 1 291 0
 884              		.cfi_startproc
 885              		@ args = 0, pretend = 0, frame = 0
 886              		@ frame_needed = 0, uses_anonymous_args = 0
 887              		@ link register save eliminated.
 888              		.loc 1 292 0
 889 0000 014B     		ldr	r3, .L68
 890              		.loc 1 293 0
 891 0002 1878     		ldrb	r0, [r3]	@ zero_extendqisi2
 892 0004 7047     		bx	lr
 893              	.L69:
 894 0006 00BF     		.align	2
 895              	.L68:
 896 0008 00000000 		.word	.LANCHOR13
 897              		.cfi_endproc
 898              	.LFE264:
 899              		.size	mc_interface_get_fault, .-mc_interface_get_fault
 900              		.section	.text.mc_interface_fault_to_string,"ax",%progbits
 901              		.align	1
 902              		.p2align 4,,15
 903              		.global	mc_interface_fault_to_string
 904              		.syntax unified
 905              		.thumb
 906              		.thumb_func
 907              		.fpu fpv4-sp-d16
 908              		.type	mc_interface_fault_to_string, %function
 909              	mc_interface_fault_to_string:
 910              	.LFB265:
 911              		.loc 1 295 0
 912              		.cfi_startproc
ARM GAS  /tmp/ccETYwEL.s 			page 17


 913              		@ args = 0, pretend = 0, frame = 0
 914              		@ frame_needed = 0, uses_anonymous_args = 0
 915              		@ link register save eliminated.
 916              	.LVL42:
 917 0000 0628     		cmp	r0, #6
 918 0002 9ABF     		itte	ls
 919 0004 024B     		ldrls	r3, .L73
 920 0006 53F82000 		ldrls	r0, [r3, r0, lsl #2]
 921              	.LVL43:
 922              		.loc 1 295 0
 923 000a 0248     		ldrhi	r0, .L73+4
 924              		.loc 1 306 0
 925 000c 7047     		bx	lr
 926              	.L74:
 927 000e 00BF     		.align	2
 928              	.L73:
 929 0010 00000000 		.word	.LANCHOR40
 930 0014 00000000 		.word	.LC1
 931              		.cfi_endproc
 932              	.LFE265:
 933              		.size	mc_interface_fault_to_string, .-mc_interface_fault_to_string
 934              		.section	.text.mc_interface_get_state,"ax",%progbits
 935              		.align	1
 936              		.p2align 4,,15
 937              		.global	mc_interface_get_state
 938              		.syntax unified
 939              		.thumb
 940              		.thumb_func
 941              		.fpu fpv4-sp-d16
 942              		.type	mc_interface_get_state, %function
 943              	mc_interface_get_state:
 944              	.LFB266:
 945              		.loc 1 308 0
 946              		.cfi_startproc
 947              		@ args = 0, pretend = 0, frame = 0
 948              		@ frame_needed = 0, uses_anonymous_args = 0
 949              		@ link register save eliminated.
 950              	.LVL44:
 951              		.loc 1 310 0
 952 0000 064B     		ldr	r3, .L81
 953 0002 9B78     		ldrb	r3, [r3, #2]	@ zero_extendqisi2
 954 0004 DBB2     		uxtb	r3, r3
 955 0006 012B     		cmp	r3, #1
 956 0008 05D9     		bls	.L77
 957 000a 022B     		cmp	r3, #2
 958 000c 01D1     		bne	.L80
 959              		.loc 1 317 0
 960 000e FFF7FEBF 		b	mcpwm_foc_get_state
 961              	.LVL45:
 962              	.L80:
 963              		.loc 1 325 0
 964 0012 0020     		movs	r0, #0
 965 0014 7047     		bx	lr
 966              	.L77:
 967              		.loc 1 313 0
 968 0016 FFF7FEBF 		b	mcpwm_get_state
 969              	.LVL46:
ARM GAS  /tmp/ccETYwEL.s 			page 18


 970              	.L82:
 971 001a 00BF     		.align	2
 972              	.L81:
 973 001c 00000000 		.word	.LANCHOR12
 974              		.cfi_endproc
 975              	.LFE266:
 976              		.size	mc_interface_get_state, .-mc_interface_get_state
 977              		.section	.text.mc_interface_get_duty_cycle_set,"ax",%progbits
 978              		.align	1
 979              		.p2align 4,,15
 980              		.global	mc_interface_get_duty_cycle_set
 981              		.syntax unified
 982              		.thumb
 983              		.thumb_func
 984              		.fpu fpv4-sp-d16
 985              		.type	mc_interface_get_duty_cycle_set, %function
 986              	mc_interface_get_duty_cycle_set:
 987              	.LFB279:
 988              		.loc 1 527 0
 989              		.cfi_startproc
 990              		@ args = 0, pretend = 0, frame = 0
 991              		@ frame_needed = 0, uses_anonymous_args = 0
 992              	.LVL47:
 993 0000 10B5     		push	{r4, lr}
 994              		.cfi_def_cfa_offset 8
 995              		.cfi_offset 4, -8
 996              		.cfi_offset 14, -4
 997              		.loc 1 530 0
 998 0002 0B4C     		ldr	r4, .L95
 999 0004 A378     		ldrb	r3, [r4, #2]	@ zero_extendqisi2
 1000 0006 DBB2     		uxtb	r3, r3
 1001 0008 012B     		cmp	r3, #1
 1002 000a 0DD9     		bls	.L85
 1003 000c 022B     		cmp	r3, #2
 1004 000e 08D0     		beq	.L86
 1005              		.loc 1 528 0
 1006 0010 9FED080A 		vldr.32	s0, .L95+4
 1007              	.LVL48:
 1008              	.L84:
 1009              		.loc 1 544 0
 1010 0014 94F86931 		ldrb	r3, [r4, #361]	@ zero_extendqisi2
 1011 0018 03B9     		cbnz	r3, .L94
 1012              		.loc 1 545 0
 1013 001a 10BD     		pop	{r4, pc}
 1014              	.L94:
 1015 001c B1EE400A 		vneg.f32	s0, s0
 1016              	.LVL49:
 1017 0020 10BD     		pop	{r4, pc}
 1018              	.LVL50:
 1019              	.L86:
 1020              		.loc 1 537 0
 1021 0022 FFF7FEFF 		bl	mcpwm_foc_get_duty_cycle_set
 1022              	.LVL51:
 1023              		.loc 1 538 0
 1024 0026 F5E7     		b	.L84
 1025              	.LVL52:
 1026              	.L85:
ARM GAS  /tmp/ccETYwEL.s 			page 19


 1027              		.loc 1 533 0
 1028 0028 FFF7FEFF 		bl	mcpwm_get_duty_cycle_set
 1029              	.LVL53:
 1030              		.loc 1 534 0
 1031 002c F2E7     		b	.L84
 1032              	.L96:
 1033 002e 00BF     		.align	2
 1034              	.L95:
 1035 0030 00000000 		.word	.LANCHOR12
 1036 0034 00000000 		.word	0
 1037              		.cfi_endproc
 1038              	.LFE279:
 1039              		.size	mc_interface_get_duty_cycle_set, .-mc_interface_get_duty_cycle_set
 1040              		.section	.text.mc_interface_get_duty_cycle_now,"ax",%progbits
 1041              		.align	1
 1042              		.p2align 4,,15
 1043              		.global	mc_interface_get_duty_cycle_now
 1044              		.syntax unified
 1045              		.thumb
 1046              		.thumb_func
 1047              		.fpu fpv4-sp-d16
 1048              		.type	mc_interface_get_duty_cycle_now, %function
 1049              	mc_interface_get_duty_cycle_now:
 1050              	.LFB280:
 1051              		.loc 1 547 0
 1052              		.cfi_startproc
 1053              		@ args = 0, pretend = 0, frame = 0
 1054              		@ frame_needed = 0, uses_anonymous_args = 0
 1055              	.LVL54:
 1056 0000 10B5     		push	{r4, lr}
 1057              		.cfi_def_cfa_offset 8
 1058              		.cfi_offset 4, -8
 1059              		.cfi_offset 14, -4
 1060              		.loc 1 550 0
 1061 0002 0B4C     		ldr	r4, .L109
 1062 0004 A378     		ldrb	r3, [r4, #2]	@ zero_extendqisi2
 1063 0006 DBB2     		uxtb	r3, r3
 1064 0008 012B     		cmp	r3, #1
 1065 000a 0DD9     		bls	.L99
 1066 000c 022B     		cmp	r3, #2
 1067 000e 08D0     		beq	.L100
 1068              		.loc 1 548 0
 1069 0010 9FED080A 		vldr.32	s0, .L109+4
 1070              	.LVL55:
 1071              	.L98:
 1072              		.loc 1 564 0
 1073 0014 94F86931 		ldrb	r3, [r4, #361]	@ zero_extendqisi2
 1074 0018 03B9     		cbnz	r3, .L108
 1075              		.loc 1 565 0
 1076 001a 10BD     		pop	{r4, pc}
 1077              	.L108:
 1078 001c B1EE400A 		vneg.f32	s0, s0
 1079              	.LVL56:
 1080 0020 10BD     		pop	{r4, pc}
 1081              	.LVL57:
 1082              	.L100:
 1083              		.loc 1 557 0
ARM GAS  /tmp/ccETYwEL.s 			page 20


 1084 0022 FFF7FEFF 		bl	mcpwm_foc_get_duty_cycle_now
 1085              	.LVL58:
 1086              		.loc 1 558 0
 1087 0026 F5E7     		b	.L98
 1088              	.LVL59:
 1089              	.L99:
 1090              		.loc 1 553 0
 1091 0028 FFF7FEFF 		bl	mcpwm_get_duty_cycle_now
 1092              	.LVL60:
 1093              		.loc 1 554 0
 1094 002c F2E7     		b	.L98
 1095              	.L110:
 1096 002e 00BF     		.align	2
 1097              	.L109:
 1098 0030 00000000 		.word	.LANCHOR12
 1099 0034 00000000 		.word	0
 1100              		.cfi_endproc
 1101              	.LFE280:
 1102              		.size	mc_interface_get_duty_cycle_now, .-mc_interface_get_duty_cycle_now
 1103              		.section	.text.mc_interface_get_sampling_frequency_now,"ax",%progbits
 1104              		.align	1
 1105              		.p2align 4,,15
 1106              		.global	mc_interface_get_sampling_frequency_now
 1107              		.syntax unified
 1108              		.thumb
 1109              		.thumb_func
 1110              		.fpu fpv4-sp-d16
 1111              		.type	mc_interface_get_sampling_frequency_now, %function
 1112              	mc_interface_get_sampling_frequency_now:
 1113              	.LFB281:
 1114              		.loc 1 567 0
 1115              		.cfi_startproc
 1116              		@ args = 0, pretend = 0, frame = 0
 1117              		@ frame_needed = 0, uses_anonymous_args = 0
 1118              		@ link register save eliminated.
 1119              	.LVL61:
 1120              		.loc 1 570 0
 1121 0000 064B     		ldr	r3, .L117
 1122 0002 9B78     		ldrb	r3, [r3, #2]	@ zero_extendqisi2
 1123 0004 DBB2     		uxtb	r3, r3
 1124 0006 012B     		cmp	r3, #1
 1125 0008 06D9     		bls	.L113
 1126 000a 022B     		cmp	r3, #2
 1127 000c 01D1     		bne	.L116
 1128              		.loc 1 577 0
 1129 000e FFF7FEBF 		b	mcpwm_foc_get_sampling_frequency_now
 1130              	.LVL62:
 1131              	.L116:
 1132              		.loc 1 585 0
 1133 0012 9FED030A 		vldr.32	s0, .L117+4
 1134 0016 7047     		bx	lr
 1135              	.L113:
 1136              		.loc 1 573 0
 1137 0018 FFF7FEBF 		b	mcpwm_get_switching_frequency_now
 1138              	.LVL63:
 1139              	.L118:
 1140              		.align	2
ARM GAS  /tmp/ccETYwEL.s 			page 21


 1141              	.L117:
 1142 001c 00000000 		.word	.LANCHOR12
 1143 0020 00000000 		.word	0
 1144              		.cfi_endproc
 1145              	.LFE281:
 1146              		.size	mc_interface_get_sampling_frequency_now, .-mc_interface_get_sampling_frequency_now
 1147              		.section	.text.mc_interface_get_rpm,"ax",%progbits
 1148              		.align	1
 1149              		.p2align 4,,15
 1150              		.global	mc_interface_get_rpm
 1151              		.syntax unified
 1152              		.thumb
 1153              		.thumb_func
 1154              		.fpu fpv4-sp-d16
 1155              		.type	mc_interface_get_rpm, %function
 1156              	mc_interface_get_rpm:
 1157              	.LFB282:
 1158              		.loc 1 587 0
 1159              		.cfi_startproc
 1160              		@ args = 0, pretend = 0, frame = 0
 1161              		@ frame_needed = 0, uses_anonymous_args = 0
 1162              	.LVL64:
 1163 0000 10B5     		push	{r4, lr}
 1164              		.cfi_def_cfa_offset 8
 1165              		.cfi_offset 4, -8
 1166              		.cfi_offset 14, -4
 1167              		.loc 1 590 0
 1168 0002 0B4C     		ldr	r4, .L131
 1169 0004 A378     		ldrb	r3, [r4, #2]	@ zero_extendqisi2
 1170 0006 DBB2     		uxtb	r3, r3
 1171 0008 012B     		cmp	r3, #1
 1172 000a 0DD9     		bls	.L121
 1173 000c 022B     		cmp	r3, #2
 1174 000e 08D0     		beq	.L122
 1175              		.loc 1 588 0
 1176 0010 9FED080A 		vldr.32	s0, .L131+4
 1177              	.LVL65:
 1178              	.L120:
 1179              		.loc 1 604 0
 1180 0014 94F86931 		ldrb	r3, [r4, #361]	@ zero_extendqisi2
 1181 0018 03B9     		cbnz	r3, .L130
 1182              		.loc 1 605 0
 1183 001a 10BD     		pop	{r4, pc}
 1184              	.L130:
 1185 001c B1EE400A 		vneg.f32	s0, s0
 1186              	.LVL66:
 1187 0020 10BD     		pop	{r4, pc}
 1188              	.LVL67:
 1189              	.L122:
 1190              		.loc 1 597 0
 1191 0022 FFF7FEFF 		bl	mcpwm_foc_get_rpm
 1192              	.LVL68:
 1193              		.loc 1 598 0
 1194 0026 F5E7     		b	.L120
 1195              	.LVL69:
 1196              	.L121:
 1197              		.loc 1 593 0
ARM GAS  /tmp/ccETYwEL.s 			page 22


 1198 0028 FFF7FEFF 		bl	mcpwm_get_rpm
 1199              	.LVL70:
 1200              		.loc 1 594 0
 1201 002c F2E7     		b	.L120
 1202              	.L132:
 1203 002e 00BF     		.align	2
 1204              	.L131:
 1205 0030 00000000 		.word	.LANCHOR12
 1206 0034 00000000 		.word	0
 1207              		.cfi_endproc
 1208              	.LFE282:
 1209              		.size	mc_interface_get_rpm, .-mc_interface_get_rpm
 1210              		.section	.text.mc_interface_get_amp_hours,"ax",%progbits
 1211              		.align	1
 1212              		.p2align 4,,15
 1213              		.global	mc_interface_get_amp_hours
 1214              		.syntax unified
 1215              		.thumb
 1216              		.thumb_func
 1217              		.fpu fpv4-sp-d16
 1218              		.type	mc_interface_get_amp_hours, %function
 1219              	mc_interface_get_amp_hours:
 1220              	.LFB283:
 1221              		.loc 1 616 0
 1222              		.cfi_startproc
 1223              		@ args = 0, pretend = 0, frame = 0
 1224              		@ frame_needed = 0, uses_anonymous_args = 0
 1225              		@ link register save eliminated.
 1226              	.LVL71:
 1227              		.loc 1 617 0
 1228 0000 054B     		ldr	r3, .L138
 1229 0002 DFED067A 		vldr.32	s15, .L138+4
 1230 0006 93ED007A 		vldr.32	s14, [r3]
 1231 000a 87EE270A 		vdiv.f32	s0, s14, s15
 1232              	.LVL72:
 1233              		.loc 1 619 0
 1234 000e 08B1     		cbz	r0, .L133
 1235              		.loc 1 620 0
 1236 0010 0022     		movs	r2, #0
 1237 0012 1A60     		str	r2, [r3]	@ float
 1238              	.L133:
 1239              		.loc 1 624 0
 1240 0014 7047     		bx	lr
 1241              	.L139:
 1242 0016 00BF     		.align	2
 1243              	.L138:
 1244 0018 00000000 		.word	.LANCHOR26
 1245 001c 00006145 		.word	1163984896
 1246              		.cfi_endproc
 1247              	.LFE283:
 1248              		.size	mc_interface_get_amp_hours, .-mc_interface_get_amp_hours
 1249              		.section	.text.mc_interface_get_amp_hours_charged,"ax",%progbits
 1250              		.align	1
 1251              		.p2align 4,,15
 1252              		.global	mc_interface_get_amp_hours_charged
 1253              		.syntax unified
 1254              		.thumb
ARM GAS  /tmp/ccETYwEL.s 			page 23


 1255              		.thumb_func
 1256              		.fpu fpv4-sp-d16
 1257              		.type	mc_interface_get_amp_hours_charged, %function
 1258              	mc_interface_get_amp_hours_charged:
 1259              	.LFB284:
 1260              		.loc 1 635 0
 1261              		.cfi_startproc
 1262              		@ args = 0, pretend = 0, frame = 0
 1263              		@ frame_needed = 0, uses_anonymous_args = 0
 1264              		@ link register save eliminated.
 1265              	.LVL73:
 1266              		.loc 1 636 0
 1267 0000 054B     		ldr	r3, .L145
 1268 0002 DFED067A 		vldr.32	s15, .L145+4
 1269 0006 93ED007A 		vldr.32	s14, [r3]
 1270 000a 87EE270A 		vdiv.f32	s0, s14, s15
 1271              	.LVL74:
 1272              		.loc 1 638 0
 1273 000e 08B1     		cbz	r0, .L140
 1274              		.loc 1 639 0
 1275 0010 0022     		movs	r2, #0
 1276 0012 1A60     		str	r2, [r3]	@ float
 1277              	.L140:
 1278              		.loc 1 643 0
 1279 0014 7047     		bx	lr
 1280              	.L146:
 1281 0016 00BF     		.align	2
 1282              	.L145:
 1283 0018 00000000 		.word	.LANCHOR27
 1284 001c 00006145 		.word	1163984896
 1285              		.cfi_endproc
 1286              	.LFE284:
 1287              		.size	mc_interface_get_amp_hours_charged, .-mc_interface_get_amp_hours_charged
 1288              		.section	.text.mc_interface_get_watt_hours,"ax",%progbits
 1289              		.align	1
 1290              		.p2align 4,,15
 1291              		.global	mc_interface_get_watt_hours
 1292              		.syntax unified
 1293              		.thumb
 1294              		.thumb_func
 1295              		.fpu fpv4-sp-d16
 1296              		.type	mc_interface_get_watt_hours, %function
 1297              	mc_interface_get_watt_hours:
 1298              	.LFB285:
 1299              		.loc 1 654 0
 1300              		.cfi_startproc
 1301              		@ args = 0, pretend = 0, frame = 0
 1302              		@ frame_needed = 0, uses_anonymous_args = 0
 1303              		@ link register save eliminated.
 1304              	.LVL75:
 1305              		.loc 1 655 0
 1306 0000 054B     		ldr	r3, .L152
 1307 0002 DFED067A 		vldr.32	s15, .L152+4
 1308 0006 93ED007A 		vldr.32	s14, [r3]
 1309 000a 87EE270A 		vdiv.f32	s0, s14, s15
 1310              	.LVL76:
 1311              		.loc 1 657 0
ARM GAS  /tmp/ccETYwEL.s 			page 24


 1312 000e 08B1     		cbz	r0, .L147
 1313              		.loc 1 658 0
 1314 0010 0022     		movs	r2, #0
 1315 0012 1A60     		str	r2, [r3]	@ float
 1316              	.L147:
 1317              		.loc 1 662 0
 1318 0014 7047     		bx	lr
 1319              	.L153:
 1320 0016 00BF     		.align	2
 1321              	.L152:
 1322 0018 00000000 		.word	.LANCHOR28
 1323 001c 00006145 		.word	1163984896
 1324              		.cfi_endproc
 1325              	.LFE285:
 1326              		.size	mc_interface_get_watt_hours, .-mc_interface_get_watt_hours
 1327              		.section	.text.mc_interface_get_watt_hours_charged,"ax",%progbits
 1328              		.align	1
 1329              		.p2align 4,,15
 1330              		.global	mc_interface_get_watt_hours_charged
 1331              		.syntax unified
 1332              		.thumb
 1333              		.thumb_func
 1334              		.fpu fpv4-sp-d16
 1335              		.type	mc_interface_get_watt_hours_charged, %function
 1336              	mc_interface_get_watt_hours_charged:
 1337              	.LFB286:
 1338              		.loc 1 673 0
 1339              		.cfi_startproc
 1340              		@ args = 0, pretend = 0, frame = 0
 1341              		@ frame_needed = 0, uses_anonymous_args = 0
 1342              		@ link register save eliminated.
 1343              	.LVL77:
 1344              		.loc 1 674 0
 1345 0000 054B     		ldr	r3, .L159
 1346 0002 DFED067A 		vldr.32	s15, .L159+4
 1347 0006 93ED007A 		vldr.32	s14, [r3]
 1348 000a 87EE270A 		vdiv.f32	s0, s14, s15
 1349              	.LVL78:
 1350              		.loc 1 676 0
 1351 000e 08B1     		cbz	r0, .L154
 1352              		.loc 1 677 0
 1353 0010 0022     		movs	r2, #0
 1354 0012 1A60     		str	r2, [r3]	@ float
 1355              	.L154:
 1356              		.loc 1 681 0
 1357 0014 7047     		bx	lr
 1358              	.L160:
 1359 0016 00BF     		.align	2
 1360              	.L159:
 1361 0018 00000000 		.word	.LANCHOR29
 1362 001c 00006145 		.word	1163984896
 1363              		.cfi_endproc
 1364              	.LFE286:
 1365              		.size	mc_interface_get_watt_hours_charged, .-mc_interface_get_watt_hours_charged
 1366              		.section	.text.mc_interface_get_tot_current,"ax",%progbits
 1367              		.align	1
 1368              		.p2align 4,,15
ARM GAS  /tmp/ccETYwEL.s 			page 25


 1369              		.global	mc_interface_get_tot_current
 1370              		.syntax unified
 1371              		.thumb
 1372              		.thumb_func
 1373              		.fpu fpv4-sp-d16
 1374              		.type	mc_interface_get_tot_current, %function
 1375              	mc_interface_get_tot_current:
 1376              	.LFB287:
 1377              		.loc 1 683 0
 1378              		.cfi_startproc
 1379              		@ args = 0, pretend = 0, frame = 0
 1380              		@ frame_needed = 0, uses_anonymous_args = 0
 1381              		@ link register save eliminated.
 1382              	.LVL79:
 1383              		.loc 1 686 0
 1384 0000 064B     		ldr	r3, .L167
 1385 0002 9B78     		ldrb	r3, [r3, #2]	@ zero_extendqisi2
 1386 0004 DBB2     		uxtb	r3, r3
 1387 0006 012B     		cmp	r3, #1
 1388 0008 06D9     		bls	.L163
 1389 000a 022B     		cmp	r3, #2
 1390 000c 01D1     		bne	.L166
 1391              		.loc 1 693 0
 1392 000e FFF7FEBF 		b	mcpwm_foc_get_tot_current
 1393              	.LVL80:
 1394              	.L166:
 1395              		.loc 1 701 0
 1396 0012 9FED030A 		vldr.32	s0, .L167+4
 1397 0016 7047     		bx	lr
 1398              	.L163:
 1399              		.loc 1 689 0
 1400 0018 FFF7FEBF 		b	mcpwm_get_tot_current
 1401              	.LVL81:
 1402              	.L168:
 1403              		.align	2
 1404              	.L167:
 1405 001c 00000000 		.word	.LANCHOR12
 1406 0020 00000000 		.word	0
 1407              		.cfi_endproc
 1408              	.LFE287:
 1409              		.size	mc_interface_get_tot_current, .-mc_interface_get_tot_current
 1410              		.section	.text.mc_interface_get_tot_current_filtered,"ax",%progbits
 1411              		.align	1
 1412              		.p2align 4,,15
 1413              		.global	mc_interface_get_tot_current_filtered
 1414              		.syntax unified
 1415              		.thumb
 1416              		.thumb_func
 1417              		.fpu fpv4-sp-d16
 1418              		.type	mc_interface_get_tot_current_filtered, %function
 1419              	mc_interface_get_tot_current_filtered:
 1420              	.LFB288:
 1421              		.loc 1 703 0
 1422              		.cfi_startproc
 1423              		@ args = 0, pretend = 0, frame = 0
 1424              		@ frame_needed = 0, uses_anonymous_args = 0
 1425              		@ link register save eliminated.
ARM GAS  /tmp/ccETYwEL.s 			page 26


 1426              	.LVL82:
 1427              		.loc 1 706 0
 1428 0000 064B     		ldr	r3, .L175
 1429 0002 9B78     		ldrb	r3, [r3, #2]	@ zero_extendqisi2
 1430 0004 DBB2     		uxtb	r3, r3
 1431 0006 012B     		cmp	r3, #1
 1432 0008 06D9     		bls	.L171
 1433 000a 022B     		cmp	r3, #2
 1434 000c 01D1     		bne	.L174
 1435              		.loc 1 713 0
 1436 000e FFF7FEBF 		b	mcpwm_foc_get_tot_current_filtered
 1437              	.LVL83:
 1438              	.L174:
 1439              		.loc 1 721 0
 1440 0012 9FED030A 		vldr.32	s0, .L175+4
 1441 0016 7047     		bx	lr
 1442              	.L171:
 1443              		.loc 1 709 0
 1444 0018 FFF7FEBF 		b	mcpwm_get_tot_current_filtered
 1445              	.LVL84:
 1446              	.L176:
 1447              		.align	2
 1448              	.L175:
 1449 001c 00000000 		.word	.LANCHOR12
 1450 0020 00000000 		.word	0
 1451              		.cfi_endproc
 1452              	.LFE288:
 1453              		.size	mc_interface_get_tot_current_filtered, .-mc_interface_get_tot_current_filtered
 1454              		.section	.text.mc_interface_get_tot_current_directional,"ax",%progbits
 1455              		.align	1
 1456              		.p2align 4,,15
 1457              		.global	mc_interface_get_tot_current_directional
 1458              		.syntax unified
 1459              		.thumb
 1460              		.thumb_func
 1461              		.fpu fpv4-sp-d16
 1462              		.type	mc_interface_get_tot_current_directional, %function
 1463              	mc_interface_get_tot_current_directional:
 1464              	.LFB289:
 1465              		.loc 1 723 0
 1466              		.cfi_startproc
 1467              		@ args = 0, pretend = 0, frame = 0
 1468              		@ frame_needed = 0, uses_anonymous_args = 0
 1469              	.LVL85:
 1470 0000 10B5     		push	{r4, lr}
 1471              		.cfi_def_cfa_offset 8
 1472              		.cfi_offset 4, -8
 1473              		.cfi_offset 14, -4
 1474              		.loc 1 726 0
 1475 0002 0B4C     		ldr	r4, .L189
 1476 0004 A378     		ldrb	r3, [r4, #2]	@ zero_extendqisi2
 1477 0006 DBB2     		uxtb	r3, r3
 1478 0008 012B     		cmp	r3, #1
 1479 000a 0DD9     		bls	.L179
 1480 000c 022B     		cmp	r3, #2
 1481 000e 08D0     		beq	.L180
 1482              		.loc 1 724 0
ARM GAS  /tmp/ccETYwEL.s 			page 27


 1483 0010 9FED080A 		vldr.32	s0, .L189+4
 1484              	.LVL86:
 1485              	.L178:
 1486              		.loc 1 740 0
 1487 0014 94F86931 		ldrb	r3, [r4, #361]	@ zero_extendqisi2
 1488 0018 03B9     		cbnz	r3, .L188
 1489              		.loc 1 741 0
 1490 001a 10BD     		pop	{r4, pc}
 1491              	.L188:
 1492 001c B1EE400A 		vneg.f32	s0, s0
 1493              	.LVL87:
 1494 0020 10BD     		pop	{r4, pc}
 1495              	.LVL88:
 1496              	.L180:
 1497              		.loc 1 733 0
 1498 0022 FFF7FEFF 		bl	mcpwm_foc_get_tot_current_directional
 1499              	.LVL89:
 1500              		.loc 1 734 0
 1501 0026 F5E7     		b	.L178
 1502              	.LVL90:
 1503              	.L179:
 1504              		.loc 1 729 0
 1505 0028 FFF7FEFF 		bl	mcpwm_get_tot_current_directional
 1506              	.LVL91:
 1507              		.loc 1 730 0
 1508 002c F2E7     		b	.L178
 1509              	.L190:
 1510 002e 00BF     		.align	2
 1511              	.L189:
 1512 0030 00000000 		.word	.LANCHOR12
 1513 0034 00000000 		.word	0
 1514              		.cfi_endproc
 1515              	.LFE289:
 1516              		.size	mc_interface_get_tot_current_directional, .-mc_interface_get_tot_current_directional
 1517              		.section	.text.mc_interface_get_tot_current_directional_filtered,"ax",%progbits
 1518              		.align	1
 1519              		.p2align 4,,15
 1520              		.global	mc_interface_get_tot_current_directional_filtered
 1521              		.syntax unified
 1522              		.thumb
 1523              		.thumb_func
 1524              		.fpu fpv4-sp-d16
 1525              		.type	mc_interface_get_tot_current_directional_filtered, %function
 1526              	mc_interface_get_tot_current_directional_filtered:
 1527              	.LFB290:
 1528              		.loc 1 743 0
 1529              		.cfi_startproc
 1530              		@ args = 0, pretend = 0, frame = 0
 1531              		@ frame_needed = 0, uses_anonymous_args = 0
 1532              	.LVL92:
 1533 0000 10B5     		push	{r4, lr}
 1534              		.cfi_def_cfa_offset 8
 1535              		.cfi_offset 4, -8
 1536              		.cfi_offset 14, -4
 1537              		.loc 1 746 0
 1538 0002 0B4C     		ldr	r4, .L203
 1539 0004 A378     		ldrb	r3, [r4, #2]	@ zero_extendqisi2
ARM GAS  /tmp/ccETYwEL.s 			page 28


 1540 0006 DBB2     		uxtb	r3, r3
 1541 0008 012B     		cmp	r3, #1
 1542 000a 0DD9     		bls	.L193
 1543 000c 022B     		cmp	r3, #2
 1544 000e 08D0     		beq	.L194
 1545              		.loc 1 744 0
 1546 0010 9FED080A 		vldr.32	s0, .L203+4
 1547              	.LVL93:
 1548              	.L192:
 1549              		.loc 1 760 0
 1550 0014 94F86931 		ldrb	r3, [r4, #361]	@ zero_extendqisi2
 1551 0018 03B9     		cbnz	r3, .L202
 1552              		.loc 1 761 0
 1553 001a 10BD     		pop	{r4, pc}
 1554              	.L202:
 1555 001c B1EE400A 		vneg.f32	s0, s0
 1556              	.LVL94:
 1557 0020 10BD     		pop	{r4, pc}
 1558              	.LVL95:
 1559              	.L194:
 1560              		.loc 1 753 0
 1561 0022 FFF7FEFF 		bl	mcpwm_foc_get_tot_current_directional_filtered
 1562              	.LVL96:
 1563              		.loc 1 754 0
 1564 0026 F5E7     		b	.L192
 1565              	.LVL97:
 1566              	.L193:
 1567              		.loc 1 749 0
 1568 0028 FFF7FEFF 		bl	mcpwm_get_tot_current_directional_filtered
 1569              	.LVL98:
 1570              		.loc 1 750 0
 1571 002c F2E7     		b	.L192
 1572              	.L204:
 1573 002e 00BF     		.align	2
 1574              	.L203:
 1575 0030 00000000 		.word	.LANCHOR12
 1576 0034 00000000 		.word	0
 1577              		.cfi_endproc
 1578              	.LFE290:
 1579              		.size	mc_interface_get_tot_current_directional_filtered, .-mc_interface_get_tot_current_directiona
 1580              		.section	.text.mc_interface_get_tot_current_in,"ax",%progbits
 1581              		.align	1
 1582              		.p2align 4,,15
 1583              		.global	mc_interface_get_tot_current_in
 1584              		.syntax unified
 1585              		.thumb
 1586              		.thumb_func
 1587              		.fpu fpv4-sp-d16
 1588              		.type	mc_interface_get_tot_current_in, %function
 1589              	mc_interface_get_tot_current_in:
 1590              	.LFB291:
 1591              		.loc 1 763 0
 1592              		.cfi_startproc
 1593              		@ args = 0, pretend = 0, frame = 0
 1594              		@ frame_needed = 0, uses_anonymous_args = 0
 1595              		@ link register save eliminated.
 1596              	.LVL99:
ARM GAS  /tmp/ccETYwEL.s 			page 29


 1597              		.loc 1 766 0
 1598 0000 064B     		ldr	r3, .L211
 1599 0002 9B78     		ldrb	r3, [r3, #2]	@ zero_extendqisi2
 1600 0004 DBB2     		uxtb	r3, r3
 1601 0006 012B     		cmp	r3, #1
 1602 0008 06D9     		bls	.L207
 1603 000a 022B     		cmp	r3, #2
 1604 000c 01D1     		bne	.L210
 1605              		.loc 1 773 0
 1606 000e FFF7FEBF 		b	mcpwm_foc_get_tot_current_in
 1607              	.LVL100:
 1608              	.L210:
 1609              		.loc 1 781 0
 1610 0012 9FED030A 		vldr.32	s0, .L211+4
 1611 0016 7047     		bx	lr
 1612              	.L207:
 1613              		.loc 1 769 0
 1614 0018 FFF7FEBF 		b	mcpwm_get_tot_current_in
 1615              	.LVL101:
 1616              	.L212:
 1617              		.align	2
 1618              	.L211:
 1619 001c 00000000 		.word	.LANCHOR12
 1620 0020 00000000 		.word	0
 1621              		.cfi_endproc
 1622              	.LFE291:
 1623              		.size	mc_interface_get_tot_current_in, .-mc_interface_get_tot_current_in
 1624              		.section	.text.mc_interface_get_tot_current_in_filtered,"ax",%progbits
 1625              		.align	1
 1626              		.p2align 4,,15
 1627              		.global	mc_interface_get_tot_current_in_filtered
 1628              		.syntax unified
 1629              		.thumb
 1630              		.thumb_func
 1631              		.fpu fpv4-sp-d16
 1632              		.type	mc_interface_get_tot_current_in_filtered, %function
 1633              	mc_interface_get_tot_current_in_filtered:
 1634              	.LFB292:
 1635              		.loc 1 783 0
 1636              		.cfi_startproc
 1637              		@ args = 0, pretend = 0, frame = 0
 1638              		@ frame_needed = 0, uses_anonymous_args = 0
 1639              		@ link register save eliminated.
 1640              	.LVL102:
 1641              		.loc 1 786 0
 1642 0000 064B     		ldr	r3, .L219
 1643 0002 9B78     		ldrb	r3, [r3, #2]	@ zero_extendqisi2
 1644 0004 DBB2     		uxtb	r3, r3
 1645 0006 012B     		cmp	r3, #1
 1646 0008 06D9     		bls	.L215
 1647 000a 022B     		cmp	r3, #2
 1648 000c 01D1     		bne	.L218
 1649              		.loc 1 793 0
 1650 000e FFF7FEBF 		b	mcpwm_foc_get_tot_current_in_filtered
 1651              	.LVL103:
 1652              	.L218:
 1653              		.loc 1 801 0
ARM GAS  /tmp/ccETYwEL.s 			page 30


 1654 0012 9FED030A 		vldr.32	s0, .L219+4
 1655 0016 7047     		bx	lr
 1656              	.L215:
 1657              		.loc 1 789 0
 1658 0018 FFF7FEBF 		b	mcpwm_get_tot_current_in_filtered
 1659              	.LVL104:
 1660              	.L220:
 1661              		.align	2
 1662              	.L219:
 1663 001c 00000000 		.word	.LANCHOR12
 1664 0020 00000000 		.word	0
 1665              		.cfi_endproc
 1666              	.LFE292:
 1667              		.size	mc_interface_get_tot_current_in_filtered, .-mc_interface_get_tot_current_in_filtered
 1668              		.section	.text.mc_interface_get_tachometer_value,"ax",%progbits
 1669              		.align	1
 1670              		.p2align 4,,15
 1671              		.global	mc_interface_get_tachometer_value
 1672              		.syntax unified
 1673              		.thumb
 1674              		.thumb_func
 1675              		.fpu fpv4-sp-d16
 1676              		.type	mc_interface_get_tachometer_value, %function
 1677              	mc_interface_get_tachometer_value:
 1678              	.LFB293:
 1679              		.loc 1 803 0
 1680              		.cfi_startproc
 1681              		@ args = 0, pretend = 0, frame = 0
 1682              		@ frame_needed = 0, uses_anonymous_args = 0
 1683              	.LVL105:
 1684 0000 10B5     		push	{r4, lr}
 1685              		.cfi_def_cfa_offset 8
 1686              		.cfi_offset 4, -8
 1687              		.cfi_offset 14, -4
 1688              		.loc 1 806 0
 1689 0002 104C     		ldr	r4, .L232
 1690 0004 A378     		ldrb	r3, [r4, #2]	@ zero_extendqisi2
 1691 0006 DBB2     		uxtb	r3, r3
 1692 0008 012B     		cmp	r3, #1
 1693 000a 14D9     		bls	.L223
 1694 000c 022B     		cmp	r3, #2
 1695 000e 0BD0     		beq	.L224
 1696 0010 DFED0D7A 		vldr.32	s15, .L232+4
 1697              	.LVL106:
 1698              	.L222:
 1699              		.loc 1 820 0
 1700 0014 94F86931 		ldrb	r3, [r4, #361]	@ zero_extendqisi2
 1701 0018 0BB1     		cbz	r3, .L225
 1702 001a F1EE677A 		vneg.f32	s15, s15
 1703              	.L225:
 1704              		.loc 1 821 0 discriminator 4
 1705 001e FDEEE77A 		vcvt.s32.f32	s15, s15
 1706 0022 17EE900A 		vmov	r0, s15	@ int
 1707 0026 10BD     		pop	{r4, pc}
 1708              	.LVL107:
 1709              	.L224:
 1710              		.loc 1 813 0
ARM GAS  /tmp/ccETYwEL.s 			page 31


 1711 0028 FFF7FEFF 		bl	mcpwm_foc_get_tachometer_value
 1712              	.LVL108:
 1713 002c 07EE900A 		vmov	s15, r0	@ int
 1714 0030 F8EEE77A 		vcvt.f32.s32	s15, s15
 1715              		.loc 1 814 0
 1716 0034 EEE7     		b	.L222
 1717              	.LVL109:
 1718              	.L223:
 1719              		.loc 1 809 0
 1720 0036 FFF7FEFF 		bl	mcpwm_get_tachometer_value
 1721              	.LVL110:
 1722 003a 07EE900A 		vmov	s15, r0	@ int
 1723 003e F8EEE77A 		vcvt.f32.s32	s15, s15
 1724              		.loc 1 810 0
 1725 0042 E7E7     		b	.L222
 1726              	.L233:
 1727              		.align	2
 1728              	.L232:
 1729 0044 00000000 		.word	.LANCHOR12
 1730 0048 00000000 		.word	0
 1731              		.cfi_endproc
 1732              	.LFE293:
 1733              		.size	mc_interface_get_tachometer_value, .-mc_interface_get_tachometer_value
 1734              		.section	.text.mc_interface_fault_stop.part.4,"ax",%progbits
 1735              		.align	1
 1736              		.p2align 4,,15
 1737              		.syntax unified
 1738              		.thumb
 1739              		.thumb_func
 1740              		.fpu fpv4-sp-d16
 1741              		.type	mc_interface_fault_stop.part.4, %function
 1742              	mc_interface_fault_stop.part.4:
 1743              	.LFB317:
 1744              		.loc 1 1020 0
 1745              		.cfi_startproc
 1746              		@ args = 0, pretend = 0, frame = 72
 1747              		@ frame_needed = 0, uses_anonymous_args = 0
 1748              	.LVL111:
 1749 0000 F0B5     		push	{r4, r5, r6, r7, lr}
 1750              		.cfi_def_cfa_offset 20
 1751              		.cfi_offset 4, -20
 1752              		.cfi_offset 5, -16
 1753              		.cfi_offset 6, -12
 1754              		.cfi_offset 7, -8
 1755              		.cfi_offset 14, -4
 1756 0002 93B0     		sub	sp, sp, #76
 1757              		.cfi_def_cfa_offset 96
 1758              		.loc 1 1020 0
 1759 0004 0546     		mov	r5, r0
 1760              		.loc 1 1026 0
 1761 0006 FFF7FEFF 		bl	mc_interface_dccal_done
 1762              	.LVL112:
 1763 000a 3F4C     		ldr	r4, .L244
 1764 000c 08B1     		cbz	r0, .L235
 1765 000e 2678     		ldrb	r6, [r4]	@ zero_extendqisi2
 1766 0010 A6B1     		cbz	r6, .L243
 1767              	.L235:
ARM GAS  /tmp/ccETYwEL.s 			page 32


 1768              		.loc 1 1061 0
 1769 0012 3E4B     		ldr	r3, .L244+4
 1770 0014 3E4A     		ldr	r2, .L244+8
 1771 0016 D3F85811 		ldr	r1, [r3, #344]
 1772              		.loc 1 1063 0
 1773 001a 9B78     		ldrb	r3, [r3, #2]	@ zero_extendqisi2
 1774              		.loc 1 1061 0
 1775 001c 1160     		str	r1, [r2]
 1776              		.loc 1 1063 0
 1777 001e DBB2     		uxtb	r3, r3
 1778 0020 012B     		cmp	r3, #1
 1779 0022 06D9     		bls	.L237
 1780 0024 022B     		cmp	r3, #2
 1781 0026 01D1     		bne	.L236
 1782              		.loc 1 1070 0
 1783 0028 FFF7FEFF 		bl	mcpwm_foc_stop_pwm
 1784              	.LVL113:
 1785              	.L236:
 1786              		.loc 1 1077 0
 1787 002c 2570     		strb	r5, [r4]
 1788              		.loc 1 1078 0
 1789 002e 13B0     		add	sp, sp, #76
 1790              		.cfi_remember_state
 1791              		.cfi_def_cfa_offset 20
 1792              		@ sp needed
 1793 0030 F0BD     		pop	{r4, r5, r6, r7, pc}
 1794              	.L237:
 1795              		.cfi_restore_state
 1796              		.loc 1 1066 0
 1797 0032 FFF7FEFF 		bl	mcpwm_stop_pwm
 1798              	.LVL114:
 1799              		.loc 1 1077 0
 1800 0036 2570     		strb	r5, [r4]
 1801              		.loc 1 1078 0
 1802 0038 13B0     		add	sp, sp, #76
 1803              		.cfi_remember_state
 1804              		.cfi_def_cfa_offset 20
 1805              		@ sp needed
 1806 003a F0BD     		pop	{r4, r5, r6, r7, pc}
 1807              	.L243:
 1808              		.cfi_restore_state
 1809              	.LBB134:
 1810              		.loc 1 1029 0
 1811 003c FFF7FEFF 		bl	utils_sys_lock_cnt
 1812              	.LVL115:
 1813              		.loc 1 1030 0
 1814 0040 344A     		ldr	r2, .L244+12
 1815              		.loc 1 1031 0
 1816 0042 354B     		ldr	r3, .L244+16
 1817              		.loc 1 1030 0
 1818 0044 526B     		ldr	r2, [r2, #52]
 1819 0046 0192     		str	r2, [sp, #4]
 1820              		.loc 1 1031 0
 1821 0048 1A6C     		ldr	r2, [r3, #64]
 1822 004a 0292     		str	r2, [sp, #8]
 1823              		.loc 1 1032 0
 1824 004c DB6A     		ldr	r3, [r3, #44]
ARM GAS  /tmp/ccETYwEL.s 			page 33


 1825 004e 0393     		str	r3, [sp, #12]
 1826              		.loc 1 1033 0
 1827 0050 FFF7FEFF 		bl	utils_sys_unlock_cnt
 1828              	.LVL116:
 1829              		.loc 1 1036 0
 1830 0054 8DF81050 		strb	r5, [sp, #16]
 1831              		.loc 1 1037 0
 1832 0058 FFF7FEFF 		bl	mc_interface_get_tot_current
 1833              	.LVL117:
 1834              		.loc 1 1039 0
 1835 005c 2F4F     		ldr	r7, .L244+20
 1836              		.loc 1 1037 0
 1837 005e 8DED050A 		vstr.32	s0, [sp, #20]
 1838              		.loc 1 1038 0
 1839 0062 FFF7FEFF 		bl	mc_interface_get_tot_current_filtered
 1840              	.LVL118:
 1841              		.loc 1 1039 0
 1842 0066 3B8A     		ldrh	r3, [r7, #16]
 1843 0068 DFED2D6A 		vldr.32	s13, .L244+24
 1844 006c 9FED2D7A 		vldr.32	s14, .L244+28
 1845              		.loc 1 1038 0
 1846 0070 8DED060A 		vstr.32	s0, [sp, #24]
 1847              		.loc 1 1039 0
 1848 0074 07EE903A 		vmov	s15, r3	@ int
 1849 0078 F8EE677A 		vcvt.f32.u32	s15, s15
 1850 007c 67EEA67A 		vmul.f32	s15, s15, s13
 1851 0080 67EE877A 		vmul.f32	s15, s15, s14
 1852 0084 CDED077A 		vstr.32	s15, [sp, #28]
 1853              		.loc 1 1040 0
 1854 0088 FFF7FEFF 		bl	mc_interface_get_duty_cycle_now
 1855              	.LVL119:
 1856 008c 8DED080A 		vstr.32	s0, [sp, #32]
 1857              		.loc 1 1041 0
 1858 0090 FFF7FEFF 		bl	mc_interface_get_rpm
 1859              	.LVL120:
 1860              		.loc 1 1042 0
 1861 0094 3046     		mov	r0, r6
 1862              		.loc 1 1041 0
 1863 0096 8DED090A 		vstr.32	s0, [sp, #36]
 1864              		.loc 1 1042 0
 1865 009a FFF7FEFF 		bl	mc_interface_get_tachometer_value
 1866              	.LVL121:
 1867              		.loc 1 1043 0
 1868 009e 224B     		ldr	r3, .L244+32
 1869              		.loc 1 1042 0
 1870 00a0 0A90     		str	r0, [sp, #40]
 1871              		.loc 1 1043 0
 1872 00a2 1B68     		ldr	r3, [r3]
 1873              		.loc 1 1044 0
 1874 00a4 0199     		ldr	r1, [sp, #4]
 1875              		.loc 1 1045 0
 1876 00a6 029A     		ldr	r2, [sp, #8]
 1877              		.loc 1 1043 0
 1878 00a8 0B93     		str	r3, [sp, #44]
 1879              		.loc 1 1046 0
 1880 00aa 039B     		ldr	r3, [sp, #12]
 1881 00ac 0E93     		str	r3, [sp, #56]
ARM GAS  /tmp/ccETYwEL.s 			page 34


 1882              		.loc 1 1045 0
 1883 00ae CDE90C12 		strd	r1, r2, [sp, #48]
 1884              		.loc 1 1047 0
 1885 00b2 FFF7FEFF 		bl	mcpwm_get_comm_step
 1886              	.LVL122:
 1887              		.loc 1 1048 0
 1888 00b6 7B89     		ldrh	r3, [r7, #10]
 1889 00b8 DFED1C6A 		vldr.32	s13, .L244+36
 1890 00bc 9FED1C0A 		vldr.32	s0, .L244+40
 1891              		.loc 1 1047 0
 1892 00c0 0F90     		str	r0, [sp, #60]
 1893              		.loc 1 1048 0
 1894 00c2 07EE103A 		vmov	s14, r3	@ int
 1895 00c6 B8EEC77A 		vcvt.f32.s32	s14, s14
 1896 00ca C6EE877A 		vdiv.f32	s15, s13, s14
 1897 00ce 77EEC07A 		vsub.f32	s15, s15, s0
 1898 00d2 87EE800A 		vdiv.f32	s0, s15, s0
 1899 00d6 FFF7FEFF 		bl	logf
 1900              	.LVL123:
 1901              		.loc 1 1058 0
 1902 00da 04A8     		add	r0, sp, #16
 1903              		.loc 1 1048 0
 1904 00dc DFED156A 		vldr.32	s13, .L244+44
 1905 00e0 DFED157A 		vldr.32	s15, .L244+48
 1906 00e4 9FED157A 		vldr.32	s14, .L244+52
 1907 00e8 80EE260A 		vdiv.f32	s0, s0, s13
 1908 00ec F7EE006A 		vmov.f32	s13, #1.0e+0
 1909 00f0 30EE270A 		vadd.f32	s0, s0, s15
 1910 00f4 C6EE807A 		vdiv.f32	s15, s13, s0
 1911 00f8 77EEC77A 		vsub.f32	s15, s15, s14
 1912 00fc CDED107A 		vstr.32	s15, [sp, #64]
 1913              		.loc 1 1058 0
 1914 0100 FFF7FEFF 		bl	terminal_add_fault_data
 1915              	.LVL124:
 1916 0104 85E7     		b	.L235
 1917              	.L245:
 1918 0106 00BF     		.align	2
 1919              	.L244:
 1920 0108 00000000 		.word	.LANCHOR13
 1921 010c 00000000 		.word	.LANCHOR12
 1922 0110 00000000 		.word	.LANCHOR14
 1923 0114 00040140 		.word	1073808384
 1924 0118 00000140 		.word	1073807360
 1925 011c 00000000 		.word	.LANCHOR41
 1926 0120 6740533A 		.word	978534503
 1927 0124 74D19541 		.word	1100337524
 1928 0128 00000000 		.word	.LANCHOR15
 1929 012c 3C361C4C 		.word	1276917308
 1930 0130 00401C46 		.word	1176256512
 1931 0134 00A05645 		.word	1163304960
 1932 0138 0FCF5B3B 		.word	995872527
 1933 013c 33938843 		.word	1133024051
 1934              	.LBE134:
 1935              		.cfi_endproc
 1936              	.LFE317:
 1937              		.size	mc_interface_fault_stop.part.4, .-mc_interface_fault_stop.part.4
 1938              		.section	.text.update_override_limits.constprop.5,"ax",%progbits
ARM GAS  /tmp/ccETYwEL.s 			page 35


 1939              		.align	1
 1940              		.p2align 4,,15
 1941              		.syntax unified
 1942              		.thumb
 1943              		.thumb_func
 1944              		.fpu fpv4-sp-d16
 1945              		.type	update_override_limits.constprop.5, %function
 1946              	update_override_limits.constprop.5:
 1947              	.LFB318:
 1948              		.loc 1 1334 0
 1949              		.cfi_startproc
 1950              		@ args = 0, pretend = 0, frame = 0
 1951              		@ frame_needed = 0, uses_anonymous_args = 0
 1952              	.LVL125:
 1953 0000 F8B5     		push	{r3, r4, r5, r6, r7, lr}
 1954              		.cfi_def_cfa_offset 24
 1955              		.cfi_offset 3, -24
 1956              		.cfi_offset 4, -20
 1957              		.cfi_offset 5, -16
 1958              		.cfi_offset 6, -12
 1959              		.cfi_offset 7, -8
 1960              		.cfi_offset 14, -4
 1961              		.loc 1 1335 0
 1962 0002 DF4F     		ldr	r7, .L335
 1963 0004 9FEDDF7A 		vldr.32	s14, .L335+4
 1964 0008 3B8A     		ldrh	r3, [r7, #16]
 1965              		.loc 1 1338 0
 1966 000a DF4E     		ldr	r6, .L335+8
 1967              		.loc 1 1335 0
 1968 000c DFEDDF7A 		vldr.32	s15, .L335+12
 1969              		.loc 1 1339 0
 1970 0010 DF4D     		ldr	r5, .L335+16
 1971 0012 E04C     		ldr	r4, .L335+20
 1972              		.loc 1 1334 0
 1973 0014 2DED0A8B 		vpush.64	{d8, d9, d10, d11, d12}
 1974              		.cfi_def_cfa_offset 64
 1975              		.cfi_offset 80, -64
 1976              		.cfi_offset 81, -60
 1977              		.cfi_offset 82, -56
 1978              		.cfi_offset 83, -52
 1979              		.cfi_offset 84, -48
 1980              		.cfi_offset 85, -44
 1981              		.cfi_offset 86, -40
 1982              		.cfi_offset 87, -36
 1983              		.cfi_offset 88, -32
 1984              		.cfi_offset 89, -28
 1985              		.loc 1 1335 0
 1986 0018 08EE103A 		vmov	s16, r3	@ int
 1987 001c B8EE488A 		vcvt.f32.u32	s16, s16
 1988              		.loc 1 1338 0
 1989 0020 DFEDDD8A 		vldr.32	s17, .L335+24
 1990 0024 DFEDDDBA 		vldr.32	s23, .L335+28
 1991 0028 9FEDDDBA 		vldr.32	s22, .L335+32
 1992 002c DFEDDDAA 		vldr.32	s21, .L335+36
 1993              		.loc 1 1335 0
 1994 0030 28EE078A 		vmul.f32	s16, s16, s14
 1995              		.loc 1 1338 0
ARM GAS  /tmp/ccETYwEL.s 			page 36


 1996 0034 B7EE00AA 		vmov.f32	s20, #1.0e+0
 1997              		.loc 1 1335 0
 1998 0038 28EE278A 		vmul.f32	s16, s16, s15
 1999              	.LVL126:
 2000              		.loc 1 1336 0
 2001 003c FFF7FEFF 		bl	mc_interface_get_rpm
 2002              	.LVL127:
 2003              		.loc 1 1338 0
 2004 0040 D6ED009A 		vldr.32	s19, [r6]
 2005 0044 7B89     		ldrh	r3, [r7, #10]
 2006 0046 9FEDD87A 		vldr.32	s14, .L335+40
 2007 004a 07EE903A 		vmov	s15, r3	@ int
 2008 004e F8EEE77A 		vcvt.f32.s32	s15, s15
 2009              		.loc 1 1336 0
 2010 0052 B0EE409A 		vmov.f32	s18, s0
 2011              	.LVL128:
 2012              		.loc 1 1338 0
 2013 0056 87EE270A 		vdiv.f32	s0, s14, s15
 2014              	.LVL129:
 2015 005a 30EE680A 		vsub.f32	s0, s0, s17
 2016 005e 80EE280A 		vdiv.f32	s0, s0, s17
 2017 0062 FFF7FEFF 		bl	logf
 2018              	.LVL130:
 2019 0066 9FEDD17A 		vldr.32	s14, .L335+44
 2020 006a D6ED007A 		vldr.32	s15, [r6]
 2021              		.loc 1 1339 0
 2022 006e DFEDD06A 		vldr.32	s13, .L335+48
 2023              		.loc 1 1338 0
 2024 0072 80EE070A 		vdiv.f32	s0, s0, s14
 2025 0076 30EE2B0A 		vadd.f32	s0, s0, s23
 2026 007a 8AEE007A 		vdiv.f32	s14, s20, s0
 2027 007e 37EE4B7A 		vsub.f32	s14, s14, s22
 2028 0082 79EEC79A 		vsub.f32	s19, s19, s14
 2029 0086 E9EEEA7A 		vfms.f32	s15, s19, s21
 2030 008a C6ED007A 		vstr.32	s15, [r6]
 2031              		.loc 1 1339 0
 2032 008e D5ED009A 		vldr.32	s19, [r5]
 2033 0092 FB8A     		ldrh	r3, [r7, #22]
 2034 0094 07EE103A 		vmov	s14, r3	@ int
 2035 0098 B8EE477A 		vcvt.f32.u32	s14, s14
 2036 009c C6EE877A 		vdiv.f32	s15, s13, s14
 2037 00a0 77EECA7A 		vsub.f32	s15, s15, s20
 2038 00a4 88EEA70A 		vdiv.f32	s0, s17, s15
 2039 00a8 80EE280A 		vdiv.f32	s0, s0, s17
 2040 00ac FFF7FEFF 		bl	logf
 2041              	.LVL131:
 2042 00b0 94ED5F7A 		vldr.32	s14, [r4, #380]
 2043 00b4 D5ED007A 		vldr.32	s15, [r5]
 2044 00b8 80EE070A 		vdiv.f32	s0, s0, s14
 2045 00bc 30EE2B0A 		vadd.f32	s0, s0, s23
 2046 00c0 8AEE007A 		vdiv.f32	s14, s20, s0
 2047 00c4 37EE4B7A 		vsub.f32	s14, s14, s22
 2048 00c8 79EEC79A 		vsub.f32	s19, s19, s14
 2049 00cc E9EEEA7A 		vfms.f32	s15, s19, s21
 2050 00d0 C5ED007A 		vstr.32	s15, [r5]
 2051              		.loc 1 1342 0
 2052 00d4 94ED02AA 		vldr.32	s20, [r4, #8]
ARM GAS  /tmp/ccETYwEL.s 			page 37


 2053              	.LVL132:
 2054              		.loc 1 1343 0
 2055 00d8 D4ED018A 		vldr.32	s17, [r4, #4]
 2056              	.LVL133:
 2057              		.loc 1 1344 0
 2058 00dc 94ED107A 		vldr.32	s14, [r4, #64]
 2059 00e0 D6ED007A 		vldr.32	s15, [r6]
 2060 00e4 B4EEE77A 		vcmpe.f32	s14, s15
 2061 00e8 F1EE10FA 		vmrs	APSR_nzcv, FPSCR
 2062 00ec 16DC     		bgt	.L247
 2063              		.loc 1 1346 0
 2064 00ee 94ED117A 		vldr.32	s14, [r4, #68]
 2065 00f2 D6ED007A 		vldr.32	s15, [r6]
 2066 00f6 B4EEE77A 		vcmpe.f32	s14, s15
 2067 00fa F1EE10FA 		vmrs	APSR_nzcv, FPSCR
 2068 00fe 40F15F81 		bpl	.L318
 2069              	.LVL134:
 2070              	.LBB135:
 2071              	.LBB136:
 2072              		.loc 1 1021 0
 2073 0102 AC4B     		ldr	r3, .L335+52
 2074 0104 1B78     		ldrb	r3, [r3]	@ zero_extendqisi2
 2075 0106 052B     		cmp	r3, #5
 2076 0108 40F02C82 		bne	.L250
 2077              		.loc 1 1022 0
 2078 010c AA4B     		ldr	r3, .L335+56
 2079              	.LBE136:
 2080              	.LBE135:
 2081              		.loc 1 1348 0
 2082 010e DFEDAB8A 		vldr.32	s17, .L335+60
 2083              	.LBB140:
 2084              	.LBB137:
 2085              		.loc 1 1022 0
 2086 0112 D4F85821 		ldr	r2, [r4, #344]
 2087 0116 1A60     		str	r2, [r3]
 2088              	.LBE137:
 2089              	.LBE140:
 2090              		.loc 1 1347 0
 2091 0118 B0EE68AA 		vmov.f32	s20, s17
 2092              	.LVL135:
 2093              	.L247:
 2094              		.loc 1 1368 0
 2095 011c D4ED02AA 		vldr.32	s21, [r4, #8]
 2096              	.LVL136:
 2097              		.loc 1 1369 0
 2098 0120 D4ED019A 		vldr.32	s19, [r4, #4]
 2099              	.LVL137:
 2100              		.loc 1 1370 0
 2101 0124 94ED127A 		vldr.32	s14, [r4, #72]
 2102 0128 D5ED007A 		vldr.32	s15, [r5]
 2103 012c B4EEE77A 		vcmpe.f32	s14, s15
 2104 0130 F1EE10FA 		vmrs	APSR_nzcv, FPSCR
 2105 0134 16DC     		bgt	.L260
 2106              		.loc 1 1372 0
 2107 0136 94ED137A 		vldr.32	s14, [r4, #76]
 2108 013a D5ED007A 		vldr.32	s15, [r5]
 2109 013e B4EEE77A 		vcmpe.f32	s14, s15
ARM GAS  /tmp/ccETYwEL.s 			page 38


 2110 0142 F1EE10FA 		vmrs	APSR_nzcv, FPSCR
 2111 0146 40F18181 		bpl	.L320
 2112              	.LVL138:
 2113              	.LBB141:
 2114              	.LBB142:
 2115              		.loc 1 1021 0
 2116 014a 9A4B     		ldr	r3, .L335+52
 2117 014c 1B78     		ldrb	r3, [r3]	@ zero_extendqisi2
 2118 014e 062B     		cmp	r3, #6
 2119 0150 40F01082 		bne	.L263
 2120              		.loc 1 1022 0
 2121 0154 984B     		ldr	r3, .L335+56
 2122              	.LBE142:
 2123              	.LBE141:
 2124              		.loc 1 1374 0
 2125 0156 DFED999A 		vldr.32	s19, .L335+60
 2126              	.LBB146:
 2127              	.LBB143:
 2128              		.loc 1 1022 0
 2129 015a D4F85821 		ldr	r2, [r4, #344]
 2130 015e 1A60     		str	r2, [r3]
 2131              	.LBE143:
 2132              	.LBE146:
 2133              		.loc 1 1373 0
 2134 0160 F0EE69AA 		vmov.f32	s21, s19
 2135              	.LVL139:
 2136              	.L260:
 2137              		.loc 1 1395 0
 2138 0164 94ED140A 		vldr.32	s0, [r4, #80]
 2139 0168 DFED940A 		vldr.32	s1, .L335+60
 2140 016c D4ED101A 		vldr.32	s3, [r4, #64]
 2141 0170 B3EE092A 		vmov.f32	s4, #2.5e+1
 2142 0174 B7EE001A 		vmov.f32	s2, #1.0e+0
 2143 0178 FFF7FEFF 		bl	utils_map
 2144              	.LVL140:
 2145              		.loc 1 1396 0
 2146 017c DFED8F0A 		vldr.32	s1, .L335+60
 2147              		.loc 1 1395 0
 2148 0180 F0EE40BA 		vmov.f32	s23, s0
 2149              	.LVL141:
 2150              		.loc 1 1396 0
 2151 0184 B3EE092A 		vmov.f32	s4, #2.5e+1
 2152 0188 94ED140A 		vldr.32	s0, [r4, #80]
 2153              	.LVL142:
 2154 018c D4ED111A 		vldr.32	s3, [r4, #68]
 2155 0190 B7EE001A 		vmov.f32	s2, #1.0e+0
 2156 0194 FFF7FEFF 		bl	utils_map
 2157              	.LVL143:
 2158              		.loc 1 1397 0
 2159 0198 DFED880A 		vldr.32	s1, .L335+60
 2160 019c B3EE092A 		vmov.f32	s4, #2.5e+1
 2161 01a0 B7EE001A 		vmov.f32	s2, #1.0e+0
 2162              		.loc 1 1396 0
 2163 01a4 F0EE40CA 		vmov.f32	s25, s0
 2164              	.LVL144:
 2165              		.loc 1 1397 0
 2166 01a8 94ED140A 		vldr.32	s0, [r4, #80]
ARM GAS  /tmp/ccETYwEL.s 			page 39


 2167              	.LVL145:
 2168 01ac D4ED121A 		vldr.32	s3, [r4, #72]
 2169 01b0 FFF7FEFF 		bl	utils_map
 2170              	.LVL146:
 2171              		.loc 1 1398 0
 2172 01b4 DFED810A 		vldr.32	s1, .L335+60
 2173              		.loc 1 1397 0
 2174 01b8 B0EE40BA 		vmov.f32	s22, s0
 2175              	.LVL147:
 2176              		.loc 1 1398 0
 2177 01bc B3EE092A 		vmov.f32	s4, #2.5e+1
 2178 01c0 94ED140A 		vldr.32	s0, [r4, #80]
 2179              	.LVL148:
 2180 01c4 D4ED131A 		vldr.32	s3, [r4, #76]
 2181 01c8 B7EE001A 		vmov.f32	s2, #1.0e+0
 2182 01cc FFF7FEFF 		bl	utils_map
 2183              	.LVL149:
 2184              		.loc 1 1401 0
 2185 01d0 D6ED007A 		vldr.32	s15, [r6]
 2186 01d4 F4EEE7BA 		vcmpe.f32	s23, s15
 2187 01d8 F1EE10FA 		vmrs	APSR_nzcv, FPSCR
 2188              		.loc 1 1398 0
 2189 01dc B0EE40CA 		vmov.f32	s24, s0
 2190              	.LVL150:
 2191              		.loc 1 1401 0
 2192 01e0 40F39E80 		ble	.L322
 2193              		.loc 1 1402 0
 2194 01e4 D4ED01BA 		vldr.32	s23, [r4, #4]
 2195              	.LVL151:
 2196              	.L275:
 2197              		.loc 1 1411 0
 2198 01e8 D5ED007A 		vldr.32	s15, [r5]
 2199 01ec B4EEE7BA 		vcmpe.f32	s22, s15
 2200 01f0 F1EE10FA 		vmrs	APSR_nzcv, FPSCR
 2201 01f4 40F3A680 		ble	.L323
 2202              	.L331:
 2203              		.loc 1 1412 0
 2204 01f8 94ED01BA 		vldr.32	s22, [r4, #4]
 2205              	.LVL152:
 2206              	.L278:
 2207              		.loc 1 1422 0
 2208 01fc D4ED070A 		vldr.32	s1, [r4, #28]
 2209 0200 D4ED087A 		vldr.32	s15, [r4, #32]
 2210              		.loc 1 1423 0
 2211 0204 94ED071A 		vldr.32	s2, [r4, #28]
 2212              		.loc 1 1422 0
 2213 0208 60EEA70A 		vmul.f32	s1, s1, s15
 2214              	.LVL153:
 2215              		.loc 1 1424 0
 2216 020c B4EEE09A 		vcmpe.f32	s18, s1
 2217 0210 F1EE10FA 		vmrs	APSR_nzcv, FPSCR
 2218 0214 40F1AA80 		bpl	.L324
 2219              		.loc 1 1425 0
 2220 0218 94ED01CA 		vldr.32	s24, [r4, #4]
 2221              	.LVL154:
 2222              	.L281:
 2223              		.loc 1 1434 0
ARM GAS  /tmp/ccETYwEL.s 			page 40


 2224 021c D4ED060A 		vldr.32	s1, [r4, #24]
 2225 0220 D4ED087A 		vldr.32	s15, [r4, #32]
 2226              		.loc 1 1435 0
 2227 0224 94ED061A 		vldr.32	s2, [r4, #24]
 2228              		.loc 1 1434 0
 2229 0228 60EEA70A 		vmul.f32	s1, s1, s15
 2230              	.LVL155:
 2231              		.loc 1 1436 0
 2232 022c B4EEE09A 		vcmpe.f32	s18, s1
 2233 0230 F1EE10FA 		vmrs	APSR_nzcv, FPSCR
 2234 0234 40F39180 		ble	.L325
 2235              		.loc 1 1437 0
 2236 0238 94ED019A 		vldr.32	s18, [r4, #4]
 2237              	.LVL156:
 2238              	.L284:
 2239              		.loc 1 1444 0
 2240 023c F0EE690A 		vmov.f32	s1, s19
 2241 0240 B0EE680A 		vmov.f32	s0, s17
 2242 0244 FFF7FEFF 		bl	utils_min_abs
 2243              	.LVL157:
 2244              		.loc 1 1445 0
 2245 0248 F0EE6A0A 		vmov.f32	s1, s21
 2246              		.loc 1 1444 0
 2247 024c F0EE409A 		vmov.f32	s19, s0
 2248              	.LVL158:
 2249              		.loc 1 1445 0
 2250 0250 B0EE4A0A 		vmov.f32	s0, s20
 2251              	.LVL159:
 2252 0254 FFF7FEFF 		bl	utils_min_abs
 2253              	.LVL160:
 2254              		.loc 1 1447 0
 2255 0258 F0EE4C0A 		vmov.f32	s1, s24
 2256              		.loc 1 1445 0
 2257 025c F0EE408A 		vmov.f32	s17, s0
 2258              	.LVL161:
 2259              		.loc 1 1447 0
 2260 0260 B0EE690A 		vmov.f32	s0, s19
 2261              	.LVL162:
 2262 0264 FFF7FEFF 		bl	utils_min_abs
 2263              	.LVL163:
 2264              		.loc 1 1448 0
 2265 0268 F0EE490A 		vmov.f32	s1, s18
 2266 026c FFF7FEFF 		bl	utils_min_abs
 2267              	.LVL164:
 2268              		.loc 1 1449 0
 2269 0270 F0EE6B0A 		vmov.f32	s1, s23
 2270 0274 FFF7FEFF 		bl	utils_min_abs
 2271              	.LVL165:
 2272              		.loc 1 1450 0
 2273 0278 F0EE4B0A 		vmov.f32	s1, s22
 2274 027c FFF7FEFF 		bl	utils_min_abs
 2275              	.LVL166:
 2276              		.loc 1 1452 0
 2277 0280 D4ED537A 		vldr.32	s15, [r4, #332]
 2278 0284 B4EEE70A 		vcmpe.f32	s0, s15
 2279 0288 F1EE10FA 		vmrs	APSR_nzcv, FPSCR
 2280              		.loc 1 1453 0
ARM GAS  /tmp/ccETYwEL.s 			page 41


 2281 028c 48BF     		it	mi
 2282 028e 94ED530A 		vldrmi.32	s0, [r4, #332]
 2283              	.LVL167:
 2284              		.loc 1 1456 0
 2285 0292 D4ED537A 		vldr.32	s15, [r4, #332]
 2286 0296 F1EE677A 		vneg.f32	s15, s15
 2287 029a F4EEE78A 		vcmpe.f32	s17, s15
 2288 029e F1EE10FA 		vmrs	APSR_nzcv, FPSCR
 2289              		.loc 1 1457 0
 2290 02a2 C8BF     		it	gt
 2291 02a4 D4ED538A 		vldrgt.32	s17, [r4, #332]
 2292              	.LVL168:
 2293              		.loc 1 1460 0
 2294 02a8 84ED190A 		vstr.32	s0, [r4, #100]
 2295              		.loc 1 1457 0
 2296 02ac C8BF     		it	gt
 2297 02ae F1EE688A 		vneggt.f32	s17, s17
 2298              	.LVL169:
 2299              		.loc 1 1461 0
 2300 02b2 C4ED1A8A 		vstr.32	s17, [r4, #104]
 2301              	.LVL170:
 2302              		.loc 1 1465 0
 2303 02b6 D4ED0D7A 		vldr.32	s15, [r4, #52]
 2304 02ba B4EEE78A 		vcmpe.f32	s16, s15
 2305 02be F1EE10FA 		vmrs	APSR_nzcv, FPSCR
 2306 02c2 00F30981 		bgt	.L328
 2307              		.loc 1 1467 0
 2308 02c6 D4ED0E7A 		vldr.32	s15, [r4, #56]
 2309 02ca B4EEE78A 		vcmpe.f32	s16, s15
 2310 02ce F1EE10FA 		vmrs	APSR_nzcv, FPSCR
 2311 02d2 40F10481 		bpl	.L329
 2312              		.loc 1 1468 0
 2313 02d6 DFED390A 		vldr.32	s1, .L335+60
 2314              	.LVL171:
 2315              	.L291:
 2316              		.loc 1 1475 0
 2317 02da 94ED170A 		vldr.32	s0, [r4, #92]
 2318              	.LVL172:
 2319              		.loc 1 1476 0
 2320 02de 94ED187A 		vldr.32	s14, [r4, #96]
 2321 02e2 C7EE088A 		vdiv.f32	s17, s14, s16
 2322              	.LVL173:
 2323              		.loc 1 1478 0
 2324 02e6 80EE080A 		vdiv.f32	s0, s0, s16
 2325              	.LVL174:
 2326 02ea FFF7FEFF 		bl	utils_min_abs
 2327              	.LVL175:
 2328              		.loc 1 1481 0
 2329 02ee D4ED037A 		vldr.32	s15, [r4, #12]
 2330 02f2 F0EE400A 		vmov.f32	s1, s0
 2331 02f6 B0EE670A 		vmov.f32	s0, s15
 2332              	.LVL176:
 2333 02fa FFF7FEFF 		bl	utils_min_abs
 2334              	.LVL177:
 2335 02fe 84ED1B0A 		vstr.32	s0, [r4, #108]
 2336              		.loc 1 1482 0
 2337 0302 F0EE680A 		vmov.f32	s1, s17
ARM GAS  /tmp/ccETYwEL.s 			page 42


 2338 0306 94ED040A 		vldr.32	s0, [r4, #16]
 2339 030a FFF7FEFF 		bl	utils_min_abs
 2340              	.LVL178:
 2341              		.loc 1 1504 0
 2342 030e BDEC0A8B 		vldm	sp!, {d8-d12}
 2343              		.cfi_remember_state
 2344              		.cfi_restore 88
 2345              		.cfi_restore 89
 2346              		.cfi_restore 86
 2347              		.cfi_restore 87
 2348              		.cfi_restore 84
 2349              		.cfi_restore 85
 2350              		.cfi_restore 82
 2351              		.cfi_restore 83
 2352              		.cfi_restore 80
 2353              		.cfi_restore 81
 2354              		.cfi_def_cfa_offset 24
 2355              	.LVL179:
 2356              		.loc 1 1482 0
 2357 0312 84ED1C0A 		vstr.32	s0, [r4, #112]
 2358              		.loc 1 1502 0
 2359 0316 636E     		ldr	r3, [r4, #100]	@ float
 2360 0318 6367     		str	r3, [r4, #116]	@ float
 2361              		.loc 1 1503 0
 2362 031a A36E     		ldr	r3, [r4, #104]	@ float
 2363 031c A367     		str	r3, [r4, #120]	@ float
 2364              		.loc 1 1504 0
 2365 031e F8BD     		pop	{r3, r4, r5, r6, r7, pc}
 2366              	.LVL180:
 2367              	.L322:
 2368              		.cfi_restore_state
 2369              		.loc 1 1403 0
 2370 0320 D6ED007A 		vldr.32	s15, [r6]
 2371 0324 F4EEE7CA 		vcmpe.f32	s25, s15
 2372 0328 F1EE10FA 		vmrs	APSR_nzcv, FPSCR
 2373 032c 40F1E680 		bpl	.L330
 2374              		.loc 1 1411 0
 2375 0330 D5ED007A 		vldr.32	s15, [r5]
 2376              		.loc 1 1404 0
 2377 0334 DFED21BA 		vldr.32	s23, .L335+60
 2378              	.LVL181:
 2379              		.loc 1 1411 0
 2380 0338 B4EEE7BA 		vcmpe.f32	s22, s15
 2381 033c F1EE10FA 		vmrs	APSR_nzcv, FPSCR
 2382 0340 3FF75AAF 		bgt	.L331
 2383              	.LVL182:
 2384              	.L323:
 2385              		.loc 1 1413 0
 2386 0344 D5ED007A 		vldr.32	s15, [r5]
 2387 0348 B4EEE7CA 		vcmpe.f32	s24, s15
 2388 034c F1EE10FA 		vmrs	APSR_nzcv, FPSCR
 2389 0350 40F1E380 		bpl	.L332
 2390              		.loc 1 1414 0
 2391 0354 9FED19BA 		vldr.32	s22, .L335+60
 2392              	.LVL183:
 2393 0358 50E7     		b	.L278
 2394              	.LVL184:
ARM GAS  /tmp/ccETYwEL.s 			page 43


 2395              	.L325:
 2396              		.loc 1 1438 0
 2397 035a B4EEC19A 		vcmpe.f32	s18, s2
 2398 035e F1EE10FA 		vmrs	APSR_nzcv, FPSCR
 2399 0362 40F1E980 		bpl	.L333
 2400              		.loc 1 1439 0
 2401 0366 9FED159A 		vldr.32	s18, .L335+60
 2402              	.LVL185:
 2403 036a 67E7     		b	.L284
 2404              	.LVL186:
 2405              	.L324:
 2406              		.loc 1 1426 0
 2407 036c B4EEC19A 		vcmpe.f32	s18, s2
 2408 0370 F1EE10FA 		vmrs	APSR_nzcv, FPSCR
 2409 0374 40F3EB80 		ble	.L334
 2410              		.loc 1 1427 0
 2411 0378 9FED10CA 		vldr.32	s24, .L335+60
 2412              	.LVL187:
 2413 037c 4EE7     		b	.L281
 2414              	.L336:
 2415 037e 00BF     		.align	2
 2416              	.L335:
 2417 0380 00000000 		.word	.LANCHOR41
 2418 0384 6740533A 		.word	978534503
 2419 0388 00000000 		.word	.LANCHOR32
 2420 038c 74D19541 		.word	1100337524
 2421 0390 00000000 		.word	.LANCHOR33
 2422 0394 00000000 		.word	.LANCHOR12
 2423 0398 00401C46 		.word	1176256512
 2424 039c 0FCF5B3B 		.word	995872527
 2425 03a0 33938843 		.word	1133024051
 2426 03a4 CDCCCC3D 		.word	1036831949
 2427 03a8 3C361C4C 		.word	1276917308
 2428 03ac 00A05645 		.word	1163304960
 2429 03b0 00F07F45 		.word	1166012416
 2430 03b4 00000000 		.word	.LANCHOR13
 2431 03b8 00000000 		.word	.LANCHOR14
 2432 03bc 00000000 		.word	0
 2433              	.LVL188:
 2434              	.L318:
 2435              	.LBB147:
 2436              		.loc 1 1351 0
 2437 03c0 D4ED011A 		vldr.32	s3, [r4, #4]
 2438              		.loc 1 1352 0
 2439 03c4 D4ED027A 		vldr.32	s15, [r4, #8]
 2440              		.loc 1 1356 0
 2441 03c8 1FED042A 		vldr.32	s4, .L335+60
 2442              		.loc 1 1351 0
 2443 03cc F0EEE11A 		vabs.f32	s3, s3
 2444              	.LVL189:
 2445              		.loc 1 1352 0
 2446 03d0 F0EEE77A 		vabs.f32	s15, s15
 2447 03d4 F4EEE71A 		vcmpe.f32	s3, s15
 2448 03d8 F1EE10FA 		vmrs	APSR_nzcv, FPSCR
 2449              		.loc 1 1353 0
 2450 03dc 48BF     		it	mi
 2451 03de D4ED021A 		vldrmi.32	s3, [r4, #8]
ARM GAS  /tmp/ccETYwEL.s 			page 44


 2452              	.LVL190:
 2453              		.loc 1 1356 0
 2454 03e2 96ED000A 		vldr.32	s0, [r6]
 2455 03e6 D4ED100A 		vldr.32	s1, [r4, #64]
 2456 03ea 94ED111A 		vldr.32	s2, [r4, #68]
 2457              		.loc 1 1353 0
 2458 03ee 48BF     		it	mi
 2459 03f0 F0EEE11A 		vabsmi.f32	s3, s3
 2460              	.LVL191:
 2461              		.loc 1 1356 0
 2462 03f4 FFF7FEFF 		bl	utils_map
 2463              	.LVL192:
 2464              		.loc 1 1358 0
 2465 03f8 D4ED027A 		vldr.32	s15, [r4, #8]
 2466 03fc F0EEE77A 		vabs.f32	s15, s15
 2467 0400 B4EEE70A 		vcmpe.f32	s0, s15
 2468 0404 F1EE10FA 		vmrs	APSR_nzcv, FPSCR
 2469 0408 0AD5     		bpl	.L253
 2470              		.loc 1 1359 0
 2471 040a D4ED027A 		vldr.32	s15, [r4, #8]
 2472 040e F5EEC07A 		vcmpe.f32	s15, #0
 2473 0412 F1EE10FA 		vmrs	APSR_nzcv, FPSCR
 2474 0416 4CBF     		ite	mi
 2475 0418 B1EE40AA 		vnegmi.f32	s20, s0
 2476              	.LVL193:
 2477 041c B0EE40AA 		vmovpl.f32	s20, s0
 2478              	.L253:
 2479              	.LVL194:
 2480              		.loc 1 1362 0
 2481 0420 D4ED017A 		vldr.32	s15, [r4, #4]
 2482 0424 F0EEE77A 		vabs.f32	s15, s15
 2483 0428 B4EEE70A 		vcmpe.f32	s0, s15
 2484 042c F1EE10FA 		vmrs	APSR_nzcv, FPSCR
 2485 0430 7FF574AE 		bpl	.L247
 2486              		.loc 1 1363 0
 2487 0434 D4ED017A 		vldr.32	s15, [r4, #4]
 2488 0438 F5EEC07A 		vcmpe.f32	s15, #0
 2489 043c F1EE10FA 		vmrs	APSR_nzcv, FPSCR
 2490 0440 48BF     		it	mi
 2491 0442 B1EE400A 		vnegmi.f32	s0, s0
 2492              	.LVL195:
 2493 0446 F0EE408A 		vmov.f32	s17, s0
 2494 044a 67E6     		b	.L247
 2495              	.LVL196:
 2496              	.L320:
 2497              	.LBE147:
 2498              	.LBB148:
 2499              		.loc 1 1377 0
 2500 044c D4ED011A 		vldr.32	s3, [r4, #4]
 2501              		.loc 1 1378 0
 2502 0450 D4ED027A 		vldr.32	s15, [r4, #8]
 2503              		.loc 1 1382 0
 2504 0454 1FED272A 		vldr.32	s4, .L335+60
 2505              		.loc 1 1377 0
 2506 0458 F0EEE11A 		vabs.f32	s3, s3
 2507              	.LVL197:
 2508              		.loc 1 1378 0
ARM GAS  /tmp/ccETYwEL.s 			page 45


 2509 045c F0EEE77A 		vabs.f32	s15, s15
 2510 0460 F4EEE71A 		vcmpe.f32	s3, s15
 2511 0464 F1EE10FA 		vmrs	APSR_nzcv, FPSCR
 2512              		.loc 1 1379 0
 2513 0468 48BF     		it	mi
 2514 046a D4ED021A 		vldrmi.32	s3, [r4, #8]
 2515              	.LVL198:
 2516              		.loc 1 1382 0
 2517 046e 95ED000A 		vldr.32	s0, [r5]
 2518 0472 D4ED120A 		vldr.32	s1, [r4, #72]
 2519 0476 94ED131A 		vldr.32	s2, [r4, #76]
 2520              		.loc 1 1379 0
 2521 047a 48BF     		it	mi
 2522 047c F0EEE11A 		vabsmi.f32	s3, s3
 2523              	.LVL199:
 2524              		.loc 1 1382 0
 2525 0480 FFF7FEFF 		bl	utils_map
 2526              	.LVL200:
 2527              		.loc 1 1384 0
 2528 0484 D4ED027A 		vldr.32	s15, [r4, #8]
 2529 0488 F0EEE77A 		vabs.f32	s15, s15
 2530 048c B4EEE70A 		vcmpe.f32	s0, s15
 2531 0490 F1EE10FA 		vmrs	APSR_nzcv, FPSCR
 2532 0494 0AD5     		bpl	.L266
 2533              		.loc 1 1385 0
 2534 0496 D4ED027A 		vldr.32	s15, [r4, #8]
 2535 049a F5EEC07A 		vcmpe.f32	s15, #0
 2536 049e F1EE10FA 		vmrs	APSR_nzcv, FPSCR
 2537 04a2 4CBF     		ite	mi
 2538 04a4 F1EE40AA 		vnegmi.f32	s21, s0
 2539              	.LVL201:
 2540 04a8 F0EE40AA 		vmovpl.f32	s21, s0
 2541              	.L266:
 2542              	.LVL202:
 2543              		.loc 1 1388 0
 2544 04ac D4ED017A 		vldr.32	s15, [r4, #4]
 2545 04b0 F0EEE77A 		vabs.f32	s15, s15
 2546 04b4 B4EEE70A 		vcmpe.f32	s0, s15
 2547 04b8 F1EE10FA 		vmrs	APSR_nzcv, FPSCR
 2548 04bc 7FF552AE 		bpl	.L260
 2549              		.loc 1 1389 0
 2550 04c0 D4ED017A 		vldr.32	s15, [r4, #4]
 2551 04c4 F5EEC07A 		vcmpe.f32	s15, #0
 2552 04c8 F1EE10FA 		vmrs	APSR_nzcv, FPSCR
 2553 04cc 48BF     		it	mi
 2554 04ce B1EE400A 		vnegmi.f32	s0, s0
 2555              	.LVL203:
 2556 04d2 F0EE409A 		vmov.f32	s19, s0
 2557 04d6 45E6     		b	.L260
 2558              	.LVL204:
 2559              	.L328:
 2560              	.LBE148:
 2561              		.loc 1 1466 0
 2562 04d8 D4ED030A 		vldr.32	s1, [r4, #12]
 2563              	.LVL205:
 2564 04dc FDE6     		b	.L291
 2565              	.LVL206:
ARM GAS  /tmp/ccETYwEL.s 			page 46


 2566              	.L329:
 2567              		.loc 1 1470 0
 2568 04de D4ED0D0A 		vldr.32	s1, [r4, #52]
 2569 04e2 1FED4A2A 		vldr.32	s4, .L335+60
 2570 04e6 94ED0E1A 		vldr.32	s2, [r4, #56]
 2571 04ea D4ED031A 		vldr.32	s3, [r4, #12]
 2572 04ee B0EE480A 		vmov.f32	s0, s16
 2573              	.LVL207:
 2574 04f2 FFF7FEFF 		bl	utils_map
 2575              	.LVL208:
 2576 04f6 F0EE400A 		vmov.f32	s1, s0
 2577              	.LVL209:
 2578 04fa EEE6     		b	.L291
 2579              	.LVL210:
 2580              	.L330:
 2581              		.loc 1 1406 0
 2582 04fc 96ED000A 		vldr.32	s0, [r6]
 2583              	.LVL211:
 2584 0500 1FED522A 		vldr.32	s4, .L335+60
 2585 0504 D4ED011A 		vldr.32	s3, [r4, #4]
 2586 0508 F0EE6B0A 		vmov.f32	s1, s23
 2587 050c B0EE6C1A 		vmov.f32	s2, s25
 2588 0510 FFF7FEFF 		bl	utils_map
 2589              	.LVL212:
 2590 0514 F0EE40BA 		vmov.f32	s23, s0
 2591              	.LVL213:
 2592 0518 66E6     		b	.L275
 2593              	.LVL214:
 2594              	.L332:
 2595              		.loc 1 1416 0
 2596 051a 95ED000A 		vldr.32	s0, [r5]
 2597 051e 1FED592A 		vldr.32	s4, .L335+60
 2598 0522 D4ED011A 		vldr.32	s3, [r4, #4]
 2599 0526 F0EE4B0A 		vmov.f32	s1, s22
 2600 052a B0EE4C1A 		vmov.f32	s2, s24
 2601 052e FFF7FEFF 		bl	utils_map
 2602              	.LVL215:
 2603 0532 B0EE40BA 		vmov.f32	s22, s0
 2604              	.LVL216:
 2605 0536 61E6     		b	.L278
 2606              	.LVL217:
 2607              	.L333:
 2608              		.loc 1 1441 0
 2609 0538 B0EE490A 		vmov.f32	s0, s18
 2610 053c D4ED011A 		vldr.32	s3, [r4, #4]
 2611 0540 1FED622A 		vldr.32	s4, .L335+60
 2612 0544 FFF7FEFF 		bl	utils_map
 2613              	.LVL218:
 2614 0548 B0EE409A 		vmov.f32	s18, s0
 2615              	.LVL219:
 2616 054c 76E6     		b	.L284
 2617              	.LVL220:
 2618              	.L334:
 2619              		.loc 1 1429 0
 2620 054e D4ED011A 		vldr.32	s3, [r4, #4]
 2621 0552 1FED662A 		vldr.32	s4, .L335+60
 2622 0556 B0EE490A 		vmov.f32	s0, s18
ARM GAS  /tmp/ccETYwEL.s 			page 47


 2623 055a FFF7FEFF 		bl	utils_map
 2624              	.LVL221:
 2625 055e B0EE40CA 		vmov.f32	s24, s0
 2626              	.LVL222:
 2627 0562 5BE6     		b	.L281
 2628              	.LVL223:
 2629              	.L250:
 2630              		.loc 1 1348 0
 2631 0564 5FED6B8A 		vldr.32	s17, .L335+60
 2632              	.LBB149:
 2633              	.LBB138:
 2634 0568 0520     		movs	r0, #5
 2635              	.LBE138:
 2636              	.LBE149:
 2637              		.loc 1 1347 0
 2638 056a B0EE68AA 		vmov.f32	s20, s17
 2639              	.LBB150:
 2640              	.LBB139:
 2641 056e FFF7FEFF 		bl	mc_interface_fault_stop.part.4
 2642              	.LVL224:
 2643 0572 D3E5     		b	.L247
 2644              	.LVL225:
 2645              	.L263:
 2646              	.LBE139:
 2647              	.LBE150:
 2648              		.loc 1 1374 0
 2649 0574 5FED6F9A 		vldr.32	s19, .L335+60
 2650              	.LBB151:
 2651              	.LBB144:
 2652 0578 0620     		movs	r0, #6
 2653              	.LBE144:
 2654              	.LBE151:
 2655              		.loc 1 1373 0
 2656 057a F0EE69AA 		vmov.f32	s21, s19
 2657              	.LBB152:
 2658              	.LBB145:
 2659 057e FFF7FEFF 		bl	mc_interface_fault_stop.part.4
 2660              	.LVL226:
 2661 0582 EFE5     		b	.L260
 2662              	.LBE145:
 2663              	.LBE152:
 2664              		.cfi_endproc
 2665              	.LFE318:
 2666              		.size	update_override_limits.constprop.5, .-update_override_limits.constprop.5
 2667              		.section	.text.mc_interface_set_configuration,"ax",%progbits
 2668              		.align	1
 2669              		.p2align 4,,15
 2670              		.global	mc_interface_set_configuration
 2671              		.syntax unified
 2672              		.thumb
 2673              		.thumb_func
 2674              		.fpu fpv4-sp-d16
 2675              		.type	mc_interface_set_configuration, %function
 2676              	mc_interface_set_configuration:
 2677              	.LFB258:
 2678              		.loc 1 179 0
 2679              		.cfi_startproc
ARM GAS  /tmp/ccETYwEL.s 			page 48


 2680              		@ args = 0, pretend = 0, frame = 0
 2681              		@ frame_needed = 0, uses_anonymous_args = 0
 2682              	.LVL227:
 2683 0000 38B5     		push	{r3, r4, r5, lr}
 2684              		.cfi_def_cfa_offset 16
 2685              		.cfi_offset 3, -16
 2686              		.cfi_offset 4, -12
 2687              		.cfi_offset 5, -8
 2688              		.cfi_offset 14, -4
 2689              		.loc 1 181 0
 2690 0002 354D     		ldr	r5, .L361
 2691 0004 90F86831 		ldrb	r3, [r0, #360]	@ zero_extendqisi2
 2692 0008 95F86821 		ldrb	r2, [r5, #360]	@ zero_extendqisi2
 2693 000c 9A42     		cmp	r2, r3
 2694              		.loc 1 179 0
 2695 000e 0446     		mov	r4, r0
 2696              		.loc 1 181 0
 2697 0010 1ED1     		bne	.L355
 2698              	.LVL228:
 2699              	.L338:
 2700              		.loc 1 197 0
 2701 0012 012B     		cmp	r3, #1
 2702 0014 2AD0     		beq	.L356
 2703              	.L339:
 2704              		.loc 1 210 0
 2705 0016 AB78     		ldrb	r3, [r5, #2]	@ zero_extendqisi2
 2706 0018 022B     		cmp	r3, #2
 2707 001a 2ED0     		beq	.L357
 2708              	.L342:
 2709              		.loc 1 215 0
 2710 001c AB78     		ldrb	r3, [r5, #2]	@ zero_extendqisi2
 2711 001e 022B     		cmp	r3, #2
 2712 0020 02D0     		beq	.L345
 2713              		.loc 1 216 0
 2714 0022 A378     		ldrb	r3, [r4, #2]	@ zero_extendqisi2
 2715 0024 022B     		cmp	r3, #2
 2716 0026 2ED0     		beq	.L349
 2717              	.L345:
 2718              		.loc 1 221 0
 2719 0028 2146     		mov	r1, r4
 2720 002a 4FF4C272 		mov	r2, #388
 2721 002e 2A48     		ldr	r0, .L361
 2722 0030 FFF7FEFF 		bl	memcpy
 2723              	.LVL229:
 2724              	.L344:
 2725              		.loc 1 224 0
 2726 0034 FFF7FEFF 		bl	update_override_limits.constprop.5
 2727              	.LVL230:
 2728              		.loc 1 226 0
 2729 0038 AB78     		ldrb	r3, [r5, #2]	@ zero_extendqisi2
 2730 003a DBB2     		uxtb	r3, r3
 2731 003c 012B     		cmp	r3, #1
 2732 003e 33D9     		bls	.L347
 2733              	.L360:
 2734 0040 022B     		cmp	r3, #2
 2735 0042 04D1     		bne	.L358
 2736              		.loc 1 233 0
ARM GAS  /tmp/ccETYwEL.s 			page 49


 2737 0044 2448     		ldr	r0, .L361
 2738              		.loc 1 239 0
 2739 0046 BDE83840 		pop	{r3, r4, r5, lr}
 2740              		.cfi_remember_state
 2741              		.cfi_restore 14
 2742              		.cfi_restore 5
 2743              		.cfi_restore 4
 2744              		.cfi_restore 3
 2745              		.cfi_def_cfa_offset 0
 2746              	.LVL231:
 2747              		.loc 1 233 0
 2748 004a FFF7FEBF 		b	mcpwm_foc_set_configuration
 2749              	.LVL232:
 2750              	.L358:
 2751              		.cfi_restore_state
 2752              		.loc 1 239 0
 2753 004e 38BD     		pop	{r3, r4, r5, pc}
 2754              	.LVL233:
 2755              	.L355:
 2756              		.loc 1 182 0
 2757 0050 FFF7FEFF 		bl	encoder_deinit
 2758              	.LVL234:
 2759              		.loc 1 183 0
 2760 0054 94F86831 		ldrb	r3, [r4, #360]	@ zero_extendqisi2
 2761 0058 012B     		cmp	r3, #1
 2762 005a 36D0     		beq	.L340
 2763 005c 022B     		cmp	r3, #2
 2764 005e DAD1     		bne	.L339
 2765              		.loc 1 189 0
 2766 0060 FFF7FEFF 		bl	encoder_init_as5047p_spi
 2767              	.LVL235:
 2768 0064 94F86831 		ldrb	r3, [r4, #360]	@ zero_extendqisi2
 2769              		.loc 1 197 0
 2770 0068 012B     		cmp	r3, #1
 2771 006a D4D1     		bne	.L339
 2772              	.L356:
 2773              		.loc 1 198 0
 2774 006c D4F86401 		ldr	r0, [r4, #356]
 2775 0070 FFF7FEFF 		bl	encoder_set_counts
 2776              	.LVL236:
 2777              		.loc 1 210 0
 2778 0074 AB78     		ldrb	r3, [r5, #2]	@ zero_extendqisi2
 2779 0076 022B     		cmp	r3, #2
 2780 0078 D0D1     		bne	.L342
 2781              	.L357:
 2782              		.loc 1 211 0
 2783 007a A378     		ldrb	r3, [r4, #2]	@ zero_extendqisi2
 2784 007c 022B     		cmp	r3, #2
 2785 007e 18D1     		bne	.L359
 2786              		.loc 1 215 0
 2787 0080 AB78     		ldrb	r3, [r5, #2]	@ zero_extendqisi2
 2788 0082 022B     		cmp	r3, #2
 2789 0084 D0D0     		beq	.L345
 2790              	.L349:
 2791              		.loc 1 217 0
 2792 0086 FFF7FEFF 		bl	mcpwm_deinit
 2793              	.LVL237:
ARM GAS  /tmp/ccETYwEL.s 			page 50


 2794              		.loc 1 218 0
 2795 008a 2146     		mov	r1, r4
 2796 008c 4FF4C272 		mov	r2, #388
 2797 0090 1148     		ldr	r0, .L361
 2798 0092 FFF7FEFF 		bl	memcpy
 2799              	.LVL238:
 2800              		.loc 1 219 0
 2801 0096 1048     		ldr	r0, .L361
 2802 0098 FFF7FEFF 		bl	mcpwm_foc_init
 2803              	.LVL239:
 2804              		.loc 1 224 0
 2805 009c FFF7FEFF 		bl	update_override_limits.constprop.5
 2806              	.LVL240:
 2807              		.loc 1 226 0
 2808 00a0 AB78     		ldrb	r3, [r5, #2]	@ zero_extendqisi2
 2809 00a2 DBB2     		uxtb	r3, r3
 2810 00a4 012B     		cmp	r3, #1
 2811 00a6 CBD8     		bhi	.L360
 2812              	.L347:
 2813              		.loc 1 229 0
 2814 00a8 0B48     		ldr	r0, .L361
 2815              		.loc 1 239 0
 2816 00aa BDE83840 		pop	{r3, r4, r5, lr}
 2817              		.cfi_remember_state
 2818              		.cfi_restore 14
 2819              		.cfi_restore 5
 2820              		.cfi_restore 4
 2821              		.cfi_restore 3
 2822              		.cfi_def_cfa_offset 0
 2823              	.LVL241:
 2824              		.loc 1 229 0
 2825 00ae FFF7FEBF 		b	mcpwm_set_configuration
 2826              	.LVL242:
 2827              	.L359:
 2828              		.cfi_restore_state
 2829              		.loc 1 212 0
 2830 00b2 FFF7FEFF 		bl	mcpwm_foc_deinit
 2831              	.LVL243:
 2832              		.loc 1 213 0
 2833 00b6 2146     		mov	r1, r4
 2834 00b8 4FF4C272 		mov	r2, #388
 2835 00bc 0648     		ldr	r0, .L361
 2836 00be FFF7FEFF 		bl	memcpy
 2837              	.LVL244:
 2838              		.loc 1 214 0
 2839 00c2 0548     		ldr	r0, .L361
 2840 00c4 FFF7FEFF 		bl	mcpwm_init
 2841              	.LVL245:
 2842 00c8 B4E7     		b	.L344
 2843              	.L340:
 2844              		.loc 1 185 0
 2845 00ca D4F86401 		ldr	r0, [r4, #356]
 2846 00ce FFF7FEFF 		bl	encoder_init_abi
 2847              	.LVL246:
 2848 00d2 94F86831 		ldrb	r3, [r4, #360]	@ zero_extendqisi2
 2849              		.loc 1 186 0
 2850 00d6 9CE7     		b	.L338
ARM GAS  /tmp/ccETYwEL.s 			page 51


 2851              	.L362:
 2852              		.align	2
 2853              	.L361:
 2854 00d8 00000000 		.word	.LANCHOR12
 2855              		.cfi_endproc
 2856              	.LFE258:
 2857              		.size	mc_interface_set_configuration, .-mc_interface_set_configuration
 2858              		.section	.text.timer_thread,"ax",%progbits
 2859              		.align	1
 2860              		.p2align 4,,15
 2861              		.syntax unified
 2862              		.thumb
 2863              		.thumb_func
 2864              		.fpu fpv4-sp-d16
 2865              		.type	timer_thread, %function
 2866              	timer_thread:
 2867              	.LFB311:
 2868              		.loc 1 1506 0
 2869              		.cfi_startproc
 2870              		@ Volatile: function does not return.
 2871              		@ args = 0, pretend = 0, frame = 0
 2872              		@ frame_needed = 0, uses_anonymous_args = 0
 2873              	.LVL247:
 2874              	.LBB153:
 2875              	.LBB154:
 2876              		.loc 2 135 0
 2877 0000 164E     		ldr	r6, .L377
 2878 0002 174A     		ldr	r2, .L377+4
 2879 0004 B369     		ldr	r3, [r6, #24]
 2880 0006 174C     		ldr	r4, .L377+8
 2881 0008 DFF86490 		ldr	r9, .L377+20
 2882 000c 164D     		ldr	r5, .L377+12
 2883              	.LBE154:
 2884              	.LBE153:
 2885              		.loc 1 1506 0
 2886 000e 80B5     		push	{r7, lr}
 2887              		.cfi_def_cfa_offset 8
 2888              		.cfi_offset 7, -8
 2889              		.cfi_offset 14, -4
 2890              		.loc 1 1517 0
 2891 0010 4FF00008 		mov	r8, #0
 2892              		.loc 1 1516 0
 2893 0014 154F     		ldr	r7, .L377+16
 2894              	.LBB156:
 2895              	.LBB155:
 2896              		.loc 2 135 0
 2897 0016 9A61     		str	r2, [r3, #24]
 2898 0018 0FE0     		b	.L370
 2899              	.LVL248:
 2900              	.L375:
 2901              	.LBE155:
 2902              	.LBE156:
 2903              		.loc 1 1514 0
 2904 001a 013B     		subs	r3, r3, #1
 2905 001c 2360     		str	r3, [r4]
 2906              		.loc 1 1521 0
 2907 001e FFF7FEFF 		bl	update_override_limits.constprop.5
ARM GAS  /tmp/ccETYwEL.s 			page 52


 2908              	.LVL249:
 2909              		.loc 1 1524 0
 2910 0022 95F88031 		ldrb	r3, [r5, #384]	@ zero_extendqisi2
 2911 0026 DBB2     		uxtb	r3, r3
 2912 0028 022B     		cmp	r3, #2
 2913 002a 15D0     		beq	.L368
 2914              	.L376:
 2915 002c 032B     		cmp	r3, #3
 2916 002e 13D0     		beq	.L368
 2917 0030 012B     		cmp	r3, #1
 2918 0032 11D0     		beq	.L368
 2919              	.L366:
 2920              		.loc 1 1551 0
 2921 0034 0A20     		movs	r0, #10
 2922 0036 FFF7FEFF 		bl	chThdSleep
 2923              	.LVL250:
 2924              	.L370:
 2925              		.loc 1 1513 0
 2926 003a 2368     		ldr	r3, [r4]
 2927 003c 002B     		cmp	r3, #0
 2928 003e ECDC     		bgt	.L375
 2929              		.loc 1 1516 0
 2930 0040 3B69     		ldr	r3, [r7, #16]
 2931 0042 DB04     		lsls	r3, r3, #19
 2932              		.loc 1 1517 0
 2933 0044 48BF     		it	mi
 2934 0046 89F80080 		strbmi	r8, [r9]
 2935              		.loc 1 1521 0
 2936 004a FFF7FEFF 		bl	update_override_limits.constprop.5
 2937              	.LVL251:
 2938              		.loc 1 1524 0
 2939 004e 95F88031 		ldrb	r3, [r5, #384]	@ zero_extendqisi2
 2940 0052 DBB2     		uxtb	r3, r3
 2941 0054 022B     		cmp	r3, #2
 2942 0056 E9D1     		bne	.L376
 2943              	.L368:
 2944              	.LBB157:
 2945              	.LBB158:
 2946              		.file 3 "ChibiOS_3.0.2/os/rt/include/chvt.h"
 2947              		.loc 3 231 0
 2948 0058 B36A     		ldr	r3, [r6, #40]
 2949              	.LBE158:
 2950              	.LBE157:
 2951              		.loc 1 1545 0
 2952 005a EBE7     		b	.L366
 2953              	.L378:
 2954              		.align	2
 2955              	.L377:
 2956 005c 00000000 		.word	ch
 2957 0060 00000000 		.word	.LC2
 2958 0064 00000000 		.word	.LANCHOR14
 2959 0068 00000000 		.word	.LANCHOR12
 2960 006c 00080240 		.word	1073874944
 2961 0070 00000000 		.word	.LANCHOR13
 2962              		.cfi_endproc
 2963              	.LFE311:
 2964              		.size	timer_thread, .-timer_thread
ARM GAS  /tmp/ccETYwEL.s 			page 53


 2965              		.section	.text.mc_interface_get_tachometer_abs_value,"ax",%progbits
 2966              		.align	1
 2967              		.p2align 4,,15
 2968              		.global	mc_interface_get_tachometer_abs_value
 2969              		.syntax unified
 2970              		.thumb
 2971              		.thumb_func
 2972              		.fpu fpv4-sp-d16
 2973              		.type	mc_interface_get_tachometer_abs_value, %function
 2974              	mc_interface_get_tachometer_abs_value:
 2975              	.LFB294:
 2976              		.loc 1 823 0
 2977              		.cfi_startproc
 2978              		@ args = 0, pretend = 0, frame = 0
 2979              		@ frame_needed = 0, uses_anonymous_args = 0
 2980              		@ link register save eliminated.
 2981              	.LVL252:
 2982              		.loc 1 826 0
 2983 0000 064B     		ldr	r3, .L385
 2984 0002 9B78     		ldrb	r3, [r3, #2]	@ zero_extendqisi2
 2985 0004 DBB2     		uxtb	r3, r3
 2986 0006 012B     		cmp	r3, #1
 2987 0008 05D9     		bls	.L381
 2988 000a 022B     		cmp	r3, #2
 2989 000c 01D1     		bne	.L384
 2990              		.loc 1 833 0
 2991 000e FFF7FEBF 		b	mcpwm_foc_get_tachometer_abs_value
 2992              	.LVL253:
 2993              	.L384:
 2994              		.loc 1 841 0
 2995 0012 0020     		movs	r0, #0
 2996              	.LVL254:
 2997 0014 7047     		bx	lr
 2998              	.LVL255:
 2999              	.L381:
 3000              		.loc 1 829 0
 3001 0016 FFF7FEBF 		b	mcpwm_get_tachometer_abs_value
 3002              	.LVL256:
 3003              	.L386:
 3004 001a 00BF     		.align	2
 3005              	.L385:
 3006 001c 00000000 		.word	.LANCHOR12
 3007              		.cfi_endproc
 3008              	.LFE294:
 3009              		.size	mc_interface_get_tachometer_abs_value, .-mc_interface_get_tachometer_abs_value
 3010              		.section	.text.mc_interface_get_last_inj_adc_isr_duration,"ax",%progbits
 3011              		.align	1
 3012              		.p2align 4,,15
 3013              		.global	mc_interface_get_last_inj_adc_isr_duration
 3014              		.syntax unified
 3015              		.thumb
 3016              		.thumb_func
 3017              		.fpu fpv4-sp-d16
 3018              		.type	mc_interface_get_last_inj_adc_isr_duration, %function
 3019              	mc_interface_get_last_inj_adc_isr_duration:
 3020              	.LFB295:
 3021              		.loc 1 843 0
ARM GAS  /tmp/ccETYwEL.s 			page 54


 3022              		.cfi_startproc
 3023              		@ args = 0, pretend = 0, frame = 0
 3024              		@ frame_needed = 0, uses_anonymous_args = 0
 3025              		@ link register save eliminated.
 3026              	.LVL257:
 3027              		.loc 1 846 0
 3028 0000 064B     		ldr	r3, .L393
 3029 0002 9B78     		ldrb	r3, [r3, #2]	@ zero_extendqisi2
 3030 0004 DBB2     		uxtb	r3, r3
 3031 0006 012B     		cmp	r3, #1
 3032 0008 06D9     		bls	.L389
 3033 000a 022B     		cmp	r3, #2
 3034 000c 01D1     		bne	.L392
 3035              		.loc 1 853 0
 3036 000e FFF7FEBF 		b	mcpwm_foc_get_last_inj_adc_isr_duration
 3037              	.LVL258:
 3038              	.L392:
 3039              		.loc 1 861 0
 3040 0012 9FED030A 		vldr.32	s0, .L393+4
 3041 0016 7047     		bx	lr
 3042              	.L389:
 3043              		.loc 1 849 0
 3044 0018 FFF7FEBF 		b	mcpwm_get_last_inj_adc_isr_duration
 3045              	.LVL259:
 3046              	.L394:
 3047              		.align	2
 3048              	.L393:
 3049 001c 00000000 		.word	.LANCHOR12
 3050 0020 00000000 		.word	0
 3051              		.cfi_endproc
 3052              	.LFE295:
 3053              		.size	mc_interface_get_last_inj_adc_isr_duration, .-mc_interface_get_last_inj_adc_isr_duration
 3054              		.section	.text.mc_interface_read_reset_avg_motor_current,"ax",%progbits
 3055              		.align	1
 3056              		.p2align 4,,15
 3057              		.global	mc_interface_read_reset_avg_motor_current
 3058              		.syntax unified
 3059              		.thumb
 3060              		.thumb_func
 3061              		.fpu fpv4-sp-d16
 3062              		.type	mc_interface_read_reset_avg_motor_current, %function
 3063              	mc_interface_read_reset_avg_motor_current:
 3064              	.LFB296:
 3065              		.loc 1 863 0
 3066              		.cfi_startproc
 3067              		@ args = 0, pretend = 0, frame = 0
 3068              		@ frame_needed = 0, uses_anonymous_args = 0
 3069              		@ link register save eliminated.
 3070              		.loc 1 864 0
 3071 0000 0549     		ldr	r1, .L396
 3072 0002 064B     		ldr	r3, .L396+4
 3073 0004 91ED000A 		vldr.32	s0, [r1]
 3074 0008 D3ED007A 		vldr.32	s15, [r3]
 3075              	.LVL260:
 3076              		.loc 1 865 0
 3077 000c 0022     		movs	r2, #0
 3078 000e 0A60     		str	r2, [r1]	@ float
ARM GAS  /tmp/ccETYwEL.s 			page 55


 3079              		.loc 1 868 0
 3080 0010 80EE270A 		vdiv.f32	s0, s0, s15
 3081              	.LVL261:
 3082              		.loc 1 866 0
 3083 0014 1A60     		str	r2, [r3]	@ float
 3084              		.loc 1 868 0
 3085 0016 7047     		bx	lr
 3086              	.L397:
 3087              		.align	2
 3088              	.L396:
 3089 0018 00000000 		.word	.LANCHOR18
 3090 001c 00000000 		.word	.LANCHOR20
 3091              		.cfi_endproc
 3092              	.LFE296:
 3093              		.size	mc_interface_read_reset_avg_motor_current, .-mc_interface_read_reset_avg_motor_current
 3094              		.section	.text.mc_interface_read_reset_avg_input_current,"ax",%progbits
 3095              		.align	1
 3096              		.p2align 4,,15
 3097              		.global	mc_interface_read_reset_avg_input_current
 3098              		.syntax unified
 3099              		.thumb
 3100              		.thumb_func
 3101              		.fpu fpv4-sp-d16
 3102              		.type	mc_interface_read_reset_avg_input_current, %function
 3103              	mc_interface_read_reset_avg_input_current:
 3104              	.LFB297:
 3105              		.loc 1 870 0
 3106              		.cfi_startproc
 3107              		@ args = 0, pretend = 0, frame = 0
 3108              		@ frame_needed = 0, uses_anonymous_args = 0
 3109              		@ link register save eliminated.
 3110              		.loc 1 871 0
 3111 0000 0549     		ldr	r1, .L399
 3112 0002 064B     		ldr	r3, .L399+4
 3113 0004 91ED000A 		vldr.32	s0, [r1]
 3114 0008 D3ED007A 		vldr.32	s15, [r3]
 3115              	.LVL262:
 3116              		.loc 1 872 0
 3117 000c 0022     		movs	r2, #0
 3118 000e 0A60     		str	r2, [r1]	@ float
 3119              		.loc 1 875 0
 3120 0010 80EE270A 		vdiv.f32	s0, s0, s15
 3121              	.LVL263:
 3122              		.loc 1 873 0
 3123 0014 1A60     		str	r2, [r3]	@ float
 3124              		.loc 1 875 0
 3125 0016 7047     		bx	lr
 3126              	.L400:
 3127              		.align	2
 3128              	.L399:
 3129 0018 00000000 		.word	.LANCHOR19
 3130 001c 00000000 		.word	.LANCHOR21
 3131              		.cfi_endproc
 3132              	.LFE297:
 3133              		.size	mc_interface_read_reset_avg_input_current, .-mc_interface_read_reset_avg_input_current
 3134              		.section	.text.mc_interface_read_reset_avg_id,"ax",%progbits
 3135              		.align	1
ARM GAS  /tmp/ccETYwEL.s 			page 56


 3136              		.p2align 4,,15
 3137              		.global	mc_interface_read_reset_avg_id
 3138              		.syntax unified
 3139              		.thumb
 3140              		.thumb_func
 3141              		.fpu fpv4-sp-d16
 3142              		.type	mc_interface_read_reset_avg_id, %function
 3143              	mc_interface_read_reset_avg_id:
 3144              	.LFB298:
 3145              		.loc 1 883 0
 3146              		.cfi_startproc
 3147              		@ args = 0, pretend = 0, frame = 0
 3148              		@ frame_needed = 0, uses_anonymous_args = 0
 3149              		@ link register save eliminated.
 3150              		.loc 1 884 0
 3151 0000 084B     		ldr	r3, .L406
 3152 0002 0949     		ldr	r1, .L406+4
 3153              		.loc 1 887 0
 3154 0004 0948     		ldr	r0, .L406+8
 3155              		.loc 1 884 0
 3156 0006 91ED007A 		vldr.32	s14, [r1]
 3157 000a D3ED007A 		vldr.32	s15, [r3]
 3158              		.loc 1 885 0
 3159 000e 0022     		movs	r2, #0
 3160 0010 0A60     		str	r2, [r1]	@ float
 3161              		.loc 1 886 0
 3162 0012 1A60     		str	r2, [r3]	@ float
 3163              		.loc 1 887 0
 3164 0014 90F86931 		ldrb	r3, [r0, #361]	@ zero_extendqisi2
 3165              		.loc 1 884 0
 3166 0018 87EE270A 		vdiv.f32	s0, s14, s15
 3167              	.LVL264:
 3168              		.loc 1 887 0
 3169 001c 0BB1     		cbz	r3, .L401
 3170 001e B1EE400A 		vneg.f32	s0, s0
 3171              	.LVL265:
 3172              	.L401:
 3173              		.loc 1 888 0
 3174 0022 7047     		bx	lr
 3175              	.L407:
 3176              		.align	2
 3177              	.L406:
 3178 0024 00000000 		.word	.LANCHOR24
 3179 0028 00000000 		.word	.LANCHOR22
 3180 002c 00000000 		.word	.LANCHOR12
 3181              		.cfi_endproc
 3182              	.LFE298:
 3183              		.size	mc_interface_read_reset_avg_id, .-mc_interface_read_reset_avg_id
 3184              		.section	.text.mc_interface_read_reset_avg_iq,"ax",%progbits
 3185              		.align	1
 3186              		.p2align 4,,15
 3187              		.global	mc_interface_read_reset_avg_iq
 3188              		.syntax unified
 3189              		.thumb
 3190              		.thumb_func
 3191              		.fpu fpv4-sp-d16
 3192              		.type	mc_interface_read_reset_avg_iq, %function
ARM GAS  /tmp/ccETYwEL.s 			page 57


 3193              	mc_interface_read_reset_avg_iq:
 3194              	.LFB299:
 3195              		.loc 1 896 0
 3196              		.cfi_startproc
 3197              		@ args = 0, pretend = 0, frame = 0
 3198              		@ frame_needed = 0, uses_anonymous_args = 0
 3199              		@ link register save eliminated.
 3200              		.loc 1 897 0
 3201 0000 084B     		ldr	r3, .L413
 3202 0002 0949     		ldr	r1, .L413+4
 3203              		.loc 1 900 0
 3204 0004 0948     		ldr	r0, .L413+8
 3205              		.loc 1 897 0
 3206 0006 91ED007A 		vldr.32	s14, [r1]
 3207 000a D3ED007A 		vldr.32	s15, [r3]
 3208              		.loc 1 898 0
 3209 000e 0022     		movs	r2, #0
 3210 0010 0A60     		str	r2, [r1]	@ float
 3211              		.loc 1 899 0
 3212 0012 1A60     		str	r2, [r3]	@ float
 3213              		.loc 1 900 0
 3214 0014 90F86931 		ldrb	r3, [r0, #361]	@ zero_extendqisi2
 3215              		.loc 1 897 0
 3216 0018 87EE270A 		vdiv.f32	s0, s14, s15
 3217              	.LVL266:
 3218              		.loc 1 900 0
 3219 001c 0BB1     		cbz	r3, .L408
 3220 001e B1EE400A 		vneg.f32	s0, s0
 3221              	.LVL267:
 3222              	.L408:
 3223              		.loc 1 901 0
 3224 0022 7047     		bx	lr
 3225              	.L414:
 3226              		.align	2
 3227              	.L413:
 3228 0024 00000000 		.word	.LANCHOR25
 3229 0028 00000000 		.word	.LANCHOR23
 3230 002c 00000000 		.word	.LANCHOR12
 3231              		.cfi_endproc
 3232              	.LFE299:
 3233              		.size	mc_interface_read_reset_avg_iq, .-mc_interface_read_reset_avg_iq
 3234              		.section	.text.mc_interface_get_pid_pos_set,"ax",%progbits
 3235              		.align	1
 3236              		.p2align 4,,15
 3237              		.global	mc_interface_get_pid_pos_set
 3238              		.syntax unified
 3239              		.thumb
 3240              		.thumb_func
 3241              		.fpu fpv4-sp-d16
 3242              		.type	mc_interface_get_pid_pos_set, %function
 3243              	mc_interface_get_pid_pos_set:
 3244              	.LFB300:
 3245              		.loc 1 903 0
 3246              		.cfi_startproc
 3247              		@ args = 0, pretend = 0, frame = 0
 3248              		@ frame_needed = 0, uses_anonymous_args = 0
 3249              		@ link register save eliminated.
ARM GAS  /tmp/ccETYwEL.s 			page 58


 3250              		.loc 1 904 0
 3251 0000 014B     		ldr	r3, .L416
 3252 0002 93ED000A 		vldr.32	s0, [r3]
 3253              		.loc 1 905 0
 3254 0006 7047     		bx	lr
 3255              	.L417:
 3256              		.align	2
 3257              	.L416:
 3258 0008 00000000 		.word	.LANCHOR30
 3259              		.cfi_endproc
 3260              	.LFE300:
 3261              		.size	mc_interface_get_pid_pos_set, .-mc_interface_get_pid_pos_set
 3262              		.section	.text.mc_interface_get_pid_pos_now,"ax",%progbits
 3263              		.align	1
 3264              		.p2align 4,,15
 3265              		.global	mc_interface_get_pid_pos_now
 3266              		.syntax unified
 3267              		.thumb
 3268              		.thumb_func
 3269              		.fpu fpv4-sp-d16
 3270              		.type	mc_interface_get_pid_pos_now, %function
 3271              	mc_interface_get_pid_pos_now:
 3272              	.LFB301:
 3273              		.loc 1 907 0
 3274              		.cfi_startproc
 3275              		@ args = 0, pretend = 0, frame = 8
 3276              		@ frame_needed = 0, uses_anonymous_args = 0
 3277 0000 10B5     		push	{r4, lr}
 3278              		.cfi_def_cfa_offset 8
 3279              		.cfi_offset 4, -8
 3280              		.cfi_offset 14, -4
 3281              		.loc 1 910 0
 3282 0002 104C     		ldr	r4, .L429
 3283              		.loc 1 908 0
 3284 0004 9FED100A 		vldr.32	s0, .L429+4
 3285              		.loc 1 910 0
 3286 0008 A378     		ldrb	r3, [r4, #2]	@ zero_extendqisi2
 3287 000a DBB2     		uxtb	r3, r3
 3288              		.loc 1 907 0
 3289 000c 82B0     		sub	sp, sp, #8
 3290              		.cfi_def_cfa_offset 16
 3291              		.loc 1 910 0
 3292 000e 012B     		cmp	r3, #1
 3293              		.loc 1 908 0
 3294 0010 8DED010A 		vstr.32	s0, [sp, #4]
 3295              		.loc 1 910 0
 3296 0014 12D9     		bls	.L420
 3297 0016 022B     		cmp	r3, #2
 3298 0018 0DD0     		beq	.L421
 3299              	.L419:
 3300              		.loc 1 924 0
 3301 001a 94F86931 		ldrb	r3, [r4, #361]	@ zero_extendqisi2
 3302 001e 0BB1     		cbz	r3, .L422
 3303 0020 B1EE400A 		vneg.f32	s0, s0
 3304              	.L422:
 3305              		.loc 1 924 0 is_stmt 0 discriminator 4
 3306 0024 02A8     		add	r0, sp, #8
ARM GAS  /tmp/ccETYwEL.s 			page 59


 3307 0026 20ED010A 		vstmdb.32	r0!, {s0}
 3308              		.loc 1 925 0 is_stmt 1 discriminator 4
 3309 002a FFF7FEFF 		bl	utils_norm_angle
 3310              	.LVL268:
 3311              		.loc 1 928 0 discriminator 4
 3312 002e 9DED010A 		vldr.32	s0, [sp, #4]
 3313 0032 02B0     		add	sp, sp, #8
 3314              		.cfi_remember_state
 3315              		.cfi_def_cfa_offset 8
 3316              		@ sp needed
 3317 0034 10BD     		pop	{r4, pc}
 3318              	.L421:
 3319              		.cfi_restore_state
 3320              		.loc 1 917 0
 3321 0036 FFF7FEFF 		bl	mcpwm_foc_get_pid_pos_now
 3322              	.LVL269:
 3323              		.loc 1 918 0
 3324 003a EEE7     		b	.L419
 3325              	.L420:
 3326              		.loc 1 913 0
 3327 003c FFF7FEFF 		bl	encoder_read_deg
 3328              	.LVL270:
 3329              		.loc 1 914 0
 3330 0040 EBE7     		b	.L419
 3331              	.L430:
 3332 0042 00BF     		.align	2
 3333              	.L429:
 3334 0044 00000000 		.word	.LANCHOR12
 3335 0048 00000000 		.word	0
 3336              		.cfi_endproc
 3337              	.LFE301:
 3338              		.size	mc_interface_get_pid_pos_now, .-mc_interface_get_pid_pos_now
 3339              		.section	.text.mc_interface_get_last_sample_adc_isr_duration,"ax",%progbits
 3340              		.align	1
 3341              		.p2align 4,,15
 3342              		.global	mc_interface_get_last_sample_adc_isr_duration
 3343              		.syntax unified
 3344              		.thumb
 3345              		.thumb_func
 3346              		.fpu fpv4-sp-d16
 3347              		.type	mc_interface_get_last_sample_adc_isr_duration, %function
 3348              	mc_interface_get_last_sample_adc_isr_duration:
 3349              	.LFB302:
 3350              		.loc 1 930 0
 3351              		.cfi_startproc
 3352              		@ args = 0, pretend = 0, frame = 0
 3353              		@ frame_needed = 0, uses_anonymous_args = 0
 3354              		@ link register save eliminated.
 3355              		.loc 1 931 0
 3356 0000 014B     		ldr	r3, .L432
 3357 0002 93ED000A 		vldr.32	s0, [r3]
 3358              		.loc 1 932 0
 3359 0006 7047     		bx	lr
 3360              	.L433:
 3361              		.align	2
 3362              	.L432:
 3363 0008 00000000 		.word	.LANCHOR31
ARM GAS  /tmp/ccETYwEL.s 			page 60


 3364              		.cfi_endproc
 3365              	.LFE302:
 3366              		.size	mc_interface_get_last_sample_adc_isr_duration, .-mc_interface_get_last_sample_adc_isr_durati
 3367              		.section	.text.mc_interface_sample_print_data,"ax",%progbits
 3368              		.align	1
 3369              		.p2align 4,,15
 3370              		.global	mc_interface_sample_print_data
 3371              		.syntax unified
 3372              		.thumb
 3373              		.thumb_func
 3374              		.fpu fpv4-sp-d16
 3375              		.type	mc_interface_sample_print_data, %function
 3376              	mc_interface_sample_print_data:
 3377              	.LFB303:
 3378              		.loc 1 934 0
 3379              		.cfi_startproc
 3380              		@ args = 0, pretend = 0, frame = 0
 3381              		@ frame_needed = 0, uses_anonymous_args = 0
 3382              		@ link register save eliminated.
 3383              	.LVL271:
 3384 0000 B1F5FA6F 		cmp	r1, #2000
 3385 0004 28BF     		it	cs
 3386 0006 4FF4FA61 		movcs	r1, #2000
 3387              	.LVL272:
 3388              		.loc 1 939 0
 3389 000a 0728     		cmp	r0, #7
 3390 000c 0FD0     		beq	.L438
 3391              		.loc 1 934 0
 3392 000e F0B4     		push	{r4, r5, r6, r7}
 3393              		.cfi_def_cfa_offset 16
 3394              		.cfi_offset 4, -16
 3395              		.cfi_offset 5, -12
 3396              		.cfi_offset 6, -8
 3397              		.cfi_offset 7, -4
 3398              		.loc 1 942 0
 3399 0010 094E     		ldr	r6, .L439
 3400              		.loc 1 943 0
 3401 0012 0A4B     		ldr	r3, .L439+4
 3402              		.loc 1 944 0
 3403 0014 0A4D     		ldr	r5, .L439+8
 3404              		.loc 1 945 0
 3405 0016 0B4C     		ldr	r4, .L439+12
 3406              		.loc 1 942 0
 3407 0018 4FF0FF37 		mov	r7, #-1
 3408 001c 3760     		str	r7, [r6]
 3409              		.loc 1 943 0
 3410 001e 0026     		movs	r6, #0
 3411 0020 1E60     		str	r6, [r3]
 3412              		.loc 1 946 0
 3413 0022 094B     		ldr	r3, .L439+16
 3414              		.loc 1 944 0
 3415 0024 2960     		str	r1, [r5]
 3416              		.loc 1 945 0
 3417 0026 2260     		str	r2, [r4]
 3418              		.loc 1 946 0
 3419 0028 1870     		strb	r0, [r3]
 3420              		.loc 1 948 0
ARM GAS  /tmp/ccETYwEL.s 			page 61


 3421 002a F0BC     		pop	{r4, r5, r6, r7}
 3422              		.cfi_restore 7
 3423              		.cfi_restore 6
 3424              		.cfi_restore 5
 3425              		.cfi_restore 4
 3426              		.cfi_def_cfa_offset 0
 3427 002c 7047     		bx	lr
 3428              	.L438:
 3429              		.loc 1 940 0
 3430 002e 074B     		ldr	r3, .L439+20
 3431 0030 0121     		movs	r1, #1
 3432              	.LVL273:
 3433 0032 1868     		ldr	r0, [r3]
 3434              	.LVL274:
 3435 0034 FFF7FEBF 		b	chEvtSignal
 3436              	.LVL275:
 3437              	.L440:
 3438              		.align	2
 3439              	.L439:
 3440 0038 00000000 		.word	.LANCHOR3
 3441 003c 00000000 		.word	.LANCHOR35
 3442 0040 00000000 		.word	.LANCHOR2
 3443 0044 00000000 		.word	.LANCHOR34
 3444 0048 00000000 		.word	.LANCHOR36
 3445 004c 00000000 		.word	.LANCHOR0
 3446              		.cfi_endproc
 3447              	.LFE303:
 3448              		.size	mc_interface_sample_print_data, .-mc_interface_sample_print_data
 3449              		.section	.text.mc_interface_temp_fet_filtered,"ax",%progbits
 3450              		.align	1
 3451              		.p2align 4,,15
 3452              		.global	mc_interface_temp_fet_filtered
 3453              		.syntax unified
 3454              		.thumb
 3455              		.thumb_func
 3456              		.fpu fpv4-sp-d16
 3457              		.type	mc_interface_temp_fet_filtered, %function
 3458              	mc_interface_temp_fet_filtered:
 3459              	.LFB304:
 3460              		.loc 1 957 0
 3461              		.cfi_startproc
 3462              		@ args = 0, pretend = 0, frame = 0
 3463              		@ frame_needed = 0, uses_anonymous_args = 0
 3464              		@ link register save eliminated.
 3465              		.loc 1 958 0
 3466 0000 014B     		ldr	r3, .L442
 3467 0002 93ED000A 		vldr.32	s0, [r3]
 3468              		.loc 1 959 0
 3469 0006 7047     		bx	lr
 3470              	.L443:
 3471              		.align	2
 3472              	.L442:
 3473 0008 00000000 		.word	.LANCHOR32
 3474              		.cfi_endproc
 3475              	.LFE304:
 3476              		.size	mc_interface_temp_fet_filtered, .-mc_interface_temp_fet_filtered
 3477              		.section	.text.mc_interface_temp_motor_filtered,"ax",%progbits
ARM GAS  /tmp/ccETYwEL.s 			page 62


 3478              		.align	1
 3479              		.p2align 4,,15
 3480              		.global	mc_interface_temp_motor_filtered
 3481              		.syntax unified
 3482              		.thumb
 3483              		.thumb_func
 3484              		.fpu fpv4-sp-d16
 3485              		.type	mc_interface_temp_motor_filtered, %function
 3486              	mc_interface_temp_motor_filtered:
 3487              	.LFB305:
 3488              		.loc 1 968 0
 3489              		.cfi_startproc
 3490              		@ args = 0, pretend = 0, frame = 0
 3491              		@ frame_needed = 0, uses_anonymous_args = 0
 3492              		@ link register save eliminated.
 3493              		.loc 1 969 0
 3494 0000 014B     		ldr	r3, .L445
 3495 0002 93ED000A 		vldr.32	s0, [r3]
 3496              		.loc 1 970 0
 3497 0006 7047     		bx	lr
 3498              	.L446:
 3499              		.align	2
 3500              	.L445:
 3501 0008 00000000 		.word	.LANCHOR33
 3502              		.cfi_endproc
 3503              	.LFE305:
 3504              		.size	mc_interface_temp_motor_filtered, .-mc_interface_temp_motor_filtered
 3505              		.section	.text.mc_interface_try_input,"ax",%progbits
 3506              		.align	1
 3507              		.p2align 4,,15
 3508              		.global	mc_interface_try_input
 3509              		.syntax unified
 3510              		.thumb
 3511              		.thumb_func
 3512              		.fpu fpv4-sp-d16
 3513              		.type	mc_interface_try_input, %function
 3514              	mc_interface_try_input:
 3515              	.LFB306:
 3516              		.loc 1 982 0
 3517              		.cfi_startproc
 3518              		@ args = 0, pretend = 0, frame = 0
 3519              		@ frame_needed = 0, uses_anonymous_args = 0
 3520 0000 10B5     		push	{r4, lr}
 3521              		.cfi_def_cfa_offset 8
 3522              		.cfi_offset 4, -8
 3523              		.cfi_offset 14, -4
 3524              		.loc 1 984 0
 3525 0002 FFF7FEFF 		bl	mc_interface_get_state
 3526              	.LVL276:
 3527 0006 0128     		cmp	r0, #1
 3528 0008 22D0     		beq	.L462
 3529              		.loc 1 989 0
 3530 000a 164B     		ldr	r3, .L466
 3531 000c 1C68     		ldr	r4, [r3]
 3532              	.LVL277:
 3533              		.loc 1 991 0
 3534 000e 14B9     		cbnz	r4, .L449
ARM GAS  /tmp/ccETYwEL.s 			page 63


 3535              		.loc 1 991 0 is_stmt 0 discriminator 1
 3536 0010 154B     		ldr	r3, .L466+4
 3537 0012 1B78     		ldrb	r3, [r3]	@ zero_extendqisi2
 3538 0014 63B9     		cbnz	r3, .L463
 3539              	.LVL278:
 3540              	.L449:
 3541              		.loc 1 999 0 is_stmt 1
 3542 0016 154B     		ldr	r3, .L466+8
 3543 0018 9B78     		ldrb	r3, [r3, #2]	@ zero_extendqisi2
 3544 001a DBB2     		uxtb	r3, r3
 3545 001c 012B     		cmp	r3, #1
 3546 001e 11D9     		bls	.L451
 3547              	.L465:
 3548 0020 022B     		cmp	r3, #2
 3549 0022 03D1     		bne	.L447
 3550              		.loc 1 1008 0
 3551 0024 FFF7FEFF 		bl	mcpwm_foc_init_done
 3552              	.LVL279:
 3553 0028 00B9     		cbnz	r0, .L447
 3554              	.LVL280:
 3555              		.loc 1 1003 0
 3556 002a 0124     		movs	r4, #1
 3557              	.LVL281:
 3558              	.L447:
 3559              		.loc 1 1018 0
 3560 002c 2046     		mov	r0, r4
 3561 002e 10BD     		pop	{r4, pc}
 3562              	.LVL282:
 3563              	.L463:
 3564              		.loc 1 992 0
 3565 0030 0F4B     		ldr	r3, .L466+12
 3566 0032 1A78     		ldrb	r2, [r3]	@ zero_extendqisi2
 3567 0034 9AB9     		cbnz	r2, .L464
 3568              		.loc 1 999 0
 3569 0036 0D4B     		ldr	r3, .L466+8
 3570 0038 9B78     		ldrb	r3, [r3, #2]	@ zero_extendqisi2
 3571 003a DBB2     		uxtb	r3, r3
 3572 003c 012B     		cmp	r3, #1
 3573              		.loc 1 993 0
 3574 003e 4FF00104 		mov	r4, #1
 3575              	.LVL283:
 3576              		.loc 1 999 0
 3577 0042 EDD8     		bhi	.L465
 3578              	.L451:
 3579              		.loc 1 1002 0
 3580 0044 FFF7FEFF 		bl	mcpwm_init_done
 3581              	.LVL284:
 3582 0048 0028     		cmp	r0, #0
 3583 004a EFD1     		bne	.L447
 3584              	.LVL285:
 3585              		.loc 1 1003 0
 3586 004c 0124     		movs	r4, #1
 3587 004e EDE7     		b	.L447
 3588              	.LVL286:
 3589              	.L462:
 3590              		.loc 1 985 0
 3591 0050 FFF7FEFF 		bl	mcpwm_stop_pwm
ARM GAS  /tmp/ccETYwEL.s 			page 64


 3592              	.LVL287:
 3593              		.loc 1 986 0
 3594 0054 034B     		ldr	r3, .L466
 3595 0056 4FF4FA74 		mov	r4, #500
 3596 005a 1C60     		str	r4, [r3]
 3597              	.LVL288:
 3598 005c DBE7     		b	.L449
 3599              	.LVL289:
 3600              	.L464:
 3601              		.loc 1 995 0
 3602 005e 1C70     		strb	r4, [r3]
 3603 0060 D9E7     		b	.L449
 3604              	.L467:
 3605 0062 00BF     		.align	2
 3606              	.L466:
 3607 0064 00000000 		.word	.LANCHOR14
 3608 0068 00000000 		.word	.LANCHOR16
 3609 006c 00000000 		.word	.LANCHOR12
 3610 0070 00000000 		.word	.LANCHOR17
 3611              		.cfi_endproc
 3612              	.LFE306:
 3613              		.size	mc_interface_try_input, .-mc_interface_try_input
 3614              		.section	.text.mc_interface_set_duty,"ax",%progbits
 3615              		.align	1
 3616              		.p2align 4,,15
 3617              		.global	mc_interface_set_duty
 3618              		.syntax unified
 3619              		.thumb
 3620              		.thumb_func
 3621              		.fpu fpv4-sp-d16
 3622              		.type	mc_interface_set_duty, %function
 3623              	mc_interface_set_duty:
 3624              	.LFB267:
 3625              		.loc 1 327 0
 3626              		.cfi_startproc
 3627              		@ args = 0, pretend = 0, frame = 0
 3628              		@ frame_needed = 0, uses_anonymous_args = 0
 3629              	.LVL290:
 3630 0000 08B5     		push	{r3, lr}
 3631              		.cfi_def_cfa_offset 8
 3632              		.cfi_offset 3, -8
 3633              		.cfi_offset 14, -4
 3634 0002 2DED028B 		vpush.64	{d8}
 3635              		.cfi_def_cfa_offset 16
 3636              		.cfi_offset 80, -16
 3637              		.cfi_offset 81, -12
 3638              		.loc 1 327 0
 3639 0006 B0EE408A 		vmov.f32	s16, s0
 3640              		.loc 1 328 0
 3641 000a FFF7FEFF 		bl	mc_interface_try_input
 3642              	.LVL291:
 3643 000e 98B9     		cbnz	r0, .L468
 3644              		.loc 1 332 0
 3645 0010 114A     		ldr	r2, .L481
 3646 0012 9378     		ldrb	r3, [r2, #2]	@ zero_extendqisi2
 3647 0014 DBB2     		uxtb	r3, r3
 3648 0016 012B     		cmp	r3, #1
ARM GAS  /tmp/ccETYwEL.s 			page 65


 3649 0018 11D9     		bls	.L470
 3650 001a 022B     		cmp	r3, #2
 3651 001c 0CD1     		bne	.L468
 3652              		.loc 1 339 0
 3653 001e 92F86931 		ldrb	r3, [r2, #361]	@ zero_extendqisi2
 3654 0022 0BB1     		cbz	r3, .L473
 3655 0024 B1EE488A 		vneg.f32	s16, s16
 3656              	.LVL292:
 3657              	.L473:
 3658              		.loc 1 339 0 is_stmt 0 discriminator 4
 3659 0028 B0EE480A 		vmov.f32	s0, s16
 3660              		.loc 1 345 0 is_stmt 1 discriminator 4
 3661 002c BDEC028B 		vldm	sp!, {d8}
 3662              		.cfi_remember_state
 3663              		.cfi_restore 80
 3664              		.cfi_restore 81
 3665              		.cfi_def_cfa_offset 8
 3666 0030 BDE80840 		pop	{r3, lr}
 3667              		.cfi_restore 14
 3668              		.cfi_restore 3
 3669              		.cfi_def_cfa_offset 0
 3670              		.loc 1 339 0 discriminator 4
 3671 0034 FFF7FEBF 		b	mcpwm_foc_set_duty
 3672              	.LVL293:
 3673              	.L468:
 3674              		.cfi_restore_state
 3675              		.loc 1 345 0
 3676 0038 BDEC028B 		vldm	sp!, {d8}
 3677              		.cfi_remember_state
 3678              		.cfi_restore 80
 3679              		.cfi_restore 81
 3680              		.cfi_def_cfa_offset 8
 3681              	.LVL294:
 3682 003c 08BD     		pop	{r3, pc}
 3683              	.LVL295:
 3684              	.L470:
 3685              		.cfi_restore_state
 3686              	.LBB161:
 3687              	.LBB162:
 3688              		.loc 1 335 0
 3689 003e 92F86931 		ldrb	r3, [r2, #361]	@ zero_extendqisi2
 3690 0042 0BB1     		cbz	r3, .L472
 3691 0044 B1EE488A 		vneg.f32	s16, s16
 3692              	.LVL296:
 3693              	.L472:
 3694 0048 B0EE480A 		vmov.f32	s0, s16
 3695              	.LBE162:
 3696              	.LBE161:
 3697              		.loc 1 345 0
 3698 004c BDEC028B 		vldm	sp!, {d8}
 3699              		.cfi_restore 80
 3700              		.cfi_restore 81
 3701              		.cfi_def_cfa_offset 8
 3702 0050 BDE80840 		pop	{r3, lr}
 3703              		.cfi_restore 14
 3704              		.cfi_restore 3
 3705              		.cfi_def_cfa_offset 0
ARM GAS  /tmp/ccETYwEL.s 			page 66


 3706              	.LBB164:
 3707              	.LBB163:
 3708              		.loc 1 335 0
 3709 0054 FFF7FEBF 		b	mcpwm_set_duty
 3710              	.LVL297:
 3711              	.L482:
 3712              		.align	2
 3713              	.L481:
 3714 0058 00000000 		.word	.LANCHOR12
 3715              	.LBE163:
 3716              	.LBE164:
 3717              		.cfi_endproc
 3718              	.LFE267:
 3719              		.size	mc_interface_set_duty, .-mc_interface_set_duty
 3720              		.section	.text.mc_interface_brake_now,"ax",%progbits
 3721              		.align	1
 3722              		.p2align 4,,15
 3723              		.global	mc_interface_brake_now
 3724              		.syntax unified
 3725              		.thumb
 3726              		.thumb_func
 3727              		.fpu fpv4-sp-d16
 3728              		.type	mc_interface_brake_now, %function
 3729              	mc_interface_brake_now:
 3730              	.LFB277:
 3731              		.loc 1 513 0
 3732              		.cfi_startproc
 3733              		@ args = 0, pretend = 0, frame = 0
 3734              		@ frame_needed = 0, uses_anonymous_args = 0
 3735              		@ link register save eliminated.
 3736              		.loc 1 514 0
 3737 0000 9FED010A 		vldr.32	s0, .L484
 3738 0004 FFF7FEBF 		b	mc_interface_set_duty
 3739              	.LVL298:
 3740              	.L485:
 3741              		.align	2
 3742              	.L484:
 3743 0008 00000000 		.word	0
 3744              		.cfi_endproc
 3745              	.LFE277:
 3746              		.size	mc_interface_brake_now, .-mc_interface_brake_now
 3747              		.section	.text.mc_interface_set_duty_noramp,"ax",%progbits
 3748              		.align	1
 3749              		.p2align 4,,15
 3750              		.global	mc_interface_set_duty_noramp
 3751              		.syntax unified
 3752              		.thumb
 3753              		.thumb_func
 3754              		.fpu fpv4-sp-d16
 3755              		.type	mc_interface_set_duty_noramp, %function
 3756              	mc_interface_set_duty_noramp:
 3757              	.LFB268:
 3758              		.loc 1 347 0
 3759              		.cfi_startproc
 3760              		@ args = 0, pretend = 0, frame = 0
 3761              		@ frame_needed = 0, uses_anonymous_args = 0
 3762              	.LVL299:
ARM GAS  /tmp/ccETYwEL.s 			page 67


 3763 0000 08B5     		push	{r3, lr}
 3764              		.cfi_def_cfa_offset 8
 3765              		.cfi_offset 3, -8
 3766              		.cfi_offset 14, -4
 3767 0002 2DED028B 		vpush.64	{d8}
 3768              		.cfi_def_cfa_offset 16
 3769              		.cfi_offset 80, -16
 3770              		.cfi_offset 81, -12
 3771              		.loc 1 347 0
 3772 0006 B0EE408A 		vmov.f32	s16, s0
 3773              		.loc 1 348 0
 3774 000a FFF7FEFF 		bl	mc_interface_try_input
 3775              	.LVL300:
 3776 000e 98B9     		cbnz	r0, .L486
 3777              		.loc 1 352 0
 3778 0010 114A     		ldr	r2, .L499
 3779 0012 9378     		ldrb	r3, [r2, #2]	@ zero_extendqisi2
 3780 0014 DBB2     		uxtb	r3, r3
 3781 0016 012B     		cmp	r3, #1
 3782 0018 11D9     		bls	.L488
 3783 001a 022B     		cmp	r3, #2
 3784 001c 0CD1     		bne	.L486
 3785              		.loc 1 359 0
 3786 001e 92F86931 		ldrb	r3, [r2, #361]	@ zero_extendqisi2
 3787 0022 0BB1     		cbz	r3, .L491
 3788 0024 B1EE488A 		vneg.f32	s16, s16
 3789              	.LVL301:
 3790              	.L491:
 3791              		.loc 1 359 0 is_stmt 0 discriminator 4
 3792 0028 B0EE480A 		vmov.f32	s0, s16
 3793              		.loc 1 365 0 is_stmt 1 discriminator 4
 3794 002c BDEC028B 		vldm	sp!, {d8}
 3795              		.cfi_remember_state
 3796              		.cfi_restore 80
 3797              		.cfi_restore 81
 3798              		.cfi_def_cfa_offset 8
 3799 0030 BDE80840 		pop	{r3, lr}
 3800              		.cfi_restore 14
 3801              		.cfi_restore 3
 3802              		.cfi_def_cfa_offset 0
 3803              		.loc 1 359 0 discriminator 4
 3804 0034 FFF7FEBF 		b	mcpwm_foc_set_duty_noramp
 3805              	.LVL302:
 3806              	.L486:
 3807              		.cfi_restore_state
 3808              		.loc 1 365 0
 3809 0038 BDEC028B 		vldm	sp!, {d8}
 3810              		.cfi_remember_state
 3811              		.cfi_restore 80
 3812              		.cfi_restore 81
 3813              		.cfi_def_cfa_offset 8
 3814              	.LVL303:
 3815 003c 08BD     		pop	{r3, pc}
 3816              	.LVL304:
 3817              	.L488:
 3818              		.cfi_restore_state
 3819              		.loc 1 355 0
ARM GAS  /tmp/ccETYwEL.s 			page 68


 3820 003e 92F86931 		ldrb	r3, [r2, #361]	@ zero_extendqisi2
 3821 0042 0BB1     		cbz	r3, .L490
 3822 0044 B1EE488A 		vneg.f32	s16, s16
 3823              	.LVL305:
 3824              	.L490:
 3825              		.loc 1 355 0 is_stmt 0 discriminator 4
 3826 0048 B0EE480A 		vmov.f32	s0, s16
 3827              		.loc 1 365 0 is_stmt 1 discriminator 4
 3828 004c BDEC028B 		vldm	sp!, {d8}
 3829              		.cfi_restore 80
 3830              		.cfi_restore 81
 3831              		.cfi_def_cfa_offset 8
 3832 0050 BDE80840 		pop	{r3, lr}
 3833              		.cfi_restore 14
 3834              		.cfi_restore 3
 3835              		.cfi_def_cfa_offset 0
 3836              		.loc 1 355 0 discriminator 4
 3837 0054 FFF7FEBF 		b	mcpwm_set_duty_noramp
 3838              	.LVL306:
 3839              	.L500:
 3840              		.align	2
 3841              	.L499:
 3842 0058 00000000 		.word	.LANCHOR12
 3843              		.cfi_endproc
 3844              	.LFE268:
 3845              		.size	mc_interface_set_duty_noramp, .-mc_interface_set_duty_noramp
 3846              		.section	.text.mc_interface_set_pid_speed,"ax",%progbits
 3847              		.align	1
 3848              		.p2align 4,,15
 3849              		.global	mc_interface_set_pid_speed
 3850              		.syntax unified
 3851              		.thumb
 3852              		.thumb_func
 3853              		.fpu fpv4-sp-d16
 3854              		.type	mc_interface_set_pid_speed, %function
 3855              	mc_interface_set_pid_speed:
 3856              	.LFB269:
 3857              		.loc 1 367 0
 3858              		.cfi_startproc
 3859              		@ args = 0, pretend = 0, frame = 0
 3860              		@ frame_needed = 0, uses_anonymous_args = 0
 3861              	.LVL307:
 3862 0000 08B5     		push	{r3, lr}
 3863              		.cfi_def_cfa_offset 8
 3864              		.cfi_offset 3, -8
 3865              		.cfi_offset 14, -4
 3866 0002 2DED028B 		vpush.64	{d8}
 3867              		.cfi_def_cfa_offset 16
 3868              		.cfi_offset 80, -16
 3869              		.cfi_offset 81, -12
 3870              		.loc 1 367 0
 3871 0006 B0EE408A 		vmov.f32	s16, s0
 3872              		.loc 1 368 0
 3873 000a FFF7FEFF 		bl	mc_interface_try_input
 3874              	.LVL308:
 3875 000e 98B9     		cbnz	r0, .L501
 3876              		.loc 1 372 0
ARM GAS  /tmp/ccETYwEL.s 			page 69


 3877 0010 114A     		ldr	r2, .L514
 3878 0012 9378     		ldrb	r3, [r2, #2]	@ zero_extendqisi2
 3879 0014 DBB2     		uxtb	r3, r3
 3880 0016 012B     		cmp	r3, #1
 3881 0018 11D9     		bls	.L503
 3882 001a 022B     		cmp	r3, #2
 3883 001c 0CD1     		bne	.L501
 3884              		.loc 1 379 0
 3885 001e 92F86931 		ldrb	r3, [r2, #361]	@ zero_extendqisi2
 3886 0022 0BB1     		cbz	r3, .L506
 3887 0024 B1EE488A 		vneg.f32	s16, s16
 3888              	.LVL309:
 3889              	.L506:
 3890              		.loc 1 379 0 is_stmt 0 discriminator 4
 3891 0028 B0EE480A 		vmov.f32	s0, s16
 3892              		.loc 1 385 0 is_stmt 1 discriminator 4
 3893 002c BDEC028B 		vldm	sp!, {d8}
 3894              		.cfi_remember_state
 3895              		.cfi_restore 80
 3896              		.cfi_restore 81
 3897              		.cfi_def_cfa_offset 8
 3898 0030 BDE80840 		pop	{r3, lr}
 3899              		.cfi_restore 14
 3900              		.cfi_restore 3
 3901              		.cfi_def_cfa_offset 0
 3902              		.loc 1 379 0 discriminator 4
 3903 0034 FFF7FEBF 		b	mcpwm_foc_set_pid_speed
 3904              	.LVL310:
 3905              	.L501:
 3906              		.cfi_restore_state
 3907              		.loc 1 385 0
 3908 0038 BDEC028B 		vldm	sp!, {d8}
 3909              		.cfi_remember_state
 3910              		.cfi_restore 80
 3911              		.cfi_restore 81
 3912              		.cfi_def_cfa_offset 8
 3913              	.LVL311:
 3914 003c 08BD     		pop	{r3, pc}
 3915              	.LVL312:
 3916              	.L503:
 3917              		.cfi_restore_state
 3918              		.loc 1 375 0
 3919 003e 92F86931 		ldrb	r3, [r2, #361]	@ zero_extendqisi2
 3920 0042 0BB1     		cbz	r3, .L505
 3921 0044 B1EE488A 		vneg.f32	s16, s16
 3922              	.LVL313:
 3923              	.L505:
 3924              		.loc 1 375 0 is_stmt 0 discriminator 4
 3925 0048 B0EE480A 		vmov.f32	s0, s16
 3926              		.loc 1 385 0 is_stmt 1 discriminator 4
 3927 004c BDEC028B 		vldm	sp!, {d8}
 3928              		.cfi_restore 80
 3929              		.cfi_restore 81
 3930              		.cfi_def_cfa_offset 8
 3931 0050 BDE80840 		pop	{r3, lr}
 3932              		.cfi_restore 14
 3933              		.cfi_restore 3
ARM GAS  /tmp/ccETYwEL.s 			page 70


 3934              		.cfi_def_cfa_offset 0
 3935              		.loc 1 375 0 discriminator 4
 3936 0054 FFF7FEBF 		b	mcpwm_set_pid_speed
 3937              	.LVL314:
 3938              	.L515:
 3939              		.align	2
 3940              	.L514:
 3941 0058 00000000 		.word	.LANCHOR12
 3942              		.cfi_endproc
 3943              	.LFE269:
 3944              		.size	mc_interface_set_pid_speed, .-mc_interface_set_pid_speed
 3945              		.section	.text.mc_interface_set_pid_pos,"ax",%progbits
 3946              		.align	1
 3947              		.p2align 4,,15
 3948              		.global	mc_interface_set_pid_pos
 3949              		.syntax unified
 3950              		.thumb
 3951              		.thumb_func
 3952              		.fpu fpv4-sp-d16
 3953              		.type	mc_interface_set_pid_pos, %function
 3954              	mc_interface_set_pid_pos:
 3955              	.LFB270:
 3956              		.loc 1 387 0
 3957              		.cfi_startproc
 3958              		@ args = 0, pretend = 0, frame = 8
 3959              		@ frame_needed = 0, uses_anonymous_args = 0
 3960              	.LVL315:
 3961 0000 10B5     		push	{r4, lr}
 3962              		.cfi_def_cfa_offset 8
 3963              		.cfi_offset 4, -8
 3964              		.cfi_offset 14, -4
 3965 0002 82B0     		sub	sp, sp, #8
 3966              		.cfi_def_cfa_offset 16
 3967              		.loc 1 387 0
 3968 0004 8DED010A 		vstr.32	s0, [sp, #4]
 3969              		.loc 1 388 0
 3970 0008 FFF7FEFF 		bl	mc_interface_try_input
 3971              	.LVL316:
 3972 000c C8B9     		cbnz	r0, .L516
 3973              		.loc 1 392 0
 3974 000e 114B     		ldr	r3, .L525
 3975 0010 DDED017A 		vldr.32	s15, [sp, #4]
 3976              		.loc 1 394 0
 3977 0014 104C     		ldr	r4, .L525+4
 3978              		.loc 1 392 0
 3979 0016 C3ED007A 		vstr.32	s15, [r3]
 3980              		.loc 1 394 0
 3981 001a 94F86931 		ldrb	r3, [r4, #361]	@ zero_extendqisi2
 3982 001e 0BB1     		cbz	r3, .L518
 3983 0020 F1EE677A 		vneg.f32	s15, s15
 3984              	.L518:
 3985              		.loc 1 394 0 is_stmt 0 discriminator 4
 3986 0024 02A8     		add	r0, sp, #8
 3987 0026 60ED017A 		vstmdb.32	r0!, {s15}
 3988              		.loc 1 395 0 is_stmt 1 discriminator 4
 3989 002a FFF7FEFF 		bl	utils_norm_angle
 3990              	.LVL317:
ARM GAS  /tmp/ccETYwEL.s 			page 71


 3991              		.loc 1 397 0 discriminator 4
 3992 002e A378     		ldrb	r3, [r4, #2]	@ zero_extendqisi2
 3993 0030 DBB2     		uxtb	r3, r3
 3994 0032 012B     		cmp	r3, #1
 3995 0034 07D9     		bls	.L519
 3996 0036 022B     		cmp	r3, #2
 3997 0038 03D1     		bne	.L516
 3998              		.loc 1 404 0
 3999 003a 9DED010A 		vldr.32	s0, [sp, #4]
 4000 003e FFF7FEFF 		bl	mcpwm_foc_set_pid_pos
 4001              	.LVL318:
 4002              	.L516:
 4003              		.loc 1 410 0
 4004 0042 02B0     		add	sp, sp, #8
 4005              		.cfi_remember_state
 4006              		.cfi_def_cfa_offset 8
 4007              		@ sp needed
 4008 0044 10BD     		pop	{r4, pc}
 4009              	.L519:
 4010              		.cfi_restore_state
 4011              		.loc 1 400 0
 4012 0046 9DED010A 		vldr.32	s0, [sp, #4]
 4013 004a FFF7FEFF 		bl	mcpwm_set_pid_pos
 4014              	.LVL319:
 4015              		.loc 1 410 0
 4016 004e 02B0     		add	sp, sp, #8
 4017              		.cfi_def_cfa_offset 8
 4018              		@ sp needed
 4019 0050 10BD     		pop	{r4, pc}
 4020              	.L526:
 4021 0052 00BF     		.align	2
 4022              	.L525:
 4023 0054 00000000 		.word	.LANCHOR30
 4024 0058 00000000 		.word	.LANCHOR12
 4025              		.cfi_endproc
 4026              	.LFE270:
 4027              		.size	mc_interface_set_pid_pos, .-mc_interface_set_pid_pos
 4028              		.section	.text.mc_interface_set_current,"ax",%progbits
 4029              		.align	1
 4030              		.p2align 4,,15
 4031              		.global	mc_interface_set_current
 4032              		.syntax unified
 4033              		.thumb
 4034              		.thumb_func
 4035              		.fpu fpv4-sp-d16
 4036              		.type	mc_interface_set_current, %function
 4037              	mc_interface_set_current:
 4038              	.LFB271:
 4039              		.loc 1 412 0
 4040              		.cfi_startproc
 4041              		@ args = 0, pretend = 0, frame = 0
 4042              		@ frame_needed = 0, uses_anonymous_args = 0
 4043              	.LVL320:
 4044 0000 08B5     		push	{r3, lr}
 4045              		.cfi_def_cfa_offset 8
 4046              		.cfi_offset 3, -8
 4047              		.cfi_offset 14, -4
ARM GAS  /tmp/ccETYwEL.s 			page 72


 4048 0002 2DED028B 		vpush.64	{d8}
 4049              		.cfi_def_cfa_offset 16
 4050              		.cfi_offset 80, -16
 4051              		.cfi_offset 81, -12
 4052              		.loc 1 412 0
 4053 0006 B0EE408A 		vmov.f32	s16, s0
 4054              		.loc 1 413 0
 4055 000a FFF7FEFF 		bl	mc_interface_try_input
 4056              	.LVL321:
 4057 000e 98B9     		cbnz	r0, .L527
 4058              		.loc 1 417 0
 4059 0010 114A     		ldr	r2, .L540
 4060 0012 9378     		ldrb	r3, [r2, #2]	@ zero_extendqisi2
 4061 0014 DBB2     		uxtb	r3, r3
 4062 0016 012B     		cmp	r3, #1
 4063 0018 11D9     		bls	.L529
 4064 001a 022B     		cmp	r3, #2
 4065 001c 0CD1     		bne	.L527
 4066              		.loc 1 424 0
 4067 001e 92F86931 		ldrb	r3, [r2, #361]	@ zero_extendqisi2
 4068 0022 0BB1     		cbz	r3, .L532
 4069 0024 B1EE488A 		vneg.f32	s16, s16
 4070              	.LVL322:
 4071              	.L532:
 4072              		.loc 1 424 0 is_stmt 0 discriminator 4
 4073 0028 B0EE480A 		vmov.f32	s0, s16
 4074              		.loc 1 430 0 is_stmt 1 discriminator 4
 4075 002c BDEC028B 		vldm	sp!, {d8}
 4076              		.cfi_remember_state
 4077              		.cfi_restore 80
 4078              		.cfi_restore 81
 4079              		.cfi_def_cfa_offset 8
 4080 0030 BDE80840 		pop	{r3, lr}
 4081              		.cfi_restore 14
 4082              		.cfi_restore 3
 4083              		.cfi_def_cfa_offset 0
 4084              		.loc 1 424 0 discriminator 4
 4085 0034 FFF7FEBF 		b	mcpwm_foc_set_current
 4086              	.LVL323:
 4087              	.L527:
 4088              		.cfi_restore_state
 4089              		.loc 1 430 0
 4090 0038 BDEC028B 		vldm	sp!, {d8}
 4091              		.cfi_remember_state
 4092              		.cfi_restore 80
 4093              		.cfi_restore 81
 4094              		.cfi_def_cfa_offset 8
 4095              	.LVL324:
 4096 003c 08BD     		pop	{r3, pc}
 4097              	.LVL325:
 4098              	.L529:
 4099              		.cfi_restore_state
 4100              	.LBB167:
 4101              	.LBB168:
 4102              		.loc 1 420 0
 4103 003e 92F86931 		ldrb	r3, [r2, #361]	@ zero_extendqisi2
 4104 0042 0BB1     		cbz	r3, .L531
ARM GAS  /tmp/ccETYwEL.s 			page 73


 4105 0044 B1EE488A 		vneg.f32	s16, s16
 4106              	.LVL326:
 4107              	.L531:
 4108 0048 B0EE480A 		vmov.f32	s0, s16
 4109              	.LBE168:
 4110              	.LBE167:
 4111              		.loc 1 430 0
 4112 004c BDEC028B 		vldm	sp!, {d8}
 4113              		.cfi_restore 80
 4114              		.cfi_restore 81
 4115              		.cfi_def_cfa_offset 8
 4116 0050 BDE80840 		pop	{r3, lr}
 4117              		.cfi_restore 14
 4118              		.cfi_restore 3
 4119              		.cfi_def_cfa_offset 0
 4120              	.LBB170:
 4121              	.LBB169:
 4122              		.loc 1 420 0
 4123 0054 FFF7FEBF 		b	mcpwm_set_current
 4124              	.LVL327:
 4125              	.L541:
 4126              		.align	2
 4127              	.L540:
 4128 0058 00000000 		.word	.LANCHOR12
 4129              	.LBE169:
 4130              	.LBE170:
 4131              		.cfi_endproc
 4132              	.LFE271:
 4133              		.size	mc_interface_set_current, .-mc_interface_set_current
 4134              		.section	.text.mc_interface_set_current_rel,"ax",%progbits
 4135              		.align	1
 4136              		.p2align 4,,15
 4137              		.global	mc_interface_set_current_rel
 4138              		.syntax unified
 4139              		.thumb
 4140              		.thumb_func
 4141              		.fpu fpv4-sp-d16
 4142              		.type	mc_interface_set_current_rel, %function
 4143              	mc_interface_set_current_rel:
 4144              	.LFB273:
 4145              		.loc 1 458 0
 4146              		.cfi_startproc
 4147              		@ args = 0, pretend = 0, frame = 0
 4148              		@ frame_needed = 0, uses_anonymous_args = 0
 4149              		@ link register save eliminated.
 4150              	.LVL328:
 4151              		.loc 1 459 0
 4152 0000 B5EEC00A 		vcmpe.f32	s0, #0
 4153 0004 F1EE10FA 		vmrs	APSR_nzcv, FPSCR
 4154              		.loc 1 460 0
 4155 0008 074B     		ldr	r3, .L547
 4156              		.loc 1 459 0
 4157 000a 05DD     		ble	.L546
 4158              		.loc 1 460 0
 4159 000c D3ED1D7A 		vldr.32	s15, [r3, #116]
 4160 0010 27EE800A 		vmul.f32	s0, s15, s0
 4161              	.LVL329:
ARM GAS  /tmp/ccETYwEL.s 			page 74


 4162 0014 FFF7FEBF 		b	mc_interface_set_current
 4163              	.LVL330:
 4164              	.L546:
 4165              		.loc 1 462 0
 4166 0018 D3ED1E7A 		vldr.32	s15, [r3, #120]
 4167 001c F0EEE77A 		vabs.f32	s15, s15
 4168 0020 27EE800A 		vmul.f32	s0, s15, s0
 4169              	.LVL331:
 4170 0024 FFF7FEBF 		b	mc_interface_set_current
 4171              	.LVL332:
 4172              	.L548:
 4173              		.align	2
 4174              	.L547:
 4175 0028 00000000 		.word	.LANCHOR12
 4176              		.cfi_endproc
 4177              	.LFE273:
 4178              		.size	mc_interface_set_current_rel, .-mc_interface_set_current_rel
 4179              		.section	.text.mc_interface_release_motor,"ax",%progbits
 4180              		.align	1
 4181              		.p2align 4,,15
 4182              		.global	mc_interface_release_motor
 4183              		.syntax unified
 4184              		.thumb
 4185              		.thumb_func
 4186              		.fpu fpv4-sp-d16
 4187              		.type	mc_interface_release_motor, %function
 4188              	mc_interface_release_motor:
 4189              	.LFB278:
 4190              		.loc 1 520 0
 4191              		.cfi_startproc
 4192              		@ args = 0, pretend = 0, frame = 0
 4193              		@ frame_needed = 0, uses_anonymous_args = 0
 4194              		@ link register save eliminated.
 4195              		.loc 1 521 0
 4196 0000 9FED010A 		vldr.32	s0, .L550
 4197 0004 FFF7FEBF 		b	mc_interface_set_current
 4198              	.LVL333:
 4199              	.L551:
 4200              		.align	2
 4201              	.L550:
 4202 0008 00000000 		.word	0
 4203              		.cfi_endproc
 4204              	.LFE278:
 4205              		.size	mc_interface_release_motor, .-mc_interface_release_motor
 4206              		.section	.text.mc_interface_set_brake_current,"ax",%progbits
 4207              		.align	1
 4208              		.p2align 4,,15
 4209              		.global	mc_interface_set_brake_current
 4210              		.syntax unified
 4211              		.thumb
 4212              		.thumb_func
 4213              		.fpu fpv4-sp-d16
 4214              		.type	mc_interface_set_brake_current, %function
 4215              	mc_interface_set_brake_current:
 4216              	.LFB272:
 4217              		.loc 1 432 0
 4218              		.cfi_startproc
ARM GAS  /tmp/ccETYwEL.s 			page 75


 4219              		@ args = 0, pretend = 0, frame = 0
 4220              		@ frame_needed = 0, uses_anonymous_args = 0
 4221              	.LVL334:
 4222 0000 08B5     		push	{r3, lr}
 4223              		.cfi_def_cfa_offset 8
 4224              		.cfi_offset 3, -8
 4225              		.cfi_offset 14, -4
 4226 0002 2DED028B 		vpush.64	{d8}
 4227              		.cfi_def_cfa_offset 16
 4228              		.cfi_offset 80, -16
 4229              		.cfi_offset 81, -12
 4230              		.loc 1 432 0
 4231 0006 B0EE408A 		vmov.f32	s16, s0
 4232              		.loc 1 433 0
 4233 000a FFF7FEFF 		bl	mc_interface_try_input
 4234              	.LVL335:
 4235 000e 98B9     		cbnz	r0, .L552
 4236              		.loc 1 437 0
 4237 0010 114A     		ldr	r2, .L565
 4238 0012 9378     		ldrb	r3, [r2, #2]	@ zero_extendqisi2
 4239 0014 DBB2     		uxtb	r3, r3
 4240 0016 012B     		cmp	r3, #1
 4241 0018 11D9     		bls	.L554
 4242 001a 022B     		cmp	r3, #2
 4243 001c 0CD1     		bne	.L552
 4244              		.loc 1 444 0
 4245 001e 92F86931 		ldrb	r3, [r2, #361]	@ zero_extendqisi2
 4246 0022 0BB1     		cbz	r3, .L557
 4247 0024 B1EE488A 		vneg.f32	s16, s16
 4248              	.LVL336:
 4249              	.L557:
 4250              		.loc 1 444 0 is_stmt 0 discriminator 4
 4251 0028 B0EE480A 		vmov.f32	s0, s16
 4252              		.loc 1 450 0 is_stmt 1 discriminator 4
 4253 002c BDEC028B 		vldm	sp!, {d8}
 4254              		.cfi_remember_state
 4255              		.cfi_restore 80
 4256              		.cfi_restore 81
 4257              		.cfi_def_cfa_offset 8
 4258 0030 BDE80840 		pop	{r3, lr}
 4259              		.cfi_restore 14
 4260              		.cfi_restore 3
 4261              		.cfi_def_cfa_offset 0
 4262              		.loc 1 444 0 discriminator 4
 4263 0034 FFF7FEBF 		b	mcpwm_foc_set_brake_current
 4264              	.LVL337:
 4265              	.L552:
 4266              		.cfi_restore_state
 4267              		.loc 1 450 0
 4268 0038 BDEC028B 		vldm	sp!, {d8}
 4269              		.cfi_remember_state
 4270              		.cfi_restore 80
 4271              		.cfi_restore 81
 4272              		.cfi_def_cfa_offset 8
 4273              	.LVL338:
 4274 003c 08BD     		pop	{r3, pc}
 4275              	.LVL339:
ARM GAS  /tmp/ccETYwEL.s 			page 76


 4276              	.L554:
 4277              		.cfi_restore_state
 4278              	.LBB173:
 4279              	.LBB174:
 4280              		.loc 1 440 0
 4281 003e 92F86931 		ldrb	r3, [r2, #361]	@ zero_extendqisi2
 4282 0042 0BB1     		cbz	r3, .L556
 4283 0044 B1EE488A 		vneg.f32	s16, s16
 4284              	.LVL340:
 4285              	.L556:
 4286 0048 B0EE480A 		vmov.f32	s0, s16
 4287              	.LBE174:
 4288              	.LBE173:
 4289              		.loc 1 450 0
 4290 004c BDEC028B 		vldm	sp!, {d8}
 4291              		.cfi_restore 80
 4292              		.cfi_restore 81
 4293              		.cfi_def_cfa_offset 8
 4294 0050 BDE80840 		pop	{r3, lr}
 4295              		.cfi_restore 14
 4296              		.cfi_restore 3
 4297              		.cfi_def_cfa_offset 0
 4298              	.LBB176:
 4299              	.LBB175:
 4300              		.loc 1 440 0
 4301 0054 FFF7FEBF 		b	mcpwm_set_brake_current
 4302              	.LVL341:
 4303              	.L566:
 4304              		.align	2
 4305              	.L565:
 4306 0058 00000000 		.word	.LANCHOR12
 4307              	.LBE175:
 4308              	.LBE176:
 4309              		.cfi_endproc
 4310              	.LFE272:
 4311              		.size	mc_interface_set_brake_current, .-mc_interface_set_brake_current
 4312              		.section	.text.mc_interface_set_brake_current_rel,"ax",%progbits
 4313              		.align	1
 4314              		.p2align 4,,15
 4315              		.global	mc_interface_set_brake_current_rel
 4316              		.syntax unified
 4317              		.thumb
 4318              		.thumb_func
 4319              		.fpu fpv4-sp-d16
 4320              		.type	mc_interface_set_brake_current_rel, %function
 4321              	mc_interface_set_brake_current_rel:
 4322              	.LFB274:
 4323              		.loc 1 472 0
 4324              		.cfi_startproc
 4325              		@ args = 0, pretend = 0, frame = 0
 4326              		@ frame_needed = 0, uses_anonymous_args = 0
 4327              		@ link register save eliminated.
 4328              	.LVL342:
 4329              		.loc 1 473 0
 4330 0000 034B     		ldr	r3, .L568
 4331 0002 D3ED1D7A 		vldr.32	s15, [r3, #116]
 4332 0006 27EE800A 		vmul.f32	s0, s15, s0
ARM GAS  /tmp/ccETYwEL.s 			page 77


 4333              	.LVL343:
 4334 000a FFF7FEBF 		b	mc_interface_set_brake_current
 4335              	.LVL344:
 4336              	.L569:
 4337 000e 00BF     		.align	2
 4338              	.L568:
 4339 0010 00000000 		.word	.LANCHOR12
 4340              		.cfi_endproc
 4341              	.LFE274:
 4342              		.size	mc_interface_set_brake_current_rel, .-mc_interface_set_brake_current_rel
 4343              		.section	.text.mc_interface_set_handbrake,"ax",%progbits
 4344              		.align	1
 4345              		.p2align 4,,15
 4346              		.global	mc_interface_set_handbrake
 4347              		.syntax unified
 4348              		.thumb
 4349              		.thumb_func
 4350              		.fpu fpv4-sp-d16
 4351              		.type	mc_interface_set_handbrake, %function
 4352              	mc_interface_set_handbrake:
 4353              	.LFB275:
 4354              		.loc 1 482 0
 4355              		.cfi_startproc
 4356              		@ args = 0, pretend = 0, frame = 0
 4357              		@ frame_needed = 0, uses_anonymous_args = 0
 4358              	.LVL345:
 4359 0000 08B5     		push	{r3, lr}
 4360              		.cfi_def_cfa_offset 8
 4361              		.cfi_offset 3, -8
 4362              		.cfi_offset 14, -4
 4363 0002 2DED028B 		vpush.64	{d8}
 4364              		.cfi_def_cfa_offset 16
 4365              		.cfi_offset 80, -16
 4366              		.cfi_offset 81, -12
 4367              		.loc 1 482 0
 4368 0006 B0EE408A 		vmov.f32	s16, s0
 4369              		.loc 1 483 0
 4370 000a FFF7FEFF 		bl	mc_interface_try_input
 4371              	.LVL346:
 4372 000e 38B9     		cbnz	r0, .L570
 4373 0010 B0EE480A 		vmov.f32	s0, s16
 4374              		.loc 1 501 0
 4375 0014 BDEC028B 		vldm	sp!, {d8}
 4376              		.cfi_remember_state
 4377              		.cfi_restore 80
 4378              		.cfi_restore 81
 4379              		.cfi_def_cfa_offset 8
 4380              	.LVL347:
 4381 0018 BDE80840 		pop	{r3, lr}
 4382              		.cfi_restore 14
 4383              		.cfi_restore 3
 4384              		.cfi_def_cfa_offset 0
 4385 001c FFF7FEBF 		b	mc_interface_set_handbrake.part.3
 4386              	.LVL348:
 4387              	.L570:
 4388              		.cfi_restore_state
 4389 0020 BDEC028B 		vldm	sp!, {d8}
ARM GAS  /tmp/ccETYwEL.s 			page 78


 4390              		.cfi_restore 80
 4391              		.cfi_restore 81
 4392              		.cfi_def_cfa_offset 8
 4393              	.LVL349:
 4394 0024 08BD     		pop	{r3, pc}
 4395              		.cfi_endproc
 4396              	.LFE275:
 4397              		.size	mc_interface_set_handbrake, .-mc_interface_set_handbrake
 4398 0026 00BF     		.section	.text.mc_interface_set_handbrake_rel,"ax",%progbits
 4399              		.align	1
 4400              		.p2align 4,,15
 4401              		.global	mc_interface_set_handbrake_rel
 4402              		.syntax unified
 4403              		.thumb
 4404              		.thumb_func
 4405              		.fpu fpv4-sp-d16
 4406              		.type	mc_interface_set_handbrake_rel, %function
 4407              	mc_interface_set_handbrake_rel:
 4408              	.LFB276:
 4409              		.loc 1 509 0
 4410              		.cfi_startproc
 4411              		@ args = 0, pretend = 0, frame = 0
 4412              		@ frame_needed = 0, uses_anonymous_args = 0
 4413              	.LVL350:
 4414 0000 08B5     		push	{r3, lr}
 4415              		.cfi_def_cfa_offset 8
 4416              		.cfi_offset 3, -8
 4417              		.cfi_offset 14, -4
 4418              		.loc 1 510 0
 4419 0002 0B4B     		ldr	r3, .L577
 4420              		.loc 1 509 0
 4421 0004 2DED028B 		vpush.64	{d8}
 4422              		.cfi_def_cfa_offset 16
 4423              		.cfi_offset 80, -16
 4424              		.cfi_offset 81, -12
 4425              		.loc 1 509 0
 4426 0008 F0EE408A 		vmov.f32	s17, s0
 4427              		.loc 1 510 0
 4428 000c 93ED1E8A 		vldr.32	s16, [r3, #120]
 4429              	.LVL351:
 4430              	.LBB177:
 4431              	.LBB178:
 4432              		.loc 1 483 0
 4433 0010 FFF7FEFF 		bl	mc_interface_try_input
 4434              	.LVL352:
 4435 0014 10B1     		cbz	r0, .L576
 4436              	.LBE178:
 4437              	.LBE177:
 4438              		.loc 1 511 0
 4439 0016 BDEC028B 		vldm	sp!, {d8}
 4440              		.cfi_remember_state
 4441              		.cfi_restore 80
 4442              		.cfi_restore 81
 4443              		.cfi_def_cfa_offset 8
 4444              	.LVL353:
 4445 001a 08BD     		pop	{r3, pc}
 4446              	.LVL354:
ARM GAS  /tmp/ccETYwEL.s 			page 79


 4447              	.L576:
 4448              		.cfi_restore_state
 4449              		.loc 1 510 0
 4450 001c B0EEC80A 		vabs.f32	s0, s16
 4451              	.LBB181:
 4452              	.LBB179:
 4453 0020 20EE280A 		vmul.f32	s0, s0, s17
 4454              	.LBE179:
 4455              	.LBE181:
 4456              		.loc 1 511 0
 4457 0024 BDEC028B 		vldm	sp!, {d8}
 4458              		.cfi_restore 80
 4459              		.cfi_restore 81
 4460              		.cfi_def_cfa_offset 8
 4461              	.LVL355:
 4462 0028 BDE80840 		pop	{r3, lr}
 4463              		.cfi_restore 14
 4464              		.cfi_restore 3
 4465              		.cfi_def_cfa_offset 0
 4466              	.LBB182:
 4467              	.LBB180:
 4468 002c FFF7FEBF 		b	mc_interface_set_handbrake.part.3
 4469              	.LVL356:
 4470              	.L578:
 4471              		.align	2
 4472              	.L577:
 4473 0030 00000000 		.word	.LANCHOR12
 4474              	.LBE180:
 4475              	.LBE182:
 4476              		.cfi_endproc
 4477              	.LFE276:
 4478              		.size	mc_interface_set_handbrake_rel, .-mc_interface_set_handbrake_rel
 4479              		.section	.text.mc_interface_fault_stop,"ax",%progbits
 4480              		.align	1
 4481              		.p2align 4,,15
 4482              		.global	mc_interface_fault_stop
 4483              		.syntax unified
 4484              		.thumb
 4485              		.thumb_func
 4486              		.fpu fpv4-sp-d16
 4487              		.type	mc_interface_fault_stop, %function
 4488              	mc_interface_fault_stop:
 4489              	.LFB307:
 4490              		.loc 1 1020 0
 4491              		.cfi_startproc
 4492              		@ args = 0, pretend = 0, frame = 0
 4493              		@ frame_needed = 0, uses_anonymous_args = 0
 4494              		@ link register save eliminated.
 4495              	.LVL357:
 4496              		.loc 1 1021 0
 4497 0000 054B     		ldr	r3, .L584
 4498 0002 1B78     		ldrb	r3, [r3]	@ zero_extendqisi2
 4499 0004 8342     		cmp	r3, r0
 4500 0006 01D0     		beq	.L583
 4501 0008 FFF7FEBF 		b	mc_interface_fault_stop.part.4
 4502              	.LVL358:
 4503              	.L583:
ARM GAS  /tmp/ccETYwEL.s 			page 80


 4504              		.loc 1 1022 0
 4505 000c 034A     		ldr	r2, .L584+4
 4506 000e 044B     		ldr	r3, .L584+8
 4507 0010 D2F85821 		ldr	r2, [r2, #344]
 4508 0014 1A60     		str	r2, [r3]
 4509              		.loc 1 1078 0
 4510 0016 7047     		bx	lr
 4511              	.L585:
 4512              		.align	2
 4513              	.L584:
 4514 0018 00000000 		.word	.LANCHOR13
 4515 001c 00000000 		.word	.LANCHOR12
 4516 0020 00000000 		.word	.LANCHOR14
 4517              		.cfi_endproc
 4518              	.LFE307:
 4519              		.size	mc_interface_fault_stop, .-mc_interface_fault_stop
 4520              		.section	.text.mc_interface_mc_timer_isr,"ax",%progbits
 4521              		.align	1
 4522              		.p2align 4,,15
 4523              		.global	mc_interface_mc_timer_isr
 4524              		.syntax unified
 4525              		.thumb
 4526              		.thumb_func
 4527              		.fpu fpv4-sp-d16
 4528              		.type	mc_interface_mc_timer_isr, %function
 4529              	mc_interface_mc_timer_isr:
 4530              	.LFB308:
 4531              		.loc 1 1080 0
 4532              		.cfi_startproc
 4533              		@ args = 0, pretend = 0, frame = 8
 4534              		@ frame_needed = 0, uses_anonymous_args = 0
 4535 0000 2DE9F043 		push	{r4, r5, r6, r7, r8, r9, lr}
 4536              		.cfi_def_cfa_offset 28
 4537              		.cfi_offset 4, -28
 4538              		.cfi_offset 5, -24
 4539              		.cfi_offset 6, -20
 4540              		.cfi_offset 7, -16
 4541              		.cfi_offset 8, -12
 4542              		.cfi_offset 9, -8
 4543              		.cfi_offset 14, -4
 4544 0004 2DED048B 		vpush.64	{d8, d9}
 4545              		.cfi_def_cfa_offset 44
 4546              		.cfi_offset 80, -44
 4547              		.cfi_offset 81, -40
 4548              		.cfi_offset 82, -36
 4549              		.cfi_offset 83, -32
 4550              		.loc 1 1083 0
 4551 0008 7E4E     		ldr	r6, .L684
 4552              		.loc 1 1087 0
 4553 000a 7F4C     		ldr	r4, .L684+4
 4554              		.loc 1 1080 0
 4555 000c 83B0     		sub	sp, sp, #12
 4556              		.cfi_def_cfa_offset 56
 4557              		.loc 1 1081 0
 4558 000e FFF7FEFF 		bl	ledpwm_update_pwm
 4559              	.LVL359:
 4560              		.loc 1 1083 0
ARM GAS  /tmp/ccETYwEL.s 			page 81


 4561 0012 338A     		ldrh	r3, [r6, #16]
 4562 0014 DFED7D6A 		vldr.32	s13, .L684+8
 4563 0018 9FED7D7A 		vldr.32	s14, .L684+12
 4564              		.loc 1 1087 0
 4565 001c D4ED0B7A 		vldr.32	s15, [r4, #44]
 4566              		.loc 1 1083 0
 4567 0020 08EE103A 		vmov	s16, r3	@ int
 4568 0024 B8EE488A 		vcvt.f32.u32	s16, s16
 4569 0028 28EE268A 		vmul.f32	s16, s16, s13
 4570 002c 28EE078A 		vmul.f32	s16, s16, s14
 4571              	.LVL360:
 4572              		.loc 1 1087 0
 4573 0030 F4EEC87A 		vcmpe.f32	s15, s16
 4574 0034 F1EE10FA 		vmrs	APSR_nzcv, FPSCR
 4575 0038 07DC     		bgt	.L587
 4576              		.loc 1 1088 0 discriminator 1
 4577 003a D4ED0C7A 		vldr.32	s15, [r4, #48]
 4578              		.loc 1 1087 0 discriminator 1
 4579 003e F4EEC87A 		vcmpe.f32	s15, s16
 4580 0042 F1EE10FA 		vmrs	APSR_nzcv, FPSCR
 4581 0046 40F1D881 		bpl	.L662
 4582              	.L587:
 4583              		.loc 1 1089 0
 4584 004a 724A     		ldr	r2, .L684+16
 4585 004c 1368     		ldr	r3, [r2]
 4586 004e 0133     		adds	r3, r3, #1
 4587              		.loc 1 1091 0
 4588 0050 072B     		cmp	r3, #7
 4589              		.loc 1 1089 0
 4590 0052 1360     		str	r3, [r2]
 4591              		.loc 1 1091 0
 4592 0054 00F3B681 		bgt	.L673
 4593              	.L590:
 4594              		.loc 1 1099 0
 4595 0058 FFF7FEFF 		bl	mc_interface_get_state
 4596              	.LVL361:
 4597 005c 0228     		cmp	r0, #2
 4598 005e 00F0C781 		beq	.L674
 4599              	.L594:
 4600              		.loc 1 1102 0
 4601 0062 6D4B     		ldr	r3, .L684+20
 4602 0064 0022     		movs	r2, #0
 4603 0066 1A60     		str	r2, [r3]
 4604              	.L595:
 4605              		.loc 1 1105 0
 4606 0068 6C4B     		ldr	r3, .L684+24
 4607 006a 1B68     		ldr	r3, [r3]
 4608 006c 03B1     		cbz	r3, .L596
 4609              		.loc 1 1106 0
 4610 006e 9847     		blx	r3
 4611              	.LVL362:
 4612              	.L596:
 4613              		.loc 1 1109 0
 4614 0070 FFF7FEFF 		bl	mc_interface_get_tot_current_filtered
 4615              	.LVL363:
 4616 0074 F0EE408A 		vmov.f32	s17, s0
 4617              	.LVL364:
ARM GAS  /tmp/ccETYwEL.s 			page 82


 4618              		.loc 1 1110 0
 4619 0078 FFF7FEFF 		bl	mc_interface_get_tot_current_in_filtered
 4620              	.LVL365:
 4621              		.loc 1 1111 0
 4622 007c 6848     		ldr	r0, .L684+28
 4623              		.loc 1 1112 0
 4624 007e 6949     		ldr	r1, .L684+32
 4625              		.loc 1 1111 0
 4626 0080 D0ED007A 		vldr.32	s15, [r0]
 4627              		.loc 1 1113 0
 4628 0084 684A     		ldr	r2, .L684+36
 4629              		.loc 1 1114 0
 4630 0086 694B     		ldr	r3, .L684+40
 4631              		.loc 1 1111 0
 4632 0088 77EEA87A 		vadd.f32	s15, s15, s17
 4633              		.loc 1 1113 0
 4634 008c B7EE009A 		vmov.f32	s18, #1.0e+0
 4635              		.loc 1 1111 0
 4636 0090 C0ED007A 		vstr.32	s15, [r0]
 4637              		.loc 1 1112 0
 4638 0094 D1ED007A 		vldr.32	s15, [r1]
 4639 0098 77EE807A 		vadd.f32	s15, s15, s0
 4640              		.loc 1 1110 0
 4641 009c F0EE409A 		vmov.f32	s19, s0
 4642              	.LVL366:
 4643              		.loc 1 1112 0
 4644 00a0 C1ED007A 		vstr.32	s15, [r1]
 4645              		.loc 1 1113 0
 4646 00a4 D2ED007A 		vldr.32	s15, [r2]
 4647 00a8 77EE897A 		vadd.f32	s15, s15, s18
 4648 00ac C2ED007A 		vstr.32	s15, [r2]
 4649              		.loc 1 1114 0
 4650 00b0 D3ED007A 		vldr.32	s15, [r3]
 4651 00b4 77EE897A 		vadd.f32	s15, s15, s18
 4652 00b8 C3ED007A 		vstr.32	s15, [r3]
 4653              		.loc 1 1116 0
 4654 00bc FFF7FEFF 		bl	mcpwm_foc_get_id
 4655              	.LVL367:
 4656 00c0 5B4B     		ldr	r3, .L684+44
 4657 00c2 D3ED007A 		vldr.32	s15, [r3]
 4658 00c6 37EE800A 		vadd.f32	s0, s15, s0
 4659 00ca 83ED000A 		vstr.32	s0, [r3]
 4660              		.loc 1 1117 0
 4661 00ce FFF7FEFF 		bl	mcpwm_foc_get_iq
 4662              	.LVL368:
 4663 00d2 5849     		ldr	r1, .L684+48
 4664              		.loc 1 1118 0
 4665 00d4 584A     		ldr	r2, .L684+52
 4666              		.loc 1 1117 0
 4667 00d6 D1ED007A 		vldr.32	s15, [r1]
 4668              		.loc 1 1119 0
 4669 00da 584B     		ldr	r3, .L684+56
 4670              		.loc 1 1117 0
 4671 00dc 37EE800A 		vadd.f32	s0, s15, s0
 4672 00e0 81ED000A 		vstr.32	s0, [r1]
 4673              		.loc 1 1118 0
 4674 00e4 D2ED007A 		vldr.32	s15, [r2]
ARM GAS  /tmp/ccETYwEL.s 			page 83


 4675 00e8 77EE897A 		vadd.f32	s15, s15, s18
 4676 00ec C2ED007A 		vstr.32	s15, [r2]
 4677              		.loc 1 1119 0
 4678 00f0 D3ED007A 		vldr.32	s15, [r3]
 4679 00f4 37EE899A 		vadd.f32	s18, s15, s18
 4680 00f8 83ED009A 		vstr.32	s18, [r3]
 4681              		.loc 1 1121 0
 4682 00fc FFF7FEFF 		bl	mc_interface_get_tot_current
 4683              	.LVL369:
 4684              		.loc 1 1123 0
 4685 0100 A378     		ldrb	r3, [r4, #2]	@ zero_extendqisi2
 4686 0102 022B     		cmp	r3, #2
 4687              		.loc 1 1121 0
 4688 0104 B0EE409A 		vmov.f32	s18, s0
 4689              	.LVL370:
 4690              		.loc 1 1123 0
 4691 0108 00F0CB81 		beq	.L675
 4692              		.loc 1 1122 0
 4693 010c B0EE680A 		vmov.f32	s0, s17
 4694              	.LVL371:
 4695              	.L597:
 4696              		.loc 1 1130 0
 4697 0110 94F83C30 		ldrb	r3, [r4, #60]	@ zero_extendqisi2
 4698              		.loc 1 1131 0
 4699 0114 D4ED057A 		vldr.32	s15, [r4, #20]
 4700              		.loc 1 1130 0
 4701 0118 002B     		cmp	r3, #0
 4702 011a 00F04581 		beq	.L598
 4703              		.loc 1 1131 0
 4704 011e B0EEC00A 		vabs.f32	s0, s0
 4705              	.LVL372:
 4706 0122 B4EEE70A 		vcmpe.f32	s0, s15
 4707 0126 F1EE10FA 		vmrs	APSR_nzcv, FPSCR
 4708 012a 5CDD     		ble	.L599
 4709              	.LVL373:
 4710              	.LBB183:
 4711              	.LBB184:
 4712              		.loc 1 1021 0
 4713 012c 444B     		ldr	r3, .L684+60
 4714 012e 1B78     		ldrb	r3, [r3]	@ zero_extendqisi2
 4715 0130 042B     		cmp	r3, #4
 4716 0132 55D1     		bne	.L601
 4717              	.LVL374:
 4718              	.L680:
 4719              		.loc 1 1022 0
 4720 0134 434B     		ldr	r3, .L684+64
 4721 0136 D4F85821 		ldr	r2, [r4, #344]
 4722 013a 1A60     		str	r2, [r3]
 4723              	.LBE184:
 4724              	.LBE183:
 4725              		.loc 1 1141 0
 4726 013c 424B     		ldr	r3, .L684+68
 4727 013e 1B69     		ldr	r3, [r3, #16]
 4728 0140 DB04     		lsls	r3, r3, #19
 4729 0142 40F1AA81 		bpl	.L606
 4730              	.LVL375:
 4731              	.L605:
ARM GAS  /tmp/ccETYwEL.s 			page 84


 4732              		.loc 1 1146 0
 4733 0146 FFF7FEFF 		bl	mc_interface_get_sampling_frequency_now
 4734              	.LVL376:
 4735              		.loc 1 1147 0
 4736 014a F0EEE88A 		vabs.f32	s17, s17
 4737              	.LVL377:
 4738 014e F7EE006A 		vmov.f32	s13, #1.0e+0
 4739 0152 F4EEE68A 		vcmpe.f32	s17, s13
 4740 0156 F1EE10FA 		vmrs	APSR_nzcv, FPSCR
 4741              		.loc 1 1146 0
 4742 015a B0EE409A 		vmov.f32	s18, s0
 4743              	.LVL378:
 4744              		.loc 1 1147 0
 4745 015e 31DD     		ble	.L608
 4746              	.LBB186:
 4747              		.loc 1 1153 0
 4748 0160 86EE807A 		vdiv.f32	s14, s13, s0
 4749 0164 394A     		ldr	r2, .L684+72
 4750              		.loc 1 1152 0
 4751 0166 3A4B     		ldr	r3, .L684+76
 4752 0168 C9EE807A 		vdiv.f32	s15, s19, s0
 4753              		.loc 1 1153 0
 4754 016c 92ED006A 		vldr.32	s12, [r2]
 4755              		.loc 1 1152 0
 4756 0170 D3ED005A 		vldr.32	s11, [r3]
 4757              		.loc 1 1155 0
 4758 0174 DFED376A 		vldr.32	s13, .L684+80
 4759              		.loc 1 1153 0
 4760 0178 37EE067A 		vadd.f32	s14, s14, s12
 4761              		.loc 1 1152 0
 4762 017c 77EEA57A 		vadd.f32	s15, s15, s11
 4763              		.loc 1 1155 0
 4764 0180 B4EEE67A 		vcmpe.f32	s14, s13
 4765 0184 F1EE10FA 		vmrs	APSR_nzcv, FPSCR
 4766              		.loc 1 1152 0
 4767 0188 C3ED007A 		vstr.32	s15, [r3]
 4768              		.loc 1 1153 0
 4769 018c 82ED007A 		vstr.32	s14, [r2]
 4770              		.loc 1 1155 0
 4771 0190 18DB     		blt	.L608
 4772              		.loc 1 1156 0
 4773 0192 F5EEC07A 		vcmpe.f32	s15, #0
 4774 0196 F1EE10FA 		vmrs	APSR_nzcv, FPSCR
 4775 019a 27EE888A 		vmul.f32	s16, s15, s16
 4776              	.LVL379:
 4777 019e 40F3A081 		ble	.L663
 4778              		.loc 1 1157 0
 4779 01a2 2D48     		ldr	r0, .L684+84
 4780              		.loc 1 1158 0
 4781 01a4 2D49     		ldr	r1, .L684+88
 4782              		.loc 1 1157 0
 4783 01a6 90ED007A 		vldr.32	s14, [r0]
 4784 01aa 77EE877A 		vadd.f32	s15, s15, s14
 4785 01ae C0ED007A 		vstr.32	s15, [r0]
 4786              		.loc 1 1158 0
 4787 01b2 D1ED007A 		vldr.32	s15, [r1]
 4788 01b6 37EE888A 		vadd.f32	s16, s15, s16
ARM GAS  /tmp/ccETYwEL.s 			page 85


 4789 01ba 81ED008A 		vstr.32	s16, [r1]
 4790              	.L613:
 4791              		.loc 1 1164 0
 4792 01be 0021     		movs	r1, #0
 4793 01c0 1160     		str	r1, [r2]	@ float
 4794              		.loc 1 1165 0
 4795 01c2 1960     		str	r1, [r3]	@ float
 4796              	.L608:
 4797              	.LVL380:
 4798              	.LBE186:
 4799              		.loc 1 1171 0
 4800 01c4 264F     		ldr	r7, .L684+92
 4801 01c6 3B78     		ldrb	r3, [r7]	@ zero_extendqisi2
 4802 01c8 013B     		subs	r3, r3, #1
 4803 01ca 052B     		cmp	r3, #5
 4804 01cc 00F2E780 		bhi	.L586
 4805 01d0 DFE813F0 		tbh	[pc, r3, lsl #1]
 4806              	.L616:
 4807 01d4 4D01     		.2byte	(.L615-.L616)/2
 4808 01d6 2601     		.2byte	(.L617-.L616)/2
 4809 01d8 1701     		.2byte	(.L618-.L616)/2
 4810 01da 4800     		.2byte	(.L619-.L616)/2
 4811 01dc 1701     		.2byte	(.L618-.L616)/2
 4812 01de 4800     		.2byte	(.L619-.L616)/2
 4813              	.LVL381:
 4814              		.p2align 1
 4815              	.L601:
 4816              	.LBB187:
 4817              	.LBB188:
 4818 01e0 0420     		movs	r0, #4
 4819 01e2 FFF7FEFF 		bl	mc_interface_fault_stop.part.4
 4820              	.LVL382:
 4821              	.L599:
 4822              	.LBE188:
 4823              	.LBE187:
 4824              		.loc 1 1141 0
 4825 01e6 184B     		ldr	r3, .L684+68
 4826 01e8 1B69     		ldr	r3, [r3, #16]
 4827 01ea DA04     		lsls	r2, r3, #19
 4828 01ec ABD4     		bmi	.L605
 4829              	.LVL383:
 4830              	.LBB189:
 4831              	.LBB190:
 4832              		.loc 1 1021 0
 4833 01ee 144B     		ldr	r3, .L684+60
 4834 01f0 1B78     		ldrb	r3, [r3]	@ zero_extendqisi2
 4835 01f2 032B     		cmp	r3, #3
 4836 01f4 40F05181 		bne	.L606
 4837              		.loc 1 1022 0
 4838 01f8 124B     		ldr	r3, .L684+64
 4839 01fa D4F85821 		ldr	r2, [r4, #344]
 4840 01fe 1A60     		str	r2, [r3]
 4841 0200 A1E7     		b	.L605
 4842              	.L685:
 4843 0202 00BF     		.align	2
 4844              	.L684:
 4845 0204 00000000 		.word	.LANCHOR41
ARM GAS  /tmp/ccETYwEL.s 			page 86


 4846 0208 00000000 		.word	.LANCHOR12
 4847 020c 6740533A 		.word	978534503
 4848 0210 74D19541 		.word	1100337524
 4849 0214 00000000 		.word	.LANCHOR42
 4850 0218 00000000 		.word	.LANCHOR15
 4851 021c 00000000 		.word	.LANCHOR39
 4852 0220 00000000 		.word	.LANCHOR18
 4853 0224 00000000 		.word	.LANCHOR19
 4854 0228 00000000 		.word	.LANCHOR20
 4855 022c 00000000 		.word	.LANCHOR21
 4856 0230 00000000 		.word	.LANCHOR22
 4857 0234 00000000 		.word	.LANCHOR23
 4858 0238 00000000 		.word	.LANCHOR24
 4859 023c 00000000 		.word	.LANCHOR25
 4860 0240 00000000 		.word	.LANCHOR13
 4861 0244 00000000 		.word	.LANCHOR14
 4862 0248 00080240 		.word	1073874944
 4863 024c 00000000 		.word	.LANCHOR44
 4864 0250 00000000 		.word	.LANCHOR43
 4865 0254 0AD7233C 		.word	1008981770
 4866 0258 00000000 		.word	.LANCHOR26
 4867 025c 00000000 		.word	.LANCHOR28
 4868 0260 00000000 		.word	.LANCHOR36
 4869              	.LVL384:
 4870              	.L619:
 4871              	.LBE190:
 4872              	.LBE189:
 4873              	.LBB192:
 4874              		.loc 1 1233 0
 4875 0264 DFF85083 		ldr	r8, .L686+92
 4876 0268 D8F80030 		ldr	r3, [r8]
 4877 026c 002B     		cmp	r3, #0
 4878 026e 80F22281 		bge	.L676
 4879              		.loc 1 1232 0
 4880 0272 4FF0FF33 		mov	r3, #-1
 4881              	.LVL385:
 4882              	.L629:
 4883              		.loc 1 1240 0
 4884 0276 B94D     		ldr	r5, .L686
 4885 0278 2A68     		ldr	r2, [r5]
 4886 027a 9A42     		cmp	r2, r3
 4887 027c 00F05881 		beq	.L677
 4888              		.loc 1 1253 0
 4889 0280 B74B     		ldr	r3, .L686+4
 4890              	.LVL386:
 4891 0282 1B78     		ldrb	r3, [r3]	@ zero_extendqisi2
 4892 0284 33B1     		cbz	r3, .L621
 4893              	.LVL387:
 4894              	.L638:
 4895 0286 D8F80030 		ldr	r3, [r8]
 4896 028a 002B     		cmp	r3, #0
 4897              		.loc 1 1254 0
 4898 028c BCBF     		itt	lt
 4899 028e 2B68     		ldrlt	r3, [r5]
 4900 0290 C8F80030 		strlt	r3, [r8]
 4901              	.LVL388:
 4902              	.L621:
ARM GAS  /tmp/ccETYwEL.s 			page 87


 4903              	.LBE192:
 4904              	.LBB203:
 4905              		.loc 1 1264 0
 4906 0294 B34A     		ldr	r2, .L686+8
 4907              		.loc 1 1266 0
 4908 0296 B449     		ldr	r1, .L686+12
 4909              		.loc 1 1264 0
 4910 0298 1368     		ldr	r3, [r2]
 4911              		.loc 1 1266 0
 4912 029a 0968     		ldr	r1, [r1]
 4913              		.loc 1 1264 0
 4914 029c 0133     		adds	r3, r3, #1
 4915              		.loc 1 1266 0
 4916 029e 8B42     		cmp	r3, r1
 4917              		.loc 1 1264 0
 4918 02a0 1360     		str	r3, [r2]
 4919              		.loc 1 1266 0
 4920 02a2 7CDB     		blt	.L586
 4921              	.LBB204:
 4922              		.loc 1 1269 0
 4923 02a4 2968     		ldr	r1, [r5]
 4924              		.loc 1 1267 0
 4925 02a6 0023     		movs	r3, #0
 4926              		.loc 1 1269 0
 4927 02a8 B1F5FA6F 		cmp	r1, #2000
 4928              		.loc 1 1270 0
 4929 02ac A8BF     		it	ge
 4930 02ae 2B60     		strge	r3, [r5]
 4931              		.loc 1 1267 0
 4932 02b0 1360     		str	r3, [r2]
 4933              		.loc 1 1274 0
 4934 02b2 A378     		ldrb	r3, [r4, #2]	@ zero_extendqisi2
 4935 02b4 022B     		cmp	r3, #2
 4936 02b6 00F08381 		beq	.L678
 4937              		.loc 1 1281 0
 4938 02ba AC4B     		ldr	r3, .L686+16
 4939              		.loc 1 1282 0
 4940 02bc AC4F     		ldr	r7, .L686+20
 4941              		.loc 1 1281 0
 4942 02be 1C68     		ldr	r4, [r3]
 4943              		.loc 1 1282 0
 4944 02c0 2B68     		ldr	r3, [r5]
 4945 02c2 3B44     		add	r3, r3, r7
 4946 02c4 0022     		movs	r2, #0
 4947              		.loc 1 1281 0
 4948 02c6 24B2     		sxth	r4, r4
 4949              	.LVL389:
 4950              		.loc 1 1282 0
 4951 02c8 83F8082E 		strb	r2, [r3, #3592]
 4952              	.L634:
 4953              		.loc 1 1285 0
 4954 02cc FFF7FEFF 		bl	mc_interface_get_state
 4955              	.LVL390:
 4956 02d0 0128     		cmp	r0, #1
 4957 02d2 00F09581 		beq	.L679
 4958              		.loc 1 1293 0
 4959 02d6 A748     		ldr	r0, .L686+24
ARM GAS  /tmp/ccETYwEL.s 			page 88


 4960 02d8 A74B     		ldr	r3, .L686+28
 4961 02da 0268     		ldr	r2, [r0]
 4962 02dc D5F800C0 		ldr	ip, [r5]
 4963              		.loc 1 1296 0
 4964 02e0 A649     		ldr	r1, .L686+32
 4965              		.loc 1 1293 0
 4966 02e2 12B2     		sxth	r2, r2
 4967 02e4 23F81C20 		strh	r2, [r3, ip, lsl #1]	@ movhi
 4968              		.loc 1 1294 0
 4969 02e8 4268     		ldr	r2, [r0, #4]
 4970 02ea 2868     		ldr	r0, [r5]
 4971              		.loc 1 1297 0
 4972 02ec DFF8CCC2 		ldr	ip, .L686+96
 4973              		.loc 1 1294 0
 4974 02f0 03EB4003 		add	r3, r3, r0, lsl #1
 4975 02f4 12B2     		sxth	r2, r2
 4976 02f6 A3F8A02F 		strh	r2, [r3, #4000]	@ movhi
 4977              		.loc 1 1296 0
 4978 02fa B288     		ldrh	r2, [r6, #4]
 4979 02fc 2B68     		ldr	r3, [r5]
 4980 02fe A0B2     		uxth	r0, r4
 4981 0300 01EB4303 		add	r3, r1, r3, lsl #1
 4982 0304 121A     		subs	r2, r2, r0
 4983 0306 12B2     		sxth	r2, r2
 4984 0308 A3F8482E 		strh	r2, [r3, #3656]	@ movhi
 4985              		.loc 1 1297 0
 4986 030c 7288     		ldrh	r2, [r6, #2]
 4987 030e 2B68     		ldr	r3, [r5]
 4988              		.loc 1 1298 0
 4989 0310 9B49     		ldr	r1, .L686+36
 4990              		.loc 1 1297 0
 4991 0312 0CEB4303 		add	r3, ip, r3, lsl #1
 4992 0316 121A     		subs	r2, r2, r0
 4993 0318 12B2     		sxth	r2, r2
 4994 031a A3F8F02C 		strh	r2, [r3, #3312]	@ movhi
 4995              		.loc 1 1298 0
 4996 031e 3388     		ldrh	r3, [r6]
 4997 0320 2A68     		ldr	r2, [r5]
 4998 0322 1B1A     		subs	r3, r3, r0
 4999 0324 01EB4202 		add	r2, r1, r2, lsl #1
 5000 0328 1BB2     		sxth	r3, r3
 5001 032a A2F8983B 		strh	r3, [r2, #2968]	@ movhi
 5002              	.L636:
 5003              		.loc 1 1301 0
 5004 032e 2A68     		ldr	r2, [r5]
 5005 0330 944B     		ldr	r3, .L686+40
 5006 0332 03EB4203 		add	r3, r3, r2, lsl #1
 5007 0336 A3F8404A 		strh	r4, [r3, #2624]	@ movhi
 5008              		.loc 1 1302 0
 5009 033a FFF7FEFF 		bl	mc_interface_get_tot_current
 5010              	.LVL391:
 5011              		.loc 1 1303 0
 5012 033e F2EE047A 		vmov.f32	s15, #1.0e+1
 5013 0342 89EE277A 		vdiv.f32	s14, s18, s15
 5014              		.loc 1 1302 0
 5015 0346 2B68     		ldr	r3, [r5]
 5016 0348 8F48     		ldr	r0, .L686+44
ARM GAS  /tmp/ccETYwEL.s 			page 89


 5017              		.loc 1 1303 0
 5018 034a 9049     		ldr	r1, .L686+48
 5019              		.loc 1 1302 0
 5020 034c 00EB4300 		add	r0, r0, r3, lsl #1
 5021 0350 DFED8F7A 		vldr.32	s15, .L686+52
 5022              		.loc 1 1303 0
 5023 0354 BDEEC77A 		vcvt.s32.f32	s14, s14
 5024              		.loc 1 1302 0
 5025 0358 20EE270A 		vmul.f32	s0, s0, s15
 5026              		.loc 1 1303 0
 5027 035c 17EE103A 		vmov	r3, s14	@ int
 5028              		.loc 1 1302 0
 5029 0360 BDEEC00A 		vcvt.s32.f32	s0, s0
 5030              		.loc 1 1303 0
 5031 0364 1AB2     		sxth	r2, r3
 5032              		.loc 1 1302 0
 5033 0366 10EE103A 		vmov	r3, s0	@ int
 5034 036a 1BB2     		sxth	r3, r3
 5035 036c A0F8E838 		strh	r3, [r0, #2280]	@ movhi
 5036              		.loc 1 1303 0
 5037 0370 2B68     		ldr	r3, [r5]
 5038 0372 01EB4303 		add	r3, r1, r3, lsl #1
 5039 0376 A3F89027 		strh	r2, [r3, #1936]	@ movhi
 5040              		.loc 1 1304 0
 5041 037a FFF7FEFF 		bl	mcpwm_get_comm_step
 5042              	.LVL392:
 5043 037e 0446     		mov	r4, r0
 5044              	.LVL393:
 5045 0380 FFF7FEFF 		bl	mcpwm_read_hall_phase
 5046              	.LVL394:
 5047 0384 2B68     		ldr	r3, [r5]
 5048              	.LBB205:
 5049              	.LBB206:
 5050              		.loc 1 931 0
 5051 0386 834A     		ldr	r2, .L686+56
 5052              	.LBE206:
 5053              	.LBE205:
 5054              		.loc 1 1304 0
 5055 0388 1F44     		add	r7, r7, r3
 5056 038a 44EAC000 		orr	r0, r4, r0, lsl #3
 5057 038e C0B2     		uxtb	r0, r0
 5058 0390 87F83806 		strb	r0, [r7, #1592]
 5059              		.loc 1 1306 0
 5060 0394 2B68     		ldr	r3, [r5]
 5061 0396 0133     		adds	r3, r3, #1
 5062 0398 2B60     		str	r3, [r5]
 5063              	.LBB208:
 5064              	.LBB207:
 5065              		.loc 1 931 0
 5066 039a 1368     		ldr	r3, [r2]	@ float
 5067              	.LBE207:
 5068              	.LBE208:
 5069              		.loc 1 1308 0
 5070 039c 1360     		str	r3, [r2]	@ float
 5071              	.L586:
 5072              	.LBE204:
 5073              	.LBE203:
ARM GAS  /tmp/ccETYwEL.s 			page 90


 5074              		.loc 1 1311 0
 5075 039e 03B0     		add	sp, sp, #12
 5076              		.cfi_remember_state
 5077              		.cfi_def_cfa_offset 44
 5078              		@ sp needed
 5079 03a0 BDEC048B 		vldm	sp!, {d8-d9}
 5080              		.cfi_restore 82
 5081              		.cfi_restore 83
 5082              		.cfi_restore 80
 5083              		.cfi_restore 81
 5084              		.cfi_def_cfa_offset 28
 5085              	.LVL395:
 5086 03a4 BDE8F083 		pop	{r4, r5, r6, r7, r8, r9, pc}
 5087              	.LVL396:
 5088              	.L598:
 5089              		.cfi_restore_state
 5090              		.loc 1 1135 0
 5091 03a8 B0EEC99A 		vabs.f32	s18, s18
 5092              	.LVL397:
 5093 03ac B4EEE79A 		vcmpe.f32	s18, s15
 5094 03b0 F1EE10FA 		vmrs	APSR_nzcv, FPSCR
 5095 03b4 7FF717AF 		ble	.L599
 5096              	.LVL398:
 5097              	.LBB210:
 5098              	.LBB185:
 5099              		.loc 1 1021 0
 5100 03b8 694B     		ldr	r3, .L686+4
 5101 03ba 1B78     		ldrb	r3, [r3]	@ zero_extendqisi2
 5102 03bc 042B     		cmp	r3, #4
 5103 03be 3FF4B9AE 		beq	.L680
 5104 03c2 0DE7     		b	.L601
 5105              	.LVL399:
 5106              	.L673:
 5107              	.LBE185:
 5108              	.LBE210:
 5109              		.loc 1 1092 0
 5110 03c4 D4ED0B7A 		vldr.32	s15, [r4, #44]
 5111              	.LBB211:
 5112              	.LBB212:
 5113              		.loc 1 1021 0
 5114 03c8 654B     		ldr	r3, .L686+4
 5115              	.LBE212:
 5116              	.LBE211:
 5117              		.loc 1 1092 0
 5118 03ca F4EEC87A 		vcmpe.f32	s15, s16
 5119 03ce F1EE10FA 		vmrs	APSR_nzcv, FPSCR
 5120              	.LBB216:
 5121              	.LBB213:
 5122              		.loc 1 1021 0
 5123 03d2 1B78     		ldrb	r3, [r3]	@ zero_extendqisi2
 5124              	.LBE213:
 5125              	.LBE216:
 5126              		.loc 1 1092 0
 5127 03d4 CCBF     		ite	gt
 5128 03d6 0220     		movgt	r0, #2
 5129 03d8 0120     		movle	r0, #1
 5130              	.LVL400:
ARM GAS  /tmp/ccETYwEL.s 			page 91


 5131              	.LBB217:
 5132              	.LBB214:
 5133              		.loc 1 1021 0
 5134 03da 8342     		cmp	r3, r0
 5135 03dc 68D1     		bne	.L593
 5136              		.loc 1 1022 0
 5137 03de 6E4B     		ldr	r3, .L686+60
 5138 03e0 D4F85821 		ldr	r2, [r4, #344]
 5139 03e4 1A60     		str	r2, [r3]
 5140              	.LBE214:
 5141              	.LBE217:
 5142              		.loc 1 1099 0
 5143 03e6 FFF7FEFF 		bl	mc_interface_get_state
 5144              	.LVL401:
 5145 03ea 0228     		cmp	r0, #2
 5146 03ec 7FF439AE 		bne	.L594
 5147              	.L674:
 5148              		.loc 1 1100 0
 5149 03f0 6A4A     		ldr	r2, .L686+64
 5150 03f2 1368     		ldr	r3, [r2]
 5151 03f4 0133     		adds	r3, r3, #1
 5152 03f6 1360     		str	r3, [r2]
 5153 03f8 36E6     		b	.L595
 5154              	.L662:
 5155              		.loc 1 1096 0
 5156 03fa 694B     		ldr	r3, .L686+68
 5157 03fc 0022     		movs	r2, #0
 5158 03fe 1A60     		str	r2, [r3]
 5159 0400 2AE6     		b	.L590
 5160              	.LVL402:
 5161              	.L618:
 5162              	.LBB218:
 5163              		.loc 1 1203 0
 5164 0402 DFF8B481 		ldr	r8, .L686+92
 5165 0406 D8F80030 		ldr	r3, [r8]
 5166 040a 002B     		cmp	r3, #0
 5167 040c 5DDB     		blt	.L642
 5168              		.loc 1 1204 0
 5169 040e 654A     		ldr	r2, .L686+72
 5170 0410 D8F80030 		ldr	r3, [r8]
 5171 0414 1268     		ldr	r2, [r2]
 5172              	.LVL403:
 5173              		.loc 1 1205 0
 5174 0416 9B1A     		subs	r3, r3, r2
 5175              	.LVL404:
 5176 0418 59D5     		bpl	.L625
 5177              		.loc 1 1206 0
 5178 041a 03F5FA63 		add	r3, r3, #2000
 5179              	.LVL405:
 5180 041e 56E0     		b	.L625
 5181              	.LVL406:
 5182              	.L617:
 5183              	.LBE218:
 5184              		.loc 1 1185 0
 5185 0420 FFF7FEFF 		bl	mc_interface_get_state
 5186              	.LVL407:
 5187 0424 0228     		cmp	r0, #2
ARM GAS  /tmp/ccETYwEL.s 			page 92


 5188 0426 4D4D     		ldr	r5, .L686
 5189 0428 03D0     		beq	.L622
 5190              		.loc 1 1185 0 is_stmt 0 discriminator 1
 5191 042a 2B68     		ldr	r3, [r5]
 5192 042c 002B     		cmp	r3, #0
 5193 042e 40F33381 		ble	.L681
 5194              	.L622:
 5195              	.LVL408:
 5196              		.loc 1 1189 0 is_stmt 1
 5197 0432 5C4B     		ldr	r3, .L686+72
 5198 0434 2A68     		ldr	r2, [r5]
 5199 0436 1B68     		ldr	r3, [r3]
 5200 0438 9A42     		cmp	r2, r3
 5201 043a 7FF42BAF 		bne	.L621
 5202 043e 4FF00109 		mov	r9, #1
 5203              	.LVL409:
 5204              	.L637:
 5205              		.loc 1 1190 0
 5206 0442 3B78     		ldrb	r3, [r7]	@ zero_extendqisi2
 5207 0444 584A     		ldr	r2, .L686+76
 5208 0446 DBB2     		uxtb	r3, r3
 5209              		.loc 1 1191 0
 5210 0448 4FF00008 		mov	r8, #0
 5211              		.loc 1 1190 0
 5212 044c 1370     		strb	r3, [r2]
 5213              	.LBB229:
 5214              	.LBB230:
 5215              	.LBB231:
 5216              	.LBB232:
 5217              	.LBB233:
 5218              		.file 4 "ChibiOS_3.0.2/os/ext/CMSIS/include/core_cmFunc.h"
 5219              		.loc 4 546 0
 5220 044e 2023     		movs	r3, #32
 5221              	.LBE233:
 5222              	.LBE232:
 5223              	.LBE231:
 5224              	.LBE230:
 5225              	.LBE229:
 5226              		.loc 1 1191 0
 5227 0450 87F80080 		strb	r8, [r7]
 5228              	.LVL410:
 5229              	.LBB238:
 5230              	.LBB237:
 5231              	.LBB236:
 5232              	.LBB235:
 5233              	.LBB234:
 5234              		.loc 4 546 0
 5235              		.syntax unified
 5236              	@ 546 "ChibiOS_3.0.2/os/ext/CMSIS/include/core_cmFunc.h" 1
 5237 0454 83F31188 		MSR basepri, r3
 5238              	@ 0 "" 2
 5239              	.LVL411:
 5240              		.thumb
 5241              		.syntax unified
 5242              	.LBE234:
 5243              	.LBE235:
 5244              	.LBE236:
ARM GAS  /tmp/ccETYwEL.s 			page 93


 5245              	.LBE237:
 5246              	.LBE238:
 5247              		.loc 1 1193 0
 5248 0458 544B     		ldr	r3, .L686+80
 5249 045a 0121     		movs	r1, #1
 5250 045c 1868     		ldr	r0, [r3]
 5251 045e FFF7FEFF 		bl	chEvtSignalI
 5252              	.LVL412:
 5253              	.LBB239:
 5254              	.LBB240:
 5255              	.LBB241:
 5256              	.LBB242:
 5257              	.LBB243:
 5258              		.loc 4 546 0
 5259              		.syntax unified
 5260              	@ 546 "ChibiOS_3.0.2/os/ext/CMSIS/include/core_cmFunc.h" 1
 5261 0462 88F31188 		MSR basepri, r8
 5262              	@ 0 "" 2
 5263              	.LVL413:
 5264              		.thumb
 5265              		.syntax unified
 5266              	.LBE243:
 5267              	.LBE242:
 5268              	.LBE241:
 5269              	.LBE240:
 5270              	.LBE239:
 5271              		.loc 1 1262 0
 5272 0466 B9F1000F 		cmp	r9, #0
 5273 046a 98D0     		beq	.L586
 5274 046c 12E7     		b	.L621
 5275              	.LVL414:
 5276              	.L615:
 5277              		.loc 1 1173 0
 5278 046e 3B4D     		ldr	r5, .L686
 5279 0470 4C4B     		ldr	r3, .L686+72
 5280 0472 2A68     		ldr	r2, [r5]
 5281 0474 1B68     		ldr	r3, [r3]
 5282 0476 9A42     		cmp	r2, r3
 5283 0478 7FF40CAF 		bne	.L621
 5284              		.loc 1 1175 0
 5285 047c 4A4A     		ldr	r2, .L686+76
 5286              		.loc 1 1174 0
 5287 047e 0024     		movs	r4, #0
 5288              		.loc 1 1175 0
 5289 0480 0121     		movs	r1, #1
 5290              		.loc 1 1174 0
 5291 0482 3C70     		strb	r4, [r7]
 5292              	.LBB244:
 5293              	.LBB245:
 5294              	.LBB246:
 5295              	.LBB247:
 5296              	.LBB248:
 5297              		.loc 4 546 0
 5298 0484 2023     		movs	r3, #32
 5299              	.LBE248:
 5300              	.LBE247:
 5301              	.LBE246:
ARM GAS  /tmp/ccETYwEL.s 			page 94


 5302              	.LBE245:
 5303              	.LBE244:
 5304              		.loc 1 1175 0
 5305 0486 1170     		strb	r1, [r2]
 5306              	.LVL415:
 5307              	.LBB253:
 5308              	.LBB252:
 5309              	.LBB251:
 5310              	.LBB250:
 5311              	.LBB249:
 5312              		.loc 4 546 0
 5313              		.syntax unified
 5314              	@ 546 "ChibiOS_3.0.2/os/ext/CMSIS/include/core_cmFunc.h" 1
 5315 0488 83F31188 		MSR basepri, r3
 5316              	@ 0 "" 2
 5317              	.LVL416:
 5318              		.thumb
 5319              		.syntax unified
 5320              	.LBE249:
 5321              	.LBE250:
 5322              	.LBE251:
 5323              	.LBE252:
 5324              	.LBE253:
 5325              		.loc 1 1177 0
 5326 048c 474B     		ldr	r3, .L686+80
 5327 048e 1868     		ldr	r0, [r3]
 5328 0490 FFF7FEFF 		bl	chEvtSignalI
 5329              	.LVL417:
 5330              	.LBB254:
 5331              	.LBB255:
 5332              	.LBB256:
 5333              	.LBB257:
 5334              	.LBB258:
 5335              		.loc 4 546 0
 5336              		.syntax unified
 5337              	@ 546 "ChibiOS_3.0.2/os/ext/CMSIS/include/core_cmFunc.h" 1
 5338 0494 84F31188 		MSR basepri, r4
 5339              	@ 0 "" 2
 5340              	.LVL418:
 5341              		.thumb
 5342              		.syntax unified
 5343 0498 81E7     		b	.L586
 5344              	.LVL419:
 5345              	.L606:
 5346              	.LBE258:
 5347              	.LBE257:
 5348              	.LBE256:
 5349              	.LBE255:
 5350              	.LBE254:
 5351              	.LBB259:
 5352              	.LBB191:
 5353 049a 0320     		movs	r0, #3
 5354 049c FFF7FEFF 		bl	mc_interface_fault_stop.part.4
 5355              	.LVL420:
 5356 04a0 51E6     		b	.L605
 5357              	.LVL421:
 5358              	.L675:
ARM GAS  /tmp/ccETYwEL.s 			page 95


 5359              	.LBE191:
 5360              	.LBE259:
 5361              		.loc 1 1125 0
 5362 04a2 FFF7FEFF 		bl	mcpwm_foc_get_abs_motor_current
 5363              	.LVL422:
 5364 04a6 B0EE409A 		vmov.f32	s18, s0
 5365              	.LVL423:
 5366              		.loc 1 1126 0
 5367 04aa FFF7FEFF 		bl	mcpwm_foc_get_abs_motor_current_filtered
 5368              	.LVL424:
 5369 04ae 2FE6     		b	.L597
 5370              	.LVL425:
 5371              	.L593:
 5372              	.LBB260:
 5373              	.LBB215:
 5374 04b0 FFF7FEFF 		bl	mc_interface_fault_stop.part.4
 5375              	.LVL426:
 5376 04b4 D0E5     		b	.L590
 5377              	.LVL427:
 5378              	.L676:
 5379              	.LBE215:
 5380              	.LBE260:
 5381              	.LBB261:
 5382              		.loc 1 1234 0
 5383 04b6 3B4A     		ldr	r2, .L686+72
 5384 04b8 D8F80030 		ldr	r3, [r8]
 5385 04bc 1268     		ldr	r2, [r2]
 5386              	.LVL428:
 5387              		.loc 1 1235 0
 5388 04be 9B1A     		subs	r3, r3, r2
 5389              	.LVL429:
 5390 04c0 7FF5D9AE 		bpl	.L629
 5391              		.loc 1 1236 0
 5392 04c4 03F5FA63 		add	r3, r3, #2000
 5393              	.LVL430:
 5394 04c8 D5E6     		b	.L629
 5395              	.LVL431:
 5396              	.L642:
 5397              	.LBE261:
 5398              	.LBB262:
 5399              		.loc 1 1202 0
 5400 04ca 4FF0FF33 		mov	r3, #-1
 5401              	.LVL432:
 5402              	.L625:
 5403              		.loc 1 1210 0
 5404 04ce 234D     		ldr	r5, .L686
 5405 04d0 2A68     		ldr	r2, [r5]
 5406 04d2 9A42     		cmp	r2, r3
 5407 04d4 14D0     		beq	.L626
 5408              		.loc 1 1223 0
 5409 04d6 FFF7FEFF 		bl	mc_interface_get_state
 5410              	.LVL433:
 5411 04da 0228     		cmp	r0, #2
 5412 04dc 7FF4DAAE 		bne	.L621
 5413 04e0 D1E6     		b	.L638
 5414              	.LVL434:
 5415              	.L663:
ARM GAS  /tmp/ccETYwEL.s 			page 96


 5416              	.LBE262:
 5417              	.LBB263:
 5418              		.loc 1 1160 0
 5419 04e2 3348     		ldr	r0, .L686+84
 5420              		.loc 1 1161 0
 5421 04e4 3349     		ldr	r1, .L686+88
 5422              		.loc 1 1160 0
 5423 04e6 90ED007A 		vldr.32	s14, [r0]
 5424 04ea 77EE677A 		vsub.f32	s15, s14, s15
 5425 04ee C0ED007A 		vstr.32	s15, [r0]
 5426              		.loc 1 1161 0
 5427 04f2 D1ED007A 		vldr.32	s15, [r1]
 5428 04f6 37EEC88A 		vsub.f32	s16, s15, s16
 5429 04fa 81ED008A 		vstr.32	s16, [r1]
 5430 04fe 5EE6     		b	.L613
 5431              	.LVL435:
 5432              	.L626:
 5433              	.LBE263:
 5434              	.LBB264:
 5435              		.loc 1 1211 0
 5436 0500 3B78     		ldrb	r3, [r7]	@ zero_extendqisi2
 5437              	.LVL436:
 5438 0502 294A     		ldr	r2, .L686+76
 5439 0504 DBB2     		uxtb	r3, r3
 5440 0506 1370     		strb	r3, [r2]
 5441              	.LVL437:
 5442              		.loc 1 1214 0
 5443 0508 3B78     		ldrb	r3, [r7]	@ zero_extendqisi2
 5444 050a 032B     		cmp	r3, #3
 5445 050c 00F0CD80 		beq	.L682
 5446              	.LVL438:
 5447              	.L627:
 5448              		.loc 1 1220 0
 5449 0510 0023     		movs	r3, #0
 5450 0512 3B70     		strb	r3, [r7]
 5451              		.loc 1 1223 0
 5452 0514 FFF7FEFF 		bl	mc_interface_get_state
 5453              	.LVL439:
 5454 0518 0228     		cmp	r0, #2
 5455 051a 7FF440AF 		bne	.L586
 5456 051e D8F80030 		ldr	r3, [r8]
 5457 0522 002B     		cmp	r3, #0
 5458 0524 BFF63BAF 		bge	.L586
 5459              	.L669:
 5460              	.LBE264:
 5461              	.LBB265:
 5462              		.loc 1 1254 0
 5463 0528 2B68     		ldr	r3, [r5]
 5464 052a C8F80030 		str	r3, [r8]
 5465 052e 36E7     		b	.L586
 5466              	.LVL440:
 5467              	.L677:
 5468              		.loc 1 1241 0
 5469 0530 3B78     		ldrb	r3, [r7]	@ zero_extendqisi2
 5470              	.LVL441:
 5471 0532 1D4A     		ldr	r2, .L686+76
 5472 0534 DBB2     		uxtb	r3, r3
ARM GAS  /tmp/ccETYwEL.s 			page 97


 5473 0536 1370     		strb	r3, [r2]
 5474              	.LVL442:
 5475              		.loc 1 1244 0
 5476 0538 3B78     		ldrb	r3, [r7]	@ zero_extendqisi2
 5477 053a 042B     		cmp	r3, #4
 5478 053c 00F0C180 		beq	.L683
 5479              	.LVL443:
 5480              	.L631:
 5481              		.loc 1 1253 0
 5482 0540 074B     		ldr	r3, .L686+4
 5483 0542 1B78     		ldrb	r3, [r3]	@ zero_extendqisi2
 5484              		.loc 1 1250 0
 5485 0544 0022     		movs	r2, #0
 5486 0546 3A70     		strb	r2, [r7]
 5487              		.loc 1 1253 0
 5488 0548 002B     		cmp	r3, #0
 5489 054a 3FF428AF 		beq	.L586
 5490 054e D8F80030 		ldr	r3, [r8]
 5491 0552 9342     		cmp	r3, r2
 5492 0554 BFF623AF 		bge	.L586
 5493 0558 E6E7     		b	.L669
 5494              	.L687:
 5495 055a 00BF     		.align	2
 5496              	.L686:
 5497 055c 00000000 		.word	.LANCHOR35
 5498 0560 00000000 		.word	.LANCHOR13
 5499 0564 00000000 		.word	.LANCHOR45
 5500 0568 00000000 		.word	.LANCHOR34
 5501 056c 00000000 		.word	mcpwm_vzero
 5502 0570 C8760000 		.word	.LANCHOR11
 5503 0574 00000000 		.word	.LANCHOR46
 5504 0578 00000000 		.word	.LANCHOR4
 5505 057c F8100000 		.word	.LANCHOR5
 5506 0580 E8320000 		.word	.LANCHOR7
 5507 0584 E0430000 		.word	.LANCHOR8
 5508 0588 D8540000 		.word	.LANCHOR9
 5509 058c D0650000 		.word	.LANCHOR10
 5510 0590 A48BC642 		.word	1120308132
 5511 0594 00000000 		.word	.LANCHOR31
 5512 0598 00000000 		.word	.LANCHOR14
 5513 059c 00000000 		.word	.LANCHOR15
 5514 05a0 00000000 		.word	.LANCHOR42
 5515 05a4 00000000 		.word	.LANCHOR2
 5516 05a8 00000000 		.word	.LANCHOR1
 5517 05ac 00000000 		.word	.LANCHOR0
 5518 05b0 00000000 		.word	.LANCHOR27
 5519 05b4 00000000 		.word	.LANCHOR29
 5520 05b8 00000000 		.word	.LANCHOR3
 5521 05bc F0210000 		.word	.LANCHOR6
 5522              	.LVL444:
 5523              	.L678:
 5524              	.LBE265:
 5525              	.LBB266:
 5526              	.LBB209:
 5527              		.loc 1 1275 0
 5528 05c0 B188     		ldrh	r1, [r6, #4]
 5529 05c2 7488     		ldrh	r4, [r6, #2]
ARM GAS  /tmp/ccETYwEL.s 			page 98


 5530 05c4 3288     		ldrh	r2, [r6]
 5531 05c6 454B     		ldr	r3, .L688
 5532              		.loc 1 1276 0
 5533 05c8 454F     		ldr	r7, .L688+4
 5534              		.loc 1 1275 0
 5535 05ca 0C44     		add	r4, r4, r1
 5536 05cc 1444     		add	r4, r4, r2
 5537 05ce A3FB0434 		umull	r3, r4, r3, r4
 5538              		.loc 1 1276 0
 5539 05d2 FFF7FEFF 		bl	mcpwm_foc_get_phase
 5540              	.LVL445:
 5541 05d6 9FED437A 		vldr.32	s14, .L688+8
 5542 05da DFED437A 		vldr.32	s15, .L688+12
 5543 05de 2B68     		ldr	r3, [r5]
 5544 05e0 80EE070A 		vdiv.f32	s0, s0, s14
 5545 05e4 3B44     		add	r3, r3, r7
 5546              		.loc 1 1275 0
 5547 05e6 44F34F04 		sbfx	r4, r4, #1, #16
 5548              	.LVL446:
 5549              		.loc 1 1276 0
 5550 05ea 20EE270A 		vmul.f32	s0, s0, s15
 5551 05ee FCEEC07A 		vcvt.u32.f32	s15, s0
 5552 05f2 CDED017A 		vstr.32	s15, [sp, #4]	@ int
 5553 05f6 9DF90420 		ldrsb	r2, [sp, #4]
 5554 05fa 83F8082E 		strb	r2, [r3, #3592]
 5555 05fe 65E6     		b	.L634
 5556              	.L679:
 5557              		.loc 1 1286 0
 5558 0600 FFF7FEFF 		bl	mcpwm_get_comm_step
 5559              	.LVL447:
 5560 0604 394B     		ldr	r3, .L688+16
 5561 0606 3A4E     		ldr	r6, .L688+20
 5562 0608 0138     		subs	r0, r0, #1
 5563 060a 03EB8003 		add	r3, r3, r0, lsl #2
 5564 060e D3ED007A 		vldr.32	s15, [r3]
 5565 0612 2A68     		ldr	r2, [r5]
 5566 0614 FDEEE77A 		vcvt.s32.f32	s15, s15
 5567 0618 17EE903A 		vmov	r3, s15	@ int
 5568 061c 1BB2     		sxth	r3, r3
 5569 061e 26F81230 		strh	r3, [r6, r2, lsl #1]	@ movhi
 5570              		.loc 1 1287 0
 5571 0622 FFF7FEFF 		bl	mcpwm_get_comm_step
 5572              	.LVL448:
 5573 0626 334B     		ldr	r3, .L688+24
 5574              		.loc 1 1289 0
 5575 0628 3349     		ldr	r1, .L688+28
 5576 062a 344A     		ldr	r2, .L688+32
 5577              		.loc 1 1287 0
 5578 062c 0138     		subs	r0, r0, #1
 5579 062e 03EB8003 		add	r3, r3, r0, lsl #2
 5580 0632 D3ED007A 		vldr.32	s15, [r3]
 5581 0636 2B68     		ldr	r3, [r5]
 5582              		.loc 1 1290 0
 5583 0638 3148     		ldr	r0, .L688+36
 5584              		.loc 1 1287 0
 5585 063a FDEEE77A 		vcvt.s32.f32	s15, s15
 5586 063e 06EB4306 		add	r6, r6, r3, lsl #1
ARM GAS  /tmp/ccETYwEL.s 			page 99


 5587 0642 17EE903A 		vmov	r3, s15	@ int
 5588 0646 1BB2     		sxth	r3, r3
 5589 0648 A6F8A03F 		strh	r3, [r6, #4000]	@ movhi
 5590              		.loc 1 1289 0
 5591 064c D1ED007A 		vldr.32	s15, [r1]
 5592 0650 2B68     		ldr	r3, [r5]
 5593 0652 FDEEE77A 		vcvt.s32.f32	s15, s15
 5594 0656 02EB4302 		add	r2, r2, r3, lsl #1
 5595 065a 17EE903A 		vmov	r3, s15	@ int
 5596 065e 1BB2     		sxth	r3, r3
 5597 0660 A2F8483E 		strh	r3, [r2, #3656]	@ movhi
 5598              		.loc 1 1290 0
 5599 0664 D1ED017A 		vldr.32	s15, [r1, #4]
 5600 0668 2B68     		ldr	r3, [r5]
 5601              		.loc 1 1291 0
 5602 066a 264A     		ldr	r2, .L688+40
 5603              		.loc 1 1290 0
 5604 066c FDEEE77A 		vcvt.s32.f32	s15, s15
 5605 0670 00EB4300 		add	r0, r0, r3, lsl #1
 5606 0674 17EE903A 		vmov	r3, s15	@ int
 5607 0678 1BB2     		sxth	r3, r3
 5608 067a A0F8F03C 		strh	r3, [r0, #3312]	@ movhi
 5609              		.loc 1 1291 0
 5610 067e D1ED027A 		vldr.32	s15, [r1, #8]
 5611 0682 2B68     		ldr	r3, [r5]
 5612 0684 FDEEE77A 		vcvt.s32.f32	s15, s15
 5613 0688 02EB4302 		add	r2, r2, r3, lsl #1
 5614 068c 17EE903A 		vmov	r3, s15	@ int
 5615 0690 1BB2     		sxth	r3, r3
 5616 0692 A2F8983B 		strh	r3, [r2, #2968]	@ movhi
 5617 0696 4AE6     		b	.L636
 5618              	.LVL449:
 5619              	.L681:
 5620              	.LBE209:
 5621              	.LBE266:
 5622              		.loc 1 1189 0
 5623 0698 1B4B     		ldr	r3, .L688+44
 5624 069a 2A68     		ldr	r2, [r5]
 5625 069c 1B68     		ldr	r3, [r3]
 5626 069e 9A42     		cmp	r2, r3
 5627 06a0 7FF47DAE 		bne	.L586
 5628              		.loc 1 1169 0
 5629 06a4 4FF00009 		mov	r9, #0
 5630 06a8 CBE6     		b	.L637
 5631              	.LVL450:
 5632              	.L682:
 5633              	.LBB267:
 5634              	.LBB219:
 5635              	.LBB220:
 5636              	.LBB221:
 5637              	.LBB222:
 5638              	.LBB223:
 5639              		.loc 4 546 0
 5640 06aa 2023     		movs	r3, #32
 5641              		.syntax unified
 5642              	@ 546 "ChibiOS_3.0.2/os/ext/CMSIS/include/core_cmFunc.h" 1
 5643 06ac 83F31188 		MSR basepri, r3
ARM GAS  /tmp/ccETYwEL.s 			page 100


 5644              	@ 0 "" 2
 5645              	.LVL451:
 5646              		.thumb
 5647              		.syntax unified
 5648              	.LBE223:
 5649              	.LBE222:
 5650              	.LBE221:
 5651              	.LBE220:
 5652              	.LBE219:
 5653              		.loc 1 1216 0
 5654 06b0 164B     		ldr	r3, .L688+48
 5655 06b2 0121     		movs	r1, #1
 5656 06b4 1868     		ldr	r0, [r3]
 5657 06b6 FFF7FEFF 		bl	chEvtSignalI
 5658              	.LVL452:
 5659              	.LBB224:
 5660              	.LBB225:
 5661              	.LBB226:
 5662              	.LBB227:
 5663              	.LBB228:
 5664              		.loc 4 546 0
 5665 06ba 0023     		movs	r3, #0
 5666              		.syntax unified
 5667              	@ 546 "ChibiOS_3.0.2/os/ext/CMSIS/include/core_cmFunc.h" 1
 5668 06bc 83F31188 		MSR basepri, r3
 5669              	@ 0 "" 2
 5670              	.LVL453:
 5671              		.thumb
 5672              		.syntax unified
 5673 06c0 26E7     		b	.L627
 5674              	.LVL454:
 5675              	.L683:
 5676              	.LBE228:
 5677              	.LBE227:
 5678              	.LBE226:
 5679              	.LBE225:
 5680              	.LBE224:
 5681              	.LBE267:
 5682              	.LBB268:
 5683              	.LBB193:
 5684              	.LBB194:
 5685              	.LBB195:
 5686              	.LBB196:
 5687              	.LBB197:
 5688 06c2 2023     		movs	r3, #32
 5689              		.syntax unified
 5690              	@ 546 "ChibiOS_3.0.2/os/ext/CMSIS/include/core_cmFunc.h" 1
 5691 06c4 83F31188 		MSR basepri, r3
 5692              	@ 0 "" 2
 5693              	.LVL455:
 5694              		.thumb
 5695              		.syntax unified
 5696              	.LBE197:
 5697              	.LBE196:
 5698              	.LBE195:
 5699              	.LBE194:
 5700              	.LBE193:
ARM GAS  /tmp/ccETYwEL.s 			page 101


 5701              		.loc 1 1246 0
 5702 06c8 104B     		ldr	r3, .L688+48
 5703 06ca 0121     		movs	r1, #1
 5704 06cc 1868     		ldr	r0, [r3]
 5705 06ce FFF7FEFF 		bl	chEvtSignalI
 5706              	.LVL456:
 5707              	.LBB198:
 5708              	.LBB199:
 5709              	.LBB200:
 5710              	.LBB201:
 5711              	.LBB202:
 5712              		.loc 4 546 0
 5713 06d2 0023     		movs	r3, #0
 5714              		.syntax unified
 5715              	@ 546 "ChibiOS_3.0.2/os/ext/CMSIS/include/core_cmFunc.h" 1
 5716 06d4 83F31188 		MSR basepri, r3
 5717              	@ 0 "" 2
 5718              	.LVL457:
 5719              		.thumb
 5720              		.syntax unified
 5721 06d8 32E7     		b	.L631
 5722              	.L689:
 5723 06da 00BF     		.align	2
 5724              	.L688:
 5725 06dc ABAAAAAA 		.word	-1431655765
 5726 06e0 C8760000 		.word	.LANCHOR11
 5727 06e4 0000B443 		.word	1135869952
 5728 06e8 00007A43 		.word	1132068864
 5729 06ec 00000000 		.word	mcpwm_detect_currents
 5730 06f0 00000000 		.word	.LANCHOR4
 5731 06f4 00000000 		.word	mcpwm_detect_currents_diff
 5732 06f8 00000000 		.word	mcpwm_detect_voltages
 5733 06fc F8100000 		.word	.LANCHOR5
 5734 0700 F0210000 		.word	.LANCHOR6
 5735 0704 E8320000 		.word	.LANCHOR7
 5736 0708 00000000 		.word	.LANCHOR2
 5737 070c 00000000 		.word	.LANCHOR0
 5738              	.LBE202:
 5739              	.LBE201:
 5740              	.LBE200:
 5741              	.LBE199:
 5742              	.LBE198:
 5743              	.LBE268:
 5744              		.cfi_endproc
 5745              	.LFE308:
 5746              		.size	mc_interface_mc_timer_isr, .-mc_interface_mc_timer_isr
 5747              		.section	.text.mc_interface_adc_inj_int_handler,"ax",%progbits
 5748              		.align	1
 5749              		.p2align 4,,15
 5750              		.global	mc_interface_adc_inj_int_handler
 5751              		.syntax unified
 5752              		.thumb
 5753              		.thumb_func
 5754              		.fpu fpv4-sp-d16
 5755              		.type	mc_interface_adc_inj_int_handler, %function
 5756              	mc_interface_adc_inj_int_handler:
 5757              	.LFB309:
ARM GAS  /tmp/ccETYwEL.s 			page 102


 5758              		.loc 1 1313 0
 5759              		.cfi_startproc
 5760              		@ args = 0, pretend = 0, frame = 0
 5761              		@ frame_needed = 0, uses_anonymous_args = 0
 5762              		@ link register save eliminated.
 5763              		.loc 1 1314 0
 5764 0000 034B     		ldr	r3, .L694
 5765 0002 9B78     		ldrb	r3, [r3, #2]	@ zero_extendqisi2
 5766 0004 012B     		cmp	r3, #1
 5767 0006 00D9     		bls	.L693
 5768              		.loc 1 1326 0
 5769 0008 7047     		bx	lr
 5770              	.L693:
 5771              		.loc 1 1317 0
 5772 000a FFF7FEBF 		b	mcpwm_adc_inj_int_handler
 5773              	.LVL458:
 5774              	.L695:
 5775 000e 00BF     		.align	2
 5776              	.L694:
 5777 0010 00000000 		.word	.LANCHOR12
 5778              		.cfi_endproc
 5779              	.LFE309:
 5780              		.size	mc_interface_adc_inj_int_handler, .-mc_interface_adc_inj_int_handler
 5781              		.global	ADC_curr_norm_value
 5782              		.global	ADC_Value
 5783              		.section	.bss.ADC_Value,"aw",%nobits
 5784              		.align	2
 5785              		.set	.LANCHOR41,. + 0
 5786              		.type	ADC_Value, %object
 5787              		.size	ADC_Value, 24
 5788              	ADC_Value:
 5789 0000 00000000 		.space	24
 5789      00000000 
 5789      00000000 
 5789      00000000 
 5789      00000000 
 5790              		.section	.bss.ADC_curr_norm_value,"aw",%nobits
 5791              		.align	2
 5792              		.set	.LANCHOR46,. + 0
 5793              		.type	ADC_curr_norm_value, %object
 5794              		.size	ADC_curr_norm_value, 12
 5795              	ADC_curr_norm_value:
 5796 0000 00000000 		.space	12
 5796      00000000 
 5796      00000000 
 5797              		.section	.bss.a.12115,"aw",%nobits
 5798              		.align	2
 5799              		.set	.LANCHOR45,. + 0
 5800              		.type	a.12115, %object
 5801              		.size	a.12115, 4
 5802              	a.12115:
 5803 0000 00000000 		.space	4
 5804              		.section	.bss.curr_diff_samples.12103,"aw",%nobits
 5805              		.align	2
 5806              		.set	.LANCHOR44,. + 0
 5807              		.type	curr_diff_samples.12103, %object
 5808              		.size	curr_diff_samples.12103, 4
ARM GAS  /tmp/ccETYwEL.s 			page 103


 5809              	curr_diff_samples.12103:
 5810 0000 00000000 		.space	4
 5811              		.section	.bss.curr_diff_sum.12102,"aw",%nobits
 5812              		.align	2
 5813              		.set	.LANCHOR43,. + 0
 5814              		.type	curr_diff_sum.12102, %object
 5815              		.size	curr_diff_sum.12102, 4
 5816              	curr_diff_sum.12102:
 5817 0000 00000000 		.space	4
 5818              		.section	.bss.m_amp_seconds,"aw",%nobits
 5819              		.align	2
 5820              		.set	.LANCHOR26,. + 0
 5821              		.type	m_amp_seconds, %object
 5822              		.size	m_amp_seconds, 4
 5823              	m_amp_seconds:
 5824 0000 00000000 		.space	4
 5825              		.section	.bss.m_amp_seconds_charged,"aw",%nobits
 5826              		.align	2
 5827              		.set	.LANCHOR27,. + 0
 5828              		.type	m_amp_seconds_charged, %object
 5829              		.size	m_amp_seconds_charged, 4
 5830              	m_amp_seconds_charged:
 5831 0000 00000000 		.space	4
 5832              		.section	.bss.m_conf,"aw",%nobits
 5833              		.align	2
 5834              		.set	.LANCHOR12,. + 0
 5835              		.type	m_conf, %object
 5836              		.size	m_conf, 388
 5837              	m_conf:
 5838 0000 00000000 		.space	388
 5838      00000000 
 5838      00000000 
 5838      00000000 
 5838      00000000 
 5839              		.section	.bss.m_cycles_running,"aw",%nobits
 5840              		.align	2
 5841              		.set	.LANCHOR15,. + 0
 5842              		.type	m_cycles_running, %object
 5843              		.size	m_cycles_running, 4
 5844              	m_cycles_running:
 5845 0000 00000000 		.space	4
 5846              		.section	.bss.m_fault_now,"aw",%nobits
 5847              		.set	.LANCHOR13,. + 0
 5848              		.type	m_fault_now, %object
 5849              		.size	m_fault_now, 1
 5850              	m_fault_now:
 5851 0000 00       		.space	1
 5852              		.section	.bss.m_ignore_iterations,"aw",%nobits
 5853              		.align	2
 5854              		.set	.LANCHOR14,. + 0
 5855              		.type	m_ignore_iterations, %object
 5856              		.size	m_ignore_iterations, 4
 5857              	m_ignore_iterations:
 5858 0000 00000000 		.space	4
 5859              		.section	.bss.m_input_current_iterations,"aw",%nobits
 5860              		.align	2
 5861              		.set	.LANCHOR21,. + 0
ARM GAS  /tmp/ccETYwEL.s 			page 104


 5862              		.type	m_input_current_iterations, %object
 5863              		.size	m_input_current_iterations, 4
 5864              	m_input_current_iterations:
 5865 0000 00000000 		.space	4
 5866              		.section	.bss.m_input_current_sum,"aw",%nobits
 5867              		.align	2
 5868              		.set	.LANCHOR19,. + 0
 5869              		.type	m_input_current_sum, %object
 5870              		.size	m_input_current_sum, 4
 5871              	m_input_current_sum:
 5872 0000 00000000 		.space	4
 5873              		.section	.bss.m_last_adc_duration_sample,"aw",%nobits
 5874              		.align	2
 5875              		.set	.LANCHOR31,. + 0
 5876              		.type	m_last_adc_duration_sample, %object
 5877              		.size	m_last_adc_duration_sample, 4
 5878              	m_last_adc_duration_sample:
 5879 0000 00000000 		.space	4
 5880              		.section	.bss.m_lock_enabled,"aw",%nobits
 5881              		.set	.LANCHOR16,. + 0
 5882              		.type	m_lock_enabled, %object
 5883              		.size	m_lock_enabled, 1
 5884              	m_lock_enabled:
 5885 0000 00       		.space	1
 5886              		.section	.bss.m_lock_override_once,"aw",%nobits
 5887              		.set	.LANCHOR17,. + 0
 5888              		.type	m_lock_override_once, %object
 5889              		.size	m_lock_override_once, 1
 5890              	m_lock_override_once:
 5891 0000 00       		.space	1
 5892              		.section	.bss.m_motor_current_iterations,"aw",%nobits
 5893              		.align	2
 5894              		.set	.LANCHOR20,. + 0
 5895              		.type	m_motor_current_iterations, %object
 5896              		.size	m_motor_current_iterations, 4
 5897              	m_motor_current_iterations:
 5898 0000 00000000 		.space	4
 5899              		.section	.bss.m_motor_current_sum,"aw",%nobits
 5900              		.align	2
 5901              		.set	.LANCHOR18,. + 0
 5902              		.type	m_motor_current_sum, %object
 5903              		.size	m_motor_current_sum, 4
 5904              	m_motor_current_sum:
 5905 0000 00000000 		.space	4
 5906              		.section	.bss.m_motor_id_iterations,"aw",%nobits
 5907              		.align	2
 5908              		.set	.LANCHOR24,. + 0
 5909              		.type	m_motor_id_iterations, %object
 5910              		.size	m_motor_id_iterations, 4
 5911              	m_motor_id_iterations:
 5912 0000 00000000 		.space	4
 5913              		.section	.bss.m_motor_id_sum,"aw",%nobits
 5914              		.align	2
 5915              		.set	.LANCHOR22,. + 0
 5916              		.type	m_motor_id_sum, %object
 5917              		.size	m_motor_id_sum, 4
 5918              	m_motor_id_sum:
ARM GAS  /tmp/ccETYwEL.s 			page 105


 5919 0000 00000000 		.space	4
 5920              		.section	.bss.m_motor_iq_iterations,"aw",%nobits
 5921              		.align	2
 5922              		.set	.LANCHOR25,. + 0
 5923              		.type	m_motor_iq_iterations, %object
 5924              		.size	m_motor_iq_iterations, 4
 5925              	m_motor_iq_iterations:
 5926 0000 00000000 		.space	4
 5927              		.section	.bss.m_motor_iq_sum,"aw",%nobits
 5928              		.align	2
 5929              		.set	.LANCHOR23,. + 0
 5930              		.type	m_motor_iq_sum, %object
 5931              		.size	m_motor_iq_sum, 4
 5932              	m_motor_iq_sum:
 5933 0000 00000000 		.space	4
 5934              		.section	.bss.m_position_set,"aw",%nobits
 5935              		.align	2
 5936              		.set	.LANCHOR30,. + 0
 5937              		.type	m_position_set, %object
 5938              		.size	m_position_set, 4
 5939              	m_position_set:
 5940 0000 00000000 		.space	4
 5941              		.section	.bss.m_sample_int,"aw",%nobits
 5942              		.align	2
 5943              		.set	.LANCHOR34,. + 0
 5944              		.type	m_sample_int, %object
 5945              		.size	m_sample_int, 4
 5946              	m_sample_int:
 5947 0000 00000000 		.space	4
 5948              		.section	.bss.m_sample_len,"aw",%nobits
 5949              		.align	2
 5950              		.set	.LANCHOR2,. + 0
 5951              		.type	m_sample_len, %object
 5952              		.size	m_sample_len, 4
 5953              	m_sample_len:
 5954 0000 00000000 		.space	4
 5955              		.section	.bss.m_sample_mode,"aw",%nobits
 5956              		.set	.LANCHOR36,. + 0
 5957              		.type	m_sample_mode, %object
 5958              		.size	m_sample_mode, 1
 5959              	m_sample_mode:
 5960 0000 00       		.space	1
 5961              		.section	.bss.m_sample_mode_last,"aw",%nobits
 5962              		.set	.LANCHOR1,. + 0
 5963              		.type	m_sample_mode_last, %object
 5964              		.size	m_sample_mode_last, 1
 5965              	m_sample_mode_last:
 5966 0000 00       		.space	1
 5967              		.section	.bss.m_sample_now,"aw",%nobits
 5968              		.align	2
 5969              		.set	.LANCHOR35,. + 0
 5970              		.type	m_sample_now, %object
 5971              		.size	m_sample_now, 4
 5972              	m_sample_now:
 5973 0000 00000000 		.space	4
 5974              		.section	.bss.m_sample_trigger,"aw",%nobits
 5975              		.align	2
ARM GAS  /tmp/ccETYwEL.s 			page 106


 5976              		.set	.LANCHOR3,. + 0
 5977              		.type	m_sample_trigger, %object
 5978              		.size	m_sample_trigger, 4
 5979              	m_sample_trigger:
 5980 0000 00000000 		.space	4
 5981              		.section	.bss.m_temp_fet,"aw",%nobits
 5982              		.align	2
 5983              		.set	.LANCHOR32,. + 0
 5984              		.type	m_temp_fet, %object
 5985              		.size	m_temp_fet, 4
 5986              	m_temp_fet:
 5987 0000 00000000 		.space	4
 5988              		.section	.bss.m_temp_motor,"aw",%nobits
 5989              		.align	2
 5990              		.set	.LANCHOR33,. + 0
 5991              		.type	m_temp_motor, %object
 5992              		.size	m_temp_motor, 4
 5993              	m_temp_motor:
 5994 0000 00000000 		.space	4
 5995              		.section	.bss.m_watt_seconds,"aw",%nobits
 5996              		.align	2
 5997              		.set	.LANCHOR28,. + 0
 5998              		.type	m_watt_seconds, %object
 5999              		.size	m_watt_seconds, 4
 6000              	m_watt_seconds:
 6001 0000 00000000 		.space	4
 6002              		.section	.bss.m_watt_seconds_charged,"aw",%nobits
 6003              		.align	2
 6004              		.set	.LANCHOR29,. + 0
 6005              		.type	m_watt_seconds_charged, %object
 6006              		.size	m_watt_seconds_charged, 4
 6007              	m_watt_seconds_charged:
 6008 0000 00000000 		.space	4
 6009              		.section	.bss.pwn_done_func,"aw",%nobits
 6010              		.align	2
 6011              		.set	.LANCHOR39,. + 0
 6012              		.type	pwn_done_func, %object
 6013              		.size	pwn_done_func, 4
 6014              	pwn_done_func:
 6015 0000 00000000 		.space	4
 6016              		.section	.bss.sample_send_thread_wa,"aw",%nobits
 6017              		.align	3
 6018              		.set	.LANCHOR38,. + 0
 6019              		.type	sample_send_thread_wa, %object
 6020              		.size	sample_send_thread_wa, 1432
 6021              	sample_send_thread_wa:
 6022 0000 00000000 		.space	1432
 6022      00000000 
 6022      00000000 
 6022      00000000 
 6022      00000000 
 6023              		.section	.bss.sample_send_tp,"aw",%nobits
 6024              		.align	2
 6025              		.set	.LANCHOR0,. + 0
 6026              		.type	sample_send_tp, %object
 6027              		.size	sample_send_tp, 4
 6028              	sample_send_tp:
ARM GAS  /tmp/ccETYwEL.s 			page 107


 6029 0000 00000000 		.space	4
 6030              		.section	.bss.timer_thread_wa,"aw",%nobits
 6031              		.align	3
 6032              		.set	.LANCHOR37,. + 0
 6033              		.type	timer_thread_wa, %object
 6034              		.size	timer_thread_wa, 1432
 6035              	timer_thread_wa:
 6036 0000 00000000 		.space	1432
 6036      00000000 
 6036      00000000 
 6036      00000000 
 6036      00000000 
 6037              		.section	.bss.wrong_voltage_iterations.12096,"aw",%nobits
 6038              		.align	2
 6039              		.set	.LANCHOR42,. + 0
 6040              		.type	wrong_voltage_iterations.12096, %object
 6041              		.size	wrong_voltage_iterations.12096, 4
 6042              	wrong_voltage_iterations.12096:
 6043 0000 00000000 		.space	4
 6044              		.section	.ram4,"aw",%progbits
 6045              		.align	2
 6046              		.set	.LANCHOR4,. + 0
 6047              		.set	.LANCHOR5,. + 4344
 6048              		.set	.LANCHOR6,. + 8688
 6049              		.set	.LANCHOR7,. + 13032
 6050              		.set	.LANCHOR8,. + 17376
 6051              		.set	.LANCHOR9,. + 21720
 6052              		.set	.LANCHOR10,. + 26064
 6053              		.set	.LANCHOR11,. + 30408
 6054              		.type	m_curr0_samples, %object
 6055              		.size	m_curr0_samples, 4000
 6056              	m_curr0_samples:
 6057 0000 00000000 		.space	4000
 6057      00000000 
 6057      00000000 
 6057      00000000 
 6057      00000000 
 6058              		.type	m_curr1_samples, %object
 6059              		.size	m_curr1_samples, 4000
 6060              	m_curr1_samples:
 6061 0fa0 00000000 		.space	4000
 6061      00000000 
 6061      00000000 
 6061      00000000 
 6061      00000000 
 6062              		.type	m_ph1_samples, %object
 6063              		.size	m_ph1_samples, 4000
 6064              	m_ph1_samples:
 6065 1f40 00000000 		.space	4000
 6065      00000000 
 6065      00000000 
 6065      00000000 
 6065      00000000 
 6066              		.type	m_ph2_samples, %object
 6067              		.size	m_ph2_samples, 4000
 6068              	m_ph2_samples:
 6069 2ee0 00000000 		.space	4000
ARM GAS  /tmp/ccETYwEL.s 			page 108


 6069      00000000 
 6069      00000000 
 6069      00000000 
 6069      00000000 
 6070              		.type	m_ph3_samples, %object
 6071              		.size	m_ph3_samples, 4000
 6072              	m_ph3_samples:
 6073 3e80 00000000 		.space	4000
 6073      00000000 
 6073      00000000 
 6073      00000000 
 6073      00000000 
 6074              		.type	m_vzero_samples, %object
 6075              		.size	m_vzero_samples, 4000
 6076              	m_vzero_samples:
 6077 4e20 00000000 		.space	4000
 6077      00000000 
 6077      00000000 
 6077      00000000 
 6077      00000000 
 6078              		.type	m_curr_fir_samples, %object
 6079              		.size	m_curr_fir_samples, 4000
 6080              	m_curr_fir_samples:
 6081 5dc0 00000000 		.space	4000
 6081      00000000 
 6081      00000000 
 6081      00000000 
 6081      00000000 
 6082              		.type	m_f_sw_samples, %object
 6083              		.size	m_f_sw_samples, 4000
 6084              	m_f_sw_samples:
 6085 6d60 00000000 		.space	4000
 6085      00000000 
 6085      00000000 
 6085      00000000 
 6085      00000000 
 6086              		.type	m_status_samples, %object
 6087              		.size	m_status_samples, 2000
 6088              	m_status_samples:
 6089 7d00 00000000 		.space	2000
 6089      00000000 
 6089      00000000 
 6089      00000000 
 6089      00000000 
 6090              		.type	m_phase_samples, %object
 6091              		.size	m_phase_samples, 2000
 6092              	m_phase_samples:
 6093 84d0 00000000 		.space	2000
 6093      00000000 
 6093      00000000 
 6093      00000000 
 6093      00000000 
 6094              		.section	.rodata.CSWTCH.182,"a",%progbits
 6095              		.align	2
 6096              		.set	.LANCHOR40,. + 0
 6097              		.type	CSWTCH.182, %object
 6098              		.size	CSWTCH.182, 28
ARM GAS  /tmp/ccETYwEL.s 			page 109


 6099              	CSWTCH.182:
 6100 0000 00000000 		.word	.LC3
 6101 0004 10000000 		.word	.LC4
 6102 0008 28000000 		.word	.LC5
 6103 000c 44000000 		.word	.LC6
 6104 0010 54000000 		.word	.LC7
 6105 0014 70000000 		.word	.LC8
 6106 0018 8C000000 		.word	.LC9
 6107              		.section	.rodata.mc_interface_fault_to_string.str1.4,"aMS",%progbits,1
 6108              		.align	2
 6109              	.LC1:
 6110 0000 4641554C 		.ascii	"FAULT_UNKNOWN\000"
 6110      545F554E 
 6110      4B4E4F57 
 6110      4E00
 6111              		.section	.rodata.sample_send_thread.str1.4,"aMS",%progbits,1
 6112              		.align	2
 6113              	.LC0:
 6114 0000 53616D70 		.ascii	"SampleSender\000"
 6114      6C655365 
 6114      6E646572 
 6114      00
 6115              		.section	.rodata.str1.4,"aMS",%progbits,1
 6116              		.align	2
 6117              	.LC3:
 6118 0000 4641554C 		.ascii	"FAULT_CODE_NONE\000"
 6118      545F434F 
 6118      44455F4E 
 6118      4F4E4500 
 6119              	.LC4:
 6120 0010 4641554C 		.ascii	"FAULT_CODE_OVER_VOLTAGE\000"
 6120      545F434F 
 6120      44455F4F 
 6120      5645525F 
 6120      564F4C54 
 6121              	.LC5:
 6122 0028 4641554C 		.ascii	"FAULT_CODE_UNDER_VOLTAGE\000"
 6122      545F434F 
 6122      44455F55 
 6122      4E444552 
 6122      5F564F4C 
 6123 0041 000000   		.space	3
 6124              	.LC6:
 6125 0044 4641554C 		.ascii	"FAULT_CODE_DRV\000"
 6125      545F434F 
 6125      44455F44 
 6125      525600
 6126 0053 00       		.space	1
 6127              	.LC7:
 6128 0054 4641554C 		.ascii	"FAULT_CODE_ABS_OVER_CURRENT\000"
 6128      545F434F 
 6128      44455F41 
 6128      42535F4F 
 6128      5645525F 
 6129              	.LC8:
 6130 0070 4641554C 		.ascii	"FAULT_CODE_OVER_TEMP_FET\000"
 6130      545F434F 
ARM GAS  /tmp/ccETYwEL.s 			page 110


 6130      44455F4F 
 6130      5645525F 
 6130      54454D50 
 6131 0089 000000   		.space	3
 6132              	.LC9:
 6133 008c 4641554C 		.ascii	"FAULT_CODE_OVER_TEMP_MOTOR\000"
 6133      545F434F 
 6133      44455F4F 
 6133      5645525F 
 6133      54454D50 
 6134              		.section	.rodata.timer_thread.str1.4,"aMS",%progbits,1
 6135              		.align	2
 6136              	.LC2:
 6137 0000 6D636966 		.ascii	"mcif timer\000"
 6137      2074696D 
 6137      657200
 6138              		.text
 6139              	.Letext0:
 6140              		.file 5 "/usr/arm-none-eabi/include/machine/_default_types.h"
 6141              		.file 6 "/usr/arm-none-eabi/include/sys/_stdint.h"
 6142              		.file 7 "/usr/lib/gcc/arm-none-eabi/7.3.1/include/stddef.h"
 6143              		.file 8 "ChibiOS_3.0.2/os/rt/ports/ARMCMx/compilers/GCC/chtypes.h"
 6144              		.file 9 "ChibiOS_3.0.2/os/rt/include/chsystypes.h"
 6145              		.file 10 "ChibiOS_3.0.2/os/rt/include/chschd.h"
 6146              		.file 11 "ChibiOS_3.0.2/os/ext/CMSIS/include/core_cm4.h"
 6147              		.file 12 "ChibiOS_3.0.2/os/ext/CMSIS/ST/system_stm32f4xx.h"
 6148              		.file 13 "ChibiOS_3.0.2/os/ext/CMSIS/ST/stm32f407xx.h"
 6149              		.file 14 "ChibiOS_3.0.2/os/rt/ports/ARMCMx/chcore.h"
 6150              		.file 15 "ChibiOS_3.0.2/os/rt/ports/ARMCMx/chcore_v7m.h"
 6151              		.file 16 "ChibiOS_3.0.2/os/rt/include/chtm.h"
 6152              		.file 17 "ChibiOS_3.0.2/os/rt/include/chsem.h"
 6153              		.file 18 "ChibiOS_3.0.2/os/rt/include/chmtx.h"
 6154              		.file 19 "ChibiOS_3.0.2/os/rt/include/chevents.h"
 6155              		.file 20 "ChibiOS_3.0.2/os/rt/include/chqueues.h"
 6156              		.file 21 "datatypes.h"
 6157              		.file 22 "conf_general.h"
 6158              		.file 23 "mc_interface.h"
 6159              		.file 24 "mcpwm.h"
 6160              		.file 25 "ChibiOS_3.0.2/os/hal/ports/STM32/STM32F4xx/stm32_dma.h"
 6161              		.file 26 "ChibiOS_3.0.2/os/hal/ports/STM32/LLD/GPIOv2/pal_lld.h"
 6162              		.file 27 "ChibiOS_3.0.2/os/hal/include/can.h"
 6163              		.file 28 "ChibiOS_3.0.2/os/hal/ports/STM32/LLD/can_lld.h"
 6164              		.file 29 "ChibiOS_3.0.2/os/hal/include/i2c.h"
 6165              		.file 30 "ChibiOS_3.0.2/os/hal/ports/STM32/LLD/I2Cv1/i2c_lld.h"
 6166              		.file 31 "ChibiOS_3.0.2/os/hal/include/icu.h"
 6167              		.file 32 "ChibiOS_3.0.2/os/hal/ports/STM32/LLD/TIMv1/icu_lld.h"
 6168              		.file 33 "ChibiOS_3.0.2/os/hal/ports/STM32/LLD/TIMv1/stm32_tim.h"
 6169              		.file 34 "ChibiOS_3.0.2/os/hal/include/spi.h"
 6170              		.file 35 "ChibiOS_3.0.2/os/hal/ports/STM32/LLD/SPIv1/spi_lld.h"
 6171              		.file 36 "ChibiOS_3.0.2/os/hal/include/uart.h"
 6172              		.file 37 "ChibiOS_3.0.2/os/hal/ports/STM32/LLD/USARTv1/uart_lld.h"
 6173              		.file 38 "ChibiOS_3.0.2/os/hal/include/usb.h"
 6174              		.file 39 "ChibiOS_3.0.2/os/hal/ports/STM32/LLD/OTGv1/usb_lld.h"
 6175              		.file 40 "ChibiOS_3.0.2/os/hal/ports/STM32/LLD/OTGv1/stm32_otg.h"
 6176              		.file 41 "/usr/arm-none-eabi/include/sys/lock.h"
 6177              		.file 42 "/usr/arm-none-eabi/include/sys/_types.h"
 6178              		.file 43 "/usr/arm-none-eabi/include/sys/reent.h"
ARM GAS  /tmp/ccETYwEL.s 			page 111


 6179              		.file 44 "/usr/arm-none-eabi/include/math.h"
 6180              		.file 45 "ChibiOS_3.0.2/os/rt/include/chsys.h"
 6181              		.file 46 "ChibiOS_3.0.2/os/rt/include/chthreads.h"
 6182              		.file 47 "buffer.h"
 6183              		.file 48 "commands.h"
 6184              		.file 49 "mcpwm_foc.h"
 6185              		.file 50 "ledpwm.h"
 6186              		.file 51 "utils.h"
 6187              		.file 52 "encoder.h"
 6188              		.file 53 "terminal.h"
 6189              		.file 54 "<built-in>"
 6190              		.section	.debug_info,"",%progbits
 6191              	.Ldebug_info0:
 6192 0000 D95A0000 		.4byte	0x5ad9
 6193 0004 0400     		.2byte	0x4
 6194 0006 00000000 		.4byte	.Ldebug_abbrev0
 6195 000a 04       		.byte	0x4
 6196 000b 01       		.uleb128 0x1
 6197 000c B60F0000 		.4byte	.LASF1100
 6198 0010 0C       		.byte	0xc
 6199 0011 AE120000 		.4byte	.LASF1101
 6200 0015 A51F0000 		.4byte	.LASF1102
 6201 0019 98020000 		.4byte	.Ldebug_ranges0+0x298
 6202 001d 00000000 		.4byte	0
 6203 0021 00000000 		.4byte	.Ldebug_line0
 6204 0025 02       		.uleb128 0x2
 6205 0026 04       		.byte	0x4
 6206 0027 04       		.byte	0x4
 6207 0028 BF0C0000 		.4byte	.LASF0
 6208 002c 03       		.uleb128 0x3
 6209 002d DE390000 		.4byte	.LASF2
 6210 0031 05       		.byte	0x5
 6211 0032 29       		.byte	0x29
 6212 0033 37000000 		.4byte	0x37
 6213 0037 02       		.uleb128 0x2
 6214 0038 01       		.byte	0x1
 6215 0039 06       		.byte	0x6
 6216 003a EC1F0000 		.4byte	.LASF1
 6217 003e 03       		.uleb128 0x3
 6218 003f 50010000 		.4byte	.LASF3
 6219 0043 05       		.byte	0x5
 6220 0044 2B       		.byte	0x2b
 6221 0045 49000000 		.4byte	0x49
 6222 0049 02       		.uleb128 0x2
 6223 004a 01       		.byte	0x1
 6224 004b 08       		.byte	0x8
 6225 004c 350C0000 		.4byte	.LASF4
 6226 0050 03       		.uleb128 0x3
 6227 0051 F2090000 		.4byte	.LASF5
 6228 0055 05       		.byte	0x5
 6229 0056 37       		.byte	0x37
 6230 0057 5B000000 		.4byte	0x5b
 6231 005b 02       		.uleb128 0x2
 6232 005c 02       		.byte	0x2
 6233 005d 05       		.byte	0x5
 6234 005e 443B0000 		.4byte	.LASF6
 6235 0062 03       		.uleb128 0x3
ARM GAS  /tmp/ccETYwEL.s 			page 112


 6236 0063 FC090000 		.4byte	.LASF7
 6237 0067 05       		.byte	0x5
 6238 0068 39       		.byte	0x39
 6239 0069 6D000000 		.4byte	0x6d
 6240 006d 02       		.uleb128 0x2
 6241 006e 02       		.byte	0x2
 6242 006f 07       		.byte	0x7
 6243 0070 D41F0000 		.4byte	.LASF8
 6244 0074 03       		.uleb128 0x3
 6245 0075 6E2F0000 		.4byte	.LASF9
 6246 0079 05       		.byte	0x5
 6247 007a 4D       		.byte	0x4d
 6248 007b 7F000000 		.4byte	0x7f
 6249 007f 02       		.uleb128 0x2
 6250 0080 04       		.byte	0x4
 6251 0081 05       		.byte	0x5
 6252 0082 D0230000 		.4byte	.LASF10
 6253 0086 03       		.uleb128 0x3
 6254 0087 782F0000 		.4byte	.LASF11
 6255 008b 05       		.byte	0x5
 6256 008c 4F       		.byte	0x4f
 6257 008d 91000000 		.4byte	0x91
 6258 0091 02       		.uleb128 0x2
 6259 0092 04       		.byte	0x4
 6260 0093 07       		.byte	0x7
 6261 0094 73260000 		.4byte	.LASF12
 6262 0098 02       		.uleb128 0x2
 6263 0099 08       		.byte	0x8
 6264 009a 05       		.byte	0x5
 6265 009b 05370000 		.4byte	.LASF13
 6266 009f 03       		.uleb128 0x3
 6267 00a0 91180000 		.4byte	.LASF14
 6268 00a4 05       		.byte	0x5
 6269 00a5 69       		.byte	0x69
 6270 00a6 AA000000 		.4byte	0xaa
 6271 00aa 02       		.uleb128 0x2
 6272 00ab 08       		.byte	0x8
 6273 00ac 07       		.byte	0x7
 6274 00ad 49320000 		.4byte	.LASF15
 6275 00b1 04       		.uleb128 0x4
 6276 00b2 04       		.byte	0x4
 6277 00b3 05       		.byte	0x5
 6278 00b4 696E7400 		.ascii	"int\000"
 6279 00b8 05       		.uleb128 0x5
 6280 00b9 B1000000 		.4byte	0xb1
 6281 00bd 02       		.uleb128 0x2
 6282 00be 04       		.byte	0x4
 6283 00bf 07       		.byte	0x7
 6284 00c0 C93A0000 		.4byte	.LASF16
 6285 00c4 05       		.uleb128 0x5
 6286 00c5 BD000000 		.4byte	0xbd
 6287 00c9 03       		.uleb128 0x3
 6288 00ca E91D0000 		.4byte	.LASF17
 6289 00ce 06       		.byte	0x6
 6290 00cf 14       		.byte	0x14
 6291 00d0 2C000000 		.4byte	0x2c
 6292 00d4 05       		.uleb128 0x5
ARM GAS  /tmp/ccETYwEL.s 			page 113


 6293 00d5 C9000000 		.4byte	0xc9
 6294 00d9 03       		.uleb128 0x3
 6295 00da 54130000 		.4byte	.LASF18
 6296 00de 06       		.byte	0x6
 6297 00df 18       		.byte	0x18
 6298 00e0 3E000000 		.4byte	0x3e
 6299 00e4 05       		.uleb128 0x5
 6300 00e5 D9000000 		.4byte	0xd9
 6301 00e9 06       		.uleb128 0x6
 6302 00ea D9000000 		.4byte	0xd9
 6303 00ee 03       		.uleb128 0x3
 6304 00ef CC1F0000 		.4byte	.LASF19
 6305 00f3 06       		.byte	0x6
 6306 00f4 20       		.byte	0x20
 6307 00f5 50000000 		.4byte	0x50
 6308 00f9 05       		.uleb128 0x5
 6309 00fa EE000000 		.4byte	0xee
 6310 00fe 03       		.uleb128 0x3
 6311 00ff 64020000 		.4byte	.LASF20
 6312 0103 06       		.byte	0x6
 6313 0104 24       		.byte	0x24
 6314 0105 62000000 		.4byte	0x62
 6315 0109 05       		.uleb128 0x5
 6316 010a FE000000 		.4byte	0xfe
 6317 010e 03       		.uleb128 0x3
 6318 010f E7040000 		.4byte	.LASF21
 6319 0113 06       		.byte	0x6
 6320 0114 2C       		.byte	0x2c
 6321 0115 74000000 		.4byte	0x74
 6322 0119 05       		.uleb128 0x5
 6323 011a 0E010000 		.4byte	0x10e
 6324 011e 03       		.uleb128 0x3
 6325 011f 84250000 		.4byte	.LASF22
 6326 0123 06       		.byte	0x6
 6327 0124 30       		.byte	0x30
 6328 0125 86000000 		.4byte	0x86
 6329 0129 05       		.uleb128 0x5
 6330 012a 1E010000 		.4byte	0x11e
 6331 012e 03       		.uleb128 0x3
 6332 012f 890E0000 		.4byte	.LASF23
 6333 0133 06       		.byte	0x6
 6334 0134 3C       		.byte	0x3c
 6335 0135 9F000000 		.4byte	0x9f
 6336 0139 03       		.uleb128 0x3
 6337 013a FD120000 		.4byte	.LASF24
 6338 013e 07       		.byte	0x7
 6339 013f D8       		.byte	0xd8
 6340 0140 BD000000 		.4byte	0xbd
 6341 0144 05       		.uleb128 0x5
 6342 0145 39010000 		.4byte	0x139
 6343 0149 03       		.uleb128 0x3
 6344 014a 29120000 		.4byte	.LASF25
 6345 014e 08       		.byte	0x8
 6346 014f 45       		.byte	0x45
 6347 0150 1E010000 		.4byte	0x11e
 6348 0154 03       		.uleb128 0x3
 6349 0155 B71B0000 		.4byte	.LASF26
ARM GAS  /tmp/ccETYwEL.s 			page 114


 6350 0159 08       		.byte	0x8
 6351 015a 48       		.byte	0x48
 6352 015b D9000000 		.4byte	0xd9
 6353 015f 03       		.uleb128 0x3
 6354 0160 67340000 		.4byte	.LASF27
 6355 0164 08       		.byte	0x8
 6356 0165 49       		.byte	0x49
 6357 0166 D9000000 		.4byte	0xd9
 6358 016a 03       		.uleb128 0x3
 6359 016b A81A0000 		.4byte	.LASF28
 6360 016f 08       		.byte	0x8
 6361 0170 4A       		.byte	0x4a
 6362 0171 D9000000 		.4byte	0xd9
 6363 0175 03       		.uleb128 0x3
 6364 0176 E61E0000 		.4byte	.LASF29
 6365 017a 08       		.byte	0x8
 6366 017b 4B       		.byte	0x4b
 6367 017c D9000000 		.4byte	0xd9
 6368 0180 03       		.uleb128 0x3
 6369 0181 51080000 		.4byte	.LASF30
 6370 0185 08       		.byte	0x8
 6371 0186 4C       		.byte	0x4c
 6372 0187 1E010000 		.4byte	0x11e
 6373 018b 03       		.uleb128 0x3
 6374 018c 9D000000 		.4byte	.LASF31
 6375 0190 08       		.byte	0x8
 6376 0191 4D       		.byte	0x4d
 6377 0192 0E010000 		.4byte	0x10e
 6378 0196 03       		.uleb128 0x3
 6379 0197 22260000 		.4byte	.LASF32
 6380 019b 08       		.byte	0x8
 6381 019c 4F       		.byte	0x4f
 6382 019d 1E010000 		.4byte	0x11e
 6383 01a1 03       		.uleb128 0x3
 6384 01a2 DA370000 		.4byte	.LASF33
 6385 01a6 08       		.byte	0x8
 6386 01a7 50       		.byte	0x50
 6387 01a8 1E010000 		.4byte	0x11e
 6388 01ac 03       		.uleb128 0x3
 6389 01ad 282B0000 		.4byte	.LASF34
 6390 01b1 08       		.byte	0x8
 6391 01b2 51       		.byte	0x51
 6392 01b3 0E010000 		.4byte	0x10e
 6393 01b7 03       		.uleb128 0x3
 6394 01b8 09050000 		.4byte	.LASF35
 6395 01bc 09       		.byte	0x9
 6396 01bd 33       		.byte	0x33
 6397 01be 1E010000 		.4byte	0x11e
 6398 01c2 05       		.uleb128 0x5
 6399 01c3 B7010000 		.4byte	0x1b7
 6400 01c7 03       		.uleb128 0x3
 6401 01c8 AA040000 		.4byte	.LASF36
 6402 01cc 09       		.byte	0x9
 6403 01cd 3F       		.byte	0x3f
 6404 01ce D2010000 		.4byte	0x1d2
 6405 01d2 07       		.uleb128 0x7
 6406 01d3 840C0000 		.4byte	.LASF58
ARM GAS  /tmp/ccETYwEL.s 			page 115


 6407 01d7 48       		.byte	0x48
 6408 01d8 0A       		.byte	0xa
 6409 01d9 C2       		.byte	0xc2
 6410 01da D7020000 		.4byte	0x2d7
 6411 01de 08       		.uleb128 0x8
 6412 01df 041A0000 		.4byte	.LASF37
 6413 01e3 0A       		.byte	0xa
 6414 01e4 C3       		.byte	0xc3
 6415 01e5 E2020000 		.4byte	0x2e2
 6416 01e9 00       		.byte	0
 6417 01ea 08       		.uleb128 0x8
 6418 01eb A6130000 		.4byte	.LASF38
 6419 01ef 0A       		.byte	0xa
 6420 01f0 C5       		.byte	0xc5
 6421 01f1 E2020000 		.4byte	0x2e2
 6422 01f5 04       		.byte	0x4
 6423 01f6 08       		.uleb128 0x8
 6424 01f7 3E180000 		.4byte	.LASF39
 6425 01fb 0A       		.byte	0xa
 6426 01fc C7       		.byte	0xc7
 6427 01fd 80010000 		.4byte	0x180
 6428 0201 08       		.byte	0x8
 6429 0202 08       		.uleb128 0x8
 6430 0203 7C0D0000 		.4byte	.LASF40
 6431 0207 0A       		.byte	0xa
 6432 0208 C8       		.byte	0xc8
 6433 0209 D20A0000 		.4byte	0xad2
 6434 020d 0C       		.byte	0xc
 6435 020e 08       		.uleb128 0x8
 6436 020f 45030000 		.4byte	.LASF41
 6437 0213 0A       		.byte	0xa
 6438 0214 CA       		.byte	0xca
 6439 0215 E2020000 		.4byte	0x2e2
 6440 0219 10       		.byte	0x10
 6441 021a 08       		.uleb128 0x8
 6442 021b CB380000 		.4byte	.LASF42
 6443 021f 0A       		.byte	0xa
 6444 0220 CB       		.byte	0xcb
 6445 0221 E2020000 		.4byte	0x2e2
 6446 0225 14       		.byte	0x14
 6447 0226 08       		.uleb128 0x8
 6448 0227 27350000 		.4byte	.LASF43
 6449 022b 0A       		.byte	0xa
 6450 022c D2       		.byte	0xd2
 6451 022d 170D0000 		.4byte	0xd17
 6452 0231 18       		.byte	0x18
 6453 0232 08       		.uleb128 0x8
 6454 0233 BD3C0000 		.4byte	.LASF44
 6455 0237 0A       		.byte	0xa
 6456 0238 DD       		.byte	0xdd
 6457 0239 5F010000 		.4byte	0x15f
 6458 023d 1C       		.byte	0x1c
 6459 023e 08       		.uleb128 0x8
 6460 023f AB330000 		.4byte	.LASF45
 6461 0243 0A       		.byte	0xa
 6462 0244 E1       		.byte	0xe1
 6463 0245 54010000 		.4byte	0x154
ARM GAS  /tmp/ccETYwEL.s 			page 116


 6464 0249 1D       		.byte	0x1d
 6465 024a 08       		.uleb128 0x8
 6466 024b 87230000 		.4byte	.LASF46
 6467 024f 0A       		.byte	0xa
 6468 0250 E6       		.byte	0xe6
 6469 0251 6A010000 		.4byte	0x16a
 6470 0255 1E       		.byte	0x1e
 6471 0256 08       		.uleb128 0x8
 6472 0257 3E200000 		.4byte	.LASF47
 6473 025b 0A       		.byte	0xa
 6474 025c EC       		.byte	0xec
 6475 025d 75010000 		.4byte	0x175
 6476 0261 1F       		.byte	0x1f
 6477 0262 08       		.uleb128 0x8
 6478 0263 53200000 		.4byte	.LASF48
 6479 0267 0A       		.byte	0xa
 6480 0268 F3       		.byte	0xf3
 6481 0269 C2010000 		.4byte	0x1c2
 6482 026d 20       		.byte	0x20
 6483 026e 09       		.uleb128 0x9
 6484 026f 705F7500 		.ascii	"p_u\000"
 6485 0273 0A       		.byte	0xa
 6486 0274 3101     		.2byte	0x131
 6487 0276 520C0000 		.4byte	0xc52
 6488 027a 24       		.byte	0x24
 6489 027b 0A       		.uleb128 0xa
 6490 027c C7060000 		.4byte	.LASF49
 6491 0280 0A       		.byte	0xa
 6492 0281 3601     		.2byte	0x136
 6493 0283 E8020000 		.4byte	0x2e8
 6494 0287 28       		.byte	0x28
 6495 0288 0A       		.uleb128 0xa
 6496 0289 7E210000 		.4byte	.LASF50
 6497 028d 0A       		.byte	0xa
 6498 028e 3C01     		.2byte	0x13c
 6499 0290 0C030000 		.4byte	0x30c
 6500 0294 2C       		.byte	0x2c
 6501 0295 0A       		.uleb128 0xa
 6502 0296 220A0000 		.4byte	.LASF51
 6503 029a 0A       		.byte	0xa
 6504 029b 4001     		.2byte	0x140
 6505 029d 8B010000 		.4byte	0x18b
 6506 02a1 34       		.byte	0x34
 6507 02a2 0A       		.uleb128 0xa
 6508 02a3 83300000 		.4byte	.LASF52
 6509 02a7 0A       		.byte	0xa
 6510 02a8 4601     		.2byte	0x146
 6511 02aa 96010000 		.4byte	0x196
 6512 02ae 38       		.byte	0x38
 6513 02af 0A       		.uleb128 0xa
 6514 02b0 3E340000 		.4byte	.LASF53
 6515 02b4 0A       		.byte	0xa
 6516 02b5 4D01     		.2byte	0x14d
 6517 02b7 110D0000 		.4byte	0xd11
 6518 02bb 3C       		.byte	0x3c
 6519 02bc 0A       		.uleb128 0xa
 6520 02bd 872D0000 		.4byte	.LASF54
ARM GAS  /tmp/ccETYwEL.s 			page 117


 6521 02c1 0A       		.byte	0xa
 6522 02c2 5101     		.2byte	0x151
 6523 02c4 80010000 		.4byte	0x180
 6524 02c8 40       		.byte	0x40
 6525 02c9 0A       		.uleb128 0xa
 6526 02ca B01A0000 		.4byte	.LASF55
 6527 02ce 0A       		.byte	0xa
 6528 02cf 5801     		.2byte	0x158
 6529 02d1 BF030000 		.4byte	0x3bf
 6530 02d5 44       		.byte	0x44
 6531 02d6 00       		.byte	0
 6532 02d7 03       		.uleb128 0x3
 6533 02d8 31390000 		.4byte	.LASF56
 6534 02dc 09       		.byte	0x9
 6535 02dd 44       		.byte	0x44
 6536 02de E2020000 		.4byte	0x2e2
 6537 02e2 0B       		.uleb128 0xb
 6538 02e3 04       		.byte	0x4
 6539 02e4 C7010000 		.4byte	0x1c7
 6540 02e8 03       		.uleb128 0x3
 6541 02e9 03070000 		.4byte	.LASF57
 6542 02ed 09       		.byte	0x9
 6543 02ee 49       		.byte	0x49
 6544 02ef F3020000 		.4byte	0x2f3
 6545 02f3 07       		.uleb128 0x7
 6546 02f4 D43C0000 		.4byte	.LASF59
 6547 02f8 04       		.byte	0x4
 6548 02f9 0A       		.byte	0xa
 6549 02fa B0       		.byte	0xb0
 6550 02fb 0C030000 		.4byte	0x30c
 6551 02ff 08       		.uleb128 0x8
 6552 0300 041A0000 		.4byte	.LASF37
 6553 0304 0A       		.byte	0xa
 6554 0305 B1       		.byte	0xb1
 6555 0306 E2020000 		.4byte	0x2e2
 6556 030a 00       		.byte	0
 6557 030b 00       		.byte	0
 6558 030c 03       		.uleb128 0x3
 6559 030d 2B230000 		.4byte	.LASF60
 6560 0311 09       		.byte	0x9
 6561 0312 50       		.byte	0x50
 6562 0313 17030000 		.4byte	0x317
 6563 0317 07       		.uleb128 0x7
 6564 0318 1B030000 		.4byte	.LASF61
 6565 031c 08       		.byte	0x8
 6566 031d 0A       		.byte	0xa
 6567 031e B7       		.byte	0xb7
 6568 031f 3C030000 		.4byte	0x33c
 6569 0323 08       		.uleb128 0x8
 6570 0324 041A0000 		.4byte	.LASF37
 6571 0328 0A       		.byte	0xa
 6572 0329 B8       		.byte	0xb8
 6573 032a E2020000 		.4byte	0x2e2
 6574 032e 00       		.byte	0
 6575 032f 08       		.uleb128 0x8
 6576 0330 A6130000 		.4byte	.LASF38
 6577 0334 0A       		.byte	0xa
ARM GAS  /tmp/ccETYwEL.s 			page 118


 6578 0335 B9       		.byte	0xb9
 6579 0336 E2020000 		.4byte	0x2e2
 6580 033a 04       		.byte	0x4
 6581 033b 00       		.byte	0
 6582 033c 03       		.uleb128 0x3
 6583 033d 770C0000 		.4byte	.LASF62
 6584 0341 09       		.byte	0x9
 6585 0342 57       		.byte	0x57
 6586 0343 47030000 		.4byte	0x347
 6587 0347 0C       		.uleb128 0xc
 6588 0348 332F0000 		.4byte	.LASF63
 6589 034c 1C       		.byte	0x1c
 6590 034d 0A       		.byte	0xa
 6591 034e 9001     		.2byte	0x190
 6592 0350 A3030000 		.4byte	0x3a3
 6593 0354 0A       		.uleb128 0xa
 6594 0355 CF270000 		.4byte	.LASF64
 6595 0359 0A       		.byte	0xa
 6596 035a 9101     		.2byte	0x191
 6597 035c 0C030000 		.4byte	0x30c
 6598 0360 00       		.byte	0
 6599 0361 0A       		.uleb128 0xa
 6600 0362 F5310000 		.4byte	.LASF65
 6601 0366 0A       		.byte	0xa
 6602 0367 9201     		.2byte	0x192
 6603 0369 80010000 		.4byte	0x180
 6604 036d 08       		.byte	0x8
 6605 036e 0A       		.uleb128 0xa
 6606 036f D9110000 		.4byte	.LASF66
 6607 0373 0A       		.byte	0xa
 6608 0374 9401     		.2byte	0x194
 6609 0376 D20A0000 		.4byte	0xad2
 6610 037a 0C       		.byte	0xc
 6611 037b 0A       		.uleb128 0xa
 6612 037c 201E0000 		.4byte	.LASF67
 6613 0380 0A       		.byte	0xa
 6614 0381 9701     		.2byte	0x197
 6615 0383 E2020000 		.4byte	0x2e2
 6616 0387 10       		.byte	0x10
 6617 0388 0A       		.uleb128 0xa
 6618 0389 8F130000 		.4byte	.LASF68
 6619 038d 0A       		.byte	0xa
 6620 038e 9801     		.2byte	0x198
 6621 0390 E2020000 		.4byte	0x2e2
 6622 0394 14       		.byte	0x14
 6623 0395 0A       		.uleb128 0xa
 6624 0396 B60D0000 		.4byte	.LASF69
 6625 039a 0A       		.byte	0xa
 6626 039b 9B01     		.2byte	0x19b
 6627 039d E2020000 		.4byte	0x2e2
 6628 03a1 18       		.byte	0x18
 6629 03a2 00       		.byte	0
 6630 03a3 03       		.uleb128 0x3
 6631 03a4 372D0000 		.4byte	.LASF70
 6632 03a8 09       		.byte	0x9
 6633 03a9 5C       		.byte	0x5c
 6634 03aa AE030000 		.4byte	0x3ae
ARM GAS  /tmp/ccETYwEL.s 			page 119


 6635 03ae 0B       		.uleb128 0xb
 6636 03af 04       		.byte	0x4
 6637 03b0 B4030000 		.4byte	0x3b4
 6638 03b4 0D       		.uleb128 0xd
 6639 03b5 BF030000 		.4byte	0x3bf
 6640 03b9 0E       		.uleb128 0xe
 6641 03ba BF030000 		.4byte	0x3bf
 6642 03be 00       		.byte	0
 6643 03bf 0F       		.uleb128 0xf
 6644 03c0 04       		.byte	0x4
 6645 03c1 03       		.uleb128 0x3
 6646 03c2 C9110000 		.4byte	.LASF71
 6647 03c6 09       		.byte	0x9
 6648 03c7 61       		.byte	0x61
 6649 03c8 CC030000 		.4byte	0x3cc
 6650 03cc 0C       		.uleb128 0xc
 6651 03cd 9A330000 		.4byte	.LASF72
 6652 03d1 14       		.byte	0x14
 6653 03d2 0A       		.byte	0xa
 6654 03d3 6B01     		.2byte	0x16b
 6655 03d5 1B040000 		.4byte	0x41b
 6656 03d9 0A       		.uleb128 0xa
 6657 03da DF110000 		.4byte	.LASF73
 6658 03de 0A       		.byte	0xa
 6659 03df 6C01     		.2byte	0x16c
 6660 03e1 2E0D0000 		.4byte	0xd2e
 6661 03e5 00       		.byte	0
 6662 03e6 0A       		.uleb128 0xa
 6663 03e7 0B0C0000 		.4byte	.LASF74
 6664 03eb 0A       		.byte	0xa
 6665 03ec 6D01     		.2byte	0x16d
 6666 03ee 2E0D0000 		.4byte	0xd2e
 6667 03f2 04       		.byte	0x4
 6668 03f3 0A       		.uleb128 0xa
 6669 03f4 4C1F0000 		.4byte	.LASF75
 6670 03f8 0A       		.byte	0xa
 6671 03f9 6E01     		.2byte	0x16e
 6672 03fb B7010000 		.4byte	0x1b7
 6673 03ff 08       		.byte	0x8
 6674 0400 0A       		.uleb128 0xa
 6675 0401 2C330000 		.4byte	.LASF76
 6676 0405 0A       		.byte	0xa
 6677 0406 6F01     		.2byte	0x16f
 6678 0408 A3030000 		.4byte	0x3a3
 6679 040c 0C       		.byte	0xc
 6680 040d 0A       		.uleb128 0xa
 6681 040e 820D0000 		.4byte	.LASF77
 6682 0412 0A       		.byte	0xa
 6683 0413 7101     		.2byte	0x171
 6684 0415 BF030000 		.4byte	0x3bf
 6685 0419 10       		.byte	0x10
 6686 041a 00       		.byte	0
 6687 041b 03       		.uleb128 0x3
 6688 041c B9350000 		.4byte	.LASF78
 6689 0420 09       		.byte	0x9
 6690 0421 66       		.byte	0x66
 6691 0422 26040000 		.4byte	0x426
ARM GAS  /tmp/ccETYwEL.s 			page 120


 6692 0426 0C       		.uleb128 0xc
 6693 0427 C9040000 		.4byte	.LASF79
 6694 042b 10       		.byte	0x10
 6695 042c 0A       		.byte	0xa
 6696 042d 7B01     		.2byte	0x17b
 6697 042f 68040000 		.4byte	0x468
 6698 0433 0A       		.uleb128 0xa
 6699 0434 DF110000 		.4byte	.LASF73
 6700 0438 0A       		.byte	0xa
 6701 0439 7C01     		.2byte	0x17c
 6702 043b 2E0D0000 		.4byte	0xd2e
 6703 043f 00       		.byte	0
 6704 0440 0A       		.uleb128 0xa
 6705 0441 0B0C0000 		.4byte	.LASF74
 6706 0445 0A       		.byte	0xa
 6707 0446 7E01     		.2byte	0x17e
 6708 0448 2E0D0000 		.4byte	0xd2e
 6709 044c 04       		.byte	0x4
 6710 044d 0A       		.uleb128 0xa
 6711 044e 4C1F0000 		.4byte	.LASF75
 6712 0452 0A       		.byte	0xa
 6713 0453 8001     		.2byte	0x180
 6714 0455 B7010000 		.4byte	0x1b7
 6715 0459 08       		.byte	0x8
 6716 045a 0A       		.uleb128 0xa
 6717 045b D2010000 		.4byte	.LASF80
 6718 045f 0A       		.byte	0xa
 6719 0460 8201     		.2byte	0x182
 6720 0462 C2010000 		.4byte	0x1c2
 6721 0466 0C       		.byte	0xc
 6722 0467 00       		.byte	0
 6723 0468 03       		.uleb128 0x3
 6724 0469 570D0000 		.4byte	.LASF81
 6725 046d 09       		.byte	0x9
 6726 046e 6B       		.byte	0x6b
 6727 046f 73040000 		.4byte	0x473
 6728 0473 0C       		.uleb128 0xc
 6729 0474 892F0000 		.4byte	.LASF82
 6730 0478 04       		.byte	0x4
 6731 0479 0A       		.byte	0xa
 6732 047a A201     		.2byte	0x1a2
 6733 047c 8E040000 		.4byte	0x48e
 6734 0480 0A       		.uleb128 0xa
 6735 0481 031E0000 		.4byte	.LASF83
 6736 0485 0A       		.byte	0xa
 6737 0486 AA01     		.2byte	0x1aa
 6738 0488 1D0D0000 		.4byte	0xd1d
 6739 048c 00       		.byte	0
 6740 048d 00       		.byte	0
 6741 048e 03       		.uleb128 0x3
 6742 048f 44010000 		.4byte	.LASF84
 6743 0493 09       		.byte	0x9
 6744 0494 70       		.byte	0x70
 6745 0495 99040000 		.4byte	0x499
 6746 0499 10       		.uleb128 0x10
 6747 049a 7A220000 		.4byte	.LASF85
 6748 049e 5802     		.2byte	0x258
ARM GAS  /tmp/ccETYwEL.s 			page 121


 6749 04a0 0A       		.byte	0xa
 6750 04a1 C201     		.2byte	0x1c2
 6751 04a3 F5040000 		.4byte	0x4f5
 6752 04a7 0A       		.uleb128 0xa
 6753 04a8 FD060000 		.4byte	.LASF86
 6754 04ac 0A       		.byte	0xa
 6755 04ad C601     		.2byte	0x1c6
 6756 04af 3C030000 		.4byte	0x33c
 6757 04b3 00       		.byte	0
 6758 04b4 0A       		.uleb128 0xa
 6759 04b5 93060000 		.4byte	.LASF87
 6760 04b9 0A       		.byte	0xa
 6761 04ba CA01     		.2byte	0x1ca
 6762 04bc 1B040000 		.4byte	0x41b
 6763 04c0 1C       		.byte	0x1c
 6764 04c1 09       		.uleb128 0x9
 6765 04c2 64626700 		.ascii	"dbg\000"
 6766 04c6 0A       		.byte	0xa
 6767 04c7 CE01     		.2byte	0x1ce
 6768 04c9 68040000 		.4byte	0x468
 6769 04cd 2C       		.byte	0x2c
 6770 04ce 0A       		.uleb128 0xa
 6771 04cf E8230000 		.4byte	.LASF88
 6772 04d3 0A       		.byte	0xa
 6773 04d4 D201     		.2byte	0x1d2
 6774 04d6 C7010000 		.4byte	0x1c7
 6775 04da 30       		.byte	0x30
 6776 04db 09       		.uleb128 0x9
 6777 04dc 746D00   		.ascii	"tm\000"
 6778 04df 0A       		.byte	0xa
 6779 04e0 D701     		.2byte	0x1d7
 6780 04e2 470C0000 		.4byte	0xc47
 6781 04e6 78       		.byte	0x78
 6782 04e7 0A       		.uleb128 0xa
 6783 04e8 FE320000 		.4byte	.LASF89
 6784 04ec 0A       		.byte	0xa
 6785 04ed E301     		.2byte	0x1e3
 6786 04ef 340D0000 		.4byte	0xd34
 6787 04f3 80       		.byte	0x80
 6788 04f4 00       		.byte	0
 6789 04f5 11       		.uleb128 0x11
 6790 04f6 1E010000 		.4byte	0x11e
 6791 04fa 05050000 		.4byte	0x505
 6792 04fe 12       		.uleb128 0x12
 6793 04ff BD000000 		.4byte	0xbd
 6794 0503 07       		.byte	0x7
 6795 0504 00       		.byte	0
 6796 0505 13       		.uleb128 0x13
 6797 0506 19320000 		.4byte	.LASF90
 6798 050a 0B       		.byte	0xb
 6799 050b A706     		.2byte	0x6a7
 6800 050d 19010000 		.4byte	0x119
 6801 0511 14       		.uleb128 0x14
 6802 0512 E6210000 		.4byte	.LASF91
 6803 0516 0C       		.byte	0xc
 6804 0517 4C       		.byte	0x4c
 6805 0518 1E010000 		.4byte	0x11e
ARM GAS  /tmp/ccETYwEL.s 			page 122


 6806 051c 15       		.uleb128 0x15
 6807 051d 10       		.byte	0x10
 6808 051e 0D       		.byte	0xd
 6809 051f E9       		.byte	0xe9
 6810 0520 55050000 		.4byte	0x555
 6811 0524 16       		.uleb128 0x16
 6812 0525 54495200 		.ascii	"TIR\000"
 6813 0529 0D       		.byte	0xd
 6814 052a EB       		.byte	0xeb
 6815 052b 29010000 		.4byte	0x129
 6816 052f 00       		.byte	0
 6817 0530 08       		.uleb128 0x8
 6818 0531 BF170000 		.4byte	.LASF92
 6819 0535 0D       		.byte	0xd
 6820 0536 EC       		.byte	0xec
 6821 0537 29010000 		.4byte	0x129
 6822 053b 04       		.byte	0x4
 6823 053c 08       		.uleb128 0x8
 6824 053d CB230000 		.4byte	.LASF93
 6825 0541 0D       		.byte	0xd
 6826 0542 ED       		.byte	0xed
 6827 0543 29010000 		.4byte	0x129
 6828 0547 08       		.byte	0x8
 6829 0548 08       		.uleb128 0x8
 6830 0549 5A200000 		.4byte	.LASF94
 6831 054d 0D       		.byte	0xd
 6832 054e EE       		.byte	0xee
 6833 054f 29010000 		.4byte	0x129
 6834 0553 0C       		.byte	0xc
 6835 0554 00       		.byte	0
 6836 0555 03       		.uleb128 0x3
 6837 0556 E7060000 		.4byte	.LASF95
 6838 055a 0D       		.byte	0xd
 6839 055b EF       		.byte	0xef
 6840 055c 1C050000 		.4byte	0x51c
 6841 0560 15       		.uleb128 0x15
 6842 0561 10       		.byte	0x10
 6843 0562 0D       		.byte	0xd
 6844 0563 F5       		.byte	0xf5
 6845 0564 99050000 		.4byte	0x599
 6846 0568 16       		.uleb128 0x16
 6847 0569 52495200 		.ascii	"RIR\000"
 6848 056d 0D       		.byte	0xd
 6849 056e F7       		.byte	0xf7
 6850 056f 29010000 		.4byte	0x129
 6851 0573 00       		.byte	0
 6852 0574 08       		.uleb128 0x8
 6853 0575 E42E0000 		.4byte	.LASF96
 6854 0579 0D       		.byte	0xd
 6855 057a F8       		.byte	0xf8
 6856 057b 29010000 		.4byte	0x129
 6857 057f 04       		.byte	0x4
 6858 0580 08       		.uleb128 0x8
 6859 0581 CF250000 		.4byte	.LASF97
 6860 0585 0D       		.byte	0xd
 6861 0586 F9       		.byte	0xf9
 6862 0587 29010000 		.4byte	0x129
ARM GAS  /tmp/ccETYwEL.s 			page 123


 6863 058b 08       		.byte	0x8
 6864 058c 08       		.uleb128 0x8
 6865 058d 56220000 		.4byte	.LASF98
 6866 0591 0D       		.byte	0xd
 6867 0592 FA       		.byte	0xfa
 6868 0593 29010000 		.4byte	0x129
 6869 0597 0C       		.byte	0xc
 6870 0598 00       		.byte	0
 6871 0599 03       		.uleb128 0x3
 6872 059a 402D0000 		.4byte	.LASF99
 6873 059e 0D       		.byte	0xd
 6874 059f FB       		.byte	0xfb
 6875 05a0 60050000 		.4byte	0x560
 6876 05a4 17       		.uleb128 0x17
 6877 05a5 08       		.byte	0x8
 6878 05a6 0D       		.byte	0xd
 6879 05a7 0101     		.2byte	0x101
 6880 05a9 C8050000 		.4byte	0x5c8
 6881 05ad 09       		.uleb128 0x9
 6882 05ae 46523100 		.ascii	"FR1\000"
 6883 05b2 0D       		.byte	0xd
 6884 05b3 0301     		.2byte	0x103
 6885 05b5 29010000 		.4byte	0x129
 6886 05b9 00       		.byte	0
 6887 05ba 09       		.uleb128 0x9
 6888 05bb 46523200 		.ascii	"FR2\000"
 6889 05bf 0D       		.byte	0xd
 6890 05c0 0401     		.2byte	0x104
 6891 05c2 29010000 		.4byte	0x129
 6892 05c6 04       		.byte	0x4
 6893 05c7 00       		.byte	0
 6894 05c8 18       		.uleb128 0x18
 6895 05c9 DC170000 		.4byte	.LASF100
 6896 05cd 0D       		.byte	0xd
 6897 05ce 0501     		.2byte	0x105
 6898 05d0 A4050000 		.4byte	0x5a4
 6899 05d4 19       		.uleb128 0x19
 6900 05d5 2003     		.2byte	0x320
 6901 05d7 0D       		.byte	0xd
 6902 05d8 0B01     		.2byte	0x10b
 6903 05da 0A070000 		.4byte	0x70a
 6904 05de 09       		.uleb128 0x9
 6905 05df 4D435200 		.ascii	"MCR\000"
 6906 05e3 0D       		.byte	0xd
 6907 05e4 0D01     		.2byte	0x10d
 6908 05e6 29010000 		.4byte	0x129
 6909 05ea 00       		.byte	0
 6910 05eb 09       		.uleb128 0x9
 6911 05ec 4D535200 		.ascii	"MSR\000"
 6912 05f0 0D       		.byte	0xd
 6913 05f1 0E01     		.2byte	0x10e
 6914 05f3 29010000 		.4byte	0x129
 6915 05f7 04       		.byte	0x4
 6916 05f8 09       		.uleb128 0x9
 6917 05f9 54535200 		.ascii	"TSR\000"
 6918 05fd 0D       		.byte	0xd
 6919 05fe 0F01     		.2byte	0x10f
ARM GAS  /tmp/ccETYwEL.s 			page 124


 6920 0600 29010000 		.4byte	0x129
 6921 0604 08       		.byte	0x8
 6922 0605 0A       		.uleb128 0xa
 6923 0606 01150000 		.4byte	.LASF101
 6924 060a 0D       		.byte	0xd
 6925 060b 1001     		.2byte	0x110
 6926 060d 29010000 		.4byte	0x129
 6927 0611 0C       		.byte	0xc
 6928 0612 0A       		.uleb128 0xa
 6929 0613 18160000 		.4byte	.LASF102
 6930 0617 0D       		.byte	0xd
 6931 0618 1101     		.2byte	0x111
 6932 061a 29010000 		.4byte	0x129
 6933 061e 10       		.byte	0x10
 6934 061f 09       		.uleb128 0x9
 6935 0620 49455200 		.ascii	"IER\000"
 6936 0624 0D       		.byte	0xd
 6937 0625 1201     		.2byte	0x112
 6938 0627 29010000 		.4byte	0x129
 6939 062b 14       		.byte	0x14
 6940 062c 09       		.uleb128 0x9
 6941 062d 45535200 		.ascii	"ESR\000"
 6942 0631 0D       		.byte	0xd
 6943 0632 1301     		.2byte	0x113
 6944 0634 29010000 		.4byte	0x129
 6945 0638 18       		.byte	0x18
 6946 0639 09       		.uleb128 0x9
 6947 063a 42545200 		.ascii	"BTR\000"
 6948 063e 0D       		.byte	0xd
 6949 063f 1401     		.2byte	0x114
 6950 0641 29010000 		.4byte	0x129
 6951 0645 1C       		.byte	0x1c
 6952 0646 0A       		.uleb128 0xa
 6953 0647 E1300000 		.4byte	.LASF103
 6954 064b 0D       		.byte	0xd
 6955 064c 1501     		.2byte	0x115
 6956 064e 0A070000 		.4byte	0x70a
 6957 0652 20       		.byte	0x20
 6958 0653 1A       		.uleb128 0x1a
 6959 0654 E5190000 		.4byte	.LASF104
 6960 0658 0D       		.byte	0xd
 6961 0659 1601     		.2byte	0x116
 6962 065b 1A070000 		.4byte	0x71a
 6963 065f 8001     		.2byte	0x180
 6964 0661 1A       		.uleb128 0x1a
 6965 0662 23380000 		.4byte	.LASF105
 6966 0666 0D       		.byte	0xd
 6967 0667 1701     		.2byte	0x117
 6968 0669 2A070000 		.4byte	0x72a
 6969 066d B001     		.2byte	0x1b0
 6970 066f 1A       		.uleb128 0x1a
 6971 0670 EB300000 		.4byte	.LASF106
 6972 0674 0D       		.byte	0xd
 6973 0675 1801     		.2byte	0x118
 6974 0677 3A070000 		.4byte	0x73a
 6975 067b D001     		.2byte	0x1d0
 6976 067d 1B       		.uleb128 0x1b
ARM GAS  /tmp/ccETYwEL.s 			page 125


 6977 067e 464D5200 		.ascii	"FMR\000"
 6978 0682 0D       		.byte	0xd
 6979 0683 1901     		.2byte	0x119
 6980 0685 29010000 		.4byte	0x129
 6981 0689 0002     		.2byte	0x200
 6982 068b 1A       		.uleb128 0x1a
 6983 068c 9B0E0000 		.4byte	.LASF107
 6984 0690 0D       		.byte	0xd
 6985 0691 1A01     		.2byte	0x11a
 6986 0693 29010000 		.4byte	0x129
 6987 0697 0402     		.2byte	0x204
 6988 0699 1A       		.uleb128 0x1a
 6989 069a F5300000 		.4byte	.LASF108
 6990 069e 0D       		.byte	0xd
 6991 069f 1B01     		.2byte	0x11b
 6992 06a1 1E010000 		.4byte	0x11e
 6993 06a5 0802     		.2byte	0x208
 6994 06a7 1A       		.uleb128 0x1a
 6995 06a8 62340000 		.4byte	.LASF109
 6996 06ac 0D       		.byte	0xd
 6997 06ad 1C01     		.2byte	0x11c
 6998 06af 29010000 		.4byte	0x129
 6999 06b3 0C02     		.2byte	0x20c
 7000 06b5 1A       		.uleb128 0x1a
 7001 06b6 FF300000 		.4byte	.LASF110
 7002 06ba 0D       		.byte	0xd
 7003 06bb 1D01     		.2byte	0x11d
 7004 06bd 1E010000 		.4byte	0x11e
 7005 06c1 1002     		.2byte	0x210
 7006 06c3 1A       		.uleb128 0x1a
 7007 06c4 3E260000 		.4byte	.LASF111
 7008 06c8 0D       		.byte	0xd
 7009 06c9 1E01     		.2byte	0x11e
 7010 06cb 29010000 		.4byte	0x129
 7011 06cf 1402     		.2byte	0x214
 7012 06d1 1A       		.uleb128 0x1a
 7013 06d2 09310000 		.4byte	.LASF112
 7014 06d6 0D       		.byte	0xd
 7015 06d7 1F01     		.2byte	0x11f
 7016 06d9 1E010000 		.4byte	0x11e
 7017 06dd 1802     		.2byte	0x218
 7018 06df 1A       		.uleb128 0x1a
 7019 06e0 83050000 		.4byte	.LASF113
 7020 06e4 0D       		.byte	0xd
 7021 06e5 2001     		.2byte	0x120
 7022 06e7 29010000 		.4byte	0x129
 7023 06eb 1C02     		.2byte	0x21c
 7024 06ed 1A       		.uleb128 0x1a
 7025 06ee 13310000 		.4byte	.LASF114
 7026 06f2 0D       		.byte	0xd
 7027 06f3 2101     		.2byte	0x121
 7028 06f5 F5040000 		.4byte	0x4f5
 7029 06f9 2002     		.2byte	0x220
 7030 06fb 1A       		.uleb128 0x1a
 7031 06fc C5070000 		.4byte	.LASF115
 7032 0700 0D       		.byte	0xd
 7033 0701 2201     		.2byte	0x122
ARM GAS  /tmp/ccETYwEL.s 			page 126


 7034 0703 4A070000 		.4byte	0x74a
 7035 0707 4002     		.2byte	0x240
 7036 0709 00       		.byte	0
 7037 070a 11       		.uleb128 0x11
 7038 070b 1E010000 		.4byte	0x11e
 7039 070f 1A070000 		.4byte	0x71a
 7040 0713 12       		.uleb128 0x12
 7041 0714 BD000000 		.4byte	0xbd
 7042 0718 57       		.byte	0x57
 7043 0719 00       		.byte	0
 7044 071a 11       		.uleb128 0x11
 7045 071b 55050000 		.4byte	0x555
 7046 071f 2A070000 		.4byte	0x72a
 7047 0723 12       		.uleb128 0x12
 7048 0724 BD000000 		.4byte	0xbd
 7049 0728 02       		.byte	0x2
 7050 0729 00       		.byte	0
 7051 072a 11       		.uleb128 0x11
 7052 072b 99050000 		.4byte	0x599
 7053 072f 3A070000 		.4byte	0x73a
 7054 0733 12       		.uleb128 0x12
 7055 0734 BD000000 		.4byte	0xbd
 7056 0738 01       		.byte	0x1
 7057 0739 00       		.byte	0
 7058 073a 11       		.uleb128 0x11
 7059 073b 1E010000 		.4byte	0x11e
 7060 073f 4A070000 		.4byte	0x74a
 7061 0743 12       		.uleb128 0x12
 7062 0744 BD000000 		.4byte	0xbd
 7063 0748 0B       		.byte	0xb
 7064 0749 00       		.byte	0
 7065 074a 11       		.uleb128 0x11
 7066 074b C8050000 		.4byte	0x5c8
 7067 074f 5A070000 		.4byte	0x75a
 7068 0753 12       		.uleb128 0x12
 7069 0754 BD000000 		.4byte	0xbd
 7070 0758 1B       		.byte	0x1b
 7071 0759 00       		.byte	0
 7072 075a 18       		.uleb128 0x18
 7073 075b CE120000 		.4byte	.LASF116
 7074 075f 0D       		.byte	0xd
 7075 0760 2301     		.2byte	0x123
 7076 0762 D4050000 		.4byte	0x5d4
 7077 0766 17       		.uleb128 0x17
 7078 0767 18       		.byte	0x18
 7079 0768 0D       		.byte	0xd
 7080 0769 6B01     		.2byte	0x16b
 7081 076b BD070000 		.4byte	0x7bd
 7082 076f 09       		.uleb128 0x9
 7083 0770 435200   		.ascii	"CR\000"
 7084 0773 0D       		.byte	0xd
 7085 0774 6D01     		.2byte	0x16d
 7086 0776 29010000 		.4byte	0x129
 7087 077a 00       		.byte	0
 7088 077b 0A       		.uleb128 0xa
 7089 077c DA320000 		.4byte	.LASF117
 7090 0780 0D       		.byte	0xd
ARM GAS  /tmp/ccETYwEL.s 			page 127


 7091 0781 6E01     		.2byte	0x16e
 7092 0783 29010000 		.4byte	0x129
 7093 0787 04       		.byte	0x4
 7094 0788 09       		.uleb128 0x9
 7095 0789 50415200 		.ascii	"PAR\000"
 7096 078d 0D       		.byte	0xd
 7097 078e 6F01     		.2byte	0x16f
 7098 0790 29010000 		.4byte	0x129
 7099 0794 08       		.byte	0x8
 7100 0795 0A       		.uleb128 0xa
 7101 0796 2D050000 		.4byte	.LASF118
 7102 079a 0D       		.byte	0xd
 7103 079b 7001     		.2byte	0x170
 7104 079d 29010000 		.4byte	0x129
 7105 07a1 0C       		.byte	0xc
 7106 07a2 0A       		.uleb128 0xa
 7107 07a3 5A0A0000 		.4byte	.LASF119
 7108 07a7 0D       		.byte	0xd
 7109 07a8 7101     		.2byte	0x171
 7110 07aa 29010000 		.4byte	0x129
 7111 07ae 10       		.byte	0x10
 7112 07af 09       		.uleb128 0x9
 7113 07b0 46435200 		.ascii	"FCR\000"
 7114 07b4 0D       		.byte	0xd
 7115 07b5 7201     		.2byte	0x172
 7116 07b7 29010000 		.4byte	0x129
 7117 07bb 14       		.byte	0x14
 7118 07bc 00       		.byte	0
 7119 07bd 18       		.uleb128 0x18
 7120 07be 640A0000 		.4byte	.LASF120
 7121 07c2 0D       		.byte	0xd
 7122 07c3 7301     		.2byte	0x173
 7123 07c5 66070000 		.4byte	0x766
 7124 07c9 11       		.uleb128 0x11
 7125 07ca 29010000 		.4byte	0x129
 7126 07ce D9070000 		.4byte	0x7d9
 7127 07d2 12       		.uleb128 0x12
 7128 07d3 BD000000 		.4byte	0xbd
 7129 07d7 01       		.byte	0x1
 7130 07d8 00       		.byte	0
 7131 07d9 05       		.uleb128 0x5
 7132 07da C9070000 		.4byte	0x7c9
 7133 07de 11       		.uleb128 0x11
 7134 07df 29010000 		.4byte	0x129
 7135 07e3 EE070000 		.4byte	0x7ee
 7136 07e7 12       		.uleb128 0x12
 7137 07e8 BD000000 		.4byte	0xbd
 7138 07ec 03       		.byte	0x3
 7139 07ed 00       		.byte	0
 7140 07ee 05       		.uleb128 0x5
 7141 07ef DE070000 		.4byte	0x7de
 7142 07f3 17       		.uleb128 0x17
 7143 07f4 28       		.byte	0x28
 7144 07f5 0D       		.byte	0xd
 7145 07f6 3F02     		.2byte	0x23f
 7146 07f8 7E080000 		.4byte	0x87e
 7147 07fc 09       		.uleb128 0x9
ARM GAS  /tmp/ccETYwEL.s 			page 128


 7148 07fd 43523100 		.ascii	"CR1\000"
 7149 0801 0D       		.byte	0xd
 7150 0802 4102     		.2byte	0x241
 7151 0804 29010000 		.4byte	0x129
 7152 0808 00       		.byte	0
 7153 0809 09       		.uleb128 0x9
 7154 080a 43523200 		.ascii	"CR2\000"
 7155 080e 0D       		.byte	0xd
 7156 080f 4202     		.2byte	0x242
 7157 0811 29010000 		.4byte	0x129
 7158 0815 04       		.byte	0x4
 7159 0816 0A       		.uleb128 0xa
 7160 0817 033D0000 		.4byte	.LASF121
 7161 081b 0D       		.byte	0xd
 7162 081c 4302     		.2byte	0x243
 7163 081e 29010000 		.4byte	0x129
 7164 0822 08       		.byte	0x8
 7165 0823 0A       		.uleb128 0xa
 7166 0824 083D0000 		.4byte	.LASF122
 7167 0828 0D       		.byte	0xd
 7168 0829 4402     		.2byte	0x244
 7169 082b 29010000 		.4byte	0x129
 7170 082f 0C       		.byte	0xc
 7171 0830 09       		.uleb128 0x9
 7172 0831 445200   		.ascii	"DR\000"
 7173 0834 0D       		.byte	0xd
 7174 0835 4502     		.2byte	0x245
 7175 0837 29010000 		.4byte	0x129
 7176 083b 10       		.byte	0x10
 7177 083c 09       		.uleb128 0x9
 7178 083d 53523100 		.ascii	"SR1\000"
 7179 0841 0D       		.byte	0xd
 7180 0842 4602     		.2byte	0x246
 7181 0844 29010000 		.4byte	0x129
 7182 0848 14       		.byte	0x14
 7183 0849 09       		.uleb128 0x9
 7184 084a 53523200 		.ascii	"SR2\000"
 7185 084e 0D       		.byte	0xd
 7186 084f 4702     		.2byte	0x247
 7187 0851 29010000 		.4byte	0x129
 7188 0855 18       		.byte	0x18
 7189 0856 09       		.uleb128 0x9
 7190 0857 43435200 		.ascii	"CCR\000"
 7191 085b 0D       		.byte	0xd
 7192 085c 4802     		.2byte	0x248
 7193 085e 29010000 		.4byte	0x129
 7194 0862 1C       		.byte	0x1c
 7195 0863 0A       		.uleb128 0xa
 7196 0864 B8060000 		.4byte	.LASF123
 7197 0868 0D       		.byte	0xd
 7198 0869 4902     		.2byte	0x249
 7199 086b 29010000 		.4byte	0x129
 7200 086f 20       		.byte	0x20
 7201 0870 0A       		.uleb128 0xa
 7202 0871 6C3A0000 		.4byte	.LASF124
 7203 0875 0D       		.byte	0xd
 7204 0876 4A02     		.2byte	0x24a
ARM GAS  /tmp/ccETYwEL.s 			page 129


 7205 0878 29010000 		.4byte	0x129
 7206 087c 24       		.byte	0x24
 7207 087d 00       		.byte	0
 7208 087e 18       		.uleb128 0x18
 7209 087f 4A220000 		.4byte	.LASF125
 7210 0883 0D       		.byte	0xd
 7211 0884 4B02     		.2byte	0x24b
 7212 0886 F3070000 		.4byte	0x7f3
 7213 088a 17       		.uleb128 0x17
 7214 088b 24       		.byte	0x24
 7215 088c 0D       		.byte	0xd
 7216 088d DB02     		.2byte	0x2db
 7217 088f 07090000 		.4byte	0x907
 7218 0893 09       		.uleb128 0x9
 7219 0894 43523100 		.ascii	"CR1\000"
 7220 0898 0D       		.byte	0xd
 7221 0899 DD02     		.2byte	0x2dd
 7222 089b 29010000 		.4byte	0x129
 7223 089f 00       		.byte	0
 7224 08a0 09       		.uleb128 0x9
 7225 08a1 43523200 		.ascii	"CR2\000"
 7226 08a5 0D       		.byte	0xd
 7227 08a6 DE02     		.2byte	0x2de
 7228 08a8 29010000 		.4byte	0x129
 7229 08ac 04       		.byte	0x4
 7230 08ad 09       		.uleb128 0x9
 7231 08ae 535200   		.ascii	"SR\000"
 7232 08b1 0D       		.byte	0xd
 7233 08b2 DF02     		.2byte	0x2df
 7234 08b4 29010000 		.4byte	0x129
 7235 08b8 08       		.byte	0x8
 7236 08b9 09       		.uleb128 0x9
 7237 08ba 445200   		.ascii	"DR\000"
 7238 08bd 0D       		.byte	0xd
 7239 08be E002     		.2byte	0x2e0
 7240 08c0 29010000 		.4byte	0x129
 7241 08c4 0C       		.byte	0xc
 7242 08c5 0A       		.uleb128 0xa
 7243 08c6 D5090000 		.4byte	.LASF126
 7244 08ca 0D       		.byte	0xd
 7245 08cb E102     		.2byte	0x2e1
 7246 08cd 29010000 		.4byte	0x129
 7247 08d1 10       		.byte	0x10
 7248 08d2 0A       		.uleb128 0xa
 7249 08d3 540F0000 		.4byte	.LASF127
 7250 08d7 0D       		.byte	0xd
 7251 08d8 E202     		.2byte	0x2e2
 7252 08da 29010000 		.4byte	0x129
 7253 08de 14       		.byte	0x14
 7254 08df 0A       		.uleb128 0xa
 7255 08e0 E70D0000 		.4byte	.LASF128
 7256 08e4 0D       		.byte	0xd
 7257 08e5 E302     		.2byte	0x2e3
 7258 08e7 29010000 		.4byte	0x129
 7259 08eb 18       		.byte	0x18
 7260 08ec 0A       		.uleb128 0xa
 7261 08ed 99360000 		.4byte	.LASF129
ARM GAS  /tmp/ccETYwEL.s 			page 130


 7262 08f1 0D       		.byte	0xd
 7263 08f2 E402     		.2byte	0x2e4
 7264 08f4 29010000 		.4byte	0x129
 7265 08f8 1C       		.byte	0x1c
 7266 08f9 0A       		.uleb128 0xa
 7267 08fa 70090000 		.4byte	.LASF130
 7268 08fe 0D       		.byte	0xd
 7269 08ff E502     		.2byte	0x2e5
 7270 0901 29010000 		.4byte	0x129
 7271 0905 20       		.byte	0x20
 7272 0906 00       		.byte	0
 7273 0907 18       		.uleb128 0x18
 7274 0908 20330000 		.4byte	.LASF131
 7275 090c 0D       		.byte	0xd
 7276 090d E602     		.2byte	0x2e6
 7277 090f 8A080000 		.4byte	0x88a
 7278 0913 17       		.uleb128 0x17
 7279 0914 54       		.byte	0x54
 7280 0915 0D       		.byte	0xd
 7281 0916 EC02     		.2byte	0x2ec
 7282 0918 2C0A0000 		.4byte	0xa2c
 7283 091c 09       		.uleb128 0x9
 7284 091d 43523100 		.ascii	"CR1\000"
 7285 0921 0D       		.byte	0xd
 7286 0922 EE02     		.2byte	0x2ee
 7287 0924 29010000 		.4byte	0x129
 7288 0928 00       		.byte	0
 7289 0929 09       		.uleb128 0x9
 7290 092a 43523200 		.ascii	"CR2\000"
 7291 092e 0D       		.byte	0xd
 7292 092f EF02     		.2byte	0x2ef
 7293 0931 29010000 		.4byte	0x129
 7294 0935 04       		.byte	0x4
 7295 0936 0A       		.uleb128 0xa
 7296 0937 34330000 		.4byte	.LASF132
 7297 093b 0D       		.byte	0xd
 7298 093c F002     		.2byte	0x2f0
 7299 093e 29010000 		.4byte	0x129
 7300 0942 08       		.byte	0x8
 7301 0943 0A       		.uleb128 0xa
 7302 0944 770D0000 		.4byte	.LASF133
 7303 0948 0D       		.byte	0xd
 7304 0949 F102     		.2byte	0x2f1
 7305 094b 29010000 		.4byte	0x129
 7306 094f 0C       		.byte	0xc
 7307 0950 09       		.uleb128 0x9
 7308 0951 535200   		.ascii	"SR\000"
 7309 0954 0D       		.byte	0xd
 7310 0955 F202     		.2byte	0x2f2
 7311 0957 29010000 		.4byte	0x129
 7312 095b 10       		.byte	0x10
 7313 095c 09       		.uleb128 0x9
 7314 095d 45475200 		.ascii	"EGR\000"
 7315 0961 0D       		.byte	0xd
 7316 0962 F302     		.2byte	0x2f3
 7317 0964 29010000 		.4byte	0x129
 7318 0968 14       		.byte	0x14
ARM GAS  /tmp/ccETYwEL.s 			page 131


 7319 0969 0A       		.uleb128 0xa
 7320 096a A43A0000 		.4byte	.LASF134
 7321 096e 0D       		.byte	0xd
 7322 096f F402     		.2byte	0x2f4
 7323 0971 29010000 		.4byte	0x129
 7324 0975 18       		.byte	0x18
 7325 0976 0A       		.uleb128 0xa
 7326 0977 AA3A0000 		.4byte	.LASF135
 7327 097b 0D       		.byte	0xd
 7328 097c F502     		.2byte	0x2f5
 7329 097e 29010000 		.4byte	0x129
 7330 0982 1C       		.byte	0x1c
 7331 0983 0A       		.uleb128 0xa
 7332 0984 6B090000 		.4byte	.LASF136
 7333 0988 0D       		.byte	0xd
 7334 0989 F602     		.2byte	0x2f6
 7335 098b 29010000 		.4byte	0x129
 7336 098f 20       		.byte	0x20
 7337 0990 09       		.uleb128 0x9
 7338 0991 434E5400 		.ascii	"CNT\000"
 7339 0995 0D       		.byte	0xd
 7340 0996 F702     		.2byte	0x2f7
 7341 0998 29010000 		.4byte	0x129
 7342 099c 24       		.byte	0x24
 7343 099d 09       		.uleb128 0x9
 7344 099e 50534300 		.ascii	"PSC\000"
 7345 09a2 0D       		.byte	0xd
 7346 09a3 F802     		.2byte	0x2f8
 7347 09a5 29010000 		.4byte	0x129
 7348 09a9 28       		.byte	0x28
 7349 09aa 09       		.uleb128 0x9
 7350 09ab 41525200 		.ascii	"ARR\000"
 7351 09af 0D       		.byte	0xd
 7352 09b0 F902     		.2byte	0x2f9
 7353 09b2 29010000 		.4byte	0x129
 7354 09b6 2C       		.byte	0x2c
 7355 09b7 09       		.uleb128 0x9
 7356 09b8 52435200 		.ascii	"RCR\000"
 7357 09bc 0D       		.byte	0xd
 7358 09bd FA02     		.2byte	0x2fa
 7359 09bf 29010000 		.4byte	0x129
 7360 09c3 30       		.byte	0x30
 7361 09c4 0A       		.uleb128 0xa
 7362 09c5 B8160000 		.4byte	.LASF137
 7363 09c9 0D       		.byte	0xd
 7364 09ca FB02     		.2byte	0x2fb
 7365 09cc 29010000 		.4byte	0x129
 7366 09d0 34       		.byte	0x34
 7367 09d1 0A       		.uleb128 0xa
 7368 09d2 BD160000 		.4byte	.LASF138
 7369 09d6 0D       		.byte	0xd
 7370 09d7 FC02     		.2byte	0x2fc
 7371 09d9 29010000 		.4byte	0x129
 7372 09dd 38       		.byte	0x38
 7373 09de 0A       		.uleb128 0xa
 7374 09df C2160000 		.4byte	.LASF139
 7375 09e3 0D       		.byte	0xd
ARM GAS  /tmp/ccETYwEL.s 			page 132


 7376 09e4 FD02     		.2byte	0x2fd
 7377 09e6 29010000 		.4byte	0x129
 7378 09ea 3C       		.byte	0x3c
 7379 09eb 0A       		.uleb128 0xa
 7380 09ec C7160000 		.4byte	.LASF140
 7381 09f0 0D       		.byte	0xd
 7382 09f1 FE02     		.2byte	0x2fe
 7383 09f3 29010000 		.4byte	0x129
 7384 09f7 40       		.byte	0x40
 7385 09f8 0A       		.uleb128 0xa
 7386 09f9 55020000 		.4byte	.LASF141
 7387 09fd 0D       		.byte	0xd
 7388 09fe FF02     		.2byte	0x2ff
 7389 0a00 29010000 		.4byte	0x129
 7390 0a04 44       		.byte	0x44
 7391 0a05 09       		.uleb128 0x9
 7392 0a06 44435200 		.ascii	"DCR\000"
 7393 0a0a 0D       		.byte	0xd
 7394 0a0b 0003     		.2byte	0x300
 7395 0a0d 29010000 		.4byte	0x129
 7396 0a11 48       		.byte	0x48
 7397 0a12 0A       		.uleb128 0xa
 7398 0a13 75220000 		.4byte	.LASF142
 7399 0a17 0D       		.byte	0xd
 7400 0a18 0103     		.2byte	0x301
 7401 0a1a 29010000 		.4byte	0x129
 7402 0a1e 4C       		.byte	0x4c
 7403 0a1f 09       		.uleb128 0x9
 7404 0a20 4F5200   		.ascii	"OR\000"
 7405 0a23 0D       		.byte	0xd
 7406 0a24 0203     		.2byte	0x302
 7407 0a26 29010000 		.4byte	0x129
 7408 0a2a 50       		.byte	0x50
 7409 0a2b 00       		.byte	0
 7410 0a2c 18       		.uleb128 0x18
 7411 0a2d 371C0000 		.4byte	.LASF143
 7412 0a31 0D       		.byte	0xd
 7413 0a32 0303     		.2byte	0x303
 7414 0a34 13090000 		.4byte	0x913
 7415 0a38 17       		.uleb128 0x17
 7416 0a39 1C       		.byte	0x1c
 7417 0a3a 0D       		.byte	0xd
 7418 0a3b 0903     		.2byte	0x309
 7419 0a3d 9B0A0000 		.4byte	0xa9b
 7420 0a41 09       		.uleb128 0x9
 7421 0a42 535200   		.ascii	"SR\000"
 7422 0a45 0D       		.byte	0xd
 7423 0a46 0B03     		.2byte	0x30b
 7424 0a48 29010000 		.4byte	0x129
 7425 0a4c 00       		.byte	0
 7426 0a4d 09       		.uleb128 0x9
 7427 0a4e 445200   		.ascii	"DR\000"
 7428 0a51 0D       		.byte	0xd
 7429 0a52 0C03     		.2byte	0x30c
 7430 0a54 29010000 		.4byte	0x129
 7431 0a58 04       		.byte	0x4
 7432 0a59 09       		.uleb128 0x9
ARM GAS  /tmp/ccETYwEL.s 			page 133


 7433 0a5a 42525200 		.ascii	"BRR\000"
 7434 0a5e 0D       		.byte	0xd
 7435 0a5f 0D03     		.2byte	0x30d
 7436 0a61 29010000 		.4byte	0x129
 7437 0a65 08       		.byte	0x8
 7438 0a66 09       		.uleb128 0x9
 7439 0a67 43523100 		.ascii	"CR1\000"
 7440 0a6b 0D       		.byte	0xd
 7441 0a6c 0E03     		.2byte	0x30e
 7442 0a6e 29010000 		.4byte	0x129
 7443 0a72 0C       		.byte	0xc
 7444 0a73 09       		.uleb128 0x9
 7445 0a74 43523200 		.ascii	"CR2\000"
 7446 0a78 0D       		.byte	0xd
 7447 0a79 0F03     		.2byte	0x30f
 7448 0a7b 29010000 		.4byte	0x129
 7449 0a7f 10       		.byte	0x10
 7450 0a80 09       		.uleb128 0x9
 7451 0a81 43523300 		.ascii	"CR3\000"
 7452 0a85 0D       		.byte	0xd
 7453 0a86 1003     		.2byte	0x310
 7454 0a88 29010000 		.4byte	0x129
 7455 0a8c 14       		.byte	0x14
 7456 0a8d 0A       		.uleb128 0xa
 7457 0a8e 023A0000 		.4byte	.LASF144
 7458 0a92 0D       		.byte	0xd
 7459 0a93 1103     		.2byte	0x311
 7460 0a95 29010000 		.4byte	0x129
 7461 0a99 18       		.byte	0x18
 7462 0a9a 00       		.byte	0
 7463 0a9b 18       		.uleb128 0x18
 7464 0a9c 903B0000 		.4byte	.LASF145
 7465 0aa0 0D       		.byte	0xd
 7466 0aa1 1203     		.2byte	0x312
 7467 0aa3 380A0000 		.4byte	0xa38
 7468 0aa7 11       		.uleb128 0x11
 7469 0aa8 29010000 		.4byte	0x129
 7470 0aac B70A0000 		.4byte	0xab7
 7471 0ab0 12       		.uleb128 0x12
 7472 0ab1 BD000000 		.4byte	0xbd
 7473 0ab5 0E       		.byte	0xe
 7474 0ab6 00       		.byte	0
 7475 0ab7 05       		.uleb128 0x5
 7476 0ab8 A70A0000 		.4byte	0xaa7
 7477 0abc 03       		.uleb128 0x3
 7478 0abd 19260000 		.4byte	.LASF146
 7479 0ac1 0E       		.byte	0xe
 7480 0ac2 65       		.byte	0x65
 7481 0ac3 BF030000 		.4byte	0x3bf
 7482 0ac7 03       		.uleb128 0x3
 7483 0ac8 E60B0000 		.4byte	.LASF147
 7484 0acc 0E       		.byte	0xe
 7485 0acd 6D       		.byte	0x6d
 7486 0ace 2E010000 		.4byte	0x12e
 7487 0ad2 07       		.uleb128 0x7
 7488 0ad3 DD240000 		.4byte	.LASF148
 7489 0ad7 04       		.byte	0x4
ARM GAS  /tmp/ccETYwEL.s 			page 134


 7490 0ad8 0E       		.byte	0xe
 7491 0ad9 89       		.byte	0x89
 7492 0ada EB0A0000 		.4byte	0xaeb
 7493 0ade 16       		.uleb128 0x16
 7494 0adf 72313300 		.ascii	"r13\000"
 7495 0ae3 0E       		.byte	0xe
 7496 0ae4 8A       		.byte	0x8a
 7497 0ae5 2C0C0000 		.4byte	0xc2c
 7498 0ae9 00       		.byte	0
 7499 0aea 00       		.byte	0
 7500 0aeb 07       		.uleb128 0x7
 7501 0aec 09000000 		.4byte	.LASF149
 7502 0af0 64       		.byte	0x64
 7503 0af1 0F       		.byte	0xf
 7504 0af2 F4       		.byte	0xf4
 7505 0af3 2C0C0000 		.4byte	0xc2c
 7506 0af7 16       		.uleb128 0x16
 7507 0af8 73313600 		.ascii	"s16\000"
 7508 0afc 0F       		.byte	0xf
 7509 0afd F6       		.byte	0xf6
 7510 0afe BC0A0000 		.4byte	0xabc
 7511 0b02 00       		.byte	0
 7512 0b03 16       		.uleb128 0x16
 7513 0b04 73313700 		.ascii	"s17\000"
 7514 0b08 0F       		.byte	0xf
 7515 0b09 F7       		.byte	0xf7
 7516 0b0a BC0A0000 		.4byte	0xabc
 7517 0b0e 04       		.byte	0x4
 7518 0b0f 16       		.uleb128 0x16
 7519 0b10 73313800 		.ascii	"s18\000"
 7520 0b14 0F       		.byte	0xf
 7521 0b15 F8       		.byte	0xf8
 7522 0b16 BC0A0000 		.4byte	0xabc
 7523 0b1a 08       		.byte	0x8
 7524 0b1b 16       		.uleb128 0x16
 7525 0b1c 73313900 		.ascii	"s19\000"
 7526 0b20 0F       		.byte	0xf
 7527 0b21 F9       		.byte	0xf9
 7528 0b22 BC0A0000 		.4byte	0xabc
 7529 0b26 0C       		.byte	0xc
 7530 0b27 16       		.uleb128 0x16
 7531 0b28 73323000 		.ascii	"s20\000"
 7532 0b2c 0F       		.byte	0xf
 7533 0b2d FA       		.byte	0xfa
 7534 0b2e BC0A0000 		.4byte	0xabc
 7535 0b32 10       		.byte	0x10
 7536 0b33 16       		.uleb128 0x16
 7537 0b34 73323100 		.ascii	"s21\000"
 7538 0b38 0F       		.byte	0xf
 7539 0b39 FB       		.byte	0xfb
 7540 0b3a BC0A0000 		.4byte	0xabc
 7541 0b3e 14       		.byte	0x14
 7542 0b3f 16       		.uleb128 0x16
 7543 0b40 73323200 		.ascii	"s22\000"
 7544 0b44 0F       		.byte	0xf
 7545 0b45 FC       		.byte	0xfc
 7546 0b46 BC0A0000 		.4byte	0xabc
ARM GAS  /tmp/ccETYwEL.s 			page 135


 7547 0b4a 18       		.byte	0x18
 7548 0b4b 16       		.uleb128 0x16
 7549 0b4c 73323300 		.ascii	"s23\000"
 7550 0b50 0F       		.byte	0xf
 7551 0b51 FD       		.byte	0xfd
 7552 0b52 BC0A0000 		.4byte	0xabc
 7553 0b56 1C       		.byte	0x1c
 7554 0b57 16       		.uleb128 0x16
 7555 0b58 73323400 		.ascii	"s24\000"
 7556 0b5c 0F       		.byte	0xf
 7557 0b5d FE       		.byte	0xfe
 7558 0b5e BC0A0000 		.4byte	0xabc
 7559 0b62 20       		.byte	0x20
 7560 0b63 16       		.uleb128 0x16
 7561 0b64 73323500 		.ascii	"s25\000"
 7562 0b68 0F       		.byte	0xf
 7563 0b69 FF       		.byte	0xff
 7564 0b6a BC0A0000 		.4byte	0xabc
 7565 0b6e 24       		.byte	0x24
 7566 0b6f 09       		.uleb128 0x9
 7567 0b70 73323600 		.ascii	"s26\000"
 7568 0b74 0F       		.byte	0xf
 7569 0b75 0001     		.2byte	0x100
 7570 0b77 BC0A0000 		.4byte	0xabc
 7571 0b7b 28       		.byte	0x28
 7572 0b7c 09       		.uleb128 0x9
 7573 0b7d 73323700 		.ascii	"s27\000"
 7574 0b81 0F       		.byte	0xf
 7575 0b82 0101     		.2byte	0x101
 7576 0b84 BC0A0000 		.4byte	0xabc
 7577 0b88 2C       		.byte	0x2c
 7578 0b89 09       		.uleb128 0x9
 7579 0b8a 73323800 		.ascii	"s28\000"
 7580 0b8e 0F       		.byte	0xf
 7581 0b8f 0201     		.2byte	0x102
 7582 0b91 BC0A0000 		.4byte	0xabc
 7583 0b95 30       		.byte	0x30
 7584 0b96 09       		.uleb128 0x9
 7585 0b97 73323900 		.ascii	"s29\000"
 7586 0b9b 0F       		.byte	0xf
 7587 0b9c 0301     		.2byte	0x103
 7588 0b9e BC0A0000 		.4byte	0xabc
 7589 0ba2 34       		.byte	0x34
 7590 0ba3 09       		.uleb128 0x9
 7591 0ba4 73333000 		.ascii	"s30\000"
 7592 0ba8 0F       		.byte	0xf
 7593 0ba9 0401     		.2byte	0x104
 7594 0bab BC0A0000 		.4byte	0xabc
 7595 0baf 38       		.byte	0x38
 7596 0bb0 09       		.uleb128 0x9
 7597 0bb1 73333100 		.ascii	"s31\000"
 7598 0bb5 0F       		.byte	0xf
 7599 0bb6 0501     		.2byte	0x105
 7600 0bb8 BC0A0000 		.4byte	0xabc
 7601 0bbc 3C       		.byte	0x3c
 7602 0bbd 09       		.uleb128 0x9
 7603 0bbe 723400   		.ascii	"r4\000"
ARM GAS  /tmp/ccETYwEL.s 			page 136


 7604 0bc1 0F       		.byte	0xf
 7605 0bc2 0701     		.2byte	0x107
 7606 0bc4 BC0A0000 		.4byte	0xabc
 7607 0bc8 40       		.byte	0x40
 7608 0bc9 09       		.uleb128 0x9
 7609 0bca 723500   		.ascii	"r5\000"
 7610 0bcd 0F       		.byte	0xf
 7611 0bce 0801     		.2byte	0x108
 7612 0bd0 BC0A0000 		.4byte	0xabc
 7613 0bd4 44       		.byte	0x44
 7614 0bd5 09       		.uleb128 0x9
 7615 0bd6 723600   		.ascii	"r6\000"
 7616 0bd9 0F       		.byte	0xf
 7617 0bda 0901     		.2byte	0x109
 7618 0bdc BC0A0000 		.4byte	0xabc
 7619 0be0 48       		.byte	0x48
 7620 0be1 09       		.uleb128 0x9
 7621 0be2 723700   		.ascii	"r7\000"
 7622 0be5 0F       		.byte	0xf
 7623 0be6 0A01     		.2byte	0x10a
 7624 0be8 BC0A0000 		.4byte	0xabc
 7625 0bec 4C       		.byte	0x4c
 7626 0bed 09       		.uleb128 0x9
 7627 0bee 723800   		.ascii	"r8\000"
 7628 0bf1 0F       		.byte	0xf
 7629 0bf2 0B01     		.2byte	0x10b
 7630 0bf4 BC0A0000 		.4byte	0xabc
 7631 0bf8 50       		.byte	0x50
 7632 0bf9 09       		.uleb128 0x9
 7633 0bfa 723900   		.ascii	"r9\000"
 7634 0bfd 0F       		.byte	0xf
 7635 0bfe 0C01     		.2byte	0x10c
 7636 0c00 BC0A0000 		.4byte	0xabc
 7637 0c04 54       		.byte	0x54
 7638 0c05 09       		.uleb128 0x9
 7639 0c06 72313000 		.ascii	"r10\000"
 7640 0c0a 0F       		.byte	0xf
 7641 0c0b 0D01     		.2byte	0x10d
 7642 0c0d BC0A0000 		.4byte	0xabc
 7643 0c11 58       		.byte	0x58
 7644 0c12 09       		.uleb128 0x9
 7645 0c13 72313100 		.ascii	"r11\000"
 7646 0c17 0F       		.byte	0xf
 7647 0c18 0E01     		.2byte	0x10e
 7648 0c1a BC0A0000 		.4byte	0xabc
 7649 0c1e 5C       		.byte	0x5c
 7650 0c1f 09       		.uleb128 0x9
 7651 0c20 6C7200   		.ascii	"lr\000"
 7652 0c23 0F       		.byte	0xf
 7653 0c24 0F01     		.2byte	0x10f
 7654 0c26 BC0A0000 		.4byte	0xabc
 7655 0c2a 60       		.byte	0x60
 7656 0c2b 00       		.byte	0
 7657 0c2c 0B       		.uleb128 0xb
 7658 0c2d 04       		.byte	0x4
 7659 0c2e EB0A0000 		.4byte	0xaeb
 7660 0c32 15       		.uleb128 0x15
ARM GAS  /tmp/ccETYwEL.s 			page 137


 7661 0c33 04       		.byte	0x4
 7662 0c34 10       		.byte	0x10
 7663 0c35 38       		.byte	0x38
 7664 0c36 470C0000 		.4byte	0xc47
 7665 0c3a 08       		.uleb128 0x8
 7666 0c3b 60320000 		.4byte	.LASF150
 7667 0c3f 10       		.byte	0x10
 7668 0c40 3C       		.byte	0x3c
 7669 0c41 49010000 		.4byte	0x149
 7670 0c45 00       		.byte	0
 7671 0c46 00       		.byte	0
 7672 0c47 03       		.uleb128 0x3
 7673 0c48 B5390000 		.4byte	.LASF151
 7674 0c4c 10       		.byte	0x10
 7675 0c4d 3D       		.byte	0x3d
 7676 0c4e 320C0000 		.4byte	0xc32
 7677 0c52 1C       		.uleb128 0x1c
 7678 0c53 04       		.byte	0x4
 7679 0c54 0A       		.byte	0xa
 7680 0c55 FA       		.byte	0xfa
 7681 0c56 AF0C0000 		.4byte	0xcaf
 7682 0c5a 1D       		.uleb128 0x1d
 7683 0c5b B0170000 		.4byte	.LASF152
 7684 0c5f 0A       		.byte	0xa
 7685 0c60 0101     		.2byte	0x101
 7686 0c62 8B010000 		.4byte	0x18b
 7687 0c66 1D       		.uleb128 0x1d
 7688 0c67 44140000 		.4byte	.LASF153
 7689 0c6b 0A       		.byte	0xa
 7690 0c6c 0801     		.2byte	0x108
 7691 0c6e 8B010000 		.4byte	0x18b
 7692 0c72 1D       		.uleb128 0x1d
 7693 0c73 582D0000 		.4byte	.LASF154
 7694 0c77 0A       		.byte	0xa
 7695 0c78 0F01     		.2byte	0x10f
 7696 0c7a BF030000 		.4byte	0x3bf
 7697 0c7e 1D       		.uleb128 0x1d
 7698 0c7f CF240000 		.4byte	.LASF155
 7699 0c83 0A       		.byte	0xa
 7700 0c84 1601     		.2byte	0x116
 7701 0c86 AF0C0000 		.4byte	0xcaf
 7702 0c8a 1D       		.uleb128 0x1d
 7703 0c8b 5A010000 		.4byte	.LASF156
 7704 0c8f 0A       		.byte	0xa
 7705 0c90 1E01     		.2byte	0x11e
 7706 0c92 DA0C0000 		.4byte	0xcda
 7707 0c96 1D       		.uleb128 0x1d
 7708 0c97 AF2D0000 		.4byte	.LASF157
 7709 0c9b 0A       		.byte	0xa
 7710 0c9c 2701     		.2byte	0x127
 7711 0c9e 110D0000 		.4byte	0xd11
 7712 0ca2 1D       		.uleb128 0x1d
 7713 0ca3 C3330000 		.4byte	.LASF158
 7714 0ca7 0A       		.byte	0xa
 7715 0ca8 2F01     		.2byte	0x12f
 7716 0caa 96010000 		.4byte	0x196
 7717 0cae 00       		.byte	0
ARM GAS  /tmp/ccETYwEL.s 			page 138


 7718 0caf 0B       		.uleb128 0xb
 7719 0cb0 04       		.byte	0x4
 7720 0cb1 D7020000 		.4byte	0x2d7
 7721 0cb5 07       		.uleb128 0x7
 7722 0cb6 ED220000 		.4byte	.LASF159
 7723 0cba 0C       		.byte	0xc
 7724 0cbb 11       		.byte	0x11
 7725 0cbc 34       		.byte	0x34
 7726 0cbd DA0C0000 		.4byte	0xcda
 7727 0cc1 08       		.uleb128 0x8
 7728 0cc2 71360000 		.4byte	.LASF160
 7729 0cc6 11       		.byte	0x11
 7730 0cc7 35       		.byte	0x35
 7731 0cc8 0C030000 		.4byte	0x30c
 7732 0ccc 00       		.byte	0
 7733 0ccd 08       		.uleb128 0x8
 7734 0cce 710C0000 		.4byte	.LASF161
 7735 0cd2 11       		.byte	0x11
 7736 0cd3 37       		.byte	0x37
 7737 0cd4 AC010000 		.4byte	0x1ac
 7738 0cd8 08       		.byte	0x8
 7739 0cd9 00       		.byte	0
 7740 0cda 0B       		.uleb128 0xb
 7741 0cdb 04       		.byte	0x4
 7742 0cdc B50C0000 		.4byte	0xcb5
 7743 0ce0 07       		.uleb128 0x7
 7744 0ce1 690F0000 		.4byte	.LASF162
 7745 0ce5 10       		.byte	0x10
 7746 0ce6 12       		.byte	0x12
 7747 0ce7 39       		.byte	0x39
 7748 0ce8 110D0000 		.4byte	0xd11
 7749 0cec 08       		.uleb128 0x8
 7750 0ced 07240000 		.4byte	.LASF163
 7751 0cf1 12       		.byte	0x12
 7752 0cf2 3A       		.byte	0x3a
 7753 0cf3 0C030000 		.4byte	0x30c
 7754 0cf7 00       		.byte	0
 7755 0cf8 08       		.uleb128 0x8
 7756 0cf9 AA210000 		.4byte	.LASF164
 7757 0cfd 12       		.byte	0x12
 7758 0cfe 3C       		.byte	0x3c
 7759 0cff E2020000 		.4byte	0x2e2
 7760 0d03 08       		.byte	0x8
 7761 0d04 08       		.uleb128 0x8
 7762 0d05 08020000 		.4byte	.LASF165
 7763 0d09 12       		.byte	0x12
 7764 0d0a 3E       		.byte	0x3e
 7765 0d0b 660E0000 		.4byte	0xe66
 7766 0d0f 0C       		.byte	0xc
 7767 0d10 00       		.byte	0
 7768 0d11 0B       		.uleb128 0xb
 7769 0d12 04       		.byte	0x4
 7770 0d13 E00C0000 		.4byte	0xce0
 7771 0d17 0B       		.uleb128 0xb
 7772 0d18 04       		.byte	0x4
 7773 0d19 290D0000 		.4byte	0xd29
 7774 0d1d 05       		.uleb128 0x5
ARM GAS  /tmp/ccETYwEL.s 			page 139


 7775 0d1e 170D0000 		.4byte	0xd17
 7776 0d22 02       		.uleb128 0x2
 7777 0d23 01       		.byte	0x1
 7778 0d24 08       		.byte	0x8
 7779 0d25 B9270000 		.4byte	.LASF166
 7780 0d29 06       		.uleb128 0x6
 7781 0d2a 220D0000 		.4byte	0xd22
 7782 0d2e 0B       		.uleb128 0xb
 7783 0d2f 04       		.byte	0x4
 7784 0d30 C1030000 		.4byte	0x3c1
 7785 0d34 11       		.uleb128 0x11
 7786 0d35 C70A0000 		.4byte	0xac7
 7787 0d39 440D0000 		.4byte	0xd44
 7788 0d3d 12       		.uleb128 0x12
 7789 0d3e BD000000 		.4byte	0xbd
 7790 0d42 3A       		.byte	0x3a
 7791 0d43 00       		.byte	0
 7792 0d44 1E       		.uleb128 0x1e
 7793 0d45 636800   		.ascii	"ch\000"
 7794 0d48 0A       		.byte	0xa
 7795 0d49 0902     		.2byte	0x209
 7796 0d4b 8E040000 		.4byte	0x48e
 7797 0d4f 15       		.uleb128 0x15
 7798 0d50 16       		.byte	0x16
 7799 0d51 02       		.byte	0x2
 7800 0d52 34       		.byte	0x34
 7801 0d53 300E0000 		.4byte	0xe30
 7802 0d57 08       		.uleb128 0x8
 7803 0d58 F7360000 		.4byte	.LASF167
 7804 0d5c 02       		.byte	0x2
 7805 0d5d 35       		.byte	0x35
 7806 0d5e 300E0000 		.4byte	0xe30
 7807 0d62 00       		.byte	0
 7808 0d63 08       		.uleb128 0x8
 7809 0d64 393A0000 		.4byte	.LASF168
 7810 0d68 02       		.byte	0x2
 7811 0d69 36       		.byte	0x36
 7812 0d6a D9000000 		.4byte	0xd9
 7813 0d6e 04       		.byte	0x4
 7814 0d6f 08       		.uleb128 0x8
 7815 0d70 11040000 		.4byte	.LASF169
 7816 0d74 02       		.byte	0x2
 7817 0d75 37       		.byte	0x37
 7818 0d76 D9000000 		.4byte	0xd9
 7819 0d7a 05       		.byte	0x5
 7820 0d7b 08       		.uleb128 0x8
 7821 0d7c 24220000 		.4byte	.LASF170
 7822 0d80 02       		.byte	0x2
 7823 0d81 38       		.byte	0x38
 7824 0d82 FE000000 		.4byte	0xfe
 7825 0d86 06       		.byte	0x6
 7826 0d87 08       		.uleb128 0x8
 7827 0d88 27000000 		.4byte	.LASF171
 7828 0d8c 02       		.byte	0x2
 7829 0d8d 39       		.byte	0x39
 7830 0d8e D9000000 		.4byte	0xd9
 7831 0d92 08       		.byte	0x8
ARM GAS  /tmp/ccETYwEL.s 			page 140


 7832 0d93 08       		.uleb128 0x8
 7833 0d94 0B1F0000 		.4byte	.LASF172
 7834 0d98 02       		.byte	0x2
 7835 0d99 3A       		.byte	0x3a
 7836 0d9a D9000000 		.4byte	0xd9
 7837 0d9e 09       		.byte	0x9
 7838 0d9f 08       		.uleb128 0x8
 7839 0da0 5E3A0000 		.4byte	.LASF173
 7840 0da4 02       		.byte	0x2
 7841 0da5 3B       		.byte	0x3b
 7842 0da6 D9000000 		.4byte	0xd9
 7843 0daa 0A       		.byte	0xa
 7844 0dab 08       		.uleb128 0x8
 7845 0dac 2E370000 		.4byte	.LASF174
 7846 0db0 02       		.byte	0x2
 7847 0db1 3C       		.byte	0x3c
 7848 0db2 D9000000 		.4byte	0xd9
 7849 0db6 0B       		.byte	0xb
 7850 0db7 08       		.uleb128 0x8
 7851 0db8 12070000 		.4byte	.LASF175
 7852 0dbc 02       		.byte	0x2
 7853 0dbd 3D       		.byte	0x3d
 7854 0dbe D9000000 		.4byte	0xd9
 7855 0dc2 0C       		.byte	0xc
 7856 0dc3 08       		.uleb128 0x8
 7857 0dc4 03110000 		.4byte	.LASF176
 7858 0dc8 02       		.byte	0x2
 7859 0dc9 3E       		.byte	0x3e
 7860 0dca D9000000 		.4byte	0xd9
 7861 0dce 0D       		.byte	0xd
 7862 0dcf 08       		.uleb128 0x8
 7863 0dd0 68070000 		.4byte	.LASF177
 7864 0dd4 02       		.byte	0x2
 7865 0dd5 3F       		.byte	0x3f
 7866 0dd6 D9000000 		.4byte	0xd9
 7867 0dda 0E       		.byte	0xe
 7868 0ddb 08       		.uleb128 0x8
 7869 0ddc AD130000 		.4byte	.LASF178
 7870 0de0 02       		.byte	0x2
 7871 0de1 40       		.byte	0x40
 7872 0de2 D9000000 		.4byte	0xd9
 7873 0de6 0F       		.byte	0xf
 7874 0de7 08       		.uleb128 0x8
 7875 0de8 1D050000 		.4byte	.LASF179
 7876 0dec 02       		.byte	0x2
 7877 0ded 41       		.byte	0x41
 7878 0dee D9000000 		.4byte	0xd9
 7879 0df2 10       		.byte	0x10
 7880 0df3 08       		.uleb128 0x8
 7881 0df4 8D0B0000 		.4byte	.LASF180
 7882 0df8 02       		.byte	0x2
 7883 0df9 43       		.byte	0x43
 7884 0dfa D9000000 		.4byte	0xd9
 7885 0dfe 11       		.byte	0x11
 7886 0dff 08       		.uleb128 0x8
 7887 0e00 BC030000 		.4byte	.LASF181
 7888 0e04 02       		.byte	0x2
ARM GAS  /tmp/ccETYwEL.s 			page 141


 7889 0e05 44       		.byte	0x44
 7890 0e06 D9000000 		.4byte	0xd9
 7891 0e0a 12       		.byte	0x12
 7892 0e0b 08       		.uleb128 0x8
 7893 0e0c 89210000 		.4byte	.LASF182
 7894 0e10 02       		.byte	0x2
 7895 0e11 45       		.byte	0x45
 7896 0e12 D9000000 		.4byte	0xd9
 7897 0e16 13       		.byte	0x13
 7898 0e17 08       		.uleb128 0x8
 7899 0e18 FF2B0000 		.4byte	.LASF183
 7900 0e1c 02       		.byte	0x2
 7901 0e1d 46       		.byte	0x46
 7902 0e1e D9000000 		.4byte	0xd9
 7903 0e22 14       		.byte	0x14
 7904 0e23 08       		.uleb128 0x8
 7905 0e24 38010000 		.4byte	.LASF184
 7906 0e28 02       		.byte	0x2
 7907 0e29 48       		.byte	0x48
 7908 0e2a D9000000 		.4byte	0xd9
 7909 0e2e 15       		.byte	0x15
 7910 0e2f 00       		.byte	0
 7911 0e30 11       		.uleb128 0x11
 7912 0e31 220D0000 		.4byte	0xd22
 7913 0e35 400E0000 		.4byte	0xe40
 7914 0e39 12       		.uleb128 0x12
 7915 0e3a BD000000 		.4byte	0xbd
 7916 0e3e 03       		.byte	0x3
 7917 0e3f 00       		.byte	0
 7918 0e40 03       		.uleb128 0x3
 7919 0e41 7B1E0000 		.4byte	.LASF185
 7920 0e45 02       		.byte	0x2
 7921 0e46 49       		.byte	0x49
 7922 0e47 4F0D0000 		.4byte	0xd4f
 7923 0e4b 06       		.uleb128 0x6
 7924 0e4c 400E0000 		.4byte	0xe40
 7925 0e50 14       		.uleb128 0x14
 7926 0e51 920E0000 		.4byte	.LASF186
 7927 0e55 02       		.byte	0x2
 7928 0e56 6E       		.byte	0x6e
 7929 0e57 4B0E0000 		.4byte	0xe4b
 7930 0e5b 03       		.uleb128 0x3
 7931 0e5c 59300000 		.4byte	.LASF187
 7932 0e60 12       		.byte	0x12
 7933 0e61 34       		.byte	0x34
 7934 0e62 E00C0000 		.4byte	0xce0
 7935 0e66 0B       		.uleb128 0xb
 7936 0e67 04       		.byte	0x4
 7937 0e68 5B0E0000 		.4byte	0xe5b
 7938 0e6c 03       		.uleb128 0x3
 7939 0e6d E70E0000 		.4byte	.LASF188
 7940 0e71 13       		.byte	0x13
 7941 0e72 34       		.byte	0x34
 7942 0e73 770E0000 		.4byte	0xe77
 7943 0e77 07       		.uleb128 0x7
 7944 0e78 4B0C0000 		.4byte	.LASF189
 7945 0e7c 14       		.byte	0x14
ARM GAS  /tmp/ccETYwEL.s 			page 142


 7946 0e7d 13       		.byte	0x13
 7947 0e7e 39       		.byte	0x39
 7948 0e7f C00E0000 		.4byte	0xec0
 7949 0e83 08       		.uleb128 0x8
 7950 0e84 F5020000 		.4byte	.LASF190
 7951 0e88 13       		.byte	0x13
 7952 0e89 3A       		.byte	0x3a
 7953 0e8a C00E0000 		.4byte	0xec0
 7954 0e8e 00       		.byte	0
 7955 0e8f 08       		.uleb128 0x8
 7956 0e90 8A310000 		.4byte	.LASF191
 7957 0e94 13       		.byte	0x13
 7958 0e95 3D       		.byte	0x3d
 7959 0e96 E2020000 		.4byte	0x2e2
 7960 0e9a 04       		.byte	0x4
 7961 0e9b 08       		.uleb128 0x8
 7962 0e9c B3040000 		.4byte	.LASF192
 7963 0ea0 13       		.byte	0x13
 7964 0ea1 3F       		.byte	0x3f
 7965 0ea2 96010000 		.4byte	0x196
 7966 0ea6 08       		.byte	0x8
 7967 0ea7 08       		.uleb128 0x8
 7968 0ea8 F6330000 		.4byte	.LASF193
 7969 0eac 13       		.byte	0x13
 7970 0ead 41       		.byte	0x41
 7971 0eae A1010000 		.4byte	0x1a1
 7972 0eb2 0C       		.byte	0xc
 7973 0eb3 08       		.uleb128 0x8
 7974 0eb4 30140000 		.4byte	.LASF194
 7975 0eb8 13       		.byte	0x13
 7976 0eb9 43       		.byte	0x43
 7977 0eba A1010000 		.4byte	0x1a1
 7978 0ebe 10       		.byte	0x10
 7979 0ebf 00       		.byte	0
 7980 0ec0 0B       		.uleb128 0xb
 7981 0ec1 04       		.byte	0x4
 7982 0ec2 6C0E0000 		.4byte	0xe6c
 7983 0ec6 07       		.uleb128 0x7
 7984 0ec7 FF330000 		.4byte	.LASF195
 7985 0ecb 04       		.byte	0x4
 7986 0ecc 13       		.byte	0x13
 7987 0ecd 4A       		.byte	0x4a
 7988 0ece DF0E0000 		.4byte	0xedf
 7989 0ed2 08       		.uleb128 0x8
 7990 0ed3 DF320000 		.4byte	.LASF196
 7991 0ed7 13       		.byte	0x13
 7992 0ed8 4B       		.byte	0x4b
 7993 0ed9 C00E0000 		.4byte	0xec0
 7994 0edd 00       		.byte	0
 7995 0ede 00       		.byte	0
 7996 0edf 03       		.uleb128 0x3
 7997 0ee0 341F0000 		.4byte	.LASF197
 7998 0ee4 13       		.byte	0x13
 7999 0ee5 4E       		.byte	0x4e
 8000 0ee6 C60E0000 		.4byte	0xec6
 8001 0eea 03       		.uleb128 0x3
 8002 0eeb 8C140000 		.4byte	.LASF198
ARM GAS  /tmp/ccETYwEL.s 			page 143


 8003 0eef 14       		.byte	0x14
 8004 0ef0 3F       		.byte	0x3f
 8005 0ef1 F50E0000 		.4byte	0xef5
 8006 0ef5 07       		.uleb128 0x7
 8007 0ef6 45180000 		.4byte	.LASF199
 8008 0efa 24       		.byte	0x24
 8009 0efb 14       		.byte	0x14
 8010 0efc 4D       		.byte	0x4d
 8011 0efd 620F0000 		.4byte	0xf62
 8012 0f01 08       		.uleb128 0x8
 8013 0f02 DD060000 		.4byte	.LASF200
 8014 0f06 14       		.byte	0x14
 8015 0f07 4E       		.byte	0x4e
 8016 0f08 0C030000 		.4byte	0x30c
 8017 0f0c 00       		.byte	0
 8018 0f0d 08       		.uleb128 0x8
 8019 0f0e AF2F0000 		.4byte	.LASF201
 8020 0f12 14       		.byte	0x14
 8021 0f13 4F       		.byte	0x4f
 8022 0f14 44010000 		.4byte	0x144
 8023 0f18 08       		.byte	0x8
 8024 0f19 08       		.uleb128 0x8
 8025 0f1a FB190000 		.4byte	.LASF202
 8026 0f1e 14       		.byte	0x14
 8027 0f1f 50       		.byte	0x50
 8028 0f20 840F0000 		.4byte	0xf84
 8029 0f24 0C       		.byte	0xc
 8030 0f25 08       		.uleb128 0x8
 8031 0f26 F0050000 		.4byte	.LASF203
 8032 0f2a 14       		.byte	0x14
 8033 0f2b 51       		.byte	0x51
 8034 0f2c 840F0000 		.4byte	0xf84
 8035 0f30 10       		.byte	0x10
 8036 0f31 08       		.uleb128 0x8
 8037 0f32 C4260000 		.4byte	.LASF204
 8038 0f36 14       		.byte	0x14
 8039 0f37 53       		.byte	0x53
 8040 0f38 840F0000 		.4byte	0xf84
 8041 0f3c 14       		.byte	0x14
 8042 0f3d 08       		.uleb128 0x8
 8043 0f3e D5240000 		.4byte	.LASF205
 8044 0f42 14       		.byte	0x14
 8045 0f43 54       		.byte	0x54
 8046 0f44 840F0000 		.4byte	0xf84
 8047 0f48 18       		.byte	0x18
 8048 0f49 08       		.uleb128 0x8
 8049 0f4a A62D0000 		.4byte	.LASF206
 8050 0f4e 14       		.byte	0x14
 8051 0f4f 55       		.byte	0x55
 8052 0f50 620F0000 		.4byte	0xf62
 8053 0f54 1C       		.byte	0x1c
 8054 0f55 08       		.uleb128 0x8
 8055 0f56 9E280000 		.4byte	.LASF207
 8056 0f5a 14       		.byte	0x14
 8057 0f5b 56       		.byte	0x56
 8058 0f5c BF030000 		.4byte	0x3bf
 8059 0f60 20       		.byte	0x20
ARM GAS  /tmp/ccETYwEL.s 			page 144


 8060 0f61 00       		.byte	0
 8061 0f62 03       		.uleb128 0x3
 8062 0f63 B5050000 		.4byte	.LASF208
 8063 0f67 14       		.byte	0x14
 8064 0f68 42       		.byte	0x42
 8065 0f69 6D0F0000 		.4byte	0xf6d
 8066 0f6d 0B       		.uleb128 0xb
 8067 0f6e 04       		.byte	0x4
 8068 0f6f 730F0000 		.4byte	0xf73
 8069 0f73 0D       		.uleb128 0xd
 8070 0f74 7E0F0000 		.4byte	0xf7e
 8071 0f78 0E       		.uleb128 0xe
 8072 0f79 7E0F0000 		.4byte	0xf7e
 8073 0f7d 00       		.byte	0
 8074 0f7e 0B       		.uleb128 0xb
 8075 0f7f 04       		.byte	0x4
 8076 0f80 EA0E0000 		.4byte	0xeea
 8077 0f84 0B       		.uleb128 0xb
 8078 0f85 04       		.byte	0x4
 8079 0f86 D9000000 		.4byte	0xd9
 8080 0f8a 03       		.uleb128 0x3
 8081 0f8b 1D070000 		.4byte	.LASF209
 8082 0f8f 14       		.byte	0x14
 8083 0f90 64       		.byte	0x64
 8084 0f91 EA0E0000 		.4byte	0xeea
 8085 0f95 03       		.uleb128 0x3
 8086 0f96 C43B0000 		.4byte	.LASF210
 8087 0f9a 14       		.byte	0x14
 8088 0f9b 71       		.byte	0x71
 8089 0f9c EA0E0000 		.4byte	0xeea
 8090 0fa0 0B       		.uleb128 0xb
 8091 0fa1 04       		.byte	0x4
 8092 0fa2 E9000000 		.4byte	0xe9
 8093 0fa6 1F       		.uleb128 0x1f
 8094 0fa7 07       		.byte	0x7
 8095 0fa8 01       		.byte	0x1
 8096 0fa9 49000000 		.4byte	0x49
 8097 0fad 15       		.byte	0x15
 8098 0fae 1C       		.byte	0x1c
 8099 0faf CC0F0000 		.4byte	0xfcc
 8100 0fb3 20       		.uleb128 0x20
 8101 0fb4 50380000 		.4byte	.LASF211
 8102 0fb8 00       		.byte	0
 8103 0fb9 20       		.uleb128 0x20
 8104 0fba DE030000 		.4byte	.LASF212
 8105 0fbe 01       		.byte	0x1
 8106 0fbf 20       		.uleb128 0x20
 8107 0fc0 4A1D0000 		.4byte	.LASF213
 8108 0fc4 02       		.byte	0x2
 8109 0fc5 20       		.uleb128 0x20
 8110 0fc6 8D250000 		.4byte	.LASF214
 8111 0fca 03       		.byte	0x3
 8112 0fcb 00       		.byte	0
 8113 0fcc 03       		.uleb128 0x3
 8114 0fcd E8280000 		.4byte	.LASF215
 8115 0fd1 15       		.byte	0x15
 8116 0fd2 21       		.byte	0x21
ARM GAS  /tmp/ccETYwEL.s 			page 145


 8117 0fd3 A60F0000 		.4byte	0xfa6
 8118 0fd7 1F       		.uleb128 0x1f
 8119 0fd8 07       		.byte	0x7
 8120 0fd9 01       		.byte	0x1
 8121 0fda 49000000 		.4byte	0x49
 8122 0fde 15       		.byte	0x15
 8123 0fdf 23       		.byte	0x23
 8124 0fe0 F70F0000 		.4byte	0xff7
 8125 0fe4 20       		.uleb128 0x20
 8126 0fe5 CF350000 		.4byte	.LASF216
 8127 0fe9 00       		.byte	0
 8128 0fea 20       		.uleb128 0x20
 8129 0feb F3260000 		.4byte	.LASF217
 8130 0fef 01       		.byte	0x1
 8131 0ff0 20       		.uleb128 0x20
 8132 0ff1 88050000 		.4byte	.LASF218
 8133 0ff5 02       		.byte	0x2
 8134 0ff6 00       		.byte	0
 8135 0ff7 03       		.uleb128 0x3
 8136 0ff8 99050000 		.4byte	.LASF219
 8137 0ffc 15       		.byte	0x15
 8138 0ffd 27       		.byte	0x27
 8139 0ffe D70F0000 		.4byte	0xfd7
 8140 1002 1F       		.uleb128 0x1f
 8141 1003 07       		.byte	0x7
 8142 1004 01       		.byte	0x1
 8143 1005 49000000 		.4byte	0x49
 8144 1009 15       		.byte	0x15
 8145 100a 29       		.byte	0x29
 8146 100b 1C100000 		.4byte	0x101c
 8147 100f 20       		.uleb128 0x20
 8148 1010 7B240000 		.4byte	.LASF220
 8149 1014 00       		.byte	0
 8150 1015 20       		.uleb128 0x20
 8151 1016 E43C0000 		.4byte	.LASF221
 8152 101a 01       		.byte	0x1
 8153 101b 00       		.byte	0
 8154 101c 03       		.uleb128 0x3
 8155 101d F1340000 		.4byte	.LASF222
 8156 1021 15       		.byte	0x15
 8157 1022 2C       		.byte	0x2c
 8158 1023 02100000 		.4byte	0x1002
 8159 1027 1F       		.uleb128 0x1f
 8160 1028 07       		.byte	0x7
 8161 1029 01       		.byte	0x1
 8162 102a 49000000 		.4byte	0x49
 8163 102e 15       		.byte	0x15
 8164 102f 2E       		.byte	0x2e
 8165 1030 47100000 		.4byte	0x1047
 8166 1034 20       		.uleb128 0x20
 8167 1035 162F0000 		.4byte	.LASF223
 8168 1039 00       		.byte	0
 8169 103a 20       		.uleb128 0x20
 8170 103b EE100000 		.4byte	.LASF224
 8171 103f 01       		.byte	0x1
 8172 1040 20       		.uleb128 0x20
 8173 1041 37120000 		.4byte	.LASF225
ARM GAS  /tmp/ccETYwEL.s 			page 146


 8174 1045 02       		.byte	0x2
 8175 1046 00       		.byte	0
 8176 1047 03       		.uleb128 0x3
 8177 1048 BC230000 		.4byte	.LASF226
 8178 104c 15       		.byte	0x15
 8179 104d 32       		.byte	0x32
 8180 104e 27100000 		.4byte	0x1027
 8181 1052 1F       		.uleb128 0x1f
 8182 1053 07       		.byte	0x7
 8183 1054 01       		.byte	0x1
 8184 1055 49000000 		.4byte	0x49
 8185 1059 15       		.byte	0x15
 8186 105a 34       		.byte	0x34
 8187 105b 72100000 		.4byte	0x1072
 8188 105f 20       		.uleb128 0x20
 8189 1060 6C230000 		.4byte	.LASF227
 8190 1064 00       		.byte	0
 8191 1065 20       		.uleb128 0x20
 8192 1066 76090000 		.4byte	.LASF228
 8193 106a 01       		.byte	0x1
 8194 106b 20       		.uleb128 0x20
 8195 106c 34320000 		.4byte	.LASF229
 8196 1070 02       		.byte	0x2
 8197 1071 00       		.byte	0
 8198 1072 03       		.uleb128 0x3
 8199 1073 B63A0000 		.4byte	.LASF230
 8200 1077 15       		.byte	0x15
 8201 1078 38       		.byte	0x38
 8202 1079 52100000 		.4byte	0x1052
 8203 107d 1F       		.uleb128 0x1f
 8204 107e 07       		.byte	0x7
 8205 107f 01       		.byte	0x1
 8206 1080 49000000 		.4byte	0x49
 8207 1084 15       		.byte	0x15
 8208 1085 3B       		.byte	0x3b
 8209 1086 A3100000 		.4byte	0x10a3
 8210 108a 20       		.uleb128 0x20
 8211 108b 34060000 		.4byte	.LASF231
 8212 108f 00       		.byte	0
 8213 1090 20       		.uleb128 0x20
 8214 1091 58360000 		.4byte	.LASF232
 8215 1095 01       		.byte	0x1
 8216 1096 20       		.uleb128 0x20
 8217 1097 52390000 		.4byte	.LASF233
 8218 109b 02       		.byte	0x2
 8219 109c 20       		.uleb128 0x20
 8220 109d 74080000 		.4byte	.LASF234
 8221 10a1 03       		.byte	0x3
 8222 10a2 00       		.byte	0
 8223 10a3 03       		.uleb128 0x3
 8224 10a4 71210000 		.4byte	.LASF235
 8225 10a8 15       		.byte	0x15
 8226 10a9 40       		.byte	0x40
 8227 10aa 7D100000 		.4byte	0x107d
 8228 10ae 1F       		.uleb128 0x1f
 8229 10af 07       		.byte	0x7
 8230 10b0 01       		.byte	0x1
ARM GAS  /tmp/ccETYwEL.s 			page 147


 8231 10b1 49000000 		.4byte	0x49
 8232 10b5 15       		.byte	0x15
 8233 10b6 42       		.byte	0x42
 8234 10b7 CE100000 		.4byte	0x10ce
 8235 10bb 20       		.uleb128 0x20
 8236 10bc F13B0000 		.4byte	.LASF236
 8237 10c0 00       		.byte	0
 8238 10c1 20       		.uleb128 0x20
 8239 10c2 291D0000 		.4byte	.LASF237
 8240 10c6 01       		.byte	0x1
 8241 10c7 20       		.uleb128 0x20
 8242 10c8 84160000 		.4byte	.LASF238
 8243 10cc 02       		.byte	0x2
 8244 10cd 00       		.byte	0
 8245 10ce 03       		.uleb128 0x3
 8246 10cf B62D0000 		.4byte	.LASF239
 8247 10d3 15       		.byte	0x15
 8248 10d4 46       		.byte	0x46
 8249 10d5 AE100000 		.4byte	0x10ae
 8250 10d9 1F       		.uleb128 0x1f
 8251 10da 07       		.byte	0x7
 8252 10db 01       		.byte	0x1
 8253 10dc 49000000 		.4byte	0x49
 8254 10e0 15       		.byte	0x15
 8255 10e1 48       		.byte	0x48
 8256 10e2 11110000 		.4byte	0x1111
 8257 10e6 20       		.uleb128 0x20
 8258 10e7 5C2B0000 		.4byte	.LASF240
 8259 10eb 00       		.byte	0
 8260 10ec 20       		.uleb128 0x20
 8261 10ed 35170000 		.4byte	.LASF241
 8262 10f1 01       		.byte	0x1
 8263 10f2 20       		.uleb128 0x20
 8264 10f3 972A0000 		.4byte	.LASF242
 8265 10f7 02       		.byte	0x2
 8266 10f8 20       		.uleb128 0x20
 8267 10f9 CC0B0000 		.4byte	.LASF243
 8268 10fd 03       		.byte	0x3
 8269 10fe 20       		.uleb128 0x20
 8270 10ff 2D0E0000 		.4byte	.LASF244
 8271 1103 04       		.byte	0x4
 8272 1104 20       		.uleb128 0x20
 8273 1105 63050000 		.4byte	.LASF245
 8274 1109 05       		.byte	0x5
 8275 110a 20       		.uleb128 0x20
 8276 110b 16210000 		.4byte	.LASF246
 8277 110f 06       		.byte	0x6
 8278 1110 00       		.byte	0
 8279 1111 03       		.uleb128 0x3
 8280 1112 A1360000 		.4byte	.LASF247
 8281 1116 15       		.byte	0x15
 8282 1117 50       		.byte	0x50
 8283 1118 D9100000 		.4byte	0x10d9
 8284 111c 1F       		.uleb128 0x1f
 8285 111d 07       		.byte	0x7
 8286 111e 01       		.byte	0x1
 8287 111f 49000000 		.4byte	0x49
ARM GAS  /tmp/ccETYwEL.s 			page 148


 8288 1123 15       		.byte	0x15
 8289 1124 67       		.byte	0x67
 8290 1125 3C110000 		.4byte	0x113c
 8291 1129 20       		.uleb128 0x20
 8292 112a 3B230000 		.4byte	.LASF248
 8293 112e 00       		.byte	0
 8294 112f 20       		.uleb128 0x20
 8295 1130 99120000 		.4byte	.LASF249
 8296 1134 01       		.byte	0x1
 8297 1135 20       		.uleb128 0x20
 8298 1136 13130000 		.4byte	.LASF250
 8299 113a 02       		.byte	0x2
 8300 113b 00       		.byte	0
 8301 113c 03       		.uleb128 0x3
 8302 113d 833A0000 		.4byte	.LASF251
 8303 1141 15       		.byte	0x15
 8304 1142 6B       		.byte	0x6b
 8305 1143 1C110000 		.4byte	0x111c
 8306 1147 05       		.uleb128 0x5
 8307 1148 25000000 		.4byte	0x25
 8308 114c 06       		.uleb128 0x6
 8309 114d 25000000 		.4byte	0x25
 8310 1151 1F       		.uleb128 0x1f
 8311 1152 07       		.byte	0x7
 8312 1153 01       		.byte	0x1
 8313 1154 49000000 		.4byte	0x49
 8314 1158 15       		.byte	0x15
 8315 1159 77       		.byte	0x77
 8316 115a 77110000 		.4byte	0x1177
 8317 115e 20       		.uleb128 0x20
 8318 115f 32050000 		.4byte	.LASF252
 8319 1163 00       		.byte	0
 8320 1164 20       		.uleb128 0x20
 8321 1165 6D2D0000 		.4byte	.LASF253
 8322 1169 01       		.byte	0x1
 8323 116a 20       		.uleb128 0x20
 8324 116b DB090000 		.4byte	.LASF254
 8325 116f 02       		.byte	0x2
 8326 1170 20       		.uleb128 0x20
 8327 1171 FA350000 		.4byte	.LASF255
 8328 1175 03       		.byte	0x3
 8329 1176 00       		.byte	0
 8330 1177 03       		.uleb128 0x3
 8331 1178 23270000 		.4byte	.LASF256
 8332 117c 15       		.byte	0x15
 8333 117d 7C       		.byte	0x7c
 8334 117e 51110000 		.4byte	0x1151
 8335 1182 1F       		.uleb128 0x1f
 8336 1183 07       		.byte	0x7
 8337 1184 01       		.byte	0x1
 8338 1185 49000000 		.4byte	0x49
 8339 1189 15       		.byte	0x15
 8340 118a 7E       		.byte	0x7e
 8341 118b C0110000 		.4byte	0x11c0
 8342 118f 20       		.uleb128 0x20
 8343 1190 FF290000 		.4byte	.LASF257
 8344 1194 00       		.byte	0
ARM GAS  /tmp/ccETYwEL.s 			page 149


 8345 1195 20       		.uleb128 0x20
 8346 1196 CC2D0000 		.4byte	.LASF258
 8347 119a 01       		.byte	0x1
 8348 119b 20       		.uleb128 0x20
 8349 119c 0E180000 		.4byte	.LASF259
 8350 11a0 02       		.byte	0x2
 8351 11a1 20       		.uleb128 0x20
 8352 11a2 DF2C0000 		.4byte	.LASF260
 8353 11a6 03       		.byte	0x3
 8354 11a7 20       		.uleb128 0x20
 8355 11a8 37130000 		.4byte	.LASF261
 8356 11ac 04       		.byte	0x4
 8357 11ad 20       		.uleb128 0x20
 8358 11ae 0A300000 		.4byte	.LASF262
 8359 11b2 05       		.byte	0x5
 8360 11b3 20       		.uleb128 0x20
 8361 11b4 8A2B0000 		.4byte	.LASF263
 8362 11b8 06       		.byte	0x6
 8363 11b9 20       		.uleb128 0x20
 8364 11ba 081D0000 		.4byte	.LASF264
 8365 11be 07       		.byte	0x7
 8366 11bf 00       		.byte	0
 8367 11c0 03       		.uleb128 0x3
 8368 11c1 AF360000 		.4byte	.LASF265
 8369 11c5 15       		.byte	0x15
 8370 11c6 87       		.byte	0x87
 8371 11c7 82110000 		.4byte	0x1182
 8372 11cb 05       		.uleb128 0x5
 8373 11cc C0110000 		.4byte	0x11c0
 8374 11d0 21       		.uleb128 0x21
 8375 11d1 8401     		.2byte	0x184
 8376 11d3 15       		.byte	0x15
 8377 11d4 90       		.byte	0x90
 8378 11d5 B9160000 		.4byte	0x16b9
 8379 11d9 08       		.uleb128 0x8
 8380 11da D81A0000 		.4byte	.LASF266
 8381 11de 15       		.byte	0x15
 8382 11df 92       		.byte	0x92
 8383 11e0 F70F0000 		.4byte	0xff7
 8384 11e4 00       		.byte	0
 8385 11e5 08       		.uleb128 0x8
 8386 11e6 EE0D0000 		.4byte	.LASF267
 8387 11ea 15       		.byte	0x15
 8388 11eb 93       		.byte	0x93
 8389 11ec 1C100000 		.4byte	0x101c
 8390 11f0 01       		.byte	0x1
 8391 11f1 08       		.uleb128 0x8
 8392 11f2 FF1A0000 		.4byte	.LASF268
 8393 11f6 15       		.byte	0x15
 8394 11f7 94       		.byte	0x94
 8395 11f8 CE100000 		.4byte	0x10ce
 8396 11fc 02       		.byte	0x2
 8397 11fd 08       		.uleb128 0x8
 8398 11fe 0A2F0000 		.4byte	.LASF269
 8399 1202 15       		.byte	0x15
 8400 1203 95       		.byte	0x95
 8401 1204 47100000 		.4byte	0x1047
ARM GAS  /tmp/ccETYwEL.s 			page 150


 8402 1208 03       		.byte	0x3
 8403 1209 08       		.uleb128 0x8
 8404 120a 9E220000 		.4byte	.LASF270
 8405 120e 15       		.byte	0x15
 8406 120f 97       		.byte	0x97
 8407 1210 25000000 		.4byte	0x25
 8408 1214 04       		.byte	0x4
 8409 1215 08       		.uleb128 0x8
 8410 1216 192A0000 		.4byte	.LASF271
 8411 121a 15       		.byte	0x15
 8412 121b 98       		.byte	0x98
 8413 121c 25000000 		.4byte	0x25
 8414 1220 08       		.byte	0x8
 8415 1221 08       		.uleb128 0x8
 8416 1222 AB380000 		.4byte	.LASF272
 8417 1226 15       		.byte	0x15
 8418 1227 99       		.byte	0x99
 8419 1228 25000000 		.4byte	0x25
 8420 122c 0C       		.byte	0xc
 8421 122d 08       		.uleb128 0x8
 8422 122e 44020000 		.4byte	.LASF273
 8423 1232 15       		.byte	0x15
 8424 1233 9A       		.byte	0x9a
 8425 1234 25000000 		.4byte	0x25
 8426 1238 10       		.byte	0x10
 8427 1239 08       		.uleb128 0x8
 8428 123a 32000000 		.4byte	.LASF274
 8429 123e 15       		.byte	0x15
 8430 123f 9B       		.byte	0x9b
 8431 1240 25000000 		.4byte	0x25
 8432 1244 14       		.byte	0x14
 8433 1245 08       		.uleb128 0x8
 8434 1246 3A030000 		.4byte	.LASF275
 8435 124a 15       		.byte	0x15
 8436 124b 9C       		.byte	0x9c
 8437 124c 25000000 		.4byte	0x25
 8438 1250 18       		.byte	0x18
 8439 1251 08       		.uleb128 0x8
 8440 1252 48200000 		.4byte	.LASF276
 8441 1256 15       		.byte	0x15
 8442 1257 9D       		.byte	0x9d
 8443 1258 25000000 		.4byte	0x25
 8444 125c 1C       		.byte	0x1c
 8445 125d 08       		.uleb128 0x8
 8446 125e E30C0000 		.4byte	.LASF277
 8447 1262 15       		.byte	0x15
 8448 1263 9E       		.byte	0x9e
 8449 1264 25000000 		.4byte	0x25
 8450 1268 20       		.byte	0x20
 8451 1269 08       		.uleb128 0x8
 8452 126a 15000000 		.4byte	.LASF278
 8453 126e 15       		.byte	0x15
 8454 126f 9F       		.byte	0x9f
 8455 1270 25000000 		.4byte	0x25
 8456 1274 24       		.byte	0x24
 8457 1275 08       		.uleb128 0x8
 8458 1276 BD370000 		.4byte	.LASF279
ARM GAS  /tmp/ccETYwEL.s 			page 151


 8459 127a 15       		.byte	0x15
 8460 127b A0       		.byte	0xa0
 8461 127c 25000000 		.4byte	0x25
 8462 1280 28       		.byte	0x28
 8463 1281 08       		.uleb128 0x8
 8464 1282 A9150000 		.4byte	.LASF280
 8465 1286 15       		.byte	0x15
 8466 1287 A1       		.byte	0xa1
 8467 1288 25000000 		.4byte	0x25
 8468 128c 2C       		.byte	0x2c
 8469 128d 08       		.uleb128 0x8
 8470 128e 26140000 		.4byte	.LASF281
 8471 1292 15       		.byte	0x15
 8472 1293 A2       		.byte	0xa2
 8473 1294 25000000 		.4byte	0x25
 8474 1298 30       		.byte	0x30
 8475 1299 08       		.uleb128 0x8
 8476 129a 55150000 		.4byte	.LASF282
 8477 129e 15       		.byte	0x15
 8478 129f A3       		.byte	0xa3
 8479 12a0 25000000 		.4byte	0x25
 8480 12a4 34       		.byte	0x34
 8481 12a5 08       		.uleb128 0x8
 8482 12a6 8B150000 		.4byte	.LASF283
 8483 12aa 15       		.byte	0x15
 8484 12ab A4       		.byte	0xa4
 8485 12ac 25000000 		.4byte	0x25
 8486 12b0 38       		.byte	0x38
 8487 12b1 08       		.uleb128 0x8
 8488 12b2 21020000 		.4byte	.LASF284
 8489 12b6 15       		.byte	0x15
 8490 12b7 A5       		.byte	0xa5
 8491 12b8 B9160000 		.4byte	0x16b9
 8492 12bc 3C       		.byte	0x3c
 8493 12bd 08       		.uleb128 0x8
 8494 12be 660D0000 		.4byte	.LASF285
 8495 12c2 15       		.byte	0x15
 8496 12c3 A6       		.byte	0xa6
 8497 12c4 25000000 		.4byte	0x25
 8498 12c8 40       		.byte	0x40
 8499 12c9 08       		.uleb128 0x8
 8500 12ca 33040000 		.4byte	.LASF286
 8501 12ce 15       		.byte	0x15
 8502 12cf A7       		.byte	0xa7
 8503 12d0 25000000 		.4byte	0x25
 8504 12d4 44       		.byte	0x44
 8505 12d5 08       		.uleb128 0x8
 8506 12d6 98190000 		.4byte	.LASF287
 8507 12da 15       		.byte	0x15
 8508 12db A8       		.byte	0xa8
 8509 12dc 25000000 		.4byte	0x25
 8510 12e0 48       		.byte	0x48
 8511 12e1 08       		.uleb128 0x8
 8512 12e2 9C2E0000 		.4byte	.LASF288
 8513 12e6 15       		.byte	0x15
 8514 12e7 A9       		.byte	0xa9
 8515 12e8 25000000 		.4byte	0x25
ARM GAS  /tmp/ccETYwEL.s 			page 152


 8516 12ec 4C       		.byte	0x4c
 8517 12ed 08       		.uleb128 0x8
 8518 12ee 31280000 		.4byte	.LASF289
 8519 12f2 15       		.byte	0x15
 8520 12f3 AA       		.byte	0xaa
 8521 12f4 25000000 		.4byte	0x25
 8522 12f8 50       		.byte	0x50
 8523 12f9 08       		.uleb128 0x8
 8524 12fa 413A0000 		.4byte	.LASF290
 8525 12fe 15       		.byte	0x15
 8526 12ff AB       		.byte	0xab
 8527 1300 25000000 		.4byte	0x25
 8528 1304 54       		.byte	0x54
 8529 1305 08       		.uleb128 0x8
 8530 1306 D1170000 		.4byte	.LASF291
 8531 130a 15       		.byte	0x15
 8532 130b AC       		.byte	0xac
 8533 130c 25000000 		.4byte	0x25
 8534 1310 58       		.byte	0x58
 8535 1311 08       		.uleb128 0x8
 8536 1312 C50C0000 		.4byte	.LASF292
 8537 1316 15       		.byte	0x15
 8538 1317 AD       		.byte	0xad
 8539 1318 25000000 		.4byte	0x25
 8540 131c 5C       		.byte	0x5c
 8541 131d 08       		.uleb128 0x8
 8542 131e 7E370000 		.4byte	.LASF293
 8543 1322 15       		.byte	0x15
 8544 1323 AE       		.byte	0xae
 8545 1324 25000000 		.4byte	0x25
 8546 1328 60       		.byte	0x60
 8547 1329 08       		.uleb128 0x8
 8548 132a 5C120000 		.4byte	.LASF294
 8549 132e 15       		.byte	0x15
 8550 132f B0       		.byte	0xb0
 8551 1330 25000000 		.4byte	0x25
 8552 1334 64       		.byte	0x64
 8553 1335 08       		.uleb128 0x8
 8554 1336 0A1B0000 		.4byte	.LASF295
 8555 133a 15       		.byte	0x15
 8556 133b B1       		.byte	0xb1
 8557 133c 25000000 		.4byte	0x25
 8558 1340 68       		.byte	0x68
 8559 1341 08       		.uleb128 0x8
 8560 1342 A5310000 		.4byte	.LASF296
 8561 1346 15       		.byte	0x15
 8562 1347 B2       		.byte	0xb2
 8563 1348 25000000 		.4byte	0x25
 8564 134c 6C       		.byte	0x6c
 8565 134d 08       		.uleb128 0x8
 8566 134e E7390000 		.4byte	.LASF297
 8567 1352 15       		.byte	0x15
 8568 1353 B3       		.byte	0xb3
 8569 1354 25000000 		.4byte	0x25
 8570 1358 70       		.byte	0x70
 8571 1359 08       		.uleb128 0x8
 8572 135a C72B0000 		.4byte	.LASF298
ARM GAS  /tmp/ccETYwEL.s 			page 153


 8573 135e 15       		.byte	0x15
 8574 135f B4       		.byte	0xb4
 8575 1360 25000000 		.4byte	0x25
 8576 1364 74       		.byte	0x74
 8577 1365 08       		.uleb128 0x8
 8578 1366 F7130000 		.4byte	.LASF299
 8579 136a 15       		.byte	0x15
 8580 136b B5       		.byte	0xb5
 8581 136c 25000000 		.4byte	0x25
 8582 1370 78       		.byte	0x78
 8583 1371 08       		.uleb128 0x8
 8584 1372 9A160000 		.4byte	.LASF300
 8585 1376 15       		.byte	0x15
 8586 1377 B7       		.byte	0xb7
 8587 1378 25000000 		.4byte	0x25
 8588 137c 7C       		.byte	0x7c
 8589 137d 08       		.uleb128 0x8
 8590 137e 42070000 		.4byte	.LASF301
 8591 1382 15       		.byte	0x15
 8592 1383 B8       		.byte	0xb8
 8593 1384 25000000 		.4byte	0x25
 8594 1388 80       		.byte	0x80
 8595 1389 08       		.uleb128 0x8
 8596 138a 271B0000 		.4byte	.LASF302
 8597 138e 15       		.byte	0x15
 8598 138f B9       		.byte	0xb9
 8599 1390 25000000 		.4byte	0x25
 8600 1394 84       		.byte	0x84
 8601 1395 08       		.uleb128 0x8
 8602 1396 D61D0000 		.4byte	.LASF303
 8603 139a 15       		.byte	0x15
 8604 139b BA       		.byte	0xba
 8605 139c 25000000 		.4byte	0x25
 8606 13a0 88       		.byte	0x88
 8607 13a1 08       		.uleb128 0x8
 8608 13a2 C0190000 		.4byte	.LASF304
 8609 13a6 15       		.byte	0x15
 8610 13a7 BB       		.byte	0xbb
 8611 13a8 25000000 		.4byte	0x25
 8612 13ac 8C       		.byte	0x8c
 8613 13ad 08       		.uleb128 0x8
 8614 13ae 48340000 		.4byte	.LASF305
 8615 13b2 15       		.byte	0x15
 8616 13b3 BC       		.byte	0xbc
 8617 13b4 25000000 		.4byte	0x25
 8618 13b8 90       		.byte	0x90
 8619 13b9 08       		.uleb128 0x8
 8620 13ba DD270000 		.4byte	.LASF306
 8621 13be 15       		.byte	0x15
 8622 13bf BD       		.byte	0xbd
 8623 13c0 25000000 		.4byte	0x25
 8624 13c4 94       		.byte	0x94
 8625 13c5 08       		.uleb128 0x8
 8626 13c6 631C0000 		.4byte	.LASF307
 8627 13ca 15       		.byte	0x15
 8628 13cb BF       		.byte	0xbf
 8629 13cc C5160000 		.4byte	0x16c5
ARM GAS  /tmp/ccETYwEL.s 			page 154


 8630 13d0 98       		.byte	0x98
 8631 13d1 08       		.uleb128 0x8
 8632 13d2 1B2B0000 		.4byte	.LASF308
 8633 13d6 15       		.byte	0x15
 8634 13d7 C0       		.byte	0xc0
 8635 13d8 25000000 		.4byte	0x25
 8636 13dc A0       		.byte	0xa0
 8637 13dd 08       		.uleb128 0x8
 8638 13de 8D070000 		.4byte	.LASF309
 8639 13e2 15       		.byte	0x15
 8640 13e3 C2       		.byte	0xc2
 8641 13e4 25000000 		.4byte	0x25
 8642 13e8 A4       		.byte	0xa4
 8643 13e9 08       		.uleb128 0x8
 8644 13ea 75070000 		.4byte	.LASF310
 8645 13ee 15       		.byte	0x15
 8646 13ef C3       		.byte	0xc3
 8647 13f0 25000000 		.4byte	0x25
 8648 13f4 A8       		.byte	0xa8
 8649 13f5 08       		.uleb128 0x8
 8650 13f6 DA0C0000 		.4byte	.LASF311
 8651 13fa 15       		.byte	0x15
 8652 13fb C4       		.byte	0xc4
 8653 13fc 25000000 		.4byte	0x25
 8654 1400 AC       		.byte	0xac
 8655 1401 08       		.uleb128 0x8
 8656 1402 AA320000 		.4byte	.LASF312
 8657 1406 15       		.byte	0x15
 8658 1407 C5       		.byte	0xc5
 8659 1408 25000000 		.4byte	0x25
 8660 140c B0       		.byte	0xb0
 8661 140d 08       		.uleb128 0x8
 8662 140e 61030000 		.4byte	.LASF313
 8663 1412 15       		.byte	0x15
 8664 1413 C6       		.byte	0xc6
 8665 1414 25000000 		.4byte	0x25
 8666 1418 B4       		.byte	0xb4
 8667 1419 08       		.uleb128 0x8
 8668 141a 6B120000 		.4byte	.LASF314
 8669 141e 15       		.byte	0x15
 8670 141f C7       		.byte	0xc7
 8671 1420 B9160000 		.4byte	0x16b9
 8672 1424 B8       		.byte	0xb8
 8673 1425 08       		.uleb128 0x8
 8674 1426 72250000 		.4byte	.LASF315
 8675 142a 15       		.byte	0x15
 8676 142b C8       		.byte	0xc8
 8677 142c 25000000 		.4byte	0x25
 8678 1430 BC       		.byte	0xbc
 8679 1431 08       		.uleb128 0x8
 8680 1432 AA0B0000 		.4byte	.LASF316
 8681 1436 15       		.byte	0x15
 8682 1437 C9       		.byte	0xc9
 8683 1438 25000000 		.4byte	0x25
 8684 143c C0       		.byte	0xc0
 8685 143d 08       		.uleb128 0x8
 8686 143e B60B0000 		.4byte	.LASF317
ARM GAS  /tmp/ccETYwEL.s 			page 155


 8687 1442 15       		.byte	0x15
 8688 1443 CA       		.byte	0xca
 8689 1444 25000000 		.4byte	0x25
 8690 1448 C4       		.byte	0xc4
 8691 1449 08       		.uleb128 0x8
 8692 144a 901D0000 		.4byte	.LASF318
 8693 144e 15       		.byte	0x15
 8694 144f CB       		.byte	0xcb
 8695 1450 25000000 		.4byte	0x25
 8696 1454 C8       		.byte	0xc8
 8697 1455 08       		.uleb128 0x8
 8698 1456 490E0000 		.4byte	.LASF319
 8699 145a 15       		.byte	0x15
 8700 145b CC       		.byte	0xcc
 8701 145c 25000000 		.4byte	0x25
 8702 1460 CC       		.byte	0xcc
 8703 1461 08       		.uleb128 0x8
 8704 1462 EE000000 		.4byte	.LASF320
 8705 1466 15       		.byte	0x15
 8706 1467 CD       		.byte	0xcd
 8707 1468 25000000 		.4byte	0x25
 8708 146c D0       		.byte	0xd0
 8709 146d 08       		.uleb128 0x8
 8710 146e C52C0000 		.4byte	.LASF321
 8711 1472 15       		.byte	0x15
 8712 1473 CE       		.byte	0xce
 8713 1474 25000000 		.4byte	0x25
 8714 1478 D4       		.byte	0xd4
 8715 1479 08       		.uleb128 0x8
 8716 147a 9C2C0000 		.4byte	.LASF322
 8717 147e 15       		.byte	0x15
 8718 147f CF       		.byte	0xcf
 8719 1480 25000000 		.4byte	0x25
 8720 1484 D8       		.byte	0xd8
 8721 1485 08       		.uleb128 0x8
 8722 1486 B2210000 		.4byte	.LASF323
 8723 148a 15       		.byte	0x15
 8724 148b D0       		.byte	0xd0
 8725 148c 25000000 		.4byte	0x25
 8726 1490 DC       		.byte	0xdc
 8727 1491 08       		.uleb128 0x8
 8728 1492 95210000 		.4byte	.LASF324
 8729 1496 15       		.byte	0x15
 8730 1497 D1       		.byte	0xd1
 8731 1498 25000000 		.4byte	0x25
 8732 149c E0       		.byte	0xe0
 8733 149d 08       		.uleb128 0x8
 8734 149e 532C0000 		.4byte	.LASF325
 8735 14a2 15       		.byte	0x15
 8736 14a3 D2       		.byte	0xd2
 8737 14a4 25000000 		.4byte	0x25
 8738 14a8 E4       		.byte	0xe4
 8739 14a9 08       		.uleb128 0x8
 8740 14aa CC300000 		.4byte	.LASF326
 8741 14ae 15       		.byte	0x15
 8742 14af D3       		.byte	0xd3
 8743 14b0 25000000 		.4byte	0x25
ARM GAS  /tmp/ccETYwEL.s 			page 156


 8744 14b4 E8       		.byte	0xe8
 8745 14b5 08       		.uleb128 0x8
 8746 14b6 A0390000 		.4byte	.LASF327
 8747 14ba 15       		.byte	0x15
 8748 14bb D4       		.byte	0xd4
 8749 14bc 25000000 		.4byte	0x25
 8750 14c0 EC       		.byte	0xec
 8751 14c1 08       		.uleb128 0x8
 8752 14c2 061C0000 		.4byte	.LASF328
 8753 14c6 15       		.byte	0x15
 8754 14c7 D5       		.byte	0xd5
 8755 14c8 25000000 		.4byte	0x25
 8756 14cc F0       		.byte	0xf0
 8757 14cd 08       		.uleb128 0x8
 8758 14ce 642C0000 		.4byte	.LASF329
 8759 14d2 15       		.byte	0x15
 8760 14d3 D6       		.byte	0xd6
 8761 14d4 25000000 		.4byte	0x25
 8762 14d8 F4       		.byte	0xf4
 8763 14d9 08       		.uleb128 0x8
 8764 14da 03320000 		.4byte	.LASF330
 8765 14de 15       		.byte	0x15
 8766 14df D7       		.byte	0xd7
 8767 14e0 72100000 		.4byte	0x1072
 8768 14e4 F8       		.byte	0xf8
 8769 14e5 08       		.uleb128 0x8
 8770 14e6 09160000 		.4byte	.LASF331
 8771 14ea 15       		.byte	0x15
 8772 14eb D8       		.byte	0xd8
 8773 14ec D5160000 		.4byte	0x16d5
 8774 14f0 F9       		.byte	0xf9
 8775 14f1 22       		.uleb128 0x22
 8776 14f2 E3180000 		.4byte	.LASF332
 8777 14f6 15       		.byte	0x15
 8778 14f7 D9       		.byte	0xd9
 8779 14f8 25000000 		.4byte	0x25
 8780 14fc 0401     		.2byte	0x104
 8781 14fe 22       		.uleb128 0x22
 8782 14ff 4E3B0000 		.4byte	.LASF333
 8783 1503 15       		.byte	0x15
 8784 1504 DA       		.byte	0xda
 8785 1505 B9160000 		.4byte	0x16b9
 8786 1509 0801     		.2byte	0x108
 8787 150b 22       		.uleb128 0x22
 8788 150c B3340000 		.4byte	.LASF334
 8789 1510 15       		.byte	0x15
 8790 1511 DB       		.byte	0xdb
 8791 1512 B9160000 		.4byte	0x16b9
 8792 1516 0901     		.2byte	0x109
 8793 1518 22       		.uleb128 0x22
 8794 1519 CD320000 		.4byte	.LASF335
 8795 151d 15       		.byte	0x15
 8796 151e DC       		.byte	0xdc
 8797 151f 25000000 		.4byte	0x25
 8798 1523 0C01     		.2byte	0x10c
 8799 1525 22       		.uleb128 0x22
 8800 1526 3C270000 		.4byte	.LASF336
ARM GAS  /tmp/ccETYwEL.s 			page 157


 8801 152a 15       		.byte	0x15
 8802 152b DD       		.byte	0xdd
 8803 152c B9160000 		.4byte	0x16b9
 8804 1530 1001     		.2byte	0x110
 8805 1532 22       		.uleb128 0x22
 8806 1533 CC2E0000 		.4byte	.LASF337
 8807 1537 15       		.byte	0x15
 8808 1538 DE       		.byte	0xde
 8809 1539 25000000 		.4byte	0x25
 8810 153d 1401     		.2byte	0x114
 8811 153f 22       		.uleb128 0x22
 8812 1540 0D390000 		.4byte	.LASF338
 8813 1544 15       		.byte	0x15
 8814 1545 DF       		.byte	0xdf
 8815 1546 25000000 		.4byte	0x25
 8816 154a 1801     		.2byte	0x118
 8817 154c 22       		.uleb128 0x22
 8818 154d AE2B0000 		.4byte	.LASF339
 8819 1551 15       		.byte	0x15
 8820 1552 E1       		.byte	0xe1
 8821 1553 25000000 		.4byte	0x25
 8822 1557 1C01     		.2byte	0x11c
 8823 1559 22       		.uleb128 0x22
 8824 155a 6C2B0000 		.4byte	.LASF340
 8825 155e 15       		.byte	0x15
 8826 155f E2       		.byte	0xe2
 8827 1560 25000000 		.4byte	0x25
 8828 1564 2001     		.2byte	0x120
 8829 1566 22       		.uleb128 0x22
 8830 1567 CD0A0000 		.4byte	.LASF341
 8831 156b 15       		.byte	0x15
 8832 156c E3       		.byte	0xe3
 8833 156d 25000000 		.4byte	0x25
 8834 1571 2401     		.2byte	0x124
 8835 1573 22       		.uleb128 0x22
 8836 1574 B20A0000 		.4byte	.LASF342
 8837 1578 15       		.byte	0x15
 8838 1579 E4       		.byte	0xe4
 8839 157a 25000000 		.4byte	0x25
 8840 157e 2801     		.2byte	0x128
 8841 1580 22       		.uleb128 0x22
 8842 1581 5A0C0000 		.4byte	.LASF343
 8843 1585 15       		.byte	0x15
 8844 1586 E5       		.byte	0xe5
 8845 1587 25000000 		.4byte	0x25
 8846 158b 2C01     		.2byte	0x12c
 8847 158d 22       		.uleb128 0x22
 8848 158e 9B0F0000 		.4byte	.LASF344
 8849 1592 15       		.byte	0x15
 8850 1593 E6       		.byte	0xe6
 8851 1594 B9160000 		.4byte	0x16b9
 8852 1598 3001     		.2byte	0x130
 8853 159a 22       		.uleb128 0x22
 8854 159b CC260000 		.4byte	.LASF345
 8855 159f 15       		.byte	0x15
 8856 15a0 E8       		.byte	0xe8
 8857 15a1 25000000 		.4byte	0x25
ARM GAS  /tmp/ccETYwEL.s 			page 158


 8858 15a5 3401     		.2byte	0x134
 8859 15a7 22       		.uleb128 0x22
 8860 15a8 BB260000 		.4byte	.LASF346
 8861 15ac 15       		.byte	0x15
 8862 15ad E9       		.byte	0xe9
 8863 15ae 25000000 		.4byte	0x25
 8864 15b2 3801     		.2byte	0x138
 8865 15b4 22       		.uleb128 0x22
 8866 15b5 B2260000 		.4byte	.LASF347
 8867 15b9 15       		.byte	0x15
 8868 15ba EA       		.byte	0xea
 8869 15bb 25000000 		.4byte	0x25
 8870 15bf 3C01     		.2byte	0x13c
 8871 15c1 22       		.uleb128 0x22
 8872 15c2 9A320000 		.4byte	.LASF348
 8873 15c6 15       		.byte	0x15
 8874 15c7 EB       		.byte	0xeb
 8875 15c8 25000000 		.4byte	0x25
 8876 15cc 4001     		.2byte	0x140
 8877 15ce 22       		.uleb128 0x22
 8878 15cf 44390000 		.4byte	.LASF349
 8879 15d3 15       		.byte	0x15
 8880 15d4 EC       		.byte	0xec
 8881 15d5 25000000 		.4byte	0x25
 8882 15d9 4401     		.2byte	0x144
 8883 15db 22       		.uleb128 0x22
 8884 15dc FD020000 		.4byte	.LASF350
 8885 15e0 15       		.byte	0x15
 8886 15e1 EE       		.byte	0xee
 8887 15e2 25000000 		.4byte	0x25
 8888 15e6 4801     		.2byte	0x148
 8889 15e8 22       		.uleb128 0x22
 8890 15e9 80120000 		.4byte	.LASF351
 8891 15ed 15       		.byte	0x15
 8892 15ee EF       		.byte	0xef
 8893 15ef 25000000 		.4byte	0x25
 8894 15f3 4C01     		.2byte	0x14c
 8895 15f5 22       		.uleb128 0x22
 8896 15f6 831A0000 		.4byte	.LASF352
 8897 15fa 15       		.byte	0x15
 8898 15fb F0       		.byte	0xf0
 8899 15fc 25000000 		.4byte	0x25
 8900 1600 5001     		.2byte	0x150
 8901 1602 22       		.uleb128 0x22
 8902 1603 85260000 		.4byte	.LASF353
 8903 1607 15       		.byte	0x15
 8904 1608 F1       		.byte	0xf1
 8905 1609 25000000 		.4byte	0x25
 8906 160d 5401     		.2byte	0x154
 8907 160f 22       		.uleb128 0x22
 8908 1610 350A0000 		.4byte	.LASF354
 8909 1614 15       		.byte	0x15
 8910 1615 F3       		.byte	0xf3
 8911 1616 0E010000 		.4byte	0x10e
 8912 161a 5801     		.2byte	0x158
 8913 161c 22       		.uleb128 0x22
 8914 161d CE360000 		.4byte	.LASF355
ARM GAS  /tmp/ccETYwEL.s 			page 159


 8915 1621 15       		.byte	0x15
 8916 1622 F4       		.byte	0xf4
 8917 1623 25000000 		.4byte	0x25
 8918 1627 5C01     		.2byte	0x15c
 8919 1629 22       		.uleb128 0x22
 8920 162a 4D170000 		.4byte	.LASF356
 8921 162e 15       		.byte	0x15
 8922 162f F5       		.byte	0xf5
 8923 1630 25000000 		.4byte	0x25
 8924 1634 6001     		.2byte	0x160
 8925 1636 22       		.uleb128 0x22
 8926 1637 0D3D0000 		.4byte	.LASF357
 8927 163b 15       		.byte	0x15
 8928 163c F6       		.byte	0xf6
 8929 163d 1E010000 		.4byte	0x11e
 8930 1641 6401     		.2byte	0x164
 8931 1643 22       		.uleb128 0x22
 8932 1644 05170000 		.4byte	.LASF358
 8933 1648 15       		.byte	0x15
 8934 1649 F7       		.byte	0xf7
 8935 164a 3C110000 		.4byte	0x113c
 8936 164e 6801     		.2byte	0x168
 8937 1650 22       		.uleb128 0x22
 8938 1651 6E170000 		.4byte	.LASF359
 8939 1655 15       		.byte	0x15
 8940 1656 F8       		.byte	0xf8
 8941 1657 B9160000 		.4byte	0x16b9
 8942 165b 6901     		.2byte	0x169
 8943 165d 22       		.uleb128 0x22
 8944 165e 4A120000 		.4byte	.LASF360
 8945 1662 15       		.byte	0x15
 8946 1663 F9       		.byte	0xf9
 8947 1664 77110000 		.4byte	0x1177
 8948 1668 6A01     		.2byte	0x16a
 8949 166a 22       		.uleb128 0x22
 8950 166b DD010000 		.4byte	.LASF361
 8951 166f 15       		.byte	0x15
 8952 1670 FA       		.byte	0xfa
 8953 1671 B1000000 		.4byte	0xb1
 8954 1675 6C01     		.2byte	0x16c
 8955 1677 22       		.uleb128 0x22
 8956 1678 2E300000 		.4byte	.LASF362
 8957 167c 15       		.byte	0x15
 8958 167d FB       		.byte	0xfb
 8959 167e 25000000 		.4byte	0x25
 8960 1682 7001     		.2byte	0x170
 8961 1684 22       		.uleb128 0x22
 8962 1685 08270000 		.4byte	.LASF363
 8963 1689 15       		.byte	0x15
 8964 168a FC       		.byte	0xfc
 8965 168b 25000000 		.4byte	0x25
 8966 168f 7401     		.2byte	0x174
 8967 1691 22       		.uleb128 0x22
 8968 1692 A9340000 		.4byte	.LASF364
 8969 1696 15       		.byte	0x15
 8970 1697 FD       		.byte	0xfd
 8971 1698 25000000 		.4byte	0x25
ARM GAS  /tmp/ccETYwEL.s 			page 160


 8972 169c 7801     		.2byte	0x178
 8973 169e 22       		.uleb128 0x22
 8974 169f 00080000 		.4byte	.LASF365
 8975 16a3 15       		.byte	0x15
 8976 16a4 FE       		.byte	0xfe
 8977 16a5 25000000 		.4byte	0x25
 8978 16a9 7C01     		.2byte	0x17c
 8979 16ab 22       		.uleb128 0x22
 8980 16ac F43C0000 		.4byte	.LASF366
 8981 16b0 15       		.byte	0x15
 8982 16b1 FF       		.byte	0xff
 8983 16b2 A3100000 		.4byte	0x10a3
 8984 16b6 8001     		.2byte	0x180
 8985 16b8 00       		.byte	0
 8986 16b9 02       		.uleb128 0x2
 8987 16ba 01       		.byte	0x1
 8988 16bb 02       		.byte	0x2
 8989 16bc 61010000 		.4byte	.LASF367
 8990 16c0 05       		.uleb128 0x5
 8991 16c1 B9160000 		.4byte	0x16b9
 8992 16c5 11       		.uleb128 0x11
 8993 16c6 C9000000 		.4byte	0xc9
 8994 16ca D5160000 		.4byte	0x16d5
 8995 16ce 12       		.uleb128 0x12
 8996 16cf BD000000 		.4byte	0xbd
 8997 16d3 07       		.byte	0x7
 8998 16d4 00       		.byte	0
 8999 16d5 11       		.uleb128 0x11
 9000 16d6 D9000000 		.4byte	0xd9
 9001 16da E5160000 		.4byte	0x16e5
 9002 16de 12       		.uleb128 0x12
 9003 16df BD000000 		.4byte	0xbd
 9004 16e3 07       		.byte	0x7
 9005 16e4 00       		.byte	0
 9006 16e5 18       		.uleb128 0x18
 9007 16e6 DF360000 		.4byte	.LASF368
 9008 16ea 15       		.byte	0x15
 9009 16eb 0001     		.2byte	0x100
 9010 16ed D0110000 		.4byte	0x11d0
 9011 16f1 05       		.uleb128 0x5
 9012 16f2 E5160000 		.4byte	0x16e5
 9013 16f6 06       		.uleb128 0x6
 9014 16f7 F1160000 		.4byte	0x16f1
 9015 16fb 11       		.uleb128 0x11
 9016 16fc 49000000 		.4byte	0x49
 9017 1700 0B170000 		.4byte	0x170b
 9018 1704 12       		.uleb128 0x12
 9019 1705 BD000000 		.4byte	0xbd
 9020 1709 02       		.byte	0x2
 9021 170a 00       		.byte	0
 9022 170b 23       		.uleb128 0x23
 9023 170c 07       		.byte	0x7
 9024 170d 01       		.byte	0x1
 9025 170e 49000000 		.4byte	0x49
 9026 1712 15       		.byte	0x15
 9027 1713 CB01     		.2byte	0x1cb
 9028 1715 FE170000 		.4byte	0x17fe
ARM GAS  /tmp/ccETYwEL.s 			page 161


 9029 1719 20       		.uleb128 0x20
 9030 171a 42280000 		.4byte	.LASF369
 9031 171e 00       		.byte	0
 9032 171f 20       		.uleb128 0x20
 9033 1720 63240000 		.4byte	.LASF370
 9034 1724 01       		.byte	0x1
 9035 1725 20       		.uleb128 0x20
 9036 1726 16120000 		.4byte	.LASF371
 9037 172a 02       		.byte	0x2
 9038 172b 20       		.uleb128 0x20
 9039 172c FE110000 		.4byte	.LASF372
 9040 1730 03       		.byte	0x3
 9041 1731 20       		.uleb128 0x20
 9042 1732 0B2B0000 		.4byte	.LASF373
 9043 1736 04       		.byte	0x4
 9044 1737 20       		.uleb128 0x20
 9045 1738 28150000 		.4byte	.LASF374
 9046 173c 05       		.byte	0x5
 9047 173d 20       		.uleb128 0x20
 9048 173e 281E0000 		.4byte	.LASF375
 9049 1742 06       		.byte	0x6
 9050 1743 20       		.uleb128 0x20
 9051 1744 6C330000 		.4byte	.LASF376
 9052 1748 07       		.byte	0x7
 9053 1749 20       		.uleb128 0x20
 9054 174a E9330000 		.4byte	.LASF377
 9055 174e 08       		.byte	0x8
 9056 174f 20       		.uleb128 0x20
 9057 1750 0C260000 		.4byte	.LASF378
 9058 1754 09       		.byte	0x9
 9059 1755 20       		.uleb128 0x20
 9060 1756 D4250000 		.4byte	.LASF379
 9061 175a 0A       		.byte	0xa
 9062 175b 20       		.uleb128 0x20
 9063 175c 0F240000 		.4byte	.LASF380
 9064 1760 0B       		.byte	0xb
 9065 1761 20       		.uleb128 0x20
 9066 1762 1D160000 		.4byte	.LASF381
 9067 1766 0C       		.byte	0xc
 9068 1767 20       		.uleb128 0x20
 9069 1768 B3330000 		.4byte	.LASF382
 9070 176c 0D       		.byte	0xd
 9071 176d 20       		.uleb128 0x20
 9072 176e CF150000 		.4byte	.LASF383
 9073 1772 0E       		.byte	0xe
 9074 1773 20       		.uleb128 0x20
 9075 1774 E22A0000 		.4byte	.LASF384
 9076 1778 0F       		.byte	0xf
 9077 1779 20       		.uleb128 0x20
 9078 177a 79310000 		.4byte	.LASF385
 9079 177e 10       		.byte	0x10
 9080 177f 20       		.uleb128 0x20
 9081 1780 352E0000 		.4byte	.LASF386
 9082 1784 11       		.byte	0x11
 9083 1785 20       		.uleb128 0x20
 9084 1786 F1370000 		.4byte	.LASF387
 9085 178a 12       		.byte	0x12
ARM GAS  /tmp/ccETYwEL.s 			page 162


 9086 178b 20       		.uleb128 0x20
 9087 178c 070A0000 		.4byte	.LASF388
 9088 1790 13       		.byte	0x13
 9089 1791 20       		.uleb128 0x20
 9090 1792 6C370000 		.4byte	.LASF389
 9091 1796 14       		.byte	0x14
 9092 1797 20       		.uleb128 0x20
 9093 1798 B72B0000 		.4byte	.LASF390
 9094 179c 15       		.byte	0x15
 9095 179d 20       		.uleb128 0x20
 9096 179e 44360000 		.4byte	.LASF391
 9097 17a2 16       		.byte	0x16
 9098 17a3 20       		.uleb128 0x20
 9099 17a4 F7170000 		.4byte	.LASF392
 9100 17a8 17       		.byte	0x17
 9101 17a9 20       		.uleb128 0x20
 9102 17aa C2310000 		.4byte	.LASF393
 9103 17ae 18       		.byte	0x18
 9104 17af 20       		.uleb128 0x20
 9105 17b0 C60D0000 		.4byte	.LASF394
 9106 17b4 19       		.byte	0x19
 9107 17b5 20       		.uleb128 0x20
 9108 17b6 B9130000 		.4byte	.LASF395
 9109 17ba 1A       		.byte	0x1a
 9110 17bb 20       		.uleb128 0x20
 9111 17bc B02A0000 		.4byte	.LASF396
 9112 17c0 1B       		.byte	0x1b
 9113 17c1 20       		.uleb128 0x20
 9114 17c2 D9000000 		.4byte	.LASF397
 9115 17c6 1C       		.byte	0x1c
 9116 17c7 20       		.uleb128 0x20
 9117 17c8 203C0000 		.4byte	.LASF398
 9118 17cc 1D       		.byte	0x1d
 9119 17cd 20       		.uleb128 0x20
 9120 17ce DC0D0000 		.4byte	.LASF399
 9121 17d2 1E       		.byte	0x1e
 9122 17d3 20       		.uleb128 0x20
 9123 17d4 67160000 		.4byte	.LASF400
 9124 17d8 1F       		.byte	0x1f
 9125 17d9 20       		.uleb128 0x20
 9126 17da 53310000 		.4byte	.LASF401
 9127 17de 20       		.byte	0x20
 9128 17df 20       		.uleb128 0x20
 9129 17e0 A1250000 		.4byte	.LASF402
 9130 17e4 21       		.byte	0x21
 9131 17e5 20       		.uleb128 0x20
 9132 17e6 9F170000 		.4byte	.LASF403
 9133 17ea 22       		.byte	0x22
 9134 17eb 20       		.uleb128 0x20
 9135 17ec 922D0000 		.4byte	.LASF404
 9136 17f0 23       		.byte	0x23
 9137 17f1 20       		.uleb128 0x20
 9138 17f2 2F360000 		.4byte	.LASF405
 9139 17f6 24       		.byte	0x24
 9140 17f7 20       		.uleb128 0x20
 9141 17f8 27340000 		.4byte	.LASF406
 9142 17fc 25       		.byte	0x25
ARM GAS  /tmp/ccETYwEL.s 			page 163


 9143 17fd 00       		.byte	0
 9144 17fe 17       		.uleb128 0x17
 9145 17ff 38       		.byte	0x38
 9146 1800 15       		.byte	0x15
 9147 1801 0702     		.2byte	0x207
 9148 1803 BE180000 		.4byte	0x18be
 9149 1807 0A       		.uleb128 0xa
 9150 1808 4D290000 		.4byte	.LASF407
 9151 180c 15       		.byte	0x15
 9152 180d 0802     		.2byte	0x208
 9153 180f 11110000 		.4byte	0x1111
 9154 1813 00       		.byte	0
 9155 1814 0A       		.uleb128 0xa
 9156 1815 83200000 		.4byte	.LASF408
 9157 1819 15       		.byte	0x15
 9158 181a 0902     		.2byte	0x209
 9159 181c 25000000 		.4byte	0x25
 9160 1820 04       		.byte	0x4
 9161 1821 0A       		.uleb128 0xa
 9162 1822 5C350000 		.4byte	.LASF409
 9163 1826 15       		.byte	0x15
 9164 1827 0A02     		.2byte	0x20a
 9165 1829 25000000 		.4byte	0x25
 9166 182d 08       		.byte	0x8
 9167 182e 0A       		.uleb128 0xa
 9168 182f 9D310000 		.4byte	.LASF410
 9169 1833 15       		.byte	0x15
 9170 1834 0B02     		.2byte	0x20b
 9171 1836 25000000 		.4byte	0x25
 9172 183a 0C       		.byte	0xc
 9173 183b 0A       		.uleb128 0xa
 9174 183c 572B0000 		.4byte	.LASF411
 9175 1840 15       		.byte	0x15
 9176 1841 0C02     		.2byte	0x20c
 9177 1843 25000000 		.4byte	0x25
 9178 1847 10       		.byte	0x10
 9179 1848 09       		.uleb128 0x9
 9180 1849 72706D00 		.ascii	"rpm\000"
 9181 184d 15       		.byte	0x15
 9182 184e 0D02     		.2byte	0x20d
 9183 1850 25000000 		.4byte	0x25
 9184 1854 14       		.byte	0x14
 9185 1855 0A       		.uleb128 0xa
 9186 1856 6E2A0000 		.4byte	.LASF412
 9187 185a 15       		.byte	0x15
 9188 185b 0E02     		.2byte	0x20e
 9189 185d B1000000 		.4byte	0xb1
 9190 1861 18       		.byte	0x18
 9191 1862 0A       		.uleb128 0xa
 9192 1863 1D1F0000 		.4byte	.LASF413
 9193 1867 15       		.byte	0x15
 9194 1868 0F02     		.2byte	0x20f
 9195 186a B1000000 		.4byte	0xb1
 9196 186e 1C       		.byte	0x1c
 9197 186f 0A       		.uleb128 0xa
 9198 1870 9A110000 		.4byte	.LASF414
 9199 1874 15       		.byte	0x15
ARM GAS  /tmp/ccETYwEL.s 			page 164


 9200 1875 1002     		.2byte	0x210
 9201 1877 B1000000 		.4byte	0xb1
 9202 187b 20       		.byte	0x20
 9203 187c 0A       		.uleb128 0xa
 9204 187d FE340000 		.4byte	.LASF415
 9205 1881 15       		.byte	0x15
 9206 1882 1102     		.2byte	0x211
 9207 1884 B1000000 		.4byte	0xb1
 9208 1888 24       		.byte	0x24
 9209 1889 0A       		.uleb128 0xa
 9210 188a 992F0000 		.4byte	.LASF416
 9211 188e 15       		.byte	0x15
 9212 188f 1202     		.2byte	0x212
 9213 1891 B1000000 		.4byte	0xb1
 9214 1895 28       		.byte	0x28
 9215 1896 0A       		.uleb128 0xa
 9216 1897 DF260000 		.4byte	.LASF417
 9217 189b 15       		.byte	0x15
 9218 189c 1302     		.2byte	0x213
 9219 189e B1000000 		.4byte	0xb1
 9220 18a2 2C       		.byte	0x2c
 9221 18a3 0A       		.uleb128 0xa
 9222 18a4 58330000 		.4byte	.LASF418
 9223 18a8 15       		.byte	0x15
 9224 18a9 1402     		.2byte	0x214
 9225 18ab 25000000 		.4byte	0x25
 9226 18af 30       		.byte	0x30
 9227 18b0 0A       		.uleb128 0xa
 9228 18b1 B6220000 		.4byte	.LASF419
 9229 18b5 15       		.byte	0x15
 9230 18b6 1502     		.2byte	0x215
 9231 18b8 B1000000 		.4byte	0xb1
 9232 18bc 34       		.byte	0x34
 9233 18bd 00       		.byte	0
 9234 18be 18       		.uleb128 0x18
 9235 18bf D33B0000 		.4byte	.LASF420
 9236 18c3 15       		.byte	0x15
 9237 18c4 1602     		.2byte	0x216
 9238 18c6 FE170000 		.4byte	0x17fe
 9239 18ca 14       		.uleb128 0x14
 9240 18cb 48210000 		.4byte	.LASF421
 9241 18cf 16       		.byte	0x16
 9242 18d0 A7       		.byte	0xa7
 9243 18d1 B9160000 		.4byte	0x16b9
 9244 18d5 11       		.uleb128 0x11
 9245 18d6 09010000 		.4byte	0x109
 9246 18da E0180000 		.4byte	0x18e0
 9247 18de 24       		.uleb128 0x24
 9248 18df 00       		.byte	0
 9249 18e0 05       		.uleb128 0x5
 9250 18e1 D5180000 		.4byte	0x18d5
 9251 18e5 14       		.uleb128 0x14
 9252 18e6 62230000 		.4byte	.LASF422
 9253 18ea 17       		.byte	0x17
 9254 18eb 56       		.byte	0x56
 9255 18ec E0180000 		.4byte	0x18e0
 9256 18f0 11       		.uleb128 0x11
ARM GAS  /tmp/ccETYwEL.s 			page 165


 9257 18f1 B8000000 		.4byte	0xb8
 9258 18f5 FB180000 		.4byte	0x18fb
 9259 18f9 24       		.uleb128 0x24
 9260 18fa 00       		.byte	0
 9261 18fb 05       		.uleb128 0x5
 9262 18fc F0180000 		.4byte	0x18f0
 9263 1900 14       		.uleb128 0x14
 9264 1901 8B1A0000 		.4byte	.LASF423
 9265 1905 17       		.byte	0x17
 9266 1906 57       		.byte	0x57
 9267 1907 FB180000 		.4byte	0x18fb
 9268 190b 11       		.uleb128 0x11
 9269 190c 47110000 		.4byte	0x1147
 9270 1910 16190000 		.4byte	0x1916
 9271 1914 24       		.uleb128 0x24
 9272 1915 00       		.byte	0
 9273 1916 05       		.uleb128 0x5
 9274 1917 0B190000 		.4byte	0x190b
 9275 191b 14       		.uleb128 0x14
 9276 191c 94240000 		.4byte	.LASF424
 9277 1920 18       		.byte	0x18
 9278 1921 4B       		.byte	0x4b
 9279 1922 16190000 		.4byte	0x1916
 9280 1926 14       		.uleb128 0x14
 9281 1927 29250000 		.4byte	.LASF425
 9282 192b 18       		.byte	0x18
 9283 192c 4C       		.byte	0x4c
 9284 192d 16190000 		.4byte	0x1916
 9285 1931 14       		.uleb128 0x14
 9286 1932 6D3B0000 		.4byte	.LASF426
 9287 1936 18       		.byte	0x18
 9288 1937 4D       		.byte	0x4d
 9289 1938 16190000 		.4byte	0x1916
 9290 193c 14       		.uleb128 0x14
 9291 193d 9D150000 		.4byte	.LASF427
 9292 1941 18       		.byte	0x18
 9293 1942 4E       		.byte	0x4e
 9294 1943 B8000000 		.4byte	0xb8
 9295 1947 15       		.uleb128 0x15
 9296 1948 0C       		.byte	0xc
 9297 1949 19       		.byte	0x19
 9298 194a DA       		.byte	0xda
 9299 194b 8C190000 		.4byte	0x198c
 9300 194f 08       		.uleb128 0x8
 9301 1950 153B0000 		.4byte	.LASF428
 9302 1954 19       		.byte	0x19
 9303 1955 DB       		.byte	0xdb
 9304 1956 8C190000 		.4byte	0x198c
 9305 195a 00       		.byte	0
 9306 195b 08       		.uleb128 0x8
 9307 195c 81170000 		.4byte	.LASF429
 9308 1960 19       		.byte	0x19
 9309 1961 DC       		.byte	0xdc
 9310 1962 92190000 		.4byte	0x1992
 9311 1966 04       		.byte	0x4
 9312 1967 08       		.uleb128 0x8
 9313 1968 D9050000 		.4byte	.LASF430
ARM GAS  /tmp/ccETYwEL.s 			page 166


 9314 196c 19       		.byte	0x19
 9315 196d DD       		.byte	0xdd
 9316 196e D9000000 		.4byte	0xd9
 9317 1972 08       		.byte	0x8
 9318 1973 08       		.uleb128 0x8
 9319 1974 47300000 		.4byte	.LASF431
 9320 1978 19       		.byte	0x19
 9321 1979 DF       		.byte	0xdf
 9322 197a D9000000 		.4byte	0xd9
 9323 197e 09       		.byte	0x9
 9324 197f 08       		.uleb128 0x8
 9325 1980 E0040000 		.4byte	.LASF432
 9326 1984 19       		.byte	0x19
 9327 1985 E0       		.byte	0xe0
 9328 1986 D9000000 		.4byte	0xd9
 9329 198a 0A       		.byte	0xa
 9330 198b 00       		.byte	0
 9331 198c 0B       		.uleb128 0xb
 9332 198d 04       		.byte	0x4
 9333 198e BD070000 		.4byte	0x7bd
 9334 1992 0B       		.uleb128 0xb
 9335 1993 04       		.byte	0x4
 9336 1994 29010000 		.4byte	0x129
 9337 1998 03       		.uleb128 0x3
 9338 1999 21060000 		.4byte	.LASF433
 9339 199d 19       		.byte	0x19
 9340 199e E1       		.byte	0xe1
 9341 199f 47190000 		.4byte	0x1947
 9342 19a3 06       		.uleb128 0x6
 9343 19a4 98190000 		.4byte	0x1998
 9344 19a8 11       		.uleb128 0x11
 9345 19a9 A3190000 		.4byte	0x19a3
 9346 19ad B8190000 		.4byte	0x19b8
 9347 19b1 12       		.uleb128 0x12
 9348 19b2 BD000000 		.4byte	0xbd
 9349 19b6 0F       		.byte	0xf
 9350 19b7 00       		.byte	0
 9351 19b8 06       		.uleb128 0x6
 9352 19b9 A8190000 		.4byte	0x19a8
 9353 19bd 13       		.uleb128 0x13
 9354 19be 472A0000 		.4byte	.LASF434
 9355 19c2 19       		.byte	0x19
 9356 19c3 BB01     		.2byte	0x1bb
 9357 19c5 B8190000 		.4byte	0x19b8
 9358 19c9 15       		.uleb128 0x15
 9359 19ca 04       		.byte	0x4
 9360 19cb 1A       		.byte	0x1a
 9361 19cc B3       		.byte	0xb3
 9362 19cd EA190000 		.4byte	0x19ea
 9363 19d1 16       		.uleb128 0x16
 9364 19d2 73657400 		.ascii	"set\000"
 9365 19d6 1A       		.byte	0x1a
 9366 19d7 B4       		.byte	0xb4
 9367 19d8 FE000000 		.4byte	0xfe
 9368 19dc 00       		.byte	0
 9369 19dd 08       		.uleb128 0x8
 9370 19de BD120000 		.4byte	.LASF435
ARM GAS  /tmp/ccETYwEL.s 			page 167


 9371 19e2 1A       		.byte	0x1a
 9372 19e3 B5       		.byte	0xb5
 9373 19e4 FE000000 		.4byte	0xfe
 9374 19e8 02       		.byte	0x2
 9375 19e9 00       		.byte	0
 9376 19ea 1C       		.uleb128 0x1c
 9377 19eb 04       		.byte	0x4
 9378 19ec 1A       		.byte	0x1a
 9379 19ed B1       		.byte	0xb1
 9380 19ee 051A0000 		.4byte	0x1a05
 9381 19f2 25       		.uleb128 0x25
 9382 19f3 5700     		.ascii	"W\000"
 9383 19f5 1A       		.byte	0x1a
 9384 19f6 B2       		.byte	0xb2
 9385 19f7 1E010000 		.4byte	0x11e
 9386 19fb 25       		.uleb128 0x25
 9387 19fc 4800     		.ascii	"H\000"
 9388 19fe 1A       		.byte	0x1a
 9389 19ff B6       		.byte	0xb6
 9390 1a00 C9190000 		.4byte	0x19c9
 9391 1a04 00       		.byte	0
 9392 1a05 05       		.uleb128 0x5
 9393 1a06 EA190000 		.4byte	0x19ea
 9394 1a0a 15       		.uleb128 0x15
 9395 1a0b 2C       		.byte	0x2c
 9396 1a0c 1A       		.byte	0x1a
 9397 1a0d A9       		.byte	0xa9
 9398 1a0e 971A0000 		.4byte	0x1a97
 9399 1a12 08       		.uleb128 0x8
 9400 1a13 A1300000 		.4byte	.LASF436
 9401 1a17 1A       		.byte	0x1a
 9402 1a18 AB       		.byte	0xab
 9403 1a19 29010000 		.4byte	0x129
 9404 1a1d 00       		.byte	0
 9405 1a1e 08       		.uleb128 0x8
 9406 1a1f 4D040000 		.4byte	.LASF437
 9407 1a23 1A       		.byte	0x1a
 9408 1a24 AC       		.byte	0xac
 9409 1a25 29010000 		.4byte	0x129
 9410 1a29 04       		.byte	0x4
 9411 1a2a 08       		.uleb128 0x8
 9412 1a2b 36150000 		.4byte	.LASF438
 9413 1a2f 1A       		.byte	0x1a
 9414 1a30 AD       		.byte	0xad
 9415 1a31 29010000 		.4byte	0x129
 9416 1a35 08       		.byte	0x8
 9417 1a36 08       		.uleb128 0x8
 9418 1a37 682F0000 		.4byte	.LASF439
 9419 1a3b 1A       		.byte	0x1a
 9420 1a3c AE       		.byte	0xae
 9421 1a3d 29010000 		.4byte	0x129
 9422 1a41 0C       		.byte	0xc
 9423 1a42 16       		.uleb128 0x16
 9424 1a43 49445200 		.ascii	"IDR\000"
 9425 1a47 1A       		.byte	0x1a
 9426 1a48 AF       		.byte	0xaf
 9427 1a49 29010000 		.4byte	0x129
ARM GAS  /tmp/ccETYwEL.s 			page 168


 9428 1a4d 10       		.byte	0x10
 9429 1a4e 16       		.uleb128 0x16
 9430 1a4f 4F445200 		.ascii	"ODR\000"
 9431 1a53 1A       		.byte	0x1a
 9432 1a54 B0       		.byte	0xb0
 9433 1a55 29010000 		.4byte	0x129
 9434 1a59 14       		.byte	0x14
 9435 1a5a 08       		.uleb128 0x8
 9436 1a5b 271C0000 		.4byte	.LASF440
 9437 1a5f 1A       		.byte	0x1a
 9438 1a60 B7       		.byte	0xb7
 9439 1a61 051A0000 		.4byte	0x1a05
 9440 1a65 18       		.byte	0x18
 9441 1a66 08       		.uleb128 0x8
 9442 1a67 6D250000 		.4byte	.LASF441
 9443 1a6b 1A       		.byte	0x1a
 9444 1a6c B8       		.byte	0xb8
 9445 1a6d 29010000 		.4byte	0x129
 9446 1a71 1C       		.byte	0x1c
 9447 1a72 08       		.uleb128 0x8
 9448 1a73 C22B0000 		.4byte	.LASF442
 9449 1a77 1A       		.byte	0x1a
 9450 1a78 B9       		.byte	0xb9
 9451 1a79 29010000 		.4byte	0x129
 9452 1a7d 20       		.byte	0x20
 9453 1a7e 08       		.uleb128 0x8
 9454 1a7f DD2A0000 		.4byte	.LASF443
 9455 1a83 1A       		.byte	0x1a
 9456 1a84 BA       		.byte	0xba
 9457 1a85 29010000 		.4byte	0x129
 9458 1a89 24       		.byte	0x24
 9459 1a8a 16       		.uleb128 0x16
 9460 1a8b 42525200 		.ascii	"BRR\000"
 9461 1a8f 1A       		.byte	0x1a
 9462 1a90 BB       		.byte	0xbb
 9463 1a91 29010000 		.4byte	0x129
 9464 1a95 28       		.byte	0x28
 9465 1a96 00       		.byte	0
 9466 1a97 03       		.uleb128 0x3
 9467 1a98 92170000 		.4byte	.LASF444
 9468 1a9c 1A       		.byte	0x1a
 9469 1a9d BC       		.byte	0xbc
 9470 1a9e 0A1A0000 		.4byte	0x1a0a
 9471 1aa2 15       		.uleb128 0x15
 9472 1aa3 1C       		.byte	0x1c
 9473 1aa4 1A       		.byte	0x1a
 9474 1aa5 C1       		.byte	0xc1
 9475 1aa6 FF1A0000 		.4byte	0x1aff
 9476 1aaa 08       		.uleb128 0x8
 9477 1aab 29360000 		.4byte	.LASF445
 9478 1aaf 1A       		.byte	0x1a
 9479 1ab0 C3       		.byte	0xc3
 9480 1ab1 1E010000 		.4byte	0x11e
 9481 1ab5 00       		.byte	0
 9482 1ab6 08       		.uleb128 0x8
 9483 1ab7 21040000 		.4byte	.LASF446
 9484 1abb 1A       		.byte	0x1a
ARM GAS  /tmp/ccETYwEL.s 			page 169


 9485 1abc C5       		.byte	0xc5
 9486 1abd 1E010000 		.4byte	0x11e
 9487 1ac1 04       		.byte	0x4
 9488 1ac2 08       		.uleb128 0x8
 9489 1ac3 CE020000 		.4byte	.LASF447
 9490 1ac7 1A       		.byte	0x1a
 9491 1ac8 C7       		.byte	0xc7
 9492 1ac9 1E010000 		.4byte	0x11e
 9493 1acd 08       		.byte	0x8
 9494 1ace 08       		.uleb128 0x8
 9495 1acf A3340000 		.4byte	.LASF448
 9496 1ad3 1A       		.byte	0x1a
 9497 1ad4 C9       		.byte	0xc9
 9498 1ad5 1E010000 		.4byte	0x11e
 9499 1ad9 0C       		.byte	0xc
 9500 1ada 16       		.uleb128 0x16
 9501 1adb 6F647200 		.ascii	"odr\000"
 9502 1adf 1A       		.byte	0x1a
 9503 1ae0 CB       		.byte	0xcb
 9504 1ae1 1E010000 		.4byte	0x11e
 9505 1ae5 10       		.byte	0x10
 9506 1ae6 08       		.uleb128 0x8
 9507 1ae7 FF2F0000 		.4byte	.LASF449
 9508 1aeb 1A       		.byte	0x1a
 9509 1aec CD       		.byte	0xcd
 9510 1aed 1E010000 		.4byte	0x11e
 9511 1af1 14       		.byte	0x14
 9512 1af2 08       		.uleb128 0x8
 9513 1af3 D72F0000 		.4byte	.LASF450
 9514 1af7 1A       		.byte	0x1a
 9515 1af8 CF       		.byte	0xcf
 9516 1af9 1E010000 		.4byte	0x11e
 9517 1afd 18       		.byte	0x18
 9518 1afe 00       		.byte	0
 9519 1aff 03       		.uleb128 0x3
 9520 1b00 D7290000 		.4byte	.LASF451
 9521 1b04 1A       		.byte	0x1a
 9522 1b05 D0       		.byte	0xd0
 9523 1b06 A21A0000 		.4byte	0x1aa2
 9524 1b0a 15       		.uleb128 0x15
 9525 1b0b FC       		.byte	0xfc
 9526 1b0c 1A       		.byte	0x1a
 9527 1b0d D9       		.byte	0xd9
 9528 1b0e 7F1B0000 		.4byte	0x1b7f
 9529 1b12 08       		.uleb128 0x8
 9530 1b13 73180000 		.4byte	.LASF452
 9531 1b17 1A       		.byte	0x1a
 9532 1b18 DC       		.byte	0xdc
 9533 1b19 FF1A0000 		.4byte	0x1aff
 9534 1b1d 00       		.byte	0
 9535 1b1e 08       		.uleb128 0x8
 9536 1b1f F1030000 		.4byte	.LASF453
 9537 1b23 1A       		.byte	0x1a
 9538 1b24 E0       		.byte	0xe0
 9539 1b25 FF1A0000 		.4byte	0x1aff
 9540 1b29 1C       		.byte	0x1c
 9541 1b2a 08       		.uleb128 0x8
ARM GAS  /tmp/ccETYwEL.s 			page 170


 9542 1b2b 0F020000 		.4byte	.LASF454
 9543 1b2f 1A       		.byte	0x1a
 9544 1b30 E4       		.byte	0xe4
 9545 1b31 FF1A0000 		.4byte	0x1aff
 9546 1b35 38       		.byte	0x38
 9547 1b36 08       		.uleb128 0x8
 9548 1b37 4D140000 		.4byte	.LASF455
 9549 1b3b 1A       		.byte	0x1a
 9550 1b3c E8       		.byte	0xe8
 9551 1b3d FF1A0000 		.4byte	0x1aff
 9552 1b41 54       		.byte	0x54
 9553 1b42 08       		.uleb128 0x8
 9554 1b43 C8270000 		.4byte	.LASF456
 9555 1b47 1A       		.byte	0x1a
 9556 1b48 EC       		.byte	0xec
 9557 1b49 FF1A0000 		.4byte	0x1aff
 9558 1b4d 70       		.byte	0x70
 9559 1b4e 08       		.uleb128 0x8
 9560 1b4f A53C0000 		.4byte	.LASF457
 9561 1b53 1A       		.byte	0x1a
 9562 1b54 F0       		.byte	0xf0
 9563 1b55 FF1A0000 		.4byte	0x1aff
 9564 1b59 8C       		.byte	0x8c
 9565 1b5a 08       		.uleb128 0x8
 9566 1b5b AF0F0000 		.4byte	.LASF458
 9567 1b5f 1A       		.byte	0x1a
 9568 1b60 F4       		.byte	0xf4
 9569 1b61 FF1A0000 		.4byte	0x1aff
 9570 1b65 A8       		.byte	0xa8
 9571 1b66 08       		.uleb128 0x8
 9572 1b67 3E240000 		.4byte	.LASF459
 9573 1b6b 1A       		.byte	0x1a
 9574 1b6c F8       		.byte	0xf8
 9575 1b6d FF1A0000 		.4byte	0x1aff
 9576 1b71 C4       		.byte	0xc4
 9577 1b72 08       		.uleb128 0x8
 9578 1b73 D3380000 		.4byte	.LASF460
 9579 1b77 1A       		.byte	0x1a
 9580 1b78 FC       		.byte	0xfc
 9581 1b79 FF1A0000 		.4byte	0x1aff
 9582 1b7d E0       		.byte	0xe0
 9583 1b7e 00       		.byte	0
 9584 1b7f 03       		.uleb128 0x3
 9585 1b80 A90E0000 		.4byte	.LASF461
 9586 1b84 1A       		.byte	0x1a
 9587 1b85 FE       		.byte	0xfe
 9588 1b86 0A1B0000 		.4byte	0x1b0a
 9589 1b8a 06       		.uleb128 0x6
 9590 1b8b 7F1B0000 		.4byte	0x1b7f
 9591 1b8f 18       		.uleb128 0x18
 9592 1b90 58240000 		.4byte	.LASF462
 9593 1b94 1A       		.byte	0x1a
 9594 1b95 1B01     		.2byte	0x11b
 9595 1b97 9B1B0000 		.4byte	0x1b9b
 9596 1b9b 0B       		.uleb128 0xb
 9597 1b9c 04       		.byte	0x4
 9598 1b9d 971A0000 		.4byte	0x1a97
ARM GAS  /tmp/ccETYwEL.s 			page 171


 9599 1ba1 13       		.uleb128 0x13
 9600 1ba2 40310000 		.4byte	.LASF463
 9601 1ba6 1A       		.byte	0x1a
 9602 1ba7 DA01     		.2byte	0x1da
 9603 1ba9 8A1B0000 		.4byte	0x1b8a
 9604 1bad 1F       		.uleb128 0x1f
 9605 1bae 07       		.byte	0x7
 9606 1baf 01       		.byte	0x1
 9607 1bb0 49000000 		.4byte	0x49
 9608 1bb4 1B       		.byte	0x1b
 9609 1bb5 5F       		.byte	0x5f
 9610 1bb6 D91B0000 		.4byte	0x1bd9
 9611 1bba 20       		.uleb128 0x20
 9612 1bbb 4C0D0000 		.4byte	.LASF464
 9613 1bbf 00       		.byte	0
 9614 1bc0 20       		.uleb128 0x20
 9615 1bc1 2F010000 		.4byte	.LASF465
 9616 1bc5 01       		.byte	0x1
 9617 1bc6 20       		.uleb128 0x20
 9618 1bc7 53000000 		.4byte	.LASF466
 9619 1bcb 02       		.byte	0x2
 9620 1bcc 20       		.uleb128 0x20
 9621 1bcd 5E070000 		.4byte	.LASF467
 9622 1bd1 03       		.byte	0x3
 9623 1bd2 20       		.uleb128 0x20
 9624 1bd3 D00C0000 		.4byte	.LASF468
 9625 1bd7 04       		.byte	0x4
 9626 1bd8 00       		.byte	0
 9627 1bd9 03       		.uleb128 0x3
 9628 1bda BA070000 		.4byte	.LASF469
 9629 1bde 1B       		.byte	0x1b
 9630 1bdf 65       		.byte	0x65
 9631 1be0 AD1B0000 		.4byte	0x1bad
 9632 1be4 15       		.uleb128 0x15
 9633 1be5 08       		.byte	0x8
 9634 1be6 1C       		.byte	0x1c
 9635 1be7 F4       		.byte	0xf4
 9636 1be8 061C0000 		.4byte	0x1c06
 9637 1bec 16       		.uleb128 0x16
 9638 1bed 6D637200 		.ascii	"mcr\000"
 9639 1bf1 1C       		.byte	0x1c
 9640 1bf2 FA       		.byte	0xfa
 9641 1bf3 1E010000 		.4byte	0x11e
 9642 1bf7 00       		.byte	0
 9643 1bf8 09       		.uleb128 0x9
 9644 1bf9 62747200 		.ascii	"btr\000"
 9645 1bfd 1C       		.byte	0x1c
 9646 1bfe 0001     		.2byte	0x100
 9647 1c00 1E010000 		.4byte	0x11e
 9648 1c04 04       		.byte	0x4
 9649 1c05 00       		.byte	0
 9650 1c06 18       		.uleb128 0x18
 9651 1c07 BE270000 		.4byte	.LASF470
 9652 1c0b 1C       		.byte	0x1c
 9653 1c0c 0101     		.2byte	0x101
 9654 1c0e E41B0000 		.4byte	0x1be4
 9655 1c12 06       		.uleb128 0x6
ARM GAS  /tmp/ccETYwEL.s 			page 172


 9656 1c13 061C0000 		.4byte	0x1c06
 9657 1c17 17       		.uleb128 0x17
 9658 1c18 30       		.byte	0x30
 9659 1c19 1C       		.byte	0x1c
 9660 1c1a 0601     		.2byte	0x106
 9661 1c1c A31C0000 		.4byte	0x1ca3
 9662 1c20 0A       		.uleb128 0xa
 9663 1c21 1E220000 		.4byte	.LASF471
 9664 1c25 1C       		.byte	0x1c
 9665 1c26 0A01     		.2byte	0x10a
 9666 1c28 D91B0000 		.4byte	0x1bd9
 9667 1c2c 00       		.byte	0
 9668 1c2d 0A       		.uleb128 0xa
 9669 1c2e F0360000 		.4byte	.LASF472
 9670 1c32 1C       		.byte	0x1c
 9671 1c33 0E01     		.2byte	0x10e
 9672 1c35 A31C0000 		.4byte	0x1ca3
 9673 1c39 04       		.byte	0x4
 9674 1c3a 0A       		.uleb128 0xa
 9675 1c3b 690C0000 		.4byte	.LASF473
 9676 1c3f 1C       		.byte	0x1c
 9677 1c40 1201     		.2byte	0x112
 9678 1c42 0C030000 		.4byte	0x30c
 9679 1c46 08       		.byte	0x8
 9680 1c47 0A       		.uleb128 0xa
 9681 1c48 2F310000 		.4byte	.LASF474
 9682 1c4c 1C       		.byte	0x1c
 9683 1c4d 1601     		.2byte	0x116
 9684 1c4f 0C030000 		.4byte	0x30c
 9685 1c53 10       		.byte	0x10
 9686 1c54 0A       		.uleb128 0xa
 9687 1c55 77270000 		.4byte	.LASF475
 9688 1c59 1C       		.byte	0x1c
 9689 1c5a 2301     		.2byte	0x123
 9690 1c5c DF0E0000 		.4byte	0xedf
 9691 1c60 18       		.byte	0x18
 9692 1c61 0A       		.uleb128 0xa
 9693 1c62 8D0F0000 		.4byte	.LASF476
 9694 1c66 1C       		.byte	0x1c
 9695 1c67 2A01     		.2byte	0x12a
 9696 1c69 DF0E0000 		.4byte	0xedf
 9697 1c6d 1C       		.byte	0x1c
 9698 1c6e 0A       		.uleb128 0xa
 9699 1c6f 1C150000 		.4byte	.LASF477
 9700 1c73 1C       		.byte	0x1c
 9701 1c74 3001     		.2byte	0x130
 9702 1c76 DF0E0000 		.4byte	0xedf
 9703 1c7a 20       		.byte	0x20
 9704 1c7b 0A       		.uleb128 0xa
 9705 1c7c BD040000 		.4byte	.LASF478
 9706 1c80 1C       		.byte	0x1c
 9707 1c81 3501     		.2byte	0x135
 9708 1c83 DF0E0000 		.4byte	0xedf
 9709 1c87 24       		.byte	0x24
 9710 1c88 0A       		.uleb128 0xa
 9711 1c89 FE0B0000 		.4byte	.LASF479
 9712 1c8d 1C       		.byte	0x1c
ARM GAS  /tmp/ccETYwEL.s 			page 173


 9713 1c8e 3901     		.2byte	0x139
 9714 1c90 DF0E0000 		.4byte	0xedf
 9715 1c94 28       		.byte	0x28
 9716 1c95 09       		.uleb128 0x9
 9717 1c96 63616E00 		.ascii	"can\000"
 9718 1c9a 1C       		.byte	0x1c
 9719 1c9b 3F01     		.2byte	0x13f
 9720 1c9d A91C0000 		.4byte	0x1ca9
 9721 1ca1 2C       		.byte	0x2c
 9722 1ca2 00       		.byte	0
 9723 1ca3 0B       		.uleb128 0xb
 9724 1ca4 04       		.byte	0x4
 9725 1ca5 121C0000 		.4byte	0x1c12
 9726 1ca9 0B       		.uleb128 0xb
 9727 1caa 04       		.byte	0x4
 9728 1cab 5A070000 		.4byte	0x75a
 9729 1caf 18       		.uleb128 0x18
 9730 1cb0 13050000 		.4byte	.LASF480
 9731 1cb4 1C       		.byte	0x1c
 9732 1cb5 4001     		.2byte	0x140
 9733 1cb7 171C0000 		.4byte	0x1c17
 9734 1cbb 13       		.uleb128 0x13
 9735 1cbc 5C340000 		.4byte	.LASF481
 9736 1cc0 1C       		.byte	0x1c
 9737 1cc1 4B01     		.2byte	0x14b
 9738 1cc3 AF1C0000 		.4byte	0x1caf
 9739 1cc7 1F       		.uleb128 0x1f
 9740 1cc8 07       		.byte	0x7
 9741 1cc9 01       		.byte	0x1
 9742 1cca 49000000 		.4byte	0x49
 9743 1cce 1D       		.byte	0x1d
 9744 1ccf 4C       		.byte	0x4c
 9745 1cd0 F91C0000 		.4byte	0x1cf9
 9746 1cd4 20       		.uleb128 0x20
 9747 1cd5 1A080000 		.4byte	.LASF482
 9748 1cd9 00       		.byte	0
 9749 1cda 20       		.uleb128 0x20
 9750 1cdb E8140000 		.4byte	.LASF483
 9751 1cdf 01       		.byte	0x1
 9752 1ce0 20       		.uleb128 0x20
 9753 1ce1 97080000 		.4byte	.LASF484
 9754 1ce5 02       		.byte	0x2
 9755 1ce6 20       		.uleb128 0x20
 9756 1ce7 13060000 		.4byte	.LASF485
 9757 1ceb 03       		.byte	0x3
 9758 1cec 20       		.uleb128 0x20
 9759 1ced 9C040000 		.4byte	.LASF486
 9760 1cf1 04       		.byte	0x4
 9761 1cf2 20       		.uleb128 0x20
 9762 1cf3 FD1C0000 		.4byte	.LASF487
 9763 1cf7 05       		.byte	0x5
 9764 1cf8 00       		.byte	0
 9765 1cf9 03       		.uleb128 0x3
 9766 1cfa 85190000 		.4byte	.LASF488
 9767 1cfe 1D       		.byte	0x1d
 9768 1cff 53       		.byte	0x53
 9769 1d00 C71C0000 		.4byte	0x1cc7
ARM GAS  /tmp/ccETYwEL.s 			page 174


 9770 1d04 18       		.uleb128 0x18
 9771 1d05 89060000 		.4byte	.LASF489
 9772 1d09 1E       		.byte	0x1e
 9773 1d0a 6A01     		.2byte	0x16a
 9774 1d0c FE000000 		.4byte	0xfe
 9775 1d10 18       		.uleb128 0x18
 9776 1d11 52050000 		.4byte	.LASF490
 9777 1d15 1E       		.byte	0x1e
 9778 1d16 6F01     		.2byte	0x16f
 9779 1d18 1E010000 		.4byte	0x11e
 9780 1d1c 23       		.uleb128 0x23
 9781 1d1d 07       		.byte	0x7
 9782 1d1e 01       		.byte	0x1
 9783 1d1f 49000000 		.4byte	0x49
 9784 1d23 1E       		.byte	0x1e
 9785 1d24 7401     		.2byte	0x174
 9786 1d26 3D1D0000 		.4byte	0x1d3d
 9787 1d2a 20       		.uleb128 0x20
 9788 1d2b F6140000 		.4byte	.LASF491
 9789 1d2f 01       		.byte	0x1
 9790 1d30 20       		.uleb128 0x20
 9791 1d31 A3000000 		.4byte	.LASF492
 9792 1d35 02       		.byte	0x2
 9793 1d36 20       		.uleb128 0x20
 9794 1d37 8E0C0000 		.4byte	.LASF493
 9795 1d3b 03       		.byte	0x3
 9796 1d3c 00       		.byte	0
 9797 1d3d 18       		.uleb128 0x18
 9798 1d3e 1C3B0000 		.4byte	.LASF494
 9799 1d42 1E       		.byte	0x1e
 9800 1d43 7801     		.2byte	0x178
 9801 1d45 1C1D0000 		.4byte	0x1d1c
 9802 1d49 23       		.uleb128 0x23
 9803 1d4a 07       		.byte	0x7
 9804 1d4b 01       		.byte	0x1
 9805 1d4c 49000000 		.4byte	0x49
 9806 1d50 1E       		.byte	0x1e
 9807 1d51 7D01     		.2byte	0x17d
 9808 1d53 6A1D0000 		.4byte	0x1d6a
 9809 1d57 20       		.uleb128 0x20
 9810 1d58 97130000 		.4byte	.LASF495
 9811 1d5c 01       		.byte	0x1
 9812 1d5d 20       		.uleb128 0x20
 9813 1d5e 4C3A0000 		.4byte	.LASF496
 9814 1d62 02       		.byte	0x2
 9815 1d63 20       		.uleb128 0x20
 9816 1d64 680E0000 		.4byte	.LASF497
 9817 1d68 03       		.byte	0x3
 9818 1d69 00       		.byte	0
 9819 1d6a 18       		.uleb128 0x18
 9820 1d6b AA080000 		.4byte	.LASF498
 9821 1d6f 1E       		.byte	0x1e
 9822 1d70 8101     		.2byte	0x181
 9823 1d72 491D0000 		.4byte	0x1d49
 9824 1d76 17       		.uleb128 0x17
 9825 1d77 0C       		.byte	0xc
 9826 1d78 1E       		.byte	0x1e
ARM GAS  /tmp/ccETYwEL.s 			page 175


 9827 1d79 8601     		.2byte	0x186
 9828 1d7b A71D0000 		.4byte	0x1da7
 9829 1d7f 0A       		.uleb128 0xa
 9830 1d80 EA070000 		.4byte	.LASF499
 9831 1d84 1E       		.byte	0x1e
 9832 1d85 8801     		.2byte	0x188
 9833 1d87 3D1D0000 		.4byte	0x1d3d
 9834 1d8b 00       		.byte	0
 9835 1d8c 0A       		.uleb128 0xa
 9836 1d8d FD040000 		.4byte	.LASF500
 9837 1d91 1E       		.byte	0x1e
 9838 1d92 8901     		.2byte	0x189
 9839 1d94 1E010000 		.4byte	0x11e
 9840 1d98 04       		.byte	0x4
 9841 1d99 0A       		.uleb128 0xa
 9842 1d9a 153C0000 		.4byte	.LASF501
 9843 1d9e 1E       		.byte	0x1e
 9844 1d9f 8C01     		.2byte	0x18c
 9845 1da1 6A1D0000 		.4byte	0x1d6a
 9846 1da5 08       		.byte	0x8
 9847 1da6 00       		.byte	0
 9848 1da7 18       		.uleb128 0x18
 9849 1da8 5A020000 		.4byte	.LASF502
 9850 1dac 1E       		.byte	0x1e
 9851 1dad 8E01     		.2byte	0x18e
 9852 1daf 761D0000 		.4byte	0x1d76
 9853 1db3 06       		.uleb128 0x6
 9854 1db4 A71D0000 		.4byte	0x1da7
 9855 1db8 18       		.uleb128 0x18
 9856 1db9 09060000 		.4byte	.LASF503
 9857 1dbd 1E       		.byte	0x1e
 9858 1dbe 9301     		.2byte	0x193
 9859 1dc0 C41D0000 		.4byte	0x1dc4
 9860 1dc4 0C       		.uleb128 0xc
 9861 1dc5 09060000 		.4byte	.LASF503
 9862 1dc9 38       		.byte	0x38
 9863 1dca 1E       		.byte	0x1e
 9864 1dcb 9801     		.2byte	0x198
 9865 1dcd 611E0000 		.4byte	0x1e61
 9866 1dd1 0A       		.uleb128 0xa
 9867 1dd2 1E220000 		.4byte	.LASF471
 9868 1dd6 1E       		.byte	0x1e
 9869 1dd7 9C01     		.2byte	0x19c
 9870 1dd9 F91C0000 		.4byte	0x1cf9
 9871 1ddd 00       		.byte	0
 9872 1dde 0A       		.uleb128 0xa
 9873 1ddf F0360000 		.4byte	.LASF472
 9874 1de3 1E       		.byte	0x1e
 9875 1de4 A001     		.2byte	0x1a0
 9876 1de6 611E0000 		.4byte	0x1e61
 9877 1dea 04       		.byte	0x4
 9878 1deb 0A       		.uleb128 0xa
 9879 1dec BD010000 		.4byte	.LASF504
 9880 1df0 1E       		.byte	0x1e
 9881 1df1 A401     		.2byte	0x1a4
 9882 1df3 101D0000 		.4byte	0x1d10
 9883 1df7 08       		.byte	0x8
ARM GAS  /tmp/ccETYwEL.s 			page 176


 9884 1df8 0A       		.uleb128 0xa
 9885 1df9 31120000 		.4byte	.LASF505
 9886 1dfd 1E       		.byte	0x1e
 9887 1dfe A901     		.2byte	0x1a9
 9888 1e00 5B0E0000 		.4byte	0xe5b
 9889 1e04 0C       		.byte	0xc
 9890 1e05 0A       		.uleb128 0xa
 9891 1e06 ED080000 		.4byte	.LASF506
 9892 1e0a 1E       		.byte	0x1e
 9893 1e0b B201     		.2byte	0x1b2
 9894 1e0d D7020000 		.4byte	0x2d7
 9895 1e11 1C       		.byte	0x1c
 9896 1e12 0A       		.uleb128 0xa
 9897 1e13 F1140000 		.4byte	.LASF507
 9898 1e17 1E       		.byte	0x1e
 9899 1e18 B601     		.2byte	0x1b6
 9900 1e1a 041D0000 		.4byte	0x1d04
 9901 1e1e 20       		.byte	0x20
 9902 1e1f 0A       		.uleb128 0xa
 9903 1e20 FE0A0000 		.4byte	.LASF508
 9904 1e24 1E       		.byte	0x1e
 9905 1e25 BA01     		.2byte	0x1ba
 9906 1e27 1E010000 		.4byte	0x11e
 9907 1e2b 24       		.byte	0x24
 9908 1e2c 0A       		.uleb128 0xa
 9909 1e2d A00B0000 		.4byte	.LASF509
 9910 1e31 1E       		.byte	0x1e
 9911 1e32 BE01     		.2byte	0x1be
 9912 1e34 1E010000 		.4byte	0x11e
 9913 1e38 28       		.byte	0x28
 9914 1e39 0A       		.uleb128 0xa
 9915 1e3a 67010000 		.4byte	.LASF510
 9916 1e3e 1E       		.byte	0x1e
 9917 1e3f C201     		.2byte	0x1c2
 9918 1e41 671E0000 		.4byte	0x1e67
 9919 1e45 2C       		.byte	0x2c
 9920 1e46 0A       		.uleb128 0xa
 9921 1e47 A6020000 		.4byte	.LASF511
 9922 1e4b 1E       		.byte	0x1e
 9923 1e4c C601     		.2byte	0x1c6
 9924 1e4e 671E0000 		.4byte	0x1e67
 9925 1e52 30       		.byte	0x30
 9926 1e53 09       		.uleb128 0x9
 9927 1e54 69326300 		.ascii	"i2c\000"
 9928 1e58 1E       		.byte	0x1e
 9929 1e59 CA01     		.2byte	0x1ca
 9930 1e5b 6D1E0000 		.4byte	0x1e6d
 9931 1e5f 34       		.byte	0x34
 9932 1e60 00       		.byte	0
 9933 1e61 0B       		.uleb128 0xb
 9934 1e62 04       		.byte	0x4
 9935 1e63 B31D0000 		.4byte	0x1db3
 9936 1e67 0B       		.uleb128 0xb
 9937 1e68 04       		.byte	0x4
 9938 1e69 A3190000 		.4byte	0x19a3
 9939 1e6d 0B       		.uleb128 0xb
 9940 1e6e 04       		.byte	0x4
ARM GAS  /tmp/ccETYwEL.s 			page 177


 9941 1e6f 7E080000 		.4byte	0x87e
 9942 1e73 13       		.uleb128 0x13
 9943 1e74 0B1A0000 		.4byte	.LASF512
 9944 1e78 1E       		.byte	0x1e
 9945 1e79 E401     		.2byte	0x1e4
 9946 1e7b B81D0000 		.4byte	0x1db8
 9947 1e7f 1F       		.uleb128 0x1f
 9948 1e80 07       		.byte	0x7
 9949 1e81 01       		.byte	0x1
 9950 1e82 49000000 		.4byte	0x49
 9951 1e86 1F       		.byte	0x1f
 9952 1e87 31       		.byte	0x31
 9953 1e88 AB1E0000 		.4byte	0x1eab
 9954 1e8c 20       		.uleb128 0x20
 9955 1e8d 26390000 		.4byte	.LASF513
 9956 1e91 00       		.byte	0
 9957 1e92 20       		.uleb128 0x20
 9958 1e93 F62F0000 		.4byte	.LASF514
 9959 1e97 01       		.byte	0x1
 9960 1e98 20       		.uleb128 0x20
 9961 1e99 AE060000 		.4byte	.LASF515
 9962 1e9d 02       		.byte	0x2
 9963 1e9e 20       		.uleb128 0x20
 9964 1e9f B01E0000 		.4byte	.LASF516
 9965 1ea3 03       		.byte	0x3
 9966 1ea4 20       		.uleb128 0x20
 9967 1ea5 FC2C0000 		.4byte	.LASF517
 9968 1ea9 04       		.byte	0x4
 9969 1eaa 00       		.byte	0
 9970 1eab 03       		.uleb128 0x3
 9971 1eac 15330000 		.4byte	.LASF518
 9972 1eb0 1F       		.byte	0x1f
 9973 1eb1 37       		.byte	0x37
 9974 1eb2 7F1E0000 		.4byte	0x1e7f
 9975 1eb6 03       		.uleb128 0x3
 9976 1eb7 D5260000 		.4byte	.LASF519
 9977 1ebb 1F       		.byte	0x1f
 9978 1ebc 3C       		.byte	0x3c
 9979 1ebd C11E0000 		.4byte	0x1ec1
 9980 1ec1 0C       		.uleb128 0xc
 9981 1ec2 D5260000 		.4byte	.LASF519
 9982 1ec6 18       		.byte	0x18
 9983 1ec7 20       		.byte	0x20
 9984 1ec8 3101     		.2byte	0x131
 9985 1eca 1D1F0000 		.4byte	0x1f1d
 9986 1ece 0A       		.uleb128 0xa
 9987 1ecf 1E220000 		.4byte	.LASF471
 9988 1ed3 20       		.byte	0x20
 9989 1ed4 3501     		.2byte	0x135
 9990 1ed6 AB1E0000 		.4byte	0x1eab
 9991 1eda 00       		.byte	0
 9992 1edb 0A       		.uleb128 0xa
 9993 1edc F0360000 		.4byte	.LASF472
 9994 1ee0 20       		.byte	0x20
 9995 1ee1 3901     		.2byte	0x139
 9996 1ee3 22210000 		.4byte	0x2122
 9997 1ee7 04       		.byte	0x4
ARM GAS  /tmp/ccETYwEL.s 			page 178


 9998 1ee8 0A       		.uleb128 0xa
 9999 1ee9 C6300000 		.4byte	.LASF520
 10000 1eed 20       		.byte	0x20
 10001 1eee 4101     		.2byte	0x141
 10002 1ef0 1E010000 		.4byte	0x11e
 10003 1ef4 08       		.byte	0x8
 10004 1ef5 09       		.uleb128 0x9
 10005 1ef6 74696D00 		.ascii	"tim\000"
 10006 1efa 20       		.byte	0x20
 10007 1efb 4501     		.2byte	0x145
 10008 1efd 28210000 		.4byte	0x2128
 10009 1f01 0C       		.byte	0xc
 10010 1f02 0A       		.uleb128 0xa
 10011 1f03 832F0000 		.4byte	.LASF521
 10012 1f07 20       		.byte	0x20
 10013 1f08 4901     		.2byte	0x149
 10014 1f0a 92190000 		.4byte	0x1992
 10015 1f0e 10       		.byte	0x10
 10016 1f0f 0A       		.uleb128 0xa
 10017 1f10 D7060000 		.4byte	.LASF522
 10018 1f14 20       		.byte	0x20
 10019 1f15 4D01     		.2byte	0x14d
 10020 1f17 92190000 		.4byte	0x1992
 10021 1f1b 14       		.byte	0x14
 10022 1f1c 00       		.byte	0
 10023 1f1d 03       		.uleb128 0x3
 10024 1f1e 17290000 		.4byte	.LASF523
 10025 1f22 1F       		.byte	0x1f
 10026 1f23 43       		.byte	0x43
 10027 1f24 281F0000 		.4byte	0x1f28
 10028 1f28 0B       		.uleb128 0xb
 10029 1f29 04       		.byte	0x4
 10030 1f2a 2E1F0000 		.4byte	0x1f2e
 10031 1f2e 0D       		.uleb128 0xd
 10032 1f2f 391F0000 		.4byte	0x1f39
 10033 1f33 0E       		.uleb128 0xe
 10034 1f34 391F0000 		.4byte	0x1f39
 10035 1f38 00       		.byte	0
 10036 1f39 0B       		.uleb128 0xb
 10037 1f3a 04       		.byte	0x4
 10038 1f3b B61E0000 		.4byte	0x1eb6
 10039 1f3f 17       		.uleb128 0x17
 10040 1f40 60       		.byte	0x60
 10041 1f41 21       		.byte	0x21
 10042 1f42 9E01     		.2byte	0x19e
 10043 1f44 4B200000 		.4byte	0x204b
 10044 1f48 09       		.uleb128 0x9
 10045 1f49 43523100 		.ascii	"CR1\000"
 10046 1f4d 21       		.byte	0x21
 10047 1f4e 9F01     		.2byte	0x19f
 10048 1f50 29010000 		.4byte	0x129
 10049 1f54 00       		.byte	0
 10050 1f55 09       		.uleb128 0x9
 10051 1f56 43523200 		.ascii	"CR2\000"
 10052 1f5a 21       		.byte	0x21
 10053 1f5b A001     		.2byte	0x1a0
 10054 1f5d 29010000 		.4byte	0x129
ARM GAS  /tmp/ccETYwEL.s 			page 179


 10055 1f61 04       		.byte	0x4
 10056 1f62 0A       		.uleb128 0xa
 10057 1f63 34330000 		.4byte	.LASF132
 10058 1f67 21       		.byte	0x21
 10059 1f68 A101     		.2byte	0x1a1
 10060 1f6a 29010000 		.4byte	0x129
 10061 1f6e 08       		.byte	0x8
 10062 1f6f 0A       		.uleb128 0xa
 10063 1f70 770D0000 		.4byte	.LASF133
 10064 1f74 21       		.byte	0x21
 10065 1f75 A201     		.2byte	0x1a2
 10066 1f77 29010000 		.4byte	0x129
 10067 1f7b 0C       		.byte	0xc
 10068 1f7c 09       		.uleb128 0x9
 10069 1f7d 535200   		.ascii	"SR\000"
 10070 1f80 21       		.byte	0x21
 10071 1f81 A301     		.2byte	0x1a3
 10072 1f83 29010000 		.4byte	0x129
 10073 1f87 10       		.byte	0x10
 10074 1f88 09       		.uleb128 0x9
 10075 1f89 45475200 		.ascii	"EGR\000"
 10076 1f8d 21       		.byte	0x21
 10077 1f8e A401     		.2byte	0x1a4
 10078 1f90 29010000 		.4byte	0x129
 10079 1f94 14       		.byte	0x14
 10080 1f95 0A       		.uleb128 0xa
 10081 1f96 A43A0000 		.4byte	.LASF134
 10082 1f9a 21       		.byte	0x21
 10083 1f9b A501     		.2byte	0x1a5
 10084 1f9d 29010000 		.4byte	0x129
 10085 1fa1 18       		.byte	0x18
 10086 1fa2 0A       		.uleb128 0xa
 10087 1fa3 AA3A0000 		.4byte	.LASF135
 10088 1fa7 21       		.byte	0x21
 10089 1fa8 A601     		.2byte	0x1a6
 10090 1faa 29010000 		.4byte	0x129
 10091 1fae 1C       		.byte	0x1c
 10092 1faf 0A       		.uleb128 0xa
 10093 1fb0 6B090000 		.4byte	.LASF136
 10094 1fb4 21       		.byte	0x21
 10095 1fb5 A701     		.2byte	0x1a7
 10096 1fb7 29010000 		.4byte	0x129
 10097 1fbb 20       		.byte	0x20
 10098 1fbc 09       		.uleb128 0x9
 10099 1fbd 434E5400 		.ascii	"CNT\000"
 10100 1fc1 21       		.byte	0x21
 10101 1fc2 A801     		.2byte	0x1a8
 10102 1fc4 29010000 		.4byte	0x129
 10103 1fc8 24       		.byte	0x24
 10104 1fc9 09       		.uleb128 0x9
 10105 1fca 50534300 		.ascii	"PSC\000"
 10106 1fce 21       		.byte	0x21
 10107 1fcf A901     		.2byte	0x1a9
 10108 1fd1 29010000 		.4byte	0x129
 10109 1fd5 28       		.byte	0x28
 10110 1fd6 09       		.uleb128 0x9
 10111 1fd7 41525200 		.ascii	"ARR\000"
ARM GAS  /tmp/ccETYwEL.s 			page 180


 10112 1fdb 21       		.byte	0x21
 10113 1fdc AA01     		.2byte	0x1aa
 10114 1fde 29010000 		.4byte	0x129
 10115 1fe2 2C       		.byte	0x2c
 10116 1fe3 09       		.uleb128 0x9
 10117 1fe4 52435200 		.ascii	"RCR\000"
 10118 1fe8 21       		.byte	0x21
 10119 1fe9 AB01     		.2byte	0x1ab
 10120 1feb 29010000 		.4byte	0x129
 10121 1fef 30       		.byte	0x30
 10122 1ff0 09       		.uleb128 0x9
 10123 1ff1 43435200 		.ascii	"CCR\000"
 10124 1ff5 21       		.byte	0x21
 10125 1ff6 AC01     		.2byte	0x1ac
 10126 1ff8 EE070000 		.4byte	0x7ee
 10127 1ffc 34       		.byte	0x34
 10128 1ffd 0A       		.uleb128 0xa
 10129 1ffe 55020000 		.4byte	.LASF141
 10130 2002 21       		.byte	0x21
 10131 2003 AD01     		.2byte	0x1ad
 10132 2005 29010000 		.4byte	0x129
 10133 2009 44       		.byte	0x44
 10134 200a 09       		.uleb128 0x9
 10135 200b 44435200 		.ascii	"DCR\000"
 10136 200f 21       		.byte	0x21
 10137 2010 AE01     		.2byte	0x1ae
 10138 2012 29010000 		.4byte	0x129
 10139 2016 48       		.byte	0x48
 10140 2017 0A       		.uleb128 0xa
 10141 2018 75220000 		.4byte	.LASF142
 10142 201c 21       		.byte	0x21
 10143 201d AF01     		.2byte	0x1af
 10144 201f 29010000 		.4byte	0x129
 10145 2023 4C       		.byte	0x4c
 10146 2024 09       		.uleb128 0x9
 10147 2025 4F5200   		.ascii	"OR\000"
 10148 2028 21       		.byte	0x21
 10149 2029 B001     		.2byte	0x1b0
 10150 202b 29010000 		.4byte	0x129
 10151 202f 50       		.byte	0x50
 10152 2030 0A       		.uleb128 0xa
 10153 2031 B03A0000 		.4byte	.LASF524
 10154 2035 21       		.byte	0x21
 10155 2036 B101     		.2byte	0x1b1
 10156 2038 29010000 		.4byte	0x129
 10157 203c 54       		.byte	0x54
 10158 203d 0A       		.uleb128 0xa
 10159 203e C3120000 		.4byte	.LASF525
 10160 2042 21       		.byte	0x21
 10161 2043 B201     		.2byte	0x1b2
 10162 2045 D9070000 		.4byte	0x7d9
 10163 2049 58       		.byte	0x58
 10164 204a 00       		.byte	0
 10165 204b 18       		.uleb128 0x18
 10166 204c DA310000 		.4byte	.LASF526
 10167 2050 21       		.byte	0x21
 10168 2051 B301     		.2byte	0x1b3
ARM GAS  /tmp/ccETYwEL.s 			page 181


 10169 2053 3F1F0000 		.4byte	0x1f3f
 10170 2057 1F       		.uleb128 0x1f
 10171 2058 07       		.byte	0x7
 10172 2059 01       		.byte	0x1
 10173 205a 49000000 		.4byte	0x49
 10174 205e 20       		.byte	0x20
 10175 205f EE       		.byte	0xee
 10176 2060 71200000 		.4byte	0x2071
 10177 2064 20       		.uleb128 0x20
 10178 2065 360B0000 		.4byte	.LASF527
 10179 2069 00       		.byte	0
 10180 206a 20       		.uleb128 0x20
 10181 206b EA290000 		.4byte	.LASF528
 10182 206f 01       		.byte	0x1
 10183 2070 00       		.byte	0
 10184 2071 03       		.uleb128 0x3
 10185 2072 89370000 		.4byte	.LASF529
 10186 2076 20       		.byte	0x20
 10187 2077 F1       		.byte	0xf1
 10188 2078 57200000 		.4byte	0x2057
 10189 207c 03       		.uleb128 0x3
 10190 207d 742A0000 		.4byte	.LASF530
 10191 2081 20       		.byte	0x20
 10192 2082 F6       		.byte	0xf6
 10193 2083 1E010000 		.4byte	0x11e
 10194 2087 1F       		.uleb128 0x1f
 10195 2088 07       		.byte	0x7
 10196 2089 01       		.byte	0x1
 10197 208a 49000000 		.4byte	0x49
 10198 208e 20       		.byte	0x20
 10199 208f FB       		.byte	0xfb
 10200 2090 A1200000 		.4byte	0x20a1
 10201 2094 20       		.uleb128 0x20
 10202 2095 B2280000 		.4byte	.LASF531
 10203 2099 00       		.byte	0
 10204 209a 20       		.uleb128 0x20
 10205 209b 26320000 		.4byte	.LASF532
 10206 209f 01       		.byte	0x1
 10207 20a0 00       		.byte	0
 10208 20a1 03       		.uleb128 0x3
 10209 20a2 AD070000 		.4byte	.LASF533
 10210 20a6 20       		.byte	0x20
 10211 20a7 FE       		.byte	0xfe
 10212 20a8 87200000 		.4byte	0x2087
 10213 20ac 17       		.uleb128 0x17
 10214 20ad 1C       		.byte	0x1c
 10215 20ae 20       		.byte	0x20
 10216 20af 0901     		.2byte	0x109
 10217 20b1 11210000 		.4byte	0x2111
 10218 20b5 0A       		.uleb128 0xa
 10219 20b6 120B0000 		.4byte	.LASF534
 10220 20ba 20       		.byte	0x20
 10221 20bb 0D01     		.2byte	0x10d
 10222 20bd 71200000 		.4byte	0x2071
 10223 20c1 00       		.byte	0
 10224 20c2 0A       		.uleb128 0xa
 10225 20c3 7C390000 		.4byte	.LASF535
ARM GAS  /tmp/ccETYwEL.s 			page 182


 10226 20c7 20       		.byte	0x20
 10227 20c8 1301     		.2byte	0x113
 10228 20ca 7C200000 		.4byte	0x207c
 10229 20ce 04       		.byte	0x4
 10230 20cf 0A       		.uleb128 0xa
 10231 20d0 91320000 		.4byte	.LASF536
 10232 20d4 20       		.byte	0x20
 10233 20d5 1701     		.2byte	0x117
 10234 20d7 1D1F0000 		.4byte	0x1f1d
 10235 20db 08       		.byte	0x8
 10236 20dc 0A       		.uleb128 0xa
 10237 20dd 60190000 		.4byte	.LASF537
 10238 20e1 20       		.byte	0x20
 10239 20e2 1B01     		.2byte	0x11b
 10240 20e4 1D1F0000 		.4byte	0x1f1d
 10241 20e8 0C       		.byte	0xc
 10242 20e9 0A       		.uleb128 0xa
 10243 20ea 7D0E0000 		.4byte	.LASF538
 10244 20ee 20       		.byte	0x20
 10245 20ef 1F01     		.2byte	0x11f
 10246 20f1 1D1F0000 		.4byte	0x1f1d
 10247 20f5 10       		.byte	0x10
 10248 20f6 0A       		.uleb128 0xa
 10249 20f7 4F1A0000 		.4byte	.LASF539
 10250 20fb 20       		.byte	0x20
 10251 20fc 2501     		.2byte	0x125
 10252 20fe A1200000 		.4byte	0x20a1
 10253 2102 14       		.byte	0x14
 10254 2103 0A       		.uleb128 0xa
 10255 2104 7C110000 		.4byte	.LASF540
 10256 2108 20       		.byte	0x20
 10257 2109 2B01     		.2byte	0x12b
 10258 210b 1E010000 		.4byte	0x11e
 10259 210f 18       		.byte	0x18
 10260 2110 00       		.byte	0
 10261 2111 18       		.uleb128 0x18
 10262 2112 E9260000 		.4byte	.LASF541
 10263 2116 20       		.byte	0x20
 10264 2117 2C01     		.2byte	0x12c
 10265 2119 AC200000 		.4byte	0x20ac
 10266 211d 06       		.uleb128 0x6
 10267 211e 11210000 		.4byte	0x2111
 10268 2122 0B       		.uleb128 0xb
 10269 2123 04       		.byte	0x4
 10270 2124 1D210000 		.4byte	0x211d
 10271 2128 0B       		.uleb128 0xb
 10272 2129 04       		.byte	0x4
 10273 212a 4B200000 		.4byte	0x204b
 10274 212e 13       		.uleb128 0x13
 10275 212f 13320000 		.4byte	.LASF542
 10276 2133 20       		.byte	0x20
 10277 2134 8601     		.2byte	0x186
 10278 2136 B61E0000 		.4byte	0x1eb6
 10279 213a 1F       		.uleb128 0x1f
 10280 213b 07       		.byte	0x7
 10281 213c 01       		.byte	0x1
 10282 213d 49000000 		.4byte	0x49
ARM GAS  /tmp/ccETYwEL.s 			page 183


 10283 2141 22       		.byte	0x22
 10284 2142 46       		.byte	0x46
 10285 2143 66210000 		.4byte	0x2166
 10286 2147 20       		.uleb128 0x20
 10287 2148 05090000 		.4byte	.LASF543
 10288 214c 00       		.byte	0
 10289 214d 20       		.uleb128 0x20
 10290 214e D5030000 		.4byte	.LASF544
 10291 2152 01       		.byte	0x1
 10292 2153 20       		.uleb128 0x20
 10293 2154 E7370000 		.4byte	.LASF545
 10294 2158 02       		.byte	0x2
 10295 2159 20       		.uleb128 0x20
 10296 215a F0190000 		.4byte	.LASF546
 10297 215e 03       		.byte	0x3
 10298 215f 20       		.uleb128 0x20
 10299 2160 0D1E0000 		.4byte	.LASF547
 10300 2164 04       		.byte	0x4
 10301 2165 00       		.byte	0
 10302 2166 03       		.uleb128 0x3
 10303 2167 54040000 		.4byte	.LASF548
 10304 216b 22       		.byte	0x22
 10305 216c 4C       		.byte	0x4c
 10306 216d 3A210000 		.4byte	0x213a
 10307 2171 18       		.uleb128 0x18
 10308 2172 70340000 		.4byte	.LASF549
 10309 2176 23       		.byte	0x23
 10310 2177 9601     		.2byte	0x196
 10311 2179 7D210000 		.4byte	0x217d
 10312 217d 0C       		.uleb128 0xc
 10313 217e 70340000 		.4byte	.LASF549
 10314 2182 30       		.byte	0x30
 10315 2183 23       		.byte	0x23
 10316 2184 BA01     		.2byte	0x1ba
 10317 2186 00220000 		.4byte	0x2200
 10318 218a 0A       		.uleb128 0xa
 10319 218b 1E220000 		.4byte	.LASF471
 10320 218f 23       		.byte	0x23
 10321 2190 BE01     		.2byte	0x1be
 10322 2192 66210000 		.4byte	0x2166
 10323 2196 00       		.byte	0
 10324 2197 0A       		.uleb128 0xa
 10325 2198 F0360000 		.4byte	.LASF472
 10326 219c 23       		.byte	0x23
 10327 219d C201     		.2byte	0x1c2
 10328 219f 72220000 		.4byte	0x2272
 10329 21a3 04       		.byte	0x4
 10330 21a4 0A       		.uleb128 0xa
 10331 21a5 ED080000 		.4byte	.LASF506
 10332 21a9 23       		.byte	0x23
 10333 21aa C701     		.2byte	0x1c7
 10334 21ac D7020000 		.4byte	0x2d7
 10335 21b0 08       		.byte	0x8
 10336 21b1 0A       		.uleb128 0xa
 10337 21b2 31120000 		.4byte	.LASF505
 10338 21b6 23       		.byte	0x23
 10339 21b7 CD01     		.2byte	0x1cd
ARM GAS  /tmp/ccETYwEL.s 			page 184


 10340 21b9 5B0E0000 		.4byte	0xe5b
 10341 21bd 0C       		.byte	0xc
 10342 21be 09       		.uleb128 0x9
 10343 21bf 73706900 		.ascii	"spi\000"
 10344 21c3 23       		.byte	0x23
 10345 21c4 D601     		.2byte	0x1d6
 10346 21c6 78220000 		.4byte	0x2278
 10347 21ca 1C       		.byte	0x1c
 10348 21cb 0A       		.uleb128 0xa
 10349 21cc 67010000 		.4byte	.LASF510
 10350 21d0 23       		.byte	0x23
 10351 21d1 DA01     		.2byte	0x1da
 10352 21d3 671E0000 		.4byte	0x1e67
 10353 21d7 20       		.byte	0x20
 10354 21d8 0A       		.uleb128 0xa
 10355 21d9 A6020000 		.4byte	.LASF511
 10356 21dd 23       		.byte	0x23
 10357 21de DE01     		.2byte	0x1de
 10358 21e0 671E0000 		.4byte	0x1e67
 10359 21e4 24       		.byte	0x24
 10360 21e5 0A       		.uleb128 0xa
 10361 21e6 FE0A0000 		.4byte	.LASF508
 10362 21ea 23       		.byte	0x23
 10363 21eb E201     		.2byte	0x1e2
 10364 21ed 1E010000 		.4byte	0x11e
 10365 21f1 28       		.byte	0x28
 10366 21f2 0A       		.uleb128 0xa
 10367 21f3 A00B0000 		.4byte	.LASF509
 10368 21f7 23       		.byte	0x23
 10369 21f8 E601     		.2byte	0x1e6
 10370 21fa 1E010000 		.4byte	0x11e
 10371 21fe 2C       		.byte	0x2c
 10372 21ff 00       		.byte	0
 10373 2200 18       		.uleb128 0x18
 10374 2201 C4010000 		.4byte	.LASF550
 10375 2205 23       		.byte	0x23
 10376 2206 9E01     		.2byte	0x19e
 10377 2208 0C220000 		.4byte	0x220c
 10378 220c 0B       		.uleb128 0xb
 10379 220d 04       		.byte	0x4
 10380 220e 12220000 		.4byte	0x2212
 10381 2212 0D       		.uleb128 0xd
 10382 2213 1D220000 		.4byte	0x221d
 10383 2217 0E       		.uleb128 0xe
 10384 2218 1D220000 		.4byte	0x221d
 10385 221c 00       		.byte	0
 10386 221d 0B       		.uleb128 0xb
 10387 221e 04       		.byte	0x4
 10388 221f 71210000 		.4byte	0x2171
 10389 2223 17       		.uleb128 0x17
 10390 2224 0C       		.byte	0xc
 10391 2225 23       		.byte	0x23
 10392 2226 A301     		.2byte	0x1a3
 10393 2228 61220000 		.4byte	0x2261
 10394 222c 0A       		.uleb128 0xa
 10395 222d 130C0000 		.4byte	.LASF551
 10396 2231 23       		.byte	0x23
ARM GAS  /tmp/ccETYwEL.s 			page 185


 10397 2232 A701     		.2byte	0x1a7
 10398 2234 00220000 		.4byte	0x2200
 10399 2238 00       		.byte	0
 10400 2239 0A       		.uleb128 0xa
 10401 223a 06390000 		.4byte	.LASF552
 10402 223e 23       		.byte	0x23
 10403 223f AC01     		.2byte	0x1ac
 10404 2241 8F1B0000 		.4byte	0x1b8f
 10405 2245 04       		.byte	0x4
 10406 2246 0A       		.uleb128 0xa
 10407 2247 9A0B0000 		.4byte	.LASF553
 10408 224b 23       		.byte	0x23
 10409 224c B001     		.2byte	0x1b0
 10410 224e FE000000 		.4byte	0xfe
 10411 2252 08       		.byte	0x8
 10412 2253 09       		.uleb128 0x9
 10413 2254 63723100 		.ascii	"cr1\000"
 10414 2258 23       		.byte	0x23
 10415 2259 B401     		.2byte	0x1b4
 10416 225b FE000000 		.4byte	0xfe
 10417 225f 0A       		.byte	0xa
 10418 2260 00       		.byte	0
 10419 2261 18       		.uleb128 0x18
 10420 2262 80340000 		.4byte	.LASF554
 10421 2266 23       		.byte	0x23
 10422 2267 B501     		.2byte	0x1b5
 10423 2269 23220000 		.4byte	0x2223
 10424 226d 06       		.uleb128 0x6
 10425 226e 61220000 		.4byte	0x2261
 10426 2272 0B       		.uleb128 0xb
 10427 2273 04       		.byte	0x4
 10428 2274 6D220000 		.4byte	0x226d
 10429 2278 0B       		.uleb128 0xb
 10430 2279 04       		.byte	0x4
 10431 227a 07090000 		.4byte	0x907
 10432 227e 13       		.uleb128 0x13
 10433 227f B8240000 		.4byte	.LASF555
 10434 2283 23       		.byte	0x23
 10435 2284 F201     		.2byte	0x1f2
 10436 2286 71210000 		.4byte	0x2171
 10437 228a 1F       		.uleb128 0x1f
 10438 228b 07       		.byte	0x7
 10439 228c 01       		.byte	0x1
 10440 228d 49000000 		.4byte	0x49
 10441 2291 24       		.byte	0x24
 10442 2292 3D       		.byte	0x3d
 10443 2293 AA220000 		.4byte	0x22aa
 10444 2297 20       		.uleb128 0x20
 10445 2298 29110000 		.4byte	.LASF556
 10446 229c 00       		.byte	0
 10447 229d 20       		.uleb128 0x20
 10448 229e D52C0000 		.4byte	.LASF557
 10449 22a2 01       		.byte	0x1
 10450 22a3 20       		.uleb128 0x20
 10451 22a4 F01D0000 		.4byte	.LASF558
 10452 22a8 02       		.byte	0x2
 10453 22a9 00       		.byte	0
ARM GAS  /tmp/ccETYwEL.s 			page 186


 10454 22aa 03       		.uleb128 0x3
 10455 22ab C3240000 		.4byte	.LASF559
 10456 22af 24       		.byte	0x24
 10457 22b0 41       		.byte	0x41
 10458 22b1 8A220000 		.4byte	0x228a
 10459 22b5 1F       		.uleb128 0x1f
 10460 22b6 07       		.byte	0x7
 10461 22b7 01       		.byte	0x1
 10462 22b8 49000000 		.4byte	0x49
 10463 22bc 24       		.byte	0x24
 10464 22bd 46       		.byte	0x46
 10465 22be D5220000 		.4byte	0x22d5
 10466 22c2 20       		.uleb128 0x20
 10467 22c3 CC000000 		.4byte	.LASF560
 10468 22c7 00       		.byte	0
 10469 22c8 20       		.uleb128 0x20
 10470 22c9 1E0E0000 		.4byte	.LASF561
 10471 22cd 01       		.byte	0x1
 10472 22ce 20       		.uleb128 0x20
 10473 22cf AC3C0000 		.4byte	.LASF562
 10474 22d3 02       		.byte	0x2
 10475 22d4 00       		.byte	0
 10476 22d5 03       		.uleb128 0x3
 10477 22d6 EC350000 		.4byte	.LASF563
 10478 22da 24       		.byte	0x24
 10479 22db 4A       		.byte	0x4a
 10480 22dc B5220000 		.4byte	0x22b5
 10481 22e0 1F       		.uleb128 0x1f
 10482 22e1 07       		.byte	0x7
 10483 22e2 01       		.byte	0x1
 10484 22e3 49000000 		.4byte	0x49
 10485 22e7 24       		.byte	0x24
 10486 22e8 4F       		.byte	0x4f
 10487 22e9 00230000 		.4byte	0x2300
 10488 22ed 20       		.uleb128 0x20
 10489 22ee D2220000 		.4byte	.LASF564
 10490 22f2 00       		.byte	0
 10491 22f3 20       		.uleb128 0x20
 10492 22f4 890D0000 		.4byte	.LASF565
 10493 22f8 01       		.byte	0x1
 10494 22f9 20       		.uleb128 0x20
 10495 22fa 68310000 		.4byte	.LASF566
 10496 22fe 02       		.byte	0x2
 10497 22ff 00       		.byte	0
 10498 2300 03       		.uleb128 0x3
 10499 2301 A2350000 		.4byte	.LASF567
 10500 2305 24       		.byte	0x24
 10501 2306 53       		.byte	0x53
 10502 2307 E0220000 		.4byte	0x22e0
 10503 230b 18       		.uleb128 0x18
 10504 230c B92C0000 		.4byte	.LASF568
 10505 2310 25       		.byte	0x25
 10506 2311 B101     		.2byte	0x1b1
 10507 2313 1E010000 		.4byte	0x11e
 10508 2317 18       		.uleb128 0x18
 10509 2318 1C1C0000 		.4byte	.LASF569
 10510 231c 25       		.byte	0x25
ARM GAS  /tmp/ccETYwEL.s 			page 187


 10511 231d B601     		.2byte	0x1b6
 10512 231f 23230000 		.4byte	0x2323
 10513 2323 0C       		.uleb128 0xc
 10514 2324 1C1C0000 		.4byte	.LASF569
 10515 2328 1C       		.byte	0x1c
 10516 2329 25       		.byte	0x25
 10517 232a FE01     		.2byte	0x1fe
 10518 232c A6230000 		.4byte	0x23a6
 10519 2330 0A       		.uleb128 0xa
 10520 2331 1E220000 		.4byte	.LASF471
 10521 2335 25       		.byte	0x25
 10522 2336 0202     		.2byte	0x202
 10523 2338 AA220000 		.4byte	0x22aa
 10524 233c 00       		.byte	0
 10525 233d 0A       		.uleb128 0xa
 10526 233e BC3B0000 		.4byte	.LASF570
 10527 2342 25       		.byte	0x25
 10528 2343 0602     		.2byte	0x206
 10529 2345 D5220000 		.4byte	0x22d5
 10530 2349 01       		.byte	0x1
 10531 234a 0A       		.uleb128 0xa
 10532 234b 0E210000 		.4byte	.LASF571
 10533 234f 25       		.byte	0x25
 10534 2350 0A02     		.2byte	0x20a
 10535 2352 00230000 		.4byte	0x2300
 10536 2356 02       		.byte	0x2
 10537 2357 0A       		.uleb128 0xa
 10538 2358 F0360000 		.4byte	.LASF472
 10539 235c 25       		.byte	0x25
 10540 235d 0E02     		.2byte	0x20e
 10541 235f 9D240000 		.4byte	0x249d
 10542 2363 04       		.byte	0x4
 10543 2364 0A       		.uleb128 0xa
 10544 2365 60280000 		.4byte	.LASF572
 10545 2369 25       		.byte	0x25
 10546 236a 1602     		.2byte	0x216
 10547 236c A3240000 		.4byte	0x24a3
 10548 2370 08       		.byte	0x8
 10549 2371 0A       		.uleb128 0xa
 10550 2372 AA240000 		.4byte	.LASF573
 10551 2376 25       		.byte	0x25
 10552 2377 1A02     		.2byte	0x21a
 10553 2379 1E010000 		.4byte	0x11e
 10554 237d 0C       		.byte	0xc
 10555 237e 0A       		.uleb128 0xa
 10556 237f 67010000 		.4byte	.LASF510
 10557 2383 25       		.byte	0x25
 10558 2384 1E02     		.2byte	0x21e
 10559 2386 671E0000 		.4byte	0x1e67
 10560 238a 10       		.byte	0x10
 10561 238b 0A       		.uleb128 0xa
 10562 238c A6020000 		.4byte	.LASF511
 10563 2390 25       		.byte	0x25
 10564 2391 2202     		.2byte	0x222
 10565 2393 671E0000 		.4byte	0x1e67
 10566 2397 14       		.byte	0x14
 10567 2398 0A       		.uleb128 0xa
ARM GAS  /tmp/ccETYwEL.s 			page 188


 10568 2399 5B0F0000 		.4byte	.LASF574
 10569 239d 25       		.byte	0x25
 10570 239e 2602     		.2byte	0x226
 10571 23a0 09010000 		.4byte	0x109
 10572 23a4 18       		.byte	0x18
 10573 23a5 00       		.byte	0
 10574 23a6 18       		.uleb128 0x18
 10575 23a7 33270000 		.4byte	.LASF575
 10576 23ab 25       		.byte	0x25
 10577 23ac BD01     		.2byte	0x1bd
 10578 23ae B2230000 		.4byte	0x23b2
 10579 23b2 0B       		.uleb128 0xb
 10580 23b3 04       		.byte	0x4
 10581 23b4 B8230000 		.4byte	0x23b8
 10582 23b8 0D       		.uleb128 0xd
 10583 23b9 C3230000 		.4byte	0x23c3
 10584 23bd 0E       		.uleb128 0xe
 10585 23be C3230000 		.4byte	0x23c3
 10586 23c2 00       		.byte	0
 10587 23c3 0B       		.uleb128 0xb
 10588 23c4 04       		.byte	0x4
 10589 23c5 17230000 		.4byte	0x2317
 10590 23c9 18       		.uleb128 0x18
 10591 23ca AF1D0000 		.4byte	.LASF576
 10592 23ce 25       		.byte	0x25
 10593 23cf C501     		.2byte	0x1c5
 10594 23d1 D5230000 		.4byte	0x23d5
 10595 23d5 0B       		.uleb128 0xb
 10596 23d6 04       		.byte	0x4
 10597 23d7 DB230000 		.4byte	0x23db
 10598 23db 0D       		.uleb128 0xd
 10599 23dc EB230000 		.4byte	0x23eb
 10600 23e0 0E       		.uleb128 0xe
 10601 23e1 C3230000 		.4byte	0x23c3
 10602 23e5 0E       		.uleb128 0xe
 10603 23e6 FE000000 		.4byte	0xfe
 10604 23ea 00       		.byte	0
 10605 23eb 18       		.uleb128 0x18
 10606 23ec A5050000 		.4byte	.LASF577
 10607 23f0 25       		.byte	0x25
 10608 23f1 CD01     		.2byte	0x1cd
 10609 23f3 F7230000 		.4byte	0x23f7
 10610 23f7 0B       		.uleb128 0xb
 10611 23f8 04       		.byte	0x4
 10612 23f9 FD230000 		.4byte	0x23fd
 10613 23fd 0D       		.uleb128 0xd
 10614 23fe 0D240000 		.4byte	0x240d
 10615 2402 0E       		.uleb128 0xe
 10616 2403 C3230000 		.4byte	0x23c3
 10617 2407 0E       		.uleb128 0xe
 10618 2408 0B230000 		.4byte	0x230b
 10619 240c 00       		.byte	0
 10620 240d 17       		.uleb128 0x17
 10621 240e 20       		.byte	0x20
 10622 240f 25       		.byte	0x25
 10623 2410 D301     		.2byte	0x1d3
 10624 2412 8C240000 		.4byte	0x248c
ARM GAS  /tmp/ccETYwEL.s 			page 189


 10625 2416 0A       		.uleb128 0xa
 10626 2417 921C0000 		.4byte	.LASF578
 10627 241b 25       		.byte	0x25
 10628 241c D701     		.2byte	0x1d7
 10629 241e A6230000 		.4byte	0x23a6
 10630 2422 00       		.byte	0
 10631 2423 0A       		.uleb128 0xa
 10632 2424 412F0000 		.4byte	.LASF579
 10633 2428 25       		.byte	0x25
 10634 2429 DB01     		.2byte	0x1db
 10635 242b A6230000 		.4byte	0x23a6
 10636 242f 04       		.byte	0x4
 10637 2430 0A       		.uleb128 0xa
 10638 2431 072D0000 		.4byte	.LASF580
 10639 2435 25       		.byte	0x25
 10640 2436 DF01     		.2byte	0x1df
 10641 2438 A6230000 		.4byte	0x23a6
 10642 243c 08       		.byte	0x8
 10643 243d 0A       		.uleb128 0xa
 10644 243e F31C0000 		.4byte	.LASF581
 10645 2442 25       		.byte	0x25
 10646 2443 E301     		.2byte	0x1e3
 10647 2445 C9230000 		.4byte	0x23c9
 10648 2449 0C       		.byte	0xc
 10649 244a 0A       		.uleb128 0xa
 10650 244b C4320000 		.4byte	.LASF582
 10651 244f 25       		.byte	0x25
 10652 2450 E701     		.2byte	0x1e7
 10653 2452 EB230000 		.4byte	0x23eb
 10654 2456 10       		.byte	0x10
 10655 2457 0A       		.uleb128 0xa
 10656 2458 2D2F0000 		.4byte	.LASF583
 10657 245c 25       		.byte	0x25
 10658 245d EC01     		.2byte	0x1ec
 10659 245f 1E010000 		.4byte	0x11e
 10660 2463 14       		.byte	0x14
 10661 2464 09       		.uleb128 0x9
 10662 2465 63723100 		.ascii	"cr1\000"
 10663 2469 25       		.byte	0x25
 10664 246a F001     		.2byte	0x1f0
 10665 246c FE000000 		.4byte	0xfe
 10666 2470 18       		.byte	0x18
 10667 2471 09       		.uleb128 0x9
 10668 2472 63723200 		.ascii	"cr2\000"
 10669 2476 25       		.byte	0x25
 10670 2477 F401     		.2byte	0x1f4
 10671 2479 FE000000 		.4byte	0xfe
 10672 247d 1A       		.byte	0x1a
 10673 247e 09       		.uleb128 0x9
 10674 247f 63723300 		.ascii	"cr3\000"
 10675 2483 25       		.byte	0x25
 10676 2484 F801     		.2byte	0x1f8
 10677 2486 FE000000 		.4byte	0xfe
 10678 248a 1C       		.byte	0x1c
 10679 248b 00       		.byte	0
 10680 248c 18       		.uleb128 0x18
 10681 248d 2C1C0000 		.4byte	.LASF584
ARM GAS  /tmp/ccETYwEL.s 			page 190


 10682 2491 25       		.byte	0x25
 10683 2492 F901     		.2byte	0x1f9
 10684 2494 0D240000 		.4byte	0x240d
 10685 2498 06       		.uleb128 0x6
 10686 2499 8C240000 		.4byte	0x248c
 10687 249d 0B       		.uleb128 0xb
 10688 249e 04       		.byte	0x4
 10689 249f 98240000 		.4byte	0x2498
 10690 24a3 0B       		.uleb128 0xb
 10691 24a4 04       		.byte	0x4
 10692 24a5 9B0A0000 		.4byte	0xa9b
 10693 24a9 13       		.uleb128 0x13
 10694 24aa 9C1C0000 		.4byte	.LASF585
 10695 24ae 25       		.byte	0x25
 10696 24af 3A02     		.2byte	0x23a
 10697 24b1 17230000 		.4byte	0x2317
 10698 24b5 13       		.uleb128 0x13
 10699 24b6 BE1C0000 		.4byte	.LASF586
 10700 24ba 25       		.byte	0x25
 10701 24bb 4602     		.2byte	0x246
 10702 24bd 17230000 		.4byte	0x2317
 10703 24c1 03       		.uleb128 0x3
 10704 24c2 2B1A0000 		.4byte	.LASF587
 10705 24c6 26       		.byte	0x26
 10706 24c7 FA       		.byte	0xfa
 10707 24c8 CC240000 		.4byte	0x24cc
 10708 24cc 10       		.uleb128 0x10
 10709 24cd 2B1A0000 		.4byte	.LASF587
 10710 24d1 8002     		.2byte	0x280
 10711 24d3 27       		.byte	0x27
 10712 24d4 7701     		.2byte	0x177
 10713 24d6 F8250000 		.4byte	0x25f8
 10714 24da 0A       		.uleb128 0xa
 10715 24db 1E220000 		.4byte	.LASF471
 10716 24df 27       		.byte	0x27
 10717 24e0 7B01     		.2byte	0x17b
 10718 24e2 30260000 		.4byte	0x2630
 10719 24e6 00       		.byte	0
 10720 24e7 0A       		.uleb128 0xa
 10721 24e8 F0360000 		.4byte	.LASF472
 10722 24ec 27       		.byte	0x27
 10723 24ed 7F01     		.2byte	0x17f
 10724 24ef 532F0000 		.4byte	0x2f53
 10725 24f3 04       		.byte	0x4
 10726 24f4 0A       		.uleb128 0xa
 10727 24f5 D3340000 		.4byte	.LASF588
 10728 24f9 27       		.byte	0x27
 10729 24fa 8301     		.2byte	0x183
 10730 24fc FE000000 		.4byte	0xfe
 10731 2500 08       		.byte	0x8
 10732 2501 0A       		.uleb128 0xa
 10733 2502 6B390000 		.4byte	.LASF589
 10734 2506 27       		.byte	0x27
 10735 2507 8701     		.2byte	0x187
 10736 2509 FE000000 		.4byte	0xfe
 10737 250d 0A       		.byte	0xa
 10738 250e 09       		.uleb128 0x9
ARM GAS  /tmp/ccETYwEL.s 			page 191


 10739 250f 65706300 		.ascii	"epc\000"
 10740 2513 27       		.byte	0x27
 10741 2514 8B01     		.2byte	0x18b
 10742 2516 592F0000 		.4byte	0x2f59
 10743 251a 0C       		.byte	0xc
 10744 251b 0A       		.uleb128 0xa
 10745 251c 61090000 		.4byte	.LASF590
 10746 2520 27       		.byte	0x27
 10747 2521 9201     		.2byte	0x192
 10748 2523 6F2F0000 		.4byte	0x2f6f
 10749 2527 1C       		.byte	0x1c
 10750 2528 0A       		.uleb128 0xa
 10751 2529 45110000 		.4byte	.LASF591
 10752 252d 27       		.byte	0x27
 10753 252e 9901     		.2byte	0x199
 10754 2530 6F2F0000 		.4byte	0x2f6f
 10755 2534 28       		.byte	0x28
 10756 2535 0A       		.uleb128 0xa
 10757 2536 A00C0000 		.4byte	.LASF592
 10758 253a 27       		.byte	0x27
 10759 253b 9D01     		.2byte	0x19d
 10760 253d 75260000 		.4byte	0x2675
 10761 2541 34       		.byte	0x34
 10762 2542 0A       		.uleb128 0xa
 10763 2543 71060000 		.4byte	.LASF593
 10764 2547 27       		.byte	0x27
 10765 2548 A101     		.2byte	0x1a1
 10766 254a 840F0000 		.4byte	0xf84
 10767 254e 38       		.byte	0x38
 10768 254f 0A       		.uleb128 0xa
 10769 2550 F3230000 		.4byte	.LASF594
 10770 2554 27       		.byte	0x27
 10771 2555 A501     		.2byte	0x1a5
 10772 2557 39010000 		.4byte	0x139
 10773 255b 3C       		.byte	0x3c
 10774 255c 0A       		.uleb128 0xa
 10775 255d 3E300000 		.4byte	.LASF595
 10776 2561 27       		.byte	0x27
 10777 2562 A901     		.2byte	0x1a9
 10778 2564 F5260000 		.4byte	0x26f5
 10779 2568 40       		.byte	0x40
 10780 2569 0A       		.uleb128 0xa
 10781 256a FF080000 		.4byte	.LASF596
 10782 256e 27       		.byte	0x27
 10783 256f AD01     		.2byte	0x1ad
 10784 2571 D5160000 		.4byte	0x16d5
 10785 2575 44       		.byte	0x44
 10786 2576 0A       		.uleb128 0xa
 10787 2577 B6200000 		.4byte	.LASF597
 10788 257b 27       		.byte	0x27
 10789 257c B101     		.2byte	0x1b1
 10790 257e FE000000 		.4byte	0xfe
 10791 2582 4C       		.byte	0x4c
 10792 2583 0A       		.uleb128 0xa
 10793 2584 69210000 		.4byte	.LASF598
 10794 2588 27       		.byte	0x27
 10795 2589 B501     		.2byte	0x1b5
ARM GAS  /tmp/ccETYwEL.s 			page 192


 10796 258b D9000000 		.4byte	0xd9
 10797 258f 4E       		.byte	0x4e
 10798 2590 0A       		.uleb128 0xa
 10799 2591 53290000 		.4byte	.LASF599
 10800 2595 27       		.byte	0x27
 10801 2596 B901     		.2byte	0x1b9
 10802 2598 D9000000 		.4byte	0xd9
 10803 259c 4F       		.byte	0x4f
 10804 259d 09       		.uleb128 0x9
 10805 259e 6F746700 		.ascii	"otg\000"
 10806 25a2 27       		.byte	0x27
 10807 25a3 C101     		.2byte	0x1c1
 10808 25a5 7F2F0000 		.4byte	0x2f7f
 10809 25a9 50       		.byte	0x50
 10810 25aa 0A       		.uleb128 0xa
 10811 25ab 3A140000 		.4byte	.LASF600
 10812 25af 27       		.byte	0x27
 10813 25b0 C501     		.2byte	0x1c5
 10814 25b2 852F0000 		.4byte	0x2f85
 10815 25b6 54       		.byte	0x54
 10816 25b7 0A       		.uleb128 0xa
 10817 25b8 FC310000 		.4byte	.LASF601
 10818 25bc 27       		.byte	0x27
 10819 25bd C901     		.2byte	0x1c9
 10820 25bf 1E010000 		.4byte	0x11e
 10821 25c3 58       		.byte	0x58
 10822 25c4 0A       		.uleb128 0xa
 10823 25c5 8F120000 		.4byte	.LASF602
 10824 25c9 27       		.byte	0x27
 10825 25ca CD01     		.2byte	0x1cd
 10826 25cc 1E010000 		.4byte	0x11e
 10827 25d0 5C       		.byte	0x5c
 10828 25d1 0A       		.uleb128 0xa
 10829 25d2 5F0A0000 		.4byte	.LASF603
 10830 25d6 27       		.byte	0x27
 10831 25d7 D101     		.2byte	0x1d1
 10832 25d9 D7020000 		.4byte	0x2d7
 10833 25dd 60       		.byte	0x60
 10834 25de 09       		.uleb128 0x9
 10835 25df 747200   		.ascii	"tr\000"
 10836 25e2 27       		.byte	0x27
 10837 25e3 D601     		.2byte	0x1d6
 10838 25e5 D7020000 		.4byte	0x2d7
 10839 25e9 64       		.byte	0x64
 10840 25ea 0A       		.uleb128 0xa
 10841 25eb 2C1F0000 		.4byte	.LASF604
 10842 25ef 27       		.byte	0x27
 10843 25f0 DA01     		.2byte	0x1da
 10844 25f2 8B2F0000 		.4byte	0x2f8b
 10845 25f6 68       		.byte	0x68
 10846 25f7 00       		.byte	0
 10847 25f8 03       		.uleb128 0x3
 10848 25f9 EE010000 		.4byte	.LASF605
 10849 25fd 26       		.byte	0x26
 10850 25fe FF       		.byte	0xff
 10851 25ff D9000000 		.4byte	0xd9
 10852 2603 23       		.uleb128 0x23
ARM GAS  /tmp/ccETYwEL.s 			page 193


 10853 2604 07       		.byte	0x7
 10854 2605 01       		.byte	0x1
 10855 2606 49000000 		.4byte	0x49
 10856 260a 26       		.byte	0x26
 10857 260b 0401     		.2byte	0x104
 10858 260d 30260000 		.4byte	0x2630
 10859 2611 20       		.uleb128 0x20
 10860 2612 033B0000 		.4byte	.LASF606
 10861 2616 00       		.byte	0
 10862 2617 20       		.uleb128 0x20
 10863 2618 00000000 		.4byte	.LASF607
 10864 261c 01       		.byte	0x1
 10865 261d 20       		.uleb128 0x20
 10866 261e 861D0000 		.4byte	.LASF608
 10867 2622 02       		.byte	0x2
 10868 2623 20       		.uleb128 0x20
 10869 2624 44260000 		.4byte	.LASF609
 10870 2628 03       		.byte	0x3
 10871 2629 20       		.uleb128 0x20
 10872 262a A70A0000 		.4byte	.LASF610
 10873 262e 04       		.byte	0x4
 10874 262f 00       		.byte	0
 10875 2630 18       		.uleb128 0x18
 10876 2631 48350000 		.4byte	.LASF611
 10877 2635 26       		.byte	0x26
 10878 2636 0A01     		.2byte	0x10a
 10879 2638 03260000 		.4byte	0x2603
 10880 263c 23       		.uleb128 0x23
 10881 263d 07       		.byte	0x7
 10882 263e 01       		.byte	0x1
 10883 263f 49000000 		.4byte	0x49
 10884 2643 26       		.byte	0x26
 10885 2644 1801     		.2byte	0x118
 10886 2646 75260000 		.4byte	0x2675
 10887 264a 20       		.uleb128 0x20
 10888 264b B92F0000 		.4byte	.LASF612
 10889 264f 00       		.byte	0
 10890 2650 20       		.uleb128 0x20
 10891 2651 2A170000 		.4byte	.LASF613
 10892 2655 01       		.byte	0x1
 10893 2656 20       		.uleb128 0x20
 10894 2657 432B0000 		.4byte	.LASF614
 10895 265b 02       		.byte	0x2
 10896 265c 20       		.uleb128 0x20
 10897 265d 36220000 		.4byte	.LASF615
 10898 2661 03       		.byte	0x3
 10899 2662 20       		.uleb128 0x20
 10900 2663 5F200000 		.4byte	.LASF616
 10901 2667 04       		.byte	0x4
 10902 2668 20       		.uleb128 0x20
 10903 2669 40190000 		.4byte	.LASF617
 10904 266d 05       		.byte	0x5
 10905 266e 20       		.uleb128 0x20
 10906 266f B3150000 		.4byte	.LASF618
 10907 2673 06       		.byte	0x6
 10908 2674 00       		.byte	0
 10909 2675 18       		.uleb128 0x18
ARM GAS  /tmp/ccETYwEL.s 			page 194


 10910 2676 D7190000 		.4byte	.LASF619
 10911 267a 26       		.byte	0x26
 10912 267b 2001     		.2byte	0x120
 10913 267d 3C260000 		.4byte	0x263c
 10914 2681 23       		.uleb128 0x23
 10915 2682 07       		.byte	0x7
 10916 2683 01       		.byte	0x1
 10917 2684 49000000 		.4byte	0x49
 10918 2688 26       		.byte	0x26
 10919 2689 2501     		.2byte	0x125
 10920 268b B4260000 		.4byte	0x26b4
 10921 268f 20       		.uleb128 0x20
 10922 2690 2E260000 		.4byte	.LASF620
 10923 2694 00       		.byte	0
 10924 2695 20       		.uleb128 0x20
 10925 2696 99370000 		.4byte	.LASF621
 10926 269a 01       		.byte	0x1
 10927 269b 20       		.uleb128 0x20
 10928 269c C31E0000 		.4byte	.LASF622
 10929 26a0 02       		.byte	0x2
 10930 26a1 20       		.uleb128 0x20
 10931 26a2 931F0000 		.4byte	.LASF623
 10932 26a6 03       		.byte	0x3
 10933 26a7 20       		.uleb128 0x20
 10934 26a8 70380000 		.4byte	.LASF624
 10935 26ac 04       		.byte	0x4
 10936 26ad 20       		.uleb128 0x20
 10937 26ae 581E0000 		.4byte	.LASF625
 10938 26b2 05       		.byte	0x5
 10939 26b3 00       		.byte	0
 10940 26b4 18       		.uleb128 0x18
 10941 26b5 A7270000 		.4byte	.LASF626
 10942 26b9 26       		.byte	0x26
 10943 26ba 2C01     		.2byte	0x12c
 10944 26bc 81260000 		.4byte	0x2681
 10945 26c0 17       		.uleb128 0x17
 10946 26c1 08       		.byte	0x8
 10947 26c2 26       		.byte	0x26
 10948 26c3 3101     		.2byte	0x131
 10949 26c5 E4260000 		.4byte	0x26e4
 10950 26c9 0A       		.uleb128 0xa
 10951 26ca 2C3C0000 		.4byte	.LASF627
 10952 26ce 26       		.byte	0x26
 10953 26cf 3501     		.2byte	0x135
 10954 26d1 39010000 		.4byte	0x139
 10955 26d5 00       		.byte	0
 10956 26d6 0A       		.uleb128 0xa
 10957 26d7 FF050000 		.4byte	.LASF628
 10958 26db 26       		.byte	0x26
 10959 26dc 3901     		.2byte	0x139
 10960 26de A00F0000 		.4byte	0xfa0
 10961 26e2 04       		.byte	0x4
 10962 26e3 00       		.byte	0
 10963 26e4 18       		.uleb128 0x18
 10964 26e5 E5200000 		.4byte	.LASF629
 10965 26e9 26       		.byte	0x26
 10966 26ea 3A01     		.2byte	0x13a
ARM GAS  /tmp/ccETYwEL.s 			page 195


 10967 26ec C0260000 		.4byte	0x26c0
 10968 26f0 06       		.uleb128 0x6
 10969 26f1 E4260000 		.4byte	0x26e4
 10970 26f5 18       		.uleb128 0x18
 10971 26f6 5F3B0000 		.4byte	.LASF630
 10972 26fa 26       		.byte	0x26
 10973 26fb 4201     		.2byte	0x142
 10974 26fd 01270000 		.4byte	0x2701
 10975 2701 0B       		.uleb128 0xb
 10976 2702 04       		.byte	0x4
 10977 2703 07270000 		.4byte	0x2707
 10978 2707 0D       		.uleb128 0xd
 10979 2708 12270000 		.4byte	0x2712
 10980 270c 0E       		.uleb128 0xe
 10981 270d 12270000 		.4byte	0x2712
 10982 2711 00       		.byte	0
 10983 2712 0B       		.uleb128 0xb
 10984 2713 04       		.byte	0x4
 10985 2714 C1240000 		.4byte	0x24c1
 10986 2718 18       		.uleb128 0x18
 10987 2719 79060000 		.4byte	.LASF631
 10988 271d 26       		.byte	0x26
 10989 271e 4B01     		.2byte	0x14b
 10990 2720 24270000 		.4byte	0x2724
 10991 2724 0B       		.uleb128 0xb
 10992 2725 04       		.byte	0x4
 10993 2726 2A270000 		.4byte	0x272a
 10994 272a 0D       		.uleb128 0xd
 10995 272b 3A270000 		.4byte	0x273a
 10996 272f 0E       		.uleb128 0xe
 10997 2730 12270000 		.4byte	0x2712
 10998 2734 0E       		.uleb128 0xe
 10999 2735 F8250000 		.4byte	0x25f8
 11000 2739 00       		.byte	0
 11001 273a 18       		.uleb128 0x18
 11002 273b B30E0000 		.4byte	.LASF632
 11003 273f 26       		.byte	0x26
 11004 2740 5401     		.2byte	0x154
 11005 2742 46270000 		.4byte	0x2746
 11006 2746 0B       		.uleb128 0xb
 11007 2747 04       		.byte	0x4
 11008 2748 4C270000 		.4byte	0x274c
 11009 274c 0D       		.uleb128 0xd
 11010 274d 5C270000 		.4byte	0x275c
 11011 2751 0E       		.uleb128 0xe
 11012 2752 12270000 		.4byte	0x2712
 11013 2756 0E       		.uleb128 0xe
 11014 2757 B4260000 		.4byte	0x26b4
 11015 275b 00       		.byte	0
 11016 275c 18       		.uleb128 0x18
 11017 275d BF250000 		.4byte	.LASF633
 11018 2761 26       		.byte	0x26
 11019 2762 6001     		.2byte	0x160
 11020 2764 68270000 		.4byte	0x2768
 11021 2768 0B       		.uleb128 0xb
 11022 2769 04       		.byte	0x4
 11023 276a 6E270000 		.4byte	0x276e
ARM GAS  /tmp/ccETYwEL.s 			page 196


 11024 276e 26       		.uleb128 0x26
 11025 276f B9160000 		.4byte	0x16b9
 11026 2773 7D270000 		.4byte	0x277d
 11027 2777 0E       		.uleb128 0xe
 11028 2778 12270000 		.4byte	0x2712
 11029 277c 00       		.byte	0
 11030 277d 18       		.uleb128 0x18
 11031 277e CC160000 		.4byte	.LASF634
 11032 2782 26       		.byte	0x26
 11033 2783 6501     		.2byte	0x165
 11034 2785 89270000 		.4byte	0x2789
 11035 2789 0B       		.uleb128 0xb
 11036 278a 04       		.byte	0x4
 11037 278b 8F270000 		.4byte	0x278f
 11038 278f 26       		.uleb128 0x26
 11039 2790 AD270000 		.4byte	0x27ad
 11040 2794 AD270000 		.4byte	0x27ad
 11041 2798 0E       		.uleb128 0xe
 11042 2799 12270000 		.4byte	0x2712
 11043 279d 0E       		.uleb128 0xe
 11044 279e D9000000 		.4byte	0xd9
 11045 27a2 0E       		.uleb128 0xe
 11046 27a3 D9000000 		.4byte	0xd9
 11047 27a7 0E       		.uleb128 0xe
 11048 27a8 FE000000 		.4byte	0xfe
 11049 27ac 00       		.byte	0
 11050 27ad 0B       		.uleb128 0xb
 11051 27ae 04       		.byte	0x4
 11052 27af F0260000 		.4byte	0x26f0
 11053 27b3 15       		.uleb128 0x15
 11054 27b4 20       		.byte	0x20
 11055 27b5 28       		.byte	0x28
 11056 27b6 35       		.byte	0x35
 11057 27b7 1C280000 		.4byte	0x281c
 11058 27bb 08       		.uleb128 0x8
 11059 27bc 7C040000 		.4byte	.LASF635
 11060 27c0 28       		.byte	0x28
 11061 27c1 36       		.byte	0x36
 11062 27c2 29010000 		.4byte	0x129
 11063 27c6 00       		.byte	0
 11064 27c7 08       		.uleb128 0x8
 11065 27c8 F6120000 		.4byte	.LASF636
 11066 27cc 28       		.byte	0x28
 11067 27cd 38       		.byte	0x38
 11068 27ce 29010000 		.4byte	0x129
 11069 27d2 04       		.byte	0x4
 11070 27d3 08       		.uleb128 0x8
 11071 27d4 9D030000 		.4byte	.LASF637
 11072 27d8 28       		.byte	0x28
 11073 27d9 39       		.byte	0x39
 11074 27da 29010000 		.4byte	0x129
 11075 27de 08       		.byte	0x8
 11076 27df 08       		.uleb128 0x8
 11077 27e0 442C0000 		.4byte	.LASF638
 11078 27e4 28       		.byte	0x28
 11079 27e5 3A       		.byte	0x3a
 11080 27e6 29010000 		.4byte	0x129
ARM GAS  /tmp/ccETYwEL.s 			page 197


 11081 27ea 0C       		.byte	0xc
 11082 27eb 08       		.uleb128 0x8
 11083 27ec BC1E0000 		.4byte	.LASF639
 11084 27f0 28       		.byte	0x28
 11085 27f1 3C       		.byte	0x3c
 11086 27f2 29010000 		.4byte	0x129
 11087 27f6 10       		.byte	0x10
 11088 27f7 08       		.uleb128 0x8
 11089 27f8 5C130000 		.4byte	.LASF640
 11090 27fc 28       		.byte	0x28
 11091 27fd 3E       		.byte	0x3e
 11092 27fe 29010000 		.4byte	0x129
 11093 2802 14       		.byte	0x14
 11094 2803 08       		.uleb128 0x8
 11095 2804 81130000 		.4byte	.LASF641
 11096 2808 28       		.byte	0x28
 11097 2809 3F       		.byte	0x3f
 11098 280a 29010000 		.4byte	0x129
 11099 280e 18       		.byte	0x18
 11100 280f 08       		.uleb128 0x8
 11101 2810 CB340000 		.4byte	.LASF642
 11102 2814 28       		.byte	0x28
 11103 2815 40       		.byte	0x40
 11104 2816 29010000 		.4byte	0x129
 11105 281a 1C       		.byte	0x1c
 11106 281b 00       		.byte	0
 11107 281c 03       		.uleb128 0x3
 11108 281d 752B0000 		.4byte	.LASF643
 11109 2821 28       		.byte	0x28
 11110 2822 41       		.byte	0x41
 11111 2823 B3270000 		.4byte	0x27b3
 11112 2827 15       		.uleb128 0x15
 11113 2828 20       		.byte	0x20
 11114 2829 28       		.byte	0x28
 11115 282a 46       		.byte	0x46
 11116 282b 90280000 		.4byte	0x2890
 11117 282f 08       		.uleb128 0x8
 11118 2830 10140000 		.4byte	.LASF644
 11119 2834 28       		.byte	0x28
 11120 2835 47       		.byte	0x47
 11121 2836 29010000 		.4byte	0x129
 11122 283a 00       		.byte	0
 11123 283b 08       		.uleb128 0x8
 11124 283c EF120000 		.4byte	.LASF645
 11125 2840 28       		.byte	0x28
 11126 2841 49       		.byte	0x49
 11127 2842 29010000 		.4byte	0x129
 11128 2846 04       		.byte	0x4
 11129 2847 08       		.uleb128 0x8
 11130 2848 0D330000 		.4byte	.LASF646
 11131 284c 28       		.byte	0x28
 11132 284d 4A       		.byte	0x4a
 11133 284e 29010000 		.4byte	0x129
 11134 2852 08       		.byte	0x8
 11135 2853 08       		.uleb128 0x8
 11136 2854 481A0000 		.4byte	.LASF647
 11137 2858 28       		.byte	0x28
ARM GAS  /tmp/ccETYwEL.s 			page 198


 11138 2859 4C       		.byte	0x4c
 11139 285a 29010000 		.4byte	0x129
 11140 285e 0C       		.byte	0xc
 11141 285f 08       		.uleb128 0x8
 11142 2860 16230000 		.4byte	.LASF648
 11143 2864 28       		.byte	0x28
 11144 2865 4D       		.byte	0x4d
 11145 2866 29010000 		.4byte	0x129
 11146 286a 10       		.byte	0x10
 11147 286b 08       		.uleb128 0x8
 11148 286c 5C130000 		.4byte	.LASF640
 11149 2870 28       		.byte	0x28
 11150 2871 4F       		.byte	0x4f
 11151 2872 29010000 		.4byte	0x129
 11152 2876 14       		.byte	0x14
 11153 2877 08       		.uleb128 0x8
 11154 2878 39090000 		.4byte	.LASF649
 11155 287c 28       		.byte	0x28
 11156 287d 50       		.byte	0x50
 11157 287e 29010000 		.4byte	0x129
 11158 2882 18       		.byte	0x18
 11159 2883 08       		.uleb128 0x8
 11160 2884 F6320000 		.4byte	.LASF650
 11161 2888 28       		.byte	0x28
 11162 2889 52       		.byte	0x52
 11163 288a 29010000 		.4byte	0x129
 11164 288e 1C       		.byte	0x1c
 11165 288f 00       		.byte	0
 11166 2890 03       		.uleb128 0x3
 11167 2891 E60A0000 		.4byte	.LASF651
 11168 2895 28       		.byte	0x28
 11169 2896 53       		.byte	0x53
 11170 2897 27280000 		.4byte	0x2827
 11171 289b 15       		.uleb128 0x15
 11172 289c 20       		.byte	0x20
 11173 289d 28       		.byte	0x28
 11174 289e 58       		.byte	0x58
 11175 289f 04290000 		.4byte	0x2904
 11176 28a3 08       		.uleb128 0x8
 11177 28a4 162C0000 		.4byte	.LASF652
 11178 28a8 28       		.byte	0x28
 11179 28a9 59       		.byte	0x59
 11180 28aa 29010000 		.4byte	0x129
 11181 28ae 00       		.byte	0
 11182 28af 08       		.uleb128 0x8
 11183 28b0 EF120000 		.4byte	.LASF645
 11184 28b4 28       		.byte	0x28
 11185 28b5 5B       		.byte	0x5b
 11186 28b6 29010000 		.4byte	0x129
 11187 28ba 04       		.byte	0x4
 11188 28bb 08       		.uleb128 0x8
 11189 28bc 3F250000 		.4byte	.LASF653
 11190 28c0 28       		.byte	0x28
 11191 28c1 5C       		.byte	0x5c
 11192 28c2 29010000 		.4byte	0x129
 11193 28c6 08       		.byte	0x8
 11194 28c7 08       		.uleb128 0x8
ARM GAS  /tmp/ccETYwEL.s 			page 199


 11195 28c8 481A0000 		.4byte	.LASF647
 11196 28cc 28       		.byte	0x28
 11197 28cd 5E       		.byte	0x5e
 11198 28ce 29010000 		.4byte	0x129
 11199 28d2 0C       		.byte	0xc
 11200 28d3 08       		.uleb128 0x8
 11201 28d4 53350000 		.4byte	.LASF654
 11202 28d8 28       		.byte	0x28
 11203 28d9 5F       		.byte	0x5f
 11204 28da 29010000 		.4byte	0x129
 11205 28de 10       		.byte	0x10
 11206 28df 08       		.uleb128 0x8
 11207 28e0 5C130000 		.4byte	.LASF640
 11208 28e4 28       		.byte	0x28
 11209 28e5 61       		.byte	0x61
 11210 28e6 29010000 		.4byte	0x129
 11211 28ea 14       		.byte	0x14
 11212 28eb 08       		.uleb128 0x8
 11213 28ec 81130000 		.4byte	.LASF641
 11214 28f0 28       		.byte	0x28
 11215 28f1 62       		.byte	0x62
 11216 28f2 29010000 		.4byte	0x129
 11217 28f6 18       		.byte	0x18
 11218 28f7 08       		.uleb128 0x8
 11219 28f8 F6320000 		.4byte	.LASF650
 11220 28fc 28       		.byte	0x28
 11221 28fd 63       		.byte	0x63
 11222 28fe 29010000 		.4byte	0x129
 11223 2902 1C       		.byte	0x1c
 11224 2903 00       		.byte	0
 11225 2904 03       		.uleb128 0x3
 11226 2905 A9230000 		.4byte	.LASF655
 11227 2909 28       		.byte	0x28
 11228 290a 64       		.byte	0x64
 11229 290b 9B280000 		.4byte	0x289b
 11230 290f 27       		.uleb128 0x27
 11231 2910 00100100 		.4byte	0x11000
 11232 2914 28       		.byte	0x28
 11233 2915 69       		.byte	0x69
 11234 2916 EC2B0000 		.4byte	0x2bec
 11235 291a 08       		.uleb128 0x8
 11236 291b 69060000 		.4byte	.LASF656
 11237 291f 28       		.byte	0x28
 11238 2920 6A       		.byte	0x6a
 11239 2921 29010000 		.4byte	0x129
 11240 2925 00       		.byte	0
 11241 2926 08       		.uleb128 0x8
 11242 2927 21110000 		.4byte	.LASF657
 11243 292b 28       		.byte	0x28
 11244 292c 6B       		.byte	0x6b
 11245 292d 29010000 		.4byte	0x129
 11246 2931 04       		.byte	0x4
 11247 2932 08       		.uleb128 0x8
 11248 2933 A6090000 		.4byte	.LASF658
 11249 2937 28       		.byte	0x28
 11250 2938 6C       		.byte	0x6c
 11251 2939 29010000 		.4byte	0x129
ARM GAS  /tmp/ccETYwEL.s 			page 200


 11252 293d 08       		.byte	0x8
 11253 293e 08       		.uleb128 0x8
 11254 293f 883B0000 		.4byte	.LASF659
 11255 2943 28       		.byte	0x28
 11256 2944 6D       		.byte	0x6d
 11257 2945 29010000 		.4byte	0x129
 11258 2949 0C       		.byte	0xc
 11259 294a 08       		.uleb128 0x8
 11260 294b A71D0000 		.4byte	.LASF660
 11261 294f 28       		.byte	0x28
 11262 2950 6E       		.byte	0x6e
 11263 2951 29010000 		.4byte	0x129
 11264 2955 10       		.byte	0x10
 11265 2956 08       		.uleb128 0x8
 11266 2957 610F0000 		.4byte	.LASF661
 11267 295b 28       		.byte	0x28
 11268 295c 6F       		.byte	0x6f
 11269 295d 29010000 		.4byte	0x129
 11270 2961 14       		.byte	0x14
 11271 2962 08       		.uleb128 0x8
 11272 2963 0F290000 		.4byte	.LASF662
 11273 2967 28       		.byte	0x28
 11274 2968 70       		.byte	0x70
 11275 2969 29010000 		.4byte	0x129
 11276 296d 18       		.byte	0x18
 11277 296e 08       		.uleb128 0x8
 11278 296f 520A0000 		.4byte	.LASF663
 11279 2973 28       		.byte	0x28
 11280 2974 71       		.byte	0x71
 11281 2975 29010000 		.4byte	0x129
 11282 2979 1C       		.byte	0x1c
 11283 297a 08       		.uleb128 0x8
 11284 297b 4A0A0000 		.4byte	.LASF664
 11285 297f 28       		.byte	0x28
 11286 2980 73       		.byte	0x73
 11287 2981 29010000 		.4byte	0x129
 11288 2985 20       		.byte	0x20
 11289 2986 08       		.uleb128 0x8
 11290 2987 51300000 		.4byte	.LASF665
 11291 298b 28       		.byte	0x28
 11292 298c 75       		.byte	0x75
 11293 298d 29010000 		.4byte	0x129
 11294 2991 24       		.byte	0x24
 11295 2992 08       		.uleb128 0x8
 11296 2993 20010000 		.4byte	.LASF666
 11297 2997 28       		.byte	0x28
 11298 2998 76       		.byte	0x76
 11299 2999 29010000 		.4byte	0x129
 11300 299d 28       		.byte	0x28
 11301 299e 08       		.uleb128 0x8
 11302 299f 25290000 		.4byte	.LASF667
 11303 29a3 28       		.byte	0x28
 11304 29a4 78       		.byte	0x78
 11305 29a5 29010000 		.4byte	0x129
 11306 29a9 2C       		.byte	0x2c
 11307 29aa 08       		.uleb128 0x8
 11308 29ab 3E150000 		.4byte	.LASF668
ARM GAS  /tmp/ccETYwEL.s 			page 201


 11309 29af 28       		.byte	0x28
 11310 29b0 7A       		.byte	0x7a
 11311 29b1 29010000 		.4byte	0x129
 11312 29b5 30       		.byte	0x30
 11313 29b6 08       		.uleb128 0x8
 11314 29b7 4D150000 		.4byte	.LASF669
 11315 29bb 28       		.byte	0x28
 11316 29bc 7B       		.byte	0x7b
 11317 29bd 29010000 		.4byte	0x129
 11318 29c1 34       		.byte	0x34
 11319 29c2 08       		.uleb128 0x8
 11320 29c3 3E020000 		.4byte	.LASF670
 11321 29c7 28       		.byte	0x28
 11322 29c8 7C       		.byte	0x7c
 11323 29c9 29010000 		.4byte	0x129
 11324 29cd 38       		.byte	0x38
 11325 29ce 16       		.uleb128 0x16
 11326 29cf 43494400 		.ascii	"CID\000"
 11327 29d3 28       		.byte	0x28
 11328 29d4 7D       		.byte	0x7d
 11329 29d5 29010000 		.4byte	0x129
 11330 29d9 3C       		.byte	0x3c
 11331 29da 08       		.uleb128 0x8
 11332 29db 23180000 		.4byte	.LASF671
 11333 29df 28       		.byte	0x28
 11334 29e0 7E       		.byte	0x7e
 11335 29e1 FC2B0000 		.4byte	0x2bfc
 11336 29e5 40       		.byte	0x40
 11337 29e6 22       		.uleb128 0x22
 11338 29e7 25370000 		.4byte	.LASF672
 11339 29eb 28       		.byte	0x28
 11340 29ec 7F       		.byte	0x7f
 11341 29ed 29010000 		.4byte	0x129
 11342 29f1 0001     		.2byte	0x100
 11343 29f3 22       		.uleb128 0x22
 11344 29f4 ED020000 		.4byte	.LASF673
 11345 29f8 28       		.byte	0x28
 11346 29f9 81       		.byte	0x81
 11347 29fa B70A0000 		.4byte	0xab7
 11348 29fe 0401     		.2byte	0x104
 11349 2a00 22       		.uleb128 0x22
 11350 2a01 431F0000 		.4byte	.LASF674
 11351 2a05 28       		.byte	0x28
 11352 2a06 83       		.byte	0x83
 11353 2a07 112C0000 		.4byte	0x2c11
 11354 2a0b 4001     		.2byte	0x140
 11355 2a0d 22       		.uleb128 0x22
 11356 2a0e 8F240000 		.4byte	.LASF675
 11357 2a12 28       		.byte	0x28
 11358 2a13 84       		.byte	0x84
 11359 2a14 29010000 		.4byte	0x129
 11360 2a18 0004     		.2byte	0x400
 11361 2a1a 22       		.uleb128 0x22
 11362 2a1b FE3A0000 		.4byte	.LASF676
 11363 2a1f 28       		.byte	0x28
 11364 2a20 85       		.byte	0x85
 11365 2a21 29010000 		.4byte	0x129
ARM GAS  /tmp/ccETYwEL.s 			page 202


 11366 2a25 0404     		.2byte	0x404
 11367 2a27 22       		.uleb128 0x22
 11368 2a28 AF050000 		.4byte	.LASF677
 11369 2a2c 28       		.byte	0x28
 11370 2a2d 86       		.byte	0x86
 11371 2a2e 29010000 		.4byte	0x129
 11372 2a32 0804     		.2byte	0x408
 11373 2a34 22       		.uleb128 0x22
 11374 2a35 81110000 		.4byte	.LASF678
 11375 2a39 28       		.byte	0x28
 11376 2a3a 88       		.byte	0x88
 11377 2a3b 29010000 		.4byte	0x129
 11378 2a3f 0C04     		.2byte	0x40c
 11379 2a41 22       		.uleb128 0x22
 11380 2a42 19040000 		.4byte	.LASF679
 11381 2a46 28       		.byte	0x28
 11382 2a47 89       		.byte	0x89
 11383 2a48 29010000 		.4byte	0x129
 11384 2a4c 1004     		.2byte	0x410
 11385 2a4e 22       		.uleb128 0x22
 11386 2a4f 5D050000 		.4byte	.LASF680
 11387 2a53 28       		.byte	0x28
 11388 2a54 8B       		.byte	0x8b
 11389 2a55 29010000 		.4byte	0x129
 11390 2a59 1404     		.2byte	0x414
 11391 2a5b 22       		.uleb128 0x22
 11392 2a5c 3C110000 		.4byte	.LASF681
 11393 2a60 28       		.byte	0x28
 11394 2a61 8D       		.byte	0x8d
 11395 2a62 29010000 		.4byte	0x129
 11396 2a66 1804     		.2byte	0x418
 11397 2a68 22       		.uleb128 0x22
 11398 2a69 932E0000 		.4byte	.LASF682
 11399 2a6d 28       		.byte	0x28
 11400 2a6e 8F       		.byte	0x8f
 11401 2a6f 262C0000 		.4byte	0x2c26
 11402 2a73 1C04     		.2byte	0x41c
 11403 2a75 22       		.uleb128 0x22
 11404 2a76 4D030000 		.4byte	.LASF683
 11405 2a7a 28       		.byte	0x28
 11406 2a7b 90       		.byte	0x90
 11407 2a7c 29010000 		.4byte	0x129
 11408 2a80 4004     		.2byte	0x440
 11409 2a82 22       		.uleb128 0x22
 11410 2a83 37310000 		.4byte	.LASF684
 11411 2a87 28       		.byte	0x28
 11412 2a88 92       		.byte	0x92
 11413 2a89 3B2C0000 		.4byte	0x2c3b
 11414 2a8d 4404     		.2byte	0x444
 11415 2a8f 28       		.uleb128 0x28
 11416 2a90 686300   		.ascii	"hc\000"
 11417 2a93 28       		.byte	0x28
 11418 2a94 93       		.byte	0x93
 11419 2a95 402C0000 		.4byte	0x2c40
 11420 2a99 0005     		.2byte	0x500
 11421 2a9b 22       		.uleb128 0x22
 11422 2a9c 96010000 		.4byte	.LASF685
ARM GAS  /tmp/ccETYwEL.s 			page 203


 11423 2aa0 28       		.byte	0x28
 11424 2aa1 94       		.byte	0x94
 11425 2aa2 602C0000 		.4byte	0x2c60
 11426 2aa6 0007     		.2byte	0x700
 11427 2aa8 22       		.uleb128 0x22
 11428 2aa9 D02C0000 		.4byte	.LASF686
 11429 2aad 28       		.byte	0x28
 11430 2aae 95       		.byte	0x95
 11431 2aaf 29010000 		.4byte	0x129
 11432 2ab3 0008     		.2byte	0x800
 11433 2ab5 22       		.uleb128 0x22
 11434 2ab6 5D380000 		.4byte	.LASF687
 11435 2aba 28       		.byte	0x28
 11436 2abb 96       		.byte	0x96
 11437 2abc 29010000 		.4byte	0x129
 11438 2ac0 0408     		.2byte	0x804
 11439 2ac2 22       		.uleb128 0x22
 11440 2ac3 011C0000 		.4byte	.LASF688
 11441 2ac7 28       		.byte	0x28
 11442 2ac8 97       		.byte	0x97
 11443 2ac9 29010000 		.4byte	0x129
 11444 2acd 0808     		.2byte	0x808
 11445 2acf 22       		.uleb128 0x22
 11446 2ad0 52060000 		.4byte	.LASF689
 11447 2ad4 28       		.byte	0x28
 11448 2ad5 98       		.byte	0x98
 11449 2ad6 29010000 		.4byte	0x129
 11450 2ada 0C08     		.2byte	0x80c
 11451 2adc 22       		.uleb128 0x22
 11452 2add 19110000 		.4byte	.LASF690
 11453 2ae1 28       		.byte	0x28
 11454 2ae2 99       		.byte	0x99
 11455 2ae3 29010000 		.4byte	0x129
 11456 2ae7 1008     		.2byte	0x810
 11457 2ae9 22       		.uleb128 0x22
 11458 2aea 64330000 		.4byte	.LASF691
 11459 2aee 28       		.byte	0x28
 11460 2aef 9B       		.byte	0x9b
 11461 2af0 29010000 		.4byte	0x129
 11462 2af4 1408     		.2byte	0x814
 11463 2af6 22       		.uleb128 0x22
 11464 2af7 7A340000 		.4byte	.LASF692
 11465 2afb 28       		.byte	0x28
 11466 2afc 9D       		.byte	0x9d
 11467 2afd 29010000 		.4byte	0x129
 11468 2b01 1808     		.2byte	0x818
 11469 2b03 22       		.uleb128 0x22
 11470 2b04 A12F0000 		.4byte	.LASF693
 11471 2b08 28       		.byte	0x28
 11472 2b09 9F       		.byte	0x9f
 11473 2b0a 29010000 		.4byte	0x129
 11474 2b0e 1C08     		.2byte	0x81c
 11475 2b10 22       		.uleb128 0x22
 11476 2b11 DA070000 		.4byte	.LASF694
 11477 2b15 28       		.byte	0x28
 11478 2b16 A1       		.byte	0xa1
 11479 2b17 29010000 		.4byte	0x129
ARM GAS  /tmp/ccETYwEL.s 			page 204


 11480 2b1b 2008     		.2byte	0x820
 11481 2b1d 22       		.uleb128 0x22
 11482 2b1e BE060000 		.4byte	.LASF695
 11483 2b22 28       		.byte	0x28
 11484 2b23 A2       		.byte	0xa2
 11485 2b24 29010000 		.4byte	0x129
 11486 2b28 2408     		.2byte	0x824
 11487 2b2a 22       		.uleb128 0x22
 11488 2b2b B4010000 		.4byte	.LASF696
 11489 2b2f 28       		.byte	0x28
 11490 2b30 A3       		.byte	0xa3
 11491 2b31 29010000 		.4byte	0x129
 11492 2b35 2808     		.2byte	0x828
 11493 2b37 22       		.uleb128 0x22
 11494 2b38 F4080000 		.4byte	.LASF697
 11495 2b3c 28       		.byte	0x28
 11496 2b3d A5       		.byte	0xa5
 11497 2b3e 29010000 		.4byte	0x129
 11498 2b42 2C08     		.2byte	0x82c
 11499 2b44 22       		.uleb128 0x22
 11500 2b45 8E080000 		.4byte	.LASF698
 11501 2b49 28       		.byte	0x28
 11502 2b4a A7       		.byte	0xa7
 11503 2b4b 29010000 		.4byte	0x129
 11504 2b4f 3008     		.2byte	0x830
 11505 2b51 22       		.uleb128 0x22
 11506 2b52 EC130000 		.4byte	.LASF699
 11507 2b56 28       		.byte	0x28
 11508 2b57 A8       		.byte	0xa8
 11509 2b58 29010000 		.4byte	0x129
 11510 2b5c 3408     		.2byte	0x834
 11511 2b5e 22       		.uleb128 0x22
 11512 2b5f A1080000 		.4byte	.LASF700
 11513 2b63 28       		.byte	0x28
 11514 2b64 AA       		.byte	0xaa
 11515 2b65 29010000 		.4byte	0x129
 11516 2b69 3808     		.2byte	0x838
 11517 2b6b 22       		.uleb128 0x22
 11518 2b6c E4080000 		.4byte	.LASF701
 11519 2b70 28       		.byte	0x28
 11520 2b71 AB       		.byte	0xab
 11521 2b72 29010000 		.4byte	0x129
 11522 2b76 3C08     		.2byte	0x83c
 11523 2b78 22       		.uleb128 0x22
 11524 2b79 B6090000 		.4byte	.LASF702
 11525 2b7d 28       		.byte	0x28
 11526 2b7e AC       		.byte	0xac
 11527 2b7f 752C0000 		.4byte	0x2c75
 11528 2b83 4008     		.2byte	0x840
 11529 2b85 22       		.uleb128 0x22
 11530 2b86 15190000 		.4byte	.LASF703
 11531 2b8a 28       		.byte	0x28
 11532 2b8b AD       		.byte	0xad
 11533 2b8c 752C0000 		.4byte	0x2c75
 11534 2b90 8008     		.2byte	0x880
 11535 2b92 22       		.uleb128 0x22
 11536 2b93 351A0000 		.4byte	.LASF704
ARM GAS  /tmp/ccETYwEL.s 			page 205


 11537 2b97 28       		.byte	0x28
 11538 2b98 AE       		.byte	0xae
 11539 2b99 752C0000 		.4byte	0x2c75
 11540 2b9d C008     		.2byte	0x8c0
 11541 2b9f 28       		.uleb128 0x28
 11542 2ba0 696500   		.ascii	"ie\000"
 11543 2ba3 28       		.byte	0x28
 11544 2ba4 AF       		.byte	0xaf
 11545 2ba5 7A2C0000 		.4byte	0x2c7a
 11546 2ba9 0009     		.2byte	0x900
 11547 2bab 28       		.uleb128 0x28
 11548 2bac 6F6500   		.ascii	"oe\000"
 11549 2baf 28       		.byte	0x28
 11550 2bb0 B0       		.byte	0xb0
 11551 2bb1 8A2C0000 		.4byte	0x2c8a
 11552 2bb5 000B     		.2byte	0xb00
 11553 2bb7 22       		.uleb128 0x22
 11554 2bb8 4B0F0000 		.4byte	.LASF705
 11555 2bbc 28       		.byte	0x28
 11556 2bbd B1       		.byte	0xb1
 11557 2bbe 602C0000 		.4byte	0x2c60
 11558 2bc2 000D     		.2byte	0xd00
 11559 2bc4 22       		.uleb128 0x22
 11560 2bc5 68380000 		.4byte	.LASF706
 11561 2bc9 28       		.byte	0x28
 11562 2bca B2       		.byte	0xb2
 11563 2bcb 29010000 		.4byte	0x129
 11564 2bcf 000E     		.2byte	0xe00
 11565 2bd1 22       		.uleb128 0x22
 11566 2bd2 30160000 		.4byte	.LASF707
 11567 2bd6 28       		.byte	0x28
 11568 2bd7 B4       		.byte	0xb4
 11569 2bd8 AA2C0000 		.4byte	0x2caa
 11570 2bdc 040E     		.2byte	0xe04
 11571 2bde 22       		.uleb128 0x22
 11572 2bdf 0A380000 		.4byte	.LASF708
 11573 2be3 28       		.byte	0x28
 11574 2be4 B5       		.byte	0xb5
 11575 2be5 C62C0000 		.4byte	0x2cc6
 11576 2be9 0010     		.2byte	0x1000
 11577 2beb 00       		.byte	0
 11578 2bec 11       		.uleb128 0x11
 11579 2bed 29010000 		.4byte	0x129
 11580 2bf1 FC2B0000 		.4byte	0x2bfc
 11581 2bf5 12       		.uleb128 0x12
 11582 2bf6 BD000000 		.4byte	0xbd
 11583 2bfa 2F       		.byte	0x2f
 11584 2bfb 00       		.byte	0
 11585 2bfc 05       		.uleb128 0x5
 11586 2bfd EC2B0000 		.4byte	0x2bec
 11587 2c01 11       		.uleb128 0x11
 11588 2c02 29010000 		.4byte	0x129
 11589 2c06 112C0000 		.4byte	0x2c11
 11590 2c0a 12       		.uleb128 0x12
 11591 2c0b BD000000 		.4byte	0xbd
 11592 2c0f AF       		.byte	0xaf
 11593 2c10 00       		.byte	0
ARM GAS  /tmp/ccETYwEL.s 			page 206


 11594 2c11 05       		.uleb128 0x5
 11595 2c12 012C0000 		.4byte	0x2c01
 11596 2c16 11       		.uleb128 0x11
 11597 2c17 29010000 		.4byte	0x129
 11598 2c1b 262C0000 		.4byte	0x2c26
 11599 2c1f 12       		.uleb128 0x12
 11600 2c20 BD000000 		.4byte	0xbd
 11601 2c24 08       		.byte	0x8
 11602 2c25 00       		.byte	0
 11603 2c26 05       		.uleb128 0x5
 11604 2c27 162C0000 		.4byte	0x2c16
 11605 2c2b 11       		.uleb128 0x11
 11606 2c2c 29010000 		.4byte	0x129
 11607 2c30 3B2C0000 		.4byte	0x2c3b
 11608 2c34 12       		.uleb128 0x12
 11609 2c35 BD000000 		.4byte	0xbd
 11610 2c39 2E       		.byte	0x2e
 11611 2c3a 00       		.byte	0
 11612 2c3b 05       		.uleb128 0x5
 11613 2c3c 2B2C0000 		.4byte	0x2c2b
 11614 2c40 11       		.uleb128 0x11
 11615 2c41 1C280000 		.4byte	0x281c
 11616 2c45 502C0000 		.4byte	0x2c50
 11617 2c49 12       		.uleb128 0x12
 11618 2c4a BD000000 		.4byte	0xbd
 11619 2c4e 0F       		.byte	0xf
 11620 2c4f 00       		.byte	0
 11621 2c50 11       		.uleb128 0x11
 11622 2c51 29010000 		.4byte	0x129
 11623 2c55 602C0000 		.4byte	0x2c60
 11624 2c59 12       		.uleb128 0x12
 11625 2c5a BD000000 		.4byte	0xbd
 11626 2c5e 3F       		.byte	0x3f
 11627 2c5f 00       		.byte	0
 11628 2c60 05       		.uleb128 0x5
 11629 2c61 502C0000 		.4byte	0x2c50
 11630 2c65 11       		.uleb128 0x11
 11631 2c66 29010000 		.4byte	0x129
 11632 2c6a 752C0000 		.4byte	0x2c75
 11633 2c6e 12       		.uleb128 0x12
 11634 2c6f BD000000 		.4byte	0xbd
 11635 2c73 0F       		.byte	0xf
 11636 2c74 00       		.byte	0
 11637 2c75 05       		.uleb128 0x5
 11638 2c76 652C0000 		.4byte	0x2c65
 11639 2c7a 11       		.uleb128 0x11
 11640 2c7b 90280000 		.4byte	0x2890
 11641 2c7f 8A2C0000 		.4byte	0x2c8a
 11642 2c83 12       		.uleb128 0x12
 11643 2c84 BD000000 		.4byte	0xbd
 11644 2c88 0F       		.byte	0xf
 11645 2c89 00       		.byte	0
 11646 2c8a 11       		.uleb128 0x11
 11647 2c8b 04290000 		.4byte	0x2904
 11648 2c8f 9A2C0000 		.4byte	0x2c9a
 11649 2c93 12       		.uleb128 0x12
 11650 2c94 BD000000 		.4byte	0xbd
ARM GAS  /tmp/ccETYwEL.s 			page 207


 11651 2c98 0F       		.byte	0xf
 11652 2c99 00       		.byte	0
 11653 2c9a 11       		.uleb128 0x11
 11654 2c9b 29010000 		.4byte	0x129
 11655 2c9f AA2C0000 		.4byte	0x2caa
 11656 2ca3 12       		.uleb128 0x12
 11657 2ca4 BD000000 		.4byte	0xbd
 11658 2ca8 7E       		.byte	0x7e
 11659 2ca9 00       		.byte	0
 11660 2caa 05       		.uleb128 0x5
 11661 2cab 9A2C0000 		.4byte	0x2c9a
 11662 2caf 11       		.uleb128 0x11
 11663 2cb0 29010000 		.4byte	0x129
 11664 2cb4 C62C0000 		.4byte	0x2cc6
 11665 2cb8 12       		.uleb128 0x12
 11666 2cb9 BD000000 		.4byte	0xbd
 11667 2cbd 0F       		.byte	0xf
 11668 2cbe 29       		.uleb128 0x29
 11669 2cbf BD000000 		.4byte	0xbd
 11670 2cc3 FF03     		.2byte	0x3ff
 11671 2cc5 00       		.byte	0
 11672 2cc6 05       		.uleb128 0x5
 11673 2cc7 AF2C0000 		.4byte	0x2caf
 11674 2ccb 03       		.uleb128 0x3
 11675 2ccc 093C0000 		.4byte	.LASF709
 11676 2cd0 28       		.byte	0x28
 11677 2cd1 B6       		.byte	0xb6
 11678 2cd2 0F290000 		.4byte	0x290f
 11679 2cd6 15       		.uleb128 0x15
 11680 2cd7 0C       		.byte	0xc
 11681 2cd8 27       		.byte	0x27
 11682 2cd9 C6       		.byte	0xc6
 11683 2cda 032D0000 		.4byte	0x2d03
 11684 2cde 08       		.uleb128 0x8
 11685 2cdf F10B0000 		.4byte	.LASF710
 11686 2ce3 27       		.byte	0x27
 11687 2ce4 C7       		.byte	0xc7
 11688 2ce5 1E010000 		.4byte	0x11e
 11689 2ce9 00       		.byte	0
 11690 2cea 08       		.uleb128 0x8
 11691 2ceb 2B0F0000 		.4byte	.LASF711
 11692 2cef 27       		.byte	0x27
 11693 2cf0 C8       		.byte	0xc8
 11694 2cf1 1E010000 		.4byte	0x11e
 11695 2cf5 04       		.byte	0x4
 11696 2cf6 08       		.uleb128 0x8
 11697 2cf7 39160000 		.4byte	.LASF712
 11698 2cfb 27       		.byte	0x27
 11699 2cfc C9       		.byte	0xc9
 11700 2cfd 1E010000 		.4byte	0x11e
 11701 2d01 08       		.byte	0x8
 11702 2d02 00       		.byte	0
 11703 2d03 03       		.uleb128 0x3
 11704 2d04 380F0000 		.4byte	.LASF713
 11705 2d08 27       		.byte	0x27
 11706 2d09 CA       		.byte	0xca
 11707 2d0a D62C0000 		.4byte	0x2cd6
ARM GAS  /tmp/ccETYwEL.s 			page 208


 11708 2d0e 06       		.uleb128 0x6
 11709 2d0f 032D0000 		.4byte	0x2d03
 11710 2d13 15       		.uleb128 0x15
 11711 2d14 04       		.byte	0x4
 11712 2d15 27       		.byte	0x27
 11713 2d16 DD       		.byte	0xdd
 11714 2d17 282D0000 		.4byte	0x2d28
 11715 2d1b 08       		.uleb128 0x8
 11716 2d1c 62380000 		.4byte	.LASF714
 11717 2d20 27       		.byte	0x27
 11718 2d21 E1       		.byte	0xe1
 11719 2d22 A00F0000 		.4byte	0xfa0
 11720 2d26 00       		.byte	0
 11721 2d27 00       		.byte	0
 11722 2d28 15       		.uleb128 0x15
 11723 2d29 04       		.byte	0x4
 11724 2d2a 27       		.byte	0x27
 11725 2d2b E3       		.byte	0xe3
 11726 2d2c 3D2D0000 		.4byte	0x2d3d
 11727 2d30 08       		.uleb128 0x8
 11728 2d31 690C0000 		.4byte	.LASF473
 11729 2d35 27       		.byte	0x27
 11730 2d36 E7       		.byte	0xe7
 11731 2d37 3D2D0000 		.4byte	0x2d3d
 11732 2d3b 00       		.byte	0
 11733 2d3c 00       		.byte	0
 11734 2d3d 0B       		.uleb128 0xb
 11735 2d3e 04       		.byte	0x4
 11736 2d3f 950F0000 		.4byte	0xf95
 11737 2d43 1C       		.uleb128 0x1c
 11738 2d44 04       		.byte	0x4
 11739 2d45 27       		.byte	0x27
 11740 2d46 DC       		.byte	0xdc
 11741 2d47 622D0000 		.4byte	0x2d62
 11742 2d4b 2A       		.uleb128 0x2a
 11743 2d4c 96310000 		.4byte	.LASF715
 11744 2d50 27       		.byte	0x27
 11745 2d51 E2       		.byte	0xe2
 11746 2d52 132D0000 		.4byte	0x2d13
 11747 2d56 2A       		.uleb128 0x2a
 11748 2d57 04300000 		.4byte	.LASF716
 11749 2d5b 27       		.byte	0x27
 11750 2d5c E8       		.byte	0xe8
 11751 2d5d 282D0000 		.4byte	0x2d28
 11752 2d61 00       		.byte	0
 11753 2d62 15       		.uleb128 0x15
 11754 2d63 14       		.byte	0x14
 11755 2d64 27       		.byte	0x27
 11756 2d65 CF       		.byte	0xcf
 11757 2d66 A72D0000 		.4byte	0x2da7
 11758 2d6a 08       		.uleb128 0x8
 11759 2d6b 190A0000 		.4byte	.LASF717
 11760 2d6f 27       		.byte	0x27
 11761 2d70 D3       		.byte	0xd3
 11762 2d71 B9160000 		.4byte	0x16b9
 11763 2d75 00       		.byte	0
 11764 2d76 08       		.uleb128 0x8
ARM GAS  /tmp/ccETYwEL.s 			page 209


 11765 2d77 6E1C0000 		.4byte	.LASF718
 11766 2d7b 27       		.byte	0x27
 11767 2d7c D7       		.byte	0xd7
 11768 2d7d 39010000 		.4byte	0x139
 11769 2d81 04       		.byte	0x4
 11770 2d82 08       		.uleb128 0x8
 11771 2d83 93370000 		.4byte	.LASF719
 11772 2d87 27       		.byte	0x27
 11773 2d88 DB       		.byte	0xdb
 11774 2d89 39010000 		.4byte	0x139
 11775 2d8d 08       		.byte	0x8
 11776 2d8e 08       		.uleb128 0x8
 11777 2d8f 120B0000 		.4byte	.LASF534
 11778 2d93 27       		.byte	0x27
 11779 2d94 E9       		.byte	0xe9
 11780 2d95 432D0000 		.4byte	0x2d43
 11781 2d99 0C       		.byte	0xc
 11782 2d9a 08       		.uleb128 0x8
 11783 2d9b 7C160000 		.4byte	.LASF720
 11784 2d9f 27       		.byte	0x27
 11785 2da0 ED       		.byte	0xed
 11786 2da1 39010000 		.4byte	0x139
 11787 2da5 10       		.byte	0x10
 11788 2da6 00       		.byte	0
 11789 2da7 03       		.uleb128 0x3
 11790 2da8 2B180000 		.4byte	.LASF721
 11791 2dac 27       		.byte	0x27
 11792 2dad EE       		.byte	0xee
 11793 2dae 622D0000 		.4byte	0x2d62
 11794 2db2 17       		.uleb128 0x17
 11795 2db3 04       		.byte	0x4
 11796 2db4 27       		.byte	0x27
 11797 2db5 0101     		.2byte	0x101
 11798 2db7 C92D0000 		.4byte	0x2dc9
 11799 2dbb 0A       		.uleb128 0xa
 11800 2dbc 5B0F0000 		.4byte	.LASF574
 11801 2dc0 27       		.byte	0x27
 11802 2dc1 0501     		.2byte	0x105
 11803 2dc3 840F0000 		.4byte	0xf84
 11804 2dc7 00       		.byte	0
 11805 2dc8 00       		.byte	0
 11806 2dc9 17       		.uleb128 0x17
 11807 2dca 04       		.byte	0x4
 11808 2dcb 27       		.byte	0x27
 11809 2dcc 0701     		.2byte	0x107
 11810 2dce E02D0000 		.4byte	0x2de0
 11811 2dd2 0A       		.uleb128 0xa
 11812 2dd3 2F310000 		.4byte	.LASF474
 11813 2dd7 27       		.byte	0x27
 11814 2dd8 0B01     		.2byte	0x10b
 11815 2dda E02D0000 		.4byte	0x2de0
 11816 2dde 00       		.byte	0
 11817 2ddf 00       		.byte	0
 11818 2de0 0B       		.uleb128 0xb
 11819 2de1 04       		.byte	0x4
 11820 2de2 8A0F0000 		.4byte	0xf8a
 11821 2de6 2B       		.uleb128 0x2b
ARM GAS  /tmp/ccETYwEL.s 			page 210


 11822 2de7 04       		.byte	0x4
 11823 2de8 27       		.byte	0x27
 11824 2de9 0001     		.2byte	0x100
 11825 2deb 082E0000 		.4byte	0x2e08
 11826 2def 1D       		.uleb128 0x1d
 11827 2df0 96310000 		.4byte	.LASF715
 11828 2df4 27       		.byte	0x27
 11829 2df5 0601     		.2byte	0x106
 11830 2df7 B22D0000 		.4byte	0x2db2
 11831 2dfb 1D       		.uleb128 0x1d
 11832 2dfc 04300000 		.4byte	.LASF716
 11833 2e00 27       		.byte	0x27
 11834 2e01 0C01     		.2byte	0x10c
 11835 2e03 C92D0000 		.4byte	0x2dc9
 11836 2e07 00       		.byte	0
 11837 2e08 15       		.uleb128 0x15
 11838 2e09 14       		.byte	0x14
 11839 2e0a 27       		.byte	0x27
 11840 2e0b F3       		.byte	0xf3
 11841 2e0c 4F2E0000 		.4byte	0x2e4f
 11842 2e10 08       		.uleb128 0x8
 11843 2e11 84070000 		.4byte	.LASF722
 11844 2e15 27       		.byte	0x27
 11845 2e16 F7       		.byte	0xf7
 11846 2e17 B9160000 		.4byte	0x16b9
 11847 2e1b 00       		.byte	0
 11848 2e1c 08       		.uleb128 0x8
 11849 2e1d A91E0000 		.4byte	.LASF723
 11850 2e21 27       		.byte	0x27
 11851 2e22 FB       		.byte	0xfb
 11852 2e23 39010000 		.4byte	0x139
 11853 2e27 04       		.byte	0x4
 11854 2e28 08       		.uleb128 0x8
 11855 2e29 F80A0000 		.4byte	.LASF724
 11856 2e2d 27       		.byte	0x27
 11857 2e2e FF       		.byte	0xff
 11858 2e2f 39010000 		.4byte	0x139
 11859 2e33 08       		.byte	0x8
 11860 2e34 0A       		.uleb128 0xa
 11861 2e35 120B0000 		.4byte	.LASF534
 11862 2e39 27       		.byte	0x27
 11863 2e3a 0D01     		.2byte	0x10d
 11864 2e3c E62D0000 		.4byte	0x2de6
 11865 2e40 0C       		.byte	0xc
 11866 2e41 0A       		.uleb128 0xa
 11867 2e42 7C160000 		.4byte	.LASF720
 11868 2e46 27       		.byte	0x27
 11869 2e47 1101     		.2byte	0x111
 11870 2e49 39010000 		.4byte	0x139
 11871 2e4d 10       		.byte	0x10
 11872 2e4e 00       		.byte	0
 11873 2e4f 18       		.uleb128 0x18
 11874 2e50 6E2E0000 		.4byte	.LASF725
 11875 2e54 27       		.byte	0x27
 11876 2e55 1201     		.2byte	0x112
 11877 2e57 082E0000 		.4byte	0x2e08
 11878 2e5b 17       		.uleb128 0x17
ARM GAS  /tmp/ccETYwEL.s 			page 211


 11879 2e5c 24       		.byte	0x24
 11880 2e5d 27       		.byte	0x27
 11881 2e5e 1801     		.2byte	0x118
 11882 2e60 E72E0000 		.4byte	0x2ee7
 11883 2e64 0A       		.uleb128 0xa
 11884 2e65 8E230000 		.4byte	.LASF726
 11885 2e69 27       		.byte	0x27
 11886 2e6a 1C01     		.2byte	0x11c
 11887 2e6c 1E010000 		.4byte	0x11e
 11888 2e70 00       		.byte	0
 11889 2e71 0A       		.uleb128 0xa
 11890 2e72 2C0C0000 		.4byte	.LASF727
 11891 2e76 27       		.byte	0x27
 11892 2e77 2701     		.2byte	0x127
 11893 2e79 18270000 		.4byte	0x2718
 11894 2e7d 04       		.byte	0x4
 11895 2e7e 0A       		.uleb128 0xa
 11896 2e7f 23250000 		.4byte	.LASF728
 11897 2e83 27       		.byte	0x27
 11898 2e84 2D01     		.2byte	0x12d
 11899 2e86 18270000 		.4byte	0x2718
 11900 2e8a 08       		.byte	0x8
 11901 2e8b 0A       		.uleb128 0xa
 11902 2e8c 35110000 		.4byte	.LASF729
 11903 2e90 27       		.byte	0x27
 11904 2e91 3301     		.2byte	0x133
 11905 2e93 18270000 		.4byte	0x2718
 11906 2e97 0C       		.byte	0xc
 11907 2e98 0A       		.uleb128 0xa
 11908 2e99 9A3C0000 		.4byte	.LASF730
 11909 2e9d 27       		.byte	0x27
 11910 2e9e 3901     		.2byte	0x139
 11911 2ea0 FE000000 		.4byte	0xfe
 11912 2ea4 10       		.byte	0x10
 11913 2ea5 0A       		.uleb128 0xa
 11914 2ea6 86170000 		.4byte	.LASF731
 11915 2eaa 27       		.byte	0x27
 11916 2eab 3F01     		.2byte	0x13f
 11917 2ead FE000000 		.4byte	0xfe
 11918 2eb1 12       		.byte	0x12
 11919 2eb2 0A       		.uleb128 0xa
 11920 2eb3 F9390000 		.4byte	.LASF732
 11921 2eb7 27       		.byte	0x27
 11922 2eb8 4401     		.2byte	0x144
 11923 2eba E72E0000 		.4byte	0x2ee7
 11924 2ebe 14       		.byte	0x14
 11925 2ebf 0A       		.uleb128 0xa
 11926 2ec0 82140000 		.4byte	.LASF733
 11927 2ec4 27       		.byte	0x27
 11928 2ec5 4901     		.2byte	0x149
 11929 2ec7 ED2E0000 		.4byte	0x2eed
 11930 2ecb 18       		.byte	0x18
 11931 2ecc 0A       		.uleb128 0xa
 11932 2ecd 191B0000 		.4byte	.LASF734
 11933 2ed1 27       		.byte	0x27
 11934 2ed2 5001     		.2byte	0x150
 11935 2ed4 FE000000 		.4byte	0xfe
ARM GAS  /tmp/ccETYwEL.s 			page 212


 11936 2ed8 1C       		.byte	0x1c
 11937 2ed9 0A       		.uleb128 0xa
 11938 2eda DA380000 		.4byte	.LASF735
 11939 2ede 27       		.byte	0x27
 11940 2edf 5601     		.2byte	0x156
 11941 2ee1 840F0000 		.4byte	0xf84
 11942 2ee5 20       		.byte	0x20
 11943 2ee6 00       		.byte	0
 11944 2ee7 0B       		.uleb128 0xb
 11945 2ee8 04       		.byte	0x4
 11946 2ee9 A72D0000 		.4byte	0x2da7
 11947 2eed 0B       		.uleb128 0xb
 11948 2eee 04       		.byte	0x4
 11949 2eef 4F2E0000 		.4byte	0x2e4f
 11950 2ef3 18       		.uleb128 0x18
 11951 2ef4 1D310000 		.4byte	.LASF736
 11952 2ef8 27       		.byte	0x27
 11953 2ef9 5701     		.2byte	0x157
 11954 2efb 5B2E0000 		.4byte	0x2e5b
 11955 2eff 06       		.uleb128 0x6
 11956 2f00 F32E0000 		.4byte	0x2ef3
 11957 2f04 17       		.uleb128 0x17
 11958 2f05 10       		.byte	0x10
 11959 2f06 27       		.byte	0x27
 11960 2f07 5C01     		.2byte	0x15c
 11961 2f09 422F0000 		.4byte	0x2f42
 11962 2f0d 0A       		.uleb128 0xa
 11963 2f0e 5B060000 		.4byte	.LASF737
 11964 2f12 27       		.byte	0x27
 11965 2f13 6101     		.2byte	0x161
 11966 2f15 3A270000 		.4byte	0x273a
 11967 2f19 00       		.byte	0
 11968 2f1a 0A       		.uleb128 0xa
 11969 2f1b AB370000 		.4byte	.LASF738
 11970 2f1f 27       		.byte	0x27
 11971 2f20 6601     		.2byte	0x166
 11972 2f22 7D270000 		.4byte	0x277d
 11973 2f26 04       		.byte	0x4
 11974 2f27 0A       		.uleb128 0xa
 11975 2f28 431C0000 		.4byte	.LASF739
 11976 2f2c 27       		.byte	0x27
 11977 2f2d 6C01     		.2byte	0x16c
 11978 2f2f 5C270000 		.4byte	0x275c
 11979 2f33 08       		.byte	0x8
 11980 2f34 0A       		.uleb128 0xa
 11981 2f35 AC020000 		.4byte	.LASF740
 11982 2f39 27       		.byte	0x27
 11983 2f3a 7001     		.2byte	0x170
 11984 2f3c F5260000 		.4byte	0x26f5
 11985 2f40 0C       		.byte	0xc
 11986 2f41 00       		.byte	0
 11987 2f42 18       		.uleb128 0x18
 11988 2f43 3E1A0000 		.4byte	.LASF741
 11989 2f47 27       		.byte	0x27
 11990 2f48 7201     		.2byte	0x172
 11991 2f4a 042F0000 		.4byte	0x2f04
 11992 2f4e 06       		.uleb128 0x6
ARM GAS  /tmp/ccETYwEL.s 			page 213


 11993 2f4f 422F0000 		.4byte	0x2f42
 11994 2f53 0B       		.uleb128 0xb
 11995 2f54 04       		.byte	0x4
 11996 2f55 4E2F0000 		.4byte	0x2f4e
 11997 2f59 11       		.uleb128 0x11
 11998 2f5a 692F0000 		.4byte	0x2f69
 11999 2f5e 692F0000 		.4byte	0x2f69
 12000 2f62 12       		.uleb128 0x12
 12001 2f63 BD000000 		.4byte	0xbd
 12002 2f67 03       		.byte	0x3
 12003 2f68 00       		.byte	0
 12004 2f69 0B       		.uleb128 0xb
 12005 2f6a 04       		.byte	0x4
 12006 2f6b FF2E0000 		.4byte	0x2eff
 12007 2f6f 11       		.uleb128 0x11
 12008 2f70 BF030000 		.4byte	0x3bf
 12009 2f74 7F2F0000 		.4byte	0x2f7f
 12010 2f78 12       		.uleb128 0x12
 12011 2f79 BD000000 		.4byte	0xbd
 12012 2f7d 02       		.byte	0x2
 12013 2f7e 00       		.byte	0
 12014 2f7f 0B       		.uleb128 0xb
 12015 2f80 04       		.byte	0x4
 12016 2f81 CB2C0000 		.4byte	0x2ccb
 12017 2f85 0B       		.uleb128 0xb
 12018 2f86 04       		.byte	0x4
 12019 2f87 0E2D0000 		.4byte	0x2d0e
 12020 2f8b 11       		.uleb128 0x11
 12021 2f8c C70A0000 		.4byte	0xac7
 12022 2f90 9B2F0000 		.4byte	0x2f9b
 12023 2f94 12       		.uleb128 0x12
 12024 2f95 BD000000 		.4byte	0xbd
 12025 2f99 42       		.byte	0x42
 12026 2f9a 00       		.byte	0
 12027 2f9b 13       		.uleb128 0x13
 12028 2f9c 29010000 		.4byte	.LASF742
 12029 2fa0 27       		.byte	0x27
 12030 2fa1 0602     		.2byte	0x206
 12031 2fa3 C1240000 		.4byte	0x24c1
 12032 2fa7 03       		.uleb128 0x3
 12033 2fa8 AE090000 		.4byte	.LASF743
 12034 2fac 29       		.byte	0x29
 12035 2fad 22       		.byte	0x22
 12036 2fae B22F0000 		.4byte	0x2fb2
 12037 2fb2 0B       		.uleb128 0xb
 12038 2fb3 04       		.byte	0x4
 12039 2fb4 B82F0000 		.4byte	0x2fb8
 12040 2fb8 2C       		.uleb128 0x2c
 12041 2fb9 3B070000 		.4byte	.LASF849
 12042 2fbd 03       		.uleb128 0x3
 12043 2fbe DA120000 		.4byte	.LASF744
 12044 2fc2 2A       		.byte	0x2a
 12045 2fc3 2C       		.byte	0x2c
 12046 2fc4 7F000000 		.4byte	0x7f
 12047 2fc8 03       		.uleb128 0x3
 12048 2fc9 5F2D0000 		.4byte	.LASF745
 12049 2fcd 2A       		.byte	0x2a
ARM GAS  /tmp/ccETYwEL.s 			page 214


 12050 2fce 72       		.byte	0x72
 12051 2fcf 7F000000 		.4byte	0x7f
 12052 2fd3 18       		.uleb128 0x18
 12053 2fd4 DF150000 		.4byte	.LASF746
 12054 2fd8 07       		.byte	0x7
 12055 2fd9 6501     		.2byte	0x165
 12056 2fdb BD000000 		.4byte	0xbd
 12057 2fdf 1C       		.uleb128 0x1c
 12058 2fe0 04       		.byte	0x4
 12059 2fe1 2A       		.byte	0x2a
 12060 2fe2 A6       		.byte	0xa6
 12061 2fe3 FE2F0000 		.4byte	0x2ffe
 12062 2fe7 2A       		.uleb128 0x2a
 12063 2fe8 DF220000 		.4byte	.LASF747
 12064 2fec 2A       		.byte	0x2a
 12065 2fed A8       		.byte	0xa8
 12066 2fee D32F0000 		.4byte	0x2fd3
 12067 2ff2 2A       		.uleb128 0x2a
 12068 2ff3 46150000 		.4byte	.LASF748
 12069 2ff7 2A       		.byte	0x2a
 12070 2ff8 A9       		.byte	0xa9
 12071 2ff9 FE2F0000 		.4byte	0x2ffe
 12072 2ffd 00       		.byte	0
 12073 2ffe 11       		.uleb128 0x11
 12074 2fff 49000000 		.4byte	0x49
 12075 3003 0E300000 		.4byte	0x300e
 12076 3007 12       		.uleb128 0x12
 12077 3008 BD000000 		.4byte	0xbd
 12078 300c 03       		.byte	0x3
 12079 300d 00       		.byte	0
 12080 300e 15       		.uleb128 0x15
 12081 300f 08       		.byte	0x8
 12082 3010 2A       		.byte	0x2a
 12083 3011 A3       		.byte	0xa3
 12084 3012 2F300000 		.4byte	0x302f
 12085 3016 08       		.uleb128 0x8
 12086 3017 2F130000 		.4byte	.LASF749
 12087 301b 2A       		.byte	0x2a
 12088 301c A5       		.byte	0xa5
 12089 301d B1000000 		.4byte	0xb1
 12090 3021 00       		.byte	0
 12091 3022 08       		.uleb128 0x8
 12092 3023 E5220000 		.4byte	.LASF750
 12093 3027 2A       		.byte	0x2a
 12094 3028 AA       		.byte	0xaa
 12095 3029 DF2F0000 		.4byte	0x2fdf
 12096 302d 04       		.byte	0x4
 12097 302e 00       		.byte	0
 12098 302f 03       		.uleb128 0x3
 12099 3030 AD2E0000 		.4byte	.LASF751
 12100 3034 2A       		.byte	0x2a
 12101 3035 AB       		.byte	0xab
 12102 3036 0E300000 		.4byte	0x300e
 12103 303a 03       		.uleb128 0x3
 12104 303b B0350000 		.4byte	.LASF752
 12105 303f 2A       		.byte	0x2a
 12106 3040 AF       		.byte	0xaf
ARM GAS  /tmp/ccETYwEL.s 			page 215


 12107 3041 A72F0000 		.4byte	0x2fa7
 12108 3045 0B       		.uleb128 0xb
 12109 3046 04       		.byte	0x4
 12110 3047 220D0000 		.4byte	0xd22
 12111 304b 03       		.uleb128 0x3
 12112 304c FB1D0000 		.4byte	.LASF753
 12113 3050 2B       		.byte	0x2b
 12114 3051 16       		.byte	0x16
 12115 3052 91000000 		.4byte	0x91
 12116 3056 07       		.uleb128 0x7
 12117 3057 E0280000 		.4byte	.LASF754
 12118 305b 18       		.byte	0x18
 12119 305c 2B       		.byte	0x2b
 12120 305d 2F       		.byte	0x2f
 12121 305e A9300000 		.4byte	0x30a9
 12122 3062 08       		.uleb128 0x8
 12123 3063 01190000 		.4byte	.LASF755
 12124 3067 2B       		.byte	0x2b
 12125 3068 31       		.byte	0x31
 12126 3069 A9300000 		.4byte	0x30a9
 12127 306d 00       		.byte	0
 12128 306e 16       		.uleb128 0x16
 12129 306f 5F6B00   		.ascii	"_k\000"
 12130 3072 2B       		.byte	0x2b
 12131 3073 32       		.byte	0x32
 12132 3074 B1000000 		.4byte	0xb1
 12133 3078 04       		.byte	0x4
 12134 3079 08       		.uleb128 0x8
 12135 307a B7250000 		.4byte	.LASF756
 12136 307e 2B       		.byte	0x2b
 12137 307f 32       		.byte	0x32
 12138 3080 B1000000 		.4byte	0xb1
 12139 3084 08       		.byte	0x8
 12140 3085 08       		.uleb128 0x8
 12141 3086 E7250000 		.4byte	.LASF757
 12142 308a 2B       		.byte	0x2b
 12143 308b 32       		.byte	0x32
 12144 308c B1000000 		.4byte	0xb1
 12145 3090 0C       		.byte	0xc
 12146 3091 08       		.uleb128 0x8
 12147 3092 BA0C0000 		.4byte	.LASF758
 12148 3096 2B       		.byte	0x2b
 12149 3097 32       		.byte	0x32
 12150 3098 B1000000 		.4byte	0xb1
 12151 309c 10       		.byte	0x10
 12152 309d 16       		.uleb128 0x16
 12153 309e 5F7800   		.ascii	"_x\000"
 12154 30a1 2B       		.byte	0x2b
 12155 30a2 33       		.byte	0x33
 12156 30a3 AF300000 		.4byte	0x30af
 12157 30a7 14       		.byte	0x14
 12158 30a8 00       		.byte	0
 12159 30a9 0B       		.uleb128 0xb
 12160 30aa 04       		.byte	0x4
 12161 30ab 56300000 		.4byte	0x3056
 12162 30af 11       		.uleb128 0x11
 12163 30b0 4B300000 		.4byte	0x304b
ARM GAS  /tmp/ccETYwEL.s 			page 216


 12164 30b4 BF300000 		.4byte	0x30bf
 12165 30b8 12       		.uleb128 0x12
 12166 30b9 BD000000 		.4byte	0xbd
 12167 30bd 00       		.byte	0
 12168 30be 00       		.byte	0
 12169 30bf 07       		.uleb128 0x7
 12170 30c0 922A0000 		.4byte	.LASF759
 12171 30c4 24       		.byte	0x24
 12172 30c5 2B       		.byte	0x2b
 12173 30c6 37       		.byte	0x37
 12174 30c7 38310000 		.4byte	0x3138
 12175 30cb 08       		.uleb128 0x8
 12176 30cc 10110000 		.4byte	.LASF760
 12177 30d0 2B       		.byte	0x2b
 12178 30d1 39       		.byte	0x39
 12179 30d2 B1000000 		.4byte	0xb1
 12180 30d6 00       		.byte	0
 12181 30d7 08       		.uleb128 0x8
 12182 30d8 A00E0000 		.4byte	.LASF761
 12183 30dc 2B       		.byte	0x2b
 12184 30dd 3A       		.byte	0x3a
 12185 30de B1000000 		.4byte	0xb1
 12186 30e2 04       		.byte	0x4
 12187 30e3 08       		.uleb128 0x8
 12188 30e4 81150000 		.4byte	.LASF762
 12189 30e8 2B       		.byte	0x2b
 12190 30e9 3B       		.byte	0x3b
 12191 30ea B1000000 		.4byte	0xb1
 12192 30ee 08       		.byte	0x8
 12193 30ef 08       		.uleb128 0x8
 12194 30f0 64170000 		.4byte	.LASF763
 12195 30f4 2B       		.byte	0x2b
 12196 30f5 3C       		.byte	0x3c
 12197 30f6 B1000000 		.4byte	0xb1
 12198 30fa 0C       		.byte	0xc
 12199 30fb 08       		.uleb128 0x8
 12200 30fc F6010000 		.4byte	.LASF764
 12201 3100 2B       		.byte	0x2b
 12202 3101 3D       		.byte	0x3d
 12203 3102 B1000000 		.4byte	0xb1
 12204 3106 10       		.byte	0x10
 12205 3107 08       		.uleb128 0x8
 12206 3108 DD0E0000 		.4byte	.LASF765
 12207 310c 2B       		.byte	0x2b
 12208 310d 3E       		.byte	0x3e
 12209 310e B1000000 		.4byte	0xb1
 12210 3112 14       		.byte	0x14
 12211 3113 08       		.uleb128 0x8
 12212 3114 C20B0000 		.4byte	.LASF766
 12213 3118 2B       		.byte	0x2b
 12214 3119 3F       		.byte	0x3f
 12215 311a B1000000 		.4byte	0xb1
 12216 311e 18       		.byte	0x18
 12217 311f 08       		.uleb128 0x8
 12218 3120 57090000 		.4byte	.LASF767
 12219 3124 2B       		.byte	0x2b
 12220 3125 40       		.byte	0x40
ARM GAS  /tmp/ccETYwEL.s 			page 217


 12221 3126 B1000000 		.4byte	0xb1
 12222 312a 1C       		.byte	0x1c
 12223 312b 08       		.uleb128 0x8
 12224 312c DB0B0000 		.4byte	.LASF768
 12225 3130 2B       		.byte	0x2b
 12226 3131 41       		.byte	0x41
 12227 3132 B1000000 		.4byte	0xb1
 12228 3136 20       		.byte	0x20
 12229 3137 00       		.byte	0
 12230 3138 2D       		.uleb128 0x2d
 12231 3139 681B0000 		.4byte	.LASF769
 12232 313d 0801     		.2byte	0x108
 12233 313f 2B       		.byte	0x2b
 12234 3140 4A       		.byte	0x4a
 12235 3141 78310000 		.4byte	0x3178
 12236 3145 08       		.uleb128 0x8
 12237 3146 B7170000 		.4byte	.LASF770
 12238 314a 2B       		.byte	0x2b
 12239 314b 4B       		.byte	0x4b
 12240 314c 78310000 		.4byte	0x3178
 12241 3150 00       		.byte	0
 12242 3151 08       		.uleb128 0x8
 12243 3152 83040000 		.4byte	.LASF771
 12244 3156 2B       		.byte	0x2b
 12245 3157 4C       		.byte	0x4c
 12246 3158 78310000 		.4byte	0x3178
 12247 315c 80       		.byte	0x80
 12248 315d 22       		.uleb128 0x22
 12249 315e FF010000 		.4byte	.LASF772
 12250 3162 2B       		.byte	0x2b
 12251 3163 4E       		.byte	0x4e
 12252 3164 4B300000 		.4byte	0x304b
 12253 3168 0001     		.2byte	0x100
 12254 316a 22       		.uleb128 0x22
 12255 316b CF2F0000 		.4byte	.LASF773
 12256 316f 2B       		.byte	0x2b
 12257 3170 51       		.byte	0x51
 12258 3171 4B300000 		.4byte	0x304b
 12259 3175 0401     		.2byte	0x104
 12260 3177 00       		.byte	0
 12261 3178 11       		.uleb128 0x11
 12262 3179 BF030000 		.4byte	0x3bf
 12263 317d 88310000 		.4byte	0x3188
 12264 3181 12       		.uleb128 0x12
 12265 3182 BD000000 		.4byte	0xbd
 12266 3186 1F       		.byte	0x1f
 12267 3187 00       		.byte	0
 12268 3188 2D       		.uleb128 0x2d
 12269 3189 76010000 		.4byte	.LASF774
 12270 318d 9001     		.2byte	0x190
 12271 318f 2B       		.byte	0x2b
 12272 3190 5D       		.byte	0x5d
 12273 3191 C6310000 		.4byte	0x31c6
 12274 3195 08       		.uleb128 0x8
 12275 3196 01190000 		.4byte	.LASF755
 12276 319a 2B       		.byte	0x2b
 12277 319b 5E       		.byte	0x5e
ARM GAS  /tmp/ccETYwEL.s 			page 218


 12278 319c C6310000 		.4byte	0x31c6
 12279 31a0 00       		.byte	0
 12280 31a1 08       		.uleb128 0x8
 12281 31a2 39020000 		.4byte	.LASF775
 12282 31a6 2B       		.byte	0x2b
 12283 31a7 5F       		.byte	0x5f
 12284 31a8 B1000000 		.4byte	0xb1
 12285 31ac 04       		.byte	0x4
 12286 31ad 08       		.uleb128 0x8
 12287 31ae E62D0000 		.4byte	.LASF776
 12288 31b2 2B       		.byte	0x2b
 12289 31b3 61       		.byte	0x61
 12290 31b4 CC310000 		.4byte	0x31cc
 12291 31b8 08       		.byte	0x8
 12292 31b9 08       		.uleb128 0x8
 12293 31ba 681B0000 		.4byte	.LASF769
 12294 31be 2B       		.byte	0x2b
 12295 31bf 62       		.byte	0x62
 12296 31c0 38310000 		.4byte	0x3138
 12297 31c4 88       		.byte	0x88
 12298 31c5 00       		.byte	0
 12299 31c6 0B       		.uleb128 0xb
 12300 31c7 04       		.byte	0x4
 12301 31c8 88310000 		.4byte	0x3188
 12302 31cc 11       		.uleb128 0x11
 12303 31cd DC310000 		.4byte	0x31dc
 12304 31d1 DC310000 		.4byte	0x31dc
 12305 31d5 12       		.uleb128 0x12
 12306 31d6 BD000000 		.4byte	0xbd
 12307 31da 1F       		.byte	0x1f
 12308 31db 00       		.byte	0
 12309 31dc 0B       		.uleb128 0xb
 12310 31dd 04       		.byte	0x4
 12311 31de E2310000 		.4byte	0x31e2
 12312 31e2 2E       		.uleb128 0x2e
 12313 31e3 07       		.uleb128 0x7
 12314 31e4 2F220000 		.4byte	.LASF777
 12315 31e8 08       		.byte	0x8
 12316 31e9 2B       		.byte	0x2b
 12317 31ea 75       		.byte	0x75
 12318 31eb 08320000 		.4byte	0x3208
 12319 31ef 08       		.uleb128 0x8
 12320 31f0 FB1B0000 		.4byte	.LASF778
 12321 31f4 2B       		.byte	0x2b
 12322 31f5 76       		.byte	0x76
 12323 31f6 08320000 		.4byte	0x3208
 12324 31fa 00       		.byte	0
 12325 31fb 08       		.uleb128 0x8
 12326 31fc C00D0000 		.4byte	.LASF779
 12327 3200 2B       		.byte	0x2b
 12328 3201 77       		.byte	0x77
 12329 3202 B1000000 		.4byte	0xb1
 12330 3206 04       		.byte	0x4
 12331 3207 00       		.byte	0
 12332 3208 0B       		.uleb128 0xb
 12333 3209 04       		.byte	0x4
 12334 320a 49000000 		.4byte	0x49
ARM GAS  /tmp/ccETYwEL.s 			page 219


 12335 320e 07       		.uleb128 0x7
 12336 320f C42D0000 		.4byte	.LASF780
 12337 3213 68       		.byte	0x68
 12338 3214 2B       		.byte	0x2b
 12339 3215 B5       		.byte	0xb5
 12340 3216 38330000 		.4byte	0x3338
 12341 321a 16       		.uleb128 0x16
 12342 321b 5F7000   		.ascii	"_p\000"
 12343 321e 2B       		.byte	0x2b
 12344 321f B6       		.byte	0xb6
 12345 3220 08320000 		.4byte	0x3208
 12346 3224 00       		.byte	0
 12347 3225 16       		.uleb128 0x16
 12348 3226 5F7200   		.ascii	"_r\000"
 12349 3229 2B       		.byte	0x2b
 12350 322a B7       		.byte	0xb7
 12351 322b B1000000 		.4byte	0xb1
 12352 322f 04       		.byte	0x4
 12353 3230 16       		.uleb128 0x16
 12354 3231 5F7700   		.ascii	"_w\000"
 12355 3234 2B       		.byte	0x2b
 12356 3235 B8       		.byte	0xb8
 12357 3236 B1000000 		.4byte	0xb1
 12358 323a 08       		.byte	0x8
 12359 323b 08       		.uleb128 0x8
 12360 323c C7020000 		.4byte	.LASF781
 12361 3240 2B       		.byte	0x2b
 12362 3241 B9       		.byte	0xb9
 12363 3242 5B000000 		.4byte	0x5b
 12364 3246 0C       		.byte	0xc
 12365 3247 08       		.uleb128 0x8
 12366 3248 672D0000 		.4byte	.LASF782
 12367 324c 2B       		.byte	0x2b
 12368 324d BA       		.byte	0xba
 12369 324e 5B000000 		.4byte	0x5b
 12370 3252 0E       		.byte	0xe
 12371 3253 16       		.uleb128 0x16
 12372 3254 5F626600 		.ascii	"_bf\000"
 12373 3258 2B       		.byte	0x2b
 12374 3259 BB       		.byte	0xbb
 12375 325a E3310000 		.4byte	0x31e3
 12376 325e 10       		.byte	0x10
 12377 325f 08       		.uleb128 0x8
 12378 3260 F6050000 		.4byte	.LASF783
 12379 3264 2B       		.byte	0x2b
 12380 3265 BC       		.byte	0xbc
 12381 3266 B1000000 		.4byte	0xb1
 12382 326a 18       		.byte	0x18
 12383 326b 08       		.uleb128 0x8
 12384 326c 90190000 		.4byte	.LASF784
 12385 3270 2B       		.byte	0x2b
 12386 3271 C3       		.byte	0xc3
 12387 3272 BF030000 		.4byte	0x3bf
 12388 3276 1C       		.byte	0x1c
 12389 3277 08       		.uleb128 0x8
 12390 3278 89130000 		.4byte	.LASF785
 12391 327c 2B       		.byte	0x2b
ARM GAS  /tmp/ccETYwEL.s 			page 220


 12392 327d C5       		.byte	0xc5
 12393 327e 93340000 		.4byte	0x3493
 12394 3282 20       		.byte	0x20
 12395 3283 08       		.uleb128 0x8
 12396 3284 720F0000 		.4byte	.LASF786
 12397 3288 2B       		.byte	0x2b
 12398 3289 C7       		.byte	0xc7
 12399 328a B7340000 		.4byte	0x34b7
 12400 328e 24       		.byte	0x24
 12401 328f 08       		.uleb128 0x8
 12402 3290 8D1F0000 		.4byte	.LASF787
 12403 3294 2B       		.byte	0x2b
 12404 3295 CA       		.byte	0xca
 12405 3296 DB340000 		.4byte	0x34db
 12406 329a 28       		.byte	0x28
 12407 329b 08       		.uleb128 0x8
 12408 329c B2270000 		.4byte	.LASF788
 12409 32a0 2B       		.byte	0x2b
 12410 32a1 CB       		.byte	0xcb
 12411 32a2 F5340000 		.4byte	0x34f5
 12412 32a6 2C       		.byte	0x2c
 12413 32a7 16       		.uleb128 0x16
 12414 32a8 5F756200 		.ascii	"_ub\000"
 12415 32ac 2B       		.byte	0x2b
 12416 32ad CE       		.byte	0xce
 12417 32ae E3310000 		.4byte	0x31e3
 12418 32b2 30       		.byte	0x30
 12419 32b3 16       		.uleb128 0x16
 12420 32b4 5F757000 		.ascii	"_up\000"
 12421 32b8 2B       		.byte	0x2b
 12422 32b9 CF       		.byte	0xcf
 12423 32ba 08320000 		.4byte	0x3208
 12424 32be 38       		.byte	0x38
 12425 32bf 16       		.uleb128 0x16
 12426 32c0 5F757200 		.ascii	"_ur\000"
 12427 32c4 2B       		.byte	0x2b
 12428 32c5 D0       		.byte	0xd0
 12429 32c6 B1000000 		.4byte	0xb1
 12430 32ca 3C       		.byte	0x3c
 12431 32cb 08       		.uleb128 0x8
 12432 32cc 4D2C0000 		.4byte	.LASF789
 12433 32d0 2B       		.byte	0x2b
 12434 32d1 D3       		.byte	0xd3
 12435 32d2 FB160000 		.4byte	0x16fb
 12436 32d6 40       		.byte	0x40
 12437 32d7 08       		.uleb128 0x8
 12438 32d8 CF030000 		.4byte	.LASF790
 12439 32dc 2B       		.byte	0x2b
 12440 32dd D4       		.byte	0xd4
 12441 32de FB340000 		.4byte	0x34fb
 12442 32e2 43       		.byte	0x43
 12443 32e3 16       		.uleb128 0x16
 12444 32e4 5F6C6200 		.ascii	"_lb\000"
 12445 32e8 2B       		.byte	0x2b
 12446 32e9 D7       		.byte	0xd7
 12447 32ea E3310000 		.4byte	0x31e3
 12448 32ee 44       		.byte	0x44
ARM GAS  /tmp/ccETYwEL.s 			page 221


 12449 32ef 08       		.uleb128 0x8
 12450 32f0 220F0000 		.4byte	.LASF791
 12451 32f4 2B       		.byte	0x2b
 12452 32f5 DA       		.byte	0xda
 12453 32f6 B1000000 		.4byte	0xb1
 12454 32fa 4C       		.byte	0x4c
 12455 32fb 08       		.uleb128 0x8
 12456 32fc C7210000 		.4byte	.LASF792
 12457 3300 2B       		.byte	0x2b
 12458 3301 DB       		.byte	0xdb
 12459 3302 BD2F0000 		.4byte	0x2fbd
 12460 3306 50       		.byte	0x50
 12461 3307 08       		.uleb128 0x8
 12462 3308 1A1E0000 		.4byte	.LASF793
 12463 330c 2B       		.byte	0x2b
 12464 330d DE       		.byte	0xde
 12465 330e 56330000 		.4byte	0x3356
 12466 3312 54       		.byte	0x54
 12467 3313 08       		.uleb128 0x8
 12468 3314 C9030000 		.4byte	.LASF794
 12469 3318 2B       		.byte	0x2b
 12470 3319 E2       		.byte	0xe2
 12471 331a 3A300000 		.4byte	0x303a
 12472 331e 58       		.byte	0x58
 12473 331f 08       		.uleb128 0x8
 12474 3320 6D010000 		.4byte	.LASF795
 12475 3324 2B       		.byte	0x2b
 12476 3325 E4       		.byte	0xe4
 12477 3326 2F300000 		.4byte	0x302f
 12478 332a 5C       		.byte	0x5c
 12479 332b 08       		.uleb128 0x8
 12480 332c 3A370000 		.4byte	.LASF796
 12481 3330 2B       		.byte	0x2b
 12482 3331 E5       		.byte	0xe5
 12483 3332 B1000000 		.4byte	0xb1
 12484 3336 64       		.byte	0x64
 12485 3337 00       		.byte	0
 12486 3338 26       		.uleb128 0x26
 12487 3339 B1000000 		.4byte	0xb1
 12488 333d 56330000 		.4byte	0x3356
 12489 3341 0E       		.uleb128 0xe
 12490 3342 56330000 		.4byte	0x3356
 12491 3346 0E       		.uleb128 0xe
 12492 3347 BF030000 		.4byte	0x3bf
 12493 334b 0E       		.uleb128 0xe
 12494 334c 45300000 		.4byte	0x3045
 12495 3350 0E       		.uleb128 0xe
 12496 3351 B1000000 		.4byte	0xb1
 12497 3355 00       		.byte	0
 12498 3356 0B       		.uleb128 0xb
 12499 3357 04       		.byte	0x4
 12500 3358 61330000 		.4byte	0x3361
 12501 335c 06       		.uleb128 0x6
 12502 335d 56330000 		.4byte	0x3356
 12503 3361 10       		.uleb128 0x10
 12504 3362 97220000 		.4byte	.LASF797
 12505 3366 2804     		.2byte	0x428
ARM GAS  /tmp/ccETYwEL.s 			page 222


 12506 3368 2B       		.byte	0x2b
 12507 3369 6002     		.2byte	0x260
 12508 336b 93340000 		.4byte	0x3493
 12509 336f 0A       		.uleb128 0xa
 12510 3370 FE160000 		.4byte	.LASF798
 12511 3374 2B       		.byte	0x2b
 12512 3375 6202     		.2byte	0x262
 12513 3377 B1000000 		.4byte	0xb1
 12514 337b 00       		.byte	0
 12515 337c 0A       		.uleb128 0xa
 12516 337d 5E110000 		.4byte	.LASF799
 12517 3381 2B       		.byte	0x2b
 12518 3382 6702     		.2byte	0x267
 12519 3384 52350000 		.4byte	0x3552
 12520 3388 04       		.byte	0x4
 12521 3389 0A       		.uleb128 0xa
 12522 338a 430C0000 		.4byte	.LASF800
 12523 338e 2B       		.byte	0x2b
 12524 338f 6702     		.2byte	0x267
 12525 3391 52350000 		.4byte	0x3552
 12526 3395 08       		.byte	0x8
 12527 3396 0A       		.uleb128 0xa
 12528 3397 170B0000 		.4byte	.LASF801
 12529 339b 2B       		.byte	0x2b
 12530 339c 6702     		.2byte	0x267
 12531 339e 52350000 		.4byte	0x3552
 12532 33a2 0C       		.byte	0xc
 12533 33a3 0A       		.uleb128 0xa
 12534 33a4 34020000 		.4byte	.LASF802
 12535 33a8 2B       		.byte	0x2b
 12536 33a9 6902     		.2byte	0x269
 12537 33ab B1000000 		.4byte	0xb1
 12538 33af 10       		.byte	0x10
 12539 33b0 0A       		.uleb128 0xa
 12540 33b1 97140000 		.4byte	.LASF803
 12541 33b5 2B       		.byte	0x2b
 12542 33b6 6A02     		.2byte	0x26a
 12543 33b8 34370000 		.4byte	0x3734
 12544 33bc 14       		.byte	0x14
 12545 33bd 0A       		.uleb128 0xa
 12546 33be 8A340000 		.4byte	.LASF804
 12547 33c2 2B       		.byte	0x2b
 12548 33c3 6D02     		.2byte	0x26d
 12549 33c5 B1000000 		.4byte	0xb1
 12550 33c9 30       		.byte	0x30
 12551 33ca 0A       		.uleb128 0xa
 12552 33cb D2370000 		.4byte	.LASF805
 12553 33cf 2B       		.byte	0x2b
 12554 33d0 6E02     		.2byte	0x26e
 12555 33d2 49370000 		.4byte	0x3749
 12556 33d6 34       		.byte	0x34
 12557 33d7 0A       		.uleb128 0xa
 12558 33d8 2E350000 		.4byte	.LASF806
 12559 33dc 2B       		.byte	0x2b
 12560 33dd 7002     		.2byte	0x270
 12561 33df B1000000 		.4byte	0xb1
 12562 33e3 38       		.byte	0x38
ARM GAS  /tmp/ccETYwEL.s 			page 223


 12563 33e4 0A       		.uleb128 0xa
 12564 33e5 BF1B0000 		.4byte	.LASF807
 12565 33e9 2B       		.byte	0x2b
 12566 33ea 7202     		.2byte	0x272
 12567 33ec 5A370000 		.4byte	0x375a
 12568 33f0 3C       		.byte	0x3c
 12569 33f1 0A       		.uleb128 0xa
 12570 33f2 2E0B0000 		.4byte	.LASF808
 12571 33f6 2B       		.byte	0x2b
 12572 33f7 7502     		.2byte	0x275
 12573 33f9 A9300000 		.4byte	0x30a9
 12574 33fd 40       		.byte	0x40
 12575 33fe 0A       		.uleb128 0xa
 12576 33ff 080B0000 		.4byte	.LASF809
 12577 3403 2B       		.byte	0x2b
 12578 3404 7602     		.2byte	0x276
 12579 3406 B1000000 		.4byte	0xb1
 12580 340a 44       		.byte	0x44
 12581 340b 0A       		.uleb128 0xa
 12582 340c 61300000 		.4byte	.LASF810
 12583 3410 2B       		.byte	0x2b
 12584 3411 7702     		.2byte	0x277
 12585 3413 A9300000 		.4byte	0x30a9
 12586 3417 48       		.byte	0x48
 12587 3418 0A       		.uleb128 0xa
 12588 3419 04210000 		.4byte	.LASF811
 12589 341d 2B       		.byte	0x2b
 12590 341e 7802     		.2byte	0x278
 12591 3420 60370000 		.4byte	0x3760
 12592 3424 4C       		.byte	0x4c
 12593 3425 0A       		.uleb128 0xa
 12594 3426 13030000 		.4byte	.LASF812
 12595 342a 2B       		.byte	0x2b
 12596 342b 7B02     		.2byte	0x27b
 12597 342d B1000000 		.4byte	0xb1
 12598 3431 50       		.byte	0x50
 12599 3432 0A       		.uleb128 0xa
 12600 3433 7A140000 		.4byte	.LASF813
 12601 3437 2B       		.byte	0x2b
 12602 3438 7C02     		.2byte	0x27c
 12603 343a 45300000 		.4byte	0x3045
 12604 343e 54       		.byte	0x54
 12605 343f 0A       		.uleb128 0xa
 12606 3440 64060000 		.4byte	.LASF814
 12607 3444 2B       		.byte	0x2b
 12608 3445 9F02     		.2byte	0x29f
 12609 3447 12370000 		.4byte	0x3712
 12610 344b 58       		.byte	0x58
 12611 344c 1A       		.uleb128 0x1a
 12612 344d 76010000 		.4byte	.LASF774
 12613 3451 2B       		.byte	0x2b
 12614 3452 A302     		.2byte	0x2a3
 12615 3454 C6310000 		.4byte	0x31c6
 12616 3458 4801     		.2byte	0x148
 12617 345a 1A       		.uleb128 0x1a
 12618 345b 81290000 		.4byte	.LASF815
 12619 345f 2B       		.byte	0x2b
ARM GAS  /tmp/ccETYwEL.s 			page 224


 12620 3460 A402     		.2byte	0x2a4
 12621 3462 88310000 		.4byte	0x3188
 12622 3466 4C01     		.2byte	0x14c
 12623 3468 1A       		.uleb128 0x1a
 12624 3469 94280000 		.4byte	.LASF816
 12625 346d 2B       		.byte	0x2b
 12626 346e A802     		.2byte	0x2a8
 12627 3470 71370000 		.4byte	0x3771
 12628 3474 DC02     		.2byte	0x2dc
 12629 3476 1A       		.uleb128 0x1a
 12630 3477 892C0000 		.4byte	.LASF817
 12631 347b 2B       		.byte	0x2b
 12632 347c AD02     		.2byte	0x2ad
 12633 347e 17350000 		.4byte	0x3517
 12634 3482 E002     		.2byte	0x2e0
 12635 3484 1A       		.uleb128 0x1a
 12636 3485 D5070000 		.4byte	.LASF818
 12637 3489 2B       		.byte	0x2b
 12638 348a AF02     		.2byte	0x2af
 12639 348c 7D370000 		.4byte	0x377d
 12640 3490 EC02     		.2byte	0x2ec
 12641 3492 00       		.byte	0
 12642 3493 0B       		.uleb128 0xb
 12643 3494 04       		.byte	0x4
 12644 3495 38330000 		.4byte	0x3338
 12645 3499 26       		.uleb128 0x26
 12646 349a B1000000 		.4byte	0xb1
 12647 349e B7340000 		.4byte	0x34b7
 12648 34a2 0E       		.uleb128 0xe
 12649 34a3 56330000 		.4byte	0x3356
 12650 34a7 0E       		.uleb128 0xe
 12651 34a8 BF030000 		.4byte	0x3bf
 12652 34ac 0E       		.uleb128 0xe
 12653 34ad 170D0000 		.4byte	0xd17
 12654 34b1 0E       		.uleb128 0xe
 12655 34b2 B1000000 		.4byte	0xb1
 12656 34b6 00       		.byte	0
 12657 34b7 0B       		.uleb128 0xb
 12658 34b8 04       		.byte	0x4
 12659 34b9 99340000 		.4byte	0x3499
 12660 34bd 26       		.uleb128 0x26
 12661 34be C82F0000 		.4byte	0x2fc8
 12662 34c2 DB340000 		.4byte	0x34db
 12663 34c6 0E       		.uleb128 0xe
 12664 34c7 56330000 		.4byte	0x3356
 12665 34cb 0E       		.uleb128 0xe
 12666 34cc BF030000 		.4byte	0x3bf
 12667 34d0 0E       		.uleb128 0xe
 12668 34d1 C82F0000 		.4byte	0x2fc8
 12669 34d5 0E       		.uleb128 0xe
 12670 34d6 B1000000 		.4byte	0xb1
 12671 34da 00       		.byte	0
 12672 34db 0B       		.uleb128 0xb
 12673 34dc 04       		.byte	0x4
 12674 34dd BD340000 		.4byte	0x34bd
 12675 34e1 26       		.uleb128 0x26
 12676 34e2 B1000000 		.4byte	0xb1
ARM GAS  /tmp/ccETYwEL.s 			page 225


 12677 34e6 F5340000 		.4byte	0x34f5
 12678 34ea 0E       		.uleb128 0xe
 12679 34eb 56330000 		.4byte	0x3356
 12680 34ef 0E       		.uleb128 0xe
 12681 34f0 BF030000 		.4byte	0x3bf
 12682 34f4 00       		.byte	0
 12683 34f5 0B       		.uleb128 0xb
 12684 34f6 04       		.byte	0x4
 12685 34f7 E1340000 		.4byte	0x34e1
 12686 34fb 11       		.uleb128 0x11
 12687 34fc 49000000 		.4byte	0x49
 12688 3500 0B350000 		.4byte	0x350b
 12689 3504 12       		.uleb128 0x12
 12690 3505 BD000000 		.4byte	0xbd
 12691 3509 00       		.byte	0
 12692 350a 00       		.byte	0
 12693 350b 18       		.uleb128 0x18
 12694 350c 75390000 		.4byte	.LASF819
 12695 3510 2B       		.byte	0x2b
 12696 3511 1F01     		.2byte	0x11f
 12697 3513 0E320000 		.4byte	0x320e
 12698 3517 0C       		.uleb128 0xc
 12699 3518 D7270000 		.4byte	.LASF820
 12700 351c 0C       		.byte	0xc
 12701 351d 2B       		.byte	0x2b
 12702 351e 2301     		.2byte	0x123
 12703 3520 4C350000 		.4byte	0x354c
 12704 3524 0A       		.uleb128 0xa
 12705 3525 01190000 		.4byte	.LASF755
 12706 3529 2B       		.byte	0x2b
 12707 352a 2501     		.2byte	0x125
 12708 352c 4C350000 		.4byte	0x354c
 12709 3530 00       		.byte	0
 12710 3531 0A       		.uleb128 0xa
 12711 3532 93160000 		.4byte	.LASF821
 12712 3536 2B       		.byte	0x2b
 12713 3537 2601     		.2byte	0x126
 12714 3539 B1000000 		.4byte	0xb1
 12715 353d 04       		.byte	0x4
 12716 353e 0A       		.uleb128 0xa
 12717 353f B2240000 		.4byte	.LASF822
 12718 3543 2B       		.byte	0x2b
 12719 3544 2701     		.2byte	0x127
 12720 3546 52350000 		.4byte	0x3552
 12721 354a 08       		.byte	0x8
 12722 354b 00       		.byte	0
 12723 354c 0B       		.uleb128 0xb
 12724 354d 04       		.byte	0x4
 12725 354e 17350000 		.4byte	0x3517
 12726 3552 0B       		.uleb128 0xb
 12727 3553 04       		.byte	0x4
 12728 3554 0B350000 		.4byte	0x350b
 12729 3558 0C       		.uleb128 0xc
 12730 3559 013C0000 		.4byte	.LASF823
 12731 355d 0E       		.byte	0xe
 12732 355e 2B       		.byte	0x2b
 12733 355f 3F01     		.2byte	0x13f
ARM GAS  /tmp/ccETYwEL.s 			page 226


 12734 3561 8D350000 		.4byte	0x358d
 12735 3565 0A       		.uleb128 0xa
 12736 3566 551F0000 		.4byte	.LASF824
 12737 356a 2B       		.byte	0x2b
 12738 356b 4001     		.2byte	0x140
 12739 356d 8D350000 		.4byte	0x358d
 12740 3571 00       		.byte	0
 12741 3572 0A       		.uleb128 0xa
 12742 3573 3E3B0000 		.4byte	.LASF825
 12743 3577 2B       		.byte	0x2b
 12744 3578 4101     		.2byte	0x141
 12745 357a 8D350000 		.4byte	0x358d
 12746 357e 06       		.byte	0x6
 12747 357f 0A       		.uleb128 0xa
 12748 3580 70220000 		.4byte	.LASF826
 12749 3584 2B       		.byte	0x2b
 12750 3585 4201     		.2byte	0x142
 12751 3587 6D000000 		.4byte	0x6d
 12752 358b 0C       		.byte	0xc
 12753 358c 00       		.byte	0
 12754 358d 11       		.uleb128 0x11
 12755 358e 6D000000 		.4byte	0x6d
 12756 3592 9D350000 		.4byte	0x359d
 12757 3596 12       		.uleb128 0x12
 12758 3597 BD000000 		.4byte	0xbd
 12759 359b 02       		.byte	0x2
 12760 359c 00       		.byte	0
 12761 359d 17       		.uleb128 0x17
 12762 359e D0       		.byte	0xd0
 12763 359f 2B       		.byte	0x2b
 12764 35a0 8002     		.2byte	0x280
 12765 35a2 9E360000 		.4byte	0x369e
 12766 35a6 0A       		.uleb128 0xa
 12767 35a7 280A0000 		.4byte	.LASF827
 12768 35ab 2B       		.byte	0x2b
 12769 35ac 8202     		.2byte	0x282
 12770 35ae BD000000 		.4byte	0xbd
 12771 35b2 00       		.byte	0
 12772 35b3 0A       		.uleb128 0xa
 12773 35b4 F01E0000 		.4byte	.LASF828
 12774 35b8 2B       		.byte	0x2b
 12775 35b9 8302     		.2byte	0x283
 12776 35bb 45300000 		.4byte	0x3045
 12777 35bf 04       		.byte	0x4
 12778 35c0 0A       		.uleb128 0xa
 12779 35c1 C5220000 		.4byte	.LASF829
 12780 35c5 2B       		.byte	0x2b
 12781 35c6 8402     		.2byte	0x284
 12782 35c8 9E360000 		.4byte	0x369e
 12783 35cc 08       		.byte	0x8
 12784 35cd 0A       		.uleb128 0xa
 12785 35ce 04130000 		.4byte	.LASF830
 12786 35d2 2B       		.byte	0x2b
 12787 35d3 8502     		.2byte	0x285
 12788 35d5 BF300000 		.4byte	0x30bf
 12789 35d9 24       		.byte	0x24
 12790 35da 0A       		.uleb128 0xa
ARM GAS  /tmp/ccETYwEL.s 			page 227


 12791 35db E7320000 		.4byte	.LASF831
 12792 35df 2B       		.byte	0x2b
 12793 35e0 8602     		.2byte	0x286
 12794 35e2 B1000000 		.4byte	0xb1
 12795 35e6 48       		.byte	0x48
 12796 35e7 0A       		.uleb128 0xa
 12797 35e8 E5240000 		.4byte	.LASF832
 12798 35ec 2B       		.byte	0x2b
 12799 35ed 8702     		.2byte	0x287
 12800 35ef AA000000 		.4byte	0xaa
 12801 35f3 50       		.byte	0x50
 12802 35f4 0A       		.uleb128 0xa
 12803 35f5 EC3A0000 		.4byte	.LASF833
 12804 35f9 2B       		.byte	0x2b
 12805 35fa 8802     		.2byte	0x288
 12806 35fc 58350000 		.4byte	0x3558
 12807 3600 58       		.byte	0x58
 12808 3601 0A       		.uleb128 0xa
 12809 3602 7C2C0000 		.4byte	.LASF834
 12810 3606 2B       		.byte	0x2b
 12811 3607 8902     		.2byte	0x289
 12812 3609 2F300000 		.4byte	0x302f
 12813 360d 68       		.byte	0x68
 12814 360e 0A       		.uleb128 0xa
 12815 360f F2070000 		.4byte	.LASF835
 12816 3613 2B       		.byte	0x2b
 12817 3614 8A02     		.2byte	0x28a
 12818 3616 2F300000 		.4byte	0x302f
 12819 361a 70       		.byte	0x70
 12820 361b 0A       		.uleb128 0xa
 12821 361c EF040000 		.4byte	.LASF836
 12822 3620 2B       		.byte	0x2b
 12823 3621 8B02     		.2byte	0x28b
 12824 3623 2F300000 		.4byte	0x302f
 12825 3627 78       		.byte	0x78
 12826 3628 0A       		.uleb128 0xa
 12827 3629 AC220000 		.4byte	.LASF837
 12828 362d 2B       		.byte	0x2b
 12829 362e 8C02     		.2byte	0x28c
 12830 3630 AE360000 		.4byte	0x36ae
 12831 3634 80       		.byte	0x80
 12832 3635 0A       		.uleb128 0xa
 12833 3636 54190000 		.4byte	.LASF838
 12834 363a 2B       		.byte	0x2b
 12835 363b 8D02     		.2byte	0x28d
 12836 363d BE360000 		.4byte	0x36be
 12837 3641 88       		.byte	0x88
 12838 3642 0A       		.uleb128 0xa
 12839 3643 612A0000 		.4byte	.LASF839
 12840 3647 2B       		.byte	0x2b
 12841 3648 8E02     		.2byte	0x28e
 12842 364a B1000000 		.4byte	0xb1
 12843 364e A0       		.byte	0xa0
 12844 364f 0A       		.uleb128 0xa
 12845 3650 DA100000 		.4byte	.LASF840
 12846 3654 2B       		.byte	0x2b
 12847 3655 8F02     		.2byte	0x28f
ARM GAS  /tmp/ccETYwEL.s 			page 228


 12848 3657 2F300000 		.4byte	0x302f
 12849 365b A4       		.byte	0xa4
 12850 365c 0A       		.uleb128 0xa
 12851 365d 44000000 		.4byte	.LASF841
 12852 3661 2B       		.byte	0x2b
 12853 3662 9002     		.2byte	0x290
 12854 3664 2F300000 		.4byte	0x302f
 12855 3668 AC       		.byte	0xac
 12856 3669 0A       		.uleb128 0xa
 12857 366a A90C0000 		.4byte	.LASF842
 12858 366e 2B       		.byte	0x2b
 12859 366f 9102     		.2byte	0x291
 12860 3671 2F300000 		.4byte	0x302f
 12861 3675 B4       		.byte	0xb4
 12862 3676 0A       		.uleb128 0xa
 12863 3677 541C0000 		.4byte	.LASF843
 12864 367b 2B       		.byte	0x2b
 12865 367c 9202     		.2byte	0x292
 12866 367e 2F300000 		.4byte	0x302f
 12867 3682 BC       		.byte	0xbc
 12868 3683 0A       		.uleb128 0xa
 12869 3684 FA220000 		.4byte	.LASF844
 12870 3688 2B       		.byte	0x2b
 12871 3689 9302     		.2byte	0x293
 12872 368b 2F300000 		.4byte	0x302f
 12873 368f C4       		.byte	0xc4
 12874 3690 0A       		.uleb128 0xa
 12875 3691 B82E0000 		.4byte	.LASF845
 12876 3695 2B       		.byte	0x2b
 12877 3696 9402     		.2byte	0x294
 12878 3698 B1000000 		.4byte	0xb1
 12879 369c CC       		.byte	0xcc
 12880 369d 00       		.byte	0
 12881 369e 11       		.uleb128 0x11
 12882 369f 220D0000 		.4byte	0xd22
 12883 36a3 AE360000 		.4byte	0x36ae
 12884 36a7 12       		.uleb128 0x12
 12885 36a8 BD000000 		.4byte	0xbd
 12886 36ac 19       		.byte	0x19
 12887 36ad 00       		.byte	0
 12888 36ae 11       		.uleb128 0x11
 12889 36af 220D0000 		.4byte	0xd22
 12890 36b3 BE360000 		.4byte	0x36be
 12891 36b7 12       		.uleb128 0x12
 12892 36b8 BD000000 		.4byte	0xbd
 12893 36bc 07       		.byte	0x7
 12894 36bd 00       		.byte	0
 12895 36be 11       		.uleb128 0x11
 12896 36bf 220D0000 		.4byte	0xd22
 12897 36c3 CE360000 		.4byte	0x36ce
 12898 36c7 12       		.uleb128 0x12
 12899 36c8 BD000000 		.4byte	0xbd
 12900 36cc 17       		.byte	0x17
 12901 36cd 00       		.byte	0
 12902 36ce 17       		.uleb128 0x17
 12903 36cf F0       		.byte	0xf0
 12904 36d0 2B       		.byte	0x2b
ARM GAS  /tmp/ccETYwEL.s 			page 229


 12905 36d1 9902     		.2byte	0x299
 12906 36d3 F2360000 		.4byte	0x36f2
 12907 36d7 0A       		.uleb128 0xa
 12908 36d8 65370000 		.4byte	.LASF846
 12909 36dc 2B       		.byte	0x2b
 12910 36dd 9C02     		.2byte	0x29c
 12911 36df F2360000 		.4byte	0x36f2
 12912 36e3 00       		.byte	0
 12913 36e4 0A       		.uleb128 0xa
 12914 36e5 73110000 		.4byte	.LASF847
 12915 36e9 2B       		.byte	0x2b
 12916 36ea 9D02     		.2byte	0x29d
 12917 36ec 02370000 		.4byte	0x3702
 12918 36f0 78       		.byte	0x78
 12919 36f1 00       		.byte	0
 12920 36f2 11       		.uleb128 0x11
 12921 36f3 08320000 		.4byte	0x3208
 12922 36f7 02370000 		.4byte	0x3702
 12923 36fb 12       		.uleb128 0x12
 12924 36fc BD000000 		.4byte	0xbd
 12925 3700 1D       		.byte	0x1d
 12926 3701 00       		.byte	0
 12927 3702 11       		.uleb128 0x11
 12928 3703 BD000000 		.4byte	0xbd
 12929 3707 12370000 		.4byte	0x3712
 12930 370b 12       		.uleb128 0x12
 12931 370c BD000000 		.4byte	0xbd
 12932 3710 1D       		.byte	0x1d
 12933 3711 00       		.byte	0
 12934 3712 2B       		.uleb128 0x2b
 12935 3713 F0       		.byte	0xf0
 12936 3714 2B       		.byte	0x2b
 12937 3715 7E02     		.2byte	0x27e
 12938 3717 34370000 		.4byte	0x3734
 12939 371b 1D       		.uleb128 0x1d
 12940 371c 97220000 		.4byte	.LASF797
 12941 3720 2B       		.byte	0x2b
 12942 3721 9502     		.2byte	0x295
 12943 3723 9D350000 		.4byte	0x359d
 12944 3727 1D       		.uleb128 0x1d
 12945 3728 0E2C0000 		.4byte	.LASF848
 12946 372c 2B       		.byte	0x2b
 12947 372d 9E02     		.2byte	0x29e
 12948 372f CE360000 		.4byte	0x36ce
 12949 3733 00       		.byte	0
 12950 3734 11       		.uleb128 0x11
 12951 3735 220D0000 		.4byte	0xd22
 12952 3739 44370000 		.4byte	0x3744
 12953 373d 12       		.uleb128 0x12
 12954 373e BD000000 		.4byte	0xbd
 12955 3742 18       		.byte	0x18
 12956 3743 00       		.byte	0
 12957 3744 2C       		.uleb128 0x2c
 12958 3745 912C0000 		.4byte	.LASF850
 12959 3749 0B       		.uleb128 0xb
 12960 374a 04       		.byte	0x4
 12961 374b 44370000 		.4byte	0x3744
ARM GAS  /tmp/ccETYwEL.s 			page 230


 12962 374f 0D       		.uleb128 0xd
 12963 3750 5A370000 		.4byte	0x375a
 12964 3754 0E       		.uleb128 0xe
 12965 3755 56330000 		.4byte	0x3356
 12966 3759 00       		.byte	0
 12967 375a 0B       		.uleb128 0xb
 12968 375b 04       		.byte	0x4
 12969 375c 4F370000 		.4byte	0x374f
 12970 3760 0B       		.uleb128 0xb
 12971 3761 04       		.byte	0x4
 12972 3762 A9300000 		.4byte	0x30a9
 12973 3766 0D       		.uleb128 0xd
 12974 3767 71370000 		.4byte	0x3771
 12975 376b 0E       		.uleb128 0xe
 12976 376c B1000000 		.4byte	0xb1
 12977 3770 00       		.byte	0
 12978 3771 0B       		.uleb128 0xb
 12979 3772 04       		.byte	0x4
 12980 3773 77370000 		.4byte	0x3777
 12981 3777 0B       		.uleb128 0xb
 12982 3778 04       		.byte	0x4
 12983 3779 66370000 		.4byte	0x3766
 12984 377d 11       		.uleb128 0x11
 12985 377e 0B350000 		.4byte	0x350b
 12986 3782 8D370000 		.4byte	0x378d
 12987 3786 12       		.uleb128 0x12
 12988 3787 BD000000 		.4byte	0xbd
 12989 378b 02       		.byte	0x2
 12990 378c 00       		.byte	0
 12991 378d 13       		.uleb128 0x13
 12992 378e F32B0000 		.4byte	.LASF851
 12993 3792 2B       		.byte	0x2b
 12994 3793 2E03     		.2byte	0x32e
 12995 3795 56330000 		.4byte	0x3356
 12996 3799 13       		.uleb128 0x13
 12997 379a 0F2E0000 		.4byte	.LASF852
 12998 379e 2B       		.byte	0x2b
 12999 379f 2F03     		.2byte	0x32f
 13000 37a1 5C330000 		.4byte	0x335c
 13001 37a5 02       		.uleb128 0x2
 13002 37a6 08       		.byte	0x8
 13003 37a7 04       		.byte	0x4
 13004 37a8 DF2D0000 		.4byte	.LASF853
 13005 37ac 2F       		.uleb128 0x2f
 13006 37ad 51230000 		.4byte	.LASF1103
 13007 37b1 05       		.byte	0x5
 13008 37b2 01       		.byte	0x1
 13009 37b3 37000000 		.4byte	0x37
 13010 37b7 2C       		.byte	0x2c
 13011 37b8 8202     		.2byte	0x282
 13012 37ba D7370000 		.4byte	0x37d7
 13013 37be 30       		.uleb128 0x30
 13014 37bf 8B200000 		.4byte	.LASF854
 13015 37c3 7F       		.sleb128 -1
 13016 37c4 20       		.uleb128 0x20
 13017 37c5 2C030000 		.4byte	.LASF855
 13018 37c9 00       		.byte	0
ARM GAS  /tmp/ccETYwEL.s 			page 231


 13019 37ca 20       		.uleb128 0x20
 13020 37cb F81F0000 		.4byte	.LASF856
 13021 37cf 01       		.byte	0x1
 13022 37d0 20       		.uleb128 0x20
 13023 37d1 39350000 		.4byte	.LASF857
 13024 37d5 02       		.byte	0x2
 13025 37d6 00       		.byte	0
 13026 37d7 13       		.uleb128 0x13
 13027 37d8 943A0000 		.4byte	.LASF858
 13028 37dc 2C       		.byte	0x2c
 13029 37dd 8D02     		.2byte	0x28d
 13030 37df AC370000 		.4byte	0x37ac
 13031 37e3 31       		.uleb128 0x31
 13032 37e4 E5180000 		.4byte	0x18e5
 13033 37e8 01       		.byte	0x1
 13034 37e9 29       		.byte	0x29
 13035 37ea 05       		.uleb128 0x5
 13036 37eb 03       		.byte	0x3
 13037 37ec 00000000 		.4byte	ADC_Value
 13038 37f0 31       		.uleb128 0x31
 13039 37f1 00190000 		.4byte	0x1900
 13040 37f5 01       		.byte	0x1
 13041 37f6 2A       		.byte	0x2a
 13042 37f7 05       		.uleb128 0x5
 13043 37f8 03       		.byte	0x3
 13044 37f9 00000000 		.4byte	ADC_curr_norm_value
 13045 37fd 32       		.uleb128 0x32
 13046 37fe AF200000 		.4byte	.LASF859
 13047 3802 01       		.byte	0x1
 13048 3803 2D       		.byte	0x2d
 13049 3804 F1160000 		.4byte	0x16f1
 13050 3808 05       		.uleb128 0x5
 13051 3809 03       		.byte	0x3
 13052 380a 00000000 		.4byte	m_conf
 13053 380e 32       		.uleb128 0x32
 13054 380f 8E090000 		.4byte	.LASF860
 13055 3813 01       		.byte	0x1
 13056 3814 2E       		.byte	0x2e
 13057 3815 11110000 		.4byte	0x1111
 13058 3819 05       		.uleb128 0x5
 13059 381a 03       		.byte	0x3
 13060 381b 00000000 		.4byte	m_fault_now
 13061 381f 32       		.uleb128 0x32
 13062 3820 F80D0000 		.4byte	.LASF861
 13063 3824 01       		.byte	0x1
 13064 3825 2F       		.byte	0x2f
 13065 3826 B1000000 		.4byte	0xb1
 13066 382a 05       		.uleb128 0x5
 13067 382b 03       		.byte	0x3
 13068 382c 00000000 		.4byte	m_ignore_iterations
 13069 3830 32       		.uleb128 0x32
 13070 3831 F3200000 		.4byte	.LASF862
 13071 3835 01       		.byte	0x1
 13072 3836 30       		.byte	0x30
 13073 3837 C4000000 		.4byte	0xc4
 13074 383b 05       		.uleb128 0x5
 13075 383c 03       		.byte	0x3
ARM GAS  /tmp/ccETYwEL.s 			page 232


 13076 383d 00000000 		.4byte	m_cycles_running
 13077 3841 32       		.uleb128 0x32
 13078 3842 AD3B0000 		.4byte	.LASF863
 13079 3846 01       		.byte	0x1
 13080 3847 31       		.byte	0x31
 13081 3848 C0160000 		.4byte	0x16c0
 13082 384c 05       		.uleb128 0x5
 13083 384d 03       		.byte	0x3
 13084 384e 00000000 		.4byte	m_lock_enabled
 13085 3852 32       		.uleb128 0x32
 13086 3853 920A0000 		.4byte	.LASF864
 13087 3857 01       		.byte	0x1
 13088 3858 32       		.byte	0x32
 13089 3859 C0160000 		.4byte	0x16c0
 13090 385d 05       		.uleb128 0x5
 13091 385e 03       		.byte	0x3
 13092 385f 00000000 		.4byte	m_lock_override_once
 13093 3863 32       		.uleb128 0x32
 13094 3864 C0280000 		.4byte	.LASF865
 13095 3868 01       		.byte	0x1
 13096 3869 33       		.byte	0x33
 13097 386a 47110000 		.4byte	0x1147
 13098 386e 05       		.uleb128 0x5
 13099 386f 03       		.byte	0x3
 13100 3870 00000000 		.4byte	m_motor_current_sum
 13101 3874 32       		.uleb128 0x32
 13102 3875 790F0000 		.4byte	.LASF866
 13103 3879 01       		.byte	0x1
 13104 387a 34       		.byte	0x34
 13105 387b 47110000 		.4byte	0x1147
 13106 387f 05       		.uleb128 0x5
 13107 3880 03       		.byte	0x3
 13108 3881 00000000 		.4byte	m_input_current_sum
 13109 3885 32       		.uleb128 0x32
 13110 3886 66290000 		.4byte	.LASF867
 13111 388a 01       		.byte	0x1
 13112 388b 35       		.byte	0x35
 13113 388c 47110000 		.4byte	0x1147
 13114 3890 05       		.uleb128 0x5
 13115 3891 03       		.byte	0x3
 13116 3892 00000000 		.4byte	m_motor_current_iterations
 13117 3896 32       		.uleb128 0x32
 13118 3897 A31C0000 		.4byte	.LASF868
 13119 389b 01       		.byte	0x1
 13120 389c 36       		.byte	0x36
 13121 389d 47110000 		.4byte	0x1147
 13122 38a1 05       		.uleb128 0x5
 13123 38a2 03       		.byte	0x3
 13124 38a3 00000000 		.4byte	m_input_current_iterations
 13125 38a7 32       		.uleb128 0x32
 13126 38a8 D9230000 		.4byte	.LASF869
 13127 38ac 01       		.byte	0x1
 13128 38ad 37       		.byte	0x37
 13129 38ae 47110000 		.4byte	0x1147
 13130 38b2 05       		.uleb128 0x5
 13131 38b3 03       		.byte	0x3
 13132 38b4 00000000 		.4byte	m_motor_id_sum
ARM GAS  /tmp/ccETYwEL.s 			page 233


 13133 38b8 32       		.uleb128 0x32
 13134 38b9 22280000 		.4byte	.LASF870
 13135 38bd 01       		.byte	0x1
 13136 38be 38       		.byte	0x38
 13137 38bf 47110000 		.4byte	0x1147
 13138 38c3 05       		.uleb128 0x5
 13139 38c4 03       		.byte	0x3
 13140 38c5 00000000 		.4byte	m_motor_iq_sum
 13141 38c9 32       		.uleb128 0x32
 13142 38ca D63A0000 		.4byte	.LASF871
 13143 38ce 01       		.byte	0x1
 13144 38cf 39       		.byte	0x39
 13145 38d0 47110000 		.4byte	0x1147
 13146 38d4 05       		.uleb128 0x5
 13147 38d5 03       		.byte	0x3
 13148 38d6 00000000 		.4byte	m_motor_id_iterations
 13149 38da 32       		.uleb128 0x32
 13150 38db BF090000 		.4byte	.LASF872
 13151 38df 01       		.byte	0x1
 13152 38e0 3A       		.byte	0x3a
 13153 38e1 47110000 		.4byte	0x1147
 13154 38e5 05       		.uleb128 0x5
 13155 38e6 03       		.byte	0x3
 13156 38e7 00000000 		.4byte	m_motor_iq_iterations
 13157 38eb 32       		.uleb128 0x32
 13158 38ec FD1E0000 		.4byte	.LASF873
 13159 38f0 01       		.byte	0x1
 13160 38f1 3B       		.byte	0x3b
 13161 38f2 47110000 		.4byte	0x1147
 13162 38f6 05       		.uleb128 0x5
 13163 38f7 03       		.byte	0x3
 13164 38f8 00000000 		.4byte	m_amp_seconds
 13165 38fc 32       		.uleb128 0x32
 13166 38fd 283B0000 		.4byte	.LASF874
 13167 3901 01       		.byte	0x1
 13168 3902 3C       		.byte	0x3c
 13169 3903 47110000 		.4byte	0x1147
 13170 3907 05       		.uleb128 0x5
 13171 3908 03       		.byte	0x3
 13172 3909 00000000 		.4byte	m_amp_seconds_charged
 13173 390d 32       		.uleb128 0x32
 13174 390e 1F0B0000 		.4byte	.LASF875
 13175 3912 01       		.byte	0x1
 13176 3913 3D       		.byte	0x3d
 13177 3914 47110000 		.4byte	0x1147
 13178 3918 05       		.uleb128 0x5
 13179 3919 03       		.byte	0x3
 13180 391a 00000000 		.4byte	m_watt_seconds
 13181 391e 32       		.uleb128 0x32
 13182 391f 650B0000 		.4byte	.LASF876
 13183 3923 01       		.byte	0x1
 13184 3924 3E       		.byte	0x3e
 13185 3925 47110000 		.4byte	0x1147
 13186 3929 05       		.uleb128 0x5
 13187 392a 03       		.byte	0x3
 13188 392b 00000000 		.4byte	m_watt_seconds_charged
 13189 392f 32       		.uleb128 0x32
ARM GAS  /tmp/ccETYwEL.s 			page 234


 13190 3930 60000000 		.4byte	.LASF877
 13191 3934 01       		.byte	0x1
 13192 3935 3F       		.byte	0x3f
 13193 3936 47110000 		.4byte	0x1147
 13194 393a 05       		.uleb128 0x5
 13195 393b 03       		.byte	0x3
 13196 393c 00000000 		.4byte	m_position_set
 13197 3940 32       		.uleb128 0x32
 13198 3941 18270000 		.4byte	.LASF878
 13199 3945 01       		.byte	0x1
 13200 3946 40       		.byte	0x40
 13201 3947 47110000 		.4byte	0x1147
 13202 394b 05       		.uleb128 0x5
 13203 394c 03       		.byte	0x3
 13204 394d 00000000 		.4byte	m_temp_fet
 13205 3951 32       		.uleb128 0x32
 13206 3952 571A0000 		.4byte	.LASF879
 13207 3956 01       		.byte	0x1
 13208 3957 41       		.byte	0x41
 13209 3958 47110000 		.4byte	0x1147
 13210 395c 05       		.uleb128 0x5
 13211 395d 03       		.byte	0x3
 13212 395e 00000000 		.4byte	m_temp_motor
 13213 3962 11       		.uleb128 0x11
 13214 3963 F9000000 		.4byte	0xf9
 13215 3967 73390000 		.4byte	0x3973
 13216 396b 29       		.uleb128 0x29
 13217 396c BD000000 		.4byte	0xbd
 13218 3970 CF07     		.2byte	0x7cf
 13219 3972 00       		.byte	0
 13220 3973 05       		.uleb128 0x5
 13221 3974 62390000 		.4byte	0x3962
 13222 3978 32       		.uleb128 0x32
 13223 3979 81320000 		.4byte	.LASF880
 13224 397d 01       		.byte	0x1
 13225 397e 45       		.byte	0x45
 13226 397f 73390000 		.4byte	0x3973
 13227 3983 05       		.uleb128 0x5
 13228 3984 03       		.byte	0x3
 13229 3985 00000000 		.4byte	m_curr0_samples
 13230 3989 32       		.uleb128 0x32
 13231 398a B4320000 		.4byte	.LASF881
 13232 398e 01       		.byte	0x1
 13233 398f 46       		.byte	0x46
 13234 3990 73390000 		.4byte	0x3973
 13235 3994 05       		.uleb128 0x5
 13236 3995 03       		.byte	0x3
 13237 3996 A00F0000 		.4byte	m_curr1_samples
 13238 399a 32       		.uleb128 0x32
 13239 399b 50110000 		.4byte	.LASF882
 13240 399f 01       		.byte	0x1
 13241 39a0 47       		.byte	0x47
 13242 39a1 73390000 		.4byte	0x3973
 13243 39a5 05       		.uleb128 0x5
 13244 39a6 03       		.byte	0x3
 13245 39a7 401F0000 		.4byte	m_ph1_samples
 13246 39ab 32       		.uleb128 0x32
ARM GAS  /tmp/ccETYwEL.s 			page 235


 13247 39ac 65110000 		.4byte	.LASF883
 13248 39b0 01       		.byte	0x1
 13249 39b1 48       		.byte	0x48
 13250 39b2 73390000 		.4byte	0x3973
 13251 39b6 05       		.uleb128 0x5
 13252 39b7 03       		.byte	0x3
 13253 39b8 E02E0000 		.4byte	m_ph2_samples
 13254 39bc 32       		.uleb128 0x32
 13255 39bd E1120000 		.4byte	.LASF884
 13256 39c1 01       		.byte	0x1
 13257 39c2 49       		.byte	0x49
 13258 39c3 73390000 		.4byte	0x3973
 13259 39c7 05       		.uleb128 0x5
 13260 39c8 03       		.byte	0x3
 13261 39c9 803E0000 		.4byte	m_ph3_samples
 13262 39cd 32       		.uleb128 0x32
 13263 39ce 663C0000 		.4byte	.LASF885
 13264 39d2 01       		.byte	0x1
 13265 39d3 4A       		.byte	0x4a
 13266 39d4 73390000 		.4byte	0x3973
 13267 39d8 05       		.uleb128 0x5
 13268 39d9 03       		.byte	0x3
 13269 39da 204E0000 		.4byte	m_vzero_samples
 13270 39de 11       		.uleb128 0x11
 13271 39df E4000000 		.4byte	0xe4
 13272 39e3 EF390000 		.4byte	0x39ef
 13273 39e7 29       		.uleb128 0x29
 13274 39e8 BD000000 		.4byte	0xbd
 13275 39ec CF07     		.2byte	0x7cf
 13276 39ee 00       		.byte	0
 13277 39ef 05       		.uleb128 0x5
 13278 39f0 DE390000 		.4byte	0x39de
 13279 39f4 32       		.uleb128 0x32
 13280 39f5 9C070000 		.4byte	.LASF886
 13281 39f9 01       		.byte	0x1
 13282 39fa 4B       		.byte	0x4b
 13283 39fb EF390000 		.4byte	0x39ef
 13284 39ff 05       		.uleb128 0x5
 13285 3a00 03       		.byte	0x3
 13286 3a01 007D0000 		.4byte	m_status_samples
 13287 3a05 32       		.uleb128 0x32
 13288 3a06 DE3B0000 		.4byte	.LASF887
 13289 3a0a 01       		.byte	0x1
 13290 3a0b 4C       		.byte	0x4c
 13291 3a0c 73390000 		.4byte	0x3973
 13292 3a10 05       		.uleb128 0x5
 13293 3a11 03       		.byte	0x3
 13294 3a12 C05D0000 		.4byte	m_curr_fir_samples
 13295 3a16 32       		.uleb128 0x32
 13296 3a17 BC380000 		.4byte	.LASF888
 13297 3a1b 01       		.byte	0x1
 13298 3a1c 4D       		.byte	0x4d
 13299 3a1d 73390000 		.4byte	0x3973
 13300 3a21 05       		.uleb128 0x5
 13301 3a22 03       		.byte	0x3
 13302 3a23 606D0000 		.4byte	m_f_sw_samples
 13303 3a27 11       		.uleb128 0x11
ARM GAS  /tmp/ccETYwEL.s 			page 236


 13304 3a28 D4000000 		.4byte	0xd4
 13305 3a2c 383A0000 		.4byte	0x3a38
 13306 3a30 29       		.uleb128 0x29
 13307 3a31 BD000000 		.4byte	0xbd
 13308 3a35 CF07     		.2byte	0x7cf
 13309 3a37 00       		.byte	0
 13310 3a38 05       		.uleb128 0x5
 13311 3a39 273A0000 		.4byte	0x3a27
 13312 3a3d 32       		.uleb128 0x32
 13313 3a3e FF280000 		.4byte	.LASF889
 13314 3a42 01       		.byte	0x1
 13315 3a43 4E       		.byte	0x4e
 13316 3a44 383A0000 		.4byte	0x3a38
 13317 3a48 05       		.uleb128 0x5
 13318 3a49 03       		.byte	0x3
 13319 3a4a D0840000 		.4byte	m_phase_samples
 13320 3a4e 32       		.uleb128 0x32
 13321 3a4f C4170000 		.4byte	.LASF890
 13322 3a53 01       		.byte	0x1
 13323 3a54 4F       		.byte	0x4f
 13324 3a55 B8000000 		.4byte	0xb8
 13325 3a59 05       		.uleb128 0x5
 13326 3a5a 03       		.byte	0x3
 13327 3a5b 00000000 		.4byte	m_sample_len
 13328 3a5f 32       		.uleb128 0x32
 13329 3a60 5B0E0000 		.4byte	.LASF891
 13330 3a64 01       		.byte	0x1
 13331 3a65 50       		.byte	0x50
 13332 3a66 B8000000 		.4byte	0xb8
 13333 3a6a 05       		.uleb128 0x5
 13334 3a6b 03       		.byte	0x3
 13335 3a6c 00000000 		.4byte	m_sample_int
 13336 3a70 32       		.uleb128 0x32
 13337 3a71 18140000 		.4byte	.LASF892
 13338 3a75 01       		.byte	0x1
 13339 3a76 51       		.byte	0x51
 13340 3a77 CB110000 		.4byte	0x11cb
 13341 3a7b 05       		.uleb128 0x5
 13342 3a7c 03       		.byte	0x3
 13343 3a7d 00000000 		.4byte	m_sample_mode
 13344 3a81 32       		.uleb128 0x32
 13345 3a82 84220000 		.4byte	.LASF893
 13346 3a86 01       		.byte	0x1
 13347 3a87 52       		.byte	0x52
 13348 3a88 CB110000 		.4byte	0x11cb
 13349 3a8c 05       		.uleb128 0x5
 13350 3a8d 03       		.byte	0x3
 13351 3a8e 00000000 		.4byte	m_sample_mode_last
 13352 3a92 32       		.uleb128 0x32
 13353 3a93 E92E0000 		.4byte	.LASF894
 13354 3a97 01       		.byte	0x1
 13355 3a98 53       		.byte	0x53
 13356 3a99 B8000000 		.4byte	0xb8
 13357 3a9d 05       		.uleb128 0x5
 13358 3a9e 03       		.byte	0x3
 13359 3a9f 00000000 		.4byte	m_sample_now
 13360 3aa3 32       		.uleb128 0x32
ARM GAS  /tmp/ccETYwEL.s 			page 237


 13361 3aa4 EB2D0000 		.4byte	.LASF895
 13362 3aa8 01       		.byte	0x1
 13363 3aa9 54       		.byte	0x54
 13364 3aaa B8000000 		.4byte	0xb8
 13365 3aae 05       		.uleb128 0x5
 13366 3aaf 03       		.byte	0x3
 13367 3ab0 00000000 		.4byte	m_sample_trigger
 13368 3ab4 32       		.uleb128 0x32
 13369 3ab5 6A190000 		.4byte	.LASF896
 13370 3ab9 01       		.byte	0x1
 13371 3aba 55       		.byte	0x55
 13372 3abb 47110000 		.4byte	0x1147
 13373 3abf 05       		.uleb128 0x5
 13374 3ac0 03       		.byte	0x3
 13375 3ac1 00000000 		.4byte	m_last_adc_duration_sample
 13376 3ac5 32       		.uleb128 0x32
 13377 3ac6 D81E0000 		.4byte	.LASF897
 13378 3aca 01       		.byte	0x1
 13379 3acb 5B       		.byte	0x5b
 13380 3acc DC310000 		.4byte	0x31dc
 13381 3ad0 05       		.uleb128 0x5
 13382 3ad1 03       		.byte	0x3
 13383 3ad2 00000000 		.4byte	pwn_done_func
 13384 3ad6 11       		.uleb128 0x11
 13385 3ad7 C70A0000 		.4byte	0xac7
 13386 3adb E63A0000 		.4byte	0x3ae6
 13387 3adf 12       		.uleb128 0x12
 13388 3ae0 BD000000 		.4byte	0xbd
 13389 3ae4 B2       		.byte	0xb2
 13390 3ae5 00       		.byte	0
 13391 3ae6 32       		.uleb128 0x32
 13392 3ae7 E0050000 		.4byte	.LASF898
 13393 3aeb 01       		.byte	0x1
 13394 3aec 5E       		.byte	0x5e
 13395 3aed D63A0000 		.4byte	0x3ad6
 13396 3af1 05       		.uleb128 0x5
 13397 3af2 03       		.byte	0x3
 13398 3af3 00000000 		.4byte	timer_thread_wa
 13399 3af7 32       		.uleb128 0x32
 13400 3af8 06150000 		.4byte	.LASF899
 13401 3afc 01       		.byte	0x1
 13402 3afd 60       		.byte	0x60
 13403 3afe D63A0000 		.4byte	0x3ad6
 13404 3b02 05       		.uleb128 0x5
 13405 3b03 03       		.byte	0x3
 13406 3b04 00000000 		.4byte	sample_send_thread_wa
 13407 3b08 32       		.uleb128 0x32
 13408 3b09 C53C0000 		.4byte	.LASF900
 13409 3b0d 01       		.byte	0x1
 13410 3b0e 62       		.byte	0x62
 13411 3b0f E2020000 		.4byte	0x2e2
 13412 3b13 05       		.uleb128 0x5
 13413 3b14 03       		.byte	0x3
 13414 3b15 00000000 		.4byte	sample_send_tp
 13415 3b19 33       		.uleb128 0x33
 13416 3b1a 8E300000 		.4byte	.LASF904
 13417 3b1e 01       		.byte	0x1
ARM GAS  /tmp/ccETYwEL.s 			page 238


 13418 3b1f 1306     		.2byte	0x613
 13419 3b21 00000000 		.4byte	.LFB312
 13420 3b25 40020000 		.4byte	.LFE312-.LFB312
 13421 3b29 01       		.uleb128 0x1
 13422 3b2a 9C       		.byte	0x9c
 13423 3b2b D23C0000 		.4byte	0x3cd2
 13424 3b2f 34       		.uleb128 0x34
 13425 3b30 61726700 		.ascii	"arg\000"
 13426 3b34 01       		.byte	0x1
 13427 3b35 1306     		.2byte	0x613
 13428 3b37 BF030000 		.4byte	0x3bf
 13429 3b3b 00000000 		.4byte	.LLST0
 13430 3b3f 35       		.uleb128 0x35
 13431 3b40 20000000 		.4byte	.Ldebug_ranges0+0x20
 13432 3b44 B73C0000 		.4byte	0x3cb7
 13433 3b48 36       		.uleb128 0x36
 13434 3b49 6C656E00 		.ascii	"len\000"
 13435 3b4d 01       		.byte	0x1
 13436 3b4e 1D06     		.2byte	0x61d
 13437 3b50 B1000000 		.4byte	0xb1
 13438 3b54 21000000 		.4byte	.LLST2
 13439 3b58 37       		.uleb128 0x37
 13440 3b59 60320000 		.4byte	.LASF150
 13441 3b5d 01       		.byte	0x1
 13442 3b5e 1E06     		.2byte	0x61e
 13443 3b60 B1000000 		.4byte	0xb1
 13444 3b64 4E000000 		.4byte	.LLST3
 13445 3b68 35       		.uleb128 0x35
 13446 3b69 38000000 		.4byte	.Ldebug_ranges0+0x38
 13447 3b6d A73C0000 		.4byte	0x3ca7
 13448 3b71 36       		.uleb128 0x36
 13449 3b72 6900     		.ascii	"i\000"
 13450 3b74 01       		.byte	0x1
 13451 3b75 3206     		.2byte	0x632
 13452 3b77 B1000000 		.4byte	0xb1
 13453 3b7b 79000000 		.4byte	.LLST4
 13454 3b7f 38       		.uleb128 0x38
 13455 3b80 60000000 		.4byte	.Ldebug_ranges0+0x60
 13456 3b84 39       		.uleb128 0x39
 13457 3b85 5A2A0000 		.4byte	.LASF901
 13458 3b89 01       		.byte	0x1
 13459 3b8a 3306     		.2byte	0x633
 13460 3b8c D23C0000 		.4byte	0x3cd2
 13461 3b90 03       		.uleb128 0x3
 13462 3b91 91       		.byte	0x91
 13463 3b92 987F     		.sleb128 -104
 13464 3b94 39       		.uleb128 0x39
 13465 3b95 D1060000 		.4byte	.LASF902
 13466 3b99 01       		.byte	0x1
 13467 3b9a 3406     		.2byte	0x634
 13468 3b9c 0E010000 		.4byte	0x10e
 13469 3ba0 03       		.uleb128 0x3
 13470 3ba1 91       		.byte	0x91
 13471 3ba2 947F     		.sleb128 -108
 13472 3ba4 37       		.uleb128 0x37
 13473 3ba5 9F1A0000 		.4byte	.LASF903
 13474 3ba9 01       		.byte	0x1
ARM GAS  /tmp/ccETYwEL.s 			page 239


 13475 3baa 3506     		.2byte	0x635
 13476 3bac B1000000 		.4byte	0xb1
 13477 3bb0 BC000000 		.4byte	.LLST5
 13478 3bb4 3A       		.uleb128 0x3a
 13479 3bb5 A0000000 		.4byte	.LVL9
 13480 3bb9 46570000 		.4byte	0x5746
 13481 3bbd D03B0000 		.4byte	0x3bd0
 13482 3bc1 3B       		.uleb128 0x3b
 13483 3bc2 01       		.uleb128 0x1
 13484 3bc3 50       		.byte	0x50
 13485 3bc4 03       		.uleb128 0x3
 13486 3bc5 91       		.byte	0x91
 13487 3bc6 987F     		.sleb128 -104
 13488 3bc8 3B       		.uleb128 0x3b
 13489 3bc9 01       		.uleb128 0x1
 13490 3bca 51       		.byte	0x51
 13491 3bcb 03       		.uleb128 0x3
 13492 3bcc 91       		.byte	0x91
 13493 3bcd 947F     		.sleb128 -108
 13494 3bcf 00       		.byte	0
 13495 3bd0 3A       		.uleb128 0x3a
 13496 3bd1 BC000000 		.4byte	.LVL10
 13497 3bd5 46570000 		.4byte	0x5746
 13498 3bd9 EC3B0000 		.4byte	0x3bec
 13499 3bdd 3B       		.uleb128 0x3b
 13500 3bde 01       		.uleb128 0x1
 13501 3bdf 50       		.byte	0x50
 13502 3be0 03       		.uleb128 0x3
 13503 3be1 91       		.byte	0x91
 13504 3be2 987F     		.sleb128 -104
 13505 3be4 3B       		.uleb128 0x3b
 13506 3be5 01       		.uleb128 0x1
 13507 3be6 51       		.byte	0x51
 13508 3be7 03       		.uleb128 0x3
 13509 3be8 91       		.byte	0x91
 13510 3be9 947F     		.sleb128 -108
 13511 3beb 00       		.byte	0
 13512 3bec 3A       		.uleb128 0x3a
 13513 3bed E8000000 		.4byte	.LVL12
 13514 3bf1 46570000 		.4byte	0x5746
 13515 3bf5 083C0000 		.4byte	0x3c08
 13516 3bf9 3B       		.uleb128 0x3b
 13517 3bfa 01       		.uleb128 0x1
 13518 3bfb 50       		.byte	0x50
 13519 3bfc 03       		.uleb128 0x3
 13520 3bfd 91       		.byte	0x91
 13521 3bfe 987F     		.sleb128 -104
 13522 3c00 3B       		.uleb128 0x3b
 13523 3c01 01       		.uleb128 0x1
 13524 3c02 51       		.byte	0x51
 13525 3c03 03       		.uleb128 0x3
 13526 3c04 91       		.byte	0x91
 13527 3c05 947F     		.sleb128 -108
 13528 3c07 00       		.byte	0
 13529 3c08 3A       		.uleb128 0x3a
 13530 3c09 0E010000 		.4byte	.LVL13
 13531 3c0d 46570000 		.4byte	0x5746
ARM GAS  /tmp/ccETYwEL.s 			page 240


 13532 3c11 243C0000 		.4byte	0x3c24
 13533 3c15 3B       		.uleb128 0x3b
 13534 3c16 01       		.uleb128 0x1
 13535 3c17 50       		.byte	0x50
 13536 3c18 03       		.uleb128 0x3
 13537 3c19 91       		.byte	0x91
 13538 3c1a 987F     		.sleb128 -104
 13539 3c1c 3B       		.uleb128 0x3b
 13540 3c1d 01       		.uleb128 0x1
 13541 3c1e 51       		.byte	0x51
 13542 3c1f 03       		.uleb128 0x3
 13543 3c20 91       		.byte	0x91
 13544 3c21 947F     		.sleb128 -108
 13545 3c23 00       		.byte	0
 13546 3c24 3A       		.uleb128 0x3a
 13547 3c25 34010000 		.4byte	.LVL14
 13548 3c29 46570000 		.4byte	0x5746
 13549 3c2d 403C0000 		.4byte	0x3c40
 13550 3c31 3B       		.uleb128 0x3b
 13551 3c32 01       		.uleb128 0x1
 13552 3c33 50       		.byte	0x50
 13553 3c34 03       		.uleb128 0x3
 13554 3c35 91       		.byte	0x91
 13555 3c36 987F     		.sleb128 -104
 13556 3c38 3B       		.uleb128 0x3b
 13557 3c39 01       		.uleb128 0x1
 13558 3c3a 51       		.byte	0x51
 13559 3c3b 03       		.uleb128 0x3
 13560 3c3c 91       		.byte	0x91
 13561 3c3d 947F     		.sleb128 -108
 13562 3c3f 00       		.byte	0
 13563 3c40 3A       		.uleb128 0x3a
 13564 3c41 5A010000 		.4byte	.LVL15
 13565 3c45 46570000 		.4byte	0x5746
 13566 3c49 5C3C0000 		.4byte	0x3c5c
 13567 3c4d 3B       		.uleb128 0x3b
 13568 3c4e 01       		.uleb128 0x1
 13569 3c4f 50       		.byte	0x50
 13570 3c50 03       		.uleb128 0x3
 13571 3c51 91       		.byte	0x91
 13572 3c52 987F     		.sleb128 -104
 13573 3c54 3B       		.uleb128 0x3b
 13574 3c55 01       		.uleb128 0x1
 13575 3c56 51       		.byte	0x51
 13576 3c57 03       		.uleb128 0x3
 13577 3c58 91       		.byte	0x91
 13578 3c59 947F     		.sleb128 -108
 13579 3c5b 00       		.byte	0
 13580 3c5c 3A       		.uleb128 0x3a
 13581 3c5d 78010000 		.4byte	.LVL16
 13582 3c61 46570000 		.4byte	0x5746
 13583 3c65 783C0000 		.4byte	0x3c78
 13584 3c69 3B       		.uleb128 0x3b
 13585 3c6a 01       		.uleb128 0x1
 13586 3c6b 50       		.byte	0x50
 13587 3c6c 03       		.uleb128 0x3
 13588 3c6d 91       		.byte	0x91
ARM GAS  /tmp/ccETYwEL.s 			page 241


 13589 3c6e 987F     		.sleb128 -104
 13590 3c70 3B       		.uleb128 0x3b
 13591 3c71 01       		.uleb128 0x1
 13592 3c72 51       		.byte	0x51
 13593 3c73 03       		.uleb128 0x3
 13594 3c74 91       		.byte	0x91
 13595 3c75 947F     		.sleb128 -108
 13596 3c77 00       		.byte	0
 13597 3c78 3A       		.uleb128 0x3a
 13598 3c79 9A010000 		.4byte	.LVL17
 13599 3c7d 46570000 		.4byte	0x5746
 13600 3c81 943C0000 		.4byte	0x3c94
 13601 3c85 3B       		.uleb128 0x3b
 13602 3c86 01       		.uleb128 0x1
 13603 3c87 50       		.byte	0x50
 13604 3c88 03       		.uleb128 0x3
 13605 3c89 91       		.byte	0x91
 13606 3c8a 987F     		.sleb128 -104
 13607 3c8c 3B       		.uleb128 0x3b
 13608 3c8d 01       		.uleb128 0x1
 13609 3c8e 51       		.byte	0x51
 13610 3c8f 03       		.uleb128 0x3
 13611 3c90 91       		.byte	0x91
 13612 3c91 947F     		.sleb128 -108
 13613 3c93 00       		.byte	0
 13614 3c94 3C       		.uleb128 0x3c
 13615 3c95 C0010000 		.4byte	.LVL20
 13616 3c99 51570000 		.4byte	0x5751
 13617 3c9d 3B       		.uleb128 0x3b
 13618 3c9e 01       		.uleb128 0x1
 13619 3c9f 50       		.byte	0x50
 13620 3ca0 03       		.uleb128 0x3
 13621 3ca1 91       		.byte	0x91
 13622 3ca2 987F     		.sleb128 -104
 13623 3ca4 00       		.byte	0
 13624 3ca5 00       		.byte	0
 13625 3ca6 00       		.byte	0
 13626 3ca7 3C       		.uleb128 0x3c
 13627 3ca8 3A000000 		.4byte	.LVL3
 13628 3cac 5C570000 		.4byte	0x575c
 13629 3cb0 3B       		.uleb128 0x3b
 13630 3cb1 01       		.uleb128 0x1
 13631 3cb2 50       		.byte	0x50
 13632 3cb3 01       		.uleb128 0x1
 13633 3cb4 31       		.byte	0x31
 13634 3cb5 00       		.byte	0
 13635 3cb6 00       		.byte	0
 13636 3cb7 3D       		.uleb128 0x3d
 13637 3cb8 37500000 		.4byte	0x5037
 13638 3cbc 04000000 		.4byte	.LBB117
 13639 3cc0 00000000 		.4byte	.Ldebug_ranges0+0
 13640 3cc4 01       		.byte	0x1
 13641 3cc5 1606     		.2byte	0x616
 13642 3cc7 3E       		.uleb128 0x3e
 13643 3cc8 43500000 		.4byte	0x5043
 13644 3ccc 06010000 		.4byte	.LLST1
 13645 3cd0 00       		.byte	0
ARM GAS  /tmp/ccETYwEL.s 			page 242


 13646 3cd1 00       		.byte	0
 13647 3cd2 11       		.uleb128 0x11
 13648 3cd3 D9000000 		.4byte	0xd9
 13649 3cd7 E23C0000 		.4byte	0x3ce2
 13650 3cdb 12       		.uleb128 0x12
 13651 3cdc BD000000 		.4byte	0xbd
 13652 3ce0 27       		.byte	0x27
 13653 3ce1 00       		.byte	0
 13654 3ce2 33       		.uleb128 0x33
 13655 3ce3 8F040000 		.4byte	.LASF905
 13656 3ce7 01       		.byte	0x1
 13657 3ce8 E205     		.2byte	0x5e2
 13658 3cea 00000000 		.4byte	.LFB311
 13659 3cee 74000000 		.4byte	.LFE311-.LFB311
 13660 3cf2 01       		.uleb128 0x1
 13661 3cf3 9C       		.byte	0x9c
 13662 3cf4 5F3D0000 		.4byte	0x3d5f
 13663 3cf8 34       		.uleb128 0x34
 13664 3cf9 61726700 		.ascii	"arg\000"
 13665 3cfd 01       		.byte	0x1
 13666 3cfe E205     		.2byte	0x5e2
 13667 3d00 BF030000 		.4byte	0x3bf
 13668 3d04 1E010000 		.4byte	.LLST47
 13669 3d08 3F       		.uleb128 0x3f
 13670 3d09 37500000 		.4byte	0x5037
 13671 3d0d 00000000 		.4byte	.LBB153
 13672 3d11 E0000000 		.4byte	.Ldebug_ranges0+0xe0
 13673 3d15 01       		.byte	0x1
 13674 3d16 E505     		.2byte	0x5e5
 13675 3d18 293D0000 		.4byte	0x3d29
 13676 3d1c 40       		.uleb128 0x40
 13677 3d1d 43500000 		.4byte	0x5043
 13678 3d21 06       		.uleb128 0x6
 13679 3d22 03       		.byte	0x3
 13680 3d23 00000000 		.4byte	.LC2
 13681 3d27 9F       		.byte	0x9f
 13682 3d28 00       		.byte	0
 13683 3d29 41       		.uleb128 0x41
 13684 3d2a 5B500000 		.4byte	0x505b
 13685 3d2e 58000000 		.4byte	.LBB157
 13686 3d32 02000000 		.4byte	.LBE157-.LBB157
 13687 3d36 01       		.byte	0x1
 13688 3d37 0606     		.2byte	0x606
 13689 3d39 42       		.uleb128 0x42
 13690 3d3a 22000000 		.4byte	.LVL249
 13691 3d3e D0510000 		.4byte	0x51d0
 13692 3d42 3A       		.uleb128 0x3a
 13693 3d43 3A000000 		.4byte	.LVL250
 13694 3d47 67570000 		.4byte	0x5767
 13695 3d4b 553D0000 		.4byte	0x3d55
 13696 3d4f 3B       		.uleb128 0x3b
 13697 3d50 01       		.uleb128 0x1
 13698 3d51 50       		.byte	0x50
 13699 3d52 01       		.uleb128 0x1
 13700 3d53 3A       		.byte	0x3a
 13701 3d54 00       		.byte	0
 13702 3d55 42       		.uleb128 0x42
ARM GAS  /tmp/ccETYwEL.s 			page 243


 13703 3d56 4E000000 		.4byte	.LVL251
 13704 3d5a D0510000 		.4byte	0x51d0
 13705 3d5e 00       		.byte	0
 13706 3d5f 43       		.uleb128 0x43
 13707 3d60 31210000 		.4byte	.LASF1005
 13708 3d64 01       		.byte	0x1
 13709 3d65 3605     		.2byte	0x536
 13710 3d67 01       		.byte	0x1
 13711 3d68 C53E0000 		.4byte	0x3ec5
 13712 3d6c 44       		.uleb128 0x44
 13713 3d6d BE240000 		.4byte	.LASF945
 13714 3d71 01       		.byte	0x1
 13715 3d72 3605     		.2byte	0x536
 13716 3d74 C53E0000 		.4byte	0x3ec5
 13717 3d78 45       		.uleb128 0x45
 13718 3d79 E71F0000 		.4byte	.LASF906
 13719 3d7d 01       		.byte	0x1
 13720 3d7e 3705     		.2byte	0x537
 13721 3d80 4C110000 		.4byte	0x114c
 13722 3d84 45       		.uleb128 0x45
 13723 3d85 C41F0000 		.4byte	.LASF907
 13724 3d89 01       		.byte	0x1
 13725 3d8a 3805     		.2byte	0x538
 13726 3d8c 4C110000 		.4byte	0x114c
 13727 3d90 45       		.uleb128 0x45
 13728 3d91 16020000 		.4byte	.LASF908
 13729 3d95 01       		.byte	0x1
 13730 3d96 3E05     		.2byte	0x53e
 13731 3d98 25000000 		.4byte	0x25
 13732 3d9c 45       		.uleb128 0x45
 13733 3d9d 28040000 		.4byte	.LASF909
 13734 3da1 01       		.byte	0x1
 13735 3da2 3F05     		.2byte	0x53f
 13736 3da4 25000000 		.4byte	0x25
 13737 3da8 45       		.uleb128 0x45
 13738 3da9 2E2B0000 		.4byte	.LASF910
 13739 3dad 01       		.byte	0x1
 13740 3dae 5805     		.2byte	0x558
 13741 3db0 25000000 		.4byte	0x25
 13742 3db4 45       		.uleb128 0x45
 13743 3db5 C12E0000 		.4byte	.LASF911
 13744 3db9 01       		.byte	0x1
 13745 3dba 5905     		.2byte	0x559
 13746 3dbc 25000000 		.4byte	0x25
 13747 3dc0 45       		.uleb128 0x45
 13748 3dc1 4A270000 		.4byte	.LASF912
 13749 3dc5 01       		.byte	0x1
 13750 3dc6 7305     		.2byte	0x573
 13751 3dc8 4C110000 		.4byte	0x114c
 13752 3dcc 45       		.uleb128 0x45
 13753 3dcd E02B0000 		.4byte	.LASF913
 13754 3dd1 01       		.byte	0x1
 13755 3dd2 7405     		.2byte	0x574
 13756 3dd4 4C110000 		.4byte	0x114c
 13757 3dd8 45       		.uleb128 0x45
 13758 3dd9 D6020000 		.4byte	.LASF914
 13759 3ddd 01       		.byte	0x1
ARM GAS  /tmp/ccETYwEL.s 			page 244


 13760 3dde 7505     		.2byte	0x575
 13761 3de0 4C110000 		.4byte	0x114c
 13762 3de4 45       		.uleb128 0x45
 13763 3de5 A9140000 		.4byte	.LASF915
 13764 3de9 01       		.byte	0x1
 13765 3dea 7605     		.2byte	0x576
 13766 3dec 4C110000 		.4byte	0x114c
 13767 3df0 45       		.uleb128 0x45
 13768 3df1 713A0000 		.4byte	.LASF916
 13769 3df5 01       		.byte	0x1
 13770 3df6 7805     		.2byte	0x578
 13771 3df8 25000000 		.4byte	0x25
 13772 3dfc 45       		.uleb128 0x45
 13773 3dfd 9A060000 		.4byte	.LASF917
 13774 3e01 01       		.byte	0x1
 13775 3e02 8205     		.2byte	0x582
 13776 3e04 25000000 		.4byte	0x25
 13777 3e08 45       		.uleb128 0x45
 13778 3e09 0B230000 		.4byte	.LASF918
 13779 3e0d 01       		.byte	0x1
 13780 3e0e 8D05     		.2byte	0x58d
 13781 3e10 25000000 		.4byte	0x25
 13782 3e14 45       		.uleb128 0x45
 13783 3e15 DF160000 		.4byte	.LASF919
 13784 3e19 01       		.byte	0x1
 13785 3e1a 8E05     		.2byte	0x58e
 13786 3e1c 4C110000 		.4byte	0x114c
 13787 3e20 45       		.uleb128 0x45
 13788 3e21 41080000 		.4byte	.LASF920
 13789 3e25 01       		.byte	0x1
 13790 3e26 8F05     		.2byte	0x58f
 13791 3e28 4C110000 		.4byte	0x114c
 13792 3e2c 45       		.uleb128 0x45
 13793 3e2d AD290000 		.4byte	.LASF921
 13794 3e31 01       		.byte	0x1
 13795 3e32 9905     		.2byte	0x599
 13796 3e34 25000000 		.4byte	0x25
 13797 3e38 45       		.uleb128 0x45
 13798 3e39 53370000 		.4byte	.LASF922
 13799 3e3d 01       		.byte	0x1
 13800 3e3e 9A05     		.2byte	0x59a
 13801 3e40 4C110000 		.4byte	0x114c
 13802 3e44 45       		.uleb128 0x45
 13803 3e45 8A110000 		.4byte	.LASF923
 13804 3e49 01       		.byte	0x1
 13805 3e4a 9B05     		.2byte	0x59b
 13806 3e4c 4C110000 		.4byte	0x114c
 13807 3e50 45       		.uleb128 0x45
 13808 3e51 122A0000 		.4byte	.LASF924
 13809 3e55 01       		.byte	0x1
 13810 3e56 A405     		.2byte	0x5a4
 13811 3e58 25000000 		.4byte	0x25
 13812 3e5c 45       		.uleb128 0x45
 13813 3e5d A2140000 		.4byte	.LASF925
 13814 3e61 01       		.byte	0x1
 13815 3e62 A505     		.2byte	0x5a5
 13816 3e64 25000000 		.4byte	0x25
ARM GAS  /tmp/ccETYwEL.s 			page 245


 13817 3e68 45       		.uleb128 0x45
 13818 3e69 462E0000 		.4byte	.LASF926
 13819 3e6d 01       		.byte	0x1
 13820 3e6e B805     		.2byte	0x5b8
 13821 3e70 25000000 		.4byte	0x25
 13822 3e74 45       		.uleb128 0x45
 13823 3e75 E6310000 		.4byte	.LASF927
 13824 3e79 01       		.byte	0x1
 13825 3e7a C305     		.2byte	0x5c3
 13826 3e7c 4C110000 		.4byte	0x114c
 13827 3e80 45       		.uleb128 0x45
 13828 3e81 F8230000 		.4byte	.LASF928
 13829 3e85 01       		.byte	0x1
 13830 3e86 C405     		.2byte	0x5c4
 13831 3e88 4C110000 		.4byte	0x114c
 13832 3e8c 45       		.uleb128 0x45
 13833 3e8d F11B0000 		.4byte	.LASF929
 13834 3e91 01       		.byte	0x1
 13835 3e92 C605     		.2byte	0x5c6
 13836 3e94 4C110000 		.4byte	0x114c
 13837 3e98 45       		.uleb128 0x45
 13838 3e99 392B0000 		.4byte	.LASF930
 13839 3e9d 01       		.byte	0x1
 13840 3e9e C705     		.2byte	0x5c7
 13841 3ea0 4C110000 		.4byte	0x114c
 13842 3ea4 46       		.uleb128 0x46
 13843 3ea5 B63E0000 		.4byte	0x3eb6
 13844 3ea9 45       		.uleb128 0x45
 13845 3eaa 52090000 		.4byte	.LASF931
 13846 3eae 01       		.byte	0x1
 13847 3eaf 4705     		.2byte	0x547
 13848 3eb1 25000000 		.4byte	0x25
 13849 3eb5 00       		.byte	0
 13850 3eb6 47       		.uleb128 0x47
 13851 3eb7 45       		.uleb128 0x45
 13852 3eb8 52090000 		.4byte	.LASF931
 13853 3ebc 01       		.byte	0x1
 13854 3ebd 6105     		.2byte	0x561
 13855 3ebf 25000000 		.4byte	0x25
 13856 3ec3 00       		.byte	0
 13857 3ec4 00       		.byte	0
 13858 3ec5 0B       		.uleb128 0xb
 13859 3ec6 04       		.byte	0x4
 13860 3ec7 F1160000 		.4byte	0x16f1
 13861 3ecb 48       		.uleb128 0x48
 13862 3ecc FD210000 		.4byte	.LASF932
 13863 3ed0 01       		.byte	0x1
 13864 3ed1 2105     		.2byte	0x521
 13865 3ed3 00000000 		.4byte	.LFB309
 13866 3ed7 14000000 		.4byte	.LFE309-.LFB309
 13867 3edb 01       		.uleb128 0x1
 13868 3edc 9C       		.byte	0x9c
 13869 3edd EB3E0000 		.4byte	0x3eeb
 13870 3ee1 49       		.uleb128 0x49
 13871 3ee2 0E000000 		.4byte	.LVL458
 13872 3ee6 72570000 		.4byte	0x5772
 13873 3eea 00       		.byte	0
ARM GAS  /tmp/ccETYwEL.s 			page 246


 13874 3eeb 4A       		.uleb128 0x4a
 13875 3eec 67320000 		.4byte	.LASF933
 13876 3ef0 01       		.byte	0x1
 13877 3ef1 3804     		.2byte	0x438
 13878 3ef3 00000000 		.4byte	.LFB308
 13879 3ef7 10070000 		.4byte	.LFE308-.LFB308
 13880 3efb 01       		.uleb128 0x1
 13881 3efc 9C       		.byte	0x9c
 13882 3efd 4A440000 		.4byte	0x444a
 13883 3f01 37       		.uleb128 0x37
 13884 3f02 2B3A0000 		.4byte	.LASF934
 13885 3f06 01       		.byte	0x1
 13886 3f07 3B04     		.2byte	0x43b
 13887 3f09 4C110000 		.4byte	0x114c
 13888 3f0d 3F010000 		.4byte	.LLST72
 13889 3f11 39       		.uleb128 0x39
 13890 3f12 F8030000 		.4byte	.LASF935
 13891 3f16 01       		.byte	0x1
 13892 3f17 3E04     		.2byte	0x43e
 13893 3f19 B1000000 		.4byte	0xb1
 13894 3f1d 05       		.uleb128 0x5
 13895 3f1e 03       		.byte	0x3
 13896 3f1f 00000000 		.4byte	wrong_voltage_iterations.12096
 13897 3f23 37       		.uleb128 0x37
 13898 3f24 83200000 		.4byte	.LASF408
 13899 3f28 01       		.byte	0x1
 13900 3f29 5504     		.2byte	0x455
 13901 3f2b 4C110000 		.4byte	0x114c
 13902 3f2f 77010000 		.4byte	.LLST73
 13903 3f33 37       		.uleb128 0x37
 13904 3f34 C20A0000 		.4byte	.LASF936
 13905 3f38 01       		.byte	0x1
 13906 3f39 5604     		.2byte	0x456
 13907 3f3b 4C110000 		.4byte	0x114c
 13908 3f3f BB010000 		.4byte	.LLST74
 13909 3f43 37       		.uleb128 0x37
 13910 3f44 102D0000 		.4byte	.LASF937
 13911 3f48 01       		.byte	0x1
 13912 3f49 6104     		.2byte	0x461
 13913 3f4b 25000000 		.4byte	0x25
 13914 3f4f F3010000 		.4byte	.LLST75
 13915 3f53 37       		.uleb128 0x37
 13916 3f54 9F010000 		.4byte	.LASF938
 13917 3f58 01       		.byte	0x1
 13918 3f59 6204     		.2byte	0x462
 13919 3f5b 25000000 		.4byte	0x25
 13920 3f5f 4F020000 		.4byte	.LLST76
 13921 3f63 37       		.uleb128 0x37
 13922 3f64 7C050000 		.4byte	.LASF939
 13923 3f68 01       		.byte	0x1
 13924 3f69 7A04     		.2byte	0x47a
 13925 3f6b 4C110000 		.4byte	0x114c
 13926 3f6f 93020000 		.4byte	.LLST77
 13927 3f73 37       		.uleb128 0x37
 13928 3f74 F6210000 		.4byte	.LASF940
 13929 3f78 01       		.byte	0x1
 13930 3f79 9104     		.2byte	0x491
ARM GAS  /tmp/ccETYwEL.s 			page 247


 13931 3f7b B9160000 		.4byte	0x16b9
 13932 3f7f 67030000 		.4byte	.LLST78
 13933 3f83 35       		.uleb128 0x35
 13934 3f84 78010000 		.4byte	.Ldebug_ranges0+0x178
 13935 3f88 B13F0000 		.4byte	0x3fb1
 13936 3f8c 39       		.uleb128 0x39
 13937 3f8d 52280000 		.4byte	.LASF941
 13938 3f91 01       		.byte	0x1
 13939 3f92 7D04     		.2byte	0x47d
 13940 3f94 25000000 		.4byte	0x25
 13941 3f98 05       		.uleb128 0x5
 13942 3f99 03       		.byte	0x3
 13943 3f9a 00000000 		.4byte	curr_diff_sum.12102
 13944 3f9e 39       		.uleb128 0x39
 13945 3f9f 13370000 		.4byte	.LASF942
 13946 3fa3 01       		.byte	0x1
 13947 3fa4 7E04     		.2byte	0x47e
 13948 3fa6 25000000 		.4byte	0x25
 13949 3faa 05       		.uleb128 0x5
 13950 3fab 03       		.byte	0x3
 13951 3fac 00000000 		.4byte	curr_diff_samples.12103
 13952 3fb0 00       		.byte	0
 13953 3fb1 35       		.uleb128 0x35
 13954 3fb2 40020000 		.4byte	.Ldebug_ranges0+0x240
 13955 3fb6 8E400000 		.4byte	0x408e
 13956 3fba 37       		.uleb128 0x37
 13957 3fbb 9A090000 		.4byte	.LASF943
 13958 3fbf 01       		.byte	0x1
 13959 3fc0 B204     		.2byte	0x4b2
 13960 3fc2 B1000000 		.4byte	0xb1
 13961 3fc6 0A040000 		.4byte	.LLST86
 13962 3fca 4B       		.uleb128 0x4b
 13963 3fcb 70500000 		.4byte	0x5070
 13964 3fcf AA060000 		.4byte	.LBB219
 13965 3fd3 06000000 		.4byte	.LBE219-.LBB219
 13966 3fd7 01       		.byte	0x1
 13967 3fd8 BF04     		.2byte	0x4bf
 13968 3fda 1B400000 		.4byte	0x401b
 13969 3fde 4C       		.uleb128 0x4c
 13970 3fdf 82500000 		.4byte	0x5082
 13971 3fe3 AA060000 		.4byte	.LBB220
 13972 3fe7 06000000 		.4byte	.LBE220-.LBB220
 13973 3feb 2D       		.byte	0x2d
 13974 3fec 8401     		.2byte	0x184
 13975 3fee 4C       		.uleb128 0x4c
 13976 3fef 94500000 		.4byte	0x5094
 13977 3ff3 AA060000 		.4byte	.LBB221
 13978 3ff7 06000000 		.4byte	.LBE221-.LBB221
 13979 3ffb 0F       		.byte	0xf
 13980 3ffc DB01     		.2byte	0x1db
 13981 3ffe 4C       		.uleb128 0x4c
 13982 3fff 9D500000 		.4byte	0x509d
 13983 4003 AA060000 		.4byte	.LBB222
 13984 4007 06000000 		.4byte	.LBE222-.LBB222
 13985 400b 0F       		.byte	0xf
 13986 400c BF01     		.2byte	0x1bf
 13987 400e 3E       		.uleb128 0x3e
ARM GAS  /tmp/ccETYwEL.s 			page 248


 13988 400f AA500000 		.4byte	0x50aa
 13989 4013 5D040000 		.4byte	.LLST87
 13990 4017 00       		.byte	0
 13991 4018 00       		.byte	0
 13992 4019 00       		.byte	0
 13993 401a 00       		.byte	0
 13994 401b 4B       		.uleb128 0x4b
 13995 401c 67500000 		.4byte	0x5067
 13996 4020 BA060000 		.4byte	.LBB224
 13997 4024 08000000 		.4byte	.LBE224-.LBB224
 13998 4028 01       		.byte	0x1
 13999 4029 C104     		.2byte	0x4c1
 14000 402b 6C400000 		.4byte	0x406c
 14001 402f 4C       		.uleb128 0x4c
 14002 4030 79500000 		.4byte	0x5079
 14003 4034 BA060000 		.4byte	.LBB225
 14004 4038 08000000 		.4byte	.LBE225-.LBB225
 14005 403c 2D       		.byte	0x2d
 14006 403d 9A01     		.2byte	0x19a
 14007 403f 4C       		.uleb128 0x4c
 14008 4040 8B500000 		.4byte	0x508b
 14009 4044 BA060000 		.4byte	.LBB226
 14010 4048 08000000 		.4byte	.LBE226-.LBB226
 14011 404c 0F       		.byte	0xf
 14012 404d E601     		.2byte	0x1e6
 14013 404f 4C       		.uleb128 0x4c
 14014 4050 9D500000 		.4byte	0x509d
 14015 4054 BA060000 		.4byte	.LBB227
 14016 4058 08000000 		.4byte	.LBE227-.LBB227
 14017 405c 0F       		.byte	0xf
 14018 405d CD01     		.2byte	0x1cd
 14019 405f 3E       		.uleb128 0x3e
 14020 4060 AA500000 		.4byte	0x50aa
 14021 4064 72040000 		.4byte	.LLST88
 14022 4068 00       		.byte	0
 14023 4069 00       		.byte	0
 14024 406a 00       		.byte	0
 14025 406b 00       		.byte	0
 14026 406c 42       		.uleb128 0x42
 14027 406d DA040000 		.4byte	.LVL433
 14028 4071 FA4C0000 		.4byte	0x4cfa
 14029 4075 42       		.uleb128 0x42
 14030 4076 18050000 		.4byte	.LVL439
 14031 407a FA4C0000 		.4byte	0x4cfa
 14032 407e 3C       		.uleb128 0x3c
 14033 407f BA060000 		.4byte	.LVL452
 14034 4083 7D570000 		.4byte	0x577d
 14035 4087 3B       		.uleb128 0x3b
 14036 4088 01       		.uleb128 0x1
 14037 4089 51       		.byte	0x51
 14038 408a 01       		.uleb128 0x1
 14039 408b 31       		.byte	0x31
 14040 408c 00       		.byte	0
 14041 408d 00       		.byte	0
 14042 408e 35       		.uleb128 0x35
 14043 408f A8010000 		.4byte	.Ldebug_ranges0+0x1a8
 14044 4093 59410000 		.4byte	0x4159
ARM GAS  /tmp/ccETYwEL.s 			page 249


 14045 4097 37       		.uleb128 0x37
 14046 4098 9A090000 		.4byte	.LASF943
 14047 409c 01       		.byte	0x1
 14048 409d D004     		.2byte	0x4d0
 14049 409f B1000000 		.4byte	0xb1
 14050 40a3 86040000 		.4byte	.LLST81
 14051 40a7 4B       		.uleb128 0x4b
 14052 40a8 70500000 		.4byte	0x5070
 14053 40ac C2060000 		.4byte	.LBB193
 14054 40b0 06000000 		.4byte	.LBE193-.LBB193
 14055 40b4 01       		.byte	0x1
 14056 40b5 DD04     		.2byte	0x4dd
 14057 40b7 F8400000 		.4byte	0x40f8
 14058 40bb 4C       		.uleb128 0x4c
 14059 40bc 82500000 		.4byte	0x5082
 14060 40c0 C2060000 		.4byte	.LBB194
 14061 40c4 06000000 		.4byte	.LBE194-.LBB194
 14062 40c8 2D       		.byte	0x2d
 14063 40c9 8401     		.2byte	0x184
 14064 40cb 4C       		.uleb128 0x4c
 14065 40cc 94500000 		.4byte	0x5094
 14066 40d0 C2060000 		.4byte	.LBB195
 14067 40d4 06000000 		.4byte	.LBE195-.LBB195
 14068 40d8 0F       		.byte	0xf
 14069 40d9 DB01     		.2byte	0x1db
 14070 40db 4C       		.uleb128 0x4c
 14071 40dc 9D500000 		.4byte	0x509d
 14072 40e0 C2060000 		.4byte	.LBB196
 14073 40e4 06000000 		.4byte	.LBE196-.LBB196
 14074 40e8 0F       		.byte	0xf
 14075 40e9 BF01     		.2byte	0x1bf
 14076 40eb 3E       		.uleb128 0x3e
 14077 40ec AA500000 		.4byte	0x50aa
 14078 40f0 D9040000 		.4byte	.LLST82
 14079 40f4 00       		.byte	0
 14080 40f5 00       		.byte	0
 14081 40f6 00       		.byte	0
 14082 40f7 00       		.byte	0
 14083 40f8 4B       		.uleb128 0x4b
 14084 40f9 67500000 		.4byte	0x5067
 14085 40fd D2060000 		.4byte	.LBB198
 14086 4101 3E000000 		.4byte	.LBE198-.LBB198
 14087 4105 01       		.byte	0x1
 14088 4106 DF04     		.2byte	0x4df
 14089 4108 49410000 		.4byte	0x4149
 14090 410c 4C       		.uleb128 0x4c
 14091 410d 79500000 		.4byte	0x5079
 14092 4111 D2060000 		.4byte	.LBB199
 14093 4115 3E000000 		.4byte	.LBE199-.LBB199
 14094 4119 2D       		.byte	0x2d
 14095 411a 9A01     		.2byte	0x19a
 14096 411c 4C       		.uleb128 0x4c
 14097 411d 8B500000 		.4byte	0x508b
 14098 4121 D2060000 		.4byte	.LBB200
 14099 4125 3E000000 		.4byte	.LBE200-.LBB200
 14100 4129 0F       		.byte	0xf
 14101 412a E601     		.2byte	0x1e6
ARM GAS  /tmp/ccETYwEL.s 			page 250


 14102 412c 4C       		.uleb128 0x4c
 14103 412d 9D500000 		.4byte	0x509d
 14104 4131 D2060000 		.4byte	.LBB201
 14105 4135 3E000000 		.4byte	.LBE201-.LBB201
 14106 4139 0F       		.byte	0xf
 14107 413a CD01     		.2byte	0x1cd
 14108 413c 3E       		.uleb128 0x3e
 14109 413d AA500000 		.4byte	0x50aa
 14110 4141 EE040000 		.4byte	.LLST83
 14111 4145 00       		.byte	0
 14112 4146 00       		.byte	0
 14113 4147 00       		.byte	0
 14114 4148 00       		.byte	0
 14115 4149 3C       		.uleb128 0x3c
 14116 414a D2060000 		.4byte	.LVL456
 14117 414e 7D570000 		.4byte	0x577d
 14118 4152 3B       		.uleb128 0x3b
 14119 4153 01       		.uleb128 0x1
 14120 4154 51       		.byte	0x51
 14121 4155 01       		.uleb128 0x1
 14122 4156 31       		.byte	0x31
 14123 4157 00       		.byte	0
 14124 4158 00       		.byte	0
 14125 4159 35       		.uleb128 0x35
 14126 415a D0010000 		.4byte	.Ldebug_ranges0+0x1d0
 14127 415e D8410000 		.4byte	0x41d8
 14128 4162 4D       		.uleb128 0x4d
 14129 4163 6100     		.ascii	"a\000"
 14130 4165 01       		.byte	0x1
 14131 4166 EF04     		.2byte	0x4ef
 14132 4168 B1000000 		.4byte	0xb1
 14133 416c 05       		.uleb128 0x5
 14134 416d 03       		.byte	0x3
 14135 416e 00000000 		.4byte	a.12115
 14136 4172 38       		.uleb128 0x38
 14137 4173 E8010000 		.4byte	.Ldebug_ranges0+0x1e8
 14138 4177 37       		.uleb128 0x37
 14139 4178 61290000 		.4byte	.LASF944
 14140 417c 01       		.byte	0x1
 14141 417d F904     		.2byte	0x4f9
 14142 417f EE000000 		.4byte	0xee
 14143 4183 02050000 		.4byte	.LLST84
 14144 4187 4E       		.uleb128 0x4e
 14145 4188 67450000 		.4byte	0x4567
 14146 418c 86030000 		.4byte	.LBB205
 14147 4190 00020000 		.4byte	.Ldebug_ranges0+0x200
 14148 4194 01       		.byte	0x1
 14149 4195 1C05     		.2byte	0x51c
 14150 4197 42       		.uleb128 0x42
 14151 4198 D0020000 		.4byte	.LVL390
 14152 419c FA4C0000 		.4byte	0x4cfa
 14153 41a0 42       		.uleb128 0x42
 14154 41a1 3E030000 		.4byte	.LVL391
 14155 41a5 8F480000 		.4byte	0x488f
 14156 41a9 42       		.uleb128 0x42
 14157 41aa 7E030000 		.4byte	.LVL392
 14158 41ae 88570000 		.4byte	0x5788
ARM GAS  /tmp/ccETYwEL.s 			page 251


 14159 41b2 42       		.uleb128 0x42
 14160 41b3 84030000 		.4byte	.LVL394
 14161 41b7 93570000 		.4byte	0x5793
 14162 41bb 42       		.uleb128 0x42
 14163 41bc D6050000 		.4byte	.LVL445
 14164 41c0 9E570000 		.4byte	0x579e
 14165 41c4 42       		.uleb128 0x42
 14166 41c5 04060000 		.4byte	.LVL447
 14167 41c9 88570000 		.4byte	0x5788
 14168 41cd 42       		.uleb128 0x42
 14169 41ce 26060000 		.4byte	.LVL448
 14170 41d2 88570000 		.4byte	0x5788
 14171 41d6 00       		.byte	0
 14172 41d7 00       		.byte	0
 14173 41d8 3F       		.uleb128 0x3f
 14174 41d9 4A440000 		.4byte	0x444a
 14175 41dd 2C010000 		.4byte	.LBB183
 14176 41e1 60010000 		.4byte	.Ldebug_ranges0+0x160
 14177 41e5 01       		.byte	0x1
 14178 41e6 7004     		.2byte	0x470
 14179 41e8 F6410000 		.4byte	0x41f6
 14180 41ec 3E       		.uleb128 0x3e
 14181 41ed 57440000 		.4byte	0x4457
 14182 41f1 20050000 		.4byte	.LLST79
 14183 41f5 00       		.byte	0
 14184 41f6 4B       		.uleb128 0x4b
 14185 41f7 4A440000 		.4byte	0x444a
 14186 41fb E0010000 		.4byte	.LBB187
 14187 41ff 06000000 		.4byte	.LBE187-.LBB187
 14188 4203 01       		.byte	0x1
 14189 4204 6C04     		.2byte	0x46c
 14190 4206 1F420000 		.4byte	0x421f
 14191 420a 4F       		.uleb128 0x4f
 14192 420b 57440000 		.4byte	0x4457
 14193 420f 3C       		.uleb128 0x3c
 14194 4210 E6010000 		.4byte	.LVL382
 14195 4214 F5500000 		.4byte	0x50f5
 14196 4218 3B       		.uleb128 0x3b
 14197 4219 01       		.uleb128 0x1
 14198 421a 50       		.byte	0x50
 14199 421b 01       		.uleb128 0x1
 14200 421c 34       		.byte	0x34
 14201 421d 00       		.byte	0
 14202 421e 00       		.byte	0
 14203 421f 3F       		.uleb128 0x3f
 14204 4220 4A440000 		.4byte	0x444a
 14205 4224 EE010000 		.4byte	.LBB189
 14206 4228 90010000 		.4byte	.Ldebug_ranges0+0x190
 14207 422c 01       		.byte	0x1
 14208 422d 7604     		.2byte	0x476
 14209 422f 4C420000 		.4byte	0x424c
 14210 4233 3E       		.uleb128 0x3e
 14211 4234 57440000 		.4byte	0x4457
 14212 4238 4C050000 		.4byte	.LLST80
 14213 423c 3C       		.uleb128 0x3c
 14214 423d A0040000 		.4byte	.LVL420
 14215 4241 F5500000 		.4byte	0x50f5
ARM GAS  /tmp/ccETYwEL.s 			page 252


 14216 4245 3B       		.uleb128 0x3b
 14217 4246 01       		.uleb128 0x1
 14218 4247 50       		.byte	0x50
 14219 4248 01       		.uleb128 0x1
 14220 4249 33       		.byte	0x33
 14221 424a 00       		.byte	0
 14222 424b 00       		.byte	0
 14223 424c 3F       		.uleb128 0x3f
 14224 424d 4A440000 		.4byte	0x444a
 14225 4251 C8030000 		.4byte	.LBB211
 14226 4255 18020000 		.4byte	.Ldebug_ranges0+0x218
 14227 4259 01       		.byte	0x1
 14228 425a 4404     		.2byte	0x444
 14229 425c 73420000 		.4byte	0x4273
 14230 4260 3E       		.uleb128 0x3e
 14231 4261 57440000 		.4byte	0x4457
 14232 4265 6C050000 		.4byte	.LLST85
 14233 4269 42       		.uleb128 0x42
 14234 426a B4040000 		.4byte	.LVL426
 14235 426e F5500000 		.4byte	0x50f5
 14236 4272 00       		.byte	0
 14237 4273 3F       		.uleb128 0x3f
 14238 4274 70500000 		.4byte	0x5070
 14239 4278 4E040000 		.4byte	.LBB229
 14240 427c 68020000 		.4byte	.Ldebug_ranges0+0x268
 14241 4280 01       		.byte	0x1
 14242 4281 A804     		.2byte	0x4a8
 14243 4283 C4420000 		.4byte	0x42c4
 14244 4287 3D       		.uleb128 0x3d
 14245 4288 82500000 		.4byte	0x5082
 14246 428c 4E040000 		.4byte	.LBB230
 14247 4290 68020000 		.4byte	.Ldebug_ranges0+0x268
 14248 4294 2D       		.byte	0x2d
 14249 4295 8401     		.2byte	0x184
 14250 4297 3D       		.uleb128 0x3d
 14251 4298 94500000 		.4byte	0x5094
 14252 429c 4E040000 		.4byte	.LBB231
 14253 42a0 68020000 		.4byte	.Ldebug_ranges0+0x268
 14254 42a4 0F       		.byte	0xf
 14255 42a5 DB01     		.2byte	0x1db
 14256 42a7 3D       		.uleb128 0x3d
 14257 42a8 9D500000 		.4byte	0x509d
 14258 42ac 4E040000 		.4byte	.LBB232
 14259 42b0 68020000 		.4byte	.Ldebug_ranges0+0x268
 14260 42b4 0F       		.byte	0xf
 14261 42b5 BF01     		.2byte	0x1bf
 14262 42b7 3E       		.uleb128 0x3e
 14263 42b8 AA500000 		.4byte	0x50aa
 14264 42bc 8A050000 		.4byte	.LLST89
 14265 42c0 00       		.byte	0
 14266 42c1 00       		.byte	0
 14267 42c2 00       		.byte	0
 14268 42c3 00       		.byte	0
 14269 42c4 4B       		.uleb128 0x4b
 14270 42c5 67500000 		.4byte	0x5067
 14271 42c9 62040000 		.4byte	.LBB239
 14272 42cd 04000000 		.4byte	.LBE239-.LBB239
ARM GAS  /tmp/ccETYwEL.s 			page 253


 14273 42d1 01       		.byte	0x1
 14274 42d2 AA04     		.2byte	0x4aa
 14275 42d4 15430000 		.4byte	0x4315
 14276 42d8 4C       		.uleb128 0x4c
 14277 42d9 79500000 		.4byte	0x5079
 14278 42dd 62040000 		.4byte	.LBB240
 14279 42e1 04000000 		.4byte	.LBE240-.LBB240
 14280 42e5 2D       		.byte	0x2d
 14281 42e6 9A01     		.2byte	0x19a
 14282 42e8 4C       		.uleb128 0x4c
 14283 42e9 8B500000 		.4byte	0x508b
 14284 42ed 62040000 		.4byte	.LBB241
 14285 42f1 04000000 		.4byte	.LBE241-.LBB241
 14286 42f5 0F       		.byte	0xf
 14287 42f6 E601     		.2byte	0x1e6
 14288 42f8 4C       		.uleb128 0x4c
 14289 42f9 9D500000 		.4byte	0x509d
 14290 42fd 62040000 		.4byte	.LBB242
 14291 4301 04000000 		.4byte	.LBE242-.LBB242
 14292 4305 0F       		.byte	0xf
 14293 4306 CD01     		.2byte	0x1cd
 14294 4308 3E       		.uleb128 0x3e
 14295 4309 AA500000 		.4byte	0x50aa
 14296 430d 9F050000 		.4byte	.LLST90
 14297 4311 00       		.byte	0
 14298 4312 00       		.byte	0
 14299 4313 00       		.byte	0
 14300 4314 00       		.byte	0
 14301 4315 3F       		.uleb128 0x3f
 14302 4316 70500000 		.4byte	0x5070
 14303 431a 84040000 		.4byte	.LBB244
 14304 431e 80020000 		.4byte	.Ldebug_ranges0+0x280
 14305 4322 01       		.byte	0x1
 14306 4323 9804     		.2byte	0x498
 14307 4325 66430000 		.4byte	0x4366
 14308 4329 3D       		.uleb128 0x3d
 14309 432a 82500000 		.4byte	0x5082
 14310 432e 84040000 		.4byte	.LBB245
 14311 4332 80020000 		.4byte	.Ldebug_ranges0+0x280
 14312 4336 2D       		.byte	0x2d
 14313 4337 8401     		.2byte	0x184
 14314 4339 3D       		.uleb128 0x3d
 14315 433a 94500000 		.4byte	0x5094
 14316 433e 84040000 		.4byte	.LBB246
 14317 4342 80020000 		.4byte	.Ldebug_ranges0+0x280
 14318 4346 0F       		.byte	0xf
 14319 4347 DB01     		.2byte	0x1db
 14320 4349 3D       		.uleb128 0x3d
 14321 434a 9D500000 		.4byte	0x509d
 14322 434e 84040000 		.4byte	.LBB247
 14323 4352 80020000 		.4byte	.Ldebug_ranges0+0x280
 14324 4356 0F       		.byte	0xf
 14325 4357 BF01     		.2byte	0x1bf
 14326 4359 3E       		.uleb128 0x3e
 14327 435a AA500000 		.4byte	0x50aa
 14328 435e B3050000 		.4byte	.LLST91
 14329 4362 00       		.byte	0
ARM GAS  /tmp/ccETYwEL.s 			page 254


 14330 4363 00       		.byte	0
 14331 4364 00       		.byte	0
 14332 4365 00       		.byte	0
 14333 4366 4B       		.uleb128 0x4b
 14334 4367 67500000 		.4byte	0x5067
 14335 436b 94040000 		.4byte	.LBB254
 14336 436f 06000000 		.4byte	.LBE254-.LBB254
 14337 4373 01       		.byte	0x1
 14338 4374 9A04     		.2byte	0x49a
 14339 4376 B7430000 		.4byte	0x43b7
 14340 437a 4C       		.uleb128 0x4c
 14341 437b 79500000 		.4byte	0x5079
 14342 437f 94040000 		.4byte	.LBB255
 14343 4383 06000000 		.4byte	.LBE255-.LBB255
 14344 4387 2D       		.byte	0x2d
 14345 4388 9A01     		.2byte	0x19a
 14346 438a 4C       		.uleb128 0x4c
 14347 438b 8B500000 		.4byte	0x508b
 14348 438f 94040000 		.4byte	.LBB256
 14349 4393 06000000 		.4byte	.LBE256-.LBB256
 14350 4397 0F       		.byte	0xf
 14351 4398 E601     		.2byte	0x1e6
 14352 439a 4C       		.uleb128 0x4c
 14353 439b 9D500000 		.4byte	0x509d
 14354 439f 94040000 		.4byte	.LBB257
 14355 43a3 06000000 		.4byte	.LBE257-.LBB257
 14356 43a7 0F       		.byte	0xf
 14357 43a8 CD01     		.2byte	0x1cd
 14358 43aa 3E       		.uleb128 0x3e
 14359 43ab AA500000 		.4byte	0x50aa
 14360 43af C8050000 		.4byte	.LLST92
 14361 43b3 00       		.byte	0
 14362 43b4 00       		.byte	0
 14363 43b5 00       		.byte	0
 14364 43b6 00       		.byte	0
 14365 43b7 42       		.uleb128 0x42
 14366 43b8 12000000 		.4byte	.LVL359
 14367 43bc A9570000 		.4byte	0x57a9
 14368 43c0 42       		.uleb128 0x42
 14369 43c1 5C000000 		.4byte	.LVL361
 14370 43c5 FA4C0000 		.4byte	0x4cfa
 14371 43c9 42       		.uleb128 0x42
 14372 43ca 74000000 		.4byte	.LVL363
 14373 43ce 51480000 		.4byte	0x4851
 14374 43d2 42       		.uleb128 0x42
 14375 43d3 7C000000 		.4byte	.LVL365
 14376 43d7 5B470000 		.4byte	0x475b
 14377 43db 42       		.uleb128 0x42
 14378 43dc C0000000 		.4byte	.LVL367
 14379 43e0 B4570000 		.4byte	0x57b4
 14380 43e4 42       		.uleb128 0x42
 14381 43e5 D2000000 		.4byte	.LVL368
 14382 43e9 BF570000 		.4byte	0x57bf
 14383 43ed 42       		.uleb128 0x42
 14384 43ee 00010000 		.4byte	.LVL369
 14385 43f2 8F480000 		.4byte	0x488f
 14386 43f6 42       		.uleb128 0x42
ARM GAS  /tmp/ccETYwEL.s 			page 255


 14387 43f7 4A010000 		.4byte	.LVL376
 14388 43fb EA490000 		.4byte	0x49ea
 14389 43ff 42       		.uleb128 0x42
 14390 4400 EA030000 		.4byte	.LVL401
 14391 4404 FA4C0000 		.4byte	0x4cfa
 14392 4408 42       		.uleb128 0x42
 14393 4409 24040000 		.4byte	.LVL407
 14394 440d FA4C0000 		.4byte	0x4cfa
 14395 4411 3A       		.uleb128 0x3a
 14396 4412 62040000 		.4byte	.LVL412
 14397 4416 7D570000 		.4byte	0x577d
 14398 441a 24440000 		.4byte	0x4424
 14399 441e 3B       		.uleb128 0x3b
 14400 441f 01       		.uleb128 0x1
 14401 4420 51       		.byte	0x51
 14402 4421 01       		.uleb128 0x1
 14403 4422 31       		.byte	0x31
 14404 4423 00       		.byte	0
 14405 4424 3A       		.uleb128 0x3a
 14406 4425 94040000 		.4byte	.LVL417
 14407 4429 7D570000 		.4byte	0x577d
 14408 442d 37440000 		.4byte	0x4437
 14409 4431 3B       		.uleb128 0x3b
 14410 4432 01       		.uleb128 0x1
 14411 4433 51       		.byte	0x51
 14412 4434 01       		.uleb128 0x1
 14413 4435 31       		.byte	0x31
 14414 4436 00       		.byte	0
 14415 4437 42       		.uleb128 0x42
 14416 4438 A6040000 		.4byte	.LVL422
 14417 443c CA570000 		.4byte	0x57ca
 14418 4440 42       		.uleb128 0x42
 14419 4441 AE040000 		.4byte	.LVL424
 14420 4445 D5570000 		.4byte	0x57d5
 14421 4449 00       		.byte	0
 14422 444a 50       		.uleb128 0x50
 14423 444b C6390000 		.4byte	.LASF982
 14424 444f 01       		.byte	0x1
 14425 4450 FC03     		.2byte	0x3fc
 14426 4452 01       		.byte	0x1
 14427 4453 96440000 		.4byte	0x4496
 14428 4457 44       		.uleb128 0x44
 14429 4458 4D290000 		.4byte	.LASF407
 14430 445c 01       		.byte	0x1
 14431 445d FC03     		.2byte	0x3fc
 14432 445f 11110000 		.4byte	0x1111
 14433 4463 47       		.uleb128 0x47
 14434 4464 45       		.uleb128 0x45
 14435 4465 11080000 		.4byte	.LASF946
 14436 4469 01       		.byte	0x1
 14437 446a 0604     		.2byte	0x406
 14438 446c B8000000 		.4byte	0xb8
 14439 4470 45       		.uleb128 0x45
 14440 4471 A5280000 		.4byte	.LASF947
 14441 4475 01       		.byte	0x1
 14442 4476 0704     		.2byte	0x407
 14443 4478 B8000000 		.4byte	0xb8
ARM GAS  /tmp/ccETYwEL.s 			page 256


 14444 447c 45       		.uleb128 0x45
 14445 447d 992F0000 		.4byte	.LASF416
 14446 4481 01       		.byte	0x1
 14447 4482 0804     		.2byte	0x408
 14448 4484 B8000000 		.4byte	0xb8
 14449 4488 45       		.uleb128 0x45
 14450 4489 C8120000 		.4byte	.LASF948
 14451 448d 01       		.byte	0x1
 14452 448e 0B04     		.2byte	0x40b
 14453 4490 BE180000 		.4byte	0x18be
 14454 4494 00       		.byte	0
 14455 4495 00       		.byte	0
 14456 4496 51       		.uleb128 0x51
 14457 4497 CF210000 		.4byte	.LASF954
 14458 449b 01       		.byte	0x1
 14459 449c D603     		.2byte	0x3d6
 14460 449e B1000000 		.4byte	0xb1
 14461 44a2 00000000 		.4byte	.LFB306
 14462 44a6 74000000 		.4byte	.LFE306-.LFB306
 14463 44aa 01       		.uleb128 0x1
 14464 44ab 9C       		.byte	0x9c
 14465 44ac E5440000 		.4byte	0x44e5
 14466 44b0 37       		.uleb128 0x37
 14467 44b1 79360000 		.4byte	.LASF949
 14468 44b5 01       		.byte	0x1
 14469 44b6 DD03     		.2byte	0x3dd
 14470 44b8 B1000000 		.4byte	0xb1
 14471 44bc DC050000 		.4byte	.LLST56
 14472 44c0 42       		.uleb128 0x42
 14473 44c1 06000000 		.4byte	.LVL276
 14474 44c5 FA4C0000 		.4byte	0x4cfa
 14475 44c9 42       		.uleb128 0x42
 14476 44ca 28000000 		.4byte	.LVL279
 14477 44ce E0570000 		.4byte	0x57e0
 14478 44d2 42       		.uleb128 0x42
 14479 44d3 48000000 		.4byte	.LVL284
 14480 44d7 EB570000 		.4byte	0x57eb
 14481 44db 42       		.uleb128 0x42
 14482 44dc 54000000 		.4byte	.LVL287
 14483 44e0 F6570000 		.4byte	0x57f6
 14484 44e4 00       		.byte	0
 14485 44e5 52       		.uleb128 0x52
 14486 44e6 1D200000 		.4byte	.LASF950
 14487 44ea 01       		.byte	0x1
 14488 44eb C803     		.2byte	0x3c8
 14489 44ed 25000000 		.4byte	0x25
 14490 44f1 00000000 		.4byte	.LFB305
 14491 44f5 0C000000 		.4byte	.LFE305-.LFB305
 14492 44f9 01       		.uleb128 0x1
 14493 44fa 9C       		.byte	0x9c
 14494 44fb 52       		.uleb128 0x52
 14495 44fc 03280000 		.4byte	.LASF951
 14496 4500 01       		.byte	0x1
 14497 4501 BD03     		.2byte	0x3bd
 14498 4503 25000000 		.4byte	0x25
 14499 4507 00000000 		.4byte	.LFB304
 14500 450b 0C000000 		.4byte	.LFE304-.LFB304
ARM GAS  /tmp/ccETYwEL.s 			page 257


 14501 450f 01       		.uleb128 0x1
 14502 4510 9C       		.byte	0x9c
 14503 4511 48       		.uleb128 0x48
 14504 4512 F0240000 		.4byte	.LASF952
 14505 4516 01       		.byte	0x1
 14506 4517 A603     		.2byte	0x3a6
 14507 4519 00000000 		.4byte	.LFB303
 14508 451d 50000000 		.4byte	.LFE303-.LFB303
 14509 4521 01       		.uleb128 0x1
 14510 4522 9C       		.byte	0x9c
 14511 4523 67450000 		.4byte	0x4567
 14512 4527 53       		.uleb128 0x53
 14513 4528 120B0000 		.4byte	.LASF534
 14514 452c 01       		.byte	0x1
 14515 452d A603     		.2byte	0x3a6
 14516 452f C0110000 		.4byte	0x11c0
 14517 4533 2B060000 		.4byte	.LLST53
 14518 4537 34       		.uleb128 0x34
 14519 4538 6C656E00 		.ascii	"len\000"
 14520 453c 01       		.byte	0x1
 14521 453d A603     		.2byte	0x3a6
 14522 453f FE000000 		.4byte	0xfe
 14523 4543 4C060000 		.4byte	.LLST54
 14524 4547 53       		.uleb128 0x53
 14525 4548 C3360000 		.4byte	.LASF953
 14526 454c 01       		.byte	0x1
 14527 454d A603     		.2byte	0x3a6
 14528 454f D9000000 		.4byte	0xd9
 14529 4553 6A060000 		.4byte	.LLST55
 14530 4557 54       		.uleb128 0x54
 14531 4558 38000000 		.4byte	.LVL275
 14532 455c 01580000 		.4byte	0x5801
 14533 4560 3B       		.uleb128 0x3b
 14534 4561 01       		.uleb128 0x1
 14535 4562 51       		.byte	0x51
 14536 4563 01       		.uleb128 0x1
 14537 4564 31       		.byte	0x31
 14538 4565 00       		.byte	0
 14539 4566 00       		.byte	0
 14540 4567 55       		.uleb128 0x55
 14541 4568 C51C0000 		.4byte	.LASF1104
 14542 456c 01       		.byte	0x1
 14543 456d A203     		.2byte	0x3a2
 14544 456f 25000000 		.4byte	0x25
 14545 4573 01       		.byte	0x1
 14546 4574 51       		.uleb128 0x51
 14547 4575 751C0000 		.4byte	.LASF955
 14548 4579 01       		.byte	0x1
 14549 457a 8B03     		.2byte	0x38b
 14550 457c 25000000 		.4byte	0x25
 14551 4580 00000000 		.4byte	.LFB301
 14552 4584 4C000000 		.4byte	.LFE301-.LFB301
 14553 4588 01       		.uleb128 0x1
 14554 4589 9C       		.byte	0x9c
 14555 458a C4450000 		.4byte	0x45c4
 14556 458e 4D       		.uleb128 0x4d
 14557 458f 72657400 		.ascii	"ret\000"
ARM GAS  /tmp/ccETYwEL.s 			page 258


 14558 4593 01       		.byte	0x1
 14559 4594 8C03     		.2byte	0x38c
 14560 4596 25000000 		.4byte	0x25
 14561 459a 02       		.uleb128 0x2
 14562 459b 91       		.byte	0x91
 14563 459c 74       		.sleb128 -12
 14564 459d 3A       		.uleb128 0x3a
 14565 459e 2E000000 		.4byte	.LVL268
 14566 45a2 0C580000 		.4byte	0x580c
 14567 45a6 B1450000 		.4byte	0x45b1
 14568 45aa 3B       		.uleb128 0x3b
 14569 45ab 01       		.uleb128 0x1
 14570 45ac 50       		.byte	0x50
 14571 45ad 02       		.uleb128 0x2
 14572 45ae 91       		.byte	0x91
 14573 45af 74       		.sleb128 -12
 14574 45b0 00       		.byte	0
 14575 45b1 42       		.uleb128 0x42
 14576 45b2 3A000000 		.4byte	.LVL269
 14577 45b6 17580000 		.4byte	0x5817
 14578 45ba 42       		.uleb128 0x42
 14579 45bb 40000000 		.4byte	.LVL270
 14580 45bf 22580000 		.4byte	0x5822
 14581 45c3 00       		.byte	0
 14582 45c4 52       		.uleb128 0x52
 14583 45c5 66300000 		.4byte	.LASF956
 14584 45c9 01       		.byte	0x1
 14585 45ca 8703     		.2byte	0x387
 14586 45cc 25000000 		.4byte	0x25
 14587 45d0 00000000 		.4byte	.LFB300
 14588 45d4 0C000000 		.4byte	.LFE300-.LFB300
 14589 45d8 01       		.uleb128 0x1
 14590 45d9 9C       		.byte	0x9c
 14591 45da 51       		.uleb128 0x51
 14592 45db 2E290000 		.4byte	.LASF957
 14593 45df 01       		.byte	0x1
 14594 45e0 8003     		.2byte	0x380
 14595 45e2 25000000 		.4byte	0x25
 14596 45e6 00000000 		.4byte	.LFB299
 14597 45ea 30000000 		.4byte	.LFE299-.LFB299
 14598 45ee 01       		.uleb128 0x1
 14599 45ef 9C       		.byte	0x9c
 14600 45f0 05460000 		.4byte	0x4605
 14601 45f4 36       		.uleb128 0x36
 14602 45f5 72657300 		.ascii	"res\000"
 14603 45f9 01       		.byte	0x1
 14604 45fa 8103     		.2byte	0x381
 14605 45fc 25000000 		.4byte	0x25
 14606 4600 8B060000 		.4byte	.LLST52
 14607 4604 00       		.byte	0
 14608 4605 51       		.uleb128 0x51
 14609 4606 391E0000 		.4byte	.LASF958
 14610 460a 01       		.byte	0x1
 14611 460b 7303     		.2byte	0x373
 14612 460d 25000000 		.4byte	0x25
 14613 4611 00000000 		.4byte	.LFB298
 14614 4615 30000000 		.4byte	.LFE298-.LFB298
ARM GAS  /tmp/ccETYwEL.s 			page 259


 14615 4619 01       		.uleb128 0x1
 14616 461a 9C       		.byte	0x9c
 14617 461b 30460000 		.4byte	0x4630
 14618 461f 36       		.uleb128 0x36
 14619 4620 72657300 		.ascii	"res\000"
 14620 4624 01       		.byte	0x1
 14621 4625 7403     		.2byte	0x374
 14622 4627 25000000 		.4byte	0x25
 14623 462b B1060000 		.4byte	.LLST51
 14624 462f 00       		.byte	0
 14625 4630 51       		.uleb128 0x51
 14626 4631 BE140000 		.4byte	.LASF959
 14627 4635 01       		.byte	0x1
 14628 4636 6603     		.2byte	0x366
 14629 4638 25000000 		.4byte	0x25
 14630 463c 00000000 		.4byte	.LFB297
 14631 4640 20000000 		.4byte	.LFE297-.LFB297
 14632 4644 01       		.uleb128 0x1
 14633 4645 9C       		.byte	0x9c
 14634 4646 5B460000 		.4byte	0x465b
 14635 464a 36       		.uleb128 0x36
 14636 464b 72657300 		.ascii	"res\000"
 14637 464f 01       		.byte	0x1
 14638 4650 6703     		.2byte	0x367
 14639 4652 25000000 		.4byte	0x25
 14640 4656 D7060000 		.4byte	.LLST50
 14641 465a 00       		.byte	0
 14642 465b 51       		.uleb128 0x51
 14643 465c F80E0000 		.4byte	.LASF960
 14644 4660 01       		.byte	0x1
 14645 4661 5F03     		.2byte	0x35f
 14646 4663 25000000 		.4byte	0x25
 14647 4667 00000000 		.4byte	.LFB296
 14648 466b 20000000 		.4byte	.LFE296-.LFB296
 14649 466f 01       		.uleb128 0x1
 14650 4670 9C       		.byte	0x9c
 14651 4671 86460000 		.4byte	0x4686
 14652 4675 36       		.uleb128 0x36
 14653 4676 72657300 		.ascii	"res\000"
 14654 467a 01       		.byte	0x1
 14655 467b 6003     		.2byte	0x360
 14656 467d 25000000 		.4byte	0x25
 14657 4681 FD060000 		.4byte	.LLST49
 14658 4685 00       		.byte	0
 14659 4686 51       		.uleb128 0x51
 14660 4687 5B1D0000 		.4byte	.LASF961
 14661 468b 01       		.byte	0x1
 14662 468c 4B03     		.2byte	0x34b
 14663 468e 25000000 		.4byte	0x25
 14664 4692 00000000 		.4byte	.LFB295
 14665 4696 24000000 		.4byte	.LFE295-.LFB295
 14666 469a 01       		.uleb128 0x1
 14667 469b 9C       		.byte	0x9c
 14668 469c C4460000 		.4byte	0x46c4
 14669 46a0 56       		.uleb128 0x56
 14670 46a1 72657400 		.ascii	"ret\000"
 14671 46a5 01       		.byte	0x1
ARM GAS  /tmp/ccETYwEL.s 			page 260


 14672 46a6 4C03     		.2byte	0x34c
 14673 46a8 25000000 		.4byte	0x25
 14674 46ac 04       		.byte	0x4
 14675 46ad 00000000 		.4byte	0
 14676 46b1 49       		.uleb128 0x49
 14677 46b2 12000000 		.4byte	.LVL258
 14678 46b6 2D580000 		.4byte	0x582d
 14679 46ba 49       		.uleb128 0x49
 14680 46bb 1C000000 		.4byte	.LVL259
 14681 46bf 38580000 		.4byte	0x5838
 14682 46c3 00       		.byte	0
 14683 46c4 51       		.uleb128 0x51
 14684 46c5 1E2C0000 		.4byte	.LASF962
 14685 46c9 01       		.byte	0x1
 14686 46ca 3703     		.2byte	0x337
 14687 46cc B1000000 		.4byte	0xb1
 14688 46d0 00000000 		.4byte	.LFB294
 14689 46d4 20000000 		.4byte	.LFE294-.LFB294
 14690 46d8 01       		.uleb128 0x1
 14691 46d9 9C       		.byte	0x9c
 14692 46da 0E470000 		.4byte	0x470e
 14693 46de 53       		.uleb128 0x53
 14694 46df 171F0000 		.4byte	.LASF963
 14695 46e3 01       		.byte	0x1
 14696 46e4 3703     		.2byte	0x337
 14697 46e6 B9160000 		.4byte	0x16b9
 14698 46ea 23070000 		.4byte	.LLST48
 14699 46ee 57       		.uleb128 0x57
 14700 46ef 72657400 		.ascii	"ret\000"
 14701 46f3 01       		.byte	0x1
 14702 46f4 3803     		.2byte	0x338
 14703 46f6 B1000000 		.4byte	0xb1
 14704 46fa 00       		.byte	0
 14705 46fb 49       		.uleb128 0x49
 14706 46fc 12000000 		.4byte	.LVL253
 14707 4700 43580000 		.4byte	0x5843
 14708 4704 49       		.uleb128 0x49
 14709 4705 1A000000 		.4byte	.LVL256
 14710 4709 4E580000 		.4byte	0x584e
 14711 470d 00       		.byte	0
 14712 470e 51       		.uleb128 0x51
 14713 470f A7110000 		.4byte	.LASF964
 14714 4713 01       		.byte	0x1
 14715 4714 2303     		.2byte	0x323
 14716 4716 B1000000 		.4byte	0xb1
 14717 471a 00000000 		.4byte	.LFB293
 14718 471e 4C000000 		.4byte	.LFE293-.LFB293
 14719 4722 01       		.uleb128 0x1
 14720 4723 9C       		.byte	0x9c
 14721 4724 5B470000 		.4byte	0x475b
 14722 4728 53       		.uleb128 0x53
 14723 4729 171F0000 		.4byte	.LASF963
 14724 472d 01       		.byte	0x1
 14725 472e 2303     		.2byte	0x323
 14726 4730 B9160000 		.4byte	0x16b9
 14727 4734 76070000 		.4byte	.LLST14
 14728 4738 36       		.uleb128 0x36
ARM GAS  /tmp/ccETYwEL.s 			page 261


 14729 4739 72657400 		.ascii	"ret\000"
 14730 473d 01       		.byte	0x1
 14731 473e 2403     		.2byte	0x324
 14732 4740 B1000000 		.4byte	0xb1
 14733 4744 C9070000 		.4byte	.LLST15
 14734 4748 42       		.uleb128 0x42
 14735 4749 2C000000 		.4byte	.LVL108
 14736 474d 59580000 		.4byte	0x5859
 14737 4751 42       		.uleb128 0x42
 14738 4752 3A000000 		.4byte	.LVL110
 14739 4756 64580000 		.4byte	0x5864
 14740 475a 00       		.byte	0
 14741 475b 51       		.uleb128 0x51
 14742 475c 10090000 		.4byte	.LASF965
 14743 4760 01       		.byte	0x1
 14744 4761 0F03     		.2byte	0x30f
 14745 4763 25000000 		.4byte	0x25
 14746 4767 00000000 		.4byte	.LFB292
 14747 476b 24000000 		.4byte	.LFE292-.LFB292
 14748 476f 01       		.uleb128 0x1
 14749 4770 9C       		.byte	0x9c
 14750 4771 99470000 		.4byte	0x4799
 14751 4775 56       		.uleb128 0x56
 14752 4776 72657400 		.ascii	"ret\000"
 14753 477a 01       		.byte	0x1
 14754 477b 1003     		.2byte	0x310
 14755 477d 25000000 		.4byte	0x25
 14756 4781 04       		.byte	0x4
 14757 4782 00000000 		.4byte	0
 14758 4786 49       		.uleb128 0x49
 14759 4787 12000000 		.4byte	.LVL103
 14760 478b 6F580000 		.4byte	0x586f
 14761 478f 49       		.uleb128 0x49
 14762 4790 1C000000 		.4byte	.LVL104
 14763 4794 7A580000 		.4byte	0x587a
 14764 4798 00       		.byte	0
 14765 4799 51       		.uleb128 0x51
 14766 479a 2C0D0000 		.4byte	.LASF966
 14767 479e 01       		.byte	0x1
 14768 479f FB02     		.2byte	0x2fb
 14769 47a1 25000000 		.4byte	0x25
 14770 47a5 00000000 		.4byte	.LFB291
 14771 47a9 24000000 		.4byte	.LFE291-.LFB291
 14772 47ad 01       		.uleb128 0x1
 14773 47ae 9C       		.byte	0x9c
 14774 47af D7470000 		.4byte	0x47d7
 14775 47b3 56       		.uleb128 0x56
 14776 47b4 72657400 		.ascii	"ret\000"
 14777 47b8 01       		.byte	0x1
 14778 47b9 FC02     		.2byte	0x2fc
 14779 47bb 25000000 		.4byte	0x25
 14780 47bf 04       		.byte	0x4
 14781 47c0 00000000 		.4byte	0
 14782 47c4 49       		.uleb128 0x49
 14783 47c5 12000000 		.4byte	.LVL100
 14784 47c9 85580000 		.4byte	0x5885
 14785 47cd 49       		.uleb128 0x49
ARM GAS  /tmp/ccETYwEL.s 			page 262


 14786 47ce 1C000000 		.4byte	.LVL101
 14787 47d2 90580000 		.4byte	0x5890
 14788 47d6 00       		.byte	0
 14789 47d7 51       		.uleb128 0x51
 14790 47d8 5B1F0000 		.4byte	.LASF967
 14791 47dc 01       		.byte	0x1
 14792 47dd E702     		.2byte	0x2e7
 14793 47df 25000000 		.4byte	0x25
 14794 47e3 00000000 		.4byte	.LFB290
 14795 47e7 38000000 		.4byte	.LFE290-.LFB290
 14796 47eb 01       		.uleb128 0x1
 14797 47ec 9C       		.byte	0x9c
 14798 47ed 14480000 		.4byte	0x4814
 14799 47f1 36       		.uleb128 0x36
 14800 47f2 72657400 		.ascii	"ret\000"
 14801 47f6 01       		.byte	0x1
 14802 47f7 E802     		.2byte	0x2e8
 14803 47f9 25000000 		.4byte	0x25
 14804 47fd 0B080000 		.4byte	.LLST13
 14805 4801 42       		.uleb128 0x42
 14806 4802 26000000 		.4byte	.LVL96
 14807 4806 9B580000 		.4byte	0x589b
 14808 480a 42       		.uleb128 0x42
 14809 480b 2C000000 		.4byte	.LVL98
 14810 480f A6580000 		.4byte	0x58a6
 14811 4813 00       		.byte	0
 14812 4814 51       		.uleb128 0x51
 14813 4815 74030000 		.4byte	.LASF968
 14814 4819 01       		.byte	0x1
 14815 481a D302     		.2byte	0x2d3
 14816 481c 25000000 		.4byte	0x25
 14817 4820 00000000 		.4byte	.LFB289
 14818 4824 38000000 		.4byte	.LFE289-.LFB289
 14819 4828 01       		.uleb128 0x1
 14820 4829 9C       		.byte	0x9c
 14821 482a 51480000 		.4byte	0x4851
 14822 482e 36       		.uleb128 0x36
 14823 482f 72657400 		.ascii	"ret\000"
 14824 4833 01       		.byte	0x1
 14825 4834 D402     		.2byte	0x2d4
 14826 4836 25000000 		.4byte	0x25
 14827 483a 67080000 		.4byte	.LLST12
 14828 483e 42       		.uleb128 0x42
 14829 483f 26000000 		.4byte	.LVL89
 14830 4843 B1580000 		.4byte	0x58b1
 14831 4847 42       		.uleb128 0x42
 14832 4848 2C000000 		.4byte	.LVL91
 14833 484c BC580000 		.4byte	0x58bc
 14834 4850 00       		.byte	0
 14835 4851 51       		.uleb128 0x51
 14836 4852 47250000 		.4byte	.LASF969
 14837 4856 01       		.byte	0x1
 14838 4857 BF02     		.2byte	0x2bf
 14839 4859 25000000 		.4byte	0x25
 14840 485d 00000000 		.4byte	.LFB288
 14841 4861 24000000 		.4byte	.LFE288-.LFB288
 14842 4865 01       		.uleb128 0x1
ARM GAS  /tmp/ccETYwEL.s 			page 263


 14843 4866 9C       		.byte	0x9c
 14844 4867 8F480000 		.4byte	0x488f
 14845 486b 56       		.uleb128 0x56
 14846 486c 72657400 		.ascii	"ret\000"
 14847 4870 01       		.byte	0x1
 14848 4871 C002     		.2byte	0x2c0
 14849 4873 25000000 		.4byte	0x25
 14850 4877 04       		.byte	0x4
 14851 4878 00000000 		.4byte	0
 14852 487c 49       		.uleb128 0x49
 14853 487d 12000000 		.4byte	.LVL83
 14854 4881 C7580000 		.4byte	0x58c7
 14855 4885 49       		.uleb128 0x49
 14856 4886 1C000000 		.4byte	.LVL84
 14857 488a D2580000 		.4byte	0x58d2
 14858 488e 00       		.byte	0
 14859 488f 51       		.uleb128 0x51
 14860 4890 64130000 		.4byte	.LASF970
 14861 4894 01       		.byte	0x1
 14862 4895 AB02     		.2byte	0x2ab
 14863 4897 25000000 		.4byte	0x25
 14864 489b 00000000 		.4byte	.LFB287
 14865 489f 24000000 		.4byte	.LFE287-.LFB287
 14866 48a3 01       		.uleb128 0x1
 14867 48a4 9C       		.byte	0x9c
 14868 48a5 CD480000 		.4byte	0x48cd
 14869 48a9 56       		.uleb128 0x56
 14870 48aa 72657400 		.ascii	"ret\000"
 14871 48ae 01       		.byte	0x1
 14872 48af AC02     		.2byte	0x2ac
 14873 48b1 25000000 		.4byte	0x25
 14874 48b5 04       		.byte	0x4
 14875 48b6 00000000 		.4byte	0
 14876 48ba 49       		.uleb128 0x49
 14877 48bb 12000000 		.4byte	.LVL80
 14878 48bf DD580000 		.4byte	0x58dd
 14879 48c3 49       		.uleb128 0x49
 14880 48c4 1C000000 		.4byte	.LVL81
 14881 48c8 E8580000 		.4byte	0x58e8
 14882 48cc 00       		.byte	0
 14883 48cd 51       		.uleb128 0x51
 14884 48ce 073A0000 		.4byte	.LASF971
 14885 48d2 01       		.byte	0x1
 14886 48d3 A102     		.2byte	0x2a1
 14887 48d5 25000000 		.4byte	0x25
 14888 48d9 00000000 		.4byte	.LFB286
 14889 48dd 20000000 		.4byte	.LFE286-.LFB286
 14890 48e1 01       		.uleb128 0x1
 14891 48e2 9C       		.byte	0x9c
 14892 48e3 05490000 		.4byte	0x4905
 14893 48e7 58       		.uleb128 0x58
 14894 48e8 171F0000 		.4byte	.LASF963
 14895 48ec 01       		.byte	0x1
 14896 48ed A102     		.2byte	0x2a1
 14897 48ef B9160000 		.4byte	0x16b9
 14898 48f3 01       		.uleb128 0x1
 14899 48f4 50       		.byte	0x50
ARM GAS  /tmp/ccETYwEL.s 			page 264


 14900 48f5 4D       		.uleb128 0x4d
 14901 48f6 76616C00 		.ascii	"val\000"
 14902 48fa 01       		.byte	0x1
 14903 48fb A202     		.2byte	0x2a2
 14904 48fd 25000000 		.4byte	0x25
 14905 4901 02       		.uleb128 0x2
 14906 4902 90       		.byte	0x90
 14907 4903 40       		.uleb128 0x40
 14908 4904 00       		.byte	0
 14909 4905 51       		.uleb128 0x51
 14910 4906 96260000 		.4byte	.LASF972
 14911 490a 01       		.byte	0x1
 14912 490b 8E02     		.2byte	0x28e
 14913 490d 25000000 		.4byte	0x25
 14914 4911 00000000 		.4byte	.LFB285
 14915 4915 20000000 		.4byte	.LFE285-.LFB285
 14916 4919 01       		.uleb128 0x1
 14917 491a 9C       		.byte	0x9c
 14918 491b 3D490000 		.4byte	0x493d
 14919 491f 58       		.uleb128 0x58
 14920 4920 171F0000 		.4byte	.LASF963
 14921 4924 01       		.byte	0x1
 14922 4925 8E02     		.2byte	0x28e
 14923 4927 B9160000 		.4byte	0x16b9
 14924 492b 01       		.uleb128 0x1
 14925 492c 50       		.byte	0x50
 14926 492d 4D       		.uleb128 0x4d
 14927 492e 76616C00 		.ascii	"val\000"
 14928 4932 01       		.byte	0x1
 14929 4933 8F02     		.2byte	0x28f
 14930 4935 25000000 		.4byte	0x25
 14931 4939 02       		.uleb128 0x2
 14932 493a 90       		.byte	0x90
 14933 493b 40       		.uleb128 0x40
 14934 493c 00       		.byte	0
 14935 493d 51       		.uleb128 0x51
 14936 493e 8A290000 		.4byte	.LASF973
 14937 4942 01       		.byte	0x1
 14938 4943 7B02     		.2byte	0x27b
 14939 4945 25000000 		.4byte	0x25
 14940 4949 00000000 		.4byte	.LFB284
 14941 494d 20000000 		.4byte	.LFE284-.LFB284
 14942 4951 01       		.uleb128 0x1
 14943 4952 9C       		.byte	0x9c
 14944 4953 75490000 		.4byte	0x4975
 14945 4957 58       		.uleb128 0x58
 14946 4958 171F0000 		.4byte	.LASF963
 14947 495c 01       		.byte	0x1
 14948 495d 7B02     		.2byte	0x27b
 14949 495f B9160000 		.4byte	0x16b9
 14950 4963 01       		.uleb128 0x1
 14951 4964 50       		.byte	0x50
 14952 4965 4D       		.uleb128 0x4d
 14953 4966 76616C00 		.ascii	"val\000"
 14954 496a 01       		.byte	0x1
 14955 496b 7C02     		.2byte	0x27c
 14956 496d 25000000 		.4byte	0x25
ARM GAS  /tmp/ccETYwEL.s 			page 265


 14957 4971 02       		.uleb128 0x2
 14958 4972 90       		.byte	0x90
 14959 4973 40       		.uleb128 0x40
 14960 4974 00       		.byte	0
 14961 4975 51       		.uleb128 0x51
 14962 4976 0E360000 		.4byte	.LASF974
 14963 497a 01       		.byte	0x1
 14964 497b 6802     		.2byte	0x268
 14965 497d 25000000 		.4byte	0x25
 14966 4981 00000000 		.4byte	.LFB283
 14967 4985 20000000 		.4byte	.LFE283-.LFB283
 14968 4989 01       		.uleb128 0x1
 14969 498a 9C       		.byte	0x9c
 14970 498b AD490000 		.4byte	0x49ad
 14971 498f 58       		.uleb128 0x58
 14972 4990 171F0000 		.4byte	.LASF963
 14973 4994 01       		.byte	0x1
 14974 4995 6802     		.2byte	0x268
 14975 4997 B9160000 		.4byte	0x16b9
 14976 499b 01       		.uleb128 0x1
 14977 499c 50       		.byte	0x50
 14978 499d 4D       		.uleb128 0x4d
 14979 499e 76616C00 		.ascii	"val\000"
 14980 49a2 01       		.byte	0x1
 14981 49a3 6902     		.2byte	0x269
 14982 49a5 25000000 		.4byte	0x25
 14983 49a9 02       		.uleb128 0x2
 14984 49aa 90       		.byte	0x90
 14985 49ab 40       		.uleb128 0x40
 14986 49ac 00       		.byte	0
 14987 49ad 51       		.uleb128 0x51
 14988 49ae ED250000 		.4byte	.LASF975
 14989 49b2 01       		.byte	0x1
 14990 49b3 4B02     		.2byte	0x24b
 14991 49b5 25000000 		.4byte	0x25
 14992 49b9 00000000 		.4byte	.LFB282
 14993 49bd 38000000 		.4byte	.LFE282-.LFB282
 14994 49c1 01       		.uleb128 0x1
 14995 49c2 9C       		.byte	0x9c
 14996 49c3 EA490000 		.4byte	0x49ea
 14997 49c7 36       		.uleb128 0x36
 14998 49c8 72657400 		.ascii	"ret\000"
 14999 49cc 01       		.byte	0x1
 15000 49cd 4C02     		.2byte	0x24c
 15001 49cf 25000000 		.4byte	0x25
 15002 49d3 C3080000 		.4byte	.LLST11
 15003 49d7 42       		.uleb128 0x42
 15004 49d8 26000000 		.4byte	.LVL68
 15005 49dc F3580000 		.4byte	0x58f3
 15006 49e0 42       		.uleb128 0x42
 15007 49e1 2C000000 		.4byte	.LVL70
 15008 49e5 FE580000 		.4byte	0x58fe
 15009 49e9 00       		.byte	0
 15010 49ea 51       		.uleb128 0x51
 15011 49eb C91B0000 		.4byte	.LASF976
 15012 49ef 01       		.byte	0x1
 15013 49f0 3702     		.2byte	0x237
ARM GAS  /tmp/ccETYwEL.s 			page 266


 15014 49f2 25000000 		.4byte	0x25
 15015 49f6 00000000 		.4byte	.LFB281
 15016 49fa 24000000 		.4byte	.LFE281-.LFB281
 15017 49fe 01       		.uleb128 0x1
 15018 49ff 9C       		.byte	0x9c
 15019 4a00 284A0000 		.4byte	0x4a28
 15020 4a04 56       		.uleb128 0x56
 15021 4a05 72657400 		.ascii	"ret\000"
 15022 4a09 01       		.byte	0x1
 15023 4a0a 3802     		.2byte	0x238
 15024 4a0c 25000000 		.4byte	0x25
 15025 4a10 04       		.byte	0x4
 15026 4a11 00000000 		.4byte	0
 15027 4a15 49       		.uleb128 0x49
 15028 4a16 12000000 		.4byte	.LVL62
 15029 4a1a 09590000 		.4byte	0x5909
 15030 4a1e 49       		.uleb128 0x49
 15031 4a1f 1C000000 		.4byte	.LVL63
 15032 4a23 14590000 		.4byte	0x5914
 15033 4a27 00       		.byte	0
 15034 4a28 51       		.uleb128 0x51
 15035 4a29 47160000 		.4byte	.LASF977
 15036 4a2d 01       		.byte	0x1
 15037 4a2e 2302     		.2byte	0x223
 15038 4a30 25000000 		.4byte	0x25
 15039 4a34 00000000 		.4byte	.LFB280
 15040 4a38 38000000 		.4byte	.LFE280-.LFB280
 15041 4a3c 01       		.uleb128 0x1
 15042 4a3d 9C       		.byte	0x9c
 15043 4a3e 654A0000 		.4byte	0x4a65
 15044 4a42 36       		.uleb128 0x36
 15045 4a43 72657400 		.ascii	"ret\000"
 15046 4a47 01       		.byte	0x1
 15047 4a48 2402     		.2byte	0x224
 15048 4a4a 25000000 		.4byte	0x25
 15049 4a4e 1F090000 		.4byte	.LLST10
 15050 4a52 42       		.uleb128 0x42
 15051 4a53 26000000 		.4byte	.LVL58
 15052 4a57 1F590000 		.4byte	0x591f
 15053 4a5b 42       		.uleb128 0x42
 15054 4a5c 2C000000 		.4byte	.LVL60
 15055 4a60 2A590000 		.4byte	0x592a
 15056 4a64 00       		.byte	0
 15057 4a65 51       		.uleb128 0x51
 15058 4a66 272A0000 		.4byte	.LASF978
 15059 4a6a 01       		.byte	0x1
 15060 4a6b 0F02     		.2byte	0x20f
 15061 4a6d 25000000 		.4byte	0x25
 15062 4a71 00000000 		.4byte	.LFB279
 15063 4a75 38000000 		.4byte	.LFE279-.LFB279
 15064 4a79 01       		.uleb128 0x1
 15065 4a7a 9C       		.byte	0x9c
 15066 4a7b A24A0000 		.4byte	0x4aa2
 15067 4a7f 36       		.uleb128 0x36
 15068 4a80 72657400 		.ascii	"ret\000"
 15069 4a84 01       		.byte	0x1
 15070 4a85 1002     		.2byte	0x210
ARM GAS  /tmp/ccETYwEL.s 			page 267


 15071 4a87 25000000 		.4byte	0x25
 15072 4a8b 7B090000 		.4byte	.LLST9
 15073 4a8f 42       		.uleb128 0x42
 15074 4a90 26000000 		.4byte	.LVL51
 15075 4a94 35590000 		.4byte	0x5935
 15076 4a98 42       		.uleb128 0x42
 15077 4a99 2C000000 		.4byte	.LVL53
 15078 4a9d 40590000 		.4byte	0x5940
 15079 4aa1 00       		.byte	0
 15080 4aa2 48       		.uleb128 0x48
 15081 4aa3 1C2D0000 		.4byte	.LASF979
 15082 4aa7 01       		.byte	0x1
 15083 4aa8 0802     		.2byte	0x208
 15084 4aaa 00000000 		.4byte	.LFB278
 15085 4aae 0C000000 		.4byte	.LFE278-.LFB278
 15086 4ab2 01       		.uleb128 0x1
 15087 4ab3 9C       		.byte	0x9c
 15088 4ab4 CF4A0000 		.4byte	0x4acf
 15089 4ab8 54       		.uleb128 0x54
 15090 4ab9 08000000 		.4byte	.LVL333
 15091 4abd EC4B0000 		.4byte	0x4bec
 15092 4ac1 3B       		.uleb128 0x3b
 15093 4ac2 02       		.uleb128 0x2
 15094 4ac3 90       		.byte	0x90
 15095 4ac4 40       		.uleb128 0x40
 15096 4ac5 07       		.uleb128 0x7
 15097 4ac6 F4       		.byte	0xf4
 15098 4ac7 25       		.uleb128 0x25
 15099 4ac8 04       		.byte	0x4
 15100 4ac9 00000000 		.4byte	0
 15101 4acd 00       		.byte	0
 15102 4ace 00       		.byte	0
 15103 4acf 48       		.uleb128 0x48
 15104 4ad0 E7110000 		.4byte	.LASF980
 15105 4ad4 01       		.byte	0x1
 15106 4ad5 0102     		.2byte	0x201
 15107 4ad7 00000000 		.4byte	.LFB277
 15108 4adb 0C000000 		.4byte	.LFE277-.LFB277
 15109 4adf 01       		.uleb128 0x1
 15110 4ae0 9C       		.byte	0x9c
 15111 4ae1 FC4A0000 		.4byte	0x4afc
 15112 4ae5 54       		.uleb128 0x54
 15113 4ae6 08000000 		.4byte	.LVL298
 15114 4aea E04C0000 		.4byte	0x4ce0
 15115 4aee 3B       		.uleb128 0x3b
 15116 4aef 02       		.uleb128 0x2
 15117 4af0 90       		.byte	0x90
 15118 4af1 40       		.uleb128 0x40
 15119 4af2 07       		.uleb128 0x7
 15120 4af3 F4       		.byte	0xf4
 15121 4af4 25       		.uleb128 0x25
 15122 4af5 04       		.byte	0x4
 15123 4af6 00000000 		.4byte	0
 15124 4afa 00       		.byte	0
 15125 4afb 00       		.byte	0
 15126 4afc 48       		.uleb128 0x48
 15127 4afd 1F240000 		.4byte	.LASF981
ARM GAS  /tmp/ccETYwEL.s 			page 268


 15128 4b01 01       		.byte	0x1
 15129 4b02 FD01     		.2byte	0x1fd
 15130 4b04 00000000 		.4byte	.LFB276
 15131 4b08 34000000 		.4byte	.LFE276-.LFB276
 15132 4b0c 01       		.uleb128 0x1
 15133 4b0d 9C       		.byte	0x9c
 15134 4b0e 4F4B0000 		.4byte	0x4b4f
 15135 4b12 34       		.uleb128 0x34
 15136 4b13 76616C00 		.ascii	"val\000"
 15137 4b17 01       		.byte	0x1
 15138 4b18 FD01     		.2byte	0x1fd
 15139 4b1a 25000000 		.4byte	0x25
 15140 4b1e D7090000 		.4byte	.LLST69
 15141 4b22 3D       		.uleb128 0x3d
 15142 4b23 4F4B0000 		.4byte	0x4b4f
 15143 4b27 10000000 		.4byte	.LBB177
 15144 4b2b 40010000 		.4byte	.Ldebug_ranges0+0x140
 15145 4b2f 01       		.byte	0x1
 15146 4b30 FE01     		.2byte	0x1fe
 15147 4b32 3E       		.uleb128 0x3e
 15148 4b33 5C4B0000 		.4byte	0x4b5c
 15149 4b37 F7090000 		.4byte	.LLST70
 15150 4b3b 42       		.uleb128 0x42
 15151 4b3c 14000000 		.4byte	.LVL352
 15152 4b40 96440000 		.4byte	0x4496
 15153 4b44 49       		.uleb128 0x49
 15154 4b45 30000000 		.4byte	.LVL356
 15155 4b49 B7500000 		.4byte	0x50b7
 15156 4b4d 00       		.byte	0
 15157 4b4e 00       		.byte	0
 15158 4b4f 50       		.uleb128 0x50
 15159 4b50 0C340000 		.4byte	.LASF983
 15160 4b54 01       		.byte	0x1
 15161 4b55 E201     		.2byte	0x1e2
 15162 4b57 01       		.byte	0x1
 15163 4b58 694B0000 		.4byte	0x4b69
 15164 4b5c 44       		.uleb128 0x44
 15165 4b5d 83200000 		.4byte	.LASF408
 15166 4b61 01       		.byte	0x1
 15167 4b62 E201     		.2byte	0x1e2
 15168 4b64 25000000 		.4byte	0x25
 15169 4b68 00       		.byte	0
 15170 4b69 48       		.uleb128 0x48
 15171 4b6a 84270000 		.4byte	.LASF984
 15172 4b6e 01       		.byte	0x1
 15173 4b6f D801     		.2byte	0x1d8
 15174 4b71 00000000 		.4byte	.LFB274
 15175 4b75 14000000 		.4byte	.LFE274-.LFB274
 15176 4b79 01       		.uleb128 0x1
 15177 4b7a 9C       		.byte	0x9c
 15178 4b7b 994B0000 		.4byte	0x4b99
 15179 4b7f 34       		.uleb128 0x34
 15180 4b80 76616C00 		.ascii	"val\000"
 15181 4b84 01       		.byte	0x1
 15182 4b85 D801     		.2byte	0x1d8
 15183 4b87 25000000 		.4byte	0x25
 15184 4b8b 380A0000 		.4byte	.LLST67
ARM GAS  /tmp/ccETYwEL.s 			page 269


 15185 4b8f 49       		.uleb128 0x49
 15186 4b90 0E000000 		.4byte	.LVL344
 15187 4b94 D24B0000 		.4byte	0x4bd2
 15188 4b98 00       		.byte	0
 15189 4b99 48       		.uleb128 0x48
 15190 4b9a 4B1B0000 		.4byte	.LASF985
 15191 4b9e 01       		.byte	0x1
 15192 4b9f CA01     		.2byte	0x1ca
 15193 4ba1 00000000 		.4byte	.LFB273
 15194 4ba5 2C000000 		.4byte	.LFE273-.LFB273
 15195 4ba9 01       		.uleb128 0x1
 15196 4baa 9C       		.byte	0x9c
 15197 4bab D24B0000 		.4byte	0x4bd2
 15198 4baf 34       		.uleb128 0x34
 15199 4bb0 76616C00 		.ascii	"val\000"
 15200 4bb4 01       		.byte	0x1
 15201 4bb5 CA01     		.2byte	0x1ca
 15202 4bb7 25000000 		.4byte	0x25
 15203 4bbb 5C0A0000 		.4byte	.LLST64
 15204 4bbf 49       		.uleb128 0x49
 15205 4bc0 18000000 		.4byte	.LVL330
 15206 4bc4 EC4B0000 		.4byte	0x4bec
 15207 4bc8 49       		.uleb128 0x49
 15208 4bc9 28000000 		.4byte	.LVL332
 15209 4bcd EC4B0000 		.4byte	0x4bec
 15210 4bd1 00       		.byte	0
 15211 4bd2 50       		.uleb128 0x50
 15212 4bd3 39330000 		.4byte	.LASF986
 15213 4bd7 01       		.byte	0x1
 15214 4bd8 B001     		.2byte	0x1b0
 15215 4bda 01       		.byte	0x1
 15216 4bdb EC4B0000 		.4byte	0x4bec
 15217 4bdf 44       		.uleb128 0x44
 15218 4be0 83200000 		.4byte	.LASF408
 15219 4be4 01       		.byte	0x1
 15220 4be5 B001     		.2byte	0x1b0
 15221 4be7 25000000 		.4byte	0x25
 15222 4beb 00       		.byte	0
 15223 4bec 50       		.uleb128 0x50
 15224 4bed 80360000 		.4byte	.LASF987
 15225 4bf1 01       		.byte	0x1
 15226 4bf2 9C01     		.2byte	0x19c
 15227 4bf4 01       		.byte	0x1
 15228 4bf5 064C0000 		.4byte	0x4c06
 15229 4bf9 44       		.uleb128 0x44
 15230 4bfa 83200000 		.4byte	.LASF408
 15231 4bfe 01       		.byte	0x1
 15232 4bff 9C01     		.2byte	0x19c
 15233 4c01 25000000 		.4byte	0x25
 15234 4c05 00       		.byte	0
 15235 4c06 48       		.uleb128 0x48
 15236 4c07 552E0000 		.4byte	.LASF988
 15237 4c0b 01       		.byte	0x1
 15238 4c0c 8301     		.2byte	0x183
 15239 4c0e 00000000 		.4byte	.LFB270
 15240 4c12 5C000000 		.4byte	.LFE270-.LFB270
 15241 4c16 01       		.uleb128 0x1
ARM GAS  /tmp/ccETYwEL.s 			page 270


 15242 4c17 9C       		.byte	0x9c
 15243 4c18 5C4C0000 		.4byte	0x4c5c
 15244 4c1c 34       		.uleb128 0x34
 15245 4c1d 706F7300 		.ascii	"pos\000"
 15246 4c21 01       		.byte	0x1
 15247 4c22 8301     		.2byte	0x183
 15248 4c24 25000000 		.4byte	0x25
 15249 4c28 9C0A0000 		.4byte	.LLST61
 15250 4c2c 42       		.uleb128 0x42
 15251 4c2d 0C000000 		.4byte	.LVL316
 15252 4c31 96440000 		.4byte	0x4496
 15253 4c35 3A       		.uleb128 0x3a
 15254 4c36 2E000000 		.4byte	.LVL317
 15255 4c3a 0C580000 		.4byte	0x580c
 15256 4c3e 494C0000 		.4byte	0x4c49
 15257 4c42 3B       		.uleb128 0x3b
 15258 4c43 01       		.uleb128 0x1
 15259 4c44 50       		.byte	0x50
 15260 4c45 02       		.uleb128 0x2
 15261 4c46 91       		.byte	0x91
 15262 4c47 74       		.sleb128 -12
 15263 4c48 00       		.byte	0
 15264 4c49 42       		.uleb128 0x42
 15265 4c4a 42000000 		.4byte	.LVL318
 15266 4c4e 4B590000 		.4byte	0x594b
 15267 4c52 42       		.uleb128 0x42
 15268 4c53 4E000000 		.4byte	.LVL319
 15269 4c57 56590000 		.4byte	0x5956
 15270 4c5b 00       		.byte	0
 15271 4c5c 48       		.uleb128 0x48
 15272 4c5d 770A0000 		.4byte	.LASF989
 15273 4c61 01       		.byte	0x1
 15274 4c62 6F01     		.2byte	0x16f
 15275 4c64 00000000 		.4byte	.LFB269
 15276 4c68 5C000000 		.4byte	.LFE269-.LFB269
 15277 4c6c 01       		.uleb128 0x1
 15278 4c6d 9C       		.byte	0x9c
 15279 4c6e 9E4C0000 		.4byte	0x4c9e
 15280 4c72 34       		.uleb128 0x34
 15281 4c73 72706D00 		.ascii	"rpm\000"
 15282 4c77 01       		.byte	0x1
 15283 4c78 6F01     		.2byte	0x16f
 15284 4c7a 25000000 		.4byte	0x25
 15285 4c7e B00A0000 		.4byte	.LLST60
 15286 4c82 42       		.uleb128 0x42
 15287 4c83 0E000000 		.4byte	.LVL308
 15288 4c87 96440000 		.4byte	0x4496
 15289 4c8b 49       		.uleb128 0x49
 15290 4c8c 38000000 		.4byte	.LVL310
 15291 4c90 61590000 		.4byte	0x5961
 15292 4c94 49       		.uleb128 0x49
 15293 4c95 58000000 		.4byte	.LVL314
 15294 4c99 6C590000 		.4byte	0x596c
 15295 4c9d 00       		.byte	0
 15296 4c9e 48       		.uleb128 0x48
 15297 4c9f 6D350000 		.4byte	.LASF990
 15298 4ca3 01       		.byte	0x1
ARM GAS  /tmp/ccETYwEL.s 			page 271


 15299 4ca4 5B01     		.2byte	0x15b
 15300 4ca6 00000000 		.4byte	.LFB268
 15301 4caa 5C000000 		.4byte	.LFE268-.LFB268
 15302 4cae 01       		.uleb128 0x1
 15303 4caf 9C       		.byte	0x9c
 15304 4cb0 E04C0000 		.4byte	0x4ce0
 15305 4cb4 53       		.uleb128 0x53
 15306 4cb5 E11A0000 		.4byte	.LASF991
 15307 4cb9 01       		.byte	0x1
 15308 4cba 5B01     		.2byte	0x15b
 15309 4cbc 25000000 		.4byte	0x25
 15310 4cc0 180B0000 		.4byte	.LLST59
 15311 4cc4 42       		.uleb128 0x42
 15312 4cc5 0E000000 		.4byte	.LVL300
 15313 4cc9 96440000 		.4byte	0x4496
 15314 4ccd 49       		.uleb128 0x49
 15315 4cce 38000000 		.4byte	.LVL302
 15316 4cd2 77590000 		.4byte	0x5977
 15317 4cd6 49       		.uleb128 0x49
 15318 4cd7 58000000 		.4byte	.LVL306
 15319 4cdb 82590000 		.4byte	0x5982
 15320 4cdf 00       		.byte	0
 15321 4ce0 50       		.uleb128 0x50
 15322 4ce1 3A380000 		.4byte	.LASF992
 15323 4ce5 01       		.byte	0x1
 15324 4ce6 4701     		.2byte	0x147
 15325 4ce8 01       		.byte	0x1
 15326 4ce9 FA4C0000 		.4byte	0x4cfa
 15327 4ced 44       		.uleb128 0x44
 15328 4cee E11A0000 		.4byte	.LASF991
 15329 4cf2 01       		.byte	0x1
 15330 4cf3 4701     		.2byte	0x147
 15331 4cf5 25000000 		.4byte	0x25
 15332 4cf9 00       		.byte	0
 15333 4cfa 51       		.uleb128 0x51
 15334 4cfb 83330000 		.4byte	.LASF993
 15335 4cff 01       		.byte	0x1
 15336 4d00 3401     		.2byte	0x134
 15337 4d02 CC0F0000 		.4byte	0xfcc
 15338 4d06 00000000 		.4byte	.LFB266
 15339 4d0a 20000000 		.4byte	.LFE266-.LFB266
 15340 4d0e 01       		.uleb128 0x1
 15341 4d0f 9C       		.byte	0x9c
 15342 4d10 344D0000 		.4byte	0x4d34
 15343 4d14 57       		.uleb128 0x57
 15344 4d15 72657400 		.ascii	"ret\000"
 15345 4d19 01       		.byte	0x1
 15346 4d1a 3501     		.2byte	0x135
 15347 4d1c CC0F0000 		.4byte	0xfcc
 15348 4d20 00       		.byte	0
 15349 4d21 49       		.uleb128 0x49
 15350 4d22 12000000 		.4byte	.LVL45
 15351 4d26 8D590000 		.4byte	0x598d
 15352 4d2a 49       		.uleb128 0x49
 15353 4d2b 1A000000 		.4byte	.LVL46
 15354 4d2f 98590000 		.4byte	0x5998
 15355 4d33 00       		.byte	0
ARM GAS  /tmp/ccETYwEL.s 			page 272


 15356 4d34 51       		.uleb128 0x51
 15357 4d35 C00E0000 		.4byte	.LASF994
 15358 4d39 01       		.byte	0x1
 15359 4d3a 2701     		.2byte	0x127
 15360 4d3c 170D0000 		.4byte	0xd17
 15361 4d40 00000000 		.4byte	.LFB265
 15362 4d44 18000000 		.4byte	.LFE265-.LFB265
 15363 4d48 01       		.uleb128 0x1
 15364 4d49 9C       		.byte	0x9c
 15365 4d4a 5F4D0000 		.4byte	0x4d5f
 15366 4d4e 53       		.uleb128 0x53
 15367 4d4f 4D290000 		.4byte	.LASF407
 15368 4d53 01       		.byte	0x1
 15369 4d54 2701     		.2byte	0x127
 15370 4d56 11110000 		.4byte	0x1111
 15371 4d5a 800B0000 		.4byte	.LLST8
 15372 4d5e 00       		.byte	0
 15373 4d5f 52       		.uleb128 0x52
 15374 4d60 7A180000 		.4byte	.LASF995
 15375 4d64 01       		.byte	0x1
 15376 4d65 2301     		.2byte	0x123
 15377 4d67 11110000 		.4byte	0x1111
 15378 4d6b 00000000 		.4byte	.LFB264
 15379 4d6f 0C000000 		.4byte	.LFE264-.LFB264
 15380 4d73 01       		.uleb128 0x1
 15381 4d74 9C       		.byte	0x9c
 15382 4d75 59       		.uleb128 0x59
 15383 4d76 463C0000 		.4byte	.LASF996
 15384 4d7a 01       		.byte	0x1
 15385 4d7b 1F01     		.2byte	0x11f
 15386 4d7d 00000000 		.4byte	.LFB263
 15387 4d81 0C000000 		.4byte	.LFE263-.LFB263
 15388 4d85 01       		.uleb128 0x1
 15389 4d86 9C       		.byte	0x9c
 15390 4d87 59       		.uleb128 0x59
 15391 4d88 F62E0000 		.4byte	.LASF997
 15392 4d8c 01       		.byte	0x1
 15393 4d8d 1801     		.2byte	0x118
 15394 4d8f 00000000 		.4byte	.LFB262
 15395 4d93 0C000000 		.4byte	.LFE262-.LFB262
 15396 4d97 01       		.uleb128 0x1
 15397 4d98 9C       		.byte	0x9c
 15398 4d99 59       		.uleb128 0x59
 15399 4d9a EF180000 		.4byte	.LASF998
 15400 4d9e 01       		.byte	0x1
 15401 4d9f 1101     		.2byte	0x111
 15402 4da1 00000000 		.4byte	.LFB261
 15403 4da5 0C000000 		.4byte	.LFE261-.LFB261
 15404 4da9 01       		.uleb128 0x1
 15405 4daa 9C       		.byte	0x9c
 15406 4dab 48       		.uleb128 0x48
 15407 4dac 980D0000 		.4byte	.LASF999
 15408 4db0 01       		.byte	0x1
 15409 4db1 0A01     		.2byte	0x10a
 15410 4db3 00000000 		.4byte	.LFB260
 15411 4db7 0C000000 		.4byte	.LFE260-.LFB260
 15412 4dbb 01       		.uleb128 0x1
ARM GAS  /tmp/ccETYwEL.s 			page 273


 15413 4dbc 9C       		.byte	0x9c
 15414 4dbd D04D0000 		.4byte	0x4dd0
 15415 4dc1 58       		.uleb128 0x58
 15416 4dc2 0E3B0000 		.4byte	.LASF1000
 15417 4dc6 01       		.byte	0x1
 15418 4dc7 0A01     		.2byte	0x10a
 15419 4dc9 DC310000 		.4byte	0x31dc
 15420 4dcd 01       		.uleb128 0x1
 15421 4dce 50       		.byte	0x50
 15422 4dcf 00       		.byte	0
 15423 4dd0 5A       		.uleb128 0x5a
 15424 4dd1 7E010000 		.4byte	.LASF1001
 15425 4dd5 01       		.byte	0x1
 15426 4dd6 F1       		.byte	0xf1
 15427 4dd7 B9160000 		.4byte	0x16b9
 15428 4ddb 00000000 		.4byte	.LFB259
 15429 4ddf 20000000 		.4byte	.LFE259-.LFB259
 15430 4de3 01       		.uleb128 0x1
 15431 4de4 9C       		.byte	0x9c
 15432 4de5 084E0000 		.4byte	0x4e08
 15433 4de9 5B       		.uleb128 0x5b
 15434 4dea 72657400 		.ascii	"ret\000"
 15435 4dee 01       		.byte	0x1
 15436 4def F2       		.byte	0xf2
 15437 4df0 B9160000 		.4byte	0x16b9
 15438 4df4 00       		.byte	0
 15439 4df5 49       		.uleb128 0x49
 15440 4df6 12000000 		.4byte	.LVL39
 15441 4dfa A3590000 		.4byte	0x59a3
 15442 4dfe 49       		.uleb128 0x49
 15443 4dff 1A000000 		.4byte	.LVL40
 15444 4e03 AE590000 		.4byte	0x59ae
 15445 4e07 00       		.byte	0
 15446 4e08 5C       		.uleb128 0x5c
 15447 4e09 641A0000 		.4byte	.LASF1002
 15448 4e0d 01       		.byte	0x1
 15449 4e0e B3       		.byte	0xb3
 15450 4e0f 00000000 		.4byte	.LFB258
 15451 4e13 DC000000 		.4byte	.LFE258-.LFB258
 15452 4e17 01       		.uleb128 0x1
 15453 4e18 9C       		.byte	0x9c
 15454 4e19 2E4F0000 		.4byte	0x4f2e
 15455 4e1d 5D       		.uleb128 0x5d
 15456 4e1e 53290000 		.4byte	.LASF599
 15457 4e22 01       		.byte	0x1
 15458 4e23 B3       		.byte	0xb3
 15459 4e24 2E4F0000 		.4byte	0x4f2e
 15460 4e28 A10B0000 		.4byte	.LLST46
 15461 4e2c 3A       		.uleb128 0x3a
 15462 4e2d 34000000 		.4byte	.LVL229
 15463 4e31 B9590000 		.4byte	0x59b9
 15464 4e35 4D4E0000 		.4byte	0x4e4d
 15465 4e39 3B       		.uleb128 0x3b
 15466 4e3a 01       		.uleb128 0x1
 15467 4e3b 50       		.byte	0x50
 15468 4e3c 02       		.uleb128 0x2
 15469 4e3d 75       		.byte	0x75
ARM GAS  /tmp/ccETYwEL.s 			page 274


 15470 4e3e 00       		.sleb128 0
 15471 4e3f 3B       		.uleb128 0x3b
 15472 4e40 01       		.uleb128 0x1
 15473 4e41 51       		.byte	0x51
 15474 4e42 02       		.uleb128 0x2
 15475 4e43 74       		.byte	0x74
 15476 4e44 00       		.sleb128 0
 15477 4e45 3B       		.uleb128 0x3b
 15478 4e46 01       		.uleb128 0x1
 15479 4e47 52       		.byte	0x52
 15480 4e48 03       		.uleb128 0x3
 15481 4e49 0A       		.byte	0xa
 15482 4e4a 8401     		.2byte	0x184
 15483 4e4c 00       		.byte	0
 15484 4e4d 42       		.uleb128 0x42
 15485 4e4e 38000000 		.4byte	.LVL230
 15486 4e52 D0510000 		.4byte	0x51d0
 15487 4e56 5E       		.uleb128 0x5e
 15488 4e57 4E000000 		.4byte	.LVL232
 15489 4e5b C8590000 		.4byte	0x59c8
 15490 4e5f 6D4E0000 		.4byte	0x4e6d
 15491 4e63 3B       		.uleb128 0x3b
 15492 4e64 01       		.uleb128 0x1
 15493 4e65 50       		.byte	0x50
 15494 4e66 05       		.uleb128 0x5
 15495 4e67 03       		.byte	0x3
 15496 4e68 00000000 		.4byte	.LANCHOR12
 15497 4e6c 00       		.byte	0
 15498 4e6d 42       		.uleb128 0x42
 15499 4e6e 54000000 		.4byte	.LVL234
 15500 4e72 D3590000 		.4byte	0x59d3
 15501 4e76 42       		.uleb128 0x42
 15502 4e77 64000000 		.4byte	.LVL235
 15503 4e7b DE590000 		.4byte	0x59de
 15504 4e7f 42       		.uleb128 0x42
 15505 4e80 74000000 		.4byte	.LVL236
 15506 4e84 E9590000 		.4byte	0x59e9
 15507 4e88 42       		.uleb128 0x42
 15508 4e89 8A000000 		.4byte	.LVL237
 15509 4e8d F4590000 		.4byte	0x59f4
 15510 4e91 3A       		.uleb128 0x3a
 15511 4e92 96000000 		.4byte	.LVL238
 15512 4e96 B9590000 		.4byte	0x59b9
 15513 4e9a B24E0000 		.4byte	0x4eb2
 15514 4e9e 3B       		.uleb128 0x3b
 15515 4e9f 01       		.uleb128 0x1
 15516 4ea0 50       		.byte	0x50
 15517 4ea1 02       		.uleb128 0x2
 15518 4ea2 75       		.byte	0x75
 15519 4ea3 00       		.sleb128 0
 15520 4ea4 3B       		.uleb128 0x3b
 15521 4ea5 01       		.uleb128 0x1
 15522 4ea6 51       		.byte	0x51
 15523 4ea7 02       		.uleb128 0x2
 15524 4ea8 74       		.byte	0x74
 15525 4ea9 00       		.sleb128 0
 15526 4eaa 3B       		.uleb128 0x3b
ARM GAS  /tmp/ccETYwEL.s 			page 275


 15527 4eab 01       		.uleb128 0x1
 15528 4eac 52       		.byte	0x52
 15529 4ead 03       		.uleb128 0x3
 15530 4eae 0A       		.byte	0xa
 15531 4eaf 8401     		.2byte	0x184
 15532 4eb1 00       		.byte	0
 15533 4eb2 3A       		.uleb128 0x3a
 15534 4eb3 9C000000 		.4byte	.LVL239
 15535 4eb7 FF590000 		.4byte	0x59ff
 15536 4ebb C64E0000 		.4byte	0x4ec6
 15537 4ebf 3B       		.uleb128 0x3b
 15538 4ec0 01       		.uleb128 0x1
 15539 4ec1 50       		.byte	0x50
 15540 4ec2 02       		.uleb128 0x2
 15541 4ec3 75       		.byte	0x75
 15542 4ec4 00       		.sleb128 0
 15543 4ec5 00       		.byte	0
 15544 4ec6 42       		.uleb128 0x42
 15545 4ec7 A0000000 		.4byte	.LVL240
 15546 4ecb D0510000 		.4byte	0x51d0
 15547 4ecf 5E       		.uleb128 0x5e
 15548 4ed0 B2000000 		.4byte	.LVL242
 15549 4ed4 0A5A0000 		.4byte	0x5a0a
 15550 4ed8 E64E0000 		.4byte	0x4ee6
 15551 4edc 3B       		.uleb128 0x3b
 15552 4edd 01       		.uleb128 0x1
 15553 4ede 50       		.byte	0x50
 15554 4edf 05       		.uleb128 0x5
 15555 4ee0 03       		.byte	0x3
 15556 4ee1 00000000 		.4byte	.LANCHOR12
 15557 4ee5 00       		.byte	0
 15558 4ee6 42       		.uleb128 0x42
 15559 4ee7 B6000000 		.4byte	.LVL243
 15560 4eeb 155A0000 		.4byte	0x5a15
 15561 4eef 3A       		.uleb128 0x3a
 15562 4ef0 C2000000 		.4byte	.LVL244
 15563 4ef4 B9590000 		.4byte	0x59b9
 15564 4ef8 104F0000 		.4byte	0x4f10
 15565 4efc 3B       		.uleb128 0x3b
 15566 4efd 01       		.uleb128 0x1
 15567 4efe 50       		.byte	0x50
 15568 4eff 02       		.uleb128 0x2
 15569 4f00 75       		.byte	0x75
 15570 4f01 00       		.sleb128 0
 15571 4f02 3B       		.uleb128 0x3b
 15572 4f03 01       		.uleb128 0x1
 15573 4f04 51       		.byte	0x51
 15574 4f05 02       		.uleb128 0x2
 15575 4f06 74       		.byte	0x74
 15576 4f07 00       		.sleb128 0
 15577 4f08 3B       		.uleb128 0x3b
 15578 4f09 01       		.uleb128 0x1
 15579 4f0a 52       		.byte	0x52
 15580 4f0b 03       		.uleb128 0x3
 15581 4f0c 0A       		.byte	0xa
 15582 4f0d 8401     		.2byte	0x184
 15583 4f0f 00       		.byte	0
ARM GAS  /tmp/ccETYwEL.s 			page 276


 15584 4f10 3A       		.uleb128 0x3a
 15585 4f11 C8000000 		.4byte	.LVL245
 15586 4f15 205A0000 		.4byte	0x5a20
 15587 4f19 244F0000 		.4byte	0x4f24
 15588 4f1d 3B       		.uleb128 0x3b
 15589 4f1e 01       		.uleb128 0x1
 15590 4f1f 50       		.byte	0x50
 15591 4f20 02       		.uleb128 0x2
 15592 4f21 75       		.byte	0x75
 15593 4f22 00       		.sleb128 0
 15594 4f23 00       		.byte	0
 15595 4f24 42       		.uleb128 0x42
 15596 4f25 D2000000 		.4byte	.LVL246
 15597 4f29 2B5A0000 		.4byte	0x5a2b
 15598 4f2d 00       		.byte	0
 15599 4f2e 0B       		.uleb128 0xb
 15600 4f2f 04       		.byte	0x4
 15601 4f30 E5160000 		.4byte	0x16e5
 15602 4f34 5F       		.uleb128 0x5f
 15603 4f35 CA330000 		.4byte	.LASF1003
 15604 4f39 01       		.byte	0x1
 15605 4f3a AF       		.byte	0xaf
 15606 4f3b 494F0000 		.4byte	0x4f49
 15607 4f3f 00000000 		.4byte	.LFB257
 15608 4f43 08000000 		.4byte	.LFE257-.LFB257
 15609 4f47 01       		.uleb128 0x1
 15610 4f48 9C       		.byte	0x9c
 15611 4f49 0B       		.uleb128 0xb
 15612 4f4a 04       		.byte	0x4
 15613 4f4b F6160000 		.4byte	0x16f6
 15614 4f4f 5C       		.uleb128 0x5c
 15615 4f50 343C0000 		.4byte	.LASF1004
 15616 4f54 01       		.byte	0x1
 15617 4f55 64       		.byte	0x64
 15618 4f56 00000000 		.4byte	.LFB256
 15619 4f5a 78010000 		.4byte	.LFE256-.LFB256
 15620 4f5e 01       		.uleb128 0x1
 15621 4f5f 9C       		.byte	0x9c
 15622 4f60 37500000 		.4byte	0x5037
 15623 4f64 5D       		.uleb128 0x5d
 15624 4f65 53290000 		.4byte	.LASF599
 15625 4f69 01       		.byte	0x1
 15626 4f6a 64       		.byte	0x64
 15627 4f6b 2E4F0000 		.4byte	0x4f2e
 15628 4f6f 070C0000 		.4byte	.LLST7
 15629 4f73 3A       		.uleb128 0x3a
 15630 4f74 16000000 		.4byte	.LVL31
 15631 4f78 B9590000 		.4byte	0x59b9
 15632 4f7c 954F0000 		.4byte	0x4f95
 15633 4f80 3B       		.uleb128 0x3b
 15634 4f81 01       		.uleb128 0x1
 15635 4f82 50       		.byte	0x50
 15636 4f83 02       		.uleb128 0x2
 15637 4f84 75       		.byte	0x75
 15638 4f85 00       		.sleb128 0
 15639 4f86 3B       		.uleb128 0x3b
 15640 4f87 01       		.uleb128 0x1
ARM GAS  /tmp/ccETYwEL.s 			page 277


 15641 4f88 51       		.byte	0x51
 15642 4f89 03       		.uleb128 0x3
 15643 4f8a F3       		.byte	0xf3
 15644 4f8b 01       		.uleb128 0x1
 15645 4f8c 50       		.byte	0x50
 15646 4f8d 3B       		.uleb128 0x3b
 15647 4f8e 01       		.uleb128 0x1
 15648 4f8f 52       		.byte	0x52
 15649 4f90 03       		.uleb128 0x3
 15650 4f91 0A       		.byte	0xa
 15651 4f92 8401     		.2byte	0x184
 15652 4f94 00       		.byte	0
 15653 4f95 3A       		.uleb128 0x3a
 15654 4f96 9A000000 		.4byte	.LVL32
 15655 4f9a 365A0000 		.4byte	0x5a36
 15656 4f9e C24F0000 		.4byte	0x4fc2
 15657 4fa2 3B       		.uleb128 0x3b
 15658 4fa3 01       		.uleb128 0x1
 15659 4fa4 50       		.byte	0x50
 15660 4fa5 05       		.uleb128 0x5
 15661 4fa6 03       		.byte	0x3
 15662 4fa7 00000000 		.4byte	.LANCHOR37
 15663 4fab 3B       		.uleb128 0x3b
 15664 4fac 01       		.uleb128 0x1
 15665 4fad 51       		.byte	0x51
 15666 4fae 03       		.uleb128 0x3
 15667 4faf 0A       		.byte	0xa
 15668 4fb0 9805     		.2byte	0x598
 15669 4fb2 3B       		.uleb128 0x3b
 15670 4fb3 01       		.uleb128 0x1
 15671 4fb4 52       		.byte	0x52
 15672 4fb5 02       		.uleb128 0x2
 15673 4fb6 08       		.byte	0x8
 15674 4fb7 40       		.byte	0x40
 15675 4fb8 3B       		.uleb128 0x3b
 15676 4fb9 01       		.uleb128 0x1
 15677 4fba 53       		.byte	0x53
 15678 4fbb 05       		.uleb128 0x5
 15679 4fbc 03       		.byte	0x3
 15680 4fbd 00000000 		.4byte	timer_thread
 15681 4fc1 00       		.byte	0
 15682 4fc2 3A       		.uleb128 0x3a
 15683 4fc3 AA000000 		.4byte	.LVL33
 15684 4fc7 365A0000 		.4byte	0x5a36
 15685 4fcb F64F0000 		.4byte	0x4ff6
 15686 4fcf 3B       		.uleb128 0x3b
 15687 4fd0 01       		.uleb128 0x1
 15688 4fd1 50       		.byte	0x50
 15689 4fd2 05       		.uleb128 0x5
 15690 4fd3 03       		.byte	0x3
 15691 4fd4 00000000 		.4byte	.LANCHOR38
 15692 4fd8 3B       		.uleb128 0x3b
 15693 4fd9 01       		.uleb128 0x1
 15694 4fda 51       		.byte	0x51
 15695 4fdb 03       		.uleb128 0x3
 15696 4fdc 0A       		.byte	0xa
 15697 4fdd 9805     		.2byte	0x598
ARM GAS  /tmp/ccETYwEL.s 			page 278


 15698 4fdf 3B       		.uleb128 0x3b
 15699 4fe0 01       		.uleb128 0x1
 15700 4fe1 52       		.byte	0x52
 15701 4fe2 02       		.uleb128 0x2
 15702 4fe3 08       		.byte	0x8
 15703 4fe4 3F       		.byte	0x3f
 15704 4fe5 3B       		.uleb128 0x3b
 15705 4fe6 01       		.uleb128 0x1
 15706 4fe7 53       		.byte	0x53
 15707 4fe8 05       		.uleb128 0x5
 15708 4fe9 03       		.byte	0x3
 15709 4fea 00000000 		.4byte	sample_send_thread
 15710 4fee 3B       		.uleb128 0x3b
 15711 4fef 02       		.uleb128 0x2
 15712 4ff0 7D       		.byte	0x7d
 15713 4ff1 00       		.sleb128 0
 15714 4ff2 02       		.uleb128 0x2
 15715 4ff3 74       		.byte	0x74
 15716 4ff4 00       		.sleb128 0
 15717 4ff5 00       		.byte	0
 15718 4ff6 5E       		.uleb128 0x5e
 15719 4ff7 D0000000 		.4byte	.LVL34
 15720 4ffb FF590000 		.4byte	0x59ff
 15721 4fff 0D500000 		.4byte	0x500d
 15722 5003 3B       		.uleb128 0x3b
 15723 5004 01       		.uleb128 0x1
 15724 5005 50       		.byte	0x50
 15725 5006 05       		.uleb128 0x5
 15726 5007 03       		.byte	0x3
 15727 5008 00000000 		.4byte	.LANCHOR12
 15728 500c 00       		.byte	0
 15729 500d 42       		.uleb128 0x42
 15730 500e D4000000 		.4byte	.LVL35
 15731 5012 DE590000 		.4byte	0x59de
 15732 5016 5E       		.uleb128 0x5e
 15733 5017 E8000000 		.4byte	.LVL36
 15734 501b 205A0000 		.4byte	0x5a20
 15735 501f 2D500000 		.4byte	0x502d
 15736 5023 3B       		.uleb128 0x3b
 15737 5024 01       		.uleb128 0x1
 15738 5025 50       		.byte	0x50
 15739 5026 05       		.uleb128 0x5
 15740 5027 03       		.byte	0x3
 15741 5028 00000000 		.4byte	.LANCHOR12
 15742 502c 00       		.byte	0
 15743 502d 42       		.uleb128 0x42
 15744 502e F4000000 		.4byte	.LVL37
 15745 5032 2B5A0000 		.4byte	0x5a2b
 15746 5036 00       		.byte	0
 15747 5037 60       		.uleb128 0x60
 15748 5038 8A350000 		.4byte	.LASF1006
 15749 503c 02       		.byte	0x2
 15750 503d 84       		.byte	0x84
 15751 503e 03       		.byte	0x3
 15752 503f 4F500000 		.4byte	0x504f
 15753 5043 61       		.uleb128 0x61
 15754 5044 9D350000 		.4byte	.LASF1007
ARM GAS  /tmp/ccETYwEL.s 			page 279


 15755 5048 02       		.byte	0x2
 15756 5049 84       		.byte	0x84
 15757 504a 170D0000 		.4byte	0xd17
 15758 504e 00       		.byte	0
 15759 504f 62       		.uleb128 0x62
 15760 5050 F1280000 		.4byte	.LASF1008
 15761 5054 2E       		.byte	0x2e
 15762 5055 AE       		.byte	0xae
 15763 5056 E2020000 		.4byte	0x2e2
 15764 505a 03       		.byte	0x3
 15765 505b 62       		.uleb128 0x62
 15766 505c 222E0000 		.4byte	.LASF1009
 15767 5060 03       		.byte	0x3
 15768 5061 E4       		.byte	0xe4
 15769 5062 B7010000 		.4byte	0x1b7
 15770 5066 03       		.byte	0x3
 15771 5067 63       		.uleb128 0x63
 15772 5068 F0270000 		.4byte	.LASF1010
 15773 506c 2D       		.byte	0x2d
 15774 506d 9601     		.2byte	0x196
 15775 506f 03       		.byte	0x3
 15776 5070 63       		.uleb128 0x63
 15777 5071 42370000 		.4byte	.LASF1011
 15778 5075 2D       		.byte	0x2d
 15779 5076 8201     		.2byte	0x182
 15780 5078 03       		.byte	0x3
 15781 5079 63       		.uleb128 0x63
 15782 507a B7000000 		.4byte	.LASF1012
 15783 507e 0F       		.byte	0xf
 15784 507f E401     		.2byte	0x1e4
 15785 5081 03       		.byte	0x3
 15786 5082 63       		.uleb128 0x63
 15787 5083 851E0000 		.4byte	.LASF1013
 15788 5087 0F       		.byte	0xf
 15789 5088 D901     		.2byte	0x1d9
 15790 508a 03       		.byte	0x3
 15791 508b 63       		.uleb128 0x63
 15792 508c 1F230000 		.4byte	.LASF1014
 15793 5090 0F       		.byte	0xf
 15794 5091 CA01     		.2byte	0x1ca
 15795 5093 03       		.byte	0x3
 15796 5094 63       		.uleb128 0x63
 15797 5095 02260000 		.4byte	.LASF1015
 15798 5099 0F       		.byte	0xf
 15799 509a BC01     		.2byte	0x1bc
 15800 509c 03       		.byte	0x3
 15801 509d 43       		.uleb128 0x43
 15802 509e 81380000 		.4byte	.LASF1016
 15803 50a2 04       		.byte	0x4
 15804 50a3 2002     		.2byte	0x220
 15805 50a5 03       		.byte	0x3
 15806 50a6 B7500000 		.4byte	0x50b7
 15807 50aa 44       		.uleb128 0x44
 15808 50ab E8100000 		.4byte	.LASF1017
 15809 50af 04       		.byte	0x4
 15810 50b0 2002     		.2byte	0x220
 15811 50b2 1E010000 		.4byte	0x11e
ARM GAS  /tmp/ccETYwEL.s 			page 280


 15812 50b6 00       		.byte	0
 15813 50b7 64       		.uleb128 0x64
 15814 50b8 4F4B0000 		.4byte	0x4b4f
 15815 50bc 00000000 		.4byte	.LFB316
 15816 50c0 1C000000 		.4byte	.LFE316-.LFB316
 15817 50c4 01       		.uleb128 0x1
 15818 50c5 9C       		.byte	0x9c
 15819 50c6 F5500000 		.4byte	0x50f5
 15820 50ca 3E       		.uleb128 0x3e
 15821 50cb 5C4B0000 		.4byte	0x4b5c
 15822 50cf 330C0000 		.4byte	.LLST6
 15823 50d3 5E       		.uleb128 0x5e
 15824 50d4 12000000 		.4byte	.LVL27
 15825 50d8 415A0000 		.4byte	0x5a41
 15826 50dc EB500000 		.4byte	0x50eb
 15827 50e0 3B       		.uleb128 0x3b
 15828 50e1 02       		.uleb128 0x2
 15829 50e2 90       		.byte	0x90
 15830 50e3 40       		.uleb128 0x40
 15831 50e4 05       		.uleb128 0x5
 15832 50e5 F3       		.byte	0xf3
 15833 50e6 03       		.uleb128 0x3
 15834 50e7 F5       		.byte	0xf5
 15835 50e8 40       		.uleb128 0x40
 15836 50e9 25       		.uleb128 0x25
 15837 50ea 00       		.byte	0
 15838 50eb 49       		.uleb128 0x49
 15839 50ec 18000000 		.4byte	.LVL28
 15840 50f0 4C5A0000 		.4byte	0x5a4c
 15841 50f4 00       		.byte	0
 15842 50f5 64       		.uleb128 0x64
 15843 50f6 4A440000 		.4byte	0x444a
 15844 50fa 00000000 		.4byte	.LFB317
 15845 50fe 40010000 		.4byte	.LFE317-.LFB317
 15846 5102 01       		.uleb128 0x1
 15847 5103 9C       		.byte	0x9c
 15848 5104 D0510000 		.4byte	0x51d0
 15849 5108 3E       		.uleb128 0x3e
 15850 5109 57440000 		.4byte	0x4457
 15851 510d 730C0000 		.4byte	.LLST16
 15852 5111 65       		.uleb128 0x65
 15853 5112 63440000 		.4byte	0x4463
 15854 5116 3C000000 		.4byte	.LBB134
 15855 511a 04010000 		.4byte	.LBE134-.LBB134
 15856 511e B4510000 		.4byte	0x51b4
 15857 5122 66       		.uleb128 0x66
 15858 5123 64440000 		.4byte	0x4464
 15859 5127 03       		.uleb128 0x3
 15860 5128 91       		.byte	0x91
 15861 5129 A47F     		.sleb128 -92
 15862 512b 66       		.uleb128 0x66
 15863 512c 70440000 		.4byte	0x4470
 15864 5130 03       		.uleb128 0x3
 15865 5131 91       		.byte	0x91
 15866 5132 A87F     		.sleb128 -88
 15867 5134 66       		.uleb128 0x66
 15868 5135 7C440000 		.4byte	0x447c
ARM GAS  /tmp/ccETYwEL.s 			page 281


 15869 5139 03       		.uleb128 0x3
 15870 513a 91       		.byte	0x91
 15871 513b AC7F     		.sleb128 -84
 15872 513d 66       		.uleb128 0x66
 15873 513e 88440000 		.4byte	0x4488
 15874 5142 03       		.uleb128 0x3
 15875 5143 91       		.byte	0x91
 15876 5144 B07F     		.sleb128 -80
 15877 5146 42       		.uleb128 0x42
 15878 5147 40000000 		.4byte	.LVL115
 15879 514b 575A0000 		.4byte	0x5a57
 15880 514f 42       		.uleb128 0x42
 15881 5150 54000000 		.4byte	.LVL116
 15882 5154 625A0000 		.4byte	0x5a62
 15883 5158 42       		.uleb128 0x42
 15884 5159 5C000000 		.4byte	.LVL117
 15885 515d 8F480000 		.4byte	0x488f
 15886 5161 42       		.uleb128 0x42
 15887 5162 66000000 		.4byte	.LVL118
 15888 5166 51480000 		.4byte	0x4851
 15889 516a 42       		.uleb128 0x42
 15890 516b 8C000000 		.4byte	.LVL119
 15891 516f 284A0000 		.4byte	0x4a28
 15892 5173 42       		.uleb128 0x42
 15893 5174 94000000 		.4byte	.LVL120
 15894 5178 AD490000 		.4byte	0x49ad
 15895 517c 3A       		.uleb128 0x3a
 15896 517d 9E000000 		.4byte	.LVL121
 15897 5181 0E470000 		.4byte	0x470e
 15898 5185 90510000 		.4byte	0x5190
 15899 5189 3B       		.uleb128 0x3b
 15900 518a 01       		.uleb128 0x1
 15901 518b 50       		.byte	0x50
 15902 518c 02       		.uleb128 0x2
 15903 518d 76       		.byte	0x76
 15904 518e 00       		.sleb128 0
 15905 518f 00       		.byte	0
 15906 5190 42       		.uleb128 0x42
 15907 5191 B6000000 		.4byte	.LVL122
 15908 5195 88570000 		.4byte	0x5788
 15909 5199 42       		.uleb128 0x42
 15910 519a DA000000 		.4byte	.LVL123
 15911 519e 6D5A0000 		.4byte	0x5a6d
 15912 51a2 3C       		.uleb128 0x3c
 15913 51a3 04010000 		.4byte	.LVL124
 15914 51a7 795A0000 		.4byte	0x5a79
 15915 51ab 3B       		.uleb128 0x3b
 15916 51ac 01       		.uleb128 0x1
 15917 51ad 50       		.byte	0x50
 15918 51ae 03       		.uleb128 0x3
 15919 51af 91       		.byte	0x91
 15920 51b0 B07F     		.sleb128 -80
 15921 51b2 00       		.byte	0
 15922 51b3 00       		.byte	0
 15923 51b4 42       		.uleb128 0x42
 15924 51b5 0A000000 		.4byte	.LVL112
 15925 51b9 D04D0000 		.4byte	0x4dd0
ARM GAS  /tmp/ccETYwEL.s 			page 282


 15926 51bd 42       		.uleb128 0x42
 15927 51be 2C000000 		.4byte	.LVL113
 15928 51c2 845A0000 		.4byte	0x5a84
 15929 51c6 42       		.uleb128 0x42
 15930 51c7 36000000 		.4byte	.LVL114
 15931 51cb F6570000 		.4byte	0x57f6
 15932 51cf 00       		.byte	0
 15933 51d0 64       		.uleb128 0x64
 15934 51d1 5F3D0000 		.4byte	0x3d5f
 15935 51d5 00000000 		.4byte	.LFB318
 15936 51d9 84050000 		.4byte	.LFE318-.LFB318
 15937 51dd 01       		.uleb128 0x1
 15938 51de 9C       		.byte	0x9c
 15939 51df EA550000 		.4byte	0x55ea
 15940 51e3 67       		.uleb128 0x67
 15941 51e4 783D0000 		.4byte	0x3d78
 15942 51e8 940C0000 		.4byte	.LLST17
 15943 51ec 67       		.uleb128 0x67
 15944 51ed 843D0000 		.4byte	0x3d84
 15945 51f1 B40C0000 		.4byte	.LLST18
 15946 51f5 67       		.uleb128 0x67
 15947 51f6 903D0000 		.4byte	0x3d90
 15948 51fa 040D0000 		.4byte	.LLST19
 15949 51fe 67       		.uleb128 0x67
 15950 51ff 9C3D0000 		.4byte	0x3d9c
 15951 5203 680D0000 		.4byte	.LLST20
 15952 5207 67       		.uleb128 0x67
 15953 5208 A83D0000 		.4byte	0x3da8
 15954 520c D80D0000 		.4byte	.LLST21
 15955 5210 67       		.uleb128 0x67
 15956 5211 B43D0000 		.4byte	0x3db4
 15957 5215 300E0000 		.4byte	.LLST22
 15958 5219 67       		.uleb128 0x67
 15959 521a C03D0000 		.4byte	0x3dc0
 15960 521e 940E0000 		.4byte	.LLST23
 15961 5222 67       		.uleb128 0x67
 15962 5223 CC3D0000 		.4byte	0x3dcc
 15963 5227 CC0E0000 		.4byte	.LLST24
 15964 522b 67       		.uleb128 0x67
 15965 522c D83D0000 		.4byte	0x3dd8
 15966 5230 F80E0000 		.4byte	.LLST25
 15967 5234 67       		.uleb128 0x67
 15968 5235 E43D0000 		.4byte	0x3de4
 15969 5239 300F0000 		.4byte	.LLST26
 15970 523d 67       		.uleb128 0x67
 15971 523e F03D0000 		.4byte	0x3df0
 15972 5242 980F0000 		.4byte	.LLST27
 15973 5246 67       		.uleb128 0x67
 15974 5247 FC3D0000 		.4byte	0x3dfc
 15975 524b 0C100000 		.4byte	.LLST28
 15976 524f 67       		.uleb128 0x67
 15977 5250 083E0000 		.4byte	0x3e08
 15978 5254 80100000 		.4byte	.LLST29
 15979 5258 67       		.uleb128 0x67
 15980 5259 143E0000 		.4byte	0x3e14
 15981 525d F4100000 		.4byte	.LLST30
 15982 5261 67       		.uleb128 0x67
ARM GAS  /tmp/ccETYwEL.s 			page 283


 15983 5262 203E0000 		.4byte	0x3e20
 15984 5266 20110000 		.4byte	.LLST31
 15985 526a 67       		.uleb128 0x67
 15986 526b 2C3E0000 		.4byte	0x3e2c
 15987 526f 4C110000 		.4byte	.LLST32
 15988 5273 67       		.uleb128 0x67
 15989 5274 383E0000 		.4byte	0x3e38
 15990 5278 A8110000 		.4byte	.LLST33
 15991 527c 67       		.uleb128 0x67
 15992 527d 443E0000 		.4byte	0x3e44
 15993 5281 D4110000 		.4byte	.LLST34
 15994 5285 67       		.uleb128 0x67
 15995 5286 503E0000 		.4byte	0x3e50
 15996 528a 00120000 		.4byte	.LLST35
 15997 528e 67       		.uleb128 0x67
 15998 528f 5C3E0000 		.4byte	0x3e5c
 15999 5293 5C120000 		.4byte	.LLST36
 16000 5297 67       		.uleb128 0x67
 16001 5298 683E0000 		.4byte	0x3e68
 16002 529c 94120000 		.4byte	.LLST37
 16003 52a0 67       		.uleb128 0x67
 16004 52a1 743E0000 		.4byte	0x3e74
 16005 52a5 F0120000 		.4byte	.LLST38
 16006 52a9 67       		.uleb128 0x67
 16007 52aa 803E0000 		.4byte	0x3e80
 16008 52ae 16130000 		.4byte	.LLST39
 16009 52b2 67       		.uleb128 0x67
 16010 52b3 8C3E0000 		.4byte	0x3e8c
 16011 52b7 2A130000 		.4byte	.LLST40
 16012 52bb 67       		.uleb128 0x67
 16013 52bc 983E0000 		.4byte	0x3e98
 16014 52c0 4A130000 		.4byte	.LLST41
 16015 52c4 40       		.uleb128 0x40
 16016 52c5 6C3D0000 		.4byte	0x3d6c
 16017 52c9 06       		.uleb128 0x6
 16018 52ca 03       		.byte	0x3
 16019 52cb 00000000 		.4byte	m_conf
 16020 52cf 9F       		.byte	0x9f
 16021 52d0 3F       		.uleb128 0x3f
 16022 52d1 4A440000 		.4byte	0x444a
 16023 52d5 02010000 		.4byte	.LBB135
 16024 52d9 90000000 		.4byte	.Ldebug_ranges0+0x90
 16025 52dd 01       		.byte	0x1
 16026 52de 4505     		.2byte	0x545
 16027 52e0 FD520000 		.4byte	0x52fd
 16028 52e4 3E       		.uleb128 0x3e
 16029 52e5 57440000 		.4byte	0x4457
 16030 52e9 5E130000 		.4byte	.LLST42
 16031 52ed 3C       		.uleb128 0x3c
 16032 52ee 72050000 		.4byte	.LVL224
 16033 52f2 F5500000 		.4byte	0x50f5
 16034 52f6 3B       		.uleb128 0x3b
 16035 52f7 01       		.uleb128 0x1
 16036 52f8 50       		.byte	0x50
 16037 52f9 01       		.uleb128 0x1
 16038 52fa 35       		.byte	0x35
 16039 52fb 00       		.byte	0
ARM GAS  /tmp/ccETYwEL.s 			page 284


 16040 52fc 00       		.byte	0
 16041 52fd 3F       		.uleb128 0x3f
 16042 52fe 4A440000 		.4byte	0x444a
 16043 5302 4A010000 		.4byte	.LBB141
 16044 5306 B8000000 		.4byte	.Ldebug_ranges0+0xb8
 16045 530a 01       		.byte	0x1
 16046 530b 5F05     		.2byte	0x55f
 16047 530d 2A530000 		.4byte	0x532a
 16048 5311 3E       		.uleb128 0x3e
 16049 5312 57440000 		.4byte	0x4457
 16050 5316 7E130000 		.4byte	.LLST43
 16051 531a 3C       		.uleb128 0x3c
 16052 531b 82050000 		.4byte	.LVL226
 16053 531f F5500000 		.4byte	0x50f5
 16054 5323 3B       		.uleb128 0x3b
 16055 5324 01       		.uleb128 0x1
 16056 5325 50       		.byte	0x50
 16057 5326 01       		.uleb128 0x1
 16058 5327 36       		.byte	0x36
 16059 5328 00       		.byte	0
 16060 5329 00       		.byte	0
 16061 532a 65       		.uleb128 0x65
 16062 532b A43E0000 		.4byte	0x3ea4
 16063 532f C0030000 		.4byte	.LBB147
 16064 5333 8C000000 		.4byte	.LBE147-.LBB147
 16065 5337 5B530000 		.4byte	0x535b
 16066 533b 67       		.uleb128 0x67
 16067 533c A93E0000 		.4byte	0x3ea9
 16068 5340 9E130000 		.4byte	.LLST44
 16069 5344 3C       		.uleb128 0x3c
 16070 5345 F8030000 		.4byte	.LVL192
 16071 5349 8F5A0000 		.4byte	0x5a8f
 16072 534d 3B       		.uleb128 0x3b
 16073 534e 02       		.uleb128 0x2
 16074 534f 90       		.byte	0x90
 16075 5350 44       		.uleb128 0x44
 16076 5351 07       		.uleb128 0x7
 16077 5352 F4       		.byte	0xf4
 16078 5353 25       		.uleb128 0x25
 16079 5354 04       		.byte	0x4
 16080 5355 00000000 		.4byte	0
 16081 5359 00       		.byte	0
 16082 535a 00       		.byte	0
 16083 535b 65       		.uleb128 0x65
 16084 535c B63E0000 		.4byte	0x3eb6
 16085 5360 4C040000 		.4byte	.LBB148
 16086 5364 8C000000 		.4byte	.LBE148-.LBB148
 16087 5368 8C530000 		.4byte	0x538c
 16088 536c 67       		.uleb128 0x67
 16089 536d B73E0000 		.4byte	0x3eb7
 16090 5371 CA130000 		.4byte	.LLST45
 16091 5375 3C       		.uleb128 0x3c
 16092 5376 84040000 		.4byte	.LVL200
 16093 537a 8F5A0000 		.4byte	0x5a8f
 16094 537e 3B       		.uleb128 0x3b
 16095 537f 02       		.uleb128 0x2
 16096 5380 90       		.byte	0x90
ARM GAS  /tmp/ccETYwEL.s 			page 285


 16097 5381 44       		.uleb128 0x44
 16098 5382 07       		.uleb128 0x7
 16099 5383 F4       		.byte	0xf4
 16100 5384 25       		.uleb128 0x25
 16101 5385 04       		.byte	0x4
 16102 5386 00000000 		.4byte	0
 16103 538a 00       		.byte	0
 16104 538b 00       		.byte	0
 16105 538c 42       		.uleb128 0x42
 16106 538d 40000000 		.4byte	.LVL127
 16107 5391 AD490000 		.4byte	0x49ad
 16108 5395 42       		.uleb128 0x42
 16109 5396 66000000 		.4byte	.LVL130
 16110 539a 6D5A0000 		.4byte	0x5a6d
 16111 539e 42       		.uleb128 0x42
 16112 539f B0000000 		.4byte	.LVL131
 16113 53a3 6D5A0000 		.4byte	0x5a6d
 16114 53a7 3A       		.uleb128 0x3a
 16115 53a8 7C010000 		.4byte	.LVL140
 16116 53ac 8F5A0000 		.4byte	0x5a8f
 16117 53b0 D9530000 		.4byte	0x53d9
 16118 53b4 3B       		.uleb128 0x3b
 16119 53b5 02       		.uleb128 0x2
 16120 53b6 90       		.byte	0x90
 16121 53b7 41       		.uleb128 0x41
 16122 53b8 07       		.uleb128 0x7
 16123 53b9 F4       		.byte	0xf4
 16124 53ba 25       		.uleb128 0x25
 16125 53bb 04       		.byte	0x4
 16126 53bc 00000000 		.4byte	0
 16127 53c0 3B       		.uleb128 0x3b
 16128 53c1 02       		.uleb128 0x2
 16129 53c2 90       		.byte	0x90
 16130 53c3 42       		.uleb128 0x42
 16131 53c4 07       		.uleb128 0x7
 16132 53c5 F4       		.byte	0xf4
 16133 53c6 25       		.uleb128 0x25
 16134 53c7 04       		.byte	0x4
 16135 53c8 0000803F 		.4byte	0x3f800000
 16136 53cc 3B       		.uleb128 0x3b
 16137 53cd 02       		.uleb128 0x2
 16138 53ce 90       		.byte	0x90
 16139 53cf 44       		.uleb128 0x44
 16140 53d0 07       		.uleb128 0x7
 16141 53d1 F4       		.byte	0xf4
 16142 53d2 25       		.uleb128 0x25
 16143 53d3 04       		.byte	0x4
 16144 53d4 0000C841 		.4byte	0x41c80000
 16145 53d8 00       		.byte	0
 16146 53d9 3A       		.uleb128 0x3a
 16147 53da 98010000 		.4byte	.LVL143
 16148 53de 8F5A0000 		.4byte	0x5a8f
 16149 53e2 0B540000 		.4byte	0x540b
 16150 53e6 3B       		.uleb128 0x3b
 16151 53e7 02       		.uleb128 0x2
 16152 53e8 90       		.byte	0x90
 16153 53e9 41       		.uleb128 0x41
ARM GAS  /tmp/ccETYwEL.s 			page 286


 16154 53ea 07       		.uleb128 0x7
 16155 53eb F4       		.byte	0xf4
 16156 53ec 25       		.uleb128 0x25
 16157 53ed 04       		.byte	0x4
 16158 53ee 00000000 		.4byte	0
 16159 53f2 3B       		.uleb128 0x3b
 16160 53f3 02       		.uleb128 0x2
 16161 53f4 90       		.byte	0x90
 16162 53f5 42       		.uleb128 0x42
 16163 53f6 07       		.uleb128 0x7
 16164 53f7 F4       		.byte	0xf4
 16165 53f8 25       		.uleb128 0x25
 16166 53f9 04       		.byte	0x4
 16167 53fa 0000803F 		.4byte	0x3f800000
 16168 53fe 3B       		.uleb128 0x3b
 16169 53ff 02       		.uleb128 0x2
 16170 5400 90       		.byte	0x90
 16171 5401 44       		.uleb128 0x44
 16172 5402 07       		.uleb128 0x7
 16173 5403 F4       		.byte	0xf4
 16174 5404 25       		.uleb128 0x25
 16175 5405 04       		.byte	0x4
 16176 5406 0000C841 		.4byte	0x41c80000
 16177 540a 00       		.byte	0
 16178 540b 3A       		.uleb128 0x3a
 16179 540c B4010000 		.4byte	.LVL146
 16180 5410 8F5A0000 		.4byte	0x5a8f
 16181 5414 3D540000 		.4byte	0x543d
 16182 5418 3B       		.uleb128 0x3b
 16183 5419 02       		.uleb128 0x2
 16184 541a 90       		.byte	0x90
 16185 541b 41       		.uleb128 0x41
 16186 541c 07       		.uleb128 0x7
 16187 541d F4       		.byte	0xf4
 16188 541e 25       		.uleb128 0x25
 16189 541f 04       		.byte	0x4
 16190 5420 00000000 		.4byte	0
 16191 5424 3B       		.uleb128 0x3b
 16192 5425 02       		.uleb128 0x2
 16193 5426 90       		.byte	0x90
 16194 5427 42       		.uleb128 0x42
 16195 5428 07       		.uleb128 0x7
 16196 5429 F4       		.byte	0xf4
 16197 542a 25       		.uleb128 0x25
 16198 542b 04       		.byte	0x4
 16199 542c 0000803F 		.4byte	0x3f800000
 16200 5430 3B       		.uleb128 0x3b
 16201 5431 02       		.uleb128 0x2
 16202 5432 90       		.byte	0x90
 16203 5433 44       		.uleb128 0x44
 16204 5434 07       		.uleb128 0x7
 16205 5435 F4       		.byte	0xf4
 16206 5436 25       		.uleb128 0x25
 16207 5437 04       		.byte	0x4
 16208 5438 0000C841 		.4byte	0x41c80000
 16209 543c 00       		.byte	0
 16210 543d 3A       		.uleb128 0x3a
ARM GAS  /tmp/ccETYwEL.s 			page 287


 16211 543e D0010000 		.4byte	.LVL149
 16212 5442 8F5A0000 		.4byte	0x5a8f
 16213 5446 6F540000 		.4byte	0x546f
 16214 544a 3B       		.uleb128 0x3b
 16215 544b 02       		.uleb128 0x2
 16216 544c 90       		.byte	0x90
 16217 544d 41       		.uleb128 0x41
 16218 544e 07       		.uleb128 0x7
 16219 544f F4       		.byte	0xf4
 16220 5450 25       		.uleb128 0x25
 16221 5451 04       		.byte	0x4
 16222 5452 00000000 		.4byte	0
 16223 5456 3B       		.uleb128 0x3b
 16224 5457 02       		.uleb128 0x2
 16225 5458 90       		.byte	0x90
 16226 5459 42       		.uleb128 0x42
 16227 545a 07       		.uleb128 0x7
 16228 545b F4       		.byte	0xf4
 16229 545c 25       		.uleb128 0x25
 16230 545d 04       		.byte	0x4
 16231 545e 0000803F 		.4byte	0x3f800000
 16232 5462 3B       		.uleb128 0x3b
 16233 5463 02       		.uleb128 0x2
 16234 5464 90       		.byte	0x90
 16235 5465 44       		.uleb128 0x44
 16236 5466 07       		.uleb128 0x7
 16237 5467 F4       		.byte	0xf4
 16238 5468 25       		.uleb128 0x25
 16239 5469 04       		.byte	0x4
 16240 546a 0000C841 		.4byte	0x41c80000
 16241 546e 00       		.byte	0
 16242 546f 3A       		.uleb128 0x3a
 16243 5470 48020000 		.4byte	.LVL157
 16244 5474 9A5A0000 		.4byte	0x5a9a
 16245 5478 8D540000 		.4byte	0x548d
 16246 547c 3B       		.uleb128 0x3b
 16247 547d 02       		.uleb128 0x2
 16248 547e 90       		.byte	0x90
 16249 547f 40       		.uleb128 0x40
 16250 5480 03       		.uleb128 0x3
 16251 5481 F5       		.byte	0xf5
 16252 5482 51       		.uleb128 0x51
 16253 5483 25       		.uleb128 0x25
 16254 5484 3B       		.uleb128 0x3b
 16255 5485 02       		.uleb128 0x2
 16256 5486 90       		.byte	0x90
 16257 5487 41       		.uleb128 0x41
 16258 5488 03       		.uleb128 0x3
 16259 5489 F5       		.byte	0xf5
 16260 548a 53       		.uleb128 0x53
 16261 548b 25       		.uleb128 0x25
 16262 548c 00       		.byte	0
 16263 548d 3A       		.uleb128 0x3a
 16264 548e 58020000 		.4byte	.LVL160
 16265 5492 9A5A0000 		.4byte	0x5a9a
 16266 5496 AB540000 		.4byte	0x54ab
 16267 549a 3B       		.uleb128 0x3b
ARM GAS  /tmp/ccETYwEL.s 			page 288


 16268 549b 02       		.uleb128 0x2
 16269 549c 90       		.byte	0x90
 16270 549d 40       		.uleb128 0x40
 16271 549e 03       		.uleb128 0x3
 16272 549f F5       		.byte	0xf5
 16273 54a0 54       		.uleb128 0x54
 16274 54a1 25       		.uleb128 0x25
 16275 54a2 3B       		.uleb128 0x3b
 16276 54a3 02       		.uleb128 0x2
 16277 54a4 90       		.byte	0x90
 16278 54a5 41       		.uleb128 0x41
 16279 54a6 03       		.uleb128 0x3
 16280 54a7 F5       		.byte	0xf5
 16281 54a8 55       		.uleb128 0x55
 16282 54a9 25       		.uleb128 0x25
 16283 54aa 00       		.byte	0
 16284 54ab 3A       		.uleb128 0x3a
 16285 54ac 68020000 		.4byte	.LVL163
 16286 54b0 9A5A0000 		.4byte	0x5a9a
 16287 54b4 C9540000 		.4byte	0x54c9
 16288 54b8 3B       		.uleb128 0x3b
 16289 54b9 02       		.uleb128 0x2
 16290 54ba 90       		.byte	0x90
 16291 54bb 40       		.uleb128 0x40
 16292 54bc 03       		.uleb128 0x3
 16293 54bd F5       		.byte	0xf5
 16294 54be 53       		.uleb128 0x53
 16295 54bf 25       		.uleb128 0x25
 16296 54c0 3B       		.uleb128 0x3b
 16297 54c1 02       		.uleb128 0x2
 16298 54c2 90       		.byte	0x90
 16299 54c3 41       		.uleb128 0x41
 16300 54c4 03       		.uleb128 0x3
 16301 54c5 F5       		.byte	0xf5
 16302 54c6 58       		.uleb128 0x58
 16303 54c7 25       		.uleb128 0x25
 16304 54c8 00       		.byte	0
 16305 54c9 3A       		.uleb128 0x3a
 16306 54ca 70020000 		.4byte	.LVL164
 16307 54ce 9A5A0000 		.4byte	0x5a9a
 16308 54d2 DF540000 		.4byte	0x54df
 16309 54d6 3B       		.uleb128 0x3b
 16310 54d7 02       		.uleb128 0x2
 16311 54d8 90       		.byte	0x90
 16312 54d9 41       		.uleb128 0x41
 16313 54da 03       		.uleb128 0x3
 16314 54db F5       		.byte	0xf5
 16315 54dc 52       		.uleb128 0x52
 16316 54dd 25       		.uleb128 0x25
 16317 54de 00       		.byte	0
 16318 54df 3A       		.uleb128 0x3a
 16319 54e0 78020000 		.4byte	.LVL165
 16320 54e4 9A5A0000 		.4byte	0x5a9a
 16321 54e8 F5540000 		.4byte	0x54f5
 16322 54ec 3B       		.uleb128 0x3b
 16323 54ed 02       		.uleb128 0x2
 16324 54ee 90       		.byte	0x90
ARM GAS  /tmp/ccETYwEL.s 			page 289


 16325 54ef 41       		.uleb128 0x41
 16326 54f0 03       		.uleb128 0x3
 16327 54f1 F5       		.byte	0xf5
 16328 54f2 57       		.uleb128 0x57
 16329 54f3 25       		.uleb128 0x25
 16330 54f4 00       		.byte	0
 16331 54f5 3A       		.uleb128 0x3a
 16332 54f6 80020000 		.4byte	.LVL166
 16333 54fa 9A5A0000 		.4byte	0x5a9a
 16334 54fe 0B550000 		.4byte	0x550b
 16335 5502 3B       		.uleb128 0x3b
 16336 5503 02       		.uleb128 0x2
 16337 5504 90       		.byte	0x90
 16338 5505 41       		.uleb128 0x41
 16339 5506 03       		.uleb128 0x3
 16340 5507 F5       		.byte	0xf5
 16341 5508 56       		.uleb128 0x56
 16342 5509 25       		.uleb128 0x25
 16343 550a 00       		.byte	0
 16344 550b 42       		.uleb128 0x42
 16345 550c EE020000 		.4byte	.LVL175
 16346 5510 9A5A0000 		.4byte	0x5a9a
 16347 5514 42       		.uleb128 0x42
 16348 5515 FE020000 		.4byte	.LVL177
 16349 5519 9A5A0000 		.4byte	0x5a9a
 16350 551d 3A       		.uleb128 0x3a
 16351 551e 0E030000 		.4byte	.LVL178
 16352 5522 9A5A0000 		.4byte	0x5a9a
 16353 5526 33550000 		.4byte	0x5533
 16354 552a 3B       		.uleb128 0x3b
 16355 552b 02       		.uleb128 0x2
 16356 552c 90       		.byte	0x90
 16357 552d 41       		.uleb128 0x41
 16358 552e 03       		.uleb128 0x3
 16359 552f F5       		.byte	0xf5
 16360 5530 51       		.uleb128 0x51
 16361 5531 25       		.uleb128 0x25
 16362 5532 00       		.byte	0
 16363 5533 3A       		.uleb128 0x3a
 16364 5534 F6040000 		.4byte	.LVL208
 16365 5538 8F5A0000 		.4byte	0x5a8f
 16366 553c 55550000 		.4byte	0x5555
 16367 5540 3B       		.uleb128 0x3b
 16368 5541 02       		.uleb128 0x2
 16369 5542 90       		.byte	0x90
 16370 5543 40       		.uleb128 0x40
 16371 5544 03       		.uleb128 0x3
 16372 5545 F5       		.byte	0xf5
 16373 5546 50       		.uleb128 0x50
 16374 5547 25       		.uleb128 0x25
 16375 5548 3B       		.uleb128 0x3b
 16376 5549 02       		.uleb128 0x2
 16377 554a 90       		.byte	0x90
 16378 554b 44       		.uleb128 0x44
 16379 554c 07       		.uleb128 0x7
 16380 554d F4       		.byte	0xf4
 16381 554e 25       		.uleb128 0x25
ARM GAS  /tmp/ccETYwEL.s 			page 290


 16382 554f 04       		.byte	0x4
 16383 5550 00000000 		.4byte	0
 16384 5554 00       		.byte	0
 16385 5555 3A       		.uleb128 0x3a
 16386 5556 14050000 		.4byte	.LVL212
 16387 555a 8F5A0000 		.4byte	0x5a8f
 16388 555e 7F550000 		.4byte	0x557f
 16389 5562 3B       		.uleb128 0x3b
 16390 5563 02       		.uleb128 0x2
 16391 5564 90       		.byte	0x90
 16392 5565 41       		.uleb128 0x41
 16393 5566 03       		.uleb128 0x3
 16394 5567 F5       		.byte	0xf5
 16395 5568 57       		.uleb128 0x57
 16396 5569 25       		.uleb128 0x25
 16397 556a 3B       		.uleb128 0x3b
 16398 556b 02       		.uleb128 0x2
 16399 556c 90       		.byte	0x90
 16400 556d 42       		.uleb128 0x42
 16401 556e 03       		.uleb128 0x3
 16402 556f F5       		.byte	0xf5
 16403 5570 59       		.uleb128 0x59
 16404 5571 25       		.uleb128 0x25
 16405 5572 3B       		.uleb128 0x3b
 16406 5573 02       		.uleb128 0x2
 16407 5574 90       		.byte	0x90
 16408 5575 44       		.uleb128 0x44
 16409 5576 07       		.uleb128 0x7
 16410 5577 F4       		.byte	0xf4
 16411 5578 25       		.uleb128 0x25
 16412 5579 04       		.byte	0x4
 16413 557a 00000000 		.4byte	0
 16414 557e 00       		.byte	0
 16415 557f 3A       		.uleb128 0x3a
 16416 5580 32050000 		.4byte	.LVL215
 16417 5584 8F5A0000 		.4byte	0x5a8f
 16418 5588 A9550000 		.4byte	0x55a9
 16419 558c 3B       		.uleb128 0x3b
 16420 558d 02       		.uleb128 0x2
 16421 558e 90       		.byte	0x90
 16422 558f 41       		.uleb128 0x41
 16423 5590 03       		.uleb128 0x3
 16424 5591 F5       		.byte	0xf5
 16425 5592 56       		.uleb128 0x56
 16426 5593 25       		.uleb128 0x25
 16427 5594 3B       		.uleb128 0x3b
 16428 5595 02       		.uleb128 0x2
 16429 5596 90       		.byte	0x90
 16430 5597 42       		.uleb128 0x42
 16431 5598 03       		.uleb128 0x3
 16432 5599 F5       		.byte	0xf5
 16433 559a 58       		.uleb128 0x58
 16434 559b 25       		.uleb128 0x25
 16435 559c 3B       		.uleb128 0x3b
 16436 559d 02       		.uleb128 0x2
 16437 559e 90       		.byte	0x90
 16438 559f 44       		.uleb128 0x44
ARM GAS  /tmp/ccETYwEL.s 			page 291


 16439 55a0 07       		.uleb128 0x7
 16440 55a1 F4       		.byte	0xf4
 16441 55a2 25       		.uleb128 0x25
 16442 55a3 04       		.byte	0x4
 16443 55a4 00000000 		.4byte	0
 16444 55a8 00       		.byte	0
 16445 55a9 3A       		.uleb128 0x3a
 16446 55aa 48050000 		.4byte	.LVL218
 16447 55ae 8F5A0000 		.4byte	0x5a8f
 16448 55b2 CB550000 		.4byte	0x55cb
 16449 55b6 3B       		.uleb128 0x3b
 16450 55b7 02       		.uleb128 0x2
 16451 55b8 90       		.byte	0x90
 16452 55b9 40       		.uleb128 0x40
 16453 55ba 03       		.uleb128 0x3
 16454 55bb F5       		.byte	0xf5
 16455 55bc 52       		.uleb128 0x52
 16456 55bd 25       		.uleb128 0x25
 16457 55be 3B       		.uleb128 0x3b
 16458 55bf 02       		.uleb128 0x2
 16459 55c0 90       		.byte	0x90
 16460 55c1 44       		.uleb128 0x44
 16461 55c2 07       		.uleb128 0x7
 16462 55c3 F4       		.byte	0xf4
 16463 55c4 25       		.uleb128 0x25
 16464 55c5 04       		.byte	0x4
 16465 55c6 00000000 		.4byte	0
 16466 55ca 00       		.byte	0
 16467 55cb 3C       		.uleb128 0x3c
 16468 55cc 5E050000 		.4byte	.LVL221
 16469 55d0 8F5A0000 		.4byte	0x5a8f
 16470 55d4 3B       		.uleb128 0x3b
 16471 55d5 02       		.uleb128 0x2
 16472 55d6 90       		.byte	0x90
 16473 55d7 40       		.uleb128 0x40
 16474 55d8 03       		.uleb128 0x3
 16475 55d9 F5       		.byte	0xf5
 16476 55da 52       		.uleb128 0x52
 16477 55db 25       		.uleb128 0x25
 16478 55dc 3B       		.uleb128 0x3b
 16479 55dd 02       		.uleb128 0x2
 16480 55de 90       		.byte	0x90
 16481 55df 44       		.uleb128 0x44
 16482 55e0 07       		.uleb128 0x7
 16483 55e1 F4       		.byte	0xf4
 16484 55e2 25       		.uleb128 0x25
 16485 55e3 04       		.byte	0x4
 16486 55e4 00000000 		.4byte	0
 16487 55e8 00       		.byte	0
 16488 55e9 00       		.byte	0
 16489 55ea 68       		.uleb128 0x68
 16490 55eb 67450000 		.4byte	0x4567
 16491 55ef 00000000 		.4byte	.LFB302
 16492 55f3 0C000000 		.4byte	.LFE302-.LFB302
 16493 55f7 01       		.uleb128 0x1
 16494 55f8 9C       		.byte	0x9c
 16495 55f9 64       		.uleb128 0x64
ARM GAS  /tmp/ccETYwEL.s 			page 292


 16496 55fa E04C0000 		.4byte	0x4ce0
 16497 55fe 00000000 		.4byte	.LFB267
 16498 5602 5C000000 		.4byte	.LFE267-.LFB267
 16499 5606 01       		.uleb128 0x1
 16500 5607 9C       		.byte	0x9c
 16501 5608 48560000 		.4byte	0x5648
 16502 560c 3E       		.uleb128 0x3e
 16503 560d ED4C0000 		.4byte	0x4ced
 16504 5611 F6130000 		.4byte	.LLST57
 16505 5615 69       		.uleb128 0x69
 16506 5616 E04C0000 		.4byte	0x4ce0
 16507 561a F8000000 		.4byte	.Ldebug_ranges0+0xf8
 16508 561e 35560000 		.4byte	0x5635
 16509 5622 3E       		.uleb128 0x3e
 16510 5623 ED4C0000 		.4byte	0x4ced
 16511 5627 5E140000 		.4byte	.LLST58
 16512 562b 49       		.uleb128 0x49
 16513 562c 58000000 		.4byte	.LVL297
 16514 5630 A55A0000 		.4byte	0x5aa5
 16515 5634 00       		.byte	0
 16516 5635 42       		.uleb128 0x42
 16517 5636 0E000000 		.4byte	.LVL291
 16518 563a 96440000 		.4byte	0x4496
 16519 563e 49       		.uleb128 0x49
 16520 563f 38000000 		.4byte	.LVL293
 16521 5643 B05A0000 		.4byte	0x5ab0
 16522 5647 00       		.byte	0
 16523 5648 64       		.uleb128 0x64
 16524 5649 EC4B0000 		.4byte	0x4bec
 16525 564d 00000000 		.4byte	.LFB271
 16526 5651 5C000000 		.4byte	.LFE271-.LFB271
 16527 5655 01       		.uleb128 0x1
 16528 5656 9C       		.byte	0x9c
 16529 5657 97560000 		.4byte	0x5697
 16530 565b 3E       		.uleb128 0x3e
 16531 565c F94B0000 		.4byte	0x4bf9
 16532 5660 82140000 		.4byte	.LLST62
 16533 5664 69       		.uleb128 0x69
 16534 5665 EC4B0000 		.4byte	0x4bec
 16535 5669 10010000 		.4byte	.Ldebug_ranges0+0x110
 16536 566d 84560000 		.4byte	0x5684
 16537 5671 3E       		.uleb128 0x3e
 16538 5672 F94B0000 		.4byte	0x4bf9
 16539 5676 EA140000 		.4byte	.LLST63
 16540 567a 49       		.uleb128 0x49
 16541 567b 58000000 		.4byte	.LVL327
 16542 567f BB5A0000 		.4byte	0x5abb
 16543 5683 00       		.byte	0
 16544 5684 42       		.uleb128 0x42
 16545 5685 0E000000 		.4byte	.LVL321
 16546 5689 96440000 		.4byte	0x4496
 16547 568d 49       		.uleb128 0x49
 16548 568e 38000000 		.4byte	.LVL323
 16549 5692 C65A0000 		.4byte	0x5ac6
 16550 5696 00       		.byte	0
 16551 5697 64       		.uleb128 0x64
 16552 5698 D24B0000 		.4byte	0x4bd2
ARM GAS  /tmp/ccETYwEL.s 			page 293


 16553 569c 00000000 		.4byte	.LFB272
 16554 56a0 5C000000 		.4byte	.LFE272-.LFB272
 16555 56a4 01       		.uleb128 0x1
 16556 56a5 9C       		.byte	0x9c
 16557 56a6 E6560000 		.4byte	0x56e6
 16558 56aa 3E       		.uleb128 0x3e
 16559 56ab DF4B0000 		.4byte	0x4bdf
 16560 56af 0E150000 		.4byte	.LLST65
 16561 56b3 69       		.uleb128 0x69
 16562 56b4 D24B0000 		.4byte	0x4bd2
 16563 56b8 28010000 		.4byte	.Ldebug_ranges0+0x128
 16564 56bc D3560000 		.4byte	0x56d3
 16565 56c0 3E       		.uleb128 0x3e
 16566 56c1 DF4B0000 		.4byte	0x4bdf
 16567 56c5 76150000 		.4byte	.LLST66
 16568 56c9 49       		.uleb128 0x49
 16569 56ca 58000000 		.4byte	.LVL341
 16570 56ce 4C5A0000 		.4byte	0x5a4c
 16571 56d2 00       		.byte	0
 16572 56d3 42       		.uleb128 0x42
 16573 56d4 0E000000 		.4byte	.LVL335
 16574 56d8 96440000 		.4byte	0x4496
 16575 56dc 49       		.uleb128 0x49
 16576 56dd 38000000 		.4byte	.LVL337
 16577 56e1 D15A0000 		.4byte	0x5ad1
 16578 56e5 00       		.byte	0
 16579 56e6 64       		.uleb128 0x64
 16580 56e7 4F4B0000 		.4byte	0x4b4f
 16581 56eb 00000000 		.4byte	.LFB275
 16582 56ef 26000000 		.4byte	.LFE275-.LFB275
 16583 56f3 01       		.uleb128 0x1
 16584 56f4 9C       		.byte	0x9c
 16585 56f5 20570000 		.4byte	0x5720
 16586 56f9 3E       		.uleb128 0x3e
 16587 56fa 5C4B0000 		.4byte	0x4b5c
 16588 56fe 9A150000 		.4byte	.LLST68
 16589 5702 42       		.uleb128 0x42
 16590 5703 0E000000 		.4byte	.LVL346
 16591 5707 96440000 		.4byte	0x4496
 16592 570b 54       		.uleb128 0x54
 16593 570c 20000000 		.4byte	.LVL348
 16594 5710 B7500000 		.4byte	0x50b7
 16595 5714 3B       		.uleb128 0x3b
 16596 5715 02       		.uleb128 0x2
 16597 5716 90       		.byte	0x90
 16598 5717 40       		.uleb128 0x40
 16599 5718 05       		.uleb128 0x5
 16600 5719 F3       		.byte	0xf3
 16601 571a 03       		.uleb128 0x3
 16602 571b F5       		.byte	0xf5
 16603 571c 40       		.uleb128 0x40
 16604 571d 25       		.uleb128 0x25
 16605 571e 00       		.byte	0
 16606 571f 00       		.byte	0
 16607 5720 64       		.uleb128 0x64
 16608 5721 4A440000 		.4byte	0x444a
 16609 5725 00000000 		.4byte	.LFB307
ARM GAS  /tmp/ccETYwEL.s 			page 294


 16610 5729 24000000 		.4byte	.LFE307-.LFB307
 16611 572d 01       		.uleb128 0x1
 16612 572e 9C       		.byte	0x9c
 16613 572f 46570000 		.4byte	0x5746
 16614 5733 3E       		.uleb128 0x3e
 16615 5734 57440000 		.4byte	0x4457
 16616 5738 F2150000 		.4byte	.LLST71
 16617 573c 49       		.uleb128 0x49
 16618 573d 0C000000 		.4byte	.LVL358
 16619 5741 F5500000 		.4byte	0x50f5
 16620 5745 00       		.byte	0
 16621 5746 6A       		.uleb128 0x6a
 16622 5747 05010000 		.4byte	.LASF1018
 16623 574b 05010000 		.4byte	.LASF1018
 16624 574f 2F       		.byte	0x2f
 16625 5750 1F       		.byte	0x1f
 16626 5751 6A       		.uleb128 0x6a
 16627 5752 AB190000 		.4byte	.LASF1019
 16628 5756 AB190000 		.4byte	.LASF1019
 16629 575a 30       		.byte	0x30
 16630 575b 1C       		.byte	0x1c
 16631 575c 6A       		.uleb128 0x6a
 16632 575d F13A0000 		.4byte	.LASF1020
 16633 5761 F13A0000 		.4byte	.LASF1020
 16634 5765 13       		.byte	0x13
 16635 5766 8B       		.byte	0x8b
 16636 5767 6A       		.uleb128 0x6a
 16637 5768 B7310000 		.4byte	.LASF1021
 16638 576c B7310000 		.4byte	.LASF1021
 16639 5770 2E       		.byte	0x2e
 16640 5771 96       		.byte	0x96
 16641 5772 6A       		.uleb128 0x6a
 16642 5773 DC2F0000 		.4byte	.LASF1022
 16643 5777 DC2F0000 		.4byte	.LASF1022
 16644 577b 18       		.byte	0x18
 16645 577c 47       		.byte	0x47
 16646 577d 6A       		.uleb128 0x6a
 16647 577e 45060000 		.4byte	.LASF1023
 16648 5782 45060000 		.4byte	.LASF1023
 16649 5786 13       		.byte	0x13
 16650 5787 85       		.byte	0x85
 16651 5788 6A       		.uleb128 0x6a
 16652 5789 B3020000 		.4byte	.LASF1024
 16653 578d B3020000 		.4byte	.LASF1024
 16654 5791 18       		.byte	0x18
 16655 5792 27       		.byte	0x27
 16656 5793 6A       		.uleb128 0x6a
 16657 5794 66280000 		.4byte	.LASF1025
 16658 5798 66280000 		.4byte	.LASF1025
 16659 579c 18       		.byte	0x18
 16660 579d 3C       		.byte	0x3c
 16661 579e 6A       		.uleb128 0x6a
 16662 579f 7E2A0000 		.4byte	.LASF1026
 16663 57a3 7E2A0000 		.4byte	.LASF1026
 16664 57a7 31       		.byte	0x31
 16665 57a8 3F       		.byte	0x3f
 16666 57a9 6A       		.uleb128 0x6a
ARM GAS  /tmp/ccETYwEL.s 			page 295


 16667 57aa A6160000 		.4byte	.LASF1027
 16668 57ae A6160000 		.4byte	.LASF1027
 16669 57b2 32       		.byte	0x32
 16670 57b3 23       		.byte	0x23
 16671 57b4 6A       		.uleb128 0x6a
 16672 57b5 6A1E0000 		.4byte	.LASF1028
 16673 57b9 6A1E0000 		.4byte	.LASF1028
 16674 57bd 31       		.byte	0x31
 16675 57be 39       		.byte	0x39
 16676 57bf 6A       		.uleb128 0x6a
 16677 57c0 981E0000 		.4byte	.LASF1029
 16678 57c4 981E0000 		.4byte	.LASF1029
 16679 57c8 31       		.byte	0x31
 16680 57c9 3A       		.byte	0x3a
 16681 57ca 6A       		.uleb128 0x6a
 16682 57cb B81A0000 		.4byte	.LASF1030
 16683 57cf B81A0000 		.4byte	.LASF1030
 16684 57d3 31       		.byte	0x31
 16685 57d4 34       		.byte	0x34
 16686 57d5 6A       		.uleb128 0x6a
 16687 57d6 8E1B0000 		.4byte	.LASF1031
 16688 57da 8E1B0000 		.4byte	.LASF1031
 16689 57de 31       		.byte	0x31
 16690 57df 36       		.byte	0x36
 16691 57e0 6A       		.uleb128 0x6a
 16692 57e1 D8130000 		.4byte	.LASF1032
 16693 57e5 D8130000 		.4byte	.LASF1032
 16694 57e9 31       		.byte	0x31
 16695 57ea 1E       		.byte	0x1e
 16696 57eb 6A       		.uleb128 0x6a
 16697 57ec 2B070000 		.4byte	.LASF1033
 16698 57f0 2B070000 		.4byte	.LASF1033
 16699 57f4 18       		.byte	0x18
 16700 57f5 1C       		.byte	0x1c
 16701 57f6 6A       		.uleb128 0x6a
 16702 57f7 43050000 		.4byte	.LASF1034
 16703 57fb 43050000 		.4byte	.LASF1034
 16704 57ff 18       		.byte	0x18
 16705 5800 31       		.byte	0x31
 16706 5801 6A       		.uleb128 0x6a
 16707 5802 D4280000 		.4byte	.LASF1035
 16708 5806 D4280000 		.4byte	.LASF1035
 16709 580a 13       		.byte	0x13
 16710 580b 84       		.byte	0x84
 16711 580c 6A       		.uleb128 0x6a
 16712 580d 7C0B0000 		.4byte	.LASF1036
 16713 5811 7C0B0000 		.4byte	.LASF1036
 16714 5815 33       		.byte	0x33
 16715 5816 1B       		.byte	0x1b
 16716 5817 6A       		.uleb128 0x6a
 16717 5818 BF050000 		.4byte	.LASF1037
 16718 581c BF050000 		.4byte	.LASF1037
 16719 5820 31       		.byte	0x31
 16720 5821 2E       		.byte	0x2e
 16721 5822 6A       		.uleb128 0x6a
 16722 5823 FA2A0000 		.4byte	.LASF1038
 16723 5827 FA2A0000 		.4byte	.LASF1038
ARM GAS  /tmp/ccETYwEL.s 			page 296


 16724 582b 34       		.byte	0x34
 16725 582c 1E       		.byte	0x1e
 16726 582d 6A       		.uleb128 0x6a
 16727 582e BD200000 		.4byte	.LASF1039
 16728 5832 BD200000 		.4byte	.LASF1039
 16729 5836 31       		.byte	0x31
 16730 5837 4A       		.byte	0x4a
 16731 5838 6A       		.uleb128 0x6a
 16732 5839 763C0000 		.4byte	.LASF1040
 16733 583d 763C0000 		.4byte	.LASF1040
 16734 5841 18       		.byte	0x18
 16735 5842 41       		.byte	0x41
 16736 5843 6A       		.uleb128 0x6a
 16737 5844 6D020000 		.4byte	.LASF1041
 16738 5848 6D020000 		.4byte	.LASF1041
 16739 584c 31       		.byte	0x31
 16740 584d 3E       		.byte	0x3e
 16741 584e 6A       		.uleb128 0x6a
 16742 584f A7300000 		.4byte	.LASF1042
 16743 5853 A7300000 		.4byte	.LASF1042
 16744 5857 18       		.byte	0x18
 16745 5858 30       		.byte	0x30
 16746 5859 6A       		.uleb128 0x6a
 16747 585a B8290000 		.4byte	.LASF1043
 16748 585e B8290000 		.4byte	.LASF1043
 16749 5862 31       		.byte	0x31
 16750 5863 3D       		.byte	0x3d
 16751 5864 6A       		.uleb128 0x6a
 16752 5865 59080000 		.4byte	.LASF1044
 16753 5869 59080000 		.4byte	.LASF1044
 16754 586d 18       		.byte	0x18
 16755 586e 2F       		.byte	0x2f
 16756 586f 6A       		.uleb128 0x6a
 16757 5870 54140000 		.4byte	.LASF1045
 16758 5874 54140000 		.4byte	.LASF1045
 16759 5878 31       		.byte	0x31
 16760 5879 3C       		.byte	0x3c
 16761 587a 6A       		.uleb128 0x6a
 16762 587b E4380000 		.4byte	.LASF1046
 16763 587f E4380000 		.4byte	.LASF1046
 16764 5883 18       		.byte	0x18
 16765 5884 37       		.byte	0x37
 16766 5885 6A       		.uleb128 0x6a
 16767 5886 B91D0000 		.4byte	.LASF1047
 16768 588a B91D0000 		.4byte	.LASF1047
 16769 588e 31       		.byte	0x31
 16770 588f 3B       		.byte	0x3b
 16771 5890 6A       		.uleb128 0x6a
 16772 5891 A3030000 		.4byte	.LASF1048
 16773 5895 A3030000 		.4byte	.LASF1048
 16774 5899 18       		.byte	0x18
 16775 589a 36       		.byte	0x36
 16776 589b 6A       		.uleb128 0x6a
 16777 589c 9C180000 		.4byte	.LASF1049
 16778 58a0 9C180000 		.4byte	.LASF1049
 16779 58a4 31       		.byte	0x31
 16780 58a5 38       		.byte	0x38
ARM GAS  /tmp/ccETYwEL.s 			page 297


 16781 58a6 6A       		.uleb128 0x6a
 16782 58a7 B9080000 		.4byte	.LASF1050
 16783 58ab B9080000 		.4byte	.LASF1050
 16784 58af 18       		.byte	0x18
 16785 58b0 35       		.byte	0x35
 16786 58b1 6A       		.uleb128 0x6a
 16787 58b2 060D0000 		.4byte	.LASF1051
 16788 58b6 060D0000 		.4byte	.LASF1051
 16789 58ba 31       		.byte	0x31
 16790 58bb 37       		.byte	0x37
 16791 58bc 6A       		.uleb128 0x6a
 16792 58bd 51260000 		.4byte	.LASF1052
 16793 58c1 51260000 		.4byte	.LASF1052
 16794 58c5 18       		.byte	0x18
 16795 58c6 34       		.byte	0x34
 16796 58c7 6A       		.uleb128 0x6a
 16797 58c8 E6150000 		.4byte	.LASF1053
 16798 58cc E6150000 		.4byte	.LASF1053
 16799 58d0 31       		.byte	0x31
 16800 58d1 33       		.byte	0x33
 16801 58d2 6A       		.uleb128 0x6a
 16802 58d3 7E000000 		.4byte	.LASF1054
 16803 58d7 7E000000 		.4byte	.LASF1054
 16804 58db 18       		.byte	0x18
 16805 58dc 33       		.byte	0x33
 16806 58dd 6A       		.uleb128 0x6a
 16807 58de 111A0000 		.4byte	.LASF1055
 16808 58e2 111A0000 		.4byte	.LASF1055
 16809 58e6 31       		.byte	0x31
 16810 58e7 32       		.byte	0x32
 16811 58e8 6A       		.uleb128 0x6a
 16812 58e9 07200000 		.4byte	.LASF1056
 16813 58ed 07200000 		.4byte	.LASF1056
 16814 58f1 18       		.byte	0x18
 16815 58f2 32       		.byte	0x32
 16816 58f3 6A       		.uleb128 0x6a
 16817 58f4 A72C0000 		.4byte	.LASF1057
 16818 58f8 A72C0000 		.4byte	.LASF1057
 16819 58fc 31       		.byte	0x31
 16820 58fd 31       		.byte	0x31
 16821 58fe 6A       		.uleb128 0x6a
 16822 58ff C1150000 		.4byte	.LASF1058
 16823 5903 C1150000 		.4byte	.LASF1058
 16824 5907 18       		.byte	0x18
 16825 5908 2B       		.byte	0x2b
 16826 5909 6A       		.uleb128 0x6a
 16827 590a 4E180000 		.4byte	.LASF1059
 16828 590e 4E180000 		.4byte	.LASF1059
 16829 5912 31       		.byte	0x31
 16830 5913 30       		.byte	0x30
 16831 5914 6A       		.uleb128 0x6a
 16832 5915 1E190000 		.4byte	.LASF1060
 16833 5919 1E190000 		.4byte	.LASF1060
 16834 591d 18       		.byte	0x18
 16835 591e 2A       		.byte	0x2a
 16836 591f 6A       		.uleb128 0x6a
 16837 5920 4B2F0000 		.4byte	.LASF1061
ARM GAS  /tmp/ccETYwEL.s 			page 298


 16838 5924 4B2F0000 		.4byte	.LASF1061
 16839 5928 31       		.byte	0x31
 16840 5929 2C       		.byte	0x2c
 16841 592a 6A       		.uleb128 0x6a
 16842 592b 4C0B0000 		.4byte	.LASF1062
 16843 592f 4C0B0000 		.4byte	.LASF1062
 16844 5933 18       		.byte	0x18
 16845 5934 29       		.byte	0x29
 16846 5935 6A       		.uleb128 0x6a
 16847 5936 5F040000 		.4byte	.LASF1063
 16848 593a 5F040000 		.4byte	.LASF1063
 16849 593e 31       		.byte	0x31
 16850 593f 2B       		.byte	0x2b
 16851 5940 6A       		.uleb128 0x6a
 16852 5941 6A200000 		.4byte	.LASF1064
 16853 5945 6A200000 		.4byte	.LASF1064
 16854 5949 18       		.byte	0x18
 16855 594a 28       		.byte	0x28
 16856 594b 6A       		.uleb128 0x6a
 16857 594c F00C0000 		.4byte	.LASF1065
 16858 5950 F00C0000 		.4byte	.LASF1065
 16859 5954 31       		.byte	0x31
 16860 5955 26       		.byte	0x26
 16861 5956 6A       		.uleb128 0x6a
 16862 5957 18170000 		.4byte	.LASF1066
 16863 595b 18170000 		.4byte	.LASF1066
 16864 595f 18       		.byte	0x18
 16865 5960 22       		.byte	0x22
 16866 5961 6A       		.uleb128 0x6a
 16867 5962 69150000 		.4byte	.LASF1067
 16868 5966 69150000 		.4byte	.LASF1067
 16869 596a 31       		.byte	0x31
 16870 596b 25       		.byte	0x25
 16871 596c 6A       		.uleb128 0x6a
 16872 596d 0F250000 		.4byte	.LASF1068
 16873 5971 0F250000 		.4byte	.LASF1068
 16874 5975 18       		.byte	0x18
 16875 5976 21       		.byte	0x21
 16876 5977 6A       		.uleb128 0x6a
 16877 5978 86390000 		.4byte	.LASF1069
 16878 597c 86390000 		.4byte	.LASF1069
 16879 5980 31       		.byte	0x31
 16880 5981 24       		.byte	0x24
 16881 5982 6A       		.uleb128 0x6a
 16882 5983 90020000 		.4byte	.LASF1070
 16883 5987 90020000 		.4byte	.LASF1070
 16884 598b 18       		.byte	0x18
 16885 598c 20       		.byte	0x20
 16886 598d 6A       		.uleb128 0x6a
 16887 598e EB1A0000 		.4byte	.LASF1071
 16888 5992 EB1A0000 		.4byte	.LASF1071
 16889 5996 31       		.byte	0x31
 16890 5997 20       		.byte	0x20
 16891 5998 6A       		.uleb128 0x6a
 16892 5999 D60A0000 		.4byte	.LASF1072
 16893 599d D60A0000 		.4byte	.LASF1072
 16894 59a1 18       		.byte	0x18
ARM GAS  /tmp/ccETYwEL.s 			page 299


 16895 59a2 2C       		.byte	0x2c
 16896 59a3 6A       		.uleb128 0x6a
 16897 59a4 5F270000 		.4byte	.LASF1073
 16898 59a8 5F270000 		.4byte	.LASF1073
 16899 59ac 31       		.byte	0x31
 16900 59ad 21       		.byte	0x21
 16901 59ae 6A       		.uleb128 0x6a
 16902 59af 0F380000 		.4byte	.LASF1074
 16903 59b3 0F380000 		.4byte	.LASF1074
 16904 59b7 18       		.byte	0x18
 16905 59b8 43       		.byte	0x43
 16906 59b9 6B       		.uleb128 0x6b
 16907 59ba E3070000 		.4byte	.LASF1105
 16908 59be 822E0000 		.4byte	.LASF1106
 16909 59c2 36       		.byte	0x36
 16910 59c3 00       		.byte	0
 16911 59c4 E3070000 		.4byte	.LASF1105
 16912 59c8 6A       		.uleb128 0x6a
 16913 59c9 25080000 		.4byte	.LASF1075
 16914 59cd 25080000 		.4byte	.LASF1075
 16915 59d1 31       		.byte	0x31
 16916 59d2 1F       		.byte	0x1f
 16917 59d3 6A       		.uleb128 0x6a
 16918 59d4 6F000000 		.4byte	.LASF1076
 16919 59d8 6F000000 		.4byte	.LASF1076
 16920 59dc 34       		.byte	0x34
 16921 59dd 1A       		.byte	0x1a
 16922 59de 6A       		.uleb128 0x6a
 16923 59df C42A0000 		.4byte	.LASF1077
 16924 59e3 C42A0000 		.4byte	.LASF1077
 16925 59e7 34       		.byte	0x34
 16926 59e8 1C       		.byte	0x1c
 16927 59e9 6A       		.uleb128 0x6a
 16928 59ea FC2D0000 		.4byte	.LASF1078
 16929 59ee FC2D0000 		.4byte	.LASF1078
 16930 59f2 34       		.byte	0x34
 16931 59f3 21       		.byte	0x21
 16932 59f4 6A       		.uleb128 0x6a
 16933 59f5 F1160000 		.4byte	.LASF1079
 16934 59f9 F1160000 		.4byte	.LASF1079
 16935 59fd 18       		.byte	0x18
 16936 59fe 1B       		.byte	0x1b
 16937 59ff 6A       		.uleb128 0x6a
 16938 5a00 52030000 		.4byte	.LASF1080
 16939 5a04 52030000 		.4byte	.LASF1080
 16940 5a08 31       		.byte	0x31
 16941 5a09 1C       		.byte	0x1c
 16942 5a0a 6A       		.uleb128 0x6a
 16943 5a0b 761B0000 		.4byte	.LASF1081
 16944 5a0f 761B0000 		.4byte	.LASF1081
 16945 5a13 18       		.byte	0x18
 16946 5a14 1D       		.byte	0x1d
 16947 5a15 6A       		.uleb128 0x6a
 16948 5a16 41090000 		.4byte	.LASF1082
 16949 5a1a 41090000 		.4byte	.LASF1082
 16950 5a1e 31       		.byte	0x31
 16951 5a1f 1D       		.byte	0x1d
ARM GAS  /tmp/ccETYwEL.s 			page 300


 16952 5a20 6A       		.uleb128 0x6a
 16953 5a21 42040000 		.4byte	.LASF1083
 16954 5a25 42040000 		.4byte	.LASF1083
 16955 5a29 18       		.byte	0x18
 16956 5a2a 1A       		.byte	0x1a
 16957 5a2b 6A       		.uleb128 0x6a
 16958 5a2c E0340000 		.4byte	.LASF1084
 16959 5a30 E0340000 		.4byte	.LASF1084
 16960 5a34 34       		.byte	0x34
 16961 5a35 1B       		.byte	0x1b
 16962 5a36 6A       		.uleb128 0x6a
 16963 5a37 1A0C0000 		.4byte	.LASF1085
 16964 5a3b 1A0C0000 		.4byte	.LASF1085
 16965 5a3f 2E       		.byte	0x2e
 16966 5a40 89       		.byte	0x89
 16967 5a41 6A       		.uleb128 0x6a
 16968 5a42 0F350000 		.4byte	.LASF1086
 16969 5a46 0F350000 		.4byte	.LASF1086
 16970 5a4a 31       		.byte	0x31
 16971 5a4b 29       		.byte	0x29
 16972 5a4c 6A       		.uleb128 0x6a
 16973 5a4d CB180000 		.4byte	.LASF1087
 16974 5a51 CB180000 		.4byte	.LASF1087
 16975 5a55 18       		.byte	0x18
 16976 5a56 24       		.byte	0x24
 16977 5a57 6A       		.uleb128 0x6a
 16978 5a58 45240000 		.4byte	.LASF1088
 16979 5a5c 45240000 		.4byte	.LASF1088
 16980 5a60 33       		.byte	0x33
 16981 5a61 31       		.byte	0x31
 16982 5a62 6A       		.uleb128 0x6a
 16983 5a63 5B220000 		.4byte	.LASF1089
 16984 5a67 5B220000 		.4byte	.LASF1089
 16985 5a6b 33       		.byte	0x33
 16986 5a6c 32       		.byte	0x32
 16987 5a6d 6C       		.uleb128 0x6c
 16988 5a6e AA2F0000 		.4byte	.LASF1090
 16989 5a72 AA2F0000 		.4byte	.LASF1090
 16990 5a76 2C       		.byte	0x2c
 16991 5a77 6B01     		.2byte	0x16b
 16992 5a79 6A       		.uleb128 0x6a
 16993 5a7a 7C280000 		.4byte	.LASF1091
 16994 5a7e 7C280000 		.4byte	.LASF1091
 16995 5a82 35       		.byte	0x35
 16996 5a83 1B       		.byte	0x1b
 16997 5a84 6A       		.uleb128 0x6a
 16998 5a85 371D0000 		.4byte	.LASF1092
 16999 5a89 371D0000 		.4byte	.LASF1092
 17000 5a8d 31       		.byte	0x31
 17001 5a8e 22       		.byte	0x22
 17002 5a8f 6A       		.uleb128 0x6a
 17003 5a90 30380000 		.4byte	.LASF1093
 17004 5a94 30380000 		.4byte	.LASF1093
 17005 5a98 33       		.byte	0x33
 17006 5a99 20       		.byte	0x20
 17007 5a9a 6A       		.uleb128 0x6a
 17008 5a9b 07190000 		.4byte	.LASF1094
ARM GAS  /tmp/ccETYwEL.s 			page 301


 17009 5a9f 07190000 		.4byte	.LASF1094
 17010 5aa3 33       		.byte	0x33
 17011 5aa4 2D       		.byte	0x2d
 17012 5aa5 6A       		.uleb128 0x6a
 17013 5aa6 9E3B0000 		.4byte	.LASF1095
 17014 5aaa 9E3B0000 		.4byte	.LASF1095
 17015 5aae 18       		.byte	0x18
 17016 5aaf 1F       		.byte	0x1f
 17017 5ab0 6A       		.uleb128 0x6a
 17018 5ab1 96230000 		.4byte	.LASF1096
 17019 5ab5 96230000 		.4byte	.LASF1096
 17020 5ab9 31       		.byte	0x31
 17021 5aba 23       		.byte	0x23
 17022 5abb 6A       		.uleb128 0x6a
 17023 5abc 0C0E0000 		.4byte	.LASF1097
 17024 5ac0 0C0E0000 		.4byte	.LASF1097
 17025 5ac4 18       		.byte	0x18
 17026 5ac5 23       		.byte	0x23
 17027 5ac6 6A       		.uleb128 0x6a
 17028 5ac7 99200000 		.4byte	.LASF1098
 17029 5acb 99200000 		.4byte	.LASF1098
 17030 5acf 31       		.byte	0x31
 17031 5ad0 27       		.byte	0x27
 17032 5ad1 6A       		.uleb128 0x6a
 17033 5ad2 8F380000 		.4byte	.LASF1099
 17034 5ad6 8F380000 		.4byte	.LASF1099
 17035 5ada 31       		.byte	0x31
 17036 5adb 28       		.byte	0x28
 17037 5adc 00       		.byte	0
 17038              		.section	.debug_abbrev,"",%progbits
 17039              	.Ldebug_abbrev0:
 17040 0000 01       		.uleb128 0x1
 17041 0001 11       		.uleb128 0x11
 17042 0002 01       		.byte	0x1
 17043 0003 25       		.uleb128 0x25
 17044 0004 0E       		.uleb128 0xe
 17045 0005 13       		.uleb128 0x13
 17046 0006 0B       		.uleb128 0xb
 17047 0007 03       		.uleb128 0x3
 17048 0008 0E       		.uleb128 0xe
 17049 0009 1B       		.uleb128 0x1b
 17050 000a 0E       		.uleb128 0xe
 17051 000b 55       		.uleb128 0x55
 17052 000c 17       		.uleb128 0x17
 17053 000d 11       		.uleb128 0x11
 17054 000e 01       		.uleb128 0x1
 17055 000f 10       		.uleb128 0x10
 17056 0010 17       		.uleb128 0x17
 17057 0011 00       		.byte	0
 17058 0012 00       		.byte	0
 17059 0013 02       		.uleb128 0x2
 17060 0014 24       		.uleb128 0x24
 17061 0015 00       		.byte	0
 17062 0016 0B       		.uleb128 0xb
 17063 0017 0B       		.uleb128 0xb
 17064 0018 3E       		.uleb128 0x3e
 17065 0019 0B       		.uleb128 0xb
ARM GAS  /tmp/ccETYwEL.s 			page 302


 17066 001a 03       		.uleb128 0x3
 17067 001b 0E       		.uleb128 0xe
 17068 001c 00       		.byte	0
 17069 001d 00       		.byte	0
 17070 001e 03       		.uleb128 0x3
 17071 001f 16       		.uleb128 0x16
 17072 0020 00       		.byte	0
 17073 0021 03       		.uleb128 0x3
 17074 0022 0E       		.uleb128 0xe
 17075 0023 3A       		.uleb128 0x3a
 17076 0024 0B       		.uleb128 0xb
 17077 0025 3B       		.uleb128 0x3b
 17078 0026 0B       		.uleb128 0xb
 17079 0027 49       		.uleb128 0x49
 17080 0028 13       		.uleb128 0x13
 17081 0029 00       		.byte	0
 17082 002a 00       		.byte	0
 17083 002b 04       		.uleb128 0x4
 17084 002c 24       		.uleb128 0x24
 17085 002d 00       		.byte	0
 17086 002e 0B       		.uleb128 0xb
 17087 002f 0B       		.uleb128 0xb
 17088 0030 3E       		.uleb128 0x3e
 17089 0031 0B       		.uleb128 0xb
 17090 0032 03       		.uleb128 0x3
 17091 0033 08       		.uleb128 0x8
 17092 0034 00       		.byte	0
 17093 0035 00       		.byte	0
 17094 0036 05       		.uleb128 0x5
 17095 0037 35       		.uleb128 0x35
 17096 0038 00       		.byte	0
 17097 0039 49       		.uleb128 0x49
 17098 003a 13       		.uleb128 0x13
 17099 003b 00       		.byte	0
 17100 003c 00       		.byte	0
 17101 003d 06       		.uleb128 0x6
 17102 003e 26       		.uleb128 0x26
 17103 003f 00       		.byte	0
 17104 0040 49       		.uleb128 0x49
 17105 0041 13       		.uleb128 0x13
 17106 0042 00       		.byte	0
 17107 0043 00       		.byte	0
 17108 0044 07       		.uleb128 0x7
 17109 0045 13       		.uleb128 0x13
 17110 0046 01       		.byte	0x1
 17111 0047 03       		.uleb128 0x3
 17112 0048 0E       		.uleb128 0xe
 17113 0049 0B       		.uleb128 0xb
 17114 004a 0B       		.uleb128 0xb
 17115 004b 3A       		.uleb128 0x3a
 17116 004c 0B       		.uleb128 0xb
 17117 004d 3B       		.uleb128 0x3b
 17118 004e 0B       		.uleb128 0xb
 17119 004f 01       		.uleb128 0x1
 17120 0050 13       		.uleb128 0x13
 17121 0051 00       		.byte	0
 17122 0052 00       		.byte	0
ARM GAS  /tmp/ccETYwEL.s 			page 303


 17123 0053 08       		.uleb128 0x8
 17124 0054 0D       		.uleb128 0xd
 17125 0055 00       		.byte	0
 17126 0056 03       		.uleb128 0x3
 17127 0057 0E       		.uleb128 0xe
 17128 0058 3A       		.uleb128 0x3a
 17129 0059 0B       		.uleb128 0xb
 17130 005a 3B       		.uleb128 0x3b
 17131 005b 0B       		.uleb128 0xb
 17132 005c 49       		.uleb128 0x49
 17133 005d 13       		.uleb128 0x13
 17134 005e 38       		.uleb128 0x38
 17135 005f 0B       		.uleb128 0xb
 17136 0060 00       		.byte	0
 17137 0061 00       		.byte	0
 17138 0062 09       		.uleb128 0x9
 17139 0063 0D       		.uleb128 0xd
 17140 0064 00       		.byte	0
 17141 0065 03       		.uleb128 0x3
 17142 0066 08       		.uleb128 0x8
 17143 0067 3A       		.uleb128 0x3a
 17144 0068 0B       		.uleb128 0xb
 17145 0069 3B       		.uleb128 0x3b
 17146 006a 05       		.uleb128 0x5
 17147 006b 49       		.uleb128 0x49
 17148 006c 13       		.uleb128 0x13
 17149 006d 38       		.uleb128 0x38
 17150 006e 0B       		.uleb128 0xb
 17151 006f 00       		.byte	0
 17152 0070 00       		.byte	0
 17153 0071 0A       		.uleb128 0xa
 17154 0072 0D       		.uleb128 0xd
 17155 0073 00       		.byte	0
 17156 0074 03       		.uleb128 0x3
 17157 0075 0E       		.uleb128 0xe
 17158 0076 3A       		.uleb128 0x3a
 17159 0077 0B       		.uleb128 0xb
 17160 0078 3B       		.uleb128 0x3b
 17161 0079 05       		.uleb128 0x5
 17162 007a 49       		.uleb128 0x49
 17163 007b 13       		.uleb128 0x13
 17164 007c 38       		.uleb128 0x38
 17165 007d 0B       		.uleb128 0xb
 17166 007e 00       		.byte	0
 17167 007f 00       		.byte	0
 17168 0080 0B       		.uleb128 0xb
 17169 0081 0F       		.uleb128 0xf
 17170 0082 00       		.byte	0
 17171 0083 0B       		.uleb128 0xb
 17172 0084 0B       		.uleb128 0xb
 17173 0085 49       		.uleb128 0x49
 17174 0086 13       		.uleb128 0x13
 17175 0087 00       		.byte	0
 17176 0088 00       		.byte	0
 17177 0089 0C       		.uleb128 0xc
 17178 008a 13       		.uleb128 0x13
 17179 008b 01       		.byte	0x1
ARM GAS  /tmp/ccETYwEL.s 			page 304


 17180 008c 03       		.uleb128 0x3
 17181 008d 0E       		.uleb128 0xe
 17182 008e 0B       		.uleb128 0xb
 17183 008f 0B       		.uleb128 0xb
 17184 0090 3A       		.uleb128 0x3a
 17185 0091 0B       		.uleb128 0xb
 17186 0092 3B       		.uleb128 0x3b
 17187 0093 05       		.uleb128 0x5
 17188 0094 01       		.uleb128 0x1
 17189 0095 13       		.uleb128 0x13
 17190 0096 00       		.byte	0
 17191 0097 00       		.byte	0
 17192 0098 0D       		.uleb128 0xd
 17193 0099 15       		.uleb128 0x15
 17194 009a 01       		.byte	0x1
 17195 009b 27       		.uleb128 0x27
 17196 009c 19       		.uleb128 0x19
 17197 009d 01       		.uleb128 0x1
 17198 009e 13       		.uleb128 0x13
 17199 009f 00       		.byte	0
 17200 00a0 00       		.byte	0
 17201 00a1 0E       		.uleb128 0xe
 17202 00a2 05       		.uleb128 0x5
 17203 00a3 00       		.byte	0
 17204 00a4 49       		.uleb128 0x49
 17205 00a5 13       		.uleb128 0x13
 17206 00a6 00       		.byte	0
 17207 00a7 00       		.byte	0
 17208 00a8 0F       		.uleb128 0xf
 17209 00a9 0F       		.uleb128 0xf
 17210 00aa 00       		.byte	0
 17211 00ab 0B       		.uleb128 0xb
 17212 00ac 0B       		.uleb128 0xb
 17213 00ad 00       		.byte	0
 17214 00ae 00       		.byte	0
 17215 00af 10       		.uleb128 0x10
 17216 00b0 13       		.uleb128 0x13
 17217 00b1 01       		.byte	0x1
 17218 00b2 03       		.uleb128 0x3
 17219 00b3 0E       		.uleb128 0xe
 17220 00b4 0B       		.uleb128 0xb
 17221 00b5 05       		.uleb128 0x5
 17222 00b6 3A       		.uleb128 0x3a
 17223 00b7 0B       		.uleb128 0xb
 17224 00b8 3B       		.uleb128 0x3b
 17225 00b9 05       		.uleb128 0x5
 17226 00ba 01       		.uleb128 0x1
 17227 00bb 13       		.uleb128 0x13
 17228 00bc 00       		.byte	0
 17229 00bd 00       		.byte	0
 17230 00be 11       		.uleb128 0x11
 17231 00bf 01       		.uleb128 0x1
 17232 00c0 01       		.byte	0x1
 17233 00c1 49       		.uleb128 0x49
 17234 00c2 13       		.uleb128 0x13
 17235 00c3 01       		.uleb128 0x1
 17236 00c4 13       		.uleb128 0x13
ARM GAS  /tmp/ccETYwEL.s 			page 305


 17237 00c5 00       		.byte	0
 17238 00c6 00       		.byte	0
 17239 00c7 12       		.uleb128 0x12
 17240 00c8 21       		.uleb128 0x21
 17241 00c9 00       		.byte	0
 17242 00ca 49       		.uleb128 0x49
 17243 00cb 13       		.uleb128 0x13
 17244 00cc 2F       		.uleb128 0x2f
 17245 00cd 0B       		.uleb128 0xb
 17246 00ce 00       		.byte	0
 17247 00cf 00       		.byte	0
 17248 00d0 13       		.uleb128 0x13
 17249 00d1 34       		.uleb128 0x34
 17250 00d2 00       		.byte	0
 17251 00d3 03       		.uleb128 0x3
 17252 00d4 0E       		.uleb128 0xe
 17253 00d5 3A       		.uleb128 0x3a
 17254 00d6 0B       		.uleb128 0xb
 17255 00d7 3B       		.uleb128 0x3b
 17256 00d8 05       		.uleb128 0x5
 17257 00d9 49       		.uleb128 0x49
 17258 00da 13       		.uleb128 0x13
 17259 00db 3F       		.uleb128 0x3f
 17260 00dc 19       		.uleb128 0x19
 17261 00dd 3C       		.uleb128 0x3c
 17262 00de 19       		.uleb128 0x19
 17263 00df 00       		.byte	0
 17264 00e0 00       		.byte	0
 17265 00e1 14       		.uleb128 0x14
 17266 00e2 34       		.uleb128 0x34
 17267 00e3 00       		.byte	0
 17268 00e4 03       		.uleb128 0x3
 17269 00e5 0E       		.uleb128 0xe
 17270 00e6 3A       		.uleb128 0x3a
 17271 00e7 0B       		.uleb128 0xb
 17272 00e8 3B       		.uleb128 0x3b
 17273 00e9 0B       		.uleb128 0xb
 17274 00ea 49       		.uleb128 0x49
 17275 00eb 13       		.uleb128 0x13
 17276 00ec 3F       		.uleb128 0x3f
 17277 00ed 19       		.uleb128 0x19
 17278 00ee 3C       		.uleb128 0x3c
 17279 00ef 19       		.uleb128 0x19
 17280 00f0 00       		.byte	0
 17281 00f1 00       		.byte	0
 17282 00f2 15       		.uleb128 0x15
 17283 00f3 13       		.uleb128 0x13
 17284 00f4 01       		.byte	0x1
 17285 00f5 0B       		.uleb128 0xb
 17286 00f6 0B       		.uleb128 0xb
 17287 00f7 3A       		.uleb128 0x3a
 17288 00f8 0B       		.uleb128 0xb
 17289 00f9 3B       		.uleb128 0x3b
 17290 00fa 0B       		.uleb128 0xb
 17291 00fb 01       		.uleb128 0x1
 17292 00fc 13       		.uleb128 0x13
 17293 00fd 00       		.byte	0
ARM GAS  /tmp/ccETYwEL.s 			page 306


 17294 00fe 00       		.byte	0
 17295 00ff 16       		.uleb128 0x16
 17296 0100 0D       		.uleb128 0xd
 17297 0101 00       		.byte	0
 17298 0102 03       		.uleb128 0x3
 17299 0103 08       		.uleb128 0x8
 17300 0104 3A       		.uleb128 0x3a
 17301 0105 0B       		.uleb128 0xb
 17302 0106 3B       		.uleb128 0x3b
 17303 0107 0B       		.uleb128 0xb
 17304 0108 49       		.uleb128 0x49
 17305 0109 13       		.uleb128 0x13
 17306 010a 38       		.uleb128 0x38
 17307 010b 0B       		.uleb128 0xb
 17308 010c 00       		.byte	0
 17309 010d 00       		.byte	0
 17310 010e 17       		.uleb128 0x17
 17311 010f 13       		.uleb128 0x13
 17312 0110 01       		.byte	0x1
 17313 0111 0B       		.uleb128 0xb
 17314 0112 0B       		.uleb128 0xb
 17315 0113 3A       		.uleb128 0x3a
 17316 0114 0B       		.uleb128 0xb
 17317 0115 3B       		.uleb128 0x3b
 17318 0116 05       		.uleb128 0x5
 17319 0117 01       		.uleb128 0x1
 17320 0118 13       		.uleb128 0x13
 17321 0119 00       		.byte	0
 17322 011a 00       		.byte	0
 17323 011b 18       		.uleb128 0x18
 17324 011c 16       		.uleb128 0x16
 17325 011d 00       		.byte	0
 17326 011e 03       		.uleb128 0x3
 17327 011f 0E       		.uleb128 0xe
 17328 0120 3A       		.uleb128 0x3a
 17329 0121 0B       		.uleb128 0xb
 17330 0122 3B       		.uleb128 0x3b
 17331 0123 05       		.uleb128 0x5
 17332 0124 49       		.uleb128 0x49
 17333 0125 13       		.uleb128 0x13
 17334 0126 00       		.byte	0
 17335 0127 00       		.byte	0
 17336 0128 19       		.uleb128 0x19
 17337 0129 13       		.uleb128 0x13
 17338 012a 01       		.byte	0x1
 17339 012b 0B       		.uleb128 0xb
 17340 012c 05       		.uleb128 0x5
 17341 012d 3A       		.uleb128 0x3a
 17342 012e 0B       		.uleb128 0xb
 17343 012f 3B       		.uleb128 0x3b
 17344 0130 05       		.uleb128 0x5
 17345 0131 01       		.uleb128 0x1
 17346 0132 13       		.uleb128 0x13
 17347 0133 00       		.byte	0
 17348 0134 00       		.byte	0
 17349 0135 1A       		.uleb128 0x1a
 17350 0136 0D       		.uleb128 0xd
ARM GAS  /tmp/ccETYwEL.s 			page 307


 17351 0137 00       		.byte	0
 17352 0138 03       		.uleb128 0x3
 17353 0139 0E       		.uleb128 0xe
 17354 013a 3A       		.uleb128 0x3a
 17355 013b 0B       		.uleb128 0xb
 17356 013c 3B       		.uleb128 0x3b
 17357 013d 05       		.uleb128 0x5
 17358 013e 49       		.uleb128 0x49
 17359 013f 13       		.uleb128 0x13
 17360 0140 38       		.uleb128 0x38
 17361 0141 05       		.uleb128 0x5
 17362 0142 00       		.byte	0
 17363 0143 00       		.byte	0
 17364 0144 1B       		.uleb128 0x1b
 17365 0145 0D       		.uleb128 0xd
 17366 0146 00       		.byte	0
 17367 0147 03       		.uleb128 0x3
 17368 0148 08       		.uleb128 0x8
 17369 0149 3A       		.uleb128 0x3a
 17370 014a 0B       		.uleb128 0xb
 17371 014b 3B       		.uleb128 0x3b
 17372 014c 05       		.uleb128 0x5
 17373 014d 49       		.uleb128 0x49
 17374 014e 13       		.uleb128 0x13
 17375 014f 38       		.uleb128 0x38
 17376 0150 05       		.uleb128 0x5
 17377 0151 00       		.byte	0
 17378 0152 00       		.byte	0
 17379 0153 1C       		.uleb128 0x1c
 17380 0154 17       		.uleb128 0x17
 17381 0155 01       		.byte	0x1
 17382 0156 0B       		.uleb128 0xb
 17383 0157 0B       		.uleb128 0xb
 17384 0158 3A       		.uleb128 0x3a
 17385 0159 0B       		.uleb128 0xb
 17386 015a 3B       		.uleb128 0x3b
 17387 015b 0B       		.uleb128 0xb
 17388 015c 01       		.uleb128 0x1
 17389 015d 13       		.uleb128 0x13
 17390 015e 00       		.byte	0
 17391 015f 00       		.byte	0
 17392 0160 1D       		.uleb128 0x1d
 17393 0161 0D       		.uleb128 0xd
 17394 0162 00       		.byte	0
 17395 0163 03       		.uleb128 0x3
 17396 0164 0E       		.uleb128 0xe
 17397 0165 3A       		.uleb128 0x3a
 17398 0166 0B       		.uleb128 0xb
 17399 0167 3B       		.uleb128 0x3b
 17400 0168 05       		.uleb128 0x5
 17401 0169 49       		.uleb128 0x49
 17402 016a 13       		.uleb128 0x13
 17403 016b 00       		.byte	0
 17404 016c 00       		.byte	0
 17405 016d 1E       		.uleb128 0x1e
 17406 016e 34       		.uleb128 0x34
 17407 016f 00       		.byte	0
ARM GAS  /tmp/ccETYwEL.s 			page 308


 17408 0170 03       		.uleb128 0x3
 17409 0171 08       		.uleb128 0x8
 17410 0172 3A       		.uleb128 0x3a
 17411 0173 0B       		.uleb128 0xb
 17412 0174 3B       		.uleb128 0x3b
 17413 0175 05       		.uleb128 0x5
 17414 0176 49       		.uleb128 0x49
 17415 0177 13       		.uleb128 0x13
 17416 0178 3F       		.uleb128 0x3f
 17417 0179 19       		.uleb128 0x19
 17418 017a 3C       		.uleb128 0x3c
 17419 017b 19       		.uleb128 0x19
 17420 017c 00       		.byte	0
 17421 017d 00       		.byte	0
 17422 017e 1F       		.uleb128 0x1f
 17423 017f 04       		.uleb128 0x4
 17424 0180 01       		.byte	0x1
 17425 0181 3E       		.uleb128 0x3e
 17426 0182 0B       		.uleb128 0xb
 17427 0183 0B       		.uleb128 0xb
 17428 0184 0B       		.uleb128 0xb
 17429 0185 49       		.uleb128 0x49
 17430 0186 13       		.uleb128 0x13
 17431 0187 3A       		.uleb128 0x3a
 17432 0188 0B       		.uleb128 0xb
 17433 0189 3B       		.uleb128 0x3b
 17434 018a 0B       		.uleb128 0xb
 17435 018b 01       		.uleb128 0x1
 17436 018c 13       		.uleb128 0x13
 17437 018d 00       		.byte	0
 17438 018e 00       		.byte	0
 17439 018f 20       		.uleb128 0x20
 17440 0190 28       		.uleb128 0x28
 17441 0191 00       		.byte	0
 17442 0192 03       		.uleb128 0x3
 17443 0193 0E       		.uleb128 0xe
 17444 0194 1C       		.uleb128 0x1c
 17445 0195 0B       		.uleb128 0xb
 17446 0196 00       		.byte	0
 17447 0197 00       		.byte	0
 17448 0198 21       		.uleb128 0x21
 17449 0199 13       		.uleb128 0x13
 17450 019a 01       		.byte	0x1
 17451 019b 0B       		.uleb128 0xb
 17452 019c 05       		.uleb128 0x5
 17453 019d 3A       		.uleb128 0x3a
 17454 019e 0B       		.uleb128 0xb
 17455 019f 3B       		.uleb128 0x3b
 17456 01a0 0B       		.uleb128 0xb
 17457 01a1 01       		.uleb128 0x1
 17458 01a2 13       		.uleb128 0x13
 17459 01a3 00       		.byte	0
 17460 01a4 00       		.byte	0
 17461 01a5 22       		.uleb128 0x22
 17462 01a6 0D       		.uleb128 0xd
 17463 01a7 00       		.byte	0
 17464 01a8 03       		.uleb128 0x3
ARM GAS  /tmp/ccETYwEL.s 			page 309


 17465 01a9 0E       		.uleb128 0xe
 17466 01aa 3A       		.uleb128 0x3a
 17467 01ab 0B       		.uleb128 0xb
 17468 01ac 3B       		.uleb128 0x3b
 17469 01ad 0B       		.uleb128 0xb
 17470 01ae 49       		.uleb128 0x49
 17471 01af 13       		.uleb128 0x13
 17472 01b0 38       		.uleb128 0x38
 17473 01b1 05       		.uleb128 0x5
 17474 01b2 00       		.byte	0
 17475 01b3 00       		.byte	0
 17476 01b4 23       		.uleb128 0x23
 17477 01b5 04       		.uleb128 0x4
 17478 01b6 01       		.byte	0x1
 17479 01b7 3E       		.uleb128 0x3e
 17480 01b8 0B       		.uleb128 0xb
 17481 01b9 0B       		.uleb128 0xb
 17482 01ba 0B       		.uleb128 0xb
 17483 01bb 49       		.uleb128 0x49
 17484 01bc 13       		.uleb128 0x13
 17485 01bd 3A       		.uleb128 0x3a
 17486 01be 0B       		.uleb128 0xb
 17487 01bf 3B       		.uleb128 0x3b
 17488 01c0 05       		.uleb128 0x5
 17489 01c1 01       		.uleb128 0x1
 17490 01c2 13       		.uleb128 0x13
 17491 01c3 00       		.byte	0
 17492 01c4 00       		.byte	0
 17493 01c5 24       		.uleb128 0x24
 17494 01c6 21       		.uleb128 0x21
 17495 01c7 00       		.byte	0
 17496 01c8 00       		.byte	0
 17497 01c9 00       		.byte	0
 17498 01ca 25       		.uleb128 0x25
 17499 01cb 0D       		.uleb128 0xd
 17500 01cc 00       		.byte	0
 17501 01cd 03       		.uleb128 0x3
 17502 01ce 08       		.uleb128 0x8
 17503 01cf 3A       		.uleb128 0x3a
 17504 01d0 0B       		.uleb128 0xb
 17505 01d1 3B       		.uleb128 0x3b
 17506 01d2 0B       		.uleb128 0xb
 17507 01d3 49       		.uleb128 0x49
 17508 01d4 13       		.uleb128 0x13
 17509 01d5 00       		.byte	0
 17510 01d6 00       		.byte	0
 17511 01d7 26       		.uleb128 0x26
 17512 01d8 15       		.uleb128 0x15
 17513 01d9 01       		.byte	0x1
 17514 01da 27       		.uleb128 0x27
 17515 01db 19       		.uleb128 0x19
 17516 01dc 49       		.uleb128 0x49
 17517 01dd 13       		.uleb128 0x13
 17518 01de 01       		.uleb128 0x1
 17519 01df 13       		.uleb128 0x13
 17520 01e0 00       		.byte	0
 17521 01e1 00       		.byte	0
ARM GAS  /tmp/ccETYwEL.s 			page 310


 17522 01e2 27       		.uleb128 0x27
 17523 01e3 13       		.uleb128 0x13
 17524 01e4 01       		.byte	0x1
 17525 01e5 0B       		.uleb128 0xb
 17526 01e6 06       		.uleb128 0x6
 17527 01e7 3A       		.uleb128 0x3a
 17528 01e8 0B       		.uleb128 0xb
 17529 01e9 3B       		.uleb128 0x3b
 17530 01ea 0B       		.uleb128 0xb
 17531 01eb 01       		.uleb128 0x1
 17532 01ec 13       		.uleb128 0x13
 17533 01ed 00       		.byte	0
 17534 01ee 00       		.byte	0
 17535 01ef 28       		.uleb128 0x28
 17536 01f0 0D       		.uleb128 0xd
 17537 01f1 00       		.byte	0
 17538 01f2 03       		.uleb128 0x3
 17539 01f3 08       		.uleb128 0x8
 17540 01f4 3A       		.uleb128 0x3a
 17541 01f5 0B       		.uleb128 0xb
 17542 01f6 3B       		.uleb128 0x3b
 17543 01f7 0B       		.uleb128 0xb
 17544 01f8 49       		.uleb128 0x49
 17545 01f9 13       		.uleb128 0x13
 17546 01fa 38       		.uleb128 0x38
 17547 01fb 05       		.uleb128 0x5
 17548 01fc 00       		.byte	0
 17549 01fd 00       		.byte	0
 17550 01fe 29       		.uleb128 0x29
 17551 01ff 21       		.uleb128 0x21
 17552 0200 00       		.byte	0
 17553 0201 49       		.uleb128 0x49
 17554 0202 13       		.uleb128 0x13
 17555 0203 2F       		.uleb128 0x2f
 17556 0204 05       		.uleb128 0x5
 17557 0205 00       		.byte	0
 17558 0206 00       		.byte	0
 17559 0207 2A       		.uleb128 0x2a
 17560 0208 0D       		.uleb128 0xd
 17561 0209 00       		.byte	0
 17562 020a 03       		.uleb128 0x3
 17563 020b 0E       		.uleb128 0xe
 17564 020c 3A       		.uleb128 0x3a
 17565 020d 0B       		.uleb128 0xb
 17566 020e 3B       		.uleb128 0x3b
 17567 020f 0B       		.uleb128 0xb
 17568 0210 49       		.uleb128 0x49
 17569 0211 13       		.uleb128 0x13
 17570 0212 00       		.byte	0
 17571 0213 00       		.byte	0
 17572 0214 2B       		.uleb128 0x2b
 17573 0215 17       		.uleb128 0x17
 17574 0216 01       		.byte	0x1
 17575 0217 0B       		.uleb128 0xb
 17576 0218 0B       		.uleb128 0xb
 17577 0219 3A       		.uleb128 0x3a
 17578 021a 0B       		.uleb128 0xb
ARM GAS  /tmp/ccETYwEL.s 			page 311


 17579 021b 3B       		.uleb128 0x3b
 17580 021c 05       		.uleb128 0x5
 17581 021d 01       		.uleb128 0x1
 17582 021e 13       		.uleb128 0x13
 17583 021f 00       		.byte	0
 17584 0220 00       		.byte	0
 17585 0221 2C       		.uleb128 0x2c
 17586 0222 13       		.uleb128 0x13
 17587 0223 00       		.byte	0
 17588 0224 03       		.uleb128 0x3
 17589 0225 0E       		.uleb128 0xe
 17590 0226 3C       		.uleb128 0x3c
 17591 0227 19       		.uleb128 0x19
 17592 0228 00       		.byte	0
 17593 0229 00       		.byte	0
 17594 022a 2D       		.uleb128 0x2d
 17595 022b 13       		.uleb128 0x13
 17596 022c 01       		.byte	0x1
 17597 022d 03       		.uleb128 0x3
 17598 022e 0E       		.uleb128 0xe
 17599 022f 0B       		.uleb128 0xb
 17600 0230 05       		.uleb128 0x5
 17601 0231 3A       		.uleb128 0x3a
 17602 0232 0B       		.uleb128 0xb
 17603 0233 3B       		.uleb128 0x3b
 17604 0234 0B       		.uleb128 0xb
 17605 0235 01       		.uleb128 0x1
 17606 0236 13       		.uleb128 0x13
 17607 0237 00       		.byte	0
 17608 0238 00       		.byte	0
 17609 0239 2E       		.uleb128 0x2e
 17610 023a 15       		.uleb128 0x15
 17611 023b 00       		.byte	0
 17612 023c 27       		.uleb128 0x27
 17613 023d 19       		.uleb128 0x19
 17614 023e 00       		.byte	0
 17615 023f 00       		.byte	0
 17616 0240 2F       		.uleb128 0x2f
 17617 0241 04       		.uleb128 0x4
 17618 0242 01       		.byte	0x1
 17619 0243 03       		.uleb128 0x3
 17620 0244 0E       		.uleb128 0xe
 17621 0245 3E       		.uleb128 0x3e
 17622 0246 0B       		.uleb128 0xb
 17623 0247 0B       		.uleb128 0xb
 17624 0248 0B       		.uleb128 0xb
 17625 0249 49       		.uleb128 0x49
 17626 024a 13       		.uleb128 0x13
 17627 024b 3A       		.uleb128 0x3a
 17628 024c 0B       		.uleb128 0xb
 17629 024d 3B       		.uleb128 0x3b
 17630 024e 05       		.uleb128 0x5
 17631 024f 01       		.uleb128 0x1
 17632 0250 13       		.uleb128 0x13
 17633 0251 00       		.byte	0
 17634 0252 00       		.byte	0
 17635 0253 30       		.uleb128 0x30
ARM GAS  /tmp/ccETYwEL.s 			page 312


 17636 0254 28       		.uleb128 0x28
 17637 0255 00       		.byte	0
 17638 0256 03       		.uleb128 0x3
 17639 0257 0E       		.uleb128 0xe
 17640 0258 1C       		.uleb128 0x1c
 17641 0259 0D       		.uleb128 0xd
 17642 025a 00       		.byte	0
 17643 025b 00       		.byte	0
 17644 025c 31       		.uleb128 0x31
 17645 025d 34       		.uleb128 0x34
 17646 025e 00       		.byte	0
 17647 025f 47       		.uleb128 0x47
 17648 0260 13       		.uleb128 0x13
 17649 0261 3A       		.uleb128 0x3a
 17650 0262 0B       		.uleb128 0xb
 17651 0263 3B       		.uleb128 0x3b
 17652 0264 0B       		.uleb128 0xb
 17653 0265 02       		.uleb128 0x2
 17654 0266 18       		.uleb128 0x18
 17655 0267 00       		.byte	0
 17656 0268 00       		.byte	0
 17657 0269 32       		.uleb128 0x32
 17658 026a 34       		.uleb128 0x34
 17659 026b 00       		.byte	0
 17660 026c 03       		.uleb128 0x3
 17661 026d 0E       		.uleb128 0xe
 17662 026e 3A       		.uleb128 0x3a
 17663 026f 0B       		.uleb128 0xb
 17664 0270 3B       		.uleb128 0x3b
 17665 0271 0B       		.uleb128 0xb
 17666 0272 49       		.uleb128 0x49
 17667 0273 13       		.uleb128 0x13
 17668 0274 02       		.uleb128 0x2
 17669 0275 18       		.uleb128 0x18
 17670 0276 00       		.byte	0
 17671 0277 00       		.byte	0
 17672 0278 33       		.uleb128 0x33
 17673 0279 2E       		.uleb128 0x2e
 17674 027a 01       		.byte	0x1
 17675 027b 03       		.uleb128 0x3
 17676 027c 0E       		.uleb128 0xe
 17677 027d 3A       		.uleb128 0x3a
 17678 027e 0B       		.uleb128 0xb
 17679 027f 3B       		.uleb128 0x3b
 17680 0280 05       		.uleb128 0x5
 17681 0281 27       		.uleb128 0x27
 17682 0282 19       		.uleb128 0x19
 17683 0283 11       		.uleb128 0x11
 17684 0284 01       		.uleb128 0x1
 17685 0285 12       		.uleb128 0x12
 17686 0286 06       		.uleb128 0x6
 17687 0287 40       		.uleb128 0x40
 17688 0288 18       		.uleb128 0x18
 17689 0289 9742     		.uleb128 0x2117
 17690 028b 19       		.uleb128 0x19
 17691 028c 01       		.uleb128 0x1
 17692 028d 13       		.uleb128 0x13
ARM GAS  /tmp/ccETYwEL.s 			page 313


 17693 028e 00       		.byte	0
 17694 028f 00       		.byte	0
 17695 0290 34       		.uleb128 0x34
 17696 0291 05       		.uleb128 0x5
 17697 0292 00       		.byte	0
 17698 0293 03       		.uleb128 0x3
 17699 0294 08       		.uleb128 0x8
 17700 0295 3A       		.uleb128 0x3a
 17701 0296 0B       		.uleb128 0xb
 17702 0297 3B       		.uleb128 0x3b
 17703 0298 05       		.uleb128 0x5
 17704 0299 49       		.uleb128 0x49
 17705 029a 13       		.uleb128 0x13
 17706 029b 02       		.uleb128 0x2
 17707 029c 17       		.uleb128 0x17
 17708 029d 00       		.byte	0
 17709 029e 00       		.byte	0
 17710 029f 35       		.uleb128 0x35
 17711 02a0 0B       		.uleb128 0xb
 17712 02a1 01       		.byte	0x1
 17713 02a2 55       		.uleb128 0x55
 17714 02a3 17       		.uleb128 0x17
 17715 02a4 01       		.uleb128 0x1
 17716 02a5 13       		.uleb128 0x13
 17717 02a6 00       		.byte	0
 17718 02a7 00       		.byte	0
 17719 02a8 36       		.uleb128 0x36
 17720 02a9 34       		.uleb128 0x34
 17721 02aa 00       		.byte	0
 17722 02ab 03       		.uleb128 0x3
 17723 02ac 08       		.uleb128 0x8
 17724 02ad 3A       		.uleb128 0x3a
 17725 02ae 0B       		.uleb128 0xb
 17726 02af 3B       		.uleb128 0x3b
 17727 02b0 05       		.uleb128 0x5
 17728 02b1 49       		.uleb128 0x49
 17729 02b2 13       		.uleb128 0x13
 17730 02b3 02       		.uleb128 0x2
 17731 02b4 17       		.uleb128 0x17
 17732 02b5 00       		.byte	0
 17733 02b6 00       		.byte	0
 17734 02b7 37       		.uleb128 0x37
 17735 02b8 34       		.uleb128 0x34
 17736 02b9 00       		.byte	0
 17737 02ba 03       		.uleb128 0x3
 17738 02bb 0E       		.uleb128 0xe
 17739 02bc 3A       		.uleb128 0x3a
 17740 02bd 0B       		.uleb128 0xb
 17741 02be 3B       		.uleb128 0x3b
 17742 02bf 05       		.uleb128 0x5
 17743 02c0 49       		.uleb128 0x49
 17744 02c1 13       		.uleb128 0x13
 17745 02c2 02       		.uleb128 0x2
 17746 02c3 17       		.uleb128 0x17
 17747 02c4 00       		.byte	0
 17748 02c5 00       		.byte	0
 17749 02c6 38       		.uleb128 0x38
ARM GAS  /tmp/ccETYwEL.s 			page 314


 17750 02c7 0B       		.uleb128 0xb
 17751 02c8 01       		.byte	0x1
 17752 02c9 55       		.uleb128 0x55
 17753 02ca 17       		.uleb128 0x17
 17754 02cb 00       		.byte	0
 17755 02cc 00       		.byte	0
 17756 02cd 39       		.uleb128 0x39
 17757 02ce 34       		.uleb128 0x34
 17758 02cf 00       		.byte	0
 17759 02d0 03       		.uleb128 0x3
 17760 02d1 0E       		.uleb128 0xe
 17761 02d2 3A       		.uleb128 0x3a
 17762 02d3 0B       		.uleb128 0xb
 17763 02d4 3B       		.uleb128 0x3b
 17764 02d5 05       		.uleb128 0x5
 17765 02d6 49       		.uleb128 0x49
 17766 02d7 13       		.uleb128 0x13
 17767 02d8 02       		.uleb128 0x2
 17768 02d9 18       		.uleb128 0x18
 17769 02da 00       		.byte	0
 17770 02db 00       		.byte	0
 17771 02dc 3A       		.uleb128 0x3a
 17772 02dd 898201   		.uleb128 0x4109
 17773 02e0 01       		.byte	0x1
 17774 02e1 11       		.uleb128 0x11
 17775 02e2 01       		.uleb128 0x1
 17776 02e3 31       		.uleb128 0x31
 17777 02e4 13       		.uleb128 0x13
 17778 02e5 01       		.uleb128 0x1
 17779 02e6 13       		.uleb128 0x13
 17780 02e7 00       		.byte	0
 17781 02e8 00       		.byte	0
 17782 02e9 3B       		.uleb128 0x3b
 17783 02ea 8A8201   		.uleb128 0x410a
 17784 02ed 00       		.byte	0
 17785 02ee 02       		.uleb128 0x2
 17786 02ef 18       		.uleb128 0x18
 17787 02f0 9142     		.uleb128 0x2111
 17788 02f2 18       		.uleb128 0x18
 17789 02f3 00       		.byte	0
 17790 02f4 00       		.byte	0
 17791 02f5 3C       		.uleb128 0x3c
 17792 02f6 898201   		.uleb128 0x4109
 17793 02f9 01       		.byte	0x1
 17794 02fa 11       		.uleb128 0x11
 17795 02fb 01       		.uleb128 0x1
 17796 02fc 31       		.uleb128 0x31
 17797 02fd 13       		.uleb128 0x13
 17798 02fe 00       		.byte	0
 17799 02ff 00       		.byte	0
 17800 0300 3D       		.uleb128 0x3d
 17801 0301 1D       		.uleb128 0x1d
 17802 0302 01       		.byte	0x1
 17803 0303 31       		.uleb128 0x31
 17804 0304 13       		.uleb128 0x13
 17805 0305 52       		.uleb128 0x52
 17806 0306 01       		.uleb128 0x1
ARM GAS  /tmp/ccETYwEL.s 			page 315


 17807 0307 55       		.uleb128 0x55
 17808 0308 17       		.uleb128 0x17
 17809 0309 58       		.uleb128 0x58
 17810 030a 0B       		.uleb128 0xb
 17811 030b 59       		.uleb128 0x59
 17812 030c 05       		.uleb128 0x5
 17813 030d 00       		.byte	0
 17814 030e 00       		.byte	0
 17815 030f 3E       		.uleb128 0x3e
 17816 0310 05       		.uleb128 0x5
 17817 0311 00       		.byte	0
 17818 0312 31       		.uleb128 0x31
 17819 0313 13       		.uleb128 0x13
 17820 0314 02       		.uleb128 0x2
 17821 0315 17       		.uleb128 0x17
 17822 0316 00       		.byte	0
 17823 0317 00       		.byte	0
 17824 0318 3F       		.uleb128 0x3f
 17825 0319 1D       		.uleb128 0x1d
 17826 031a 01       		.byte	0x1
 17827 031b 31       		.uleb128 0x31
 17828 031c 13       		.uleb128 0x13
 17829 031d 52       		.uleb128 0x52
 17830 031e 01       		.uleb128 0x1
 17831 031f 55       		.uleb128 0x55
 17832 0320 17       		.uleb128 0x17
 17833 0321 58       		.uleb128 0x58
 17834 0322 0B       		.uleb128 0xb
 17835 0323 59       		.uleb128 0x59
 17836 0324 05       		.uleb128 0x5
 17837 0325 01       		.uleb128 0x1
 17838 0326 13       		.uleb128 0x13
 17839 0327 00       		.byte	0
 17840 0328 00       		.byte	0
 17841 0329 40       		.uleb128 0x40
 17842 032a 05       		.uleb128 0x5
 17843 032b 00       		.byte	0
 17844 032c 31       		.uleb128 0x31
 17845 032d 13       		.uleb128 0x13
 17846 032e 02       		.uleb128 0x2
 17847 032f 18       		.uleb128 0x18
 17848 0330 00       		.byte	0
 17849 0331 00       		.byte	0
 17850 0332 41       		.uleb128 0x41
 17851 0333 1D       		.uleb128 0x1d
 17852 0334 00       		.byte	0
 17853 0335 31       		.uleb128 0x31
 17854 0336 13       		.uleb128 0x13
 17855 0337 11       		.uleb128 0x11
 17856 0338 01       		.uleb128 0x1
 17857 0339 12       		.uleb128 0x12
 17858 033a 06       		.uleb128 0x6
 17859 033b 58       		.uleb128 0x58
 17860 033c 0B       		.uleb128 0xb
 17861 033d 59       		.uleb128 0x59
 17862 033e 05       		.uleb128 0x5
 17863 033f 00       		.byte	0
ARM GAS  /tmp/ccETYwEL.s 			page 316


 17864 0340 00       		.byte	0
 17865 0341 42       		.uleb128 0x42
 17866 0342 898201   		.uleb128 0x4109
 17867 0345 00       		.byte	0
 17868 0346 11       		.uleb128 0x11
 17869 0347 01       		.uleb128 0x1
 17870 0348 31       		.uleb128 0x31
 17871 0349 13       		.uleb128 0x13
 17872 034a 00       		.byte	0
 17873 034b 00       		.byte	0
 17874 034c 43       		.uleb128 0x43
 17875 034d 2E       		.uleb128 0x2e
 17876 034e 01       		.byte	0x1
 17877 034f 03       		.uleb128 0x3
 17878 0350 0E       		.uleb128 0xe
 17879 0351 3A       		.uleb128 0x3a
 17880 0352 0B       		.uleb128 0xb
 17881 0353 3B       		.uleb128 0x3b
 17882 0354 05       		.uleb128 0x5
 17883 0355 27       		.uleb128 0x27
 17884 0356 19       		.uleb128 0x19
 17885 0357 20       		.uleb128 0x20
 17886 0358 0B       		.uleb128 0xb
 17887 0359 01       		.uleb128 0x1
 17888 035a 13       		.uleb128 0x13
 17889 035b 00       		.byte	0
 17890 035c 00       		.byte	0
 17891 035d 44       		.uleb128 0x44
 17892 035e 05       		.uleb128 0x5
 17893 035f 00       		.byte	0
 17894 0360 03       		.uleb128 0x3
 17895 0361 0E       		.uleb128 0xe
 17896 0362 3A       		.uleb128 0x3a
 17897 0363 0B       		.uleb128 0xb
 17898 0364 3B       		.uleb128 0x3b
 17899 0365 05       		.uleb128 0x5
 17900 0366 49       		.uleb128 0x49
 17901 0367 13       		.uleb128 0x13
 17902 0368 00       		.byte	0
 17903 0369 00       		.byte	0
 17904 036a 45       		.uleb128 0x45
 17905 036b 34       		.uleb128 0x34
 17906 036c 00       		.byte	0
 17907 036d 03       		.uleb128 0x3
 17908 036e 0E       		.uleb128 0xe
 17909 036f 3A       		.uleb128 0x3a
 17910 0370 0B       		.uleb128 0xb
 17911 0371 3B       		.uleb128 0x3b
 17912 0372 05       		.uleb128 0x5
 17913 0373 49       		.uleb128 0x49
 17914 0374 13       		.uleb128 0x13
 17915 0375 00       		.byte	0
 17916 0376 00       		.byte	0
 17917 0377 46       		.uleb128 0x46
 17918 0378 0B       		.uleb128 0xb
 17919 0379 01       		.byte	0x1
 17920 037a 01       		.uleb128 0x1
ARM GAS  /tmp/ccETYwEL.s 			page 317


 17921 037b 13       		.uleb128 0x13
 17922 037c 00       		.byte	0
 17923 037d 00       		.byte	0
 17924 037e 47       		.uleb128 0x47
 17925 037f 0B       		.uleb128 0xb
 17926 0380 01       		.byte	0x1
 17927 0381 00       		.byte	0
 17928 0382 00       		.byte	0
 17929 0383 48       		.uleb128 0x48
 17930 0384 2E       		.uleb128 0x2e
 17931 0385 01       		.byte	0x1
 17932 0386 3F       		.uleb128 0x3f
 17933 0387 19       		.uleb128 0x19
 17934 0388 03       		.uleb128 0x3
 17935 0389 0E       		.uleb128 0xe
 17936 038a 3A       		.uleb128 0x3a
 17937 038b 0B       		.uleb128 0xb
 17938 038c 3B       		.uleb128 0x3b
 17939 038d 05       		.uleb128 0x5
 17940 038e 27       		.uleb128 0x27
 17941 038f 19       		.uleb128 0x19
 17942 0390 11       		.uleb128 0x11
 17943 0391 01       		.uleb128 0x1
 17944 0392 12       		.uleb128 0x12
 17945 0393 06       		.uleb128 0x6
 17946 0394 40       		.uleb128 0x40
 17947 0395 18       		.uleb128 0x18
 17948 0396 9742     		.uleb128 0x2117
 17949 0398 19       		.uleb128 0x19
 17950 0399 01       		.uleb128 0x1
 17951 039a 13       		.uleb128 0x13
 17952 039b 00       		.byte	0
 17953 039c 00       		.byte	0
 17954 039d 49       		.uleb128 0x49
 17955 039e 898201   		.uleb128 0x4109
 17956 03a1 00       		.byte	0
 17957 03a2 11       		.uleb128 0x11
 17958 03a3 01       		.uleb128 0x1
 17959 03a4 9542     		.uleb128 0x2115
 17960 03a6 19       		.uleb128 0x19
 17961 03a7 31       		.uleb128 0x31
 17962 03a8 13       		.uleb128 0x13
 17963 03a9 00       		.byte	0
 17964 03aa 00       		.byte	0
 17965 03ab 4A       		.uleb128 0x4a
 17966 03ac 2E       		.uleb128 0x2e
 17967 03ad 01       		.byte	0x1
 17968 03ae 3F       		.uleb128 0x3f
 17969 03af 19       		.uleb128 0x19
 17970 03b0 03       		.uleb128 0x3
 17971 03b1 0E       		.uleb128 0xe
 17972 03b2 3A       		.uleb128 0x3a
 17973 03b3 0B       		.uleb128 0xb
 17974 03b4 3B       		.uleb128 0x3b
 17975 03b5 05       		.uleb128 0x5
 17976 03b6 27       		.uleb128 0x27
 17977 03b7 19       		.uleb128 0x19
ARM GAS  /tmp/ccETYwEL.s 			page 318


 17978 03b8 11       		.uleb128 0x11
 17979 03b9 01       		.uleb128 0x1
 17980 03ba 12       		.uleb128 0x12
 17981 03bb 06       		.uleb128 0x6
 17982 03bc 40       		.uleb128 0x40
 17983 03bd 18       		.uleb128 0x18
 17984 03be 9642     		.uleb128 0x2116
 17985 03c0 19       		.uleb128 0x19
 17986 03c1 01       		.uleb128 0x1
 17987 03c2 13       		.uleb128 0x13
 17988 03c3 00       		.byte	0
 17989 03c4 00       		.byte	0
 17990 03c5 4B       		.uleb128 0x4b
 17991 03c6 1D       		.uleb128 0x1d
 17992 03c7 01       		.byte	0x1
 17993 03c8 31       		.uleb128 0x31
 17994 03c9 13       		.uleb128 0x13
 17995 03ca 11       		.uleb128 0x11
 17996 03cb 01       		.uleb128 0x1
 17997 03cc 12       		.uleb128 0x12
 17998 03cd 06       		.uleb128 0x6
 17999 03ce 58       		.uleb128 0x58
 18000 03cf 0B       		.uleb128 0xb
 18001 03d0 59       		.uleb128 0x59
 18002 03d1 05       		.uleb128 0x5
 18003 03d2 01       		.uleb128 0x1
 18004 03d3 13       		.uleb128 0x13
 18005 03d4 00       		.byte	0
 18006 03d5 00       		.byte	0
 18007 03d6 4C       		.uleb128 0x4c
 18008 03d7 1D       		.uleb128 0x1d
 18009 03d8 01       		.byte	0x1
 18010 03d9 31       		.uleb128 0x31
 18011 03da 13       		.uleb128 0x13
 18012 03db 11       		.uleb128 0x11
 18013 03dc 01       		.uleb128 0x1
 18014 03dd 12       		.uleb128 0x12
 18015 03de 06       		.uleb128 0x6
 18016 03df 58       		.uleb128 0x58
 18017 03e0 0B       		.uleb128 0xb
 18018 03e1 59       		.uleb128 0x59
 18019 03e2 05       		.uleb128 0x5
 18020 03e3 00       		.byte	0
 18021 03e4 00       		.byte	0
 18022 03e5 4D       		.uleb128 0x4d
 18023 03e6 34       		.uleb128 0x34
 18024 03e7 00       		.byte	0
 18025 03e8 03       		.uleb128 0x3
 18026 03e9 08       		.uleb128 0x8
 18027 03ea 3A       		.uleb128 0x3a
 18028 03eb 0B       		.uleb128 0xb
 18029 03ec 3B       		.uleb128 0x3b
 18030 03ed 05       		.uleb128 0x5
 18031 03ee 49       		.uleb128 0x49
 18032 03ef 13       		.uleb128 0x13
 18033 03f0 02       		.uleb128 0x2
 18034 03f1 18       		.uleb128 0x18
ARM GAS  /tmp/ccETYwEL.s 			page 319


 18035 03f2 00       		.byte	0
 18036 03f3 00       		.byte	0
 18037 03f4 4E       		.uleb128 0x4e
 18038 03f5 1D       		.uleb128 0x1d
 18039 03f6 00       		.byte	0
 18040 03f7 31       		.uleb128 0x31
 18041 03f8 13       		.uleb128 0x13
 18042 03f9 52       		.uleb128 0x52
 18043 03fa 01       		.uleb128 0x1
 18044 03fb 55       		.uleb128 0x55
 18045 03fc 17       		.uleb128 0x17
 18046 03fd 58       		.uleb128 0x58
 18047 03fe 0B       		.uleb128 0xb
 18048 03ff 59       		.uleb128 0x59
 18049 0400 05       		.uleb128 0x5
 18050 0401 00       		.byte	0
 18051 0402 00       		.byte	0
 18052 0403 4F       		.uleb128 0x4f
 18053 0404 05       		.uleb128 0x5
 18054 0405 00       		.byte	0
 18055 0406 31       		.uleb128 0x31
 18056 0407 13       		.uleb128 0x13
 18057 0408 00       		.byte	0
 18058 0409 00       		.byte	0
 18059 040a 50       		.uleb128 0x50
 18060 040b 2E       		.uleb128 0x2e
 18061 040c 01       		.byte	0x1
 18062 040d 3F       		.uleb128 0x3f
 18063 040e 19       		.uleb128 0x19
 18064 040f 03       		.uleb128 0x3
 18065 0410 0E       		.uleb128 0xe
 18066 0411 3A       		.uleb128 0x3a
 18067 0412 0B       		.uleb128 0xb
 18068 0413 3B       		.uleb128 0x3b
 18069 0414 05       		.uleb128 0x5
 18070 0415 27       		.uleb128 0x27
 18071 0416 19       		.uleb128 0x19
 18072 0417 20       		.uleb128 0x20
 18073 0418 0B       		.uleb128 0xb
 18074 0419 01       		.uleb128 0x1
 18075 041a 13       		.uleb128 0x13
 18076 041b 00       		.byte	0
 18077 041c 00       		.byte	0
 18078 041d 51       		.uleb128 0x51
 18079 041e 2E       		.uleb128 0x2e
 18080 041f 01       		.byte	0x1
 18081 0420 3F       		.uleb128 0x3f
 18082 0421 19       		.uleb128 0x19
 18083 0422 03       		.uleb128 0x3
 18084 0423 0E       		.uleb128 0xe
 18085 0424 3A       		.uleb128 0x3a
 18086 0425 0B       		.uleb128 0xb
 18087 0426 3B       		.uleb128 0x3b
 18088 0427 05       		.uleb128 0x5
 18089 0428 27       		.uleb128 0x27
 18090 0429 19       		.uleb128 0x19
 18091 042a 49       		.uleb128 0x49
ARM GAS  /tmp/ccETYwEL.s 			page 320


 18092 042b 13       		.uleb128 0x13
 18093 042c 11       		.uleb128 0x11
 18094 042d 01       		.uleb128 0x1
 18095 042e 12       		.uleb128 0x12
 18096 042f 06       		.uleb128 0x6
 18097 0430 40       		.uleb128 0x40
 18098 0431 18       		.uleb128 0x18
 18099 0432 9742     		.uleb128 0x2117
 18100 0434 19       		.uleb128 0x19
 18101 0435 01       		.uleb128 0x1
 18102 0436 13       		.uleb128 0x13
 18103 0437 00       		.byte	0
 18104 0438 00       		.byte	0
 18105 0439 52       		.uleb128 0x52
 18106 043a 2E       		.uleb128 0x2e
 18107 043b 00       		.byte	0
 18108 043c 3F       		.uleb128 0x3f
 18109 043d 19       		.uleb128 0x19
 18110 043e 03       		.uleb128 0x3
 18111 043f 0E       		.uleb128 0xe
 18112 0440 3A       		.uleb128 0x3a
 18113 0441 0B       		.uleb128 0xb
 18114 0442 3B       		.uleb128 0x3b
 18115 0443 05       		.uleb128 0x5
 18116 0444 27       		.uleb128 0x27
 18117 0445 19       		.uleb128 0x19
 18118 0446 49       		.uleb128 0x49
 18119 0447 13       		.uleb128 0x13
 18120 0448 11       		.uleb128 0x11
 18121 0449 01       		.uleb128 0x1
 18122 044a 12       		.uleb128 0x12
 18123 044b 06       		.uleb128 0x6
 18124 044c 40       		.uleb128 0x40
 18125 044d 18       		.uleb128 0x18
 18126 044e 9742     		.uleb128 0x2117
 18127 0450 19       		.uleb128 0x19
 18128 0451 00       		.byte	0
 18129 0452 00       		.byte	0
 18130 0453 53       		.uleb128 0x53
 18131 0454 05       		.uleb128 0x5
 18132 0455 00       		.byte	0
 18133 0456 03       		.uleb128 0x3
 18134 0457 0E       		.uleb128 0xe
 18135 0458 3A       		.uleb128 0x3a
 18136 0459 0B       		.uleb128 0xb
 18137 045a 3B       		.uleb128 0x3b
 18138 045b 05       		.uleb128 0x5
 18139 045c 49       		.uleb128 0x49
 18140 045d 13       		.uleb128 0x13
 18141 045e 02       		.uleb128 0x2
 18142 045f 17       		.uleb128 0x17
 18143 0460 00       		.byte	0
 18144 0461 00       		.byte	0
 18145 0462 54       		.uleb128 0x54
 18146 0463 898201   		.uleb128 0x4109
 18147 0466 01       		.byte	0x1
 18148 0467 11       		.uleb128 0x11
ARM GAS  /tmp/ccETYwEL.s 			page 321


 18149 0468 01       		.uleb128 0x1
 18150 0469 9542     		.uleb128 0x2115
 18151 046b 19       		.uleb128 0x19
 18152 046c 31       		.uleb128 0x31
 18153 046d 13       		.uleb128 0x13
 18154 046e 00       		.byte	0
 18155 046f 00       		.byte	0
 18156 0470 55       		.uleb128 0x55
 18157 0471 2E       		.uleb128 0x2e
 18158 0472 00       		.byte	0
 18159 0473 3F       		.uleb128 0x3f
 18160 0474 19       		.uleb128 0x19
 18161 0475 03       		.uleb128 0x3
 18162 0476 0E       		.uleb128 0xe
 18163 0477 3A       		.uleb128 0x3a
 18164 0478 0B       		.uleb128 0xb
 18165 0479 3B       		.uleb128 0x3b
 18166 047a 05       		.uleb128 0x5
 18167 047b 27       		.uleb128 0x27
 18168 047c 19       		.uleb128 0x19
 18169 047d 49       		.uleb128 0x49
 18170 047e 13       		.uleb128 0x13
 18171 047f 20       		.uleb128 0x20
 18172 0480 0B       		.uleb128 0xb
 18173 0481 00       		.byte	0
 18174 0482 00       		.byte	0
 18175 0483 56       		.uleb128 0x56
 18176 0484 34       		.uleb128 0x34
 18177 0485 00       		.byte	0
 18178 0486 03       		.uleb128 0x3
 18179 0487 08       		.uleb128 0x8
 18180 0488 3A       		.uleb128 0x3a
 18181 0489 0B       		.uleb128 0xb
 18182 048a 3B       		.uleb128 0x3b
 18183 048b 05       		.uleb128 0x5
 18184 048c 49       		.uleb128 0x49
 18185 048d 13       		.uleb128 0x13
 18186 048e 1C       		.uleb128 0x1c
 18187 048f 0A       		.uleb128 0xa
 18188 0490 00       		.byte	0
 18189 0491 00       		.byte	0
 18190 0492 57       		.uleb128 0x57
 18191 0493 34       		.uleb128 0x34
 18192 0494 00       		.byte	0
 18193 0495 03       		.uleb128 0x3
 18194 0496 08       		.uleb128 0x8
 18195 0497 3A       		.uleb128 0x3a
 18196 0498 0B       		.uleb128 0xb
 18197 0499 3B       		.uleb128 0x3b
 18198 049a 05       		.uleb128 0x5
 18199 049b 49       		.uleb128 0x49
 18200 049c 13       		.uleb128 0x13
 18201 049d 1C       		.uleb128 0x1c
 18202 049e 0B       		.uleb128 0xb
 18203 049f 00       		.byte	0
 18204 04a0 00       		.byte	0
 18205 04a1 58       		.uleb128 0x58
ARM GAS  /tmp/ccETYwEL.s 			page 322


 18206 04a2 05       		.uleb128 0x5
 18207 04a3 00       		.byte	0
 18208 04a4 03       		.uleb128 0x3
 18209 04a5 0E       		.uleb128 0xe
 18210 04a6 3A       		.uleb128 0x3a
 18211 04a7 0B       		.uleb128 0xb
 18212 04a8 3B       		.uleb128 0x3b
 18213 04a9 05       		.uleb128 0x5
 18214 04aa 49       		.uleb128 0x49
 18215 04ab 13       		.uleb128 0x13
 18216 04ac 02       		.uleb128 0x2
 18217 04ad 18       		.uleb128 0x18
 18218 04ae 00       		.byte	0
 18219 04af 00       		.byte	0
 18220 04b0 59       		.uleb128 0x59
 18221 04b1 2E       		.uleb128 0x2e
 18222 04b2 00       		.byte	0
 18223 04b3 3F       		.uleb128 0x3f
 18224 04b4 19       		.uleb128 0x19
 18225 04b5 03       		.uleb128 0x3
 18226 04b6 0E       		.uleb128 0xe
 18227 04b7 3A       		.uleb128 0x3a
 18228 04b8 0B       		.uleb128 0xb
 18229 04b9 3B       		.uleb128 0x3b
 18230 04ba 05       		.uleb128 0x5
 18231 04bb 27       		.uleb128 0x27
 18232 04bc 19       		.uleb128 0x19
 18233 04bd 11       		.uleb128 0x11
 18234 04be 01       		.uleb128 0x1
 18235 04bf 12       		.uleb128 0x12
 18236 04c0 06       		.uleb128 0x6
 18237 04c1 40       		.uleb128 0x40
 18238 04c2 18       		.uleb128 0x18
 18239 04c3 9742     		.uleb128 0x2117
 18240 04c5 19       		.uleb128 0x19
 18241 04c6 00       		.byte	0
 18242 04c7 00       		.byte	0
 18243 04c8 5A       		.uleb128 0x5a
 18244 04c9 2E       		.uleb128 0x2e
 18245 04ca 01       		.byte	0x1
 18246 04cb 3F       		.uleb128 0x3f
 18247 04cc 19       		.uleb128 0x19
 18248 04cd 03       		.uleb128 0x3
 18249 04ce 0E       		.uleb128 0xe
 18250 04cf 3A       		.uleb128 0x3a
 18251 04d0 0B       		.uleb128 0xb
 18252 04d1 3B       		.uleb128 0x3b
 18253 04d2 0B       		.uleb128 0xb
 18254 04d3 27       		.uleb128 0x27
 18255 04d4 19       		.uleb128 0x19
 18256 04d5 49       		.uleb128 0x49
 18257 04d6 13       		.uleb128 0x13
 18258 04d7 11       		.uleb128 0x11
 18259 04d8 01       		.uleb128 0x1
 18260 04d9 12       		.uleb128 0x12
 18261 04da 06       		.uleb128 0x6
 18262 04db 40       		.uleb128 0x40
ARM GAS  /tmp/ccETYwEL.s 			page 323


 18263 04dc 18       		.uleb128 0x18
 18264 04dd 9742     		.uleb128 0x2117
 18265 04df 19       		.uleb128 0x19
 18266 04e0 01       		.uleb128 0x1
 18267 04e1 13       		.uleb128 0x13
 18268 04e2 00       		.byte	0
 18269 04e3 00       		.byte	0
 18270 04e4 5B       		.uleb128 0x5b
 18271 04e5 34       		.uleb128 0x34
 18272 04e6 00       		.byte	0
 18273 04e7 03       		.uleb128 0x3
 18274 04e8 08       		.uleb128 0x8
 18275 04e9 3A       		.uleb128 0x3a
 18276 04ea 0B       		.uleb128 0xb
 18277 04eb 3B       		.uleb128 0x3b
 18278 04ec 0B       		.uleb128 0xb
 18279 04ed 49       		.uleb128 0x49
 18280 04ee 13       		.uleb128 0x13
 18281 04ef 1C       		.uleb128 0x1c
 18282 04f0 0B       		.uleb128 0xb
 18283 04f1 00       		.byte	0
 18284 04f2 00       		.byte	0
 18285 04f3 5C       		.uleb128 0x5c
 18286 04f4 2E       		.uleb128 0x2e
 18287 04f5 01       		.byte	0x1
 18288 04f6 3F       		.uleb128 0x3f
 18289 04f7 19       		.uleb128 0x19
 18290 04f8 03       		.uleb128 0x3
 18291 04f9 0E       		.uleb128 0xe
 18292 04fa 3A       		.uleb128 0x3a
 18293 04fb 0B       		.uleb128 0xb
 18294 04fc 3B       		.uleb128 0x3b
 18295 04fd 0B       		.uleb128 0xb
 18296 04fe 27       		.uleb128 0x27
 18297 04ff 19       		.uleb128 0x19
 18298 0500 11       		.uleb128 0x11
 18299 0501 01       		.uleb128 0x1
 18300 0502 12       		.uleb128 0x12
 18301 0503 06       		.uleb128 0x6
 18302 0504 40       		.uleb128 0x40
 18303 0505 18       		.uleb128 0x18
 18304 0506 9742     		.uleb128 0x2117
 18305 0508 19       		.uleb128 0x19
 18306 0509 01       		.uleb128 0x1
 18307 050a 13       		.uleb128 0x13
 18308 050b 00       		.byte	0
 18309 050c 00       		.byte	0
 18310 050d 5D       		.uleb128 0x5d
 18311 050e 05       		.uleb128 0x5
 18312 050f 00       		.byte	0
 18313 0510 03       		.uleb128 0x3
 18314 0511 0E       		.uleb128 0xe
 18315 0512 3A       		.uleb128 0x3a
 18316 0513 0B       		.uleb128 0xb
 18317 0514 3B       		.uleb128 0x3b
 18318 0515 0B       		.uleb128 0xb
 18319 0516 49       		.uleb128 0x49
ARM GAS  /tmp/ccETYwEL.s 			page 324


 18320 0517 13       		.uleb128 0x13
 18321 0518 02       		.uleb128 0x2
 18322 0519 17       		.uleb128 0x17
 18323 051a 00       		.byte	0
 18324 051b 00       		.byte	0
 18325 051c 5E       		.uleb128 0x5e
 18326 051d 898201   		.uleb128 0x4109
 18327 0520 01       		.byte	0x1
 18328 0521 11       		.uleb128 0x11
 18329 0522 01       		.uleb128 0x1
 18330 0523 9542     		.uleb128 0x2115
 18331 0525 19       		.uleb128 0x19
 18332 0526 31       		.uleb128 0x31
 18333 0527 13       		.uleb128 0x13
 18334 0528 01       		.uleb128 0x1
 18335 0529 13       		.uleb128 0x13
 18336 052a 00       		.byte	0
 18337 052b 00       		.byte	0
 18338 052c 5F       		.uleb128 0x5f
 18339 052d 2E       		.uleb128 0x2e
 18340 052e 00       		.byte	0
 18341 052f 3F       		.uleb128 0x3f
 18342 0530 19       		.uleb128 0x19
 18343 0531 03       		.uleb128 0x3
 18344 0532 0E       		.uleb128 0xe
 18345 0533 3A       		.uleb128 0x3a
 18346 0534 0B       		.uleb128 0xb
 18347 0535 3B       		.uleb128 0x3b
 18348 0536 0B       		.uleb128 0xb
 18349 0537 27       		.uleb128 0x27
 18350 0538 19       		.uleb128 0x19
 18351 0539 49       		.uleb128 0x49
 18352 053a 13       		.uleb128 0x13
 18353 053b 11       		.uleb128 0x11
 18354 053c 01       		.uleb128 0x1
 18355 053d 12       		.uleb128 0x12
 18356 053e 06       		.uleb128 0x6
 18357 053f 40       		.uleb128 0x40
 18358 0540 18       		.uleb128 0x18
 18359 0541 9742     		.uleb128 0x2117
 18360 0543 19       		.uleb128 0x19
 18361 0544 00       		.byte	0
 18362 0545 00       		.byte	0
 18363 0546 60       		.uleb128 0x60
 18364 0547 2E       		.uleb128 0x2e
 18365 0548 01       		.byte	0x1
 18366 0549 03       		.uleb128 0x3
 18367 054a 0E       		.uleb128 0xe
 18368 054b 3A       		.uleb128 0x3a
 18369 054c 0B       		.uleb128 0xb
 18370 054d 3B       		.uleb128 0x3b
 18371 054e 0B       		.uleb128 0xb
 18372 054f 27       		.uleb128 0x27
 18373 0550 19       		.uleb128 0x19
 18374 0551 20       		.uleb128 0x20
 18375 0552 0B       		.uleb128 0xb
 18376 0553 01       		.uleb128 0x1
ARM GAS  /tmp/ccETYwEL.s 			page 325


 18377 0554 13       		.uleb128 0x13
 18378 0555 00       		.byte	0
 18379 0556 00       		.byte	0
 18380 0557 61       		.uleb128 0x61
 18381 0558 05       		.uleb128 0x5
 18382 0559 00       		.byte	0
 18383 055a 03       		.uleb128 0x3
 18384 055b 0E       		.uleb128 0xe
 18385 055c 3A       		.uleb128 0x3a
 18386 055d 0B       		.uleb128 0xb
 18387 055e 3B       		.uleb128 0x3b
 18388 055f 0B       		.uleb128 0xb
 18389 0560 49       		.uleb128 0x49
 18390 0561 13       		.uleb128 0x13
 18391 0562 00       		.byte	0
 18392 0563 00       		.byte	0
 18393 0564 62       		.uleb128 0x62
 18394 0565 2E       		.uleb128 0x2e
 18395 0566 00       		.byte	0
 18396 0567 03       		.uleb128 0x3
 18397 0568 0E       		.uleb128 0xe
 18398 0569 3A       		.uleb128 0x3a
 18399 056a 0B       		.uleb128 0xb
 18400 056b 3B       		.uleb128 0x3b
 18401 056c 0B       		.uleb128 0xb
 18402 056d 27       		.uleb128 0x27
 18403 056e 19       		.uleb128 0x19
 18404 056f 49       		.uleb128 0x49
 18405 0570 13       		.uleb128 0x13
 18406 0571 20       		.uleb128 0x20
 18407 0572 0B       		.uleb128 0xb
 18408 0573 00       		.byte	0
 18409 0574 00       		.byte	0
 18410 0575 63       		.uleb128 0x63
 18411 0576 2E       		.uleb128 0x2e
 18412 0577 00       		.byte	0
 18413 0578 03       		.uleb128 0x3
 18414 0579 0E       		.uleb128 0xe
 18415 057a 3A       		.uleb128 0x3a
 18416 057b 0B       		.uleb128 0xb
 18417 057c 3B       		.uleb128 0x3b
 18418 057d 05       		.uleb128 0x5
 18419 057e 27       		.uleb128 0x27
 18420 057f 19       		.uleb128 0x19
 18421 0580 20       		.uleb128 0x20
 18422 0581 0B       		.uleb128 0xb
 18423 0582 00       		.byte	0
 18424 0583 00       		.byte	0
 18425 0584 64       		.uleb128 0x64
 18426 0585 2E       		.uleb128 0x2e
 18427 0586 01       		.byte	0x1
 18428 0587 31       		.uleb128 0x31
 18429 0588 13       		.uleb128 0x13
 18430 0589 11       		.uleb128 0x11
 18431 058a 01       		.uleb128 0x1
 18432 058b 12       		.uleb128 0x12
 18433 058c 06       		.uleb128 0x6
ARM GAS  /tmp/ccETYwEL.s 			page 326


 18434 058d 40       		.uleb128 0x40
 18435 058e 18       		.uleb128 0x18
 18436 058f 9742     		.uleb128 0x2117
 18437 0591 19       		.uleb128 0x19
 18438 0592 01       		.uleb128 0x1
 18439 0593 13       		.uleb128 0x13
 18440 0594 00       		.byte	0
 18441 0595 00       		.byte	0
 18442 0596 65       		.uleb128 0x65
 18443 0597 0B       		.uleb128 0xb
 18444 0598 01       		.byte	0x1
 18445 0599 31       		.uleb128 0x31
 18446 059a 13       		.uleb128 0x13
 18447 059b 11       		.uleb128 0x11
 18448 059c 01       		.uleb128 0x1
 18449 059d 12       		.uleb128 0x12
 18450 059e 06       		.uleb128 0x6
 18451 059f 01       		.uleb128 0x1
 18452 05a0 13       		.uleb128 0x13
 18453 05a1 00       		.byte	0
 18454 05a2 00       		.byte	0
 18455 05a3 66       		.uleb128 0x66
 18456 05a4 34       		.uleb128 0x34
 18457 05a5 00       		.byte	0
 18458 05a6 31       		.uleb128 0x31
 18459 05a7 13       		.uleb128 0x13
 18460 05a8 02       		.uleb128 0x2
 18461 05a9 18       		.uleb128 0x18
 18462 05aa 00       		.byte	0
 18463 05ab 00       		.byte	0
 18464 05ac 67       		.uleb128 0x67
 18465 05ad 34       		.uleb128 0x34
 18466 05ae 00       		.byte	0
 18467 05af 31       		.uleb128 0x31
 18468 05b0 13       		.uleb128 0x13
 18469 05b1 02       		.uleb128 0x2
 18470 05b2 17       		.uleb128 0x17
 18471 05b3 00       		.byte	0
 18472 05b4 00       		.byte	0
 18473 05b5 68       		.uleb128 0x68
 18474 05b6 2E       		.uleb128 0x2e
 18475 05b7 00       		.byte	0
 18476 05b8 31       		.uleb128 0x31
 18477 05b9 13       		.uleb128 0x13
 18478 05ba 11       		.uleb128 0x11
 18479 05bb 01       		.uleb128 0x1
 18480 05bc 12       		.uleb128 0x12
 18481 05bd 06       		.uleb128 0x6
 18482 05be 40       		.uleb128 0x40
 18483 05bf 18       		.uleb128 0x18
 18484 05c0 9742     		.uleb128 0x2117
 18485 05c2 19       		.uleb128 0x19
 18486 05c3 00       		.byte	0
 18487 05c4 00       		.byte	0
 18488 05c5 69       		.uleb128 0x69
 18489 05c6 0B       		.uleb128 0xb
 18490 05c7 01       		.byte	0x1
ARM GAS  /tmp/ccETYwEL.s 			page 327


 18491 05c8 31       		.uleb128 0x31
 18492 05c9 13       		.uleb128 0x13
 18493 05ca 55       		.uleb128 0x55
 18494 05cb 17       		.uleb128 0x17
 18495 05cc 01       		.uleb128 0x1
 18496 05cd 13       		.uleb128 0x13
 18497 05ce 00       		.byte	0
 18498 05cf 00       		.byte	0
 18499 05d0 6A       		.uleb128 0x6a
 18500 05d1 2E       		.uleb128 0x2e
 18501 05d2 00       		.byte	0
 18502 05d3 3F       		.uleb128 0x3f
 18503 05d4 19       		.uleb128 0x19
 18504 05d5 3C       		.uleb128 0x3c
 18505 05d6 19       		.uleb128 0x19
 18506 05d7 6E       		.uleb128 0x6e
 18507 05d8 0E       		.uleb128 0xe
 18508 05d9 03       		.uleb128 0x3
 18509 05da 0E       		.uleb128 0xe
 18510 05db 3A       		.uleb128 0x3a
 18511 05dc 0B       		.uleb128 0xb
 18512 05dd 3B       		.uleb128 0x3b
 18513 05de 0B       		.uleb128 0xb
 18514 05df 00       		.byte	0
 18515 05e0 00       		.byte	0
 18516 05e1 6B       		.uleb128 0x6b
 18517 05e2 2E       		.uleb128 0x2e
 18518 05e3 00       		.byte	0
 18519 05e4 3F       		.uleb128 0x3f
 18520 05e5 19       		.uleb128 0x19
 18521 05e6 3C       		.uleb128 0x3c
 18522 05e7 19       		.uleb128 0x19
 18523 05e8 6E       		.uleb128 0x6e
 18524 05e9 0E       		.uleb128 0xe
 18525 05ea 03       		.uleb128 0x3
 18526 05eb 0E       		.uleb128 0xe
 18527 05ec 3A       		.uleb128 0x3a
 18528 05ed 0B       		.uleb128 0xb
 18529 05ee 3B       		.uleb128 0x3b
 18530 05ef 0B       		.uleb128 0xb
 18531 05f0 6E       		.uleb128 0x6e
 18532 05f1 0E       		.uleb128 0xe
 18533 05f2 00       		.byte	0
 18534 05f3 00       		.byte	0
 18535 05f4 6C       		.uleb128 0x6c
 18536 05f5 2E       		.uleb128 0x2e
 18537 05f6 00       		.byte	0
 18538 05f7 3F       		.uleb128 0x3f
 18539 05f8 19       		.uleb128 0x19
 18540 05f9 3C       		.uleb128 0x3c
 18541 05fa 19       		.uleb128 0x19
 18542 05fb 6E       		.uleb128 0x6e
 18543 05fc 0E       		.uleb128 0xe
 18544 05fd 03       		.uleb128 0x3
 18545 05fe 0E       		.uleb128 0xe
 18546 05ff 3A       		.uleb128 0x3a
 18547 0600 0B       		.uleb128 0xb
ARM GAS  /tmp/ccETYwEL.s 			page 328


 18548 0601 3B       		.uleb128 0x3b
 18549 0602 05       		.uleb128 0x5
 18550 0603 00       		.byte	0
 18551 0604 00       		.byte	0
 18552 0605 00       		.byte	0
 18553              		.section	.debug_loc,"",%progbits
 18554              	.Ldebug_loc0:
 18555              	.LLST0:
 18556 0000 00000000 		.4byte	.LVL0
 18557 0004 34000000 		.4byte	.LVL2
 18558 0008 0100     		.2byte	0x1
 18559 000a 50       		.byte	0x50
 18560 000b 34000000 		.4byte	.LVL2
 18561 000f 40020000 		.4byte	.LFE312
 18562 0013 0400     		.2byte	0x4
 18563 0015 F3       		.byte	0xf3
 18564 0016 01       		.uleb128 0x1
 18565 0017 50       		.byte	0x50
 18566 0018 9F       		.byte	0x9f
 18567 0019 00000000 		.4byte	0
 18568 001d 00000000 		.4byte	0
 18569              	.LLST2:
 18570 0021 3A000000 		.4byte	.LVL3
 18571 0025 54000000 		.4byte	.LVL4
 18572 0029 0200     		.2byte	0x2
 18573 002b 30       		.byte	0x30
 18574 002c 9F       		.byte	0x9f
 18575 002d 54000000 		.4byte	.LVL4
 18576 0031 60000000 		.4byte	.LVL5
 18577 0035 0100     		.2byte	0x1
 18578 0037 58       		.byte	0x58
 18579 0038 E0010000 		.4byte	.LVL24
 18580 003c 40020000 		.4byte	.LFE312
 18581 0040 0400     		.2byte	0x4
 18582 0042 0A       		.byte	0xa
 18583 0043 D007     		.2byte	0x7d0
 18584 0045 9F       		.byte	0x9f
 18585 0046 00000000 		.4byte	0
 18586 004a 00000000 		.4byte	0
 18587              	.LLST3:
 18588 004e 3A000000 		.4byte	.LVL3
 18589 0052 60000000 		.4byte	.LVL5
 18590 0056 0200     		.2byte	0x2
 18591 0058 30       		.byte	0x30
 18592 0059 9F       		.byte	0x9f
 18593 005a E0010000 		.4byte	.LVL24
 18594 005e F0010000 		.4byte	.LVL25
 18595 0062 0200     		.2byte	0x2
 18596 0064 30       		.byte	0x30
 18597 0065 9F       		.byte	0x9f
 18598 0066 F0010000 		.4byte	.LVL25
 18599 006a 40020000 		.4byte	.LFE312
 18600 006e 0100     		.2byte	0x1
 18601 0070 59       		.byte	0x59
 18602 0071 00000000 		.4byte	0
 18603 0075 00000000 		.4byte	0
 18604              	.LLST4:
ARM GAS  /tmp/ccETYwEL.s 			page 329


 18605 0079 54000000 		.4byte	.LVL4
 18606 007d 68000000 		.4byte	.LVL6
 18607 0081 0200     		.2byte	0x2
 18608 0083 30       		.byte	0x30
 18609 0084 9F       		.byte	0x9f
 18610 0085 68000000 		.4byte	.LVL6
 18611 0089 D8000000 		.4byte	.LVL11
 18612 008d 0100     		.2byte	0x1
 18613 008f 57       		.byte	0x57
 18614 0090 D8000000 		.4byte	.LVL11
 18615 0094 C0010000 		.4byte	.LVL20
 18616 0098 0300     		.2byte	0x3
 18617 009a 77       		.byte	0x77
 18618 009b 7F       		.sleb128 -1
 18619 009c 9F       		.byte	0x9f
 18620 009d C0010000 		.4byte	.LVL20
 18621 00a1 E0010000 		.4byte	.LVL24
 18622 00a5 0100     		.2byte	0x1
 18623 00a7 57       		.byte	0x57
 18624 00a8 F0010000 		.4byte	.LVL25
 18625 00ac 40020000 		.4byte	.LFE312
 18626 00b0 0200     		.2byte	0x2
 18627 00b2 30       		.byte	0x30
 18628 00b3 9F       		.byte	0x9f
 18629 00b4 00000000 		.4byte	0
 18630 00b8 00000000 		.4byte	0
 18631              	.LLST5:
 18632 00bc 6A000000 		.4byte	.LVL7
 18633 00c0 A0010000 		.4byte	.LVL18
 18634 00c4 0100     		.2byte	0x1
 18635 00c6 54       		.byte	0x54
 18636 00c7 A0010000 		.4byte	.LVL18
 18637 00cb B2010000 		.4byte	.LVL19
 18638 00cf 0900     		.2byte	0x9
 18639 00d1 74       		.byte	0x74
 18640 00d2 00       		.sleb128 0
 18641 00d3 03       		.byte	0x3
 18642 00d4 C8760000 		.4byte	.LANCHOR11
 18643 00d8 1C       		.byte	0x1c
 18644 00d9 9F       		.byte	0x9f
 18645 00da CC010000 		.4byte	.LVL21
 18646 00de D8010000 		.4byte	.LVL22
 18647 00e2 0100     		.2byte	0x1
 18648 00e4 54       		.byte	0x54
 18649 00e5 D8010000 		.4byte	.LVL22
 18650 00e9 DC010000 		.4byte	.LVL23
 18651 00ed 0400     		.2byte	0x4
 18652 00ef 74       		.byte	0x74
 18653 00f0 D00F     		.sleb128 2000
 18654 00f2 9F       		.byte	0x9f
 18655 00f3 DC010000 		.4byte	.LVL23
 18656 00f7 E0010000 		.4byte	.LVL24
 18657 00fb 0100     		.2byte	0x1
 18658 00fd 54       		.byte	0x54
 18659 00fe 00000000 		.4byte	0
 18660 0102 00000000 		.4byte	0
 18661              	.LLST1:
ARM GAS  /tmp/ccETYwEL.s 			page 330


 18662 0106 00000000 		.4byte	.LVL0
 18663 010a 30000000 		.4byte	.LVL1
 18664 010e 0600     		.2byte	0x6
 18665 0110 03       		.byte	0x3
 18666 0111 00000000 		.4byte	.LC0
 18667 0115 9F       		.byte	0x9f
 18668 0116 00000000 		.4byte	0
 18669 011a 00000000 		.4byte	0
 18670              	.LLST47:
 18671 011e 00000000 		.4byte	.LVL247
 18672 0122 1A000000 		.4byte	.LVL248
 18673 0126 0100     		.2byte	0x1
 18674 0128 50       		.byte	0x50
 18675 0129 1A000000 		.4byte	.LVL248
 18676 012d 74000000 		.4byte	.LFE311
 18677 0131 0400     		.2byte	0x4
 18678 0133 F3       		.byte	0xf3
 18679 0134 01       		.uleb128 0x1
 18680 0135 50       		.byte	0x50
 18681 0136 9F       		.byte	0x9f
 18682 0137 00000000 		.4byte	0
 18683 013b 00000000 		.4byte	0
 18684              	.LLST72:
 18685 013f 30000000 		.4byte	.LVL360
 18686 0143 9E010000 		.4byte	.LVL379
 18687 0147 0200     		.2byte	0x2
 18688 0149 90       		.byte	0x90
 18689 014a 50       		.uleb128 0x50
 18690 014b E0010000 		.4byte	.LVL381
 18691 014f 64020000 		.4byte	.LVL384
 18692 0153 0200     		.2byte	0x2
 18693 0155 90       		.byte	0x90
 18694 0156 50       		.uleb128 0x50
 18695 0157 A8030000 		.4byte	.LVL396
 18696 015b 02040000 		.4byte	.LVL402
 18697 015f 0200     		.2byte	0x2
 18698 0161 90       		.byte	0x90
 18699 0162 50       		.uleb128 0x50
 18700 0163 9A040000 		.4byte	.LVL419
 18701 0167 B6040000 		.4byte	.LVL427
 18702 016b 0200     		.2byte	0x2
 18703 016d 90       		.byte	0x90
 18704 016e 50       		.uleb128 0x50
 18705 016f 00000000 		.4byte	0
 18706 0173 00000000 		.4byte	0
 18707              	.LLST73:
 18708 0177 78000000 		.4byte	.LVL364
 18709 017b 7B000000 		.4byte	.LVL365-1
 18710 017f 0200     		.2byte	0x2
 18711 0181 90       		.byte	0x90
 18712 0182 40       		.uleb128 0x40
 18713 0183 7B000000 		.4byte	.LVL365-1
 18714 0187 4E010000 		.4byte	.LVL377
 18715 018b 0200     		.2byte	0x2
 18716 018d 90       		.byte	0x90
 18717 018e 51       		.uleb128 0x51
 18718 018f E0010000 		.4byte	.LVL381
ARM GAS  /tmp/ccETYwEL.s 			page 331


 18719 0193 64020000 		.4byte	.LVL384
 18720 0197 0200     		.2byte	0x2
 18721 0199 90       		.byte	0x90
 18722 019a 51       		.uleb128 0x51
 18723 019b A8030000 		.4byte	.LVL396
 18724 019f C4030000 		.4byte	.LVL399
 18725 01a3 0200     		.2byte	0x2
 18726 01a5 90       		.byte	0x90
 18727 01a6 51       		.uleb128 0x51
 18728 01a7 9A040000 		.4byte	.LVL419
 18729 01ab B0040000 		.4byte	.LVL425
 18730 01af 0200     		.2byte	0x2
 18731 01b1 90       		.byte	0x90
 18732 01b2 51       		.uleb128 0x51
 18733 01b3 00000000 		.4byte	0
 18734 01b7 00000000 		.4byte	0
 18735              	.LLST74:
 18736 01bb A0000000 		.4byte	.LVL366
 18737 01bf BF000000 		.4byte	.LVL367-1
 18738 01c3 0200     		.2byte	0x2
 18739 01c5 90       		.byte	0x90
 18740 01c6 40       		.uleb128 0x40
 18741 01c7 BF000000 		.4byte	.LVL367-1
 18742 01cb C4030000 		.4byte	.LVL399
 18743 01cf 0200     		.2byte	0x2
 18744 01d1 90       		.byte	0x90
 18745 01d2 53       		.uleb128 0x53
 18746 01d3 02040000 		.4byte	.LVL402
 18747 01d7 B0040000 		.4byte	.LVL425
 18748 01db 0200     		.2byte	0x2
 18749 01dd 90       		.byte	0x90
 18750 01de 53       		.uleb128 0x53
 18751 01df B6040000 		.4byte	.LVL427
 18752 01e3 10070000 		.4byte	.LFE308
 18753 01e7 0200     		.2byte	0x2
 18754 01e9 90       		.byte	0x90
 18755 01ea 53       		.uleb128 0x53
 18756 01eb 00000000 		.4byte	0
 18757 01ef 00000000 		.4byte	0
 18758              	.LLST75:
 18759 01f3 08010000 		.4byte	.LVL370
 18760 01f7 10010000 		.4byte	.LVL371
 18761 01fb 0200     		.2byte	0x2
 18762 01fd 90       		.byte	0x90
 18763 01fe 40       		.uleb128 0x40
 18764 01ff 10010000 		.4byte	.LVL371
 18765 0203 34010000 		.4byte	.LVL374
 18766 0207 0200     		.2byte	0x2
 18767 0209 90       		.byte	0x90
 18768 020a 52       		.uleb128 0x52
 18769 020b A8030000 		.4byte	.LVL396
 18770 020f AC030000 		.4byte	.LVL397
 18771 0213 0200     		.2byte	0x2
 18772 0215 90       		.byte	0x90
 18773 0216 52       		.uleb128 0x52
 18774 0217 A2040000 		.4byte	.LVL421
 18775 021b A5040000 		.4byte	.LVL422-1
ARM GAS  /tmp/ccETYwEL.s 			page 332


 18776 021f 0200     		.2byte	0x2
 18777 0221 90       		.byte	0x90
 18778 0222 40       		.uleb128 0x40
 18779 0223 A5040000 		.4byte	.LVL422-1
 18780 0227 AA040000 		.4byte	.LVL423
 18781 022b 0200     		.2byte	0x2
 18782 022d 90       		.byte	0x90
 18783 022e 52       		.uleb128 0x52
 18784 022f AA040000 		.4byte	.LVL423
 18785 0233 AD040000 		.4byte	.LVL424-1
 18786 0237 0200     		.2byte	0x2
 18787 0239 90       		.byte	0x90
 18788 023a 40       		.uleb128 0x40
 18789 023b AD040000 		.4byte	.LVL424-1
 18790 023f B0040000 		.4byte	.LVL425
 18791 0243 0200     		.2byte	0x2
 18792 0245 90       		.byte	0x90
 18793 0246 52       		.uleb128 0x52
 18794 0247 00000000 		.4byte	0
 18795 024b 00000000 		.4byte	0
 18796              	.LLST76:
 18797 024f 08010000 		.4byte	.LVL370
 18798 0253 10010000 		.4byte	.LVL371
 18799 0257 0200     		.2byte	0x2
 18800 0259 90       		.byte	0x90
 18801 025a 51       		.uleb128 0x51
 18802 025b 10010000 		.4byte	.LVL371
 18803 025f 22010000 		.4byte	.LVL372
 18804 0263 0200     		.2byte	0x2
 18805 0265 90       		.byte	0x90
 18806 0266 40       		.uleb128 0x40
 18807 0267 A8030000 		.4byte	.LVL396
 18808 026b C4030000 		.4byte	.LVL399
 18809 026f 0200     		.2byte	0x2
 18810 0271 90       		.byte	0x90
 18811 0272 40       		.uleb128 0x40
 18812 0273 A2040000 		.4byte	.LVL421
 18813 0277 AE040000 		.4byte	.LVL424
 18814 027b 0200     		.2byte	0x2
 18815 027d 90       		.byte	0x90
 18816 027e 51       		.uleb128 0x51
 18817 027f AE040000 		.4byte	.LVL424
 18818 0283 B0040000 		.4byte	.LVL425
 18819 0287 0200     		.2byte	0x2
 18820 0289 90       		.byte	0x90
 18821 028a 40       		.uleb128 0x40
 18822 028b 00000000 		.4byte	0
 18823 028f 00000000 		.4byte	0
 18824              	.LLST77:
 18825 0293 5E010000 		.4byte	.LVL378
 18826 0297 E0010000 		.4byte	.LVL381
 18827 029b 0200     		.2byte	0x2
 18828 029d 90       		.byte	0x90
 18829 029e 40       		.uleb128 0x40
 18830 029f 64020000 		.4byte	.LVL384
 18831 02a3 86020000 		.4byte	.LVL387
 18832 02a7 0200     		.2byte	0x2
ARM GAS  /tmp/ccETYwEL.s 			page 333


 18833 02a9 90       		.byte	0x90
 18834 02aa 40       		.uleb128 0x40
 18835 02ab 86020000 		.4byte	.LVL387
 18836 02af A4030000 		.4byte	.LVL395
 18837 02b3 0200     		.2byte	0x2
 18838 02b5 90       		.byte	0x90
 18839 02b6 52       		.uleb128 0x52
 18840 02b7 02040000 		.4byte	.LVL402
 18841 02bb 23040000 		.4byte	.LVL407-1
 18842 02bf 0200     		.2byte	0x2
 18843 02c1 90       		.byte	0x90
 18844 02c2 40       		.uleb128 0x40
 18845 02c3 23040000 		.4byte	.LVL407-1
 18846 02c7 6E040000 		.4byte	.LVL414
 18847 02cb 0200     		.2byte	0x2
 18848 02cd 90       		.byte	0x90
 18849 02ce 52       		.uleb128 0x52
 18850 02cf 6E040000 		.4byte	.LVL414
 18851 02d3 93040000 		.4byte	.LVL417-1
 18852 02d7 0200     		.2byte	0x2
 18853 02d9 90       		.byte	0x90
 18854 02da 40       		.uleb128 0x40
 18855 02db 93040000 		.4byte	.LVL417-1
 18856 02df 9A040000 		.4byte	.LVL419
 18857 02e3 0200     		.2byte	0x2
 18858 02e5 90       		.byte	0x90
 18859 02e6 52       		.uleb128 0x52
 18860 02e7 B6040000 		.4byte	.LVL427
 18861 02eb D9040000 		.4byte	.LVL433-1
 18862 02ef 0200     		.2byte	0x2
 18863 02f1 90       		.byte	0x90
 18864 02f2 40       		.uleb128 0x40
 18865 02f3 D9040000 		.4byte	.LVL433-1
 18866 02f7 E2040000 		.4byte	.LVL434
 18867 02fb 0200     		.2byte	0x2
 18868 02fd 90       		.byte	0x90
 18869 02fe 52       		.uleb128 0x52
 18870 02ff E2040000 		.4byte	.LVL434
 18871 0303 10050000 		.4byte	.LVL438
 18872 0307 0200     		.2byte	0x2
 18873 0309 90       		.byte	0x90
 18874 030a 40       		.uleb128 0x40
 18875 030b 10050000 		.4byte	.LVL438
 18876 030f 30050000 		.4byte	.LVL440
 18877 0313 0200     		.2byte	0x2
 18878 0315 90       		.byte	0x90
 18879 0316 52       		.uleb128 0x52
 18880 0317 30050000 		.4byte	.LVL440
 18881 031b 40050000 		.4byte	.LVL443
 18882 031f 0200     		.2byte	0x2
 18883 0321 90       		.byte	0x90
 18884 0322 40       		.uleb128 0x40
 18885 0323 40050000 		.4byte	.LVL443
 18886 0327 AA060000 		.4byte	.LVL450
 18887 032b 0200     		.2byte	0x2
 18888 032d 90       		.byte	0x90
 18889 032e 52       		.uleb128 0x52
ARM GAS  /tmp/ccETYwEL.s 			page 334


 18890 032f AA060000 		.4byte	.LVL450
 18891 0333 B9060000 		.4byte	.LVL452-1
 18892 0337 0200     		.2byte	0x2
 18893 0339 90       		.byte	0x90
 18894 033a 40       		.uleb128 0x40
 18895 033b B9060000 		.4byte	.LVL452-1
 18896 033f C2060000 		.4byte	.LVL454
 18897 0343 0200     		.2byte	0x2
 18898 0345 90       		.byte	0x90
 18899 0346 52       		.uleb128 0x52
 18900 0347 C2060000 		.4byte	.LVL454
 18901 034b D1060000 		.4byte	.LVL456-1
 18902 034f 0200     		.2byte	0x2
 18903 0351 90       		.byte	0x90
 18904 0352 40       		.uleb128 0x40
 18905 0353 D1060000 		.4byte	.LVL456-1
 18906 0357 10070000 		.4byte	.LFE308
 18907 035b 0200     		.2byte	0x2
 18908 035d 90       		.byte	0x90
 18909 035e 52       		.uleb128 0x52
 18910 035f 00000000 		.4byte	0
 18911 0363 00000000 		.4byte	0
 18912              	.LLST78:
 18913 0367 C4010000 		.4byte	.LVL380
 18914 036b E0010000 		.4byte	.LVL381
 18915 036f 0200     		.2byte	0x2
 18916 0371 30       		.byte	0x30
 18917 0372 9F       		.byte	0x9f
 18918 0373 64020000 		.4byte	.LVL384
 18919 0377 94020000 		.4byte	.LVL388
 18920 037b 0200     		.2byte	0x2
 18921 037d 31       		.byte	0x31
 18922 037e 9F       		.byte	0x9f
 18923 037f 02040000 		.4byte	.LVL402
 18924 0383 20040000 		.4byte	.LVL406
 18925 0387 0200     		.2byte	0x2
 18926 0389 31       		.byte	0x31
 18927 038a 9F       		.byte	0x9f
 18928 038b 20040000 		.4byte	.LVL406
 18929 038f 32040000 		.4byte	.LVL408
 18930 0393 0200     		.2byte	0x2
 18931 0395 30       		.byte	0x30
 18932 0396 9F       		.byte	0x9f
 18933 0397 32040000 		.4byte	.LVL408
 18934 039b 42040000 		.4byte	.LVL409
 18935 039f 0200     		.2byte	0x2
 18936 03a1 31       		.byte	0x31
 18937 03a2 9F       		.byte	0x9f
 18938 03a3 66040000 		.4byte	.LVL413
 18939 03a7 6E040000 		.4byte	.LVL414
 18940 03ab 0100     		.2byte	0x1
 18941 03ad 59       		.byte	0x59
 18942 03ae 6E040000 		.4byte	.LVL414
 18943 03b2 9A040000 		.4byte	.LVL419
 18944 03b6 0200     		.2byte	0x2
 18945 03b8 30       		.byte	0x30
 18946 03b9 9F       		.byte	0x9f
ARM GAS  /tmp/ccETYwEL.s 			page 335


 18947 03ba B6040000 		.4byte	.LVL427
 18948 03be E2040000 		.4byte	.LVL434
 18949 03c2 0200     		.2byte	0x2
 18950 03c4 31       		.byte	0x31
 18951 03c5 9F       		.byte	0x9f
 18952 03c6 00050000 		.4byte	.LVL435
 18953 03ca 08050000 		.4byte	.LVL437
 18954 03ce 0200     		.2byte	0x2
 18955 03d0 31       		.byte	0x31
 18956 03d1 9F       		.byte	0x9f
 18957 03d2 08050000 		.4byte	.LVL437
 18958 03d6 30050000 		.4byte	.LVL440
 18959 03da 0200     		.2byte	0x2
 18960 03dc 30       		.byte	0x30
 18961 03dd 9F       		.byte	0x9f
 18962 03de 30050000 		.4byte	.LVL440
 18963 03e2 38050000 		.4byte	.LVL442
 18964 03e6 0200     		.2byte	0x2
 18965 03e8 31       		.byte	0x31
 18966 03e9 9F       		.byte	0x9f
 18967 03ea 38050000 		.4byte	.LVL442
 18968 03ee C0050000 		.4byte	.LVL444
 18969 03f2 0200     		.2byte	0x2
 18970 03f4 30       		.byte	0x30
 18971 03f5 9F       		.byte	0x9f
 18972 03f6 98060000 		.4byte	.LVL449
 18973 03fa 10070000 		.4byte	.LFE308
 18974 03fe 0200     		.2byte	0x2
 18975 0400 30       		.byte	0x30
 18976 0401 9F       		.byte	0x9f
 18977 0402 00000000 		.4byte	0
 18978 0406 00000000 		.4byte	0
 18979              	.LLST86:
 18980 040a 02040000 		.4byte	.LVL402
 18981 040e 16040000 		.4byte	.LVL403
 18982 0412 0300     		.2byte	0x3
 18983 0414 09       		.byte	0x9
 18984 0415 FF       		.byte	0xff
 18985 0416 9F       		.byte	0x9f
 18986 0417 16040000 		.4byte	.LVL403
 18987 041b 18040000 		.4byte	.LVL404
 18988 041f 0600     		.2byte	0x6
 18989 0421 73       		.byte	0x73
 18990 0422 00       		.sleb128 0
 18991 0423 72       		.byte	0x72
 18992 0424 00       		.sleb128 0
 18993 0425 1C       		.byte	0x1c
 18994 0426 9F       		.byte	0x9f
 18995 0427 18040000 		.4byte	.LVL404
 18996 042b 20040000 		.4byte	.LVL406
 18997 042f 0100     		.2byte	0x1
 18998 0431 53       		.byte	0x53
 18999 0432 CA040000 		.4byte	.LVL431
 19000 0436 CE040000 		.4byte	.LVL432
 19001 043a 0300     		.2byte	0x3
 19002 043c 09       		.byte	0x9
 19003 043d FF       		.byte	0xff
ARM GAS  /tmp/ccETYwEL.s 			page 336


 19004 043e 9F       		.byte	0x9f
 19005 043f CE040000 		.4byte	.LVL432
 19006 0443 D9040000 		.4byte	.LVL433-1
 19007 0447 0100     		.2byte	0x1
 19008 0449 53       		.byte	0x53
 19009 044a 00050000 		.4byte	.LVL435
 19010 044e 02050000 		.4byte	.LVL436
 19011 0452 0100     		.2byte	0x1
 19012 0454 53       		.byte	0x53
 19013 0455 00000000 		.4byte	0
 19014 0459 00000000 		.4byte	0
 19015              	.LLST87:
 19016 045d AA060000 		.4byte	.LVL450
 19017 0461 B0060000 		.4byte	.LVL451
 19018 0465 0300     		.2byte	0x3
 19019 0467 08       		.byte	0x8
 19020 0468 20       		.byte	0x20
 19021 0469 9F       		.byte	0x9f
 19022 046a 00000000 		.4byte	0
 19023 046e 00000000 		.4byte	0
 19024              	.LLST88:
 19025 0472 BA060000 		.4byte	.LVL452
 19026 0476 C0060000 		.4byte	.LVL453
 19027 047a 0200     		.2byte	0x2
 19028 047c 30       		.byte	0x30
 19029 047d 9F       		.byte	0x9f
 19030 047e 00000000 		.4byte	0
 19031 0482 00000000 		.4byte	0
 19032              	.LLST81:
 19033 0486 64020000 		.4byte	.LVL384
 19034 048a 76020000 		.4byte	.LVL385
 19035 048e 0300     		.2byte	0x3
 19036 0490 09       		.byte	0x9
 19037 0491 FF       		.byte	0xff
 19038 0492 9F       		.byte	0x9f
 19039 0493 76020000 		.4byte	.LVL385
 19040 0497 82020000 		.4byte	.LVL386
 19041 049b 0100     		.2byte	0x1
 19042 049d 53       		.byte	0x53
 19043 049e B6040000 		.4byte	.LVL427
 19044 04a2 BE040000 		.4byte	.LVL428
 19045 04a6 0300     		.2byte	0x3
 19046 04a8 09       		.byte	0x9
 19047 04a9 FF       		.byte	0xff
 19048 04aa 9F       		.byte	0x9f
 19049 04ab BE040000 		.4byte	.LVL428
 19050 04af C0040000 		.4byte	.LVL429
 19051 04b3 0600     		.2byte	0x6
 19052 04b5 73       		.byte	0x73
 19053 04b6 00       		.sleb128 0
 19054 04b7 72       		.byte	0x72
 19055 04b8 00       		.sleb128 0
 19056 04b9 1C       		.byte	0x1c
 19057 04ba 9F       		.byte	0x9f
 19058 04bb C0040000 		.4byte	.LVL429
 19059 04bf CA040000 		.4byte	.LVL431
 19060 04c3 0100     		.2byte	0x1
ARM GAS  /tmp/ccETYwEL.s 			page 337


 19061 04c5 53       		.byte	0x53
 19062 04c6 30050000 		.4byte	.LVL440
 19063 04ca 32050000 		.4byte	.LVL441
 19064 04ce 0100     		.2byte	0x1
 19065 04d0 53       		.byte	0x53
 19066 04d1 00000000 		.4byte	0
 19067 04d5 00000000 		.4byte	0
 19068              	.LLST82:
 19069 04d9 C2060000 		.4byte	.LVL454
 19070 04dd C8060000 		.4byte	.LVL455
 19071 04e1 0300     		.2byte	0x3
 19072 04e3 08       		.byte	0x8
 19073 04e4 20       		.byte	0x20
 19074 04e5 9F       		.byte	0x9f
 19075 04e6 00000000 		.4byte	0
 19076 04ea 00000000 		.4byte	0
 19077              	.LLST83:
 19078 04ee D2060000 		.4byte	.LVL456
 19079 04f2 D8060000 		.4byte	.LVL457
 19080 04f6 0200     		.2byte	0x2
 19081 04f8 30       		.byte	0x30
 19082 04f9 9F       		.byte	0x9f
 19083 04fa 00000000 		.4byte	0
 19084 04fe 00000000 		.4byte	0
 19085              	.LLST84:
 19086 0502 C8020000 		.4byte	.LVL389
 19087 0506 80030000 		.4byte	.LVL393
 19088 050a 0100     		.2byte	0x1
 19089 050c 54       		.byte	0x54
 19090 050d EA050000 		.4byte	.LVL446
 19091 0511 98060000 		.4byte	.LVL449
 19092 0515 0100     		.2byte	0x1
 19093 0517 54       		.byte	0x54
 19094 0518 00000000 		.4byte	0
 19095 051c 00000000 		.4byte	0
 19096              	.LLST79:
 19097 0520 2C010000 		.4byte	.LVL373
 19098 0524 46010000 		.4byte	.LVL375
 19099 0528 0200     		.2byte	0x2
 19100 052a 34       		.byte	0x34
 19101 052b 9F       		.byte	0x9f
 19102 052c E0010000 		.4byte	.LVL381
 19103 0530 E6010000 		.4byte	.LVL382
 19104 0534 0200     		.2byte	0x2
 19105 0536 34       		.byte	0x34
 19106 0537 9F       		.byte	0x9f
 19107 0538 B8030000 		.4byte	.LVL398
 19108 053c C4030000 		.4byte	.LVL399
 19109 0540 0200     		.2byte	0x2
 19110 0542 34       		.byte	0x34
 19111 0543 9F       		.byte	0x9f
 19112 0544 00000000 		.4byte	0
 19113 0548 00000000 		.4byte	0
 19114              	.LLST80:
 19115 054c EE010000 		.4byte	.LVL383
 19116 0550 64020000 		.4byte	.LVL384
 19117 0554 0200     		.2byte	0x2
ARM GAS  /tmp/ccETYwEL.s 			page 338


 19118 0556 33       		.byte	0x33
 19119 0557 9F       		.byte	0x9f
 19120 0558 9A040000 		.4byte	.LVL419
 19121 055c A2040000 		.4byte	.LVL421
 19122 0560 0200     		.2byte	0x2
 19123 0562 33       		.byte	0x33
 19124 0563 9F       		.byte	0x9f
 19125 0564 00000000 		.4byte	0
 19126 0568 00000000 		.4byte	0
 19127              	.LLST85:
 19128 056c DA030000 		.4byte	.LVL400
 19129 0570 E9030000 		.4byte	.LVL401-1
 19130 0574 0100     		.2byte	0x1
 19131 0576 50       		.byte	0x50
 19132 0577 B0040000 		.4byte	.LVL425
 19133 057b B3040000 		.4byte	.LVL426-1
 19134 057f 0100     		.2byte	0x1
 19135 0581 50       		.byte	0x50
 19136 0582 00000000 		.4byte	0
 19137 0586 00000000 		.4byte	0
 19138              	.LLST89:
 19139 058a 54040000 		.4byte	.LVL410
 19140 058e 58040000 		.4byte	.LVL411
 19141 0592 0300     		.2byte	0x3
 19142 0594 08       		.byte	0x8
 19143 0595 20       		.byte	0x20
 19144 0596 9F       		.byte	0x9f
 19145 0597 00000000 		.4byte	0
 19146 059b 00000000 		.4byte	0
 19147              	.LLST90:
 19148 059f 62040000 		.4byte	.LVL412
 19149 05a3 66040000 		.4byte	.LVL413
 19150 05a7 0200     		.2byte	0x2
 19151 05a9 30       		.byte	0x30
 19152 05aa 9F       		.byte	0x9f
 19153 05ab 00000000 		.4byte	0
 19154 05af 00000000 		.4byte	0
 19155              	.LLST91:
 19156 05b3 88040000 		.4byte	.LVL415
 19157 05b7 8C040000 		.4byte	.LVL416
 19158 05bb 0300     		.2byte	0x3
 19159 05bd 08       		.byte	0x8
 19160 05be 20       		.byte	0x20
 19161 05bf 9F       		.byte	0x9f
 19162 05c0 00000000 		.4byte	0
 19163 05c4 00000000 		.4byte	0
 19164              	.LLST92:
 19165 05c8 94040000 		.4byte	.LVL417
 19166 05cc 98040000 		.4byte	.LVL418
 19167 05d0 0200     		.2byte	0x2
 19168 05d2 30       		.byte	0x30
 19169 05d3 9F       		.byte	0x9f
 19170 05d4 00000000 		.4byte	0
 19171 05d8 00000000 		.4byte	0
 19172              	.LLST56:
 19173 05dc 0E000000 		.4byte	.LVL277
 19174 05e0 2A000000 		.4byte	.LVL280
ARM GAS  /tmp/ccETYwEL.s 			page 339


 19175 05e4 0100     		.2byte	0x1
 19176 05e6 54       		.byte	0x54
 19177 05e7 2A000000 		.4byte	.LVL280
 19178 05eb 2C000000 		.4byte	.LVL281
 19179 05ef 0200     		.2byte	0x2
 19180 05f1 31       		.byte	0x31
 19181 05f2 9F       		.byte	0x9f
 19182 05f3 30000000 		.4byte	.LVL282
 19183 05f7 4C000000 		.4byte	.LVL285
 19184 05fb 0100     		.2byte	0x1
 19185 05fd 54       		.byte	0x54
 19186 05fe 4C000000 		.4byte	.LVL285
 19187 0602 50000000 		.4byte	.LVL286
 19188 0606 0200     		.2byte	0x2
 19189 0608 31       		.byte	0x31
 19190 0609 9F       		.byte	0x9f
 19191 060a 5C000000 		.4byte	.LVL288
 19192 060e 5E000000 		.4byte	.LVL289
 19193 0612 0400     		.2byte	0x4
 19194 0614 0A       		.byte	0xa
 19195 0615 F401     		.2byte	0x1f4
 19196 0617 9F       		.byte	0x9f
 19197 0618 5E000000 		.4byte	.LVL289
 19198 061c 74000000 		.4byte	.LFE306
 19199 0620 0100     		.2byte	0x1
 19200 0622 54       		.byte	0x54
 19201 0623 00000000 		.4byte	0
 19202 0627 00000000 		.4byte	0
 19203              	.LLST53:
 19204 062b 00000000 		.4byte	.LVL271
 19205 062f 34000000 		.4byte	.LVL274
 19206 0633 0100     		.2byte	0x1
 19207 0635 50       		.byte	0x50
 19208 0636 34000000 		.4byte	.LVL274
 19209 063a 50000000 		.4byte	.LFE303
 19210 063e 0400     		.2byte	0x4
 19211 0640 F3       		.byte	0xf3
 19212 0641 01       		.uleb128 0x1
 19213 0642 50       		.byte	0x50
 19214 0643 9F       		.byte	0x9f
 19215 0644 00000000 		.4byte	0
 19216 0648 00000000 		.4byte	0
 19217              	.LLST54:
 19218 064c 00000000 		.4byte	.LVL271
 19219 0650 0A000000 		.4byte	.LVL272
 19220 0654 0100     		.2byte	0x1
 19221 0656 51       		.byte	0x51
 19222 0657 0A000000 		.4byte	.LVL272
 19223 065b 32000000 		.4byte	.LVL273
 19224 065f 0100     		.2byte	0x1
 19225 0661 51       		.byte	0x51
 19226 0662 00000000 		.4byte	0
 19227 0666 00000000 		.4byte	0
 19228              	.LLST55:
 19229 066a 00000000 		.4byte	.LVL271
 19230 066e 37000000 		.4byte	.LVL275-1
 19231 0672 0100     		.2byte	0x1
ARM GAS  /tmp/ccETYwEL.s 			page 340


 19232 0674 52       		.byte	0x52
 19233 0675 37000000 		.4byte	.LVL275-1
 19234 0679 50000000 		.4byte	.LFE303
 19235 067d 0400     		.2byte	0x4
 19236 067f F3       		.byte	0xf3
 19237 0680 01       		.uleb128 0x1
 19238 0681 52       		.byte	0x52
 19239 0682 9F       		.byte	0x9f
 19240 0683 00000000 		.4byte	0
 19241 0687 00000000 		.4byte	0
 19242              	.LLST52:
 19243 068b 1C000000 		.4byte	.LVL266
 19244 068f 22000000 		.4byte	.LVL267
 19245 0693 0200     		.2byte	0x2
 19246 0695 90       		.byte	0x90
 19247 0696 40       		.uleb128 0x40
 19248 0697 22000000 		.4byte	.LVL267
 19249 069b 30000000 		.4byte	.LFE299
 19250 069f 0800     		.2byte	0x8
 19251 06a1 F5       		.byte	0xf5
 19252 06a2 4E       		.uleb128 0x4e
 19253 06a3 25       		.uleb128 0x25
 19254 06a4 F5       		.byte	0xf5
 19255 06a5 4F       		.uleb128 0x4f
 19256 06a6 25       		.uleb128 0x25
 19257 06a7 1B       		.byte	0x1b
 19258 06a8 9F       		.byte	0x9f
 19259 06a9 00000000 		.4byte	0
 19260 06ad 00000000 		.4byte	0
 19261              	.LLST51:
 19262 06b1 1C000000 		.4byte	.LVL264
 19263 06b5 22000000 		.4byte	.LVL265
 19264 06b9 0200     		.2byte	0x2
 19265 06bb 90       		.byte	0x90
 19266 06bc 40       		.uleb128 0x40
 19267 06bd 22000000 		.4byte	.LVL265
 19268 06c1 30000000 		.4byte	.LFE298
 19269 06c5 0800     		.2byte	0x8
 19270 06c7 F5       		.byte	0xf5
 19271 06c8 4E       		.uleb128 0x4e
 19272 06c9 25       		.uleb128 0x25
 19273 06ca F5       		.byte	0xf5
 19274 06cb 4F       		.uleb128 0x4f
 19275 06cc 25       		.uleb128 0x25
 19276 06cd 1B       		.byte	0x1b
 19277 06ce 9F       		.byte	0x9f
 19278 06cf 00000000 		.4byte	0
 19279 06d3 00000000 		.4byte	0
 19280              	.LLST50:
 19281 06d7 0C000000 		.4byte	.LVL262
 19282 06db 14000000 		.4byte	.LVL263
 19283 06df 0800     		.2byte	0x8
 19284 06e1 F5       		.byte	0xf5
 19285 06e2 40       		.uleb128 0x40
 19286 06e3 25       		.uleb128 0x25
 19287 06e4 F5       		.byte	0xf5
 19288 06e5 4F       		.uleb128 0x4f
ARM GAS  /tmp/ccETYwEL.s 			page 341


 19289 06e6 25       		.uleb128 0x25
 19290 06e7 1B       		.byte	0x1b
 19291 06e8 9F       		.byte	0x9f
 19292 06e9 14000000 		.4byte	.LVL263
 19293 06ed 20000000 		.4byte	.LFE297
 19294 06f1 0200     		.2byte	0x2
 19295 06f3 90       		.byte	0x90
 19296 06f4 40       		.uleb128 0x40
 19297 06f5 00000000 		.4byte	0
 19298 06f9 00000000 		.4byte	0
 19299              	.LLST49:
 19300 06fd 0C000000 		.4byte	.LVL260
 19301 0701 14000000 		.4byte	.LVL261
 19302 0705 0800     		.2byte	0x8
 19303 0707 F5       		.byte	0xf5
 19304 0708 40       		.uleb128 0x40
 19305 0709 25       		.uleb128 0x25
 19306 070a F5       		.byte	0xf5
 19307 070b 4F       		.uleb128 0x4f
 19308 070c 25       		.uleb128 0x25
 19309 070d 1B       		.byte	0x1b
 19310 070e 9F       		.byte	0x9f
 19311 070f 14000000 		.4byte	.LVL261
 19312 0713 20000000 		.4byte	.LFE296
 19313 0717 0200     		.2byte	0x2
 19314 0719 90       		.byte	0x90
 19315 071a 40       		.uleb128 0x40
 19316 071b 00000000 		.4byte	0
 19317 071f 00000000 		.4byte	0
 19318              	.LLST48:
 19319 0723 00000000 		.4byte	.LVL252
 19320 0727 11000000 		.4byte	.LVL253-1
 19321 072b 0100     		.2byte	0x1
 19322 072d 50       		.byte	0x50
 19323 072e 11000000 		.4byte	.LVL253-1
 19324 0732 12000000 		.4byte	.LVL253
 19325 0736 0400     		.2byte	0x4
 19326 0738 F3       		.byte	0xf3
 19327 0739 01       		.uleb128 0x1
 19328 073a 50       		.byte	0x50
 19329 073b 9F       		.byte	0x9f
 19330 073c 12000000 		.4byte	.LVL253
 19331 0740 14000000 		.4byte	.LVL254
 19332 0744 0100     		.2byte	0x1
 19333 0746 50       		.byte	0x50
 19334 0747 14000000 		.4byte	.LVL254
 19335 074b 16000000 		.4byte	.LVL255
 19336 074f 0400     		.2byte	0x4
 19337 0751 F3       		.byte	0xf3
 19338 0752 01       		.uleb128 0x1
 19339 0753 50       		.byte	0x50
 19340 0754 9F       		.byte	0x9f
 19341 0755 16000000 		.4byte	.LVL255
 19342 0759 19000000 		.4byte	.LVL256-1
 19343 075d 0100     		.2byte	0x1
 19344 075f 50       		.byte	0x50
 19345 0760 19000000 		.4byte	.LVL256-1
ARM GAS  /tmp/ccETYwEL.s 			page 342


 19346 0764 20000000 		.4byte	.LFE294
 19347 0768 0400     		.2byte	0x4
 19348 076a F3       		.byte	0xf3
 19349 076b 01       		.uleb128 0x1
 19350 076c 50       		.byte	0x50
 19351 076d 9F       		.byte	0x9f
 19352 076e 00000000 		.4byte	0
 19353 0772 00000000 		.4byte	0
 19354              	.LLST14:
 19355 0776 00000000 		.4byte	.LVL105
 19356 077a 14000000 		.4byte	.LVL106
 19357 077e 0100     		.2byte	0x1
 19358 0780 50       		.byte	0x50
 19359 0781 14000000 		.4byte	.LVL106
 19360 0785 28000000 		.4byte	.LVL107
 19361 0789 0400     		.2byte	0x4
 19362 078b F3       		.byte	0xf3
 19363 078c 01       		.uleb128 0x1
 19364 078d 50       		.byte	0x50
 19365 078e 9F       		.byte	0x9f
 19366 078f 28000000 		.4byte	.LVL107
 19367 0793 2B000000 		.4byte	.LVL108-1
 19368 0797 0100     		.2byte	0x1
 19369 0799 50       		.byte	0x50
 19370 079a 2B000000 		.4byte	.LVL108-1
 19371 079e 36000000 		.4byte	.LVL109
 19372 07a2 0400     		.2byte	0x4
 19373 07a4 F3       		.byte	0xf3
 19374 07a5 01       		.uleb128 0x1
 19375 07a6 50       		.byte	0x50
 19376 07a7 9F       		.byte	0x9f
 19377 07a8 36000000 		.4byte	.LVL109
 19378 07ac 39000000 		.4byte	.LVL110-1
 19379 07b0 0100     		.2byte	0x1
 19380 07b2 50       		.byte	0x50
 19381 07b3 39000000 		.4byte	.LVL110-1
 19382 07b7 4C000000 		.4byte	.LFE293
 19383 07bb 0400     		.2byte	0x4
 19384 07bd F3       		.byte	0xf3
 19385 07be 01       		.uleb128 0x1
 19386 07bf 50       		.byte	0x50
 19387 07c0 9F       		.byte	0x9f
 19388 07c1 00000000 		.4byte	0
 19389 07c5 00000000 		.4byte	0
 19390              	.LLST15:
 19391 07c9 00000000 		.4byte	.LVL105
 19392 07cd 14000000 		.4byte	.LVL106
 19393 07d1 0200     		.2byte	0x2
 19394 07d3 30       		.byte	0x30
 19395 07d4 9F       		.byte	0x9f
 19396 07d5 28000000 		.4byte	.LVL107
 19397 07d9 2C000000 		.4byte	.LVL108
 19398 07dd 0200     		.2byte	0x2
 19399 07df 30       		.byte	0x30
 19400 07e0 9F       		.byte	0x9f
 19401 07e1 2C000000 		.4byte	.LVL108
 19402 07e5 36000000 		.4byte	.LVL109
ARM GAS  /tmp/ccETYwEL.s 			page 343


 19403 07e9 0100     		.2byte	0x1
 19404 07eb 50       		.byte	0x50
 19405 07ec 36000000 		.4byte	.LVL109
 19406 07f0 3A000000 		.4byte	.LVL110
 19407 07f4 0200     		.2byte	0x2
 19408 07f6 30       		.byte	0x30
 19409 07f7 9F       		.byte	0x9f
 19410 07f8 3A000000 		.4byte	.LVL110
 19411 07fc 4C000000 		.4byte	.LFE293
 19412 0800 0100     		.2byte	0x1
 19413 0802 50       		.byte	0x50
 19414 0803 00000000 		.4byte	0
 19415 0807 00000000 		.4byte	0
 19416              	.LLST13:
 19417 080b 00000000 		.4byte	.LVL92
 19418 080f 14000000 		.4byte	.LVL93
 19419 0813 0600     		.2byte	0x6
 19420 0815 9E       		.byte	0x9e
 19421 0816 04       		.uleb128 0x4
 19422 0817 00000000 		.4byte	0
 19423 081b 14000000 		.4byte	.LVL93
 19424 081f 20000000 		.4byte	.LVL94
 19425 0823 0200     		.2byte	0x2
 19426 0825 90       		.byte	0x90
 19427 0826 40       		.uleb128 0x40
 19428 0827 22000000 		.4byte	.LVL95
 19429 082b 26000000 		.4byte	.LVL96
 19430 082f 0600     		.2byte	0x6
 19431 0831 9E       		.byte	0x9e
 19432 0832 04       		.uleb128 0x4
 19433 0833 00000000 		.4byte	0
 19434 0837 26000000 		.4byte	.LVL96
 19435 083b 28000000 		.4byte	.LVL97
 19436 083f 0200     		.2byte	0x2
 19437 0841 90       		.byte	0x90
 19438 0842 40       		.uleb128 0x40
 19439 0843 28000000 		.4byte	.LVL97
 19440 0847 2C000000 		.4byte	.LVL98
 19441 084b 0600     		.2byte	0x6
 19442 084d 9E       		.byte	0x9e
 19443 084e 04       		.uleb128 0x4
 19444 084f 00000000 		.4byte	0
 19445 0853 2C000000 		.4byte	.LVL98
 19446 0857 38000000 		.4byte	.LFE290
 19447 085b 0200     		.2byte	0x2
 19448 085d 90       		.byte	0x90
 19449 085e 40       		.uleb128 0x40
 19450 085f 00000000 		.4byte	0
 19451 0863 00000000 		.4byte	0
 19452              	.LLST12:
 19453 0867 00000000 		.4byte	.LVL85
 19454 086b 14000000 		.4byte	.LVL86
 19455 086f 0600     		.2byte	0x6
 19456 0871 9E       		.byte	0x9e
 19457 0872 04       		.uleb128 0x4
 19458 0873 00000000 		.4byte	0
 19459 0877 14000000 		.4byte	.LVL86
ARM GAS  /tmp/ccETYwEL.s 			page 344


 19460 087b 20000000 		.4byte	.LVL87
 19461 087f 0200     		.2byte	0x2
 19462 0881 90       		.byte	0x90
 19463 0882 40       		.uleb128 0x40
 19464 0883 22000000 		.4byte	.LVL88
 19465 0887 26000000 		.4byte	.LVL89
 19466 088b 0600     		.2byte	0x6
 19467 088d 9E       		.byte	0x9e
 19468 088e 04       		.uleb128 0x4
 19469 088f 00000000 		.4byte	0
 19470 0893 26000000 		.4byte	.LVL89
 19471 0897 28000000 		.4byte	.LVL90
 19472 089b 0200     		.2byte	0x2
 19473 089d 90       		.byte	0x90
 19474 089e 40       		.uleb128 0x40
 19475 089f 28000000 		.4byte	.LVL90
 19476 08a3 2C000000 		.4byte	.LVL91
 19477 08a7 0600     		.2byte	0x6
 19478 08a9 9E       		.byte	0x9e
 19479 08aa 04       		.uleb128 0x4
 19480 08ab 00000000 		.4byte	0
 19481 08af 2C000000 		.4byte	.LVL91
 19482 08b3 38000000 		.4byte	.LFE289
 19483 08b7 0200     		.2byte	0x2
 19484 08b9 90       		.byte	0x90
 19485 08ba 40       		.uleb128 0x40
 19486 08bb 00000000 		.4byte	0
 19487 08bf 00000000 		.4byte	0
 19488              	.LLST11:
 19489 08c3 00000000 		.4byte	.LVL64
 19490 08c7 14000000 		.4byte	.LVL65
 19491 08cb 0600     		.2byte	0x6
 19492 08cd 9E       		.byte	0x9e
 19493 08ce 04       		.uleb128 0x4
 19494 08cf 00000000 		.4byte	0
 19495 08d3 14000000 		.4byte	.LVL65
 19496 08d7 20000000 		.4byte	.LVL66
 19497 08db 0200     		.2byte	0x2
 19498 08dd 90       		.byte	0x90
 19499 08de 40       		.uleb128 0x40
 19500 08df 22000000 		.4byte	.LVL67
 19501 08e3 26000000 		.4byte	.LVL68
 19502 08e7 0600     		.2byte	0x6
 19503 08e9 9E       		.byte	0x9e
 19504 08ea 04       		.uleb128 0x4
 19505 08eb 00000000 		.4byte	0
 19506 08ef 26000000 		.4byte	.LVL68
 19507 08f3 28000000 		.4byte	.LVL69
 19508 08f7 0200     		.2byte	0x2
 19509 08f9 90       		.byte	0x90
 19510 08fa 40       		.uleb128 0x40
 19511 08fb 28000000 		.4byte	.LVL69
 19512 08ff 2C000000 		.4byte	.LVL70
 19513 0903 0600     		.2byte	0x6
 19514 0905 9E       		.byte	0x9e
 19515 0906 04       		.uleb128 0x4
 19516 0907 00000000 		.4byte	0
ARM GAS  /tmp/ccETYwEL.s 			page 345


 19517 090b 2C000000 		.4byte	.LVL70
 19518 090f 38000000 		.4byte	.LFE282
 19519 0913 0200     		.2byte	0x2
 19520 0915 90       		.byte	0x90
 19521 0916 40       		.uleb128 0x40
 19522 0917 00000000 		.4byte	0
 19523 091b 00000000 		.4byte	0
 19524              	.LLST10:
 19525 091f 00000000 		.4byte	.LVL54
 19526 0923 14000000 		.4byte	.LVL55
 19527 0927 0600     		.2byte	0x6
 19528 0929 9E       		.byte	0x9e
 19529 092a 04       		.uleb128 0x4
 19530 092b 00000000 		.4byte	0
 19531 092f 14000000 		.4byte	.LVL55
 19532 0933 20000000 		.4byte	.LVL56
 19533 0937 0200     		.2byte	0x2
 19534 0939 90       		.byte	0x90
 19535 093a 40       		.uleb128 0x40
 19536 093b 22000000 		.4byte	.LVL57
 19537 093f 26000000 		.4byte	.LVL58
 19538 0943 0600     		.2byte	0x6
 19539 0945 9E       		.byte	0x9e
 19540 0946 04       		.uleb128 0x4
 19541 0947 00000000 		.4byte	0
 19542 094b 26000000 		.4byte	.LVL58
 19543 094f 28000000 		.4byte	.LVL59
 19544 0953 0200     		.2byte	0x2
 19545 0955 90       		.byte	0x90
 19546 0956 40       		.uleb128 0x40
 19547 0957 28000000 		.4byte	.LVL59
 19548 095b 2C000000 		.4byte	.LVL60
 19549 095f 0600     		.2byte	0x6
 19550 0961 9E       		.byte	0x9e
 19551 0962 04       		.uleb128 0x4
 19552 0963 00000000 		.4byte	0
 19553 0967 2C000000 		.4byte	.LVL60
 19554 096b 38000000 		.4byte	.LFE280
 19555 096f 0200     		.2byte	0x2
 19556 0971 90       		.byte	0x90
 19557 0972 40       		.uleb128 0x40
 19558 0973 00000000 		.4byte	0
 19559 0977 00000000 		.4byte	0
 19560              	.LLST9:
 19561 097b 00000000 		.4byte	.LVL47
 19562 097f 14000000 		.4byte	.LVL48
 19563 0983 0600     		.2byte	0x6
 19564 0985 9E       		.byte	0x9e
 19565 0986 04       		.uleb128 0x4
 19566 0987 00000000 		.4byte	0
 19567 098b 14000000 		.4byte	.LVL48
 19568 098f 20000000 		.4byte	.LVL49
 19569 0993 0200     		.2byte	0x2
 19570 0995 90       		.byte	0x90
 19571 0996 40       		.uleb128 0x40
 19572 0997 22000000 		.4byte	.LVL50
 19573 099b 26000000 		.4byte	.LVL51
ARM GAS  /tmp/ccETYwEL.s 			page 346


 19574 099f 0600     		.2byte	0x6
 19575 09a1 9E       		.byte	0x9e
 19576 09a2 04       		.uleb128 0x4
 19577 09a3 00000000 		.4byte	0
 19578 09a7 26000000 		.4byte	.LVL51
 19579 09ab 28000000 		.4byte	.LVL52
 19580 09af 0200     		.2byte	0x2
 19581 09b1 90       		.byte	0x90
 19582 09b2 40       		.uleb128 0x40
 19583 09b3 28000000 		.4byte	.LVL52
 19584 09b7 2C000000 		.4byte	.LVL53
 19585 09bb 0600     		.2byte	0x6
 19586 09bd 9E       		.byte	0x9e
 19587 09be 04       		.uleb128 0x4
 19588 09bf 00000000 		.4byte	0
 19589 09c3 2C000000 		.4byte	.LVL53
 19590 09c7 38000000 		.4byte	.LFE279
 19591 09cb 0200     		.2byte	0x2
 19592 09cd 90       		.byte	0x90
 19593 09ce 40       		.uleb128 0x40
 19594 09cf 00000000 		.4byte	0
 19595 09d3 00000000 		.4byte	0
 19596              	.LLST69:
 19597 09d7 00000000 		.4byte	.LVL350
 19598 09db 13000000 		.4byte	.LVL352-1
 19599 09df 0200     		.2byte	0x2
 19600 09e1 90       		.byte	0x90
 19601 09e2 40       		.uleb128 0x40
 19602 09e3 13000000 		.4byte	.LVL352-1
 19603 09e7 34000000 		.4byte	.LFE276
 19604 09eb 0200     		.2byte	0x2
 19605 09ed 90       		.byte	0x90
 19606 09ee 51       		.uleb128 0x51
 19607 09ef 00000000 		.4byte	0
 19608 09f3 00000000 		.4byte	0
 19609              	.LLST70:
 19610 09f7 10000000 		.4byte	.LVL351
 19611 09fb 13000000 		.4byte	.LVL352-1
 19612 09ff 0900     		.2byte	0x9
 19613 0a01 F5       		.byte	0xf5
 19614 0a02 50       		.uleb128 0x50
 19615 0a03 25       		.uleb128 0x25
 19616 0a04 19       		.byte	0x19
 19617 0a05 F5       		.byte	0xf5
 19618 0a06 40       		.uleb128 0x40
 19619 0a07 25       		.uleb128 0x25
 19620 0a08 1E       		.byte	0x1e
 19621 0a09 9F       		.byte	0x9f
 19622 0a0a 13000000 		.4byte	.LVL352-1
 19623 0a0e 1A000000 		.4byte	.LVL353
 19624 0a12 0900     		.2byte	0x9
 19625 0a14 F5       		.byte	0xf5
 19626 0a15 50       		.uleb128 0x50
 19627 0a16 25       		.uleb128 0x25
 19628 0a17 19       		.byte	0x19
 19629 0a18 F5       		.byte	0xf5
 19630 0a19 51       		.uleb128 0x51
ARM GAS  /tmp/ccETYwEL.s 			page 347


 19631 0a1a 25       		.uleb128 0x25
 19632 0a1b 1E       		.byte	0x1e
 19633 0a1c 9F       		.byte	0x9f
 19634 0a1d 1C000000 		.4byte	.LVL354
 19635 0a21 28000000 		.4byte	.LVL355
 19636 0a25 0900     		.2byte	0x9
 19637 0a27 F5       		.byte	0xf5
 19638 0a28 50       		.uleb128 0x50
 19639 0a29 25       		.uleb128 0x25
 19640 0a2a 19       		.byte	0x19
 19641 0a2b F5       		.byte	0xf5
 19642 0a2c 51       		.uleb128 0x51
 19643 0a2d 25       		.uleb128 0x25
 19644 0a2e 1E       		.byte	0x1e
 19645 0a2f 9F       		.byte	0x9f
 19646 0a30 00000000 		.4byte	0
 19647 0a34 00000000 		.4byte	0
 19648              	.LLST67:
 19649 0a38 00000000 		.4byte	.LVL342
 19650 0a3c 0A000000 		.4byte	.LVL343
 19651 0a40 0200     		.2byte	0x2
 19652 0a42 90       		.byte	0x90
 19653 0a43 40       		.uleb128 0x40
 19654 0a44 0A000000 		.4byte	.LVL343
 19655 0a48 14000000 		.4byte	.LFE274
 19656 0a4c 0600     		.2byte	0x6
 19657 0a4e F3       		.byte	0xf3
 19658 0a4f 03       		.uleb128 0x3
 19659 0a50 F5       		.byte	0xf5
 19660 0a51 40       		.uleb128 0x40
 19661 0a52 25       		.uleb128 0x25
 19662 0a53 9F       		.byte	0x9f
 19663 0a54 00000000 		.4byte	0
 19664 0a58 00000000 		.4byte	0
 19665              	.LLST64:
 19666 0a5c 00000000 		.4byte	.LVL328
 19667 0a60 14000000 		.4byte	.LVL329
 19668 0a64 0200     		.2byte	0x2
 19669 0a66 90       		.byte	0x90
 19670 0a67 40       		.uleb128 0x40
 19671 0a68 14000000 		.4byte	.LVL329
 19672 0a6c 18000000 		.4byte	.LVL330
 19673 0a70 0600     		.2byte	0x6
 19674 0a72 F3       		.byte	0xf3
 19675 0a73 03       		.uleb128 0x3
 19676 0a74 F5       		.byte	0xf5
 19677 0a75 40       		.uleb128 0x40
 19678 0a76 25       		.uleb128 0x25
 19679 0a77 9F       		.byte	0x9f
 19680 0a78 18000000 		.4byte	.LVL330
 19681 0a7c 24000000 		.4byte	.LVL331
 19682 0a80 0200     		.2byte	0x2
 19683 0a82 90       		.byte	0x90
 19684 0a83 40       		.uleb128 0x40
 19685 0a84 24000000 		.4byte	.LVL331
 19686 0a88 2C000000 		.4byte	.LFE273
 19687 0a8c 0600     		.2byte	0x6
ARM GAS  /tmp/ccETYwEL.s 			page 348


 19688 0a8e F3       		.byte	0xf3
 19689 0a8f 03       		.uleb128 0x3
 19690 0a90 F5       		.byte	0xf5
 19691 0a91 40       		.uleb128 0x40
 19692 0a92 25       		.uleb128 0x25
 19693 0a93 9F       		.byte	0x9f
 19694 0a94 00000000 		.4byte	0
 19695 0a98 00000000 		.4byte	0
 19696              	.LLST61:
 19697 0a9c 00000000 		.4byte	.LVL315
 19698 0aa0 0B000000 		.4byte	.LVL316-1
 19699 0aa4 0200     		.2byte	0x2
 19700 0aa6 90       		.byte	0x90
 19701 0aa7 40       		.uleb128 0x40
 19702 0aa8 00000000 		.4byte	0
 19703 0aac 00000000 		.4byte	0
 19704              	.LLST60:
 19705 0ab0 00000000 		.4byte	.LVL307
 19706 0ab4 0D000000 		.4byte	.LVL308-1
 19707 0ab8 0200     		.2byte	0x2
 19708 0aba 90       		.byte	0x90
 19709 0abb 40       		.uleb128 0x40
 19710 0abc 0D000000 		.4byte	.LVL308-1
 19711 0ac0 28000000 		.4byte	.LVL309
 19712 0ac4 0200     		.2byte	0x2
 19713 0ac6 90       		.byte	0x90
 19714 0ac7 50       		.uleb128 0x50
 19715 0ac8 28000000 		.4byte	.LVL309
 19716 0acc 38000000 		.4byte	.LVL310
 19717 0ad0 0600     		.2byte	0x6
 19718 0ad2 F3       		.byte	0xf3
 19719 0ad3 03       		.uleb128 0x3
 19720 0ad4 F5       		.byte	0xf5
 19721 0ad5 40       		.uleb128 0x40
 19722 0ad6 25       		.uleb128 0x25
 19723 0ad7 9F       		.byte	0x9f
 19724 0ad8 38000000 		.4byte	.LVL310
 19725 0adc 3C000000 		.4byte	.LVL311
 19726 0ae0 0200     		.2byte	0x2
 19727 0ae2 90       		.byte	0x90
 19728 0ae3 50       		.uleb128 0x50
 19729 0ae4 3C000000 		.4byte	.LVL311
 19730 0ae8 3E000000 		.4byte	.LVL312
 19731 0aec 0600     		.2byte	0x6
 19732 0aee F3       		.byte	0xf3
 19733 0aef 03       		.uleb128 0x3
 19734 0af0 F5       		.byte	0xf5
 19735 0af1 40       		.uleb128 0x40
 19736 0af2 25       		.uleb128 0x25
 19737 0af3 9F       		.byte	0x9f
 19738 0af4 3E000000 		.4byte	.LVL312
 19739 0af8 48000000 		.4byte	.LVL313
 19740 0afc 0200     		.2byte	0x2
 19741 0afe 90       		.byte	0x90
 19742 0aff 50       		.uleb128 0x50
 19743 0b00 48000000 		.4byte	.LVL313
 19744 0b04 5C000000 		.4byte	.LFE269
ARM GAS  /tmp/ccETYwEL.s 			page 349


 19745 0b08 0600     		.2byte	0x6
 19746 0b0a F3       		.byte	0xf3
 19747 0b0b 03       		.uleb128 0x3
 19748 0b0c F5       		.byte	0xf5
 19749 0b0d 40       		.uleb128 0x40
 19750 0b0e 25       		.uleb128 0x25
 19751 0b0f 9F       		.byte	0x9f
 19752 0b10 00000000 		.4byte	0
 19753 0b14 00000000 		.4byte	0
 19754              	.LLST59:
 19755 0b18 00000000 		.4byte	.LVL299
 19756 0b1c 0D000000 		.4byte	.LVL300-1
 19757 0b20 0200     		.2byte	0x2
 19758 0b22 90       		.byte	0x90
 19759 0b23 40       		.uleb128 0x40
 19760 0b24 0D000000 		.4byte	.LVL300-1
 19761 0b28 28000000 		.4byte	.LVL301
 19762 0b2c 0200     		.2byte	0x2
 19763 0b2e 90       		.byte	0x90
 19764 0b2f 50       		.uleb128 0x50
 19765 0b30 28000000 		.4byte	.LVL301
 19766 0b34 38000000 		.4byte	.LVL302
 19767 0b38 0600     		.2byte	0x6
 19768 0b3a F3       		.byte	0xf3
 19769 0b3b 03       		.uleb128 0x3
 19770 0b3c F5       		.byte	0xf5
 19771 0b3d 40       		.uleb128 0x40
 19772 0b3e 25       		.uleb128 0x25
 19773 0b3f 9F       		.byte	0x9f
 19774 0b40 38000000 		.4byte	.LVL302
 19775 0b44 3C000000 		.4byte	.LVL303
 19776 0b48 0200     		.2byte	0x2
 19777 0b4a 90       		.byte	0x90
 19778 0b4b 50       		.uleb128 0x50
 19779 0b4c 3C000000 		.4byte	.LVL303
 19780 0b50 3E000000 		.4byte	.LVL304
 19781 0b54 0600     		.2byte	0x6
 19782 0b56 F3       		.byte	0xf3
 19783 0b57 03       		.uleb128 0x3
 19784 0b58 F5       		.byte	0xf5
 19785 0b59 40       		.uleb128 0x40
 19786 0b5a 25       		.uleb128 0x25
 19787 0b5b 9F       		.byte	0x9f
 19788 0b5c 3E000000 		.4byte	.LVL304
 19789 0b60 48000000 		.4byte	.LVL305
 19790 0b64 0200     		.2byte	0x2
 19791 0b66 90       		.byte	0x90
 19792 0b67 50       		.uleb128 0x50
 19793 0b68 48000000 		.4byte	.LVL305
 19794 0b6c 5C000000 		.4byte	.LFE268
 19795 0b70 0600     		.2byte	0x6
 19796 0b72 F3       		.byte	0xf3
 19797 0b73 03       		.uleb128 0x3
 19798 0b74 F5       		.byte	0xf5
 19799 0b75 40       		.uleb128 0x40
 19800 0b76 25       		.uleb128 0x25
 19801 0b77 9F       		.byte	0x9f
ARM GAS  /tmp/ccETYwEL.s 			page 350


 19802 0b78 00000000 		.4byte	0
 19803 0b7c 00000000 		.4byte	0
 19804              	.LLST8:
 19805 0b80 00000000 		.4byte	.LVL42
 19806 0b84 0A000000 		.4byte	.LVL43
 19807 0b88 0100     		.2byte	0x1
 19808 0b8a 50       		.byte	0x50
 19809 0b8b 0A000000 		.4byte	.LVL43
 19810 0b8f 18000000 		.4byte	.LFE265
 19811 0b93 0400     		.2byte	0x4
 19812 0b95 F3       		.byte	0xf3
 19813 0b96 01       		.uleb128 0x1
 19814 0b97 50       		.byte	0x50
 19815 0b98 9F       		.byte	0x9f
 19816 0b99 00000000 		.4byte	0
 19817 0b9d 00000000 		.4byte	0
 19818              	.LLST46:
 19819 0ba1 00000000 		.4byte	.LVL227
 19820 0ba5 12000000 		.4byte	.LVL228
 19821 0ba9 0100     		.2byte	0x1
 19822 0bab 50       		.byte	0x50
 19823 0bac 12000000 		.4byte	.LVL228
 19824 0bb0 4A000000 		.4byte	.LVL231
 19825 0bb4 0100     		.2byte	0x1
 19826 0bb6 54       		.byte	0x54
 19827 0bb7 4A000000 		.4byte	.LVL231
 19828 0bbb 4E000000 		.4byte	.LVL232
 19829 0bbf 0400     		.2byte	0x4
 19830 0bc1 F3       		.byte	0xf3
 19831 0bc2 01       		.uleb128 0x1
 19832 0bc3 50       		.byte	0x50
 19833 0bc4 9F       		.byte	0x9f
 19834 0bc5 4E000000 		.4byte	.LVL232
 19835 0bc9 50000000 		.4byte	.LVL233
 19836 0bcd 0100     		.2byte	0x1
 19837 0bcf 54       		.byte	0x54
 19838 0bd0 50000000 		.4byte	.LVL233
 19839 0bd4 53000000 		.4byte	.LVL234-1
 19840 0bd8 0100     		.2byte	0x1
 19841 0bda 50       		.byte	0x50
 19842 0bdb 53000000 		.4byte	.LVL234-1
 19843 0bdf AE000000 		.4byte	.LVL241
 19844 0be3 0100     		.2byte	0x1
 19845 0be5 54       		.byte	0x54
 19846 0be6 AE000000 		.4byte	.LVL241
 19847 0bea B2000000 		.4byte	.LVL242
 19848 0bee 0400     		.2byte	0x4
 19849 0bf0 F3       		.byte	0xf3
 19850 0bf1 01       		.uleb128 0x1
 19851 0bf2 50       		.byte	0x50
 19852 0bf3 9F       		.byte	0x9f
 19853 0bf4 B2000000 		.4byte	.LVL242
 19854 0bf8 DC000000 		.4byte	.LFE258
 19855 0bfc 0100     		.2byte	0x1
 19856 0bfe 54       		.byte	0x54
 19857 0bff 00000000 		.4byte	0
 19858 0c03 00000000 		.4byte	0
ARM GAS  /tmp/ccETYwEL.s 			page 351


 19859              	.LLST7:
 19860 0c07 00000000 		.4byte	.LVL29
 19861 0c0b 12000000 		.4byte	.LVL30
 19862 0c0f 0100     		.2byte	0x1
 19863 0c11 50       		.byte	0x50
 19864 0c12 12000000 		.4byte	.LVL30
 19865 0c16 15000000 		.4byte	.LVL31-1
 19866 0c1a 0100     		.2byte	0x1
 19867 0c1c 51       		.byte	0x51
 19868 0c1d 15000000 		.4byte	.LVL31-1
 19869 0c21 78010000 		.4byte	.LFE256
 19870 0c25 0400     		.2byte	0x4
 19871 0c27 F3       		.byte	0xf3
 19872 0c28 01       		.uleb128 0x1
 19873 0c29 50       		.byte	0x50
 19874 0c2a 9F       		.byte	0x9f
 19875 0c2b 00000000 		.4byte	0
 19876 0c2f 00000000 		.4byte	0
 19877              	.LLST6:
 19878 0c33 00000000 		.4byte	.LVL26
 19879 0c37 11000000 		.4byte	.LVL27-1
 19880 0c3b 0200     		.2byte	0x2
 19881 0c3d 90       		.byte	0x90
 19882 0c3e 40       		.uleb128 0x40
 19883 0c3f 11000000 		.4byte	.LVL27-1
 19884 0c43 12000000 		.4byte	.LVL27
 19885 0c47 0600     		.2byte	0x6
 19886 0c49 F3       		.byte	0xf3
 19887 0c4a 03       		.uleb128 0x3
 19888 0c4b F5       		.byte	0xf5
 19889 0c4c 40       		.uleb128 0x40
 19890 0c4d 25       		.uleb128 0x25
 19891 0c4e 9F       		.byte	0x9f
 19892 0c4f 12000000 		.4byte	.LVL27
 19893 0c53 17000000 		.4byte	.LVL28-1
 19894 0c57 0200     		.2byte	0x2
 19895 0c59 90       		.byte	0x90
 19896 0c5a 40       		.uleb128 0x40
 19897 0c5b 17000000 		.4byte	.LVL28-1
 19898 0c5f 1C000000 		.4byte	.LFE316
 19899 0c63 0600     		.2byte	0x6
 19900 0c65 F3       		.byte	0xf3
 19901 0c66 03       		.uleb128 0x3
 19902 0c67 F5       		.byte	0xf5
 19903 0c68 40       		.uleb128 0x40
 19904 0c69 25       		.uleb128 0x25
 19905 0c6a 9F       		.byte	0x9f
 19906 0c6b 00000000 		.4byte	0
 19907 0c6f 00000000 		.4byte	0
 19908              	.LLST16:
 19909 0c73 00000000 		.4byte	.LVL111
 19910 0c77 09000000 		.4byte	.LVL112-1
 19911 0c7b 0100     		.2byte	0x1
 19912 0c7d 50       		.byte	0x50
 19913 0c7e 09000000 		.4byte	.LVL112-1
 19914 0c82 40010000 		.4byte	.LFE317
 19915 0c86 0400     		.2byte	0x4
ARM GAS  /tmp/ccETYwEL.s 			page 352


 19916 0c88 F3       		.byte	0xf3
 19917 0c89 01       		.uleb128 0x1
 19918 0c8a 50       		.byte	0x50
 19919 0c8b 9F       		.byte	0x9f
 19920 0c8c 00000000 		.4byte	0
 19921 0c90 00000000 		.4byte	0
 19922              	.LLST17:
 19923 0c94 3C000000 		.4byte	.LVL126
 19924 0c98 12030000 		.4byte	.LVL179
 19925 0c9c 0200     		.2byte	0x2
 19926 0c9e 90       		.byte	0x90
 19927 0c9f 50       		.uleb128 0x50
 19928 0ca0 20030000 		.4byte	.LVL180
 19929 0ca4 84050000 		.4byte	.LFE318
 19930 0ca8 0200     		.2byte	0x2
 19931 0caa 90       		.byte	0x90
 19932 0cab 50       		.uleb128 0x50
 19933 0cac 00000000 		.4byte	0
 19934 0cb0 00000000 		.4byte	0
 19935              	.LLST18:
 19936 0cb4 56000000 		.4byte	.LVL128
 19937 0cb8 5A000000 		.4byte	.LVL129
 19938 0cbc 0200     		.2byte	0x2
 19939 0cbe 90       		.byte	0x90
 19940 0cbf 40       		.uleb128 0x40
 19941 0cc0 5A000000 		.4byte	.LVL129
 19942 0cc4 3C020000 		.4byte	.LVL156
 19943 0cc8 0200     		.2byte	0x2
 19944 0cca 90       		.byte	0x90
 19945 0ccb 52       		.uleb128 0x52
 19946 0ccc 20030000 		.4byte	.LVL180
 19947 0cd0 6A030000 		.4byte	.LVL185
 19948 0cd4 0200     		.2byte	0x2
 19949 0cd6 90       		.byte	0x90
 19950 0cd7 52       		.uleb128 0x52
 19951 0cd8 6C030000 		.4byte	.LVL186
 19952 0cdc D8040000 		.4byte	.LVL204
 19953 0ce0 0200     		.2byte	0x2
 19954 0ce2 90       		.byte	0x90
 19955 0ce3 52       		.uleb128 0x52
 19956 0ce4 FC040000 		.4byte	.LVL210
 19957 0ce8 4C050000 		.4byte	.LVL219
 19958 0cec 0200     		.2byte	0x2
 19959 0cee 90       		.byte	0x90
 19960 0cef 52       		.uleb128 0x52
 19961 0cf0 4E050000 		.4byte	.LVL220
 19962 0cf4 84050000 		.4byte	.LFE318
 19963 0cf8 0200     		.2byte	0x2
 19964 0cfa 90       		.byte	0x90
 19965 0cfb 52       		.uleb128 0x52
 19966 0cfc 00000000 		.4byte	0
 19967 0d00 00000000 		.4byte	0
 19968              	.LLST19:
 19969 0d04 D8000000 		.4byte	.LVL132
 19970 0d08 02010000 		.4byte	.LVL134
 19971 0d0c 0200     		.2byte	0x2
 19972 0d0e 90       		.byte	0x90
ARM GAS  /tmp/ccETYwEL.s 			page 353


 19973 0d0f 54       		.uleb128 0x54
 19974 0d10 02010000 		.4byte	.LVL134
 19975 0d14 1C010000 		.4byte	.LVL135
 19976 0d18 0600     		.2byte	0x6
 19977 0d1a 9E       		.byte	0x9e
 19978 0d1b 04       		.uleb128 0x4
 19979 0d1c 00000000 		.4byte	0
 19980 0d20 1C010000 		.4byte	.LVL135
 19981 0d24 12030000 		.4byte	.LVL179
 19982 0d28 0200     		.2byte	0x2
 19983 0d2a 90       		.byte	0x90
 19984 0d2b 54       		.uleb128 0x54
 19985 0d2c 20030000 		.4byte	.LVL180
 19986 0d30 1C040000 		.4byte	.LVL193
 19987 0d34 0200     		.2byte	0x2
 19988 0d36 90       		.byte	0x90
 19989 0d37 54       		.uleb128 0x54
 19990 0d38 20040000 		.4byte	.LVL194
 19991 0d3c 64050000 		.4byte	.LVL223
 19992 0d40 0200     		.2byte	0x2
 19993 0d42 90       		.byte	0x90
 19994 0d43 54       		.uleb128 0x54
 19995 0d44 64050000 		.4byte	.LVL223
 19996 0d48 74050000 		.4byte	.LVL225
 19997 0d4c 0600     		.2byte	0x6
 19998 0d4e 9E       		.byte	0x9e
 19999 0d4f 04       		.uleb128 0x4
 20000 0d50 00000000 		.4byte	0
 20001 0d54 74050000 		.4byte	.LVL225
 20002 0d58 84050000 		.4byte	.LFE318
 20003 0d5c 0200     		.2byte	0x2
 20004 0d5e 90       		.byte	0x90
 20005 0d5f 54       		.uleb128 0x54
 20006 0d60 00000000 		.4byte	0
 20007 0d64 00000000 		.4byte	0
 20008              	.LLST20:
 20009 0d68 DC000000 		.4byte	.LVL133
 20010 0d6c 02010000 		.4byte	.LVL134
 20011 0d70 0200     		.2byte	0x2
 20012 0d72 90       		.byte	0x90
 20013 0d73 51       		.uleb128 0x51
 20014 0d74 02010000 		.4byte	.LVL134
 20015 0d78 1C010000 		.4byte	.LVL135
 20016 0d7c 0600     		.2byte	0x6
 20017 0d7e 9E       		.byte	0x9e
 20018 0d7f 04       		.uleb128 0x4
 20019 0d80 00000000 		.4byte	0
 20020 0d84 1C010000 		.4byte	.LVL135
 20021 0d88 60020000 		.4byte	.LVL161
 20022 0d8c 0200     		.2byte	0x2
 20023 0d8e 90       		.byte	0x90
 20024 0d8f 51       		.uleb128 0x51
 20025 0d90 20030000 		.4byte	.LVL180
 20026 0d94 46040000 		.4byte	.LVL195
 20027 0d98 0200     		.2byte	0x2
 20028 0d9a 90       		.byte	0x90
 20029 0d9b 51       		.uleb128 0x51
ARM GAS  /tmp/ccETYwEL.s 			page 354


 20030 0d9c 4C040000 		.4byte	.LVL196
 20031 0da0 D8040000 		.4byte	.LVL204
 20032 0da4 0200     		.2byte	0x2
 20033 0da6 90       		.byte	0x90
 20034 0da7 51       		.uleb128 0x51
 20035 0da8 FC040000 		.4byte	.LVL210
 20036 0dac 64050000 		.4byte	.LVL223
 20037 0db0 0200     		.2byte	0x2
 20038 0db2 90       		.byte	0x90
 20039 0db3 51       		.uleb128 0x51
 20040 0db4 64050000 		.4byte	.LVL223
 20041 0db8 74050000 		.4byte	.LVL225
 20042 0dbc 0600     		.2byte	0x6
 20043 0dbe 9E       		.byte	0x9e
 20044 0dbf 04       		.uleb128 0x4
 20045 0dc0 00000000 		.4byte	0
 20046 0dc4 74050000 		.4byte	.LVL225
 20047 0dc8 84050000 		.4byte	.LFE318
 20048 0dcc 0200     		.2byte	0x2
 20049 0dce 90       		.byte	0x90
 20050 0dcf 51       		.uleb128 0x51
 20051 0dd0 00000000 		.4byte	0
 20052 0dd4 00000000 		.4byte	0
 20053              	.LLST21:
 20054 0dd8 20010000 		.4byte	.LVL136
 20055 0ddc 4A010000 		.4byte	.LVL138
 20056 0de0 0200     		.2byte	0x2
 20057 0de2 90       		.byte	0x90
 20058 0de3 55       		.uleb128 0x55
 20059 0de4 4A010000 		.4byte	.LVL138
 20060 0de8 64010000 		.4byte	.LVL139
 20061 0dec 0600     		.2byte	0x6
 20062 0dee 9E       		.byte	0x9e
 20063 0def 04       		.uleb128 0x4
 20064 0df0 00000000 		.4byte	0
 20065 0df4 64010000 		.4byte	.LVL139
 20066 0df8 C0030000 		.4byte	.LVL188
 20067 0dfc 0200     		.2byte	0x2
 20068 0dfe 90       		.byte	0x90
 20069 0dff 55       		.uleb128 0x55
 20070 0e00 4C040000 		.4byte	.LVL196
 20071 0e04 A8040000 		.4byte	.LVL201
 20072 0e08 0200     		.2byte	0x2
 20073 0e0a 90       		.byte	0x90
 20074 0e0b 55       		.uleb128 0x55
 20075 0e0c AC040000 		.4byte	.LVL202
 20076 0e10 64050000 		.4byte	.LVL223
 20077 0e14 0200     		.2byte	0x2
 20078 0e16 90       		.byte	0x90
 20079 0e17 55       		.uleb128 0x55
 20080 0e18 74050000 		.4byte	.LVL225
 20081 0e1c 84050000 		.4byte	.LFE318
 20082 0e20 0600     		.2byte	0x6
 20083 0e22 9E       		.byte	0x9e
 20084 0e23 04       		.uleb128 0x4
 20085 0e24 00000000 		.4byte	0
 20086 0e28 00000000 		.4byte	0
ARM GAS  /tmp/ccETYwEL.s 			page 355


 20087 0e2c 00000000 		.4byte	0
 20088              	.LLST22:
 20089 0e30 24010000 		.4byte	.LVL137
 20090 0e34 4A010000 		.4byte	.LVL138
 20091 0e38 0200     		.2byte	0x2
 20092 0e3a 90       		.byte	0x90
 20093 0e3b 53       		.uleb128 0x53
 20094 0e3c 4A010000 		.4byte	.LVL138
 20095 0e40 64010000 		.4byte	.LVL139
 20096 0e44 0600     		.2byte	0x6
 20097 0e46 9E       		.byte	0x9e
 20098 0e47 04       		.uleb128 0x4
 20099 0e48 00000000 		.4byte	0
 20100 0e4c 64010000 		.4byte	.LVL139
 20101 0e50 50020000 		.4byte	.LVL158
 20102 0e54 0200     		.2byte	0x2
 20103 0e56 90       		.byte	0x90
 20104 0e57 53       		.uleb128 0x53
 20105 0e58 20030000 		.4byte	.LVL180
 20106 0e5c C0030000 		.4byte	.LVL188
 20107 0e60 0200     		.2byte	0x2
 20108 0e62 90       		.byte	0x90
 20109 0e63 53       		.uleb128 0x53
 20110 0e64 4C040000 		.4byte	.LVL196
 20111 0e68 D2040000 		.4byte	.LVL203
 20112 0e6c 0200     		.2byte	0x2
 20113 0e6e 90       		.byte	0x90
 20114 0e6f 53       		.uleb128 0x53
 20115 0e70 FC040000 		.4byte	.LVL210
 20116 0e74 64050000 		.4byte	.LVL223
 20117 0e78 0200     		.2byte	0x2
 20118 0e7a 90       		.byte	0x90
 20119 0e7b 53       		.uleb128 0x53
 20120 0e7c 74050000 		.4byte	.LVL225
 20121 0e80 84050000 		.4byte	.LFE318
 20122 0e84 0600     		.2byte	0x6
 20123 0e86 9E       		.byte	0x9e
 20124 0e87 04       		.uleb128 0x4
 20125 0e88 00000000 		.4byte	0
 20126 0e8c 00000000 		.4byte	0
 20127 0e90 00000000 		.4byte	0
 20128              	.LLST23:
 20129 0e94 84010000 		.4byte	.LVL141
 20130 0e98 8C010000 		.4byte	.LVL142
 20131 0e9c 0200     		.2byte	0x2
 20132 0e9e 90       		.byte	0x90
 20133 0e9f 40       		.uleb128 0x40
 20134 0ea0 8C010000 		.4byte	.LVL142
 20135 0ea4 E8010000 		.4byte	.LVL151
 20136 0ea8 0200     		.2byte	0x2
 20137 0eaa 90       		.byte	0x90
 20138 0eab 57       		.uleb128 0x57
 20139 0eac 20030000 		.4byte	.LVL180
 20140 0eb0 38030000 		.4byte	.LVL181
 20141 0eb4 0200     		.2byte	0x2
 20142 0eb6 90       		.byte	0x90
 20143 0eb7 57       		.uleb128 0x57
ARM GAS  /tmp/ccETYwEL.s 			page 356


 20144 0eb8 FC040000 		.4byte	.LVL210
 20145 0ebc 18050000 		.4byte	.LVL213
 20146 0ec0 0200     		.2byte	0x2
 20147 0ec2 90       		.byte	0x90
 20148 0ec3 57       		.uleb128 0x57
 20149 0ec4 00000000 		.4byte	0
 20150 0ec8 00000000 		.4byte	0
 20151              	.LLST24:
 20152 0ecc A8010000 		.4byte	.LVL144
 20153 0ed0 AC010000 		.4byte	.LVL145
 20154 0ed4 0200     		.2byte	0x2
 20155 0ed6 90       		.byte	0x90
 20156 0ed7 40       		.uleb128 0x40
 20157 0ed8 AC010000 		.4byte	.LVL145
 20158 0edc C0030000 		.4byte	.LVL188
 20159 0ee0 0200     		.2byte	0x2
 20160 0ee2 90       		.byte	0x90
 20161 0ee3 59       		.uleb128 0x59
 20162 0ee4 D8040000 		.4byte	.LVL204
 20163 0ee8 64050000 		.4byte	.LVL223
 20164 0eec 0200     		.2byte	0x2
 20165 0eee 90       		.byte	0x90
 20166 0eef 59       		.uleb128 0x59
 20167 0ef0 00000000 		.4byte	0
 20168 0ef4 00000000 		.4byte	0
 20169              	.LLST25:
 20170 0ef8 BC010000 		.4byte	.LVL147
 20171 0efc C4010000 		.4byte	.LVL148
 20172 0f00 0200     		.2byte	0x2
 20173 0f02 90       		.byte	0x90
 20174 0f03 40       		.uleb128 0x40
 20175 0f04 C4010000 		.4byte	.LVL148
 20176 0f08 FC010000 		.4byte	.LVL152
 20177 0f0c 0200     		.2byte	0x2
 20178 0f0e 90       		.byte	0x90
 20179 0f0f 56       		.uleb128 0x56
 20180 0f10 20030000 		.4byte	.LVL180
 20181 0f14 58030000 		.4byte	.LVL183
 20182 0f18 0200     		.2byte	0x2
 20183 0f1a 90       		.byte	0x90
 20184 0f1b 56       		.uleb128 0x56
 20185 0f1c FC040000 		.4byte	.LVL210
 20186 0f20 36050000 		.4byte	.LVL216
 20187 0f24 0200     		.2byte	0x2
 20188 0f26 90       		.byte	0x90
 20189 0f27 56       		.uleb128 0x56
 20190 0f28 00000000 		.4byte	0
 20191 0f2c 00000000 		.4byte	0
 20192              	.LLST26:
 20193 0f30 E0010000 		.4byte	.LVL150
 20194 0f34 E8010000 		.4byte	.LVL151
 20195 0f38 0200     		.2byte	0x2
 20196 0f3a 90       		.byte	0x90
 20197 0f3b 40       		.uleb128 0x40
 20198 0f3c E8010000 		.4byte	.LVL151
 20199 0f40 1C020000 		.4byte	.LVL154
 20200 0f44 0200     		.2byte	0x2
ARM GAS  /tmp/ccETYwEL.s 			page 357


 20201 0f46 90       		.byte	0x90
 20202 0f47 58       		.uleb128 0x58
 20203 0f48 20030000 		.4byte	.LVL180
 20204 0f4c 44030000 		.4byte	.LVL182
 20205 0f50 0200     		.2byte	0x2
 20206 0f52 90       		.byte	0x90
 20207 0f53 40       		.uleb128 0x40
 20208 0f54 44030000 		.4byte	.LVL182
 20209 0f58 5A030000 		.4byte	.LVL184
 20210 0f5c 0200     		.2byte	0x2
 20211 0f5e 90       		.byte	0x90
 20212 0f5f 58       		.uleb128 0x58
 20213 0f60 6C030000 		.4byte	.LVL186
 20214 0f64 7C030000 		.4byte	.LVL187
 20215 0f68 0200     		.2byte	0x2
 20216 0f6a 90       		.byte	0x90
 20217 0f6b 58       		.uleb128 0x58
 20218 0f6c FC040000 		.4byte	.LVL210
 20219 0f70 00050000 		.4byte	.LVL211
 20220 0f74 0200     		.2byte	0x2
 20221 0f76 90       		.byte	0x90
 20222 0f77 40       		.uleb128 0x40
 20223 0f78 00050000 		.4byte	.LVL211
 20224 0f7c 38050000 		.4byte	.LVL217
 20225 0f80 0200     		.2byte	0x2
 20226 0f82 90       		.byte	0x90
 20227 0f83 58       		.uleb128 0x58
 20228 0f84 4E050000 		.4byte	.LVL220
 20229 0f88 62050000 		.4byte	.LVL222
 20230 0f8c 0200     		.2byte	0x2
 20231 0f8e 90       		.byte	0x90
 20232 0f8f 58       		.uleb128 0x58
 20233 0f90 00000000 		.4byte	0
 20234 0f94 00000000 		.4byte	0
 20235              	.LLST27:
 20236 0f98 E0010000 		.4byte	.LVL150
 20237 0f9c E8010000 		.4byte	.LVL151
 20238 0fa0 0600     		.2byte	0x6
 20239 0fa2 9E       		.byte	0x9e
 20240 0fa3 04       		.uleb128 0x4
 20241 0fa4 00000000 		.4byte	0
 20242 0fa8 E8010000 		.4byte	.LVL151
 20243 0fac 20030000 		.4byte	.LVL180
 20244 0fb0 0200     		.2byte	0x2
 20245 0fb2 90       		.byte	0x90
 20246 0fb3 57       		.uleb128 0x57
 20247 0fb4 20030000 		.4byte	.LVL180
 20248 0fb8 38030000 		.4byte	.LVL181
 20249 0fbc 0600     		.2byte	0x6
 20250 0fbe 9E       		.byte	0x9e
 20251 0fbf 04       		.uleb128 0x4
 20252 0fc0 00000000 		.4byte	0
 20253 0fc4 38030000 		.4byte	.LVL181
 20254 0fc8 C0030000 		.4byte	.LVL188
 20255 0fcc 0200     		.2byte	0x2
 20256 0fce 90       		.byte	0x90
 20257 0fcf 57       		.uleb128 0x57
ARM GAS  /tmp/ccETYwEL.s 			page 358


 20258 0fd0 D8040000 		.4byte	.LVL204
 20259 0fd4 FC040000 		.4byte	.LVL210
 20260 0fd8 0200     		.2byte	0x2
 20261 0fda 90       		.byte	0x90
 20262 0fdb 57       		.uleb128 0x57
 20263 0fdc FC040000 		.4byte	.LVL210
 20264 0fe0 18050000 		.4byte	.LVL213
 20265 0fe4 0600     		.2byte	0x6
 20266 0fe6 9E       		.byte	0x9e
 20267 0fe7 04       		.uleb128 0x4
 20268 0fe8 00000000 		.4byte	0
 20269 0fec 18050000 		.4byte	.LVL213
 20270 0ff0 1A050000 		.4byte	.LVL214
 20271 0ff4 0200     		.2byte	0x2
 20272 0ff6 90       		.byte	0x90
 20273 0ff7 40       		.uleb128 0x40
 20274 0ff8 1A050000 		.4byte	.LVL214
 20275 0ffc 64050000 		.4byte	.LVL223
 20276 1000 0200     		.2byte	0x2
 20277 1002 90       		.byte	0x90
 20278 1003 57       		.uleb128 0x57
 20279 1004 00000000 		.4byte	0
 20280 1008 00000000 		.4byte	0
 20281              	.LLST28:
 20282 100c E8010000 		.4byte	.LVL151
 20283 1010 FC010000 		.4byte	.LVL152
 20284 1014 0600     		.2byte	0x6
 20285 1016 9E       		.byte	0x9e
 20286 1017 04       		.uleb128 0x4
 20287 1018 00000000 		.4byte	0
 20288 101c FC010000 		.4byte	.LVL152
 20289 1020 12030000 		.4byte	.LVL179
 20290 1024 0200     		.2byte	0x2
 20291 1026 90       		.byte	0x90
 20292 1027 56       		.uleb128 0x56
 20293 1028 38030000 		.4byte	.LVL181
 20294 102c 5A030000 		.4byte	.LVL184
 20295 1030 0600     		.2byte	0x6
 20296 1032 9E       		.byte	0x9e
 20297 1033 04       		.uleb128 0x4
 20298 1034 00000000 		.4byte	0
 20299 1038 5A030000 		.4byte	.LVL184
 20300 103c C0030000 		.4byte	.LVL188
 20301 1040 0200     		.2byte	0x2
 20302 1042 90       		.byte	0x90
 20303 1043 56       		.uleb128 0x56
 20304 1044 D8040000 		.4byte	.LVL204
 20305 1048 FC040000 		.4byte	.LVL210
 20306 104c 0200     		.2byte	0x2
 20307 104e 90       		.byte	0x90
 20308 104f 56       		.uleb128 0x56
 20309 1050 1A050000 		.4byte	.LVL214
 20310 1054 36050000 		.4byte	.LVL216
 20311 1058 0600     		.2byte	0x6
 20312 105a 9E       		.byte	0x9e
 20313 105b 04       		.uleb128 0x4
 20314 105c 00000000 		.4byte	0
ARM GAS  /tmp/ccETYwEL.s 			page 359


 20315 1060 36050000 		.4byte	.LVL216
 20316 1064 38050000 		.4byte	.LVL217
 20317 1068 0200     		.2byte	0x2
 20318 106a 90       		.byte	0x90
 20319 106b 40       		.uleb128 0x40
 20320 106c 38050000 		.4byte	.LVL217
 20321 1070 64050000 		.4byte	.LVL223
 20322 1074 0200     		.2byte	0x2
 20323 1076 90       		.byte	0x90
 20324 1077 56       		.uleb128 0x56
 20325 1078 00000000 		.4byte	0
 20326 107c 00000000 		.4byte	0
 20327              	.LLST29:
 20328 1080 FC010000 		.4byte	.LVL152
 20329 1084 1C020000 		.4byte	.LVL154
 20330 1088 0600     		.2byte	0x6
 20331 108a 9E       		.byte	0x9e
 20332 108b 04       		.uleb128 0x4
 20333 108c 00000000 		.4byte	0
 20334 1090 1C020000 		.4byte	.LVL154
 20335 1094 12030000 		.4byte	.LVL179
 20336 1098 0200     		.2byte	0x2
 20337 109a 90       		.byte	0x90
 20338 109b 58       		.uleb128 0x58
 20339 109c 5A030000 		.4byte	.LVL184
 20340 10a0 6C030000 		.4byte	.LVL186
 20341 10a4 0200     		.2byte	0x2
 20342 10a6 90       		.byte	0x90
 20343 10a7 58       		.uleb128 0x58
 20344 10a8 6C030000 		.4byte	.LVL186
 20345 10ac C0030000 		.4byte	.LVL188
 20346 10b0 0600     		.2byte	0x6
 20347 10b2 9E       		.byte	0x9e
 20348 10b3 04       		.uleb128 0x4
 20349 10b4 00000000 		.4byte	0
 20350 10b8 D8040000 		.4byte	.LVL204
 20351 10bc FC040000 		.4byte	.LVL210
 20352 10c0 0200     		.2byte	0x2
 20353 10c2 90       		.byte	0x90
 20354 10c3 58       		.uleb128 0x58
 20355 10c4 38050000 		.4byte	.LVL217
 20356 10c8 4E050000 		.4byte	.LVL220
 20357 10cc 0200     		.2byte	0x2
 20358 10ce 90       		.byte	0x90
 20359 10cf 58       		.uleb128 0x58
 20360 10d0 4E050000 		.4byte	.LVL220
 20361 10d4 62050000 		.4byte	.LVL222
 20362 10d8 0600     		.2byte	0x6
 20363 10da 9E       		.byte	0x9e
 20364 10db 04       		.uleb128 0x4
 20365 10dc 00000000 		.4byte	0
 20366 10e0 62050000 		.4byte	.LVL222
 20367 10e4 64050000 		.4byte	.LVL223
 20368 10e8 0200     		.2byte	0x2
 20369 10ea 90       		.byte	0x90
 20370 10eb 40       		.uleb128 0x40
 20371 10ec 00000000 		.4byte	0
ARM GAS  /tmp/ccETYwEL.s 			page 360


 20372 10f0 00000000 		.4byte	0
 20373              	.LLST30:
 20374 10f4 0C020000 		.4byte	.LVL153
 20375 10f8 1C020000 		.4byte	.LVL154
 20376 10fc 0200     		.2byte	0x2
 20377 10fe 90       		.byte	0x90
 20378 10ff 41       		.uleb128 0x41
 20379 1100 6C030000 		.4byte	.LVL186
 20380 1104 C0030000 		.4byte	.LVL188
 20381 1108 0200     		.2byte	0x2
 20382 110a 90       		.byte	0x90
 20383 110b 41       		.uleb128 0x41
 20384 110c 4E050000 		.4byte	.LVL220
 20385 1110 5D050000 		.4byte	.LVL221-1
 20386 1114 0200     		.2byte	0x2
 20387 1116 90       		.byte	0x90
 20388 1117 41       		.uleb128 0x41
 20389 1118 00000000 		.4byte	0
 20390 111c 00000000 		.4byte	0
 20391              	.LLST31:
 20392 1120 0C020000 		.4byte	.LVL153
 20393 1124 1C020000 		.4byte	.LVL154
 20394 1128 0200     		.2byte	0x2
 20395 112a 90       		.byte	0x90
 20396 112b 42       		.uleb128 0x42
 20397 112c 6C030000 		.4byte	.LVL186
 20398 1130 C0030000 		.4byte	.LVL188
 20399 1134 0200     		.2byte	0x2
 20400 1136 90       		.byte	0x90
 20401 1137 42       		.uleb128 0x42
 20402 1138 4E050000 		.4byte	.LVL220
 20403 113c 5D050000 		.4byte	.LVL221-1
 20404 1140 0200     		.2byte	0x2
 20405 1142 90       		.byte	0x90
 20406 1143 42       		.uleb128 0x42
 20407 1144 00000000 		.4byte	0
 20408 1148 00000000 		.4byte	0
 20409              	.LLST32:
 20410 114c 1C020000 		.4byte	.LVL154
 20411 1150 3C020000 		.4byte	.LVL156
 20412 1154 0600     		.2byte	0x6
 20413 1156 9E       		.byte	0x9e
 20414 1157 04       		.uleb128 0x4
 20415 1158 00000000 		.4byte	0
 20416 115c 3C020000 		.4byte	.LVL156
 20417 1160 12030000 		.4byte	.LVL179
 20418 1164 0200     		.2byte	0x2
 20419 1166 90       		.byte	0x90
 20420 1167 52       		.uleb128 0x52
 20421 1168 5A030000 		.4byte	.LVL184
 20422 116c 6C030000 		.4byte	.LVL186
 20423 1170 0600     		.2byte	0x6
 20424 1172 9E       		.byte	0x9e
 20425 1173 04       		.uleb128 0x4
 20426 1174 00000000 		.4byte	0
 20427 1178 D8040000 		.4byte	.LVL204
 20428 117c FC040000 		.4byte	.LVL210
ARM GAS  /tmp/ccETYwEL.s 			page 361


 20429 1180 0200     		.2byte	0x2
 20430 1182 90       		.byte	0x90
 20431 1183 52       		.uleb128 0x52
 20432 1184 38050000 		.4byte	.LVL217
 20433 1188 4C050000 		.4byte	.LVL219
 20434 118c 0600     		.2byte	0x6
 20435 118e 9E       		.byte	0x9e
 20436 118f 04       		.uleb128 0x4
 20437 1190 00000000 		.4byte	0
 20438 1194 4C050000 		.4byte	.LVL219
 20439 1198 4E050000 		.4byte	.LVL220
 20440 119c 0200     		.2byte	0x2
 20441 119e 90       		.byte	0x90
 20442 119f 40       		.uleb128 0x40
 20443 11a0 00000000 		.4byte	0
 20444 11a4 00000000 		.4byte	0
 20445              	.LLST33:
 20446 11a8 2C020000 		.4byte	.LVL155
 20447 11ac 3C020000 		.4byte	.LVL156
 20448 11b0 0200     		.2byte	0x2
 20449 11b2 90       		.byte	0x90
 20450 11b3 41       		.uleb128 0x41
 20451 11b4 5A030000 		.4byte	.LVL184
 20452 11b8 6C030000 		.4byte	.LVL186
 20453 11bc 0200     		.2byte	0x2
 20454 11be 90       		.byte	0x90
 20455 11bf 41       		.uleb128 0x41
 20456 11c0 38050000 		.4byte	.LVL217
 20457 11c4 47050000 		.4byte	.LVL218-1
 20458 11c8 0200     		.2byte	0x2
 20459 11ca 90       		.byte	0x90
 20460 11cb 41       		.uleb128 0x41
 20461 11cc 00000000 		.4byte	0
 20462 11d0 00000000 		.4byte	0
 20463              	.LLST34:
 20464 11d4 2C020000 		.4byte	.LVL155
 20465 11d8 3C020000 		.4byte	.LVL156
 20466 11dc 0200     		.2byte	0x2
 20467 11de 90       		.byte	0x90
 20468 11df 42       		.uleb128 0x42
 20469 11e0 5A030000 		.4byte	.LVL184
 20470 11e4 6C030000 		.4byte	.LVL186
 20471 11e8 0200     		.2byte	0x2
 20472 11ea 90       		.byte	0x90
 20473 11eb 42       		.uleb128 0x42
 20474 11ec 38050000 		.4byte	.LVL217
 20475 11f0 47050000 		.4byte	.LVL218-1
 20476 11f4 0200     		.2byte	0x2
 20477 11f6 90       		.byte	0x90
 20478 11f7 42       		.uleb128 0x42
 20479 11f8 00000000 		.4byte	0
 20480 11fc 00000000 		.4byte	0
 20481              	.LLST35:
 20482 1200 50020000 		.4byte	.LVL158
 20483 1204 54020000 		.4byte	.LVL159
 20484 1208 0200     		.2byte	0x2
 20485 120a 90       		.byte	0x90
ARM GAS  /tmp/ccETYwEL.s 			page 362


 20486 120b 40       		.uleb128 0x40
 20487 120c 54020000 		.4byte	.LVL159
 20488 1210 68020000 		.4byte	.LVL163
 20489 1214 0200     		.2byte	0x2
 20490 1216 90       		.byte	0x90
 20491 1217 53       		.uleb128 0x53
 20492 1218 68020000 		.4byte	.LVL163
 20493 121c 6F020000 		.4byte	.LVL164-1
 20494 1220 0200     		.2byte	0x2
 20495 1222 90       		.byte	0x90
 20496 1223 40       		.uleb128 0x40
 20497 1224 70020000 		.4byte	.LVL164
 20498 1228 77020000 		.4byte	.LVL165-1
 20499 122c 0200     		.2byte	0x2
 20500 122e 90       		.byte	0x90
 20501 122f 40       		.uleb128 0x40
 20502 1230 78020000 		.4byte	.LVL165
 20503 1234 7F020000 		.4byte	.LVL166-1
 20504 1238 0200     		.2byte	0x2
 20505 123a 90       		.byte	0x90
 20506 123b 40       		.uleb128 0x40
 20507 123c 80020000 		.4byte	.LVL166
 20508 1240 DA020000 		.4byte	.LVL171
 20509 1244 0200     		.2byte	0x2
 20510 1246 90       		.byte	0x90
 20511 1247 40       		.uleb128 0x40
 20512 1248 D8040000 		.4byte	.LVL204
 20513 124c F2040000 		.4byte	.LVL207
 20514 1250 0200     		.2byte	0x2
 20515 1252 90       		.byte	0x90
 20516 1253 40       		.uleb128 0x40
 20517 1254 00000000 		.4byte	0
 20518 1258 00000000 		.4byte	0
 20519              	.LLST36:
 20520 125c 60020000 		.4byte	.LVL161
 20521 1260 64020000 		.4byte	.LVL162
 20522 1264 0200     		.2byte	0x2
 20523 1266 90       		.byte	0x90
 20524 1267 40       		.uleb128 0x40
 20525 1268 64020000 		.4byte	.LVL162
 20526 126c A8020000 		.4byte	.LVL168
 20527 1270 0200     		.2byte	0x2
 20528 1272 90       		.byte	0x90
 20529 1273 51       		.uleb128 0x51
 20530 1274 B2020000 		.4byte	.LVL169
 20531 1278 E6020000 		.4byte	.LVL173
 20532 127c 0200     		.2byte	0x2
 20533 127e 90       		.byte	0x90
 20534 127f 51       		.uleb128 0x51
 20535 1280 D8040000 		.4byte	.LVL204
 20536 1284 FC040000 		.4byte	.LVL210
 20537 1288 0200     		.2byte	0x2
 20538 128a 90       		.byte	0x90
 20539 128b 51       		.uleb128 0x51
 20540 128c 00000000 		.4byte	0
 20541 1290 00000000 		.4byte	0
 20542              	.LLST37:
ARM GAS  /tmp/ccETYwEL.s 			page 363


 20543 1294 B6020000 		.4byte	.LVL170
 20544 1298 DA020000 		.4byte	.LVL171
 20545 129c 0600     		.2byte	0x6
 20546 129e 9E       		.byte	0x9e
 20547 129f 04       		.uleb128 0x4
 20548 12a0 00000000 		.4byte	0
 20549 12a4 DA020000 		.4byte	.LVL171
 20550 12a8 ED020000 		.4byte	.LVL175-1
 20551 12ac 0200     		.2byte	0x2
 20552 12ae 90       		.byte	0x90
 20553 12af 41       		.uleb128 0x41
 20554 12b0 D8040000 		.4byte	.LVL204
 20555 12b4 DC040000 		.4byte	.LVL205
 20556 12b8 0600     		.2byte	0x6
 20557 12ba 9E       		.byte	0x9e
 20558 12bb 04       		.uleb128 0x4
 20559 12bc 00000000 		.4byte	0
 20560 12c0 DC040000 		.4byte	.LVL205
 20561 12c4 DE040000 		.4byte	.LVL206
 20562 12c8 0200     		.2byte	0x2
 20563 12ca 90       		.byte	0x90
 20564 12cb 41       		.uleb128 0x41
 20565 12cc DE040000 		.4byte	.LVL206
 20566 12d0 FA040000 		.4byte	.LVL209
 20567 12d4 0600     		.2byte	0x6
 20568 12d6 9E       		.byte	0x9e
 20569 12d7 04       		.uleb128 0x4
 20570 12d8 00000000 		.4byte	0
 20571 12dc FA040000 		.4byte	.LVL209
 20572 12e0 FC040000 		.4byte	.LVL210
 20573 12e4 0200     		.2byte	0x2
 20574 12e6 90       		.byte	0x90
 20575 12e7 40       		.uleb128 0x40
 20576 12e8 00000000 		.4byte	0
 20577 12ec 00000000 		.4byte	0
 20578              	.LLST38:
 20579 12f0 DE020000 		.4byte	.LVL172
 20580 12f4 EA020000 		.4byte	.LVL174
 20581 12f8 0800     		.2byte	0x8
 20582 12fa F5       		.byte	0xf5
 20583 12fb 40       		.uleb128 0x40
 20584 12fc 25       		.uleb128 0x25
 20585 12fd F5       		.byte	0xf5
 20586 12fe 50       		.uleb128 0x50
 20587 12ff 25       		.uleb128 0x25
 20588 1300 1B       		.byte	0x1b
 20589 1301 9F       		.byte	0x9f
 20590 1302 EA020000 		.4byte	.LVL174
 20591 1306 ED020000 		.4byte	.LVL175-1
 20592 130a 0200     		.2byte	0x2
 20593 130c 90       		.byte	0x90
 20594 130d 40       		.uleb128 0x40
 20595 130e 00000000 		.4byte	0
 20596 1312 00000000 		.4byte	0
 20597              	.LLST39:
 20598 1316 E6020000 		.4byte	.LVL173
 20599 131a 20030000 		.4byte	.LVL180
ARM GAS  /tmp/ccETYwEL.s 			page 364


 20600 131e 0200     		.2byte	0x2
 20601 1320 90       		.byte	0x90
 20602 1321 51       		.uleb128 0x51
 20603 1322 00000000 		.4byte	0
 20604 1326 00000000 		.4byte	0
 20605              	.LLST40:
 20606 132a EE020000 		.4byte	.LVL175
 20607 132e FA020000 		.4byte	.LVL176
 20608 1332 0200     		.2byte	0x2
 20609 1334 90       		.byte	0x90
 20610 1335 40       		.uleb128 0x40
 20611 1336 FA020000 		.4byte	.LVL176
 20612 133a FD020000 		.4byte	.LVL177-1
 20613 133e 0200     		.2byte	0x2
 20614 1340 90       		.byte	0x90
 20615 1341 41       		.uleb128 0x41
 20616 1342 00000000 		.4byte	0
 20617 1346 00000000 		.4byte	0
 20618              	.LLST41:
 20619 134a EE020000 		.4byte	.LVL175
 20620 134e 20030000 		.4byte	.LVL180
 20621 1352 0200     		.2byte	0x2
 20622 1354 90       		.byte	0x90
 20623 1355 51       		.uleb128 0x51
 20624 1356 00000000 		.4byte	0
 20625 135a 00000000 		.4byte	0
 20626              	.LLST42:
 20627 135e 02010000 		.4byte	.LVL134
 20628 1362 1C010000 		.4byte	.LVL135
 20629 1366 0200     		.2byte	0x2
 20630 1368 35       		.byte	0x35
 20631 1369 9F       		.byte	0x9f
 20632 136a 64050000 		.4byte	.LVL223
 20633 136e 74050000 		.4byte	.LVL225
 20634 1372 0200     		.2byte	0x2
 20635 1374 35       		.byte	0x35
 20636 1375 9F       		.byte	0x9f
 20637 1376 00000000 		.4byte	0
 20638 137a 00000000 		.4byte	0
 20639              	.LLST43:
 20640 137e 4A010000 		.4byte	.LVL138
 20641 1382 64010000 		.4byte	.LVL139
 20642 1386 0200     		.2byte	0x2
 20643 1388 36       		.byte	0x36
 20644 1389 9F       		.byte	0x9f
 20645 138a 74050000 		.4byte	.LVL225
 20646 138e 84050000 		.4byte	.LFE318
 20647 1392 0200     		.2byte	0x2
 20648 1394 36       		.byte	0x36
 20649 1395 9F       		.byte	0x9f
 20650 1396 00000000 		.4byte	0
 20651 139a 00000000 		.4byte	0
 20652              	.LLST44:
 20653 139e D0030000 		.4byte	.LVL189
 20654 13a2 E2030000 		.4byte	.LVL190
 20655 13a6 0200     		.2byte	0x2
 20656 13a8 90       		.byte	0x90
ARM GAS  /tmp/ccETYwEL.s 			page 365


 20657 13a9 43       		.uleb128 0x43
 20658 13aa F4030000 		.4byte	.LVL191
 20659 13ae F7030000 		.4byte	.LVL192-1
 20660 13b2 0200     		.2byte	0x2
 20661 13b4 90       		.byte	0x90
 20662 13b5 43       		.uleb128 0x43
 20663 13b6 F8030000 		.4byte	.LVL192
 20664 13ba 46040000 		.4byte	.LVL195
 20665 13be 0200     		.2byte	0x2
 20666 13c0 90       		.byte	0x90
 20667 13c1 40       		.uleb128 0x40
 20668 13c2 00000000 		.4byte	0
 20669 13c6 00000000 		.4byte	0
 20670              	.LLST45:
 20671 13ca 5C040000 		.4byte	.LVL197
 20672 13ce 6E040000 		.4byte	.LVL198
 20673 13d2 0200     		.2byte	0x2
 20674 13d4 90       		.byte	0x90
 20675 13d5 43       		.uleb128 0x43
 20676 13d6 80040000 		.4byte	.LVL199
 20677 13da 83040000 		.4byte	.LVL200-1
 20678 13de 0200     		.2byte	0x2
 20679 13e0 90       		.byte	0x90
 20680 13e1 43       		.uleb128 0x43
 20681 13e2 84040000 		.4byte	.LVL200
 20682 13e6 D2040000 		.4byte	.LVL203
 20683 13ea 0200     		.2byte	0x2
 20684 13ec 90       		.byte	0x90
 20685 13ed 40       		.uleb128 0x40
 20686 13ee 00000000 		.4byte	0
 20687 13f2 00000000 		.4byte	0
 20688              	.LLST57:
 20689 13f6 00000000 		.4byte	.LVL290
 20690 13fa 0D000000 		.4byte	.LVL291-1
 20691 13fe 0200     		.2byte	0x2
 20692 1400 90       		.byte	0x90
 20693 1401 40       		.uleb128 0x40
 20694 1402 0D000000 		.4byte	.LVL291-1
 20695 1406 28000000 		.4byte	.LVL292
 20696 140a 0200     		.2byte	0x2
 20697 140c 90       		.byte	0x90
 20698 140d 50       		.uleb128 0x50
 20699 140e 28000000 		.4byte	.LVL292
 20700 1412 38000000 		.4byte	.LVL293
 20701 1416 0600     		.2byte	0x6
 20702 1418 F3       		.byte	0xf3
 20703 1419 03       		.uleb128 0x3
 20704 141a F5       		.byte	0xf5
 20705 141b 40       		.uleb128 0x40
 20706 141c 25       		.uleb128 0x25
 20707 141d 9F       		.byte	0x9f
 20708 141e 38000000 		.4byte	.LVL293
 20709 1422 3C000000 		.4byte	.LVL294
 20710 1426 0200     		.2byte	0x2
 20711 1428 90       		.byte	0x90
 20712 1429 50       		.uleb128 0x50
 20713 142a 3C000000 		.4byte	.LVL294
ARM GAS  /tmp/ccETYwEL.s 			page 366


 20714 142e 3E000000 		.4byte	.LVL295
 20715 1432 0600     		.2byte	0x6
 20716 1434 F3       		.byte	0xf3
 20717 1435 03       		.uleb128 0x3
 20718 1436 F5       		.byte	0xf5
 20719 1437 40       		.uleb128 0x40
 20720 1438 25       		.uleb128 0x25
 20721 1439 9F       		.byte	0x9f
 20722 143a 3E000000 		.4byte	.LVL295
 20723 143e 48000000 		.4byte	.LVL296
 20724 1442 0200     		.2byte	0x2
 20725 1444 90       		.byte	0x90
 20726 1445 50       		.uleb128 0x50
 20727 1446 48000000 		.4byte	.LVL296
 20728 144a 5C000000 		.4byte	.LFE267
 20729 144e 0600     		.2byte	0x6
 20730 1450 F3       		.byte	0xf3
 20731 1451 03       		.uleb128 0x3
 20732 1452 F5       		.byte	0xf5
 20733 1453 40       		.uleb128 0x40
 20734 1454 25       		.uleb128 0x25
 20735 1455 9F       		.byte	0x9f
 20736 1456 00000000 		.4byte	0
 20737 145a 00000000 		.4byte	0
 20738              	.LLST58:
 20739 145e 3E000000 		.4byte	.LVL295
 20740 1462 48000000 		.4byte	.LVL296
 20741 1466 0200     		.2byte	0x2
 20742 1468 90       		.byte	0x90
 20743 1469 50       		.uleb128 0x50
 20744 146a 48000000 		.4byte	.LVL296
 20745 146e 5C000000 		.4byte	.LFE267
 20746 1472 0600     		.2byte	0x6
 20747 1474 F3       		.byte	0xf3
 20748 1475 03       		.uleb128 0x3
 20749 1476 F5       		.byte	0xf5
 20750 1477 40       		.uleb128 0x40
 20751 1478 25       		.uleb128 0x25
 20752 1479 9F       		.byte	0x9f
 20753 147a 00000000 		.4byte	0
 20754 147e 00000000 		.4byte	0
 20755              	.LLST62:
 20756 1482 00000000 		.4byte	.LVL320
 20757 1486 0D000000 		.4byte	.LVL321-1
 20758 148a 0200     		.2byte	0x2
 20759 148c 90       		.byte	0x90
 20760 148d 40       		.uleb128 0x40
 20761 148e 0D000000 		.4byte	.LVL321-1
 20762 1492 28000000 		.4byte	.LVL322
 20763 1496 0200     		.2byte	0x2
 20764 1498 90       		.byte	0x90
 20765 1499 50       		.uleb128 0x50
 20766 149a 28000000 		.4byte	.LVL322
 20767 149e 38000000 		.4byte	.LVL323
 20768 14a2 0600     		.2byte	0x6
 20769 14a4 F3       		.byte	0xf3
 20770 14a5 03       		.uleb128 0x3
ARM GAS  /tmp/ccETYwEL.s 			page 367


 20771 14a6 F5       		.byte	0xf5
 20772 14a7 40       		.uleb128 0x40
 20773 14a8 25       		.uleb128 0x25
 20774 14a9 9F       		.byte	0x9f
 20775 14aa 38000000 		.4byte	.LVL323
 20776 14ae 3C000000 		.4byte	.LVL324
 20777 14b2 0200     		.2byte	0x2
 20778 14b4 90       		.byte	0x90
 20779 14b5 50       		.uleb128 0x50
 20780 14b6 3C000000 		.4byte	.LVL324
 20781 14ba 3E000000 		.4byte	.LVL325
 20782 14be 0600     		.2byte	0x6
 20783 14c0 F3       		.byte	0xf3
 20784 14c1 03       		.uleb128 0x3
 20785 14c2 F5       		.byte	0xf5
 20786 14c3 40       		.uleb128 0x40
 20787 14c4 25       		.uleb128 0x25
 20788 14c5 9F       		.byte	0x9f
 20789 14c6 3E000000 		.4byte	.LVL325
 20790 14ca 48000000 		.4byte	.LVL326
 20791 14ce 0200     		.2byte	0x2
 20792 14d0 90       		.byte	0x90
 20793 14d1 50       		.uleb128 0x50
 20794 14d2 48000000 		.4byte	.LVL326
 20795 14d6 5C000000 		.4byte	.LFE271
 20796 14da 0600     		.2byte	0x6
 20797 14dc F3       		.byte	0xf3
 20798 14dd 03       		.uleb128 0x3
 20799 14de F5       		.byte	0xf5
 20800 14df 40       		.uleb128 0x40
 20801 14e0 25       		.uleb128 0x25
 20802 14e1 9F       		.byte	0x9f
 20803 14e2 00000000 		.4byte	0
 20804 14e6 00000000 		.4byte	0
 20805              	.LLST63:
 20806 14ea 3E000000 		.4byte	.LVL325
 20807 14ee 48000000 		.4byte	.LVL326
 20808 14f2 0200     		.2byte	0x2
 20809 14f4 90       		.byte	0x90
 20810 14f5 50       		.uleb128 0x50
 20811 14f6 48000000 		.4byte	.LVL326
 20812 14fa 5C000000 		.4byte	.LFE271
 20813 14fe 0600     		.2byte	0x6
 20814 1500 F3       		.byte	0xf3
 20815 1501 03       		.uleb128 0x3
 20816 1502 F5       		.byte	0xf5
 20817 1503 40       		.uleb128 0x40
 20818 1504 25       		.uleb128 0x25
 20819 1505 9F       		.byte	0x9f
 20820 1506 00000000 		.4byte	0
 20821 150a 00000000 		.4byte	0
 20822              	.LLST65:
 20823 150e 00000000 		.4byte	.LVL334
 20824 1512 0D000000 		.4byte	.LVL335-1
 20825 1516 0200     		.2byte	0x2
 20826 1518 90       		.byte	0x90
 20827 1519 40       		.uleb128 0x40
ARM GAS  /tmp/ccETYwEL.s 			page 368


 20828 151a 0D000000 		.4byte	.LVL335-1
 20829 151e 28000000 		.4byte	.LVL336
 20830 1522 0200     		.2byte	0x2
 20831 1524 90       		.byte	0x90
 20832 1525 50       		.uleb128 0x50
 20833 1526 28000000 		.4byte	.LVL336
 20834 152a 38000000 		.4byte	.LVL337
 20835 152e 0600     		.2byte	0x6
 20836 1530 F3       		.byte	0xf3
 20837 1531 03       		.uleb128 0x3
 20838 1532 F5       		.byte	0xf5
 20839 1533 40       		.uleb128 0x40
 20840 1534 25       		.uleb128 0x25
 20841 1535 9F       		.byte	0x9f
 20842 1536 38000000 		.4byte	.LVL337
 20843 153a 3C000000 		.4byte	.LVL338
 20844 153e 0200     		.2byte	0x2
 20845 1540 90       		.byte	0x90
 20846 1541 50       		.uleb128 0x50
 20847 1542 3C000000 		.4byte	.LVL338
 20848 1546 3E000000 		.4byte	.LVL339
 20849 154a 0600     		.2byte	0x6
 20850 154c F3       		.byte	0xf3
 20851 154d 03       		.uleb128 0x3
 20852 154e F5       		.byte	0xf5
 20853 154f 40       		.uleb128 0x40
 20854 1550 25       		.uleb128 0x25
 20855 1551 9F       		.byte	0x9f
 20856 1552 3E000000 		.4byte	.LVL339
 20857 1556 48000000 		.4byte	.LVL340
 20858 155a 0200     		.2byte	0x2
 20859 155c 90       		.byte	0x90
 20860 155d 50       		.uleb128 0x50
 20861 155e 48000000 		.4byte	.LVL340
 20862 1562 5C000000 		.4byte	.LFE272
 20863 1566 0600     		.2byte	0x6
 20864 1568 F3       		.byte	0xf3
 20865 1569 03       		.uleb128 0x3
 20866 156a F5       		.byte	0xf5
 20867 156b 40       		.uleb128 0x40
 20868 156c 25       		.uleb128 0x25
 20869 156d 9F       		.byte	0x9f
 20870 156e 00000000 		.4byte	0
 20871 1572 00000000 		.4byte	0
 20872              	.LLST66:
 20873 1576 3E000000 		.4byte	.LVL339
 20874 157a 48000000 		.4byte	.LVL340
 20875 157e 0200     		.2byte	0x2
 20876 1580 90       		.byte	0x90
 20877 1581 50       		.uleb128 0x50
 20878 1582 48000000 		.4byte	.LVL340
 20879 1586 5C000000 		.4byte	.LFE272
 20880 158a 0600     		.2byte	0x6
 20881 158c F3       		.byte	0xf3
 20882 158d 03       		.uleb128 0x3
 20883 158e F5       		.byte	0xf5
 20884 158f 40       		.uleb128 0x40
ARM GAS  /tmp/ccETYwEL.s 			page 369


 20885 1590 25       		.uleb128 0x25
 20886 1591 9F       		.byte	0x9f
 20887 1592 00000000 		.4byte	0
 20888 1596 00000000 		.4byte	0
 20889              	.LLST68:
 20890 159a 00000000 		.4byte	.LVL345
 20891 159e 0D000000 		.4byte	.LVL346-1
 20892 15a2 0200     		.2byte	0x2
 20893 15a4 90       		.byte	0x90
 20894 15a5 40       		.uleb128 0x40
 20895 15a6 0D000000 		.4byte	.LVL346-1
 20896 15aa 18000000 		.4byte	.LVL347
 20897 15ae 0200     		.2byte	0x2
 20898 15b0 90       		.byte	0x90
 20899 15b1 50       		.uleb128 0x50
 20900 15b2 18000000 		.4byte	.LVL347
 20901 15b6 1F000000 		.4byte	.LVL348-1
 20902 15ba 0200     		.2byte	0x2
 20903 15bc 90       		.byte	0x90
 20904 15bd 40       		.uleb128 0x40
 20905 15be 1F000000 		.4byte	.LVL348-1
 20906 15c2 20000000 		.4byte	.LVL348
 20907 15c6 0600     		.2byte	0x6
 20908 15c8 F3       		.byte	0xf3
 20909 15c9 03       		.uleb128 0x3
 20910 15ca F5       		.byte	0xf5
 20911 15cb 40       		.uleb128 0x40
 20912 15cc 25       		.uleb128 0x25
 20913 15cd 9F       		.byte	0x9f
 20914 15ce 20000000 		.4byte	.LVL348
 20915 15d2 24000000 		.4byte	.LVL349
 20916 15d6 0200     		.2byte	0x2
 20917 15d8 90       		.byte	0x90
 20918 15d9 50       		.uleb128 0x50
 20919 15da 24000000 		.4byte	.LVL349
 20920 15de 26000000 		.4byte	.LFE275
 20921 15e2 0600     		.2byte	0x6
 20922 15e4 F3       		.byte	0xf3
 20923 15e5 03       		.uleb128 0x3
 20924 15e6 F5       		.byte	0xf5
 20925 15e7 40       		.uleb128 0x40
 20926 15e8 25       		.uleb128 0x25
 20927 15e9 9F       		.byte	0x9f
 20928 15ea 00000000 		.4byte	0
 20929 15ee 00000000 		.4byte	0
 20930              	.LLST71:
 20931 15f2 00000000 		.4byte	.LVL357
 20932 15f6 0B000000 		.4byte	.LVL358-1
 20933 15fa 0100     		.2byte	0x1
 20934 15fc 50       		.byte	0x50
 20935 15fd 0B000000 		.4byte	.LVL358-1
 20936 1601 0C000000 		.4byte	.LVL358
 20937 1605 0400     		.2byte	0x4
 20938 1607 F3       		.byte	0xf3
 20939 1608 01       		.uleb128 0x1
 20940 1609 50       		.byte	0x50
 20941 160a 9F       		.byte	0x9f
ARM GAS  /tmp/ccETYwEL.s 			page 370


 20942 160b 0C000000 		.4byte	.LVL358
 20943 160f 24000000 		.4byte	.LFE307
 20944 1613 0100     		.2byte	0x1
 20945 1615 50       		.byte	0x50
 20946 1616 00000000 		.4byte	0
 20947 161a 00000000 		.4byte	0
 20948              		.section	.debug_aranges,"",%progbits
 20949 0000 EC010000 		.4byte	0x1ec
 20950 0004 0200     		.2byte	0x2
 20951 0006 00000000 		.4byte	.Ldebug_info0
 20952 000a 04       		.byte	0x4
 20953 000b 00       		.byte	0
 20954 000c 0000     		.2byte	0
 20955 000e 0000     		.2byte	0
 20956 0010 00000000 		.4byte	.LFB312
 20957 0014 40020000 		.4byte	.LFE312-.LFB312
 20958 0018 00000000 		.4byte	.LFB316
 20959 001c 1C000000 		.4byte	.LFE316-.LFB316
 20960 0020 00000000 		.4byte	.LFB256
 20961 0024 78010000 		.4byte	.LFE256-.LFB256
 20962 0028 00000000 		.4byte	.LFB257
 20963 002c 08000000 		.4byte	.LFE257-.LFB257
 20964 0030 00000000 		.4byte	.LFB259
 20965 0034 20000000 		.4byte	.LFE259-.LFB259
 20966 0038 00000000 		.4byte	.LFB260
 20967 003c 0C000000 		.4byte	.LFE260-.LFB260
 20968 0040 00000000 		.4byte	.LFB261
 20969 0044 0C000000 		.4byte	.LFE261-.LFB261
 20970 0048 00000000 		.4byte	.LFB262
 20971 004c 0C000000 		.4byte	.LFE262-.LFB262
 20972 0050 00000000 		.4byte	.LFB263
 20973 0054 0C000000 		.4byte	.LFE263-.LFB263
 20974 0058 00000000 		.4byte	.LFB264
 20975 005c 0C000000 		.4byte	.LFE264-.LFB264
 20976 0060 00000000 		.4byte	.LFB265
 20977 0064 18000000 		.4byte	.LFE265-.LFB265
 20978 0068 00000000 		.4byte	.LFB266
 20979 006c 20000000 		.4byte	.LFE266-.LFB266
 20980 0070 00000000 		.4byte	.LFB279
 20981 0074 38000000 		.4byte	.LFE279-.LFB279
 20982 0078 00000000 		.4byte	.LFB280
 20983 007c 38000000 		.4byte	.LFE280-.LFB280
 20984 0080 00000000 		.4byte	.LFB281
 20985 0084 24000000 		.4byte	.LFE281-.LFB281
 20986 0088 00000000 		.4byte	.LFB282
 20987 008c 38000000 		.4byte	.LFE282-.LFB282
 20988 0090 00000000 		.4byte	.LFB283
 20989 0094 20000000 		.4byte	.LFE283-.LFB283
 20990 0098 00000000 		.4byte	.LFB284
 20991 009c 20000000 		.4byte	.LFE284-.LFB284
 20992 00a0 00000000 		.4byte	.LFB285
 20993 00a4 20000000 		.4byte	.LFE285-.LFB285
 20994 00a8 00000000 		.4byte	.LFB286
 20995 00ac 20000000 		.4byte	.LFE286-.LFB286
 20996 00b0 00000000 		.4byte	.LFB287
 20997 00b4 24000000 		.4byte	.LFE287-.LFB287
 20998 00b8 00000000 		.4byte	.LFB288
ARM GAS  /tmp/ccETYwEL.s 			page 371


 20999 00bc 24000000 		.4byte	.LFE288-.LFB288
 21000 00c0 00000000 		.4byte	.LFB289
 21001 00c4 38000000 		.4byte	.LFE289-.LFB289
 21002 00c8 00000000 		.4byte	.LFB290
 21003 00cc 38000000 		.4byte	.LFE290-.LFB290
 21004 00d0 00000000 		.4byte	.LFB291
 21005 00d4 24000000 		.4byte	.LFE291-.LFB291
 21006 00d8 00000000 		.4byte	.LFB292
 21007 00dc 24000000 		.4byte	.LFE292-.LFB292
 21008 00e0 00000000 		.4byte	.LFB293
 21009 00e4 4C000000 		.4byte	.LFE293-.LFB293
 21010 00e8 00000000 		.4byte	.LFB317
 21011 00ec 40010000 		.4byte	.LFE317-.LFB317
 21012 00f0 00000000 		.4byte	.LFB318
 21013 00f4 84050000 		.4byte	.LFE318-.LFB318
 21014 00f8 00000000 		.4byte	.LFB258
 21015 00fc DC000000 		.4byte	.LFE258-.LFB258
 21016 0100 00000000 		.4byte	.LFB311
 21017 0104 74000000 		.4byte	.LFE311-.LFB311
 21018 0108 00000000 		.4byte	.LFB294
 21019 010c 20000000 		.4byte	.LFE294-.LFB294
 21020 0110 00000000 		.4byte	.LFB295
 21021 0114 24000000 		.4byte	.LFE295-.LFB295
 21022 0118 00000000 		.4byte	.LFB296
 21023 011c 20000000 		.4byte	.LFE296-.LFB296
 21024 0120 00000000 		.4byte	.LFB297
 21025 0124 20000000 		.4byte	.LFE297-.LFB297
 21026 0128 00000000 		.4byte	.LFB298
 21027 012c 30000000 		.4byte	.LFE298-.LFB298
 21028 0130 00000000 		.4byte	.LFB299
 21029 0134 30000000 		.4byte	.LFE299-.LFB299
 21030 0138 00000000 		.4byte	.LFB300
 21031 013c 0C000000 		.4byte	.LFE300-.LFB300
 21032 0140 00000000 		.4byte	.LFB301
 21033 0144 4C000000 		.4byte	.LFE301-.LFB301
 21034 0148 00000000 		.4byte	.LFB302
 21035 014c 0C000000 		.4byte	.LFE302-.LFB302
 21036 0150 00000000 		.4byte	.LFB303
 21037 0154 50000000 		.4byte	.LFE303-.LFB303
 21038 0158 00000000 		.4byte	.LFB304
 21039 015c 0C000000 		.4byte	.LFE304-.LFB304
 21040 0160 00000000 		.4byte	.LFB305
 21041 0164 0C000000 		.4byte	.LFE305-.LFB305
 21042 0168 00000000 		.4byte	.LFB306
 21043 016c 74000000 		.4byte	.LFE306-.LFB306
 21044 0170 00000000 		.4byte	.LFB267
 21045 0174 5C000000 		.4byte	.LFE267-.LFB267
 21046 0178 00000000 		.4byte	.LFB277
 21047 017c 0C000000 		.4byte	.LFE277-.LFB277
 21048 0180 00000000 		.4byte	.LFB268
 21049 0184 5C000000 		.4byte	.LFE268-.LFB268
 21050 0188 00000000 		.4byte	.LFB269
 21051 018c 5C000000 		.4byte	.LFE269-.LFB269
 21052 0190 00000000 		.4byte	.LFB270
 21053 0194 5C000000 		.4byte	.LFE270-.LFB270
 21054 0198 00000000 		.4byte	.LFB271
 21055 019c 5C000000 		.4byte	.LFE271-.LFB271
ARM GAS  /tmp/ccETYwEL.s 			page 372


 21056 01a0 00000000 		.4byte	.LFB273
 21057 01a4 2C000000 		.4byte	.LFE273-.LFB273
 21058 01a8 00000000 		.4byte	.LFB278
 21059 01ac 0C000000 		.4byte	.LFE278-.LFB278
 21060 01b0 00000000 		.4byte	.LFB272
 21061 01b4 5C000000 		.4byte	.LFE272-.LFB272
 21062 01b8 00000000 		.4byte	.LFB274
 21063 01bc 14000000 		.4byte	.LFE274-.LFB274
 21064 01c0 00000000 		.4byte	.LFB275
 21065 01c4 26000000 		.4byte	.LFE275-.LFB275
 21066 01c8 00000000 		.4byte	.LFB276
 21067 01cc 34000000 		.4byte	.LFE276-.LFB276
 21068 01d0 00000000 		.4byte	.LFB307
 21069 01d4 24000000 		.4byte	.LFE307-.LFB307
 21070 01d8 00000000 		.4byte	.LFB308
 21071 01dc 10070000 		.4byte	.LFE308-.LFB308
 21072 01e0 00000000 		.4byte	.LFB309
 21073 01e4 14000000 		.4byte	.LFE309-.LFB309
 21074 01e8 00000000 		.4byte	0
 21075 01ec 00000000 		.4byte	0
 21076              		.section	.debug_ranges,"",%progbits
 21077              	.Ldebug_ranges0:
 21078 0000 04000000 		.4byte	.LBB117
 21079 0004 06000000 		.4byte	.LBE117
 21080 0008 08000000 		.4byte	.LBB121
 21081 000c 16000000 		.4byte	.LBE121
 21082 0010 2E000000 		.4byte	.LBB132
 21083 0014 30000000 		.4byte	.LBE132
 21084 0018 00000000 		.4byte	0
 21085 001c 00000000 		.4byte	0
 21086 0020 1A000000 		.4byte	.LBB122
 21087 0024 2E000000 		.4byte	.LBE122
 21088 0028 34000000 		.4byte	.LBB133
 21089 002c 40020000 		.4byte	.LBE133
 21090 0030 00000000 		.4byte	0
 21091 0034 00000000 		.4byte	0
 21092 0038 1A000000 		.4byte	.LBB123
 21093 003c 2E000000 		.4byte	.LBE123
 21094 0040 54000000 		.4byte	.LBB129
 21095 0044 58000000 		.4byte	.LBE129
 21096 0048 5E000000 		.4byte	.LBB130
 21097 004c 64000000 		.4byte	.LBE130
 21098 0050 68000000 		.4byte	.LBB131
 21099 0054 E0010000 		.4byte	.LBE131
 21100 0058 00000000 		.4byte	0
 21101 005c 00000000 		.4byte	0
 21102 0060 1A000000 		.4byte	.LBB124
 21103 0064 2E000000 		.4byte	.LBE124
 21104 0068 60000000 		.4byte	.LBB125
 21105 006c 64000000 		.4byte	.LBE125
 21106 0070 68000000 		.4byte	.LBB126
 21107 0074 D6000000 		.4byte	.LBE126
 21108 0078 D8000000 		.4byte	.LBB127
 21109 007c C0010000 		.4byte	.LBE127
 21110 0080 C6010000 		.4byte	.LBB128
 21111 0084 E0010000 		.4byte	.LBE128
 21112 0088 00000000 		.4byte	0
ARM GAS  /tmp/ccETYwEL.s 			page 373


 21113 008c 00000000 		.4byte	0
 21114 0090 02010000 		.4byte	.LBB135
 21115 0094 0E010000 		.4byte	.LBE135
 21116 0098 12010000 		.4byte	.LBB140
 21117 009c 18010000 		.4byte	.LBE140
 21118 00a0 68050000 		.4byte	.LBB149
 21119 00a4 6A050000 		.4byte	.LBE149
 21120 00a8 6E050000 		.4byte	.LBB150
 21121 00ac 74050000 		.4byte	.LBE150
 21122 00b0 00000000 		.4byte	0
 21123 00b4 00000000 		.4byte	0
 21124 00b8 4A010000 		.4byte	.LBB141
 21125 00bc 56010000 		.4byte	.LBE141
 21126 00c0 5A010000 		.4byte	.LBB146
 21127 00c4 60010000 		.4byte	.LBE146
 21128 00c8 78050000 		.4byte	.LBB151
 21129 00cc 7A050000 		.4byte	.LBE151
 21130 00d0 7E050000 		.4byte	.LBB152
 21131 00d4 84050000 		.4byte	.LBE152
 21132 00d8 00000000 		.4byte	0
 21133 00dc 00000000 		.4byte	0
 21134 00e0 00000000 		.4byte	.LBB153
 21135 00e4 0E000000 		.4byte	.LBE153
 21136 00e8 16000000 		.4byte	.LBB156
 21137 00ec 1A000000 		.4byte	.LBE156
 21138 00f0 00000000 		.4byte	0
 21139 00f4 00000000 		.4byte	0
 21140 00f8 3E000000 		.4byte	.LBB161
 21141 00fc 4C000000 		.4byte	.LBE161
 21142 0100 54000000 		.4byte	.LBB164
 21143 0104 5C000000 		.4byte	.LBE164
 21144 0108 00000000 		.4byte	0
 21145 010c 00000000 		.4byte	0
 21146 0110 3E000000 		.4byte	.LBB167
 21147 0114 4C000000 		.4byte	.LBE167
 21148 0118 54000000 		.4byte	.LBB170
 21149 011c 5C000000 		.4byte	.LBE170
 21150 0120 00000000 		.4byte	0
 21151 0124 00000000 		.4byte	0
 21152 0128 3E000000 		.4byte	.LBB173
 21153 012c 4C000000 		.4byte	.LBE173
 21154 0130 54000000 		.4byte	.LBB176
 21155 0134 5C000000 		.4byte	.LBE176
 21156 0138 00000000 		.4byte	0
 21157 013c 00000000 		.4byte	0
 21158 0140 10000000 		.4byte	.LBB177
 21159 0144 16000000 		.4byte	.LBE177
 21160 0148 20000000 		.4byte	.LBB181
 21161 014c 24000000 		.4byte	.LBE181
 21162 0150 2C000000 		.4byte	.LBB182
 21163 0154 34000000 		.4byte	.LBE182
 21164 0158 00000000 		.4byte	0
 21165 015c 00000000 		.4byte	0
 21166 0160 2C010000 		.4byte	.LBB183
 21167 0164 3C010000 		.4byte	.LBE183
 21168 0168 B8030000 		.4byte	.LBB210
 21169 016c C4030000 		.4byte	.LBE210
ARM GAS  /tmp/ccETYwEL.s 			page 374


 21170 0170 00000000 		.4byte	0
 21171 0174 00000000 		.4byte	0
 21172 0178 60010000 		.4byte	.LBB186
 21173 017c C4010000 		.4byte	.LBE186
 21174 0180 E2040000 		.4byte	.LBB263
 21175 0184 00050000 		.4byte	.LBE263
 21176 0188 00000000 		.4byte	0
 21177 018c 00000000 		.4byte	0
 21178 0190 EE010000 		.4byte	.LBB189
 21179 0194 64020000 		.4byte	.LBE189
 21180 0198 9A040000 		.4byte	.LBB259
 21181 019c A2040000 		.4byte	.LBE259
 21182 01a0 00000000 		.4byte	0
 21183 01a4 00000000 		.4byte	0
 21184 01a8 64020000 		.4byte	.LBB192
 21185 01ac 94020000 		.4byte	.LBE192
 21186 01b0 B6040000 		.4byte	.LBB261
 21187 01b4 CA040000 		.4byte	.LBE261
 21188 01b8 28050000 		.4byte	.LBB265
 21189 01bc C0050000 		.4byte	.LBE265
 21190 01c0 C2060000 		.4byte	.LBB268
 21191 01c4 10070000 		.4byte	.LBE268
 21192 01c8 00000000 		.4byte	0
 21193 01cc 00000000 		.4byte	0
 21194 01d0 94020000 		.4byte	.LBB203
 21195 01d4 9E030000 		.4byte	.LBE203
 21196 01d8 C0050000 		.4byte	.LBB266
 21197 01dc 98060000 		.4byte	.LBE266
 21198 01e0 00000000 		.4byte	0
 21199 01e4 00000000 		.4byte	0
 21200 01e8 A4020000 		.4byte	.LBB204
 21201 01ec 9E030000 		.4byte	.LBE204
 21202 01f0 C0050000 		.4byte	.LBB209
 21203 01f4 98060000 		.4byte	.LBE209
 21204 01f8 00000000 		.4byte	0
 21205 01fc 00000000 		.4byte	0
 21206 0200 86030000 		.4byte	.LBB205
 21207 0204 88030000 		.4byte	.LBE205
 21208 0208 9A030000 		.4byte	.LBB208
 21209 020c 9C030000 		.4byte	.LBE208
 21210 0210 00000000 		.4byte	0
 21211 0214 00000000 		.4byte	0
 21212 0218 C8030000 		.4byte	.LBB211
 21213 021c CA030000 		.4byte	.LBE211
 21214 0220 D2030000 		.4byte	.LBB216
 21215 0224 D4030000 		.4byte	.LBE216
 21216 0228 DA030000 		.4byte	.LBB217
 21217 022c E6030000 		.4byte	.LBE217
 21218 0230 B0040000 		.4byte	.LBB260
 21219 0234 B6040000 		.4byte	.LBE260
 21220 0238 00000000 		.4byte	0
 21221 023c 00000000 		.4byte	0
 21222 0240 02040000 		.4byte	.LBB218
 21223 0244 20040000 		.4byte	.LBE218
 21224 0248 CA040000 		.4byte	.LBB262
 21225 024c E2040000 		.4byte	.LBE262
 21226 0250 00050000 		.4byte	.LBB264
ARM GAS  /tmp/ccETYwEL.s 			page 375


 21227 0254 28050000 		.4byte	.LBE264
 21228 0258 AA060000 		.4byte	.LBB267
 21229 025c C2060000 		.4byte	.LBE267
 21230 0260 00000000 		.4byte	0
 21231 0264 00000000 		.4byte	0
 21232 0268 4E040000 		.4byte	.LBB229
 21233 026c 50040000 		.4byte	.LBE229
 21234 0270 54040000 		.4byte	.LBB238
 21235 0274 58040000 		.4byte	.LBE238
 21236 0278 00000000 		.4byte	0
 21237 027c 00000000 		.4byte	0
 21238 0280 84040000 		.4byte	.LBB244
 21239 0284 86040000 		.4byte	.LBE244
 21240 0288 88040000 		.4byte	.LBB253
 21241 028c 8C040000 		.4byte	.LBE253
 21242 0290 00000000 		.4byte	0
 21243 0294 00000000 		.4byte	0
 21244 0298 00000000 		.4byte	.LFB312
 21245 029c 40020000 		.4byte	.LFE312
 21246 02a0 00000000 		.4byte	.LFB316
 21247 02a4 1C000000 		.4byte	.LFE316
 21248 02a8 00000000 		.4byte	.LFB256
 21249 02ac 78010000 		.4byte	.LFE256
 21250 02b0 00000000 		.4byte	.LFB257
 21251 02b4 08000000 		.4byte	.LFE257
 21252 02b8 00000000 		.4byte	.LFB259
 21253 02bc 20000000 		.4byte	.LFE259
 21254 02c0 00000000 		.4byte	.LFB260
 21255 02c4 0C000000 		.4byte	.LFE260
 21256 02c8 00000000 		.4byte	.LFB261
 21257 02cc 0C000000 		.4byte	.LFE261
 21258 02d0 00000000 		.4byte	.LFB262
 21259 02d4 0C000000 		.4byte	.LFE262
 21260 02d8 00000000 		.4byte	.LFB263
 21261 02dc 0C000000 		.4byte	.LFE263
 21262 02e0 00000000 		.4byte	.LFB264
 21263 02e4 0C000000 		.4byte	.LFE264
 21264 02e8 00000000 		.4byte	.LFB265
 21265 02ec 18000000 		.4byte	.LFE265
 21266 02f0 00000000 		.4byte	.LFB266
 21267 02f4 20000000 		.4byte	.LFE266
 21268 02f8 00000000 		.4byte	.LFB279
 21269 02fc 38000000 		.4byte	.LFE279
 21270 0300 00000000 		.4byte	.LFB280
 21271 0304 38000000 		.4byte	.LFE280
 21272 0308 00000000 		.4byte	.LFB281
 21273 030c 24000000 		.4byte	.LFE281
 21274 0310 00000000 		.4byte	.LFB282
 21275 0314 38000000 		.4byte	.LFE282
 21276 0318 00000000 		.4byte	.LFB283
 21277 031c 20000000 		.4byte	.LFE283
 21278 0320 00000000 		.4byte	.LFB284
 21279 0324 20000000 		.4byte	.LFE284
 21280 0328 00000000 		.4byte	.LFB285
 21281 032c 20000000 		.4byte	.LFE285
 21282 0330 00000000 		.4byte	.LFB286
 21283 0334 20000000 		.4byte	.LFE286
ARM GAS  /tmp/ccETYwEL.s 			page 376


 21284 0338 00000000 		.4byte	.LFB287
 21285 033c 24000000 		.4byte	.LFE287
 21286 0340 00000000 		.4byte	.LFB288
 21287 0344 24000000 		.4byte	.LFE288
 21288 0348 00000000 		.4byte	.LFB289
 21289 034c 38000000 		.4byte	.LFE289
 21290 0350 00000000 		.4byte	.LFB290
 21291 0354 38000000 		.4byte	.LFE290
 21292 0358 00000000 		.4byte	.LFB291
 21293 035c 24000000 		.4byte	.LFE291
 21294 0360 00000000 		.4byte	.LFB292
 21295 0364 24000000 		.4byte	.LFE292
 21296 0368 00000000 		.4byte	.LFB293
 21297 036c 4C000000 		.4byte	.LFE293
 21298 0370 00000000 		.4byte	.LFB317
 21299 0374 40010000 		.4byte	.LFE317
 21300 0378 00000000 		.4byte	.LFB318
 21301 037c 84050000 		.4byte	.LFE318
 21302 0380 00000000 		.4byte	.LFB258
 21303 0384 DC000000 		.4byte	.LFE258
 21304 0388 00000000 		.4byte	.LFB311
 21305 038c 74000000 		.4byte	.LFE311
 21306 0390 00000000 		.4byte	.LFB294
 21307 0394 20000000 		.4byte	.LFE294
 21308 0398 00000000 		.4byte	.LFB295
 21309 039c 24000000 		.4byte	.LFE295
 21310 03a0 00000000 		.4byte	.LFB296
 21311 03a4 20000000 		.4byte	.LFE296
 21312 03a8 00000000 		.4byte	.LFB297
 21313 03ac 20000000 		.4byte	.LFE297
 21314 03b0 00000000 		.4byte	.LFB298
 21315 03b4 30000000 		.4byte	.LFE298
 21316 03b8 00000000 		.4byte	.LFB299
 21317 03bc 30000000 		.4byte	.LFE299
 21318 03c0 00000000 		.4byte	.LFB300
 21319 03c4 0C000000 		.4byte	.LFE300
 21320 03c8 00000000 		.4byte	.LFB301
 21321 03cc 4C000000 		.4byte	.LFE301
 21322 03d0 00000000 		.4byte	.LFB302
 21323 03d4 0C000000 		.4byte	.LFE302
 21324 03d8 00000000 		.4byte	.LFB303
 21325 03dc 50000000 		.4byte	.LFE303
 21326 03e0 00000000 		.4byte	.LFB304
 21327 03e4 0C000000 		.4byte	.LFE304
 21328 03e8 00000000 		.4byte	.LFB305
 21329 03ec 0C000000 		.4byte	.LFE305
 21330 03f0 00000000 		.4byte	.LFB306
 21331 03f4 74000000 		.4byte	.LFE306
 21332 03f8 00000000 		.4byte	.LFB267
 21333 03fc 5C000000 		.4byte	.LFE267
 21334 0400 00000000 		.4byte	.LFB277
 21335 0404 0C000000 		.4byte	.LFE277
 21336 0408 00000000 		.4byte	.LFB268
 21337 040c 5C000000 		.4byte	.LFE268
 21338 0410 00000000 		.4byte	.LFB269
 21339 0414 5C000000 		.4byte	.LFE269
 21340 0418 00000000 		.4byte	.LFB270
ARM GAS  /tmp/ccETYwEL.s 			page 377


 21341 041c 5C000000 		.4byte	.LFE270
 21342 0420 00000000 		.4byte	.LFB271
 21343 0424 5C000000 		.4byte	.LFE271
 21344 0428 00000000 		.4byte	.LFB273
 21345 042c 2C000000 		.4byte	.LFE273
 21346 0430 00000000 		.4byte	.LFB278
 21347 0434 0C000000 		.4byte	.LFE278
 21348 0438 00000000 		.4byte	.LFB272
 21349 043c 5C000000 		.4byte	.LFE272
 21350 0440 00000000 		.4byte	.LFB274
 21351 0444 14000000 		.4byte	.LFE274
 21352 0448 00000000 		.4byte	.LFB275
 21353 044c 26000000 		.4byte	.LFE275
 21354 0450 00000000 		.4byte	.LFB276
 21355 0454 34000000 		.4byte	.LFE276
 21356 0458 00000000 		.4byte	.LFB307
 21357 045c 24000000 		.4byte	.LFE307
 21358 0460 00000000 		.4byte	.LFB308
 21359 0464 10070000 		.4byte	.LFE308
 21360 0468 00000000 		.4byte	.LFB309
 21361 046c 14000000 		.4byte	.LFE309
 21362 0470 00000000 		.4byte	0
 21363 0474 00000000 		.4byte	0
 21364              		.section	.debug_line,"",%progbits
 21365              	.Ldebug_line0:
 21366 0000 AE0F0000 		.section	.debug_str,"MS",%progbits,1
 21366      02008405 
 21366      00000201 
 21366      FB0E0D00 
 21366      01010101 
 21367              	.LASF607:
 21368 0000 5553425F 		.ascii	"USB_STOP\000"
 21368      53544F50 
 21368      00
 21369              	.LASF149:
 21370 0009 706F7274 		.ascii	"port_intctx\000"
 21370      5F696E74 
 21370      63747800 
 21371              	.LASF278:
 21372 0015 6C5F6D61 		.ascii	"l_max_erpm_fbrake\000"
 21372      785F6572 
 21372      706D5F66 
 21372      6272616B 
 21372      6500
 21373              	.LASF171:
 21374 0027 63685F70 		.ascii	"ch_ptrsize\000"
 21374      74727369 
 21374      7A6500
 21375              	.LASF274:
 21376 0032 6C5F6162 		.ascii	"l_abs_current_max\000"
 21376      735F6375 
 21376      7272656E 
 21376      745F6D61 
 21376      7800
 21377              	.LASF841:
 21378 0044 5F6D6272 		.ascii	"_mbrtowc_state\000"
 21378      746F7763 
ARM GAS  /tmp/ccETYwEL.s 			page 378


 21378      5F737461 
 21378      746500
 21379              	.LASF466:
 21380 0053 43414E5F 		.ascii	"CAN_STARTING\000"
 21380      53544152 
 21380      54494E47 
 21380      00
 21381              	.LASF877:
 21382 0060 6D5F706F 		.ascii	"m_position_set\000"
 21382      73697469 
 21382      6F6E5F73 
 21382      657400
 21383              	.LASF1076:
 21384 006f 656E636F 		.ascii	"encoder_deinit\000"
 21384      6465725F 
 21384      6465696E 
 21384      697400
 21385              	.LASF1054:
 21386 007e 6D637077 		.ascii	"mcpwm_get_tot_current_filtered\000"
 21386      6D5F6765 
 21386      745F746F 
 21386      745F6375 
 21386      7272656E 
 21387              	.LASF31:
 21388 009d 6D73675F 		.ascii	"msg_t\000"
 21388      7400
 21389              	.LASF492:
 21390 00a3 4F504D4F 		.ascii	"OPMODE_SMBUS_DEVICE\000"
 21390      44455F53 
 21390      4D425553 
 21390      5F444556 
 21390      49434500 
 21391              	.LASF1012:
 21392 00b7 706F7274 		.ascii	"port_unlock_from_isr\000"
 21392      5F756E6C 
 21392      6F636B5F 
 21392      66726F6D 
 21392      5F697372 
 21393              	.LASF560:
 21394 00cc 55415254 		.ascii	"UART_TX_IDLE\000"
 21394      5F54585F 
 21394      49444C45 
 21394      00
 21395              	.LASF397:
 21396 00d9 434F4D4D 		.ascii	"COMM_DETECT_HALL_FOC\000"
 21396      5F444554 
 21396      4543545F 
 21396      48414C4C 
 21396      5F464F43 
 21397              	.LASF320:
 21398 00ee 666F635F 		.ascii	"foc_observer_gain_slow\000"
 21398      6F627365 
 21398      72766572 
 21398      5F676169 
 21398      6E5F736C 
 21399              	.LASF1018:
 21400 0105 62756666 		.ascii	"buffer_append_float32_auto\000"
ARM GAS  /tmp/ccETYwEL.s 			page 379


 21400      65725F61 
 21400      7070656E 
 21400      645F666C 
 21400      6F617433 
 21401              	.LASF666:
 21402 0120 44494550 		.ascii	"DIEPTXF0\000"
 21402      54584630 
 21402      00
 21403              	.LASF742:
 21404 0129 55534244 		.ascii	"USBD1\000"
 21404      3100
 21405              	.LASF465:
 21406 012f 43414E5F 		.ascii	"CAN_STOP\000"
 21406      53544F50 
 21406      00
 21407              	.LASF184:
 21408 0138 63665F6F 		.ascii	"cf_off_time\000"
 21408      66665F74 
 21408      696D6500 
 21409              	.LASF84:
 21410 0144 63685F73 		.ascii	"ch_system_t\000"
 21410      79737465 
 21410      6D5F7400 
 21411              	.LASF3:
 21412 0150 5F5F7569 		.ascii	"__uint8_t\000"
 21412      6E74385F 
 21412      7400
 21413              	.LASF156:
 21414 015a 77747365 		.ascii	"wtsemp\000"
 21414      6D7000
 21415              	.LASF367:
 21416 0161 5F426F6F 		.ascii	"_Bool\000"
 21416      6C00
 21417              	.LASF510:
 21418 0167 646D6172 		.ascii	"dmarx\000"
 21418      7800
 21419              	.LASF795:
 21420 016d 5F6D6273 		.ascii	"_mbstate\000"
 21420      74617465 
 21420      00
 21421              	.LASF774:
 21422 0176 5F617465 		.ascii	"_atexit\000"
 21422      78697400 
 21423              	.LASF1001:
 21424 017e 6D635F69 		.ascii	"mc_interface_dccal_done\000"
 21424      6E746572 
 21424      66616365 
 21424      5F646363 
 21424      616C5F64 
 21425              	.LASF685:
 21426 0196 72657376 		.ascii	"resvd700\000"
 21426      64373030 
 21426      00
 21427              	.LASF938:
 21428 019f 6162735F 		.ascii	"abs_current_filtered\000"
 21428      63757272 
 21428      656E745F 
ARM GAS  /tmp/ccETYwEL.s 			page 380


 21428      66696C74 
 21428      65726564 
 21429              	.LASF696:
 21430 01b4 44564255 		.ascii	"DVBUSDIS\000"
 21430      53444953 
 21430      00
 21431              	.LASF504:
 21432 01bd 6572726F 		.ascii	"errors\000"
 21432      727300
 21433              	.LASF550:
 21434 01c4 73706963 		.ascii	"spicallback_t\000"
 21434      616C6C62 
 21434      61636B5F 
 21434      7400
 21435              	.LASF80:
 21436 01d2 76745F73 		.ascii	"vt_systime\000"
 21436      79737469 
 21436      6D6500
 21437              	.LASF361:
 21438 01dd 6D5F6472 		.ascii	"m_drv8301_oc_adj\000"
 21438      76383330 
 21438      315F6F63 
 21438      5F61646A 
 21438      00
 21439              	.LASF605:
 21440 01ee 75736265 		.ascii	"usbep_t\000"
 21440      705F7400 
 21441              	.LASF764:
 21442 01f6 5F5F746D 		.ascii	"__tm_mon\000"
 21442      5F6D6F6E 
 21442      00
 21443              	.LASF772:
 21444 01ff 5F666E74 		.ascii	"_fntypes\000"
 21444      79706573 
 21444      00
 21445              	.LASF165:
 21446 0208 6D5F6E65 		.ascii	"m_next\000"
 21446      787400
 21447              	.LASF454:
 21448 020f 50434461 		.ascii	"PCData\000"
 21448      746100
 21449              	.LASF908:
 21450 0216 6C6F5F6D 		.ascii	"lo_min_mos\000"
 21450      696E5F6D 
 21450      6F7300
 21451              	.LASF284:
 21452 0221 6C5F736C 		.ascii	"l_slow_abs_current\000"
 21452      6F775F61 
 21452      62735F63 
 21452      75727265 
 21452      6E7400
 21453              	.LASF802:
 21454 0234 5F696E63 		.ascii	"_inc\000"
 21454      00
 21455              	.LASF775:
 21456 0239 5F696E64 		.ascii	"_ind\000"
 21456      00
ARM GAS  /tmp/ccETYwEL.s 			page 381


 21457              	.LASF670:
 21458 023e 47434346 		.ascii	"GCCFG\000"
 21458      4700
 21459              	.LASF273:
 21460 0244 6C5F696E 		.ascii	"l_in_current_min\000"
 21460      5F637572 
 21460      72656E74 
 21460      5F6D696E 
 21460      00
 21461              	.LASF141:
 21462 0255 42445452 		.ascii	"BDTR\000"
 21462      00
 21463              	.LASF502:
 21464 025a 49324343 		.ascii	"I2CConfig\000"
 21464      6F6E6669 
 21464      6700
 21465              	.LASF20:
 21466 0264 75696E74 		.ascii	"uint16_t\000"
 21466      31365F74 
 21466      00
 21467              	.LASF1041:
 21468 026d 6D637077 		.ascii	"mcpwm_foc_get_tachometer_abs_value\000"
 21468      6D5F666F 
 21468      635F6765 
 21468      745F7461 
 21468      63686F6D 
 21469              	.LASF1070:
 21470 0290 6D637077 		.ascii	"mcpwm_set_duty_noramp\000"
 21470      6D5F7365 
 21470      745F6475 
 21470      74795F6E 
 21470      6F72616D 
 21471              	.LASF511:
 21472 02a6 646D6174 		.ascii	"dmatx\000"
 21472      7800
 21473              	.LASF740:
 21474 02ac 736F665F 		.ascii	"sof_cb\000"
 21474      636200
 21475              	.LASF1024:
 21476 02b3 6D637077 		.ascii	"mcpwm_get_comm_step\000"
 21476      6D5F6765 
 21476      745F636F 
 21476      6D6D5F73 
 21476      74657000 
 21477              	.LASF781:
 21478 02c7 5F666C61 		.ascii	"_flags\000"
 21478      677300
 21479              	.LASF447:
 21480 02ce 6F737065 		.ascii	"ospeedr\000"
 21480      65647200 
 21481              	.LASF914:
 21482 02d6 74656D70 		.ascii	"temp_motor_accel_start\000"
 21482      5F6D6F74 
 21482      6F725F61 
 21482      6363656C 
 21482      5F737461 
 21483              	.LASF673:
ARM GAS  /tmp/ccETYwEL.s 			page 382


 21484 02ed 44494550 		.ascii	"DIEPTXF\000"
 21484      54584600 
 21485              	.LASF190:
 21486 02f5 656C5F6E 		.ascii	"el_next\000"
 21486      65787400 
 21487              	.LASF350:
 21488 02fd 63635F73 		.ascii	"cc_startup_boost_duty\000"
 21488      74617274 
 21488      75705F62 
 21488      6F6F7374 
 21488      5F647574 
 21489              	.LASF812:
 21490 0313 5F637674 		.ascii	"_cvtlen\000"
 21490      6C656E00 
 21491              	.LASF61:
 21492 031b 63685F74 		.ascii	"ch_threads_queue\000"
 21492      68726561 
 21492      64735F71 
 21492      75657565 
 21492      00
 21493              	.LASF855:
 21494 032c 5F5F6664 		.ascii	"__fdlibm_svid\000"
 21494      6C69626D 
 21494      5F737669 
 21494      6400
 21495              	.LASF275:
 21496 033a 6C5F6D69 		.ascii	"l_min_erpm\000"
 21496      6E5F6572 
 21496      706D00
 21497              	.LASF41:
 21498 0345 705F6E65 		.ascii	"p_newer\000"
 21498      77657200 
 21499              	.LASF683:
 21500 034d 48505254 		.ascii	"HPRT\000"
 21500      00
 21501              	.LASF1080:
 21502 0352 6D637077 		.ascii	"mcpwm_foc_init\000"
 21502      6D5F666F 
 21502      635F696E 
 21502      697400
 21503              	.LASF313:
 21504 0361 666F635F 		.ascii	"foc_encoder_offset\000"
 21504      656E636F 
 21504      6465725F 
 21504      6F666673 
 21504      657400
 21505              	.LASF968:
 21506 0374 6D635F69 		.ascii	"mc_interface_get_tot_current_directional\000"
 21506      6E746572 
 21506      66616365 
 21506      5F676574 
 21506      5F746F74 
 21507              	.LASF637:
 21508 039d 4843494E 		.ascii	"HCINT\000"
 21508      5400
 21509              	.LASF1048:
 21510 03a3 6D637077 		.ascii	"mcpwm_get_tot_current_in\000"
ARM GAS  /tmp/ccETYwEL.s 			page 383


 21510      6D5F6765 
 21510      745F746F 
 21510      745F6375 
 21510      7272656E 
 21511              	.LASF181:
 21512 03bc 63665F6F 		.ascii	"cf_off_flags\000"
 21512      66665F66 
 21512      6C616773 
 21512      00
 21513              	.LASF794:
 21514 03c9 5F6C6F63 		.ascii	"_lock\000"
 21514      6B00
 21515              	.LASF790:
 21516 03cf 5F6E6275 		.ascii	"_nbuf\000"
 21516      6600
 21517              	.LASF544:
 21518 03d5 5350495F 		.ascii	"SPI_STOP\000"
 21518      53544F50 
 21518      00
 21519              	.LASF212:
 21520 03de 4D435F53 		.ascii	"MC_STATE_DETECTING\000"
 21520      54415445 
 21520      5F444554 
 21520      45435449 
 21520      4E4700
 21521              	.LASF453:
 21522 03f1 50424461 		.ascii	"PBData\000"
 21522      746100
 21523              	.LASF935:
 21524 03f8 77726F6E 		.ascii	"wrong_voltage_iterations\000"
 21524      675F766F 
 21524      6C746167 
 21524      655F6974 
 21524      65726174 
 21525              	.LASF169:
 21526 0411 63685F73 		.ascii	"ch_size\000"
 21526      697A6500 
 21527              	.LASF679:
 21528 0419 48505458 		.ascii	"HPTXSTS\000"
 21528      53545300 
 21529              	.LASF446:
 21530 0421 6F747970 		.ascii	"otyper\000"
 21530      657200
 21531              	.LASF909:
 21532 0428 6C6F5F6D 		.ascii	"lo_max_mos\000"
 21532      61785F6D 
 21532      6F7300
 21533              	.LASF286:
 21534 0433 6C5F7465 		.ascii	"l_temp_fet_end\000"
 21534      6D705F66 
 21534      65745F65 
 21534      6E6400
 21535              	.LASF1083:
 21536 0442 6D637077 		.ascii	"mcpwm_init\000"
 21536      6D5F696E 
 21536      697400
 21537              	.LASF437:
ARM GAS  /tmp/ccETYwEL.s 			page 384


 21538 044d 4F545950 		.ascii	"OTYPER\000"
 21538      455200
 21539              	.LASF548:
 21540 0454 73706973 		.ascii	"spistate_t\000"
 21540      74617465 
 21540      5F7400
 21541              	.LASF1063:
 21542 045f 6D637077 		.ascii	"mcpwm_foc_get_duty_cycle_set\000"
 21542      6D5F666F 
 21542      635F6765 
 21542      745F6475 
 21542      74795F63 
 21543              	.LASF635:
 21544 047c 48434348 		.ascii	"HCCHAR\000"
 21544      415200
 21545              	.LASF771:
 21546 0483 5F64736F 		.ascii	"_dso_handle\000"
 21546      5F68616E 
 21546      646C6500 
 21547              	.LASF905:
 21548 048f 74696D65 		.ascii	"timer_thread\000"
 21548      725F7468 
 21548      72656164 
 21548      00
 21549              	.LASF486:
 21550 049c 4932435F 		.ascii	"I2C_ACTIVE_RX\000"
 21550      41435449 
 21550      56455F52 
 21550      5800
 21551              	.LASF36:
 21552 04aa 74687265 		.ascii	"thread_t\000"
 21552      61645F74 
 21552      00
 21553              	.LASF192:
 21554 04b3 656C5F65 		.ascii	"el_events\000"
 21554      76656E74 
 21554      7300
 21555              	.LASF478:
 21556 04bd 736C6565 		.ascii	"sleep_event\000"
 21556      705F6576 
 21556      656E7400 
 21557              	.LASF79:
 21558 04c9 63685F76 		.ascii	"ch_virtual_timers_list\000"
 21558      69727475 
 21558      616C5F74 
 21558      696D6572 
 21558      735F6C69 
 21559              	.LASF432:
 21560 04e0 76656374 		.ascii	"vector\000"
 21560      6F7200
 21561              	.LASF21:
 21562 04e7 696E7433 		.ascii	"int32_t\000"
 21562      325F7400 
 21563              	.LASF836:
 21564 04ef 5F776374 		.ascii	"_wctomb_state\000"
 21564      6F6D625F 
 21564      73746174 
ARM GAS  /tmp/ccETYwEL.s 			page 385


 21564      6500
 21565              	.LASF500:
 21566 04fd 636C6F63 		.ascii	"clock_speed\000"
 21566      6B5F7370 
 21566      65656400 
 21567              	.LASF35:
 21568 0509 73797374 		.ascii	"systime_t\000"
 21568      696D655F 
 21568      7400
 21569              	.LASF480:
 21570 0513 43414E44 		.ascii	"CANDriver\000"
 21570      72697665 
 21570      7200
 21571              	.LASF179:
 21572 051d 63665F6F 		.ascii	"cf_off_stklimit\000"
 21572      66665F73 
 21572      746B6C69 
 21572      6D697400 
 21573              	.LASF118:
 21574 052d 4D304152 		.ascii	"M0AR\000"
 21574      00
 21575              	.LASF252:
 21576 0532 44525638 		.ascii	"DRV8301_OC_LIMIT\000"
 21576      3330315F 
 21576      4F435F4C 
 21576      494D4954 
 21576      00
 21577              	.LASF1034:
 21578 0543 6D637077 		.ascii	"mcpwm_stop_pwm\000"
 21578      6D5F7374 
 21578      6F705F70 
 21578      776D00
 21579              	.LASF490:
 21580 0552 69326366 		.ascii	"i2cflags_t\000"
 21580      6C616773 
 21580      5F7400
 21581              	.LASF680:
 21582 055d 4841494E 		.ascii	"HAINT\000"
 21582      5400
 21583              	.LASF245:
 21584 0563 4641554C 		.ascii	"FAULT_CODE_OVER_TEMP_FET\000"
 21584      545F434F 
 21584      44455F4F 
 21584      5645525F 
 21584      54454D50 
 21585              	.LASF939:
 21586 057c 665F7361 		.ascii	"f_samp\000"
 21586      6D7000
 21587              	.LASF113:
 21588 0583 46413152 		.ascii	"FA1R\000"
 21588      00
 21589              	.LASF218:
 21590 0588 50574D5F 		.ascii	"PWM_MODE_BIPOLAR\000"
 21590      4D4F4445 
 21590      5F424950 
 21590      4F4C4152 
 21590      00
ARM GAS  /tmp/ccETYwEL.s 			page 386


 21591              	.LASF219:
 21592 0599 6D635F70 		.ascii	"mc_pwm_mode\000"
 21592      776D5F6D 
 21592      6F646500 
 21593              	.LASF577:
 21594 05a5 75617274 		.ascii	"uartecb_t\000"
 21594      6563625F 
 21594      7400
 21595              	.LASF677:
 21596 05af 48464E55 		.ascii	"HFNUM\000"
 21596      4D00
 21597              	.LASF208:
 21598 05b5 716E6F74 		.ascii	"qnotify_t\000"
 21598      6966795F 
 21598      7400
 21599              	.LASF1037:
 21600 05bf 6D637077 		.ascii	"mcpwm_foc_get_pid_pos_now\000"
 21600      6D5F666F 
 21600      635F6765 
 21600      745F7069 
 21600      645F706F 
 21601              	.LASF430:
 21602 05d9 69736869 		.ascii	"ishift\000"
 21602      667400
 21603              	.LASF898:
 21604 05e0 74696D65 		.ascii	"timer_thread_wa\000"
 21604      725F7468 
 21604      72656164 
 21604      5F776100 
 21605              	.LASF203:
 21606 05f0 715F746F 		.ascii	"q_top\000"
 21606      7000
 21607              	.LASF783:
 21608 05f6 5F6C6266 		.ascii	"_lbfsize\000"
 21608      73697A65 
 21608      00
 21609              	.LASF628:
 21610 05ff 75645F73 		.ascii	"ud_string\000"
 21610      7472696E 
 21610      6700
 21611              	.LASF503:
 21612 0609 49324344 		.ascii	"I2CDriver\000"
 21612      72697665 
 21612      7200
 21613              	.LASF485:
 21614 0613 4932435F 		.ascii	"I2C_ACTIVE_TX\000"
 21614      41435449 
 21614      56455F54 
 21614      5800
 21615              	.LASF433:
 21616 0621 73746D33 		.ascii	"stm32_dma_stream_t\000"
 21616      325F646D 
 21616      615F7374 
 21616      7265616D 
 21616      5F7400
 21617              	.LASF231:
 21618 0634 4F55545F 		.ascii	"OUT_AUX_MODE_OFF\000"
ARM GAS  /tmp/ccETYwEL.s 			page 387


 21618      4155585F 
 21618      4D4F4445 
 21618      5F4F4646 
 21618      00
 21619              	.LASF1023:
 21620 0645 63684576 		.ascii	"chEvtSignalI\000"
 21620      74536967 
 21620      6E616C49 
 21620      00
 21621              	.LASF689:
 21622 0652 72657376 		.ascii	"resvd80C\000"
 21622      64383043 
 21622      00
 21623              	.LASF737:
 21624 065b 6576656E 		.ascii	"event_cb\000"
 21624      745F6362 
 21624      00
 21625              	.LASF814:
 21626 0664 5F6E6577 		.ascii	"_new\000"
 21626      00
 21627              	.LASF656:
 21628 0669 474F5447 		.ascii	"GOTGCTL\000"
 21628      43544C00 
 21629              	.LASF593:
 21630 0671 6570306E 		.ascii	"ep0next\000"
 21630      65787400 
 21631              	.LASF631:
 21632 0679 75736265 		.ascii	"usbepcallback_t\000"
 21632      7063616C 
 21632      6C626163 
 21632      6B5F7400 
 21633              	.LASF489:
 21634 0689 69326361 		.ascii	"i2caddr_t\000"
 21634      6464725F 
 21634      7400
 21635              	.LASF87:
 21636 0693 76746C69 		.ascii	"vtlist\000"
 21636      737400
 21637              	.LASF917:
 21638 069a 6C6F5F6D 		.ascii	"lo_motor_temp_accel\000"
 21638      6F746F72 
 21638      5F74656D 
 21638      705F6163 
 21638      63656C00 
 21639              	.LASF515:
 21640 06ae 4943555F 		.ascii	"ICU_READY\000"
 21640      52454144 
 21640      5900
 21641              	.LASF123:
 21642 06b8 54524953 		.ascii	"TRISE\000"
 21642      4500
 21643              	.LASF695:
 21644 06be 72657376 		.ascii	"resvd824\000"
 21644      64383234 
 21644      00
 21645              	.LASF49:
 21646 06c7 705F7761 		.ascii	"p_waiting\000"
ARM GAS  /tmp/ccETYwEL.s 			page 388


 21646      6974696E 
 21646      6700
 21647              	.LASF902:
 21648 06d1 696E6465 		.ascii	"index\000"
 21648      7800
 21649              	.LASF522:
 21650 06d7 70636372 		.ascii	"pccrp\000"
 21650      7000
 21651              	.LASF200:
 21652 06dd 715F7761 		.ascii	"q_waiting\000"
 21652      6974696E 
 21652      6700
 21653              	.LASF95:
 21654 06e7 43414E5F 		.ascii	"CAN_TxMailBox_TypeDef\000"
 21654      54784D61 
 21654      696C426F 
 21654      785F5479 
 21654      70654465 
 21655              	.LASF86:
 21656 06fd 726C6973 		.ascii	"rlist\000"
 21656      7400
 21657              	.LASF57:
 21658 0703 74687265 		.ascii	"threads_list_t\000"
 21658      6164735F 
 21658      6C697374 
 21658      5F7400
 21659              	.LASF175:
 21660 0712 63665F6F 		.ascii	"cf_off_ctx\000"
 21660      66665F63 
 21660      747800
 21661              	.LASF209:
 21662 071d 696E7075 		.ascii	"input_queue_t\000"
 21662      745F7175 
 21662      6575655F 
 21662      7400
 21663              	.LASF1033:
 21664 072b 6D637077 		.ascii	"mcpwm_init_done\000"
 21664      6D5F696E 
 21664      69745F64 
 21664      6F6E6500 
 21665              	.LASF849:
 21666 073b 5F5F6C6F 		.ascii	"__lock\000"
 21666      636B00
 21667              	.LASF301:
 21668 0742 736C5F6D 		.ascii	"sl_min_erpm_cycle_int_limit\000"
 21668      696E5F65 
 21668      72706D5F 
 21668      6379636C 
 21668      655F696E 
 21669              	.LASF467:
 21670 075e 43414E5F 		.ascii	"CAN_READY\000"
 21670      52454144 
 21670      5900
 21671              	.LASF177:
 21672 0768 63665F6F 		.ascii	"cf_off_older\000"
 21672      66665F6F 
 21672      6C646572 
ARM GAS  /tmp/ccETYwEL.s 			page 389


 21672      00
 21673              	.LASF310:
 21674 0775 666F635F 		.ascii	"foc_current_ki\000"
 21674      63757272 
 21674      656E745F 
 21674      6B6900
 21675              	.LASF722:
 21676 0784 72787175 		.ascii	"rxqueued\000"
 21676      65756564 
 21676      00
 21677              	.LASF309:
 21678 078d 666F635F 		.ascii	"foc_current_kp\000"
 21678      63757272 
 21678      656E745F 
 21678      6B7000
 21679              	.LASF886:
 21680 079c 6D5F7374 		.ascii	"m_status_samples\000"
 21680      61747573 
 21680      5F73616D 
 21680      706C6573 
 21680      00
 21681              	.LASF533:
 21682 07ad 69637563 		.ascii	"icuchannel_t\000"
 21682      68616E6E 
 21682      656C5F74 
 21682      00
 21683              	.LASF469:
 21684 07ba 63616E73 		.ascii	"canstate_t\000"
 21684      74617465 
 21684      5F7400
 21685              	.LASF115:
 21686 07c5 7346696C 		.ascii	"sFilterRegister\000"
 21686      74657252 
 21686      65676973 
 21686      74657200 
 21687              	.LASF818:
 21688 07d5 5F5F7366 		.ascii	"__sf\000"
 21688      00
 21689              	.LASF694:
 21690 07da 72657376 		.ascii	"resvd820\000"
 21690      64383230 
 21690      00
 21691              	.LASF1105:
 21692 07e3 6D656D63 		.ascii	"memcpy\000"
 21692      707900
 21693              	.LASF499:
 21694 07ea 6F705F6D 		.ascii	"op_mode\000"
 21694      6F646500 
 21695              	.LASF835:
 21696 07f2 5F6D6274 		.ascii	"_mbtowc_state\000"
 21696      6F77635F 
 21696      73746174 
 21696      6500
 21697              	.LASF365:
 21698 0800 6D5F6E74 		.ascii	"m_ntc_motor_beta\000"
 21698      635F6D6F 
 21698      746F725F 
ARM GAS  /tmp/ccETYwEL.s 			page 390


 21698      62657461 
 21698      00
 21699              	.LASF946:
 21700 0811 76616C5F 		.ascii	"val_samp\000"
 21700      73616D70 
 21700      00
 21701              	.LASF482:
 21702 081a 4932435F 		.ascii	"I2C_UNINIT\000"
 21702      554E494E 
 21702      495400
 21703              	.LASF1075:
 21704 0825 6D637077 		.ascii	"mcpwm_foc_set_configuration\000"
 21704      6D5F666F 
 21704      635F7365 
 21704      745F636F 
 21704      6E666967 
 21705              	.LASF920:
 21706 0841 72706D5F 		.ascii	"rpm_pos_cut_end\000"
 21706      706F735F 
 21706      6375745F 
 21706      656E6400 
 21707              	.LASF30:
 21708 0851 74707269 		.ascii	"tprio_t\000"
 21708      6F5F7400 
 21709              	.LASF1044:
 21710 0859 6D637077 		.ascii	"mcpwm_get_tachometer_value\000"
 21710      6D5F6765 
 21710      745F7461 
 21710      63686F6D 
 21710      65746572 
 21711              	.LASF234:
 21712 0874 4F55545F 		.ascii	"OUT_AUX_MODE_ON_AFTER_10S\000"
 21712      4155585F 
 21712      4D4F4445 
 21712      5F4F4E5F 
 21712      41465445 
 21713              	.LASF698:
 21714 088e 72657376 		.ascii	"resvd830\000"
 21714      64383330 
 21714      00
 21715              	.LASF484:
 21716 0897 4932435F 		.ascii	"I2C_READY\000"
 21716      52454144 
 21716      5900
 21717              	.LASF700:
 21718 08a1 72657376 		.ascii	"resvd838\000"
 21718      64383338 
 21718      00
 21719              	.LASF498:
 21720 08aa 69326364 		.ascii	"i2cdutycycle_t\000"
 21720      75747963 
 21720      79636C65 
 21720      5F7400
 21721              	.LASF1050:
 21722 08b9 6D637077 		.ascii	"mcpwm_get_tot_current_directional_filtered\000"
 21722      6D5F6765 
 21722      745F746F 
ARM GAS  /tmp/ccETYwEL.s 			page 391


 21722      745F6375 
 21722      7272656E 
 21723              	.LASF701:
 21724 08e4 72657376 		.ascii	"resvd83C\000"
 21724      64383343 
 21724      00
 21725              	.LASF506:
 21726 08ed 74687265 		.ascii	"thread\000"
 21726      616400
 21727              	.LASF697:
 21728 08f4 44564255 		.ascii	"DVBUSPULSE\000"
 21728      5350554C 
 21728      534500
 21729              	.LASF596:
 21730 08ff 73657475 		.ascii	"setup\000"
 21730      7000
 21731              	.LASF543:
 21732 0905 5350495F 		.ascii	"SPI_UNINIT\000"
 21732      554E494E 
 21732      495400
 21733              	.LASF965:
 21734 0910 6D635F69 		.ascii	"mc_interface_get_tot_current_in_filtered\000"
 21734      6E746572 
 21734      66616365 
 21734      5F676574 
 21734      5F746F74 
 21735              	.LASF649:
 21736 0939 44545846 		.ascii	"DTXFSTS\000"
 21736      53545300 
 21737              	.LASF1082:
 21738 0941 6D637077 		.ascii	"mcpwm_foc_deinit\000"
 21738      6D5F666F 
 21738      635F6465 
 21738      696E6974 
 21738      00
 21739              	.LASF931:
 21740 0952 6D617863 		.ascii	"maxc\000"
 21740      00
 21741              	.LASF767:
 21742 0957 5F5F746D 		.ascii	"__tm_yday\000"
 21742      5F796461 
 21742      7900
 21743              	.LASF590:
 21744 0961 696E5F70 		.ascii	"in_params\000"
 21744      6172616D 
 21744      7300
 21745              	.LASF136:
 21746 096b 43434552 		.ascii	"CCER\000"
 21746      00
 21747              	.LASF130:
 21748 0970 49325350 		.ascii	"I2SPR\000"
 21748      5200
 21749              	.LASF228:
 21750 0976 464F435F 		.ascii	"FOC_SENSOR_MODE_ENCODER\000"
 21750      53454E53 
 21750      4F525F4D 
 21750      4F44455F 
ARM GAS  /tmp/ccETYwEL.s 			page 392


 21750      454E434F 
 21751              	.LASF860:
 21752 098e 6D5F6661 		.ascii	"m_fault_now\000"
 21752      756C745F 
 21752      6E6F7700 
 21753              	.LASF943:
 21754 099a 73616D70 		.ascii	"sample_last\000"
 21754      6C655F6C 
 21754      61737400 
 21755              	.LASF658:
 21756 09a6 47414842 		.ascii	"GAHBCFG\000"
 21756      43464700 
 21757              	.LASF743:
 21758 09ae 5F4C4F43 		.ascii	"_LOCK_T\000"
 21758      4B5F5400 
 21759              	.LASF702:
 21760 09b6 72657376 		.ascii	"resvd840\000"
 21760      64383430 
 21760      00
 21761              	.LASF872:
 21762 09bf 6D5F6D6F 		.ascii	"m_motor_iq_iterations\000"
 21762      746F725F 
 21762      69715F69 
 21762      74657261 
 21762      74696F6E 
 21763              	.LASF126:
 21764 09d5 43524350 		.ascii	"CRCPR\000"
 21764      5200
 21765              	.LASF254:
 21766 09db 44525638 		.ascii	"DRV8301_OC_REPORT_ONLY\000"
 21766      3330315F 
 21766      4F435F52 
 21766      45504F52 
 21766      545F4F4E 
 21767              	.LASF5:
 21768 09f2 5F5F696E 		.ascii	"__int16_t\000"
 21768      7431365F 
 21768      7400
 21769              	.LASF7:
 21770 09fc 5F5F7569 		.ascii	"__uint16_t\000"
 21770      6E743136 
 21770      5F7400
 21771              	.LASF388:
 21772 0a07 434F4D4D 		.ascii	"COMM_SAMPLE_PRINT\000"
 21772      5F53414D 
 21772      504C455F 
 21772      5052494E 
 21772      5400
 21773              	.LASF717:
 21774 0a19 74787175 		.ascii	"txqueued\000"
 21774      65756564 
 21774      00
 21775              	.LASF51:
 21776 0a22 705F6D73 		.ascii	"p_msg\000"
 21776      6700
 21777              	.LASF827:
 21778 0a28 5F756E75 		.ascii	"_unused_rand\000"
ARM GAS  /tmp/ccETYwEL.s 			page 393


 21778      7365645F 
 21778      72616E64 
 21778      00
 21779              	.LASF354:
 21780 0a35 6D5F6661 		.ascii	"m_fault_stop_time_ms\000"
 21780      756C745F 
 21780      73746F70 
 21780      5F74696D 
 21780      655F6D73 
 21781              	.LASF664:
 21782 0a4a 47525853 		.ascii	"GRXSTSP\000"
 21782      54535000 
 21783              	.LASF663:
 21784 0a52 47525853 		.ascii	"GRXSTSR\000"
 21784      54535200 
 21785              	.LASF119:
 21786 0a5a 4D314152 		.ascii	"M1AR\000"
 21786      00
 21787              	.LASF603:
 21788 0a5f 77616974 		.ascii	"wait\000"
 21788      00
 21789              	.LASF120:
 21790 0a64 444D415F 		.ascii	"DMA_Stream_TypeDef\000"
 21790      53747265 
 21790      616D5F54 
 21790      79706544 
 21790      656600
 21791              	.LASF989:
 21792 0a77 6D635F69 		.ascii	"mc_interface_set_pid_speed\000"
 21792      6E746572 
 21792      66616365 
 21792      5F736574 
 21792      5F706964 
 21793              	.LASF864:
 21794 0a92 6D5F6C6F 		.ascii	"m_lock_override_once\000"
 21794      636B5F6F 
 21794      76657272 
 21794      6964655F 
 21794      6F6E6365 
 21795              	.LASF610:
 21796 0aa7 5553425F 		.ascii	"USB_ACTIVE\000"
 21796      41435449 
 21796      564500
 21797              	.LASF342:
 21798 0ab2 735F7069 		.ascii	"s_pid_kd_filter\000"
 21798      645F6B64 
 21798      5F66696C 
 21798      74657200 
 21799              	.LASF936:
 21800 0ac2 63757272 		.ascii	"current_in\000"
 21800      656E745F 
 21800      696E00
 21801              	.LASF341:
 21802 0acd 735F7069 		.ascii	"s_pid_kd\000"
 21802      645F6B64 
 21802      00
 21803              	.LASF1072:
ARM GAS  /tmp/ccETYwEL.s 			page 394


 21804 0ad6 6D637077 		.ascii	"mcpwm_get_state\000"
 21804      6D5F6765 
 21804      745F7374 
 21804      61746500 
 21805              	.LASF651:
 21806 0ae6 73746D33 		.ascii	"stm32_otg_in_ep_t\000"
 21806      325F6F74 
 21806      675F696E 
 21806      5F65705F 
 21806      7400
 21807              	.LASF724:
 21808 0af8 7278636E 		.ascii	"rxcnt\000"
 21808      7400
 21809              	.LASF508:
 21810 0afe 7278646D 		.ascii	"rxdmamode\000"
 21810      616D6F64 
 21810      6500
 21811              	.LASF809:
 21812 0b08 5F726573 		.ascii	"_result_k\000"
 21812      756C745F 
 21812      6B00
 21813              	.LASF534:
 21814 0b12 6D6F6465 		.ascii	"mode\000"
 21814      00
 21815              	.LASF801:
 21816 0b17 5F737464 		.ascii	"_stderr\000"
 21816      65727200 
 21817              	.LASF875:
 21818 0b1f 6D5F7761 		.ascii	"m_watt_seconds\000"
 21818      74745F73 
 21818      65636F6E 
 21818      647300
 21819              	.LASF808:
 21820 0b2e 5F726573 		.ascii	"_result\000"
 21820      756C7400 
 21821              	.LASF527:
 21822 0b36 4943555F 		.ascii	"ICU_INPUT_ACTIVE_HIGH\000"
 21822      494E5055 
 21822      545F4143 
 21822      54495645 
 21822      5F484947 
 21823              	.LASF1062:
 21824 0b4c 6D637077 		.ascii	"mcpwm_get_duty_cycle_now\000"
 21824      6D5F6765 
 21824      745F6475 
 21824      74795F63 
 21824      79636C65 
 21825              	.LASF876:
 21826 0b65 6D5F7761 		.ascii	"m_watt_seconds_charged\000"
 21826      74745F73 
 21826      65636F6E 
 21826      64735F63 
 21826      68617267 
 21827              	.LASF1036:
 21828 0b7c 7574696C 		.ascii	"utils_norm_angle\000"
 21828      735F6E6F 
 21828      726D5F61 
ARM GAS  /tmp/ccETYwEL.s 			page 395


 21828      6E676C65 
 21828      00
 21829              	.LASF180:
 21830 0b8d 63665F6F 		.ascii	"cf_off_state\000"
 21830      66665F73 
 21830      74617465 
 21830      00
 21831              	.LASF553:
 21832 0b9a 73737061 		.ascii	"sspad\000"
 21832      6400
 21833              	.LASF509:
 21834 0ba0 7478646D 		.ascii	"txdmamode\000"
 21834      616D6F64 
 21834      6500
 21835              	.LASF316:
 21836 0baa 666F635F 		.ascii	"foc_motor_l\000"
 21836      6D6F746F 
 21836      725F6C00 
 21837              	.LASF317:
 21838 0bb6 666F635F 		.ascii	"foc_motor_r\000"
 21838      6D6F746F 
 21838      725F7200 
 21839              	.LASF766:
 21840 0bc2 5F5F746D 		.ascii	"__tm_wday\000"
 21840      5F776461 
 21840      7900
 21841              	.LASF243:
 21842 0bcc 4641554C 		.ascii	"FAULT_CODE_DRV\000"
 21842      545F434F 
 21842      44455F44 
 21842      525600
 21843              	.LASF768:
 21844 0bdb 5F5F746D 		.ascii	"__tm_isdst\000"
 21844      5F697364 
 21844      737400
 21845              	.LASF147:
 21846 0be6 73746B61 		.ascii	"stkalign_t\000"
 21846      6C69676E 
 21846      5F7400
 21847              	.LASF710:
 21848 0bf1 72785F66 		.ascii	"rx_fifo_size\000"
 21848      69666F5F 
 21848      73697A65 
 21848      00
 21849              	.LASF479:
 21850 0bfe 77616B65 		.ascii	"wakeup_event\000"
 21850      75705F65 
 21850      76656E74 
 21850      00
 21851              	.LASF74:
 21852 0c0b 76745F70 		.ascii	"vt_prev\000"
 21852      72657600 
 21853              	.LASF551:
 21854 0c13 656E645F 		.ascii	"end_cb\000"
 21854      636200
 21855              	.LASF1085:
 21856 0c1a 63685468 		.ascii	"chThdCreateStatic\000"
ARM GAS  /tmp/ccETYwEL.s 			page 396


 21856      64437265 
 21856      61746553 
 21856      74617469 
 21856      6300
 21857              	.LASF727:
 21858 0c2c 73657475 		.ascii	"setup_cb\000"
 21858      705F6362 
 21858      00
 21859              	.LASF4:
 21860 0c35 756E7369 		.ascii	"unsigned char\000"
 21860      676E6564 
 21860      20636861 
 21860      7200
 21861              	.LASF800:
 21862 0c43 5F737464 		.ascii	"_stdout\000"
 21862      6F757400 
 21863              	.LASF189:
 21864 0c4b 6576656E 		.ascii	"event_listener\000"
 21864      745F6C69 
 21864      7374656E 
 21864      657200
 21865              	.LASF343:
 21866 0c5a 735F7069 		.ascii	"s_pid_min_erpm\000"
 21866      645F6D69 
 21866      6E5F6572 
 21866      706D00
 21867              	.LASF473:
 21868 0c69 74787175 		.ascii	"txqueue\000"
 21868      65756500 
 21869              	.LASF161:
 21870 0c71 735F636E 		.ascii	"s_cnt\000"
 21870      7400
 21871              	.LASF62:
 21872 0c77 72656164 		.ascii	"ready_list_t\000"
 21872      795F6C69 
 21872      73745F74 
 21872      00
 21873              	.LASF58:
 21874 0c84 63685F74 		.ascii	"ch_thread\000"
 21874      68726561 
 21874      6400
 21875              	.LASF493:
 21876 0c8e 4F504D4F 		.ascii	"OPMODE_SMBUS_HOST\000"
 21876      44455F53 
 21876      4D425553 
 21876      5F484F53 
 21876      5400
 21877              	.LASF592:
 21878 0ca0 65703073 		.ascii	"ep0state\000"
 21878      74617465 
 21878      00
 21879              	.LASF842:
 21880 0ca9 5F6D6273 		.ascii	"_mbsrtowcs_state\000"
 21880      72746F77 
 21880      63735F73 
 21880      74617465 
 21880      00
ARM GAS  /tmp/ccETYwEL.s 			page 397


 21881              	.LASF758:
 21882 0cba 5F776473 		.ascii	"_wds\000"
 21882      00
 21883              	.LASF0:
 21884 0cbf 666C6F61 		.ascii	"float\000"
 21884      7400
 21885              	.LASF292:
 21886 0cc5 6C5F7761 		.ascii	"l_watt_max\000"
 21886      74745F6D 
 21886      617800
 21887              	.LASF468:
 21888 0cd0 43414E5F 		.ascii	"CAN_SLEEP\000"
 21888      534C4545 
 21888      5000
 21889              	.LASF311:
 21890 0cda 666F635F 		.ascii	"foc_f_sw\000"
 21890      665F7377 
 21890      00
 21891              	.LASF277:
 21892 0ce3 6C5F6572 		.ascii	"l_erpm_start\000"
 21892      706D5F73 
 21892      74617274 
 21892      00
 21893              	.LASF1065:
 21894 0cf0 6D637077 		.ascii	"mcpwm_foc_set_pid_pos\000"
 21894      6D5F666F 
 21894      635F7365 
 21894      745F7069 
 21894      645F706F 
 21895              	.LASF1051:
 21896 0d06 6D637077 		.ascii	"mcpwm_foc_get_tot_current_directional\000"
 21896      6D5F666F 
 21896      635F6765 
 21896      745F746F 
 21896      745F6375 
 21897              	.LASF966:
 21898 0d2c 6D635F69 		.ascii	"mc_interface_get_tot_current_in\000"
 21898      6E746572 
 21898      66616365 
 21898      5F676574 
 21898      5F746F74 
 21899              	.LASF464:
 21900 0d4c 43414E5F 		.ascii	"CAN_UNINIT\000"
 21900      554E494E 
 21900      495400
 21901              	.LASF81:
 21902 0d57 73797374 		.ascii	"system_debug_t\000"
 21902      656D5F64 
 21902      65627567 
 21902      5F7400
 21903              	.LASF285:
 21904 0d66 6C5F7465 		.ascii	"l_temp_fet_start\000"
 21904      6D705F66 
 21904      65745F73 
 21904      74617274 
 21904      00
 21905              	.LASF133:
ARM GAS  /tmp/ccETYwEL.s 			page 398


 21906 0d77 44494552 		.ascii	"DIER\000"
 21906      00
 21907              	.LASF40:
 21908 0d7c 705F6374 		.ascii	"p_ctx\000"
 21908      7800
 21909              	.LASF77:
 21910 0d82 76745F70 		.ascii	"vt_par\000"
 21910      617200
 21911              	.LASF565:
 21912 0d89 55415254 		.ascii	"UART_RX_ACTIVE\000"
 21912      5F52585F 
 21912      41435449 
 21912      564500
 21913              	.LASF999:
 21914 0d98 6D635F69 		.ascii	"mc_interface_set_pwm_callback\000"
 21914      6E746572 
 21914      66616365 
 21914      5F736574 
 21914      5F70776D 
 21915              	.LASF69:
 21916 0db6 725F6375 		.ascii	"r_current\000"
 21916      7272656E 
 21916      7400
 21917              	.LASF779:
 21918 0dc0 5F73697A 		.ascii	"_size\000"
 21918      6500
 21919              	.LASF394:
 21920 0dc6 434F4D4D 		.ascii	"COMM_DETECT_MOTOR_R_L\000"
 21920      5F444554 
 21920      4543545F 
 21920      4D4F544F 
 21920      525F525F 
 21921              	.LASF399:
 21922 0ddc 434F4D4D 		.ascii	"COMM_ALIVE\000"
 21922      5F414C49 
 21922      564500
 21923              	.LASF128:
 21924 0de7 54584352 		.ascii	"TXCRCR\000"
 21924      435200
 21925              	.LASF267:
 21926 0dee 636F6D6D 		.ascii	"comm_mode\000"
 21926      5F6D6F64 
 21926      6500
 21927              	.LASF861:
 21928 0df8 6D5F6967 		.ascii	"m_ignore_iterations\000"
 21928      6E6F7265 
 21928      5F697465 
 21928      72617469 
 21928      6F6E7300 
 21929              	.LASF1097:
 21930 0e0c 6D637077 		.ascii	"mcpwm_set_current\000"
 21930      6D5F7365 
 21930      745F6375 
 21930      7272656E 
 21930      7400
 21931              	.LASF561:
 21932 0e1e 55415254 		.ascii	"UART_TX_ACTIVE\000"
ARM GAS  /tmp/ccETYwEL.s 			page 399


 21932      5F54585F 
 21932      41435449 
 21932      564500
 21933              	.LASF244:
 21934 0e2d 4641554C 		.ascii	"FAULT_CODE_ABS_OVER_CURRENT\000"
 21934      545F434F 
 21934      44455F41 
 21934      42535F4F 
 21934      5645525F 
 21935              	.LASF319:
 21936 0e49 666F635F 		.ascii	"foc_observer_gain\000"
 21936      6F627365 
 21936      72766572 
 21936      5F676169 
 21936      6E00
 21937              	.LASF891:
 21938 0e5b 6D5F7361 		.ascii	"m_sample_int\000"
 21938      6D706C65 
 21938      5F696E74 
 21938      00
 21939              	.LASF497:
 21940 0e68 46415354 		.ascii	"FAST_DUTY_CYCLE_16_9\000"
 21940      5F445554 
 21940      595F4359 
 21940      434C455F 
 21940      31365F39 
 21941              	.LASF538:
 21942 0e7d 6F766572 		.ascii	"overflow_cb\000"
 21942      666C6F77 
 21942      5F636200 
 21943              	.LASF23:
 21944 0e89 75696E74 		.ascii	"uint64_t\000"
 21944      36345F74 
 21944      00
 21945              	.LASF186:
 21946 0e92 63685F64 		.ascii	"ch_debug\000"
 21946      65627567 
 21946      00
 21947              	.LASF107:
 21948 0e9b 464D3152 		.ascii	"FM1R\000"
 21948      00
 21949              	.LASF761:
 21950 0ea0 5F5F746D 		.ascii	"__tm_min\000"
 21950      5F6D696E 
 21950      00
 21951              	.LASF461:
 21952 0ea9 50414C43 		.ascii	"PALConfig\000"
 21952      6F6E6669 
 21952      6700
 21953              	.LASF632:
 21954 0eb3 75736265 		.ascii	"usbeventcb_t\000"
 21954      76656E74 
 21954      63625F74 
 21954      00
 21955              	.LASF994:
 21956 0ec0 6D635F69 		.ascii	"mc_interface_fault_to_string\000"
 21956      6E746572 
ARM GAS  /tmp/ccETYwEL.s 			page 400


 21956      66616365 
 21956      5F666175 
 21956      6C745F74 
 21957              	.LASF765:
 21958 0edd 5F5F746D 		.ascii	"__tm_year\000"
 21958      5F796561 
 21958      7200
 21959              	.LASF188:
 21960 0ee7 6576656E 		.ascii	"event_listener_t\000"
 21960      745F6C69 
 21960      7374656E 
 21960      65725F74 
 21960      00
 21961              	.LASF960:
 21962 0ef8 6D635F69 		.ascii	"mc_interface_read_reset_avg_motor_current\000"
 21962      6E746572 
 21962      66616365 
 21962      5F726561 
 21962      645F7265 
 21963              	.LASF791:
 21964 0f22 5F626C6B 		.ascii	"_blksize\000"
 21964      73697A65 
 21964      00
 21965              	.LASF711:
 21966 0f2b 6F74675F 		.ascii	"otg_ram_size\000"
 21966      72616D5F 
 21966      73697A65 
 21966      00
 21967              	.LASF713:
 21968 0f38 73746D33 		.ascii	"stm32_otg_params_t\000"
 21968      325F6F74 
 21968      675F7061 
 21968      72616D73 
 21968      5F7400
 21969              	.LASF705:
 21970 0f4b 72657376 		.ascii	"resvdD00\000"
 21970      64443030 
 21970      00
 21971              	.LASF127:
 21972 0f54 52584352 		.ascii	"RXCRCR\000"
 21972      435200
 21973              	.LASF574:
 21974 0f5b 72786275 		.ascii	"rxbuf\000"
 21974      6600
 21975              	.LASF661:
 21976 0f61 47494E54 		.ascii	"GINTSTS\000"
 21976      53545300 
 21977              	.LASF162:
 21978 0f69 63685F6D 		.ascii	"ch_mutex\000"
 21978      75746578 
 21978      00
 21979              	.LASF786:
 21980 0f72 5F777269 		.ascii	"_write\000"
 21980      746500
 21981              	.LASF866:
 21982 0f79 6D5F696E 		.ascii	"m_input_current_sum\000"
 21982      7075745F 
ARM GAS  /tmp/ccETYwEL.s 			page 401


 21982      63757272 
 21982      656E745F 
 21982      73756D00 
 21983              	.LASF476:
 21984 0f8d 7478656D 		.ascii	"txempty_event\000"
 21984      7074795F 
 21984      6576656E 
 21984      7400
 21985              	.LASF344:
 21986 0f9b 735F7069 		.ascii	"s_pid_allow_braking\000"
 21986      645F616C 
 21986      6C6F775F 
 21986      6272616B 
 21986      696E6700 
 21987              	.LASF458:
 21988 0faf 50474461 		.ascii	"PGData\000"
 21988      746100
 21989              	.LASF1100:
 21990 0fb6 474E5520 		.ascii	"GNU C99 7.3.1 20180622 (release) [ARM/embedded-7-br"
 21990      43393920 
 21990      372E332E 
 21990      31203230 
 21990      31383036 
 21991 0fe9 616E6368 		.ascii	"anch revision 261907] -mcpu=cortex-m4 -mfloat-abi=h"
 21991      20726576 
 21991      6973696F 
 21991      6E203236 
 21991      31393037 
 21992 101c 61726420 		.ascii	"ard -mfpu=fpv4-sp-d16 -mno-thumb-interwork -mthumb "
 21992      2D6D6670 
 21992      753D6670 
 21992      76342D73 
 21992      702D6431 
 21993 104f 2D676764 		.ascii	"-ggdb -O2 -std=gnu99 -fomit-frame-pointer -falign-f"
 21993      62202D4F 
 21993      32202D73 
 21993      74643D67 
 21993      6E753939 
 21994 1082 756E6374 		.ascii	"unctions=16 -ffunction-sections -fdata-sections -fn"
 21994      696F6E73 
 21994      3D313620 
 21994      2D666675 
 21994      6E637469 
 21995 10b5 6F2D636F 		.ascii	"o-common -fsingle-precision-constant\000"
 21995      6D6D6F6E 
 21995      202D6673 
 21995      696E676C 
 21995      652D7072 
 21996              	.LASF840:
 21997 10da 5F6D6272 		.ascii	"_mbrlen_state\000"
 21997      6C656E5F 
 21997      73746174 
 21997      6500
 21998              	.LASF1017:
 21999 10e8 76616C75 		.ascii	"value\000"
 21999      6500
 22000              	.LASF224:
ARM GAS  /tmp/ccETYwEL.s 			page 402


 22001 10ee 53454E53 		.ascii	"SENSOR_MODE_SENSORED\000"
 22001      4F525F4D 
 22001      4F44455F 
 22001      53454E53 
 22001      4F524544 
 22002              	.LASF176:
 22003 1103 63665F6F 		.ascii	"cf_off_newer\000"
 22003      66665F6E 
 22003      65776572 
 22003      00
 22004              	.LASF760:
 22005 1110 5F5F746D 		.ascii	"__tm_sec\000"
 22005      5F736563 
 22005      00
 22006              	.LASF690:
 22007 1119 44494550 		.ascii	"DIEPMSK\000"
 22007      4D534B00 
 22008              	.LASF657:
 22009 1121 474F5447 		.ascii	"GOTGINT\000"
 22009      494E5400 
 22010              	.LASF556:
 22011 1129 55415254 		.ascii	"UART_UNINIT\000"
 22011      5F554E49 
 22011      4E495400 
 22012              	.LASF729:
 22013 1135 6F75745F 		.ascii	"out_cb\000"
 22013      636200
 22014              	.LASF681:
 22015 113c 4841494E 		.ascii	"HAINTMSK\000"
 22015      544D534B 
 22015      00
 22016              	.LASF591:
 22017 1145 6F75745F 		.ascii	"out_params\000"
 22017      70617261 
 22017      6D7300
 22018              	.LASF882:
 22019 1150 6D5F7068 		.ascii	"m_ph1_samples\000"
 22019      315F7361 
 22019      6D706C65 
 22019      7300
 22020              	.LASF799:
 22021 115e 5F737464 		.ascii	"_stdin\000"
 22021      696E00
 22022              	.LASF883:
 22023 1165 6D5F7068 		.ascii	"m_ph2_samples\000"
 22023      325F7361 
 22023      6D706C65 
 22023      7300
 22024              	.LASF847:
 22025 1173 5F6E6D61 		.ascii	"_nmalloc\000"
 22025      6C6C6F63 
 22025      00
 22026              	.LASF540:
 22027 117c 64696572 		.ascii	"dier\000"
 22027      00
 22028              	.LASF678:
 22029 1181 72657376 		.ascii	"resvd40C\000"
ARM GAS  /tmp/ccETYwEL.s 			page 403


 22029      64343043 
 22029      00
 22030              	.LASF923:
 22031 118a 72706D5F 		.ascii	"rpm_neg_cut_end\000"
 22031      6E65675F 
 22031      6375745F 
 22031      656E6400 
 22032              	.LASF414:
 22033 119a 74696D5F 		.ascii	"tim_val_samp\000"
 22033      76616C5F 
 22033      73616D70 
 22033      00
 22034              	.LASF964:
 22035 11a7 6D635F69 		.ascii	"mc_interface_get_tachometer_value\000"
 22035      6E746572 
 22035      66616365 
 22035      5F676574 
 22035      5F746163 
 22036              	.LASF71:
 22037 11c9 76697274 		.ascii	"virtual_timer_t\000"
 22037      75616C5F 
 22037      74696D65 
 22037      725F7400 
 22038              	.LASF66:
 22039 11d9 725F6374 		.ascii	"r_ctx\000"
 22039      7800
 22040              	.LASF73:
 22041 11df 76745F6E 		.ascii	"vt_next\000"
 22041      65787400 
 22042              	.LASF980:
 22043 11e7 6D635F69 		.ascii	"mc_interface_brake_now\000"
 22043      6E746572 
 22043      66616365 
 22043      5F627261 
 22043      6B655F6E 
 22044              	.LASF372:
 22045 11fe 434F4D4D 		.ascii	"COMM_WRITE_NEW_APP_DATA\000"
 22045      5F575249 
 22045      54455F4E 
 22045      45575F41 
 22045      50505F44 
 22046              	.LASF371:
 22047 1216 434F4D4D 		.ascii	"COMM_ERASE_NEW_APP\000"
 22047      5F455241 
 22047      53455F4E 
 22047      45575F41 
 22047      505000
 22048              	.LASF25:
 22049 1229 7274636E 		.ascii	"rtcnt_t\000"
 22049      745F7400 
 22050              	.LASF505:
 22051 1231 6D757465 		.ascii	"mutex\000"
 22051      7800
 22052              	.LASF225:
 22053 1237 53454E53 		.ascii	"SENSOR_MODE_HYBRID\000"
 22053      4F525F4D 
 22053      4F44455F 
ARM GAS  /tmp/ccETYwEL.s 			page 404


 22053      48594252 
 22053      494400
 22054              	.LASF360:
 22055 124a 6D5F6472 		.ascii	"m_drv8301_oc_mode\000"
 22055      76383330 
 22055      315F6F63 
 22055      5F6D6F64 
 22055      6500
 22056              	.LASF294:
 22057 125c 6C6F5F63 		.ascii	"lo_current_max\000"
 22057      75727265 
 22057      6E745F6D 
 22057      617800
 22058              	.LASF314:
 22059 126b 666F635F 		.ascii	"foc_encoder_inverted\000"
 22059      656E636F 
 22059      6465725F 
 22059      696E7665 
 22059      72746564 
 22060              	.LASF351:
 22061 1280 63635F6D 		.ascii	"cc_min_current\000"
 22061      696E5F63 
 22061      75727265 
 22061      6E7400
 22062              	.LASF602:
 22063 128f 74787065 		.ascii	"txpending\000"
 22063      6E64696E 
 22063      6700
 22064              	.LASF249:
 22065 1299 53454E53 		.ascii	"SENSOR_PORT_MODE_ABI\000"
 22065      4F525F50 
 22065      4F52545F 
 22065      4D4F4445 
 22065      5F414249 
 22066              	.LASF1101:
 22067 12ae 6D635F69 		.ascii	"mc_interface.c\000"
 22067      6E746572 
 22067      66616365 
 22067      2E6300
 22068              	.LASF435:
 22069 12bd 636C6561 		.ascii	"clear\000"
 22069      7200
 22070              	.LASF525:
 22071 12c3 43435852 		.ascii	"CCXR\000"
 22071      00
 22072              	.LASF948:
 22073 12c8 66646174 		.ascii	"fdata\000"
 22073      6100
 22074              	.LASF116:
 22075 12ce 43414E5F 		.ascii	"CAN_TypeDef\000"
 22075      54797065 
 22075      44656600 
 22076              	.LASF744:
 22077 12da 5F6F6666 		.ascii	"_off_t\000"
 22077      5F7400
 22078              	.LASF884:
 22079 12e1 6D5F7068 		.ascii	"m_ph3_samples\000"
ARM GAS  /tmp/ccETYwEL.s 			page 405


 22079      335F7361 
 22079      6D706C65 
 22079      7300
 22080              	.LASF645:
 22081 12ef 72657376 		.ascii	"resvd4\000"
 22081      643400
 22082              	.LASF636:
 22083 12f6 72657376 		.ascii	"resvd8\000"
 22083      643800
 22084              	.LASF24:
 22085 12fd 73697A65 		.ascii	"size_t\000"
 22085      5F7400
 22086              	.LASF830:
 22087 1304 5F6C6F63 		.ascii	"_localtime_buf\000"
 22087      616C7469 
 22087      6D655F62 
 22087      756600
 22088              	.LASF250:
 22089 1313 53454E53 		.ascii	"SENSOR_PORT_MODE_AS5047_SPI\000"
 22089      4F525F50 
 22089      4F52545F 
 22089      4D4F4445 
 22089      5F415335 
 22090              	.LASF749:
 22091 132f 5F5F636F 		.ascii	"__count\000"
 22091      756E7400 
 22092              	.LASF261:
 22093 1337 44454255 		.ascii	"DEBUG_SAMPLING_TRIGGER_FAULT\000"
 22093      475F5341 
 22093      4D504C49 
 22093      4E475F54 
 22093      52494747 
 22094              	.LASF18:
 22095 1354 75696E74 		.ascii	"uint8_t\000"
 22095      385F7400 
 22096              	.LASF640:
 22097 135c 72657376 		.ascii	"resvd14\000"
 22097      64313400 
 22098              	.LASF970:
 22099 1364 6D635F69 		.ascii	"mc_interface_get_tot_current\000"
 22099      6E746572 
 22099      66616365 
 22099      5F676574 
 22099      5F746F74 
 22100              	.LASF641:
 22101 1381 72657376 		.ascii	"resvd18\000"
 22101      64313800 
 22102              	.LASF785:
 22103 1389 5F726561 		.ascii	"_read\000"
 22103      6400
 22104              	.LASF68:
 22105 138f 725F6F6C 		.ascii	"r_older\000"
 22105      64657200 
 22106              	.LASF495:
 22107 1397 5354445F 		.ascii	"STD_DUTY_CYCLE\000"
 22107      44555459 
 22107      5F435943 
ARM GAS  /tmp/ccETYwEL.s 			page 406


 22107      4C4500
 22108              	.LASF38:
 22109 13a6 705F7072 		.ascii	"p_prev\000"
 22109      657600
 22110              	.LASF178:
 22111 13ad 63665F6F 		.ascii	"cf_off_name\000"
 22111      66665F6E 
 22111      616D6500 
 22112              	.LASF395:
 22113 13b9 434F4D4D 		.ascii	"COMM_DETECT_MOTOR_FLUX_LINKAGE\000"
 22113      5F444554 
 22113      4543545F 
 22113      4D4F544F 
 22113      525F464C 
 22114              	.LASF1032:
 22115 13d8 6D637077 		.ascii	"mcpwm_foc_init_done\000"
 22115      6D5F666F 
 22115      635F696E 
 22115      69745F64 
 22115      6F6E6500 
 22116              	.LASF699:
 22117 13ec 44494550 		.ascii	"DIEPEMPMSK\000"
 22117      454D504D 
 22117      534B00
 22118              	.LASF299:
 22119 13f7 6C6F5F63 		.ascii	"lo_current_motor_min_now\000"
 22119      75727265 
 22119      6E745F6D 
 22119      6F746F72 
 22119      5F6D696E 
 22120              	.LASF644:
 22121 1410 44494550 		.ascii	"DIEPCTL\000"
 22121      43544C00 
 22122              	.LASF892:
 22123 1418 6D5F7361 		.ascii	"m_sample_mode\000"
 22123      6D706C65 
 22123      5F6D6F64 
 22123      6500
 22124              	.LASF281:
 22125 1426 6C5F6D61 		.ascii	"l_max_vin\000"
 22125      785F7669 
 22125      6E00
 22126              	.LASF194:
 22127 1430 656C5F77 		.ascii	"el_wflags\000"
 22127      666C6167 
 22127      7300
 22128              	.LASF600:
 22129 143a 6F746770 		.ascii	"otgparams\000"
 22129      6172616D 
 22129      7300
 22130              	.LASF153:
 22131 1444 65786974 		.ascii	"exitcode\000"
 22131      636F6465 
 22131      00
 22132              	.LASF455:
 22133 144d 50444461 		.ascii	"PDData\000"
 22133      746100
ARM GAS  /tmp/ccETYwEL.s 			page 407


 22134              	.LASF1045:
 22135 1454 6D637077 		.ascii	"mcpwm_foc_get_tot_current_in_filtered\000"
 22135      6D5F666F 
 22135      635F6765 
 22135      745F746F 
 22135      745F6375 
 22136              	.LASF813:
 22137 147a 5F637674 		.ascii	"_cvtbuf\000"
 22137      62756600 
 22138              	.LASF733:
 22139 1482 6F75745F 		.ascii	"out_state\000"
 22139      73746174 
 22139      6500
 22140              	.LASF198:
 22141 148c 696F5F71 		.ascii	"io_queue_t\000"
 22141      75657565 
 22141      5F7400
 22142              	.LASF803:
 22143 1497 5F656D65 		.ascii	"_emergency\000"
 22143      7267656E 
 22143      637900
 22144              	.LASF925:
 22145 14a2 6C6F5F6D 		.ascii	"lo_min\000"
 22145      696E00
 22146              	.LASF915:
 22147 14a9 74656D70 		.ascii	"temp_motor_accel_end\000"
 22147      5F6D6F74 
 22147      6F725F61 
 22147      6363656C 
 22147      5F656E64 
 22148              	.LASF959:
 22149 14be 6D635F69 		.ascii	"mc_interface_read_reset_avg_input_current\000"
 22149      6E746572 
 22149      66616365 
 22149      5F726561 
 22149      645F7265 
 22150              	.LASF483:
 22151 14e8 4932435F 		.ascii	"I2C_STOP\000"
 22151      53544F50 
 22151      00
 22152              	.LASF507:
 22153 14f1 61646472 		.ascii	"addr\000"
 22153      00
 22154              	.LASF491:
 22155 14f6 4F504D4F 		.ascii	"OPMODE_I2C\000"
 22155      44455F49 
 22155      324300
 22156              	.LASF101:
 22157 1501 52463052 		.ascii	"RF0R\000"
 22157      00
 22158              	.LASF899:
 22159 1506 73616D70 		.ascii	"sample_send_thread_wa\000"
 22159      6C655F73 
 22159      656E645F 
 22159      74687265 
 22159      61645F77 
 22160              	.LASF477:
ARM GAS  /tmp/ccETYwEL.s 			page 408


 22161 151c 6572726F 		.ascii	"error_event\000"
 22161      725F6576 
 22161      656E7400 
 22162              	.LASF374:
 22163 1528 434F4D4D 		.ascii	"COMM_SET_DUTY\000"
 22163      5F534554 
 22163      5F445554 
 22163      5900
 22164              	.LASF438:
 22165 1536 4F535045 		.ascii	"OSPEEDR\000"
 22165      45445200 
 22166              	.LASF668:
 22167 153e 72657376 		.ascii	"resvd30\000"
 22167      64333000 
 22168              	.LASF748:
 22169 1546 5F5F7763 		.ascii	"__wchb\000"
 22169      686200
 22170              	.LASF669:
 22171 154d 72657376 		.ascii	"resvd34\000"
 22171      64333400 
 22172              	.LASF282:
 22173 1555 6C5F6261 		.ascii	"l_battery_cut_start\000"
 22173      74746572 
 22173      795F6375 
 22173      745F7374 
 22173      61727400 
 22174              	.LASF1067:
 22175 1569 6D637077 		.ascii	"mcpwm_foc_set_pid_speed\000"
 22175      6D5F666F 
 22175      635F7365 
 22175      745F7069 
 22175      645F7370 
 22176              	.LASF762:
 22177 1581 5F5F746D 		.ascii	"__tm_hour\000"
 22177      5F686F75 
 22177      7200
 22178              	.LASF283:
 22179 158b 6C5F6261 		.ascii	"l_battery_cut_end\000"
 22179      74746572 
 22179      795F6375 
 22179      745F656E 
 22179      6400
 22180              	.LASF427:
 22181 159d 6D637077 		.ascii	"mcpwm_vzero\000"
 22181      6D5F767A 
 22181      65726F00 
 22182              	.LASF280:
 22183 15a9 6C5F6D69 		.ascii	"l_min_vin\000"
 22183      6E5F7669 
 22183      6E00
 22184              	.LASF618:
 22185 15b3 5553425F 		.ascii	"USB_EP0_ERROR\000"
 22185      4550305F 
 22185      4552524F 
 22185      5200
 22186              	.LASF1058:
 22187 15c1 6D637077 		.ascii	"mcpwm_get_rpm\000"
ARM GAS  /tmp/ccETYwEL.s 			page 409


 22187      6D5F6765 
 22187      745F7270 
 22187      6D00
 22188              	.LASF383:
 22189 15cf 434F4D4D 		.ascii	"COMM_GET_MCCONF\000"
 22189      5F474554 
 22189      5F4D4343 
 22189      4F4E4600 
 22190              	.LASF746:
 22191 15df 77696E74 		.ascii	"wint_t\000"
 22191      5F7400
 22192              	.LASF1053:
 22193 15e6 6D637077 		.ascii	"mcpwm_foc_get_tot_current_filtered\000"
 22193      6D5F666F 
 22193      635F6765 
 22193      745F746F 
 22193      745F6375 
 22194              	.LASF331:
 22195 1609 666F635F 		.ascii	"foc_hall_table\000"
 22195      68616C6C 
 22195      5F746162 
 22195      6C6500
 22196              	.LASF102:
 22197 1618 52463152 		.ascii	"RF1R\000"
 22197      00
 22198              	.LASF381:
 22199 161d 434F4D4D 		.ascii	"COMM_SET_SERVO_POS\000"
 22199      5F534554 
 22199      5F534552 
 22199      564F5F50 
 22199      4F5300
 22200              	.LASF707:
 22201 1630 72657376 		.ascii	"resvdE04\000"
 22201      64453034 
 22201      00
 22202              	.LASF712:
 22203 1639 6E756D5F 		.ascii	"num_endpoints\000"
 22203      656E6470 
 22203      6F696E74 
 22203      7300
 22204              	.LASF977:
 22205 1647 6D635F69 		.ascii	"mc_interface_get_duty_cycle_now\000"
 22205      6E746572 
 22205      66616365 
 22205      5F676574 
 22205      5F647574 
 22206              	.LASF400:
 22207 1667 434F4D4D 		.ascii	"COMM_GET_DECODED_PPM\000"
 22207      5F474554 
 22207      5F444543 
 22207      4F444544 
 22207      5F50504D 
 22208              	.LASF720:
 22209 167c 746F7473 		.ascii	"totsize\000"
 22209      697A6500 
 22210              	.LASF238:
 22211 1684 4D4F544F 		.ascii	"MOTOR_TYPE_FOC\000"
ARM GAS  /tmp/ccETYwEL.s 			page 410


 22211      525F5459 
 22211      50455F46 
 22211      4F4300
 22212              	.LASF821:
 22213 1693 5F6E696F 		.ascii	"_niobs\000"
 22213      627300
 22214              	.LASF300:
 22215 169a 736C5F6D 		.ascii	"sl_min_erpm\000"
 22215      696E5F65 
 22215      72706D00 
 22216              	.LASF1027:
 22217 16a6 6C656470 		.ascii	"ledpwm_update_pwm\000"
 22217      776D5F75 
 22217      70646174 
 22217      655F7077 
 22217      6D00
 22218              	.LASF137:
 22219 16b8 43435231 		.ascii	"CCR1\000"
 22219      00
 22220              	.LASF138:
 22221 16bd 43435232 		.ascii	"CCR2\000"
 22221      00
 22222              	.LASF139:
 22223 16c2 43435233 		.ascii	"CCR3\000"
 22223      00
 22224              	.LASF140:
 22225 16c7 43435234 		.ascii	"CCR4\000"
 22225      00
 22226              	.LASF634:
 22227 16cc 75736267 		.ascii	"usbgetdescriptor_t\000"
 22227      65746465 
 22227      73637269 
 22227      70746F72 
 22227      5F7400
 22228              	.LASF919:
 22229 16df 72706D5F 		.ascii	"rpm_pos_cut_start\000"
 22229      706F735F 
 22229      6375745F 
 22229      73746172 
 22229      7400
 22230              	.LASF1079:
 22231 16f1 6D637077 		.ascii	"mcpwm_deinit\000"
 22231      6D5F6465 
 22231      696E6974 
 22231      00
 22232              	.LASF798:
 22233 16fe 5F657272 		.ascii	"_errno\000"
 22233      6E6F00
 22234              	.LASF358:
 22235 1705 6D5F7365 		.ascii	"m_sensor_port_mode\000"
 22235      6E736F72 
 22235      5F706F72 
 22235      745F6D6F 
 22235      646500
 22236              	.LASF1066:
 22237 1718 6D637077 		.ascii	"mcpwm_set_pid_pos\000"
 22237      6D5F7365 
ARM GAS  /tmp/ccETYwEL.s 			page 411


 22237      745F7069 
 22237      645F706F 
 22237      7300
 22238              	.LASF613:
 22239 172a 5553425F 		.ascii	"USB_EP0_TX\000"
 22239      4550305F 
 22239      545800
 22240              	.LASF241:
 22241 1735 4641554C 		.ascii	"FAULT_CODE_OVER_VOLTAGE\000"
 22241      545F434F 
 22241      44455F4F 
 22241      5645525F 
 22241      564F4C54 
 22242              	.LASF356:
 22243 174d 6D5F6375 		.ascii	"m_current_backoff_gain\000"
 22243      7272656E 
 22243      745F6261 
 22243      636B6F66 
 22243      665F6761 
 22244              	.LASF763:
 22245 1764 5F5F746D 		.ascii	"__tm_mday\000"
 22245      5F6D6461 
 22245      7900
 22246              	.LASF359:
 22247 176e 6D5F696E 		.ascii	"m_invert_direction\000"
 22247      76657274 
 22247      5F646972 
 22247      65637469 
 22247      6F6E00
 22248              	.LASF429:
 22249 1781 69666372 		.ascii	"ifcr\000"
 22249      00
 22250              	.LASF731:
 22251 1786 6F75745F 		.ascii	"out_maxsize\000"
 22251      6D617873 
 22251      697A6500 
 22252              	.LASF444:
 22253 1792 73746D33 		.ascii	"stm32_gpio_t\000"
 22253      325F6770 
 22253      696F5F74 
 22253      00
 22254              	.LASF403:
 22255 179f 434F4D4D 		.ascii	"COMM_FORWARD_CAN\000"
 22255      5F464F52 
 22255      57415244 
 22255      5F43414E 
 22255      00
 22256              	.LASF152:
 22257 17b0 7264796D 		.ascii	"rdymsg\000"
 22257      736700
 22258              	.LASF770:
 22259 17b7 5F666E61 		.ascii	"_fnargs\000"
 22259      72677300 
 22260              	.LASF92:
 22261 17bf 54445452 		.ascii	"TDTR\000"
 22261      00
 22262              	.LASF890:
ARM GAS  /tmp/ccETYwEL.s 			page 412


 22263 17c4 6D5F7361 		.ascii	"m_sample_len\000"
 22263      6D706C65 
 22263      5F6C656E 
 22263      00
 22264              	.LASF291:
 22265 17d1 6C5F6D61 		.ascii	"l_max_duty\000"
 22265      785F6475 
 22265      747900
 22266              	.LASF100:
 22267 17dc 43414E5F 		.ascii	"CAN_FilterRegister_TypeDef\000"
 22267      46696C74 
 22267      65725265 
 22267      67697374 
 22267      65725F54 
 22268              	.LASF392:
 22269 17f7 434F4D4D 		.ascii	"COMM_EXPERIMENT_SAMPLE\000"
 22269      5F455850 
 22269      4552494D 
 22269      454E545F 
 22269      53414D50 
 22270              	.LASF259:
 22271 180e 44454255 		.ascii	"DEBUG_SAMPLING_START\000"
 22271      475F5341 
 22271      4D504C49 
 22271      4E475F53 
 22271      54415254 
 22272              	.LASF671:
 22273 1823 72657376 		.ascii	"resvd58\000"
 22273      64353800 
 22274              	.LASF721:
 22275 182b 55534249 		.ascii	"USBInEndpointState\000"
 22275      6E456E64 
 22275      706F696E 
 22275      74537461 
 22275      746500
 22276              	.LASF39:
 22277 183e 705F7072 		.ascii	"p_prio\000"
 22277      696F00
 22278              	.LASF199:
 22279 1845 696F5F71 		.ascii	"io_queue\000"
 22279      75657565 
 22279      00
 22280              	.LASF1059:
 22281 184e 6D637077 		.ascii	"mcpwm_foc_get_sampling_frequency_now\000"
 22281      6D5F666F 
 22281      635F6765 
 22281      745F7361 
 22281      6D706C69 
 22282              	.LASF452:
 22283 1873 50414461 		.ascii	"PAData\000"
 22283      746100
 22284              	.LASF995:
 22285 187a 6D635F69 		.ascii	"mc_interface_get_fault\000"
 22285      6E746572 
 22285      66616365 
 22285      5F676574 
 22285      5F666175 
ARM GAS  /tmp/ccETYwEL.s 			page 413


 22286              	.LASF14:
 22287 1891 5F5F7569 		.ascii	"__uint64_t\000"
 22287      6E743634 
 22287      5F7400
 22288              	.LASF1049:
 22289 189c 6D637077 		.ascii	"mcpwm_foc_get_tot_current_directional_filtered\000"
 22289      6D5F666F 
 22289      635F6765 
 22289      745F746F 
 22289      745F6375 
 22290              	.LASF1087:
 22291 18cb 6D637077 		.ascii	"mcpwm_set_brake_current\000"
 22291      6D5F7365 
 22291      745F6272 
 22291      616B655F 
 22291      63757272 
 22292              	.LASF332:
 22293 18e3 666F635F 		.ascii	"foc_sl_erpm\000"
 22293      736C5F65 
 22293      72706D00 
 22294              	.LASF998:
 22295 18ef 6D635F69 		.ascii	"mc_interface_lock\000"
 22295      6E746572 
 22295      66616365 
 22295      5F6C6F63 
 22295      6B00
 22296              	.LASF755:
 22297 1901 5F6E6578 		.ascii	"_next\000"
 22297      7400
 22298              	.LASF1094:
 22299 1907 7574696C 		.ascii	"utils_min_abs\000"
 22299      735F6D69 
 22299      6E5F6162 
 22299      7300
 22300              	.LASF703:
 22301 1915 72657376 		.ascii	"resvd880\000"
 22301      64383830 
 22301      00
 22302              	.LASF1060:
 22303 191e 6D637077 		.ascii	"mcpwm_get_switching_frequency_now\000"
 22303      6D5F6765 
 22303      745F7377 
 22303      69746368 
 22303      696E675F 
 22304              	.LASF617:
 22305 1940 5553425F 		.ascii	"USB_EP0_SENDING_STS\000"
 22305      4550305F 
 22305      53454E44 
 22305      494E475F 
 22305      53545300 
 22306              	.LASF838:
 22307 1954 5F736967 		.ascii	"_signal_buf\000"
 22307      6E616C5F 
 22307      62756600 
 22308              	.LASF537:
 22309 1960 70657269 		.ascii	"period_cb\000"
 22309      6F645F63 
ARM GAS  /tmp/ccETYwEL.s 			page 414


 22309      6200
 22310              	.LASF896:
 22311 196a 6D5F6C61 		.ascii	"m_last_adc_duration_sample\000"
 22311      73745F61 
 22311      64635F64 
 22311      75726174 
 22311      696F6E5F 
 22312              	.LASF488:
 22313 1985 69326373 		.ascii	"i2cstate_t\000"
 22313      74617465 
 22313      5F7400
 22314              	.LASF784:
 22315 1990 5F636F6F 		.ascii	"_cookie\000"
 22315      6B696500 
 22316              	.LASF287:
 22317 1998 6C5F7465 		.ascii	"l_temp_motor_start\000"
 22317      6D705F6D 
 22317      6F746F72 
 22317      5F737461 
 22317      727400
 22318              	.LASF1019:
 22319 19ab 636F6D6D 		.ascii	"commands_send_packet\000"
 22319      616E6473 
 22319      5F73656E 
 22319      645F7061 
 22319      636B6574 
 22320              	.LASF304:
 22321 19c0 736C5F70 		.ascii	"sl_phase_advance_at_br\000"
 22321      68617365 
 22321      5F616476 
 22321      616E6365 
 22321      5F61745F 
 22322              	.LASF619:
 22323 19d7 75736265 		.ascii	"usbep0state_t\000"
 22323      70307374 
 22323      6174655F 
 22323      7400
 22324              	.LASF104:
 22325 19e5 7354784D 		.ascii	"sTxMailBox\000"
 22325      61696C42 
 22325      6F7800
 22326              	.LASF546:
 22327 19f0 5350495F 		.ascii	"SPI_ACTIVE\000"
 22327      41435449 
 22327      564500
 22328              	.LASF202:
 22329 19fb 715F6275 		.ascii	"q_buffer\000"
 22329      66666572 
 22329      00
 22330              	.LASF37:
 22331 1a04 705F6E65 		.ascii	"p_next\000"
 22331      787400
 22332              	.LASF512:
 22333 1a0b 49324344 		.ascii	"I2CD2\000"
 22333      3200
 22334              	.LASF1055:
 22335 1a11 6D637077 		.ascii	"mcpwm_foc_get_tot_current\000"
ARM GAS  /tmp/ccETYwEL.s 			page 415


 22335      6D5F666F 
 22335      635F6765 
 22335      745F746F 
 22335      745F6375 
 22336              	.LASF587:
 22337 1a2b 55534244 		.ascii	"USBDriver\000"
 22337      72697665 
 22337      7200
 22338              	.LASF704:
 22339 1a35 72657376 		.ascii	"resvd8C0\000"
 22339      64384330 
 22339      00
 22340              	.LASF741:
 22341 1a3e 55534243 		.ascii	"USBConfig\000"
 22341      6F6E6669 
 22341      6700
 22342              	.LASF647:
 22343 1a48 72657376 		.ascii	"resvdC\000"
 22343      644300
 22344              	.LASF539:
 22345 1a4f 6368616E 		.ascii	"channel\000"
 22345      6E656C00 
 22346              	.LASF879:
 22347 1a57 6D5F7465 		.ascii	"m_temp_motor\000"
 22347      6D705F6D 
 22347      6F746F72 
 22347      00
 22348              	.LASF1002:
 22349 1a64 6D635F69 		.ascii	"mc_interface_set_configuration\000"
 22349      6E746572 
 22349      66616365 
 22349      5F736574 
 22349      5F636F6E 
 22350              	.LASF352:
 22351 1a83 63635F67 		.ascii	"cc_gain\000"
 22351      61696E00 
 22352              	.LASF423:
 22353 1a8b 4144435F 		.ascii	"ADC_curr_norm_value\000"
 22353      63757272 
 22353      5F6E6F72 
 22353      6D5F7661 
 22353      6C756500 
 22354              	.LASF903:
 22355 1a9f 696E645F 		.ascii	"ind_samp\000"
 22355      73616D70 
 22355      00
 22356              	.LASF28:
 22357 1aa8 74726566 		.ascii	"trefs_t\000"
 22357      735F7400 
 22358              	.LASF55:
 22359 1ab0 705F6D70 		.ascii	"p_mpool\000"
 22359      6F6F6C00 
 22360              	.LASF1030:
 22361 1ab8 6D637077 		.ascii	"mcpwm_foc_get_abs_motor_current\000"
 22361      6D5F666F 
 22361      635F6765 
 22361      745F6162 
ARM GAS  /tmp/ccETYwEL.s 			page 416


 22361      735F6D6F 
 22362              	.LASF266:
 22363 1ad8 70776D5F 		.ascii	"pwm_mode\000"
 22363      6D6F6465 
 22363      00
 22364              	.LASF991:
 22365 1ae1 64757479 		.ascii	"dutyCycle\000"
 22365      4379636C 
 22365      6500
 22366              	.LASF1071:
 22367 1aeb 6D637077 		.ascii	"mcpwm_foc_get_state\000"
 22367      6D5F666F 
 22367      635F6765 
 22367      745F7374 
 22367      61746500 
 22368              	.LASF268:
 22369 1aff 6D6F746F 		.ascii	"motor_type\000"
 22369      725F7479 
 22369      706500
 22370              	.LASF295:
 22371 1b0a 6C6F5F63 		.ascii	"lo_current_min\000"
 22371      75727265 
 22371      6E745F6D 
 22371      696E00
 22372              	.LASF734:
 22373 1b19 696E5F6D 		.ascii	"in_multiplier\000"
 22373      756C7469 
 22373      706C6965 
 22373      7200
 22374              	.LASF302:
 22375 1b27 736C5F6D 		.ascii	"sl_max_fullbreak_current_dir_change\000"
 22375      61785F66 
 22375      756C6C62 
 22375      7265616B 
 22375      5F637572 
 22376              	.LASF985:
 22377 1b4b 6D635F69 		.ascii	"mc_interface_set_current_rel\000"
 22377      6E746572 
 22377      66616365 
 22377      5F736574 
 22377      5F637572 
 22378              	.LASF769:
 22379 1b68 5F6F6E5F 		.ascii	"_on_exit_args\000"
 22379      65786974 
 22379      5F617267 
 22379      7300
 22380              	.LASF1081:
 22381 1b76 6D637077 		.ascii	"mcpwm_set_configuration\000"
 22381      6D5F7365 
 22381      745F636F 
 22381      6E666967 
 22381      75726174 
 22382              	.LASF1031:
 22383 1b8e 6D637077 		.ascii	"mcpwm_foc_get_abs_motor_current_filtered\000"
 22383      6D5F666F 
 22383      635F6765 
 22383      745F6162 
ARM GAS  /tmp/ccETYwEL.s 			page 417


 22383      735F6D6F 
 22384              	.LASF26:
 22385 1bb7 746D6F64 		.ascii	"tmode_t\000"
 22385      655F7400 
 22386              	.LASF807:
 22387 1bbf 5F5F636C 		.ascii	"__cleanup\000"
 22387      65616E75 
 22387      7000
 22388              	.LASF976:
 22389 1bc9 6D635F69 		.ascii	"mc_interface_get_sampling_frequency_now\000"
 22389      6E746572 
 22389      66616365 
 22389      5F676574 
 22389      5F73616D 
 22390              	.LASF929:
 22391 1bf1 6C6F5F69 		.ascii	"lo_in_max\000"
 22391      6E5F6D61 
 22391      7800
 22392              	.LASF778:
 22393 1bfb 5F626173 		.ascii	"_base\000"
 22393      6500
 22394              	.LASF688:
 22395 1c01 44535453 		.ascii	"DSTS\000"
 22395      00
 22396              	.LASF328:
 22397 1c06 666F635F 		.ascii	"foc_sl_d_current_duty\000"
 22397      736C5F64 
 22397      5F637572 
 22397      72656E74 
 22397      5F647574 
 22398              	.LASF569:
 22399 1c1c 55415254 		.ascii	"UARTDriver\000"
 22399      44726976 
 22399      657200
 22400              	.LASF440:
 22401 1c27 42535252 		.ascii	"BSRR\000"
 22401      00
 22402              	.LASF584:
 22403 1c2c 55415254 		.ascii	"UARTConfig\000"
 22403      436F6E66 
 22403      696700
 22404              	.LASF143:
 22405 1c37 54494D5F 		.ascii	"TIM_TypeDef\000"
 22405      54797065 
 22405      44656600 
 22406              	.LASF739:
 22407 1c43 72657175 		.ascii	"requests_hook_cb\000"
 22407      65737473 
 22407      5F686F6F 
 22407      6B5F6362 
 22407      00
 22408              	.LASF843:
 22409 1c54 5F776372 		.ascii	"_wcrtomb_state\000"
 22409      746F6D62 
 22409      5F737461 
 22409      746500
 22410              	.LASF307:
ARM GAS  /tmp/ccETYwEL.s 			page 418


 22411 1c63 68616C6C 		.ascii	"hall_table\000"
 22411      5F746162 
 22411      6C6500
 22412              	.LASF718:
 22413 1c6e 74787369 		.ascii	"txsize\000"
 22413      7A6500
 22414              	.LASF955:
 22415 1c75 6D635F69 		.ascii	"mc_interface_get_pid_pos_now\000"
 22415      6E746572 
 22415      66616365 
 22415      5F676574 
 22415      5F706964 
 22416              	.LASF578:
 22417 1c92 7478656E 		.ascii	"txend1_cb\000"
 22417      64315F63 
 22417      6200
 22418              	.LASF585:
 22419 1c9c 55415254 		.ascii	"UARTD3\000"
 22419      443300
 22420              	.LASF868:
 22421 1ca3 6D5F696E 		.ascii	"m_input_current_iterations\000"
 22421      7075745F 
 22421      63757272 
 22421      656E745F 
 22421      69746572 
 22422              	.LASF586:
 22423 1cbe 55415254 		.ascii	"UARTD6\000"
 22423      443600
 22424              	.LASF1104:
 22425 1cc5 6D635F69 		.ascii	"mc_interface_get_last_sample_adc_isr_duration\000"
 22425      6E746572 
 22425      66616365 
 22425      5F676574 
 22425      5F6C6173 
 22426              	.LASF581:
 22427 1cf3 72786368 		.ascii	"rxchar_cb\000"
 22427      61725F63 
 22427      6200
 22428              	.LASF487:
 22429 1cfd 4932435F 		.ascii	"I2C_LOCKED\000"
 22429      4C4F434B 
 22429      454400
 22430              	.LASF264:
 22431 1d08 44454255 		.ascii	"DEBUG_SAMPLING_SEND_LAST_SAMPLES\000"
 22431      475F5341 
 22431      4D504C49 
 22431      4E475F53 
 22431      454E445F 
 22432              	.LASF237:
 22433 1d29 4D4F544F 		.ascii	"MOTOR_TYPE_DC\000"
 22433      525F5459 
 22433      50455F44 
 22433      4300
 22434              	.LASF1092:
 22435 1d37 6D637077 		.ascii	"mcpwm_foc_stop_pwm\000"
 22435      6D5F666F 
 22435      635F7374 
ARM GAS  /tmp/ccETYwEL.s 			page 419


 22435      6F705F70 
 22435      776D00
 22436              	.LASF213:
 22437 1d4a 4D435F53 		.ascii	"MC_STATE_RUNNING\000"
 22437      54415445 
 22437      5F52554E 
 22437      4E494E47 
 22437      00
 22438              	.LASF961:
 22439 1d5b 6D635F69 		.ascii	"mc_interface_get_last_inj_adc_isr_duration\000"
 22439      6E746572 
 22439      66616365 
 22439      5F676574 
 22439      5F6C6173 
 22440              	.LASF608:
 22441 1d86 5553425F 		.ascii	"USB_READY\000"
 22441      52454144 
 22441      5900
 22442              	.LASF318:
 22443 1d90 666F635F 		.ascii	"foc_motor_flux_linkage\000"
 22443      6D6F746F 
 22443      725F666C 
 22443      75785F6C 
 22443      696E6B61 
 22444              	.LASF660:
 22445 1da7 47525354 		.ascii	"GRSTCTL\000"
 22445      43544C00 
 22446              	.LASF576:
 22447 1daf 75617274 		.ascii	"uartccb_t\000"
 22447      6363625F 
 22447      7400
 22448              	.LASF1047:
 22449 1db9 6D637077 		.ascii	"mcpwm_foc_get_tot_current_in\000"
 22449      6D5F666F 
 22449      635F6765 
 22449      745F746F 
 22449      745F6375 
 22450              	.LASF303:
 22451 1dd6 736C5F63 		.ascii	"sl_cycle_int_limit\000"
 22451      79636C65 
 22451      5F696E74 
 22451      5F6C696D 
 22451      697400
 22452              	.LASF17:
 22453 1de9 696E7438 		.ascii	"int8_t\000"
 22453      5F7400
 22454              	.LASF558:
 22455 1df0 55415254 		.ascii	"UART_READY\000"
 22455      5F524541 
 22455      445900
 22456              	.LASF753:
 22457 1dfb 5F5F554C 		.ascii	"__ULong\000"
 22457      6F6E6700 
 22458              	.LASF83:
 22459 1e03 70616E69 		.ascii	"panic_msg\000"
 22459      635F6D73 
 22459      6700
ARM GAS  /tmp/ccETYwEL.s 			page 420


 22460              	.LASF547:
 22461 1e0d 5350495F 		.ascii	"SPI_COMPLETE\000"
 22461      434F4D50 
 22461      4C455445 
 22461      00
 22462              	.LASF793:
 22463 1e1a 5F646174 		.ascii	"_data\000"
 22463      6100
 22464              	.LASF67:
 22465 1e20 725F6E65 		.ascii	"r_newer\000"
 22465      77657200 
 22466              	.LASF375:
 22467 1e28 434F4D4D 		.ascii	"COMM_SET_CURRENT\000"
 22467      5F534554 
 22467      5F435552 
 22467      52454E54 
 22467      00
 22468              	.LASF958:
 22469 1e39 6D635F69 		.ascii	"mc_interface_read_reset_avg_id\000"
 22469      6E746572 
 22469      66616365 
 22469      5F726561 
 22469      645F7265 
 22470              	.LASF625:
 22471 1e58 5553425F 		.ascii	"USB_EVENT_STALLED\000"
 22471      4556454E 
 22471      545F5354 
 22471      414C4C45 
 22471      4400
 22472              	.LASF1028:
 22473 1e6a 6D637077 		.ascii	"mcpwm_foc_get_id\000"
 22473      6D5F666F 
 22473      635F6765 
 22473      745F6964 
 22473      00
 22474              	.LASF185:
 22475 1e7b 63686465 		.ascii	"chdebug_t\000"
 22475      6275675F 
 22475      7400
 22476              	.LASF1013:
 22477 1e85 706F7274 		.ascii	"port_lock_from_isr\000"
 22477      5F6C6F63 
 22477      6B5F6672 
 22477      6F6D5F69 
 22477      737200
 22478              	.LASF1029:
 22479 1e98 6D637077 		.ascii	"mcpwm_foc_get_iq\000"
 22479      6D5F666F 
 22479      635F6765 
 22479      745F6971 
 22479      00
 22480              	.LASF723:
 22481 1ea9 72787369 		.ascii	"rxsize\000"
 22481      7A6500
 22482              	.LASF516:
 22483 1eb0 4943555F 		.ascii	"ICU_WAITING\000"
 22483      57414954 
ARM GAS  /tmp/ccETYwEL.s 			page 421


 22483      494E4700 
 22484              	.LASF639:
 22485 1ebc 48435453 		.ascii	"HCTSIZ\000"
 22485      495A00
 22486              	.LASF622:
 22487 1ec3 5553425F 		.ascii	"USB_EVENT_CONFIGURED\000"
 22487      4556454E 
 22487      545F434F 
 22487      4E464947 
 22487      55524544 
 22488              	.LASF897:
 22489 1ed8 70776E5F 		.ascii	"pwn_done_func\000"
 22489      646F6E65 
 22489      5F66756E 
 22489      6300
 22490              	.LASF29:
 22491 1ee6 74736C69 		.ascii	"tslices_t\000"
 22491      6365735F 
 22491      7400
 22492              	.LASF828:
 22493 1ef0 5F737472 		.ascii	"_strtok_last\000"
 22493      746F6B5F 
 22493      6C617374 
 22493      00
 22494              	.LASF873:
 22495 1efd 6D5F616D 		.ascii	"m_amp_seconds\000"
 22495      705F7365 
 22495      636F6E64 
 22495      7300
 22496              	.LASF172:
 22497 1f0b 63685F74 		.ascii	"ch_timesize\000"
 22497      696D6573 
 22497      697A6500 
 22498              	.LASF963:
 22499 1f17 72657365 		.ascii	"reset\000"
 22499      7400
 22500              	.LASF413:
 22501 1f1d 6379636C 		.ascii	"cycles_running\000"
 22501      65735F72 
 22501      756E6E69 
 22501      6E6700
 22502              	.LASF604:
 22503 1f2c 77615F70 		.ascii	"wa_pump\000"
 22503      756D7000 
 22504              	.LASF197:
 22505 1f34 6576656E 		.ascii	"event_source_t\000"
 22505      745F736F 
 22505      75726365 
 22505      5F7400
 22506              	.LASF674:
 22507 1f43 72657376 		.ascii	"resvd140\000"
 22507      64313430 
 22507      00
 22508              	.LASF75:
 22509 1f4c 76745F64 		.ascii	"vt_delta\000"
 22509      656C7461 
 22509      00
ARM GAS  /tmp/ccETYwEL.s 			page 422


 22510              	.LASF824:
 22511 1f55 5F736565 		.ascii	"_seed\000"
 22511      6400
 22512              	.LASF967:
 22513 1f5b 6D635F69 		.ascii	"mc_interface_get_tot_current_directional_filtered\000"
 22513      6E746572 
 22513      66616365 
 22513      5F676574 
 22513      5F746F74 
 22514              	.LASF787:
 22515 1f8d 5F736565 		.ascii	"_seek\000"
 22515      6B00
 22516              	.LASF623:
 22517 1f93 5553425F 		.ascii	"USB_EVENT_SUSPEND\000"
 22517      4556454E 
 22517      545F5355 
 22517      5350454E 
 22517      4400
 22518              	.LASF1102:
 22519 1fa5 2F686F6D 		.ascii	"/home/renan/BLDC/bldc-firmware\000"
 22519      652F7265 
 22519      6E616E2F 
 22519      424C4443 
 22519      2F626C64 
 22520              	.LASF907:
 22521 1fc4 72706D5F 		.ascii	"rpm_now\000"
 22521      6E6F7700 
 22522              	.LASF19:
 22523 1fcc 696E7431 		.ascii	"int16_t\000"
 22523      365F7400 
 22524              	.LASF8:
 22525 1fd4 73686F72 		.ascii	"short unsigned int\000"
 22525      7420756E 
 22525      7369676E 
 22525      65642069 
 22525      6E7400
 22526              	.LASF906:
 22527 1fe7 765F696E 		.ascii	"v_in\000"
 22527      00
 22528              	.LASF1:
 22529 1fec 7369676E 		.ascii	"signed char\000"
 22529      65642063 
 22529      68617200 
 22530              	.LASF856:
 22531 1ff8 5F5F6664 		.ascii	"__fdlibm_xopen\000"
 22531      6C69626D 
 22531      5F786F70 
 22531      656E00
 22532              	.LASF1056:
 22533 2007 6D637077 		.ascii	"mcpwm_get_tot_current\000"
 22533      6D5F6765 
 22533      745F746F 
 22533      745F6375 
 22533      7272656E 
 22534              	.LASF950:
 22535 201d 6D635F69 		.ascii	"mc_interface_temp_motor_filtered\000"
 22535      6E746572 
ARM GAS  /tmp/ccETYwEL.s 			page 423


 22535      66616365 
 22535      5F74656D 
 22535      705F6D6F 
 22536              	.LASF47:
 22537 203e 705F7072 		.ascii	"p_preempt\000"
 22537      65656D70 
 22537      7400
 22538              	.LASF276:
 22539 2048 6C5F6D61 		.ascii	"l_max_erpm\000"
 22539      785F6572 
 22539      706D00
 22540              	.LASF48:
 22541 2053 705F7469 		.ascii	"p_time\000"
 22541      6D6500
 22542              	.LASF94:
 22543 205a 54444852 		.ascii	"TDHR\000"
 22543      00
 22544              	.LASF616:
 22545 205f 5553425F 		.ascii	"USB_EP0_RX\000"
 22545      4550305F 
 22545      525800
 22546              	.LASF1064:
 22547 206a 6D637077 		.ascii	"mcpwm_get_duty_cycle_set\000"
 22547      6D5F6765 
 22547      745F6475 
 22547      74795F63 
 22547      79636C65 
 22548              	.LASF408:
 22549 2083 63757272 		.ascii	"current\000"
 22549      656E7400 
 22550              	.LASF854:
 22551 208b 5F5F6664 		.ascii	"__fdlibm_ieee\000"
 22551      6C69626D 
 22551      5F696565 
 22551      6500
 22552              	.LASF1098:
 22553 2099 6D637077 		.ascii	"mcpwm_foc_set_current\000"
 22553      6D5F666F 
 22553      635F7365 
 22553      745F6375 
 22553      7272656E 
 22554              	.LASF859:
 22555 20af 6D5F636F 		.ascii	"m_conf\000"
 22555      6E6600
 22556              	.LASF597:
 22557 20b6 73746174 		.ascii	"status\000"
 22557      757300
 22558              	.LASF1039:
 22559 20bd 6D637077 		.ascii	"mcpwm_foc_get_last_inj_adc_isr_duration\000"
 22559      6D5F666F 
 22559      635F6765 
 22559      745F6C61 
 22559      73745F69 
 22560              	.LASF629:
 22561 20e5 55534244 		.ascii	"USBDescriptor\000"
 22561      65736372 
 22561      6970746F 
ARM GAS  /tmp/ccETYwEL.s 			page 424


 22561      7200
 22562              	.LASF862:
 22563 20f3 6D5F6379 		.ascii	"m_cycles_running\000"
 22563      636C6573 
 22563      5F72756E 
 22563      6E696E67 
 22563      00
 22564              	.LASF811:
 22565 2104 5F667265 		.ascii	"_freelist\000"
 22565      656C6973 
 22565      7400
 22566              	.LASF571:
 22567 210e 72787374 		.ascii	"rxstate\000"
 22567      61746500 
 22568              	.LASF246:
 22569 2116 4641554C 		.ascii	"FAULT_CODE_OVER_TEMP_MOTOR\000"
 22569      545F434F 
 22569      44455F4F 
 22569      5645525F 
 22569      54454D50 
 22570              	.LASF1005:
 22571 2131 75706461 		.ascii	"update_override_limits\000"
 22571      74655F6F 
 22571      76657272 
 22571      6964655F 
 22571      6C696D69 
 22572              	.LASF421:
 22573 2148 636F6E66 		.ascii	"conf_general_permanent_nrf_found\000"
 22573      5F67656E 
 22573      6572616C 
 22573      5F706572 
 22573      6D616E65 
 22574              	.LASF598:
 22575 2169 61646472 		.ascii	"address\000"
 22575      65737300 
 22576              	.LASF235:
 22577 2171 6F75745F 		.ascii	"out_aux_mode\000"
 22577      6175785F 
 22577      6D6F6465 
 22577      00
 22578              	.LASF50:
 22579 217e 705F6D73 		.ascii	"p_msgqueue\000"
 22579      67717565 
 22579      756500
 22580              	.LASF182:
 22581 2189 63665F6F 		.ascii	"cf_off_refs\000"
 22581      66665F72 
 22581      65667300 
 22582              	.LASF324:
 22583 2195 666F635F 		.ascii	"foc_duty_dowmramp_ki\000"
 22583      64757479 
 22583      5F646F77 
 22583      6D72616D 
 22583      705F6B69 
 22584              	.LASF164:
 22585 21aa 6D5F6F77 		.ascii	"m_owner\000"
 22585      6E657200 
ARM GAS  /tmp/ccETYwEL.s 			page 425


 22586              	.LASF323:
 22587 21b2 666F635F 		.ascii	"foc_duty_dowmramp_kp\000"
 22587      64757479 
 22587      5F646F77 
 22587      6D72616D 
 22587      705F6B70 
 22588              	.LASF792:
 22589 21c7 5F6F6666 		.ascii	"_offset\000"
 22589      73657400 
 22590              	.LASF954:
 22591 21cf 6D635F69 		.ascii	"mc_interface_try_input\000"
 22591      6E746572 
 22591      66616365 
 22591      5F747279 
 22591      5F696E70 
 22592              	.LASF91:
 22593 21e6 53797374 		.ascii	"SystemCoreClock\000"
 22593      656D436F 
 22593      7265436C 
 22593      6F636B00 
 22594              	.LASF940:
 22595 21f6 73616D70 		.ascii	"sample\000"
 22595      6C6500
 22596              	.LASF932:
 22597 21fd 6D635F69 		.ascii	"mc_interface_adc_inj_int_handler\000"
 22597      6E746572 
 22597      66616365 
 22597      5F616463 
 22597      5F696E6A 
 22598              	.LASF471:
 22599 221e 73746174 		.ascii	"state\000"
 22599      6500
 22600              	.LASF170:
 22601 2224 63685F76 		.ascii	"ch_version\000"
 22601      65727369 
 22601      6F6E00
 22602              	.LASF777:
 22603 222f 5F5F7362 		.ascii	"__sbuf\000"
 22603      756600
 22604              	.LASF615:
 22605 2236 5553425F 		.ascii	"USB_EP0_WAITING_STS\000"
 22605      4550305F 
 22605      57414954 
 22605      494E475F 
 22605      53545300 
 22606              	.LASF125:
 22607 224a 4932435F 		.ascii	"I2C_TypeDef\000"
 22607      54797065 
 22607      44656600 
 22608              	.LASF98:
 22609 2256 52444852 		.ascii	"RDHR\000"
 22609      00
 22610              	.LASF1089:
 22611 225b 7574696C 		.ascii	"utils_sys_unlock_cnt\000"
 22611      735F7379 
 22611      735F756E 
 22611      6C6F636B 
ARM GAS  /tmp/ccETYwEL.s 			page 426


 22611      5F636E74 
 22612              	.LASF826:
 22613 2270 5F616464 		.ascii	"_add\000"
 22613      00
 22614              	.LASF142:
 22615 2275 444D4152 		.ascii	"DMAR\000"
 22615      00
 22616              	.LASF85:
 22617 227a 63685F73 		.ascii	"ch_system\000"
 22617      79737465 
 22617      6D00
 22618              	.LASF893:
 22619 2284 6D5F7361 		.ascii	"m_sample_mode_last\000"
 22619      6D706C65 
 22619      5F6D6F64 
 22619      655F6C61 
 22619      737400
 22620              	.LASF797:
 22621 2297 5F726565 		.ascii	"_reent\000"
 22621      6E7400
 22622              	.LASF270:
 22623 229e 6C5F6375 		.ascii	"l_current_max\000"
 22623      7272656E 
 22623      745F6D61 
 22623      7800
 22624              	.LASF837:
 22625 22ac 5F6C3634 		.ascii	"_l64a_buf\000"
 22625      615F6275 
 22625      6600
 22626              	.LASF419:
 22627 22b6 64727638 		.ascii	"drv8301_faults\000"
 22627      3330315F 
 22627      6661756C 
 22627      747300
 22628              	.LASF829:
 22629 22c5 5F617363 		.ascii	"_asctime_buf\000"
 22629      74696D65 
 22629      5F627566 
 22629      00
 22630              	.LASF564:
 22631 22d2 55415254 		.ascii	"UART_RX_IDLE\000"
 22631      5F52585F 
 22631      49444C45 
 22631      00
 22632              	.LASF747:
 22633 22df 5F5F7763 		.ascii	"__wch\000"
 22633      6800
 22634              	.LASF750:
 22635 22e5 5F5F7661 		.ascii	"__value\000"
 22635      6C756500 
 22636              	.LASF159:
 22637 22ed 63685F73 		.ascii	"ch_semaphore\000"
 22637      656D6170 
 22637      686F7265 
 22637      00
 22638              	.LASF844:
 22639 22fa 5F776373 		.ascii	"_wcsrtombs_state\000"
ARM GAS  /tmp/ccETYwEL.s 			page 427


 22639      72746F6D 
 22639      62735F73 
 22639      74617465 
 22639      00
 22640              	.LASF918:
 22641 230b 6C6F5F6D 		.ascii	"lo_max_rpm\000"
 22641      61785F72 
 22641      706D00
 22642              	.LASF648:
 22643 2316 44494550 		.ascii	"DIEPTSIZ\000"
 22643      5453495A 
 22643      00
 22644              	.LASF1014:
 22645 231f 706F7274 		.ascii	"port_unlock\000"
 22645      5F756E6C 
 22645      6F636B00 
 22646              	.LASF60:
 22647 232b 74687265 		.ascii	"threads_queue_t\000"
 22647      6164735F 
 22647      71756575 
 22647      655F7400 
 22648              	.LASF248:
 22649 233b 53454E53 		.ascii	"SENSOR_PORT_MODE_HALL\000"
 22649      4F525F50 
 22649      4F52545F 
 22649      4D4F4445 
 22649      5F48414C 
 22650              	.LASF1103:
 22651 2351 5F5F6664 		.ascii	"__fdlibm_version\000"
 22651      6C69626D 
 22651      5F766572 
 22651      73696F6E 
 22651      00
 22652              	.LASF422:
 22653 2362 4144435F 		.ascii	"ADC_Value\000"
 22653      56616C75 
 22653      6500
 22654              	.LASF227:
 22655 236c 464F435F 		.ascii	"FOC_SENSOR_MODE_SENSORLESS\000"
 22655      53454E53 
 22655      4F525F4D 
 22655      4F44455F 
 22655      53454E53 
 22656              	.LASF46:
 22657 2387 705F7265 		.ascii	"p_refs\000"
 22657      667300
 22658              	.LASF726:
 22659 238e 65705F6D 		.ascii	"ep_mode\000"
 22659      6F646500 
 22660              	.LASF1096:
 22661 2396 6D637077 		.ascii	"mcpwm_foc_set_duty\000"
 22661      6D5F666F 
 22661      635F7365 
 22661      745F6475 
 22661      747900
 22662              	.LASF655:
 22663 23a9 73746D33 		.ascii	"stm32_otg_out_ep_t\000"
ARM GAS  /tmp/ccETYwEL.s 			page 428


 22663      325F6F74 
 22663      675F6F75 
 22663      745F6570 
 22663      5F7400
 22664              	.LASF226:
 22665 23bc 6D635F73 		.ascii	"mc_sensor_mode\000"
 22665      656E736F 
 22665      725F6D6F 
 22665      646500
 22666              	.LASF93:
 22667 23cb 54444C52 		.ascii	"TDLR\000"
 22667      00
 22668              	.LASF10:
 22669 23d0 6C6F6E67 		.ascii	"long int\000"
 22669      20696E74 
 22669      00
 22670              	.LASF869:
 22671 23d9 6D5F6D6F 		.ascii	"m_motor_id_sum\000"
 22671      746F725F 
 22671      69645F73 
 22671      756D00
 22672              	.LASF88:
 22673 23e8 6D61696E 		.ascii	"mainthread\000"
 22673      74687265 
 22673      616400
 22674              	.LASF594:
 22675 23f3 6570306E 		.ascii	"ep0n\000"
 22675      00
 22676              	.LASF928:
 22677 23f8 6C6F5F69 		.ascii	"lo_in_min_watt\000"
 22677      6E5F6D69 
 22677      6E5F7761 
 22677      747400
 22678              	.LASF163:
 22679 2407 6D5F7175 		.ascii	"m_queue\000"
 22679      65756500 
 22680              	.LASF380:
 22681 240f 434F4D4D 		.ascii	"COMM_SET_DETECT\000"
 22681      5F534554 
 22681      5F444554 
 22681      45435400 
 22682              	.LASF981:
 22683 241f 6D635F69 		.ascii	"mc_interface_set_handbrake_rel\000"
 22683      6E746572 
 22683      66616365 
 22683      5F736574 
 22683      5F68616E 
 22684              	.LASF459:
 22685 243e 50484461 		.ascii	"PHData\000"
 22685      746100
 22686              	.LASF1088:
 22687 2445 7574696C 		.ascii	"utils_sys_lock_cnt\000"
 22687      735F7379 
 22687      735F6C6F 
 22687      636B5F63 
 22687      6E7400
 22688              	.LASF462:
ARM GAS  /tmp/ccETYwEL.s 			page 429


 22689 2458 696F706F 		.ascii	"ioportid_t\000"
 22689      72746964 
 22689      5F7400
 22690              	.LASF370:
 22691 2463 434F4D4D 		.ascii	"COMM_JUMP_TO_BOOTLOADER\000"
 22691      5F4A554D 
 22691      505F544F 
 22691      5F424F4F 
 22691      544C4F41 
 22692              	.LASF220:
 22693 247b 434F4D4D 		.ascii	"COMM_MODE_INTEGRATE\000"
 22693      5F4D4F44 
 22693      455F494E 
 22693      54454752 
 22693      41544500 
 22694              	.LASF675:
 22695 248f 48434647 		.ascii	"HCFG\000"
 22695      00
 22696              	.LASF424:
 22697 2494 6D637077 		.ascii	"mcpwm_detect_currents\000"
 22697      6D5F6465 
 22697      74656374 
 22697      5F637572 
 22697      72656E74 
 22698              	.LASF573:
 22699 24aa 646D616D 		.ascii	"dmamode\000"
 22699      6F646500 
 22700              	.LASF822:
 22701 24b2 5F696F62 		.ascii	"_iobs\000"
 22701      7300
 22702              	.LASF555:
 22703 24b8 53504944 		.ascii	"SPID1\000"
 22703      3100
 22704              	.LASF945:
 22705 24be 636F6E66 		.ascii	"conf\000"
 22705      00
 22706              	.LASF559:
 22707 24c3 75617274 		.ascii	"uartstate_t\000"
 22707      73746174 
 22707      655F7400 
 22708              	.LASF155:
 22709 24cf 77747472 		.ascii	"wttrp\000"
 22709      7000
 22710              	.LASF205:
 22711 24d5 715F7264 		.ascii	"q_rdptr\000"
 22711      70747200 
 22712              	.LASF148:
 22713 24dd 636F6E74 		.ascii	"context\000"
 22713      65787400 
 22714              	.LASF832:
 22715 24e5 5F72616E 		.ascii	"_rand_next\000"
 22715      645F6E65 
 22715      787400
 22716              	.LASF952:
 22717 24f0 6D635F69 		.ascii	"mc_interface_sample_print_data\000"
 22717      6E746572 
 22717      66616365 
ARM GAS  /tmp/ccETYwEL.s 			page 430


 22717      5F73616D 
 22717      706C655F 
 22718              	.LASF1068:
 22719 250f 6D637077 		.ascii	"mcpwm_set_pid_speed\000"
 22719      6D5F7365 
 22719      745F7069 
 22719      645F7370 
 22719      65656400 
 22720              	.LASF728:
 22721 2523 696E5F63 		.ascii	"in_cb\000"
 22721      6200
 22722              	.LASF425:
 22723 2529 6D637077 		.ascii	"mcpwm_detect_voltages\000"
 22723      6D5F6465 
 22723      74656374 
 22723      5F766F6C 
 22723      74616765 
 22724              	.LASF653:
 22725 253f 444F4550 		.ascii	"DOEPINT\000"
 22725      494E5400 
 22726              	.LASF969:
 22727 2547 6D635F69 		.ascii	"mc_interface_get_tot_current_filtered\000"
 22727      6E746572 
 22727      66616365 
 22727      5F676574 
 22727      5F746F74 
 22728              	.LASF441:
 22729 256d 4C434B52 		.ascii	"LCKR\000"
 22729      00
 22730              	.LASF315:
 22731 2572 666F635F 		.ascii	"foc_encoder_ratio\000"
 22731      656E636F 
 22731      6465725F 
 22731      72617469 
 22731      6F00
 22732              	.LASF22:
 22733 2584 75696E74 		.ascii	"uint32_t\000"
 22733      33325F74 
 22733      00
 22734              	.LASF214:
 22735 258d 4D435F53 		.ascii	"MC_STATE_FULL_BRAKE\000"
 22735      54415445 
 22735      5F46554C 
 22735      4C5F4252 
 22735      414B4500 
 22736              	.LASF402:
 22737 25a1 434F4D4D 		.ascii	"COMM_GET_DECODED_CHUK\000"
 22737      5F474554 
 22737      5F444543 
 22737      4F444544 
 22737      5F434855 
 22738              	.LASF756:
 22739 25b7 5F6D6178 		.ascii	"_maxwds\000"
 22739      77647300 
 22740              	.LASF633:
 22741 25bf 75736272 		.ascii	"usbreqhandler_t\000"
 22741      65716861 
ARM GAS  /tmp/ccETYwEL.s 			page 431


 22741      6E646C65 
 22741      725F7400 
 22742              	.LASF97:
 22743 25cf 52444C52 		.ascii	"RDLR\000"
 22743      00
 22744              	.LASF379:
 22745 25d4 434F4D4D 		.ascii	"COMM_SET_HANDBRAKE\000"
 22745      5F534554 
 22745      5F48414E 
 22745      44425241 
 22745      4B4500
 22746              	.LASF757:
 22747 25e7 5F736967 		.ascii	"_sign\000"
 22747      6E00
 22748              	.LASF975:
 22749 25ed 6D635F69 		.ascii	"mc_interface_get_rpm\000"
 22749      6E746572 
 22749      66616365 
 22749      5F676574 
 22749      5F72706D 
 22750              	.LASF1015:
 22751 2602 706F7274 		.ascii	"port_lock\000"
 22751      5F6C6F63 
 22751      6B00
 22752              	.LASF378:
 22753 260c 434F4D4D 		.ascii	"COMM_SET_POS\000"
 22753      5F534554 
 22753      5F504F53 
 22753      00
 22754              	.LASF146:
 22755 2619 72656761 		.ascii	"regarm_t\000"
 22755      726D5F74 
 22755      00
 22756              	.LASF32:
 22757 2622 6576656E 		.ascii	"eventmask_t\000"
 22757      746D6173 
 22757      6B5F7400 
 22758              	.LASF620:
 22759 262e 5553425F 		.ascii	"USB_EVENT_RESET\000"
 22759      4556454E 
 22759      545F5245 
 22759      53455400 
 22760              	.LASF111:
 22761 263e 46464131 		.ascii	"FFA1R\000"
 22761      5200
 22762              	.LASF609:
 22763 2644 5553425F 		.ascii	"USB_SELECTED\000"
 22763      53454C45 
 22763      43544544 
 22763      00
 22764              	.LASF1052:
 22765 2651 6D637077 		.ascii	"mcpwm_get_tot_current_directional\000"
 22765      6D5F6765 
 22765      745F746F 
 22765      745F6375 
 22765      7272656E 
 22766              	.LASF12:
ARM GAS  /tmp/ccETYwEL.s 			page 432


 22767 2673 6C6F6E67 		.ascii	"long unsigned int\000"
 22767      20756E73 
 22767      69676E65 
 22767      6420696E 
 22767      7400
 22768              	.LASF353:
 22769 2685 63635F72 		.ascii	"cc_ramp_step_max\000"
 22769      616D705F 
 22769      73746570 
 22769      5F6D6178 
 22769      00
 22770              	.LASF972:
 22771 2696 6D635F69 		.ascii	"mc_interface_get_watt_hours\000"
 22771      6E746572 
 22771      66616365 
 22771      5F676574 
 22771      5F776174 
 22772              	.LASF347:
 22773 26b2 705F7069 		.ascii	"p_pid_kd\000"
 22773      645F6B64 
 22773      00
 22774              	.LASF346:
 22775 26bb 705F7069 		.ascii	"p_pid_ki\000"
 22775      645F6B69 
 22775      00
 22776              	.LASF204:
 22777 26c4 715F7772 		.ascii	"q_wrptr\000"
 22777      70747200 
 22778              	.LASF345:
 22779 26cc 705F7069 		.ascii	"p_pid_kp\000"
 22779      645F6B70 
 22779      00
 22780              	.LASF519:
 22781 26d5 49435544 		.ascii	"ICUDriver\000"
 22781      72697665 
 22781      7200
 22782              	.LASF417:
 22783 26df 636F6D6D 		.ascii	"comm_step\000"
 22783      5F737465 
 22783      7000
 22784              	.LASF541:
 22785 26e9 49435543 		.ascii	"ICUConfig\000"
 22785      6F6E6669 
 22785      6700
 22786              	.LASF217:
 22787 26f3 50574D5F 		.ascii	"PWM_MODE_SYNCHRONOUS\000"
 22787      4D4F4445 
 22787      5F53594E 
 22787      4348524F 
 22787      4E4F5553 
 22788              	.LASF363:
 22789 2708 6D5F626C 		.ascii	"m_bldc_f_sw_max\000"
 22789      64635F66 
 22789      5F73775F 
 22789      6D617800 
 22790              	.LASF878:
 22791 2718 6D5F7465 		.ascii	"m_temp_fet\000"
ARM GAS  /tmp/ccETYwEL.s 			page 433


 22791      6D705F66 
 22791      657400
 22792              	.LASF256:
 22793 2723 64727638 		.ascii	"drv8301_oc_mode\000"
 22793      3330315F 
 22793      6F635F6D 
 22793      6F646500 
 22794              	.LASF575:
 22795 2733 75617274 		.ascii	"uartcb_t\000"
 22795      63625F74 
 22795      00
 22796              	.LASF336:
 22797 273c 666F635F 		.ascii	"foc_temp_comp\000"
 22797      74656D70 
 22797      5F636F6D 
 22797      7000
 22798              	.LASF912:
 22799 274a 74656D70 		.ascii	"temp_fet_accel_start\000"
 22799      5F666574 
 22799      5F616363 
 22799      656C5F73 
 22799      74617274 
 22800              	.LASF1073:
 22801 275f 6D637077 		.ascii	"mcpwm_foc_is_dccal_done\000"
 22801      6D5F666F 
 22801      635F6973 
 22801      5F646363 
 22801      616C5F64 
 22802              	.LASF475:
 22803 2777 72786675 		.ascii	"rxfull_event\000"
 22803      6C6C5F65 
 22803      76656E74 
 22803      00
 22804              	.LASF984:
 22805 2784 6D635F69 		.ascii	"mc_interface_set_brake_current_rel\000"
 22805      6E746572 
 22805      66616365 
 22805      5F736574 
 22805      5F627261 
 22806              	.LASF626:
 22807 27a7 75736265 		.ascii	"usbevent_t\000"
 22807      76656E74 
 22807      5F7400
 22808              	.LASF788:
 22809 27b2 5F636C6F 		.ascii	"_close\000"
 22809      736500
 22810              	.LASF166:
 22811 27b9 63686172 		.ascii	"char\000"
 22811      00
 22812              	.LASF470:
 22813 27be 43414E43 		.ascii	"CANConfig\000"
 22813      6F6E6669 
 22813      6700
 22814              	.LASF456:
 22815 27c8 50454461 		.ascii	"PEData\000"
 22815      746100
 22816              	.LASF64:
ARM GAS  /tmp/ccETYwEL.s 			page 434


 22817 27cf 725F7175 		.ascii	"r_queue\000"
 22817      65756500 
 22818              	.LASF820:
 22819 27d7 5F676C75 		.ascii	"_glue\000"
 22819      6500
 22820              	.LASF306:
 22821 27dd 736C5F62 		.ascii	"sl_bemf_coupling_k\000"
 22821      656D665F 
 22821      636F7570 
 22821      6C696E67 
 22821      5F6B00
 22822              	.LASF1010:
 22823 27f0 63685379 		.ascii	"chSysUnlockFromISR\000"
 22823      73556E6C 
 22823      6F636B46 
 22823      726F6D49 
 22823      535200
 22824              	.LASF951:
 22825 2803 6D635F69 		.ascii	"mc_interface_temp_fet_filtered\000"
 22825      6E746572 
 22825      66616365 
 22825      5F74656D 
 22825      705F6665 
 22826              	.LASF870:
 22827 2822 6D5F6D6F 		.ascii	"m_motor_iq_sum\000"
 22827      746F725F 
 22827      69715F73 
 22827      756D00
 22828              	.LASF289:
 22829 2831 6C5F7465 		.ascii	"l_temp_accel_dec\000"
 22829      6D705F61 
 22829      6363656C 
 22829      5F646563 
 22829      00
 22830              	.LASF369:
 22831 2842 434F4D4D 		.ascii	"COMM_FW_VERSION\000"
 22831      5F46575F 
 22831      56455253 
 22831      494F4E00 
 22832              	.LASF941:
 22833 2852 63757272 		.ascii	"curr_diff_sum\000"
 22833      5F646966 
 22833      665F7375 
 22833      6D00
 22834              	.LASF572:
 22835 2860 75736172 		.ascii	"usart\000"
 22835      7400
 22836              	.LASF1025:
 22837 2866 6D637077 		.ascii	"mcpwm_read_hall_phase\000"
 22837      6D5F7265 
 22837      61645F68 
 22837      616C6C5F 
 22837      70686173 
 22838              	.LASF1091:
 22839 287c 7465726D 		.ascii	"terminal_add_fault_data\000"
 22839      696E616C 
 22839      5F616464 
ARM GAS  /tmp/ccETYwEL.s 			page 435


 22839      5F666175 
 22839      6C745F64 
 22840              	.LASF816:
 22841 2894 5F736967 		.ascii	"_sig_func\000"
 22841      5F66756E 
 22841      6300
 22842              	.LASF207:
 22843 289e 715F6C69 		.ascii	"q_link\000"
 22843      6E6B00
 22844              	.LASF947:
 22845 28a5 63757272 		.ascii	"current_samp\000"
 22845      656E745F 
 22845      73616D70 
 22845      00
 22846              	.LASF531:
 22847 28b2 4943555F 		.ascii	"ICU_CHANNEL_1\000"
 22847      4348414E 
 22847      4E454C5F 
 22847      3100
 22848              	.LASF865:
 22849 28c0 6D5F6D6F 		.ascii	"m_motor_current_sum\000"
 22849      746F725F 
 22849      63757272 
 22849      656E745F 
 22849      73756D00 
 22850              	.LASF1035:
 22851 28d4 63684576 		.ascii	"chEvtSignal\000"
 22851      74536967 
 22851      6E616C00 
 22852              	.LASF754:
 22853 28e0 5F426967 		.ascii	"_Bigint\000"
 22853      696E7400 
 22854              	.LASF215:
 22855 28e8 6D635F73 		.ascii	"mc_state\000"
 22855      74617465 
 22855      00
 22856              	.LASF1008:
 22857 28f1 63685468 		.ascii	"chThdGetSelfX\000"
 22857      64476574 
 22857      53656C66 
 22857      5800
 22858              	.LASF889:
 22859 28ff 6D5F7068 		.ascii	"m_phase_samples\000"
 22859      6173655F 
 22859      73616D70 
 22859      6C657300 
 22860              	.LASF662:
 22861 290f 47494E54 		.ascii	"GINTMSK\000"
 22861      4D534B00 
 22862              	.LASF523:
 22863 2917 69637563 		.ascii	"icucallback_t\000"
 22863      616C6C62 
 22863      61636B5F 
 22863      7400
 22864              	.LASF667:
 22865 2925 484E5054 		.ascii	"HNPTXSTS\000"
 22865      58535453 
ARM GAS  /tmp/ccETYwEL.s 			page 436


 22865      00
 22866              	.LASF957:
 22867 292e 6D635F69 		.ascii	"mc_interface_read_reset_avg_iq\000"
 22867      6E746572 
 22867      66616365 
 22867      5F726561 
 22867      645F7265 
 22868              	.LASF407:
 22869 294d 6661756C 		.ascii	"fault\000"
 22869      7400
 22870              	.LASF599:
 22871 2953 636F6E66 		.ascii	"configuration\000"
 22871      69677572 
 22871      6174696F 
 22871      6E00
 22872              	.LASF944:
 22873 2961 7A65726F 		.ascii	"zero\000"
 22873      00
 22874              	.LASF867:
 22875 2966 6D5F6D6F 		.ascii	"m_motor_current_iterations\000"
 22875      746F725F 
 22875      63757272 
 22875      656E745F 
 22875      69746572 
 22876              	.LASF815:
 22877 2981 5F617465 		.ascii	"_atexit0\000"
 22877      78697430 
 22877      00
 22878              	.LASF973:
 22879 298a 6D635F69 		.ascii	"mc_interface_get_amp_hours_charged\000"
 22879      6E746572 
 22879      66616365 
 22879      5F676574 
 22879      5F616D70 
 22880              	.LASF921:
 22881 29ad 6C6F5F6D 		.ascii	"lo_min_rpm\000"
 22881      696E5F72 
 22881      706D00
 22882              	.LASF1043:
 22883 29b8 6D637077 		.ascii	"mcpwm_foc_get_tachometer_value\000"
 22883      6D5F666F 
 22883      635F6765 
 22883      745F7461 
 22883      63686F6D 
 22884              	.LASF451:
 22885 29d7 73746D33 		.ascii	"stm32_gpio_setup_t\000"
 22885      325F6770 
 22885      696F5F73 
 22885      65747570 
 22885      5F7400
 22886              	.LASF528:
 22887 29ea 4943555F 		.ascii	"ICU_INPUT_ACTIVE_LOW\000"
 22887      494E5055 
 22887      545F4143 
 22887      54495645 
 22887      5F4C4F57 
 22888              	.LASF257:
ARM GAS  /tmp/ccETYwEL.s 			page 437


 22889 29ff 44454255 		.ascii	"DEBUG_SAMPLING_OFF\000"
 22889      475F5341 
 22889      4D504C49 
 22889      4E475F4F 
 22889      464600
 22890              	.LASF924:
 22891 2a12 6C6F5F6D 		.ascii	"lo_max\000"
 22891      617800
 22892              	.LASF271:
 22893 2a19 6C5F6375 		.ascii	"l_current_min\000"
 22893      7272656E 
 22893      745F6D69 
 22893      6E00
 22894              	.LASF978:
 22895 2a27 6D635F69 		.ascii	"mc_interface_get_duty_cycle_set\000"
 22895      6E746572 
 22895      66616365 
 22895      5F676574 
 22895      5F647574 
 22896              	.LASF434:
 22897 2a47 5F73746D 		.ascii	"_stm32_dma_streams\000"
 22897      33325F64 
 22897      6D615F73 
 22897      74726561 
 22897      6D7300
 22898              	.LASF901:
 22899 2a5a 62756666 		.ascii	"buffer\000"
 22899      657200
 22900              	.LASF839:
 22901 2a61 5F676574 		.ascii	"_getdate_err\000"
 22901      64617465 
 22901      5F657272 
 22901      00
 22902              	.LASF412:
 22903 2a6e 74616368 		.ascii	"tacho\000"
 22903      6F00
 22904              	.LASF530:
 22905 2a74 69637566 		.ascii	"icufreq_t\000"
 22905      7265715F 
 22905      7400
 22906              	.LASF1026:
 22907 2a7e 6D637077 		.ascii	"mcpwm_foc_get_phase\000"
 22907      6D5F666F 
 22907      635F6765 
 22907      745F7068 
 22907      61736500 
 22908              	.LASF759:
 22909 2a92 5F5F746D 		.ascii	"__tm\000"
 22909      00
 22910              	.LASF242:
 22911 2a97 4641554C 		.ascii	"FAULT_CODE_UNDER_VOLTAGE\000"
 22911      545F434F 
 22911      44455F55 
 22911      4E444552 
 22911      5F564F4C 
 22912              	.LASF396:
 22913 2ab0 434F4D4D 		.ascii	"COMM_DETECT_ENCODER\000"
ARM GAS  /tmp/ccETYwEL.s 			page 438


 22913      5F444554 
 22913      4543545F 
 22913      454E434F 
 22913      44455200 
 22914              	.LASF1077:
 22915 2ac4 656E636F 		.ascii	"encoder_init_as5047p_spi\000"
 22915      6465725F 
 22915      696E6974 
 22915      5F617335 
 22915      30343770 
 22916              	.LASF443:
 22917 2add 41465248 		.ascii	"AFRH\000"
 22917      00
 22918              	.LASF384:
 22919 2ae2 434F4D4D 		.ascii	"COMM_GET_MCCONF_DEFAULT\000"
 22919      5F474554 
 22919      5F4D4343 
 22919      4F4E465F 
 22919      44454641 
 22920              	.LASF1038:
 22921 2afa 656E636F 		.ascii	"encoder_read_deg\000"
 22921      6465725F 
 22921      72656164 
 22921      5F646567 
 22921      00
 22922              	.LASF373:
 22923 2b0b 434F4D4D 		.ascii	"COMM_GET_VALUES\000"
 22923      5F474554 
 22923      5F56414C 
 22923      55455300 
 22924              	.LASF308:
 22925 2b1b 68616C6C 		.ascii	"hall_sl_erpm\000"
 22925      5F736C5F 
 22925      6572706D 
 22925      00
 22926              	.LASF34:
 22927 2b28 636E745F 		.ascii	"cnt_t\000"
 22927      7400
 22928              	.LASF910:
 22929 2b2e 6C6F5F6D 		.ascii	"lo_min_mot\000"
 22929      696E5F6D 
 22929      6F7400
 22930              	.LASF930:
 22931 2b39 6C6F5F69 		.ascii	"lo_in_min\000"
 22931      6E5F6D69 
 22931      6E00
 22932              	.LASF614:
 22933 2b43 5553425F 		.ascii	"USB_EP0_WAITING_TX0\000"
 22933      4550305F 
 22933      57414954 
 22933      494E475F 
 22933      54583000 
 22934              	.LASF411:
 22935 2b57 64757479 		.ascii	"duty\000"
 22935      00
 22936              	.LASF240:
 22937 2b5c 4641554C 		.ascii	"FAULT_CODE_NONE\000"
ARM GAS  /tmp/ccETYwEL.s 			page 439


 22937      545F434F 
 22937      44455F4E 
 22937      4F4E4500 
 22938              	.LASF340:
 22939 2b6c 735F7069 		.ascii	"s_pid_ki\000"
 22939      645F6B69 
 22939      00
 22940              	.LASF643:
 22941 2b75 73746D33 		.ascii	"stm32_otg_host_chn_t\000"
 22941      325F6F74 
 22941      675F686F 
 22941      73745F63 
 22941      686E5F74 
 22942              	.LASF263:
 22943 2b8a 44454255 		.ascii	"DEBUG_SAMPLING_TRIGGER_FAULT_NOSEND\000"
 22943      475F5341 
 22943      4D504C49 
 22943      4E475F54 
 22943      52494747 
 22944              	.LASF339:
 22945 2bae 735F7069 		.ascii	"s_pid_kp\000"
 22945      645F6B70 
 22945      00
 22946              	.LASF390:
 22947 2bb7 434F4D4D 		.ascii	"COMM_PRINT\000"
 22947      5F505249 
 22947      4E5400
 22948              	.LASF442:
 22949 2bc2 4146524C 		.ascii	"AFRL\000"
 22949      00
 22950              	.LASF298:
 22951 2bc7 6C6F5F63 		.ascii	"lo_current_motor_max_now\000"
 22951      75727265 
 22951      6E745F6D 
 22951      6F746F72 
 22951      5F6D6178 
 22952              	.LASF913:
 22953 2be0 74656D70 		.ascii	"temp_fet_accel_end\000"
 22953      5F666574 
 22953      5F616363 
 22953      656C5F65 
 22953      6E6400
 22954              	.LASF851:
 22955 2bf3 5F696D70 		.ascii	"_impure_ptr\000"
 22955      7572655F 
 22955      70747200 
 22956              	.LASF183:
 22957 2bff 63665F6F 		.ascii	"cf_off_preempt\000"
 22957      66665F70 
 22957      7265656D 
 22957      707400
 22958              	.LASF848:
 22959 2c0e 5F756E75 		.ascii	"_unused\000"
 22959      73656400 
 22960              	.LASF652:
 22961 2c16 444F4550 		.ascii	"DOEPCTL\000"
 22961      43544C00 
ARM GAS  /tmp/ccETYwEL.s 			page 440


 22962              	.LASF962:
 22963 2c1e 6D635F69 		.ascii	"mc_interface_get_tachometer_abs_value\000"
 22963      6E746572 
 22963      66616365 
 22963      5F676574 
 22963      5F746163 
 22964              	.LASF638:
 22965 2c44 4843494E 		.ascii	"HCINTMSK\000"
 22965      544D534B 
 22965      00
 22966              	.LASF789:
 22967 2c4d 5F756275 		.ascii	"_ubuf\000"
 22967      6600
 22968              	.LASF325:
 22969 2c53 666F635F 		.ascii	"foc_openloop_rpm\000"
 22969      6F70656E 
 22969      6C6F6F70 
 22969      5F72706D 
 22969      00
 22970              	.LASF329:
 22971 2c64 666F635F 		.ascii	"foc_sl_d_current_factor\000"
 22971      736C5F64 
 22971      5F637572 
 22971      72656E74 
 22971      5F666163 
 22972              	.LASF834:
 22973 2c7c 5F6D626C 		.ascii	"_mblen_state\000"
 22973      656E5F73 
 22973      74617465 
 22973      00
 22974              	.LASF817:
 22975 2c89 5F5F7367 		.ascii	"__sglue\000"
 22975      6C756500 
 22976              	.LASF850:
 22977 2c91 5F5F6C6F 		.ascii	"__locale_t\000"
 22977      63616C65 
 22977      5F7400
 22978              	.LASF322:
 22979 2c9c 666F635F 		.ascii	"foc_pll_ki\000"
 22979      706C6C5F 
 22979      6B6900
 22980              	.LASF1057:
 22981 2ca7 6D637077 		.ascii	"mcpwm_foc_get_rpm\000"
 22981      6D5F666F 
 22981      635F6765 
 22981      745F7270 
 22981      6D00
 22982              	.LASF568:
 22983 2cb9 75617274 		.ascii	"uartflags_t\000"
 22983      666C6167 
 22983      735F7400 
 22984              	.LASF321:
 22985 2cc5 666F635F 		.ascii	"foc_pll_kp\000"
 22985      706C6C5F 
 22985      6B7000
 22986              	.LASF686:
 22987 2cd0 44434647 		.ascii	"DCFG\000"
ARM GAS  /tmp/ccETYwEL.s 			page 441


 22987      00
 22988              	.LASF557:
 22989 2cd5 55415254 		.ascii	"UART_STOP\000"
 22989      5F53544F 
 22989      5000
 22990              	.LASF260:
 22991 2cdf 44454255 		.ascii	"DEBUG_SAMPLING_TRIGGER_START\000"
 22991      475F5341 
 22991      4D504C49 
 22991      4E475F54 
 22991      52494747 
 22992              	.LASF517:
 22993 2cfc 4943555F 		.ascii	"ICU_ACTIVE\000"
 22993      41435449 
 22993      564500
 22994              	.LASF580:
 22995 2d07 7278656E 		.ascii	"rxend_cb\000"
 22995      645F6362 
 22995      00
 22996              	.LASF937:
 22997 2d10 6162735F 		.ascii	"abs_current\000"
 22997      63757272 
 22997      656E7400 
 22998              	.LASF979:
 22999 2d1c 6D635F69 		.ascii	"mc_interface_release_motor\000"
 22999      6E746572 
 22999      66616365 
 22999      5F72656C 
 22999      65617365 
 23000              	.LASF70:
 23001 2d37 76746675 		.ascii	"vtfunc_t\000"
 23001      6E635F74 
 23001      00
 23002              	.LASF99:
 23003 2d40 43414E5F 		.ascii	"CAN_FIFOMailBox_TypeDef\000"
 23003      4649464F 
 23003      4D61696C 
 23003      426F785F 
 23003      54797065 
 23004              	.LASF154:
 23005 2d58 77746F62 		.ascii	"wtobjp\000"
 23005      6A7000
 23006              	.LASF745:
 23007 2d5f 5F66706F 		.ascii	"_fpos_t\000"
 23007      735F7400 
 23008              	.LASF782:
 23009 2d67 5F66696C 		.ascii	"_file\000"
 23009      6500
 23010              	.LASF253:
 23011 2d6d 44525638 		.ascii	"DRV8301_OC_LATCH_SHUTDOWN\000"
 23011      3330315F 
 23011      4F435F4C 
 23011      41544348 
 23011      5F534855 
 23012              	.LASF54:
 23013 2d87 705F7265 		.ascii	"p_realprio\000"
 23013      616C7072 
ARM GAS  /tmp/ccETYwEL.s 			page 442


 23013      696F00
 23014              	.LASF404:
 23015 2d92 434F4D4D 		.ascii	"COMM_SET_CHUCK_DATA\000"
 23015      5F534554 
 23015      5F434855 
 23015      434B5F44 
 23015      41544100 
 23016              	.LASF206:
 23017 2da6 715F6E6F 		.ascii	"q_notify\000"
 23017      74696679 
 23017      00
 23018              	.LASF157:
 23019 2daf 77746D74 		.ascii	"wtmtxp\000"
 23019      787000
 23020              	.LASF239:
 23021 2db6 6D635F6D 		.ascii	"mc_motor_type\000"
 23021      6F746F72 
 23021      5F747970 
 23021      6500
 23022              	.LASF780:
 23023 2dc4 5F5F7346 		.ascii	"__sFILE\000"
 23023      494C4500 
 23024              	.LASF258:
 23025 2dcc 44454255 		.ascii	"DEBUG_SAMPLING_NOW\000"
 23025      475F5341 
 23025      4D504C49 
 23025      4E475F4E 
 23025      4F5700
 23026              	.LASF853:
 23027 2ddf 646F7562 		.ascii	"double\000"
 23027      6C6500
 23028              	.LASF776:
 23029 2de6 5F666E73 		.ascii	"_fns\000"
 23029      00
 23030              	.LASF895:
 23031 2deb 6D5F7361 		.ascii	"m_sample_trigger\000"
 23031      6D706C65 
 23031      5F747269 
 23031      67676572 
 23031      00
 23032              	.LASF1078:
 23033 2dfc 656E636F 		.ascii	"encoder_set_counts\000"
 23033      6465725F 
 23033      7365745F 
 23033      636F756E 
 23033      747300
 23034              	.LASF852:
 23035 2e0f 5F676C6F 		.ascii	"_global_impure_ptr\000"
 23035      62616C5F 
 23035      696D7075 
 23035      72655F70 
 23035      747200
 23036              	.LASF1009:
 23037 2e22 63685654 		.ascii	"chVTGetSystemTimeX\000"
 23037      47657453 
 23037      79737465 
 23037      6D54696D 
ARM GAS  /tmp/ccETYwEL.s 			page 443


 23037      655800
 23038              	.LASF386:
 23039 2e35 434F4D4D 		.ascii	"COMM_GET_APPCONF\000"
 23039      5F474554 
 23039      5F415050 
 23039      434F4E46 
 23039      00
 23040              	.LASF926:
 23041 2e46 6C6F5F69 		.ascii	"lo_in_max_batt\000"
 23041      6E5F6D61 
 23041      785F6261 
 23041      747400
 23042              	.LASF988:
 23043 2e55 6D635F69 		.ascii	"mc_interface_set_pid_pos\000"
 23043      6E746572 
 23043      66616365 
 23043      5F736574 
 23043      5F706964 
 23044              	.LASF725:
 23045 2e6e 5553424F 		.ascii	"USBOutEndpointState\000"
 23045      7574456E 
 23045      64706F69 
 23045      6E745374 
 23045      61746500 
 23046              	.LASF1106:
 23047 2e82 5F5F6275 		.ascii	"__builtin_memcpy\000"
 23047      696C7469 
 23047      6E5F6D65 
 23047      6D637079 
 23047      00
 23048              	.LASF682:
 23049 2e93 72657376 		.ascii	"resvd41C\000"
 23049      64343143 
 23049      00
 23050              	.LASF288:
 23051 2e9c 6C5F7465 		.ascii	"l_temp_motor_end\000"
 23051      6D705F6D 
 23051      6F746F72 
 23051      5F656E64 
 23051      00
 23052              	.LASF751:
 23053 2ead 5F6D6273 		.ascii	"_mbstate_t\000"
 23053      74617465 
 23053      5F7400
 23054              	.LASF845:
 23055 2eb8 5F685F65 		.ascii	"_h_errno\000"
 23055      72726E6F 
 23055      00
 23056              	.LASF911:
 23057 2ec1 6C6F5F6D 		.ascii	"lo_max_mot\000"
 23057      61785F6D 
 23057      6F7400
 23058              	.LASF337:
 23059 2ecc 666F635F 		.ascii	"foc_temp_comp_base_temp\000"
 23059      74656D70 
 23059      5F636F6D 
 23059      705F6261 
ARM GAS  /tmp/ccETYwEL.s 			page 444


 23059      73655F74 
 23060              	.LASF96:
 23061 2ee4 52445452 		.ascii	"RDTR\000"
 23061      00
 23062              	.LASF894:
 23063 2ee9 6D5F7361 		.ascii	"m_sample_now\000"
 23063      6D706C65 
 23063      5F6E6F77 
 23063      00
 23064              	.LASF997:
 23065 2ef6 6D635F69 		.ascii	"mc_interface_unlock\000"
 23065      6E746572 
 23065      66616365 
 23065      5F756E6C 
 23065      6F636B00 
 23066              	.LASF269:
 23067 2f0a 73656E73 		.ascii	"sensor_mode\000"
 23067      6F725F6D 
 23067      6F646500 
 23068              	.LASF223:
 23069 2f16 53454E53 		.ascii	"SENSOR_MODE_SENSORLESS\000"
 23069      4F525F4D 
 23069      4F44455F 
 23069      53454E53 
 23069      4F524C45 
 23070              	.LASF583:
 23071 2f2d 73706565 		.ascii	"speed\000"
 23071      6400
 23072              	.LASF63:
 23073 2f33 63685F72 		.ascii	"ch_ready_list\000"
 23073      65616479 
 23073      5F6C6973 
 23073      7400
 23074              	.LASF579:
 23075 2f41 7478656E 		.ascii	"txend2_cb\000"
 23075      64325F63 
 23075      6200
 23076              	.LASF1061:
 23077 2f4b 6D637077 		.ascii	"mcpwm_foc_get_duty_cycle_now\000"
 23077      6D5F666F 
 23077      635F6765 
 23077      745F6475 
 23077      74795F63 
 23078              	.LASF439:
 23079 2f68 50555044 		.ascii	"PUPDR\000"
 23079      5200
 23080              	.LASF9:
 23081 2f6e 5F5F696E 		.ascii	"__int32_t\000"
 23081      7433325F 
 23081      7400
 23082              	.LASF11:
 23083 2f78 5F5F7569 		.ascii	"__uint32_t\000"
 23083      6E743332 
 23083      5F7400
 23084              	.LASF521:
 23085 2f83 77636372 		.ascii	"wccrp\000"
 23085      7000
ARM GAS  /tmp/ccETYwEL.s 			page 445


 23086              	.LASF82:
 23087 2f89 63685F73 		.ascii	"ch_system_debug\000"
 23087      79737465 
 23087      6D5F6465 
 23087      62756700 
 23088              	.LASF416:
 23089 2f99 74696D5F 		.ascii	"tim_top\000"
 23089      746F7000 
 23090              	.LASF693:
 23091 2fa1 4441494E 		.ascii	"DAINTMSK\000"
 23091      544D534B 
 23091      00
 23092              	.LASF1090:
 23093 2faa 6C6F6766 		.ascii	"logf\000"
 23093      00
 23094              	.LASF201:
 23095 2faf 715F636F 		.ascii	"q_counter\000"
 23095      756E7465 
 23095      7200
 23096              	.LASF612:
 23097 2fb9 5553425F 		.ascii	"USB_EP0_WAITING_SETUP\000"
 23097      4550305F 
 23097      57414954 
 23097      494E475F 
 23097      53455455 
 23098              	.LASF773:
 23099 2fcf 5F69735F 		.ascii	"_is_cxa\000"
 23099      63786100 
 23100              	.LASF450:
 23101 2fd7 61667268 		.ascii	"afrh\000"
 23101      00
 23102              	.LASF1022:
 23103 2fdc 6D637077 		.ascii	"mcpwm_adc_inj_int_handler\000"
 23103      6D5F6164 
 23103      635F696E 
 23103      6A5F696E 
 23103      745F6861 
 23104              	.LASF514:
 23105 2ff6 4943555F 		.ascii	"ICU_STOP\000"
 23105      53544F50 
 23105      00
 23106              	.LASF449:
 23107 2fff 6166726C 		.ascii	"afrl\000"
 23107      00
 23108              	.LASF716:
 23109 3004 71756575 		.ascii	"queue\000"
 23109      6500
 23110              	.LASF262:
 23111 300a 44454255 		.ascii	"DEBUG_SAMPLING_TRIGGER_START_NOSEND\000"
 23111      475F5341 
 23111      4D504C49 
 23111      4E475F54 
 23111      52494747 
 23112              	.LASF362:
 23113 302e 6D5F626C 		.ascii	"m_bldc_f_sw_min\000"
 23113      64635F66 
 23113      5F73775F 
ARM GAS  /tmp/ccETYwEL.s 			page 446


 23113      6D696E00 
 23114              	.LASF595:
 23115 303e 65703065 		.ascii	"ep0endcb\000"
 23115      6E646362 
 23115      00
 23116              	.LASF431:
 23117 3047 73656C66 		.ascii	"selfindex\000"
 23117      696E6465 
 23117      7800
 23118              	.LASF665:
 23119 3051 47525846 		.ascii	"GRXFSIZ\000"
 23119      53495A00 
 23120              	.LASF187:
 23121 3059 6D757465 		.ascii	"mutex_t\000"
 23121      785F7400 
 23122              	.LASF810:
 23123 3061 5F703573 		.ascii	"_p5s\000"
 23123      00
 23124              	.LASF956:
 23125 3066 6D635F69 		.ascii	"mc_interface_get_pid_pos_set\000"
 23125      6E746572 
 23125      66616365 
 23125      5F676574 
 23125      5F706964 
 23126              	.LASF52:
 23127 3083 705F6570 		.ascii	"p_epending\000"
 23127      656E6469 
 23127      6E6700
 23128              	.LASF904:
 23129 308e 73616D70 		.ascii	"sample_send_thread\000"
 23129      6C655F73 
 23129      656E645F 
 23129      74687265 
 23129      616400
 23130              	.LASF436:
 23131 30a1 4D4F4445 		.ascii	"MODER\000"
 23131      5200
 23132              	.LASF1042:
 23133 30a7 6D637077 		.ascii	"mcpwm_get_tachometer_abs_value\000"
 23133      6D5F6765 
 23133      745F7461 
 23133      63686F6D 
 23133      65746572 
 23134              	.LASF520:
 23135 30c6 636C6F63 		.ascii	"clock\000"
 23135      6B00
 23136              	.LASF326:
 23137 30cc 666F635F 		.ascii	"foc_sl_openloop_hyst\000"
 23137      736C5F6F 
 23137      70656E6C 
 23137      6F6F705F 
 23137      68797374 
 23138              	.LASF103:
 23139 30e1 52455345 		.ascii	"RESERVED0\000"
 23139      52564544 
 23139      3000
 23140              	.LASF106:
ARM GAS  /tmp/ccETYwEL.s 			page 447


 23141 30eb 52455345 		.ascii	"RESERVED1\000"
 23141      52564544 
 23141      3100
 23142              	.LASF108:
 23143 30f5 52455345 		.ascii	"RESERVED2\000"
 23143      52564544 
 23143      3200
 23144              	.LASF110:
 23145 30ff 52455345 		.ascii	"RESERVED3\000"
 23145      52564544 
 23145      3300
 23146              	.LASF112:
 23147 3109 52455345 		.ascii	"RESERVED4\000"
 23147      52564544 
 23147      3400
 23148              	.LASF114:
 23149 3113 52455345 		.ascii	"RESERVED5\000"
 23149      52564544 
 23149      3500
 23150              	.LASF736:
 23151 311d 55534245 		.ascii	"USBEndpointConfig\000"
 23151      6E64706F 
 23151      696E7443 
 23151      6F6E6669 
 23151      6700
 23152              	.LASF474:
 23153 312f 72787175 		.ascii	"rxqueue\000"
 23153      65756500 
 23154              	.LASF684:
 23155 3137 72657376 		.ascii	"resvd444\000"
 23155      64343434 
 23155      00
 23156              	.LASF463:
 23157 3140 70616C5F 		.ascii	"pal_default_config\000"
 23157      64656661 
 23157      756C745F 
 23157      636F6E66 
 23157      696700
 23158              	.LASF401:
 23159 3153 434F4D4D 		.ascii	"COMM_GET_DECODED_ADC\000"
 23159      5F474554 
 23159      5F444543 
 23159      4F444544 
 23159      5F414443 
 23160              	.LASF566:
 23161 3168 55415254 		.ascii	"UART_RX_COMPLETE\000"
 23161      5F52585F 
 23161      434F4D50 
 23161      4C455445 
 23161      00
 23162              	.LASF385:
 23163 3179 434F4D4D 		.ascii	"COMM_SET_APPCONF\000"
 23163      5F534554 
 23163      5F415050 
 23163      434F4E46 
 23163      00
 23164              	.LASF191:
ARM GAS  /tmp/ccETYwEL.s 			page 448


 23165 318a 656C5F6C 		.ascii	"el_listener\000"
 23165      69737465 
 23165      6E657200 
 23166              	.LASF715:
 23167 3196 6C696E65 		.ascii	"linear\000"
 23167      617200
 23168              	.LASF410:
 23169 319d 766F6C74 		.ascii	"voltage\000"
 23169      61676500 
 23170              	.LASF296:
 23171 31a5 6C6F5F69 		.ascii	"lo_in_current_max\000"
 23171      6E5F6375 
 23171      7272656E 
 23171      745F6D61 
 23171      7800
 23172              	.LASF1021:
 23173 31b7 63685468 		.ascii	"chThdSleep\000"
 23173      64536C65 
 23173      657000
 23174              	.LASF393:
 23175 31c2 434F4D4D 		.ascii	"COMM_DETECT_MOTOR_PARAM\000"
 23175      5F444554 
 23175      4543545F 
 23175      4D4F544F 
 23175      525F5041 
 23176              	.LASF526:
 23177 31da 73746D33 		.ascii	"stm32_tim_t\000"
 23177      325F7469 
 23177      6D5F7400 
 23178              	.LASF927:
 23179 31e6 6C6F5F69 		.ascii	"lo_in_max_watt\000"
 23179      6E5F6D61 
 23179      785F7761 
 23179      747400
 23180              	.LASF65:
 23181 31f5 725F7072 		.ascii	"r_prio\000"
 23181      696F00
 23182              	.LASF601:
 23183 31fc 706D6E65 		.ascii	"pmnext\000"
 23183      787400
 23184              	.LASF330:
 23185 3203 666F635F 		.ascii	"foc_sensor_mode\000"
 23185      73656E73 
 23185      6F725F6D 
 23185      6F646500 
 23186              	.LASF542:
 23187 3213 49435544 		.ascii	"ICUD3\000"
 23187      3300
 23188              	.LASF90:
 23189 3219 49544D5F 		.ascii	"ITM_RxBuffer\000"
 23189      52784275 
 23189      66666572 
 23189      00
 23190              	.LASF532:
 23191 3226 4943555F 		.ascii	"ICU_CHANNEL_2\000"
 23191      4348414E 
 23191      4E454C5F 
ARM GAS  /tmp/ccETYwEL.s 			page 449


 23191      3200
 23192              	.LASF229:
 23193 3234 464F435F 		.ascii	"FOC_SENSOR_MODE_HALL\000"
 23193      53454E53 
 23193      4F525F4D 
 23193      4F44455F 
 23193      48414C4C 
 23194              	.LASF15:
 23195 3249 6C6F6E67 		.ascii	"long long unsigned int\000"
 23195      206C6F6E 
 23195      6720756E 
 23195      7369676E 
 23195      65642069 
 23196              	.LASF150:
 23197 3260 6F666673 		.ascii	"offset\000"
 23197      657400
 23198              	.LASF933:
 23199 3267 6D635F69 		.ascii	"mc_interface_mc_timer_isr\000"
 23199      6E746572 
 23199      66616365 
 23199      5F6D635F 
 23199      74696D65 
 23200              	.LASF880:
 23201 3281 6D5F6375 		.ascii	"m_curr0_samples\000"
 23201      7272305F 
 23201      73616D70 
 23201      6C657300 
 23202              	.LASF536:
 23203 3291 77696474 		.ascii	"width_cb\000"
 23203      685F6362 
 23203      00
 23204              	.LASF348:
 23205 329a 705F7069 		.ascii	"p_pid_kd_filter\000"
 23205      645F6B64 
 23205      5F66696C 
 23205      74657200 
 23206              	.LASF312:
 23207 32aa 666F635F 		.ascii	"foc_dt_us\000"
 23207      64745F75 
 23207      7300
 23208              	.LASF881:
 23209 32b4 6D5F6375 		.ascii	"m_curr1_samples\000"
 23209      7272315F 
 23209      73616D70 
 23209      6C657300 
 23210              	.LASF582:
 23211 32c4 72786572 		.ascii	"rxerr_cb\000"
 23211      725F6362 
 23211      00
 23212              	.LASF335:
 23213 32cd 666F635F 		.ascii	"foc_sat_comp\000"
 23213      7361745F 
 23213      636F6D70 
 23213      00
 23214              	.LASF117:
 23215 32da 4E445452 		.ascii	"NDTR\000"
 23215      00
ARM GAS  /tmp/ccETYwEL.s 			page 450


 23216              	.LASF196:
 23217 32df 65735F6E 		.ascii	"es_next\000"
 23217      65787400 
 23218              	.LASF831:
 23219 32e7 5F67616D 		.ascii	"_gamma_signgam\000"
 23219      6D615F73 
 23219      69676E67 
 23219      616D00
 23220              	.LASF650:
 23221 32f6 72657376 		.ascii	"resvd1C\000"
 23221      64314300 
 23222              	.LASF89:
 23223 32fe 69646C65 		.ascii	"idle_thread_wa\000"
 23223      5F746872 
 23223      6561645F 
 23223      776100
 23224              	.LASF646:
 23225 330d 44494550 		.ascii	"DIEPINT\000"
 23225      494E5400 
 23226              	.LASF518:
 23227 3315 69637573 		.ascii	"icustate_t\000"
 23227      74617465 
 23227      5F7400
 23228              	.LASF131:
 23229 3320 5350495F 		.ascii	"SPI_TypeDef\000"
 23229      54797065 
 23229      44656600 
 23230              	.LASF76:
 23231 332c 76745F66 		.ascii	"vt_func\000"
 23231      756E6300 
 23232              	.LASF132:
 23233 3334 534D4352 		.ascii	"SMCR\000"
 23233      00
 23234              	.LASF986:
 23235 3339 6D635F69 		.ascii	"mc_interface_set_brake_current\000"
 23235      6E746572 
 23235      66616365 
 23235      5F736574 
 23235      5F627261 
 23236              	.LASF418:
 23237 3358 74656D70 		.ascii	"temperature\000"
 23237      65726174 
 23237      75726500 
 23238              	.LASF691:
 23239 3364 444F4550 		.ascii	"DOEPMSK\000"
 23239      4D534B00 
 23240              	.LASF376:
 23241 336c 434F4D4D 		.ascii	"COMM_SET_CURRENT_BRAKE\000"
 23241      5F534554 
 23241      5F435552 
 23241      52454E54 
 23241      5F425241 
 23242              	.LASF993:
 23243 3383 6D635F69 		.ascii	"mc_interface_get_state\000"
 23243      6E746572 
 23243      66616365 
 23243      5F676574 
ARM GAS  /tmp/ccETYwEL.s 			page 451


 23243      5F737461 
 23244              	.LASF72:
 23245 339a 63685F76 		.ascii	"ch_virtual_timer\000"
 23245      69727475 
 23245      616C5F74 
 23245      696D6572 
 23245      00
 23246              	.LASF45:
 23247 33ab 705F666C 		.ascii	"p_flags\000"
 23247      61677300 
 23248              	.LASF382:
 23249 33b3 434F4D4D 		.ascii	"COMM_SET_MCCONF\000"
 23249      5F534554 
 23249      5F4D4343 
 23249      4F4E4600 
 23250              	.LASF158:
 23251 33c3 65776D61 		.ascii	"ewmask\000"
 23251      736B00
 23252              	.LASF1003:
 23253 33ca 6D635F69 		.ascii	"mc_interface_get_configuration\000"
 23253      6E746572 
 23253      66616365 
 23253      5F676574 
 23253      5F636F6E 
 23254              	.LASF377:
 23255 33e9 434F4D4D 		.ascii	"COMM_SET_RPM\000"
 23255      5F534554 
 23255      5F52504D 
 23255      00
 23256              	.LASF193:
 23257 33f6 656C5F66 		.ascii	"el_flags\000"
 23257      6C616773 
 23257      00
 23258              	.LASF195:
 23259 33ff 6576656E 		.ascii	"event_source\000"
 23259      745F736F 
 23259      75726365 
 23259      00
 23260              	.LASF983:
 23261 340c 6D635F69 		.ascii	"mc_interface_set_handbrake\000"
 23261      6E746572 
 23261      66616365 
 23261      5F736574 
 23261      5F68616E 
 23262              	.LASF406:
 23263 3427 434F4D4D 		.ascii	"COMM_NRF_START_PAIRING\000"
 23263      5F4E5246 
 23263      5F535441 
 23263      52545F50 
 23263      41495249 
 23264              	.LASF53:
 23265 343e 705F6D74 		.ascii	"p_mtxlist\000"
 23265      786C6973 
 23265      7400
 23266              	.LASF305:
 23267 3448 736C5F63 		.ascii	"sl_cycle_int_rpm_br\000"
 23267      79636C65 
ARM GAS  /tmp/ccETYwEL.s 			page 452


 23267      5F696E74 
 23267      5F72706D 
 23267      5F627200 
 23268              	.LASF481:
 23269 345c 43414E44 		.ascii	"CAND1\000"
 23269      3100
 23270              	.LASF109:
 23271 3462 46533152 		.ascii	"FS1R\000"
 23271      00
 23272              	.LASF27:
 23273 3467 74737461 		.ascii	"tstate_t\000"
 23273      74655F74 
 23273      00
 23274              	.LASF549:
 23275 3470 53504944 		.ascii	"SPIDriver\000"
 23275      72697665 
 23275      7200
 23276              	.LASF692:
 23277 347a 4441494E 		.ascii	"DAINT\000"
 23277      5400
 23278              	.LASF554:
 23279 3480 53504943 		.ascii	"SPIConfig\000"
 23279      6F6E6669 
 23279      6700
 23280              	.LASF804:
 23281 348a 5F756E73 		.ascii	"_unspecified_locale_info\000"
 23281      70656369 
 23281      66696564 
 23281      5F6C6F63 
 23281      616C655F 
 23282              	.LASF448:
 23283 34a3 70757064 		.ascii	"pupdr\000"
 23283      7200
 23284              	.LASF364:
 23285 34a9 6D5F6463 		.ascii	"m_dc_f_sw\000"
 23285      5F665F73 
 23285      7700
 23286              	.LASF334:
 23287 34b3 666F635F 		.ascii	"foc_sample_high_current\000"
 23287      73616D70 
 23287      6C655F68 
 23287      6967685F 
 23287      63757272 
 23288              	.LASF642:
 23289 34cb 72657376 		.ascii	"resvd1c\000"
 23289      64316300 
 23290              	.LASF588:
 23291 34d3 7472616E 		.ascii	"transmitting\000"
 23291      736D6974 
 23291      74696E67 
 23291      00
 23292              	.LASF1084:
 23293 34e0 656E636F 		.ascii	"encoder_init_abi\000"
 23293      6465725F 
 23293      696E6974 
 23293      5F616269 
 23293      00
ARM GAS  /tmp/ccETYwEL.s 			page 453


 23294              	.LASF222:
 23295 34f1 6D635F63 		.ascii	"mc_comm_mode\000"
 23295      6F6D6D5F 
 23295      6D6F6465 
 23295      00
 23296              	.LASF415:
 23297 34fe 74696D5F 		.ascii	"tim_current_samp\000"
 23297      63757272 
 23297      656E745F 
 23297      73616D70 
 23297      00
 23298              	.LASF1086:
 23299 350f 6D637077 		.ascii	"mcpwm_foc_set_handbrake\000"
 23299      6D5F666F 
 23299      635F7365 
 23299      745F6861 
 23299      6E646272 
 23300              	.LASF43:
 23301 3527 705F6E61 		.ascii	"p_name\000"
 23301      6D6500
 23302              	.LASF806:
 23303 352e 5F5F7364 		.ascii	"__sdidinit\000"
 23303      6964696E 
 23303      697400
 23304              	.LASF857:
 23305 3539 5F5F6664 		.ascii	"__fdlibm_posix\000"
 23305      6C69626D 
 23305      5F706F73 
 23305      697800
 23306              	.LASF611:
 23307 3548 75736273 		.ascii	"usbstate_t\000"
 23307      74617465 
 23307      5F7400
 23308              	.LASF654:
 23309 3553 444F4550 		.ascii	"DOEPTSIZ\000"
 23309      5453495A 
 23309      00
 23310              	.LASF409:
 23311 355c 63757272 		.ascii	"current_filtered\000"
 23311      656E745F 
 23311      66696C74 
 23311      65726564 
 23311      00
 23312              	.LASF990:
 23313 356d 6D635F69 		.ascii	"mc_interface_set_duty_noramp\000"
 23313      6E746572 
 23313      66616365 
 23313      5F736574 
 23313      5F647574 
 23314              	.LASF1006:
 23315 358a 63685265 		.ascii	"chRegSetThreadName\000"
 23315      67536574 
 23315      54687265 
 23315      61644E61 
 23315      6D6500
 23316              	.LASF1007:
 23317 359d 6E616D65 		.ascii	"name\000"
ARM GAS  /tmp/ccETYwEL.s 			page 454


 23317      00
 23318              	.LASF567:
 23319 35a2 75617274 		.ascii	"uartrxstate_t\000"
 23319      72787374 
 23319      6174655F 
 23319      7400
 23320              	.LASF752:
 23321 35b0 5F666C6F 		.ascii	"_flock_t\000"
 23321      636B5F74 
 23321      00
 23322              	.LASF78:
 23323 35b9 76697274 		.ascii	"virtual_timers_list_t\000"
 23323      75616C5F 
 23323      74696D65 
 23323      72735F6C 
 23323      6973745F 
 23324              	.LASF216:
 23325 35cf 50574D5F 		.ascii	"PWM_MODE_NONSYNCHRONOUS_HISW\000"
 23325      4D4F4445 
 23325      5F4E4F4E 
 23325      53594E43 
 23325      48524F4E 
 23326              	.LASF563:
 23327 35ec 75617274 		.ascii	"uarttxstate_t\000"
 23327      74787374 
 23327      6174655F 
 23327      7400
 23328              	.LASF255:
 23329 35fa 44525638 		.ascii	"DRV8301_OC_DISABLED\000"
 23329      3330315F 
 23329      4F435F44 
 23329      49534142 
 23329      4C454400 
 23330              	.LASF974:
 23331 360e 6D635F69 		.ascii	"mc_interface_get_amp_hours\000"
 23331      6E746572 
 23331      66616365 
 23331      5F676574 
 23331      5F616D70 
 23332              	.LASF445:
 23333 3629 6D6F6465 		.ascii	"moder\000"
 23333      7200
 23334              	.LASF405:
 23335 362f 434F4D4D 		.ascii	"COMM_CUSTOM_APP_DATA\000"
 23335      5F435553 
 23335      544F4D5F 
 23335      4150505F 
 23335      44415441 
 23336              	.LASF391:
 23337 3644 434F4D4D 		.ascii	"COMM_ROTOR_POSITION\000"
 23337      5F524F54 
 23337      4F525F50 
 23337      4F534954 
 23337      494F4E00 
 23338              	.LASF232:
 23339 3658 4F55545F 		.ascii	"OUT_AUX_MODE_ON_AFTER_2S\000"
 23339      4155585F 
ARM GAS  /tmp/ccETYwEL.s 			page 455


 23339      4D4F4445 
 23339      5F4F4E5F 
 23339      41465445 
 23340              	.LASF160:
 23341 3671 735F7175 		.ascii	"s_queue\000"
 23341      65756500 
 23342              	.LASF949:
 23343 3679 72657476 		.ascii	"retval\000"
 23343      616C00
 23344              	.LASF987:
 23345 3680 6D635F69 		.ascii	"mc_interface_set_current\000"
 23345      6E746572 
 23345      66616365 
 23345      5F736574 
 23345      5F637572 
 23346              	.LASF129:
 23347 3699 49325343 		.ascii	"I2SCFGR\000"
 23347      46475200 
 23348              	.LASF247:
 23349 36a1 6D635F66 		.ascii	"mc_fault_code\000"
 23349      61756C74 
 23349      5F636F64 
 23349      6500
 23350              	.LASF265:
 23351 36af 64656275 		.ascii	"debug_sampling_mode\000"
 23351      675F7361 
 23351      6D706C69 
 23351      6E675F6D 
 23351      6F646500 
 23352              	.LASF953:
 23353 36c3 64656369 		.ascii	"decimation\000"
 23353      6D617469 
 23353      6F6E00
 23354              	.LASF355:
 23355 36ce 6D5F6475 		.ascii	"m_duty_ramp_step\000"
 23355      74795F72 
 23355      616D705F 
 23355      73746570 
 23355      00
 23356              	.LASF368:
 23357 36df 6D635F63 		.ascii	"mc_configuration\000"
 23357      6F6E6669 
 23357      67757261 
 23357      74696F6E 
 23357      00
 23358              	.LASF472:
 23359 36f0 636F6E66 		.ascii	"config\000"
 23359      696700
 23360              	.LASF167:
 23361 36f7 63685F69 		.ascii	"ch_identifier\000"
 23361      64656E74 
 23361      69666965 
 23361      7200
 23362              	.LASF13:
 23363 3705 6C6F6E67 		.ascii	"long long int\000"
 23363      206C6F6E 
 23363      6720696E 
ARM GAS  /tmp/ccETYwEL.s 			page 456


 23363      7400
 23364              	.LASF942:
 23365 3713 63757272 		.ascii	"curr_diff_samples\000"
 23365      5F646966 
 23365      665F7361 
 23365      6D706C65 
 23365      7300
 23366              	.LASF672:
 23367 3725 48505458 		.ascii	"HPTXFSIZ\000"
 23367      4653495A 
 23367      00
 23368              	.LASF174:
 23369 372e 63665F6F 		.ascii	"cf_off_prio\000"
 23369      66665F70 
 23369      72696F00 
 23370              	.LASF796:
 23371 373a 5F666C61 		.ascii	"_flags2\000"
 23371      67733200 
 23372              	.LASF1011:
 23373 3742 63685379 		.ascii	"chSysLockFromISR\000"
 23373      734C6F63 
 23373      6B46726F 
 23373      6D495352 
 23373      00
 23374              	.LASF922:
 23375 3753 72706D5F 		.ascii	"rpm_neg_cut_start\000"
 23375      6E65675F 
 23375      6375745F 
 23375      73746172 
 23375      7400
 23376              	.LASF846:
 23377 3765 5F6E6578 		.ascii	"_nextf\000"
 23377      746600
 23378              	.LASF389:
 23379 376c 434F4D4D 		.ascii	"COMM_TERMINAL_CMD\000"
 23379      5F544552 
 23379      4D494E41 
 23379      4C5F434D 
 23379      4400
 23380              	.LASF293:
 23381 377e 6C5F7761 		.ascii	"l_watt_min\000"
 23381      74745F6D 
 23381      696E00
 23382              	.LASF529:
 23383 3789 6963756D 		.ascii	"icumode_t\000"
 23383      6F64655F 
 23383      7400
 23384              	.LASF719:
 23385 3793 7478636E 		.ascii	"txcnt\000"
 23385      7400
 23386              	.LASF621:
 23387 3799 5553425F 		.ascii	"USB_EVENT_ADDRESS\000"
 23387      4556454E 
 23387      545F4144 
 23387      44524553 
 23387      5300
 23388              	.LASF738:
ARM GAS  /tmp/ccETYwEL.s 			page 457


 23389 37ab 6765745F 		.ascii	"get_descriptor_cb\000"
 23389      64657363 
 23389      72697074 
 23389      6F725F63 
 23389      6200
 23390              	.LASF279:
 23391 37bd 6C5F6D61 		.ascii	"l_max_erpm_fbrake_cc\000"
 23391      785F6572 
 23391      706D5F66 
 23391      6272616B 
 23391      655F6363 
 23392              	.LASF805:
 23393 37d2 5F6C6F63 		.ascii	"_locale\000"
 23393      616C6500 
 23394              	.LASF33:
 23395 37da 6576656E 		.ascii	"eventflags_t\000"
 23395      74666C61 
 23395      67735F74 
 23395      00
 23396              	.LASF545:
 23397 37e7 5350495F 		.ascii	"SPI_READY\000"
 23397      52454144 
 23397      5900
 23398              	.LASF387:
 23399 37f1 434F4D4D 		.ascii	"COMM_GET_APPCONF_DEFAULT\000"
 23399      5F474554 
 23399      5F415050 
 23399      434F4E46 
 23399      5F444546 
 23400              	.LASF708:
 23401 380a 4649464F 		.ascii	"FIFO\000"
 23401      00
 23402              	.LASF1074:
 23403 380f 6D637077 		.ascii	"mcpwm_is_dccal_done\000"
 23403      6D5F6973 
 23403      5F646363 
 23403      616C5F64 
 23403      6F6E6500 
 23404              	.LASF105:
 23405 3823 73464946 		.ascii	"sFIFOMailBox\000"
 23405      4F4D6169 
 23405      6C426F78 
 23405      00
 23406              	.LASF1093:
 23407 3830 7574696C 		.ascii	"utils_map\000"
 23407      735F6D61 
 23407      7000
 23408              	.LASF992:
 23409 383a 6D635F69 		.ascii	"mc_interface_set_duty\000"
 23409      6E746572 
 23409      66616365 
 23409      5F736574 
 23409      5F647574 
 23410              	.LASF211:
 23411 3850 4D435F53 		.ascii	"MC_STATE_OFF\000"
 23411      54415445 
 23411      5F4F4646 
ARM GAS  /tmp/ccETYwEL.s 			page 458


 23411      00
 23412              	.LASF687:
 23413 385d 4443544C 		.ascii	"DCTL\000"
 23413      00
 23414              	.LASF714:
 23415 3862 74786275 		.ascii	"txbuf\000"
 23415      6600
 23416              	.LASF706:
 23417 3868 50434743 		.ascii	"PCGCCTL\000"
 23417      43544C00 
 23418              	.LASF624:
 23419 3870 5553425F 		.ascii	"USB_EVENT_WAKEUP\000"
 23419      4556454E 
 23419      545F5741 
 23419      4B455550 
 23419      00
 23420              	.LASF1016:
 23421 3881 5F5F7365 		.ascii	"__set_BASEPRI\000"
 23421      745F4241 
 23421      53455052 
 23421      4900
 23422              	.LASF1099:
 23423 388f 6D637077 		.ascii	"mcpwm_foc_set_brake_current\000"
 23423      6D5F666F 
 23423      635F7365 
 23423      745F6272 
 23423      616B655F 
 23424              	.LASF272:
 23425 38ab 6C5F696E 		.ascii	"l_in_current_max\000"
 23425      5F637572 
 23425      72656E74 
 23425      5F6D6178 
 23425      00
 23426              	.LASF888:
 23427 38bc 6D5F665F 		.ascii	"m_f_sw_samples\000"
 23427      73775F73 
 23427      616D706C 
 23427      657300
 23428              	.LASF42:
 23429 38cb 705F6F6C 		.ascii	"p_older\000"
 23429      64657200 
 23430              	.LASF460:
 23431 38d3 50494461 		.ascii	"PIData\000"
 23431      746100
 23432              	.LASF735:
 23433 38da 73657475 		.ascii	"setup_buf\000"
 23433      705F6275 
 23433      6600
 23434              	.LASF1046:
 23435 38e4 6D637077 		.ascii	"mcpwm_get_tot_current_in_filtered\000"
 23435      6D5F6765 
 23435      745F746F 
 23435      745F6375 
 23435      7272656E 
 23436              	.LASF552:
 23437 3906 7373706F 		.ascii	"ssport\000"
 23437      727400
ARM GAS  /tmp/ccETYwEL.s 			page 459


 23438              	.LASF338:
 23439 390d 666F635F 		.ascii	"foc_current_filter_const\000"
 23439      63757272 
 23439      656E745F 
 23439      66696C74 
 23439      65725F63 
 23440              	.LASF513:
 23441 3926 4943555F 		.ascii	"ICU_UNINIT\000"
 23441      554E494E 
 23441      495400
 23442              	.LASF56:
 23443 3931 74687265 		.ascii	"thread_reference_t\000"
 23443      61645F72 
 23443      65666572 
 23443      656E6365 
 23443      5F7400
 23444              	.LASF349:
 23445 3944 705F7069 		.ascii	"p_pid_ang_div\000"
 23445      645F616E 
 23445      675F6469 
 23445      7600
 23446              	.LASF233:
 23447 3952 4F55545F 		.ascii	"OUT_AUX_MODE_ON_AFTER_5S\000"
 23447      4155585F 
 23447      4D4F4445 
 23447      5F4F4E5F 
 23447      41465445 
 23448              	.LASF589:
 23449 396b 72656365 		.ascii	"receiving\000"
 23449      6976696E 
 23449      6700
 23450              	.LASF819:
 23451 3975 5F5F4649 		.ascii	"__FILE\000"
 23451      4C4500
 23452              	.LASF535:
 23453 397c 66726571 		.ascii	"frequency\000"
 23453      75656E63 
 23453      7900
 23454              	.LASF1069:
 23455 3986 6D637077 		.ascii	"mcpwm_foc_set_duty_noramp\000"
 23455      6D5F666F 
 23455      635F7365 
 23455      745F6475 
 23455      74795F6E 
 23456              	.LASF327:
 23457 39a0 666F635F 		.ascii	"foc_sl_openloop_time\000"
 23457      736C5F6F 
 23457      70656E6C 
 23457      6F6F705F 
 23457      74696D65 
 23458              	.LASF151:
 23459 39b5 746D5F63 		.ascii	"tm_calibration_t\000"
 23459      616C6962 
 23459      72617469 
 23459      6F6E5F74 
 23459      00
 23460              	.LASF982:
ARM GAS  /tmp/ccETYwEL.s 			page 460


 23461 39c6 6D635F69 		.ascii	"mc_interface_fault_stop\000"
 23461      6E746572 
 23461      66616365 
 23461      5F666175 
 23461      6C745F73 
 23462              	.LASF2:
 23463 39de 5F5F696E 		.ascii	"__int8_t\000"
 23463      74385F74 
 23463      00
 23464              	.LASF297:
 23465 39e7 6C6F5F69 		.ascii	"lo_in_current_min\000"
 23465      6E5F6375 
 23465      7272656E 
 23465      745F6D69 
 23465      6E00
 23466              	.LASF732:
 23467 39f9 696E5F73 		.ascii	"in_state\000"
 23467      74617465 
 23467      00
 23468              	.LASF144:
 23469 3a02 47545052 		.ascii	"GTPR\000"
 23469      00
 23470              	.LASF971:
 23471 3a07 6D635F69 		.ascii	"mc_interface_get_watt_hours_charged\000"
 23471      6E746572 
 23471      66616365 
 23471      5F676574 
 23471      5F776174 
 23472              	.LASF934:
 23473 3a2b 696E7075 		.ascii	"input_voltage\000"
 23473      745F766F 
 23473      6C746167 
 23473      6500
 23474              	.LASF168:
 23475 3a39 63685F7A 		.ascii	"ch_zero\000"
 23475      65726F00 
 23476              	.LASF290:
 23477 3a41 6C5F6D69 		.ascii	"l_min_duty\000"
 23477      6E5F6475 
 23477      747900
 23478              	.LASF496:
 23479 3a4c 46415354 		.ascii	"FAST_DUTY_CYCLE_2\000"
 23479      5F445554 
 23479      595F4359 
 23479      434C455F 
 23479      3200
 23480              	.LASF173:
 23481 3a5e 63685F74 		.ascii	"ch_threadsize\000"
 23481      68726561 
 23481      6473697A 
 23481      6500
 23482              	.LASF124:
 23483 3a6c 464C5452 		.ascii	"FLTR\000"
 23483      00
 23484              	.LASF916:
 23485 3a71 6C6F5F66 		.ascii	"lo_fet_temp_accel\000"
 23485      65745F74 
ARM GAS  /tmp/ccETYwEL.s 			page 461


 23485      656D705F 
 23485      61636365 
 23485      6C00
 23486              	.LASF251:
 23487 3a83 73656E73 		.ascii	"sensor_port_mode\000"
 23487      6F725F70 
 23487      6F72745F 
 23487      6D6F6465 
 23487      00
 23488              	.LASF858:
 23489 3a94 5F5F6664 		.ascii	"__fdlib_version\000"
 23489      6C69625F 
 23489      76657273 
 23489      696F6E00 
 23490              	.LASF134:
 23491 3aa4 43434D52 		.ascii	"CCMR1\000"
 23491      3100
 23492              	.LASF135:
 23493 3aaa 43434D52 		.ascii	"CCMR2\000"
 23493      3200
 23494              	.LASF524:
 23495 3ab0 43434D52 		.ascii	"CCMR3\000"
 23495      3300
 23496              	.LASF230:
 23497 3ab6 6D635F66 		.ascii	"mc_foc_sensor_mode\000"
 23497      6F635F73 
 23497      656E736F 
 23497      725F6D6F 
 23497      646500
 23498              	.LASF16:
 23499 3ac9 756E7369 		.ascii	"unsigned int\000"
 23499      676E6564 
 23499      20696E74 
 23499      00
 23500              	.LASF871:
 23501 3ad6 6D5F6D6F 		.ascii	"m_motor_id_iterations\000"
 23501      746F725F 
 23501      69645F69 
 23501      74657261 
 23501      74696F6E 
 23502              	.LASF833:
 23503 3aec 5F723438 		.ascii	"_r48\000"
 23503      00
 23504              	.LASF1020:
 23505 3af1 63684576 		.ascii	"chEvtWaitAny\000"
 23505      74576169 
 23505      74416E79 
 23505      00
 23506              	.LASF676:
 23507 3afe 48464952 		.ascii	"HFIR\000"
 23507      00
 23508              	.LASF606:
 23509 3b03 5553425F 		.ascii	"USB_UNINIT\000"
 23509      554E494E 
 23509      495400
 23510              	.LASF1000:
 23511 3b0e 705F6675 		.ascii	"p_func\000"
ARM GAS  /tmp/ccETYwEL.s 			page 462


 23511      6E6300
 23512              	.LASF428:
 23513 3b15 73747265 		.ascii	"stream\000"
 23513      616D00
 23514              	.LASF494:
 23515 3b1c 6932636F 		.ascii	"i2copmode_t\000"
 23515      706D6F64 
 23515      655F7400 
 23516              	.LASF874:
 23517 3b28 6D5F616D 		.ascii	"m_amp_seconds_charged\000"
 23517      705F7365 
 23517      636F6E64 
 23517      735F6368 
 23517      61726765 
 23518              	.LASF825:
 23519 3b3e 5F6D756C 		.ascii	"_mult\000"
 23519      7400
 23520              	.LASF6:
 23521 3b44 73686F72 		.ascii	"short int\000"
 23521      7420696E 
 23521      7400
 23522              	.LASF333:
 23523 3b4e 666F635F 		.ascii	"foc_sample_v0_v7\000"
 23523      73616D70 
 23523      6C655F76 
 23523      305F7637 
 23523      00
 23524              	.LASF630:
 23525 3b5f 75736263 		.ascii	"usbcallback_t\000"
 23525      616C6C62 
 23525      61636B5F 
 23525      7400
 23526              	.LASF426:
 23527 3b6d 6D637077 		.ascii	"mcpwm_detect_currents_diff\000"
 23527      6D5F6465 
 23527      74656374 
 23527      5F637572 
 23527      72656E74 
 23528              	.LASF659:
 23529 3b88 47555342 		.ascii	"GUSBCFG\000"
 23529      43464700 
 23530              	.LASF145:
 23531 3b90 55534152 		.ascii	"USART_TypeDef\000"
 23531      545F5479 
 23531      70654465 
 23531      6600
 23532              	.LASF1095:
 23533 3b9e 6D637077 		.ascii	"mcpwm_set_duty\000"
 23533      6D5F7365 
 23533      745F6475 
 23533      747900
 23534              	.LASF863:
 23535 3bad 6D5F6C6F 		.ascii	"m_lock_enabled\000"
 23535      636B5F65 
 23535      6E61626C 
 23535      656400
 23536              	.LASF570:
ARM GAS  /tmp/ccETYwEL.s 			page 463


 23537 3bbc 74787374 		.ascii	"txstate\000"
 23537      61746500 
 23538              	.LASF210:
 23539 3bc4 6F757470 		.ascii	"output_queue_t\000"
 23539      75745F71 
 23539      75657565 
 23539      5F7400
 23540              	.LASF420:
 23541 3bd3 6661756C 		.ascii	"fault_data\000"
 23541      745F6461 
 23541      746100
 23542              	.LASF887:
 23543 3bde 6D5F6375 		.ascii	"m_curr_fir_samples\000"
 23543      72725F66 
 23543      69725F73 
 23543      616D706C 
 23543      657300
 23544              	.LASF236:
 23545 3bf1 4D4F544F 		.ascii	"MOTOR_TYPE_BLDC\000"
 23545      525F5459 
 23545      50455F42 
 23545      4C444300 
 23546              	.LASF823:
 23547 3c01 5F72616E 		.ascii	"_rand48\000"
 23547      64343800 
 23548              	.LASF709:
 23549 3c09 73746D33 		.ascii	"stm32_otg_t\000"
 23549      325F6F74 
 23549      675F7400 
 23550              	.LASF501:
 23551 3c15 64757479 		.ascii	"duty_cycle\000"
 23551      5F637963 
 23551      6C6500
 23552              	.LASF398:
 23553 3c20 434F4D4D 		.ascii	"COMM_REBOOT\000"
 23553      5F524542 
 23553      4F4F5400 
 23554              	.LASF627:
 23555 3c2c 75645F73 		.ascii	"ud_size\000"
 23555      697A6500 
 23556              	.LASF1004:
 23557 3c34 6D635F69 		.ascii	"mc_interface_init\000"
 23557      6E746572 
 23557      66616365 
 23557      5F696E69 
 23557      7400
 23558              	.LASF996:
 23559 3c46 6D635F69 		.ascii	"mc_interface_lock_override_once\000"
 23559      6E746572 
 23559      66616365 
 23559      5F6C6F63 
 23559      6B5F6F76 
 23560              	.LASF885:
 23561 3c66 6D5F767A 		.ascii	"m_vzero_samples\000"
 23561      65726F5F 
 23561      73616D70 
 23561      6C657300 
ARM GAS  /tmp/ccETYwEL.s 			page 464


 23562              	.LASF1040:
 23563 3c76 6D637077 		.ascii	"mcpwm_get_last_inj_adc_isr_duration\000"
 23563      6D5F6765 
 23563      745F6C61 
 23563      73745F69 
 23563      6E6A5F61 
 23564              	.LASF730:
 23565 3c9a 696E5F6D 		.ascii	"in_maxsize\000"
 23565      61787369 
 23565      7A6500
 23566              	.LASF457:
 23567 3ca5 50464461 		.ascii	"PFData\000"
 23567      746100
 23568              	.LASF562:
 23569 3cac 55415254 		.ascii	"UART_TX_COMPLETE\000"
 23569      5F54585F 
 23569      434F4D50 
 23569      4C455445 
 23569      00
 23570              	.LASF44:
 23571 3cbd 705F7374 		.ascii	"p_state\000"
 23571      61746500 
 23572              	.LASF900:
 23573 3cc5 73616D70 		.ascii	"sample_send_tp\000"
 23573      6C655F73 
 23573      656E645F 
 23573      747000
 23574              	.LASF59:
 23575 3cd4 63685F74 		.ascii	"ch_threads_list\000"
 23575      68726561 
 23575      64735F6C 
 23575      69737400 
 23576              	.LASF221:
 23577 3ce4 434F4D4D 		.ascii	"COMM_MODE_DELAY\000"
 23577      5F4D4F44 
 23577      455F4445 
 23577      4C415900 
 23578              	.LASF366:
 23579 3cf4 6D5F6F75 		.ascii	"m_out_aux_mode\000"
 23579      745F6175 
 23579      785F6D6F 
 23579      646500
 23580              	.LASF121:
 23581 3d03 4F415231 		.ascii	"OAR1\000"
 23581      00
 23582              	.LASF122:
 23583 3d08 4F415232 		.ascii	"OAR2\000"
 23583      00
 23584              	.LASF357:
 23585 3d0d 6D5F656E 		.ascii	"m_encoder_counts\000"
 23585      636F6465 
 23585      725F636F 
 23585      756E7473 
 23585      00
 23586              		.ident	"GCC: (GNU Tools for Arm Embedded Processors 7-2018-q3-update) 7.3.1 20180622 (release) [AR
ARM GAS  /tmp/ccETYwEL.s 			page 465


DEFINED SYMBOLS
                            *ABS*:0000000000000000 mc_interface.c
     /tmp/ccETYwEL.s:18     .text.sample_send_thread:0000000000000000 $t
     /tmp/ccETYwEL.s:25     .text.sample_send_thread:0000000000000000 sample_send_thread
     /tmp/ccETYwEL.s:113    .text.sample_send_thread:0000000000000048 $d
     /tmp/ccETYwEL.s:119    .text.sample_send_thread:000000000000004e $t
     /tmp/ccETYwEL.s:340    .text.sample_send_thread:00000000000001f4 $d
     /tmp/ccETYwEL.s:364    .text.mc_interface_set_handbrake.part.3:0000000000000000 $t
     /tmp/ccETYwEL.s:371    .text.mc_interface_set_handbrake.part.3:0000000000000000 mc_interface_set_handbrake.part.3
     /tmp/ccETYwEL.s:399    .text.mc_interface_set_handbrake.part.3:0000000000000018 $d
     /tmp/ccETYwEL.s:404    .text.mc_interface_init:0000000000000000 $t
     /tmp/ccETYwEL.s:412    .text.mc_interface_init:0000000000000000 mc_interface_init
     /tmp/ccETYwEL.s:652    .text.mc_interface_init:00000000000000f8 $d
     /tmp/ccETYwEL.s:2866   .text.timer_thread:0000000000000000 timer_thread
     /tmp/ccETYwEL.s:688    .text.mc_interface_get_configuration:0000000000000000 $t
     /tmp/ccETYwEL.s:696    .text.mc_interface_get_configuration:0000000000000000 mc_interface_get_configuration
     /tmp/ccETYwEL.s:709    .text.mc_interface_get_configuration:0000000000000004 $d
     /tmp/ccETYwEL.s:714    .text.mc_interface_dccal_done:0000000000000000 $t
     /tmp/ccETYwEL.s:722    .text.mc_interface_dccal_done:0000000000000000 mc_interface_dccal_done
     /tmp/ccETYwEL.s:752    .text.mc_interface_dccal_done:000000000000001c $d
     /tmp/ccETYwEL.s:757    .text.mc_interface_set_pwm_callback:0000000000000000 $t
     /tmp/ccETYwEL.s:765    .text.mc_interface_set_pwm_callback:0000000000000000 mc_interface_set_pwm_callback
     /tmp/ccETYwEL.s:781    .text.mc_interface_set_pwm_callback:0000000000000008 $d
     /tmp/ccETYwEL.s:786    .text.mc_interface_lock:0000000000000000 $t
     /tmp/ccETYwEL.s:794    .text.mc_interface_lock:0000000000000000 mc_interface_lock
     /tmp/ccETYwEL.s:810    .text.mc_interface_lock:0000000000000008 $d
     /tmp/ccETYwEL.s:815    .text.mc_interface_unlock:0000000000000000 $t
     /tmp/ccETYwEL.s:823    .text.mc_interface_unlock:0000000000000000 mc_interface_unlock
     /tmp/ccETYwEL.s:839    .text.mc_interface_unlock:0000000000000008 $d
     /tmp/ccETYwEL.s:844    .text.mc_interface_lock_override_once:0000000000000000 $t
     /tmp/ccETYwEL.s:852    .text.mc_interface_lock_override_once:0000000000000000 mc_interface_lock_override_once
     /tmp/ccETYwEL.s:868    .text.mc_interface_lock_override_once:0000000000000008 $d
     /tmp/ccETYwEL.s:873    .text.mc_interface_get_fault:0000000000000000 $t
     /tmp/ccETYwEL.s:881    .text.mc_interface_get_fault:0000000000000000 mc_interface_get_fault
     /tmp/ccETYwEL.s:896    .text.mc_interface_get_fault:0000000000000008 $d
     /tmp/ccETYwEL.s:901    .text.mc_interface_fault_to_string:0000000000000000 $t
     /tmp/ccETYwEL.s:909    .text.mc_interface_fault_to_string:0000000000000000 mc_interface_fault_to_string
     /tmp/ccETYwEL.s:929    .text.mc_interface_fault_to_string:0000000000000010 $d
     /tmp/ccETYwEL.s:935    .text.mc_interface_get_state:0000000000000000 $t
     /tmp/ccETYwEL.s:943    .text.mc_interface_get_state:0000000000000000 mc_interface_get_state
     /tmp/ccETYwEL.s:973    .text.mc_interface_get_state:000000000000001c $d
     /tmp/ccETYwEL.s:978    .text.mc_interface_get_duty_cycle_set:0000000000000000 $t
     /tmp/ccETYwEL.s:986    .text.mc_interface_get_duty_cycle_set:0000000000000000 mc_interface_get_duty_cycle_set
     /tmp/ccETYwEL.s:1035   .text.mc_interface_get_duty_cycle_set:0000000000000030 $d
     /tmp/ccETYwEL.s:1041   .text.mc_interface_get_duty_cycle_now:0000000000000000 $t
     /tmp/ccETYwEL.s:1049   .text.mc_interface_get_duty_cycle_now:0000000000000000 mc_interface_get_duty_cycle_now
     /tmp/ccETYwEL.s:1098   .text.mc_interface_get_duty_cycle_now:0000000000000030 $d
     /tmp/ccETYwEL.s:1104   .text.mc_interface_get_sampling_frequency_now:0000000000000000 $t
     /tmp/ccETYwEL.s:1112   .text.mc_interface_get_sampling_frequency_now:0000000000000000 mc_interface_get_sampling_frequency_now
     /tmp/ccETYwEL.s:1142   .text.mc_interface_get_sampling_frequency_now:000000000000001c $d
     /tmp/ccETYwEL.s:1148   .text.mc_interface_get_rpm:0000000000000000 $t
     /tmp/ccETYwEL.s:1156   .text.mc_interface_get_rpm:0000000000000000 mc_interface_get_rpm
     /tmp/ccETYwEL.s:1205   .text.mc_interface_get_rpm:0000000000000030 $d
     /tmp/ccETYwEL.s:1211   .text.mc_interface_get_amp_hours:0000000000000000 $t
     /tmp/ccETYwEL.s:1219   .text.mc_interface_get_amp_hours:0000000000000000 mc_interface_get_amp_hours
     /tmp/ccETYwEL.s:1244   .text.mc_interface_get_amp_hours:0000000000000018 $d
     /tmp/ccETYwEL.s:1250   .text.mc_interface_get_amp_hours_charged:0000000000000000 $t
ARM GAS  /tmp/ccETYwEL.s 			page 466


     /tmp/ccETYwEL.s:1258   .text.mc_interface_get_amp_hours_charged:0000000000000000 mc_interface_get_amp_hours_charged
     /tmp/ccETYwEL.s:1283   .text.mc_interface_get_amp_hours_charged:0000000000000018 $d
     /tmp/ccETYwEL.s:1289   .text.mc_interface_get_watt_hours:0000000000000000 $t
     /tmp/ccETYwEL.s:1297   .text.mc_interface_get_watt_hours:0000000000000000 mc_interface_get_watt_hours
     /tmp/ccETYwEL.s:1322   .text.mc_interface_get_watt_hours:0000000000000018 $d
     /tmp/ccETYwEL.s:1328   .text.mc_interface_get_watt_hours_charged:0000000000000000 $t
     /tmp/ccETYwEL.s:1336   .text.mc_interface_get_watt_hours_charged:0000000000000000 mc_interface_get_watt_hours_charged
     /tmp/ccETYwEL.s:1361   .text.mc_interface_get_watt_hours_charged:0000000000000018 $d
     /tmp/ccETYwEL.s:1367   .text.mc_interface_get_tot_current:0000000000000000 $t
     /tmp/ccETYwEL.s:1375   .text.mc_interface_get_tot_current:0000000000000000 mc_interface_get_tot_current
     /tmp/ccETYwEL.s:1405   .text.mc_interface_get_tot_current:000000000000001c $d
     /tmp/ccETYwEL.s:1411   .text.mc_interface_get_tot_current_filtered:0000000000000000 $t
     /tmp/ccETYwEL.s:1419   .text.mc_interface_get_tot_current_filtered:0000000000000000 mc_interface_get_tot_current_filtered
     /tmp/ccETYwEL.s:1449   .text.mc_interface_get_tot_current_filtered:000000000000001c $d
     /tmp/ccETYwEL.s:1455   .text.mc_interface_get_tot_current_directional:0000000000000000 $t
     /tmp/ccETYwEL.s:1463   .text.mc_interface_get_tot_current_directional:0000000000000000 mc_interface_get_tot_current_directional
     /tmp/ccETYwEL.s:1512   .text.mc_interface_get_tot_current_directional:0000000000000030 $d
     /tmp/ccETYwEL.s:1518   .text.mc_interface_get_tot_current_directional_filtered:0000000000000000 $t
     /tmp/ccETYwEL.s:1526   .text.mc_interface_get_tot_current_directional_filtered:0000000000000000 mc_interface_get_tot_current_directional_filtered
     /tmp/ccETYwEL.s:1575   .text.mc_interface_get_tot_current_directional_filtered:0000000000000030 $d
     /tmp/ccETYwEL.s:1581   .text.mc_interface_get_tot_current_in:0000000000000000 $t
     /tmp/ccETYwEL.s:1589   .text.mc_interface_get_tot_current_in:0000000000000000 mc_interface_get_tot_current_in
     /tmp/ccETYwEL.s:1619   .text.mc_interface_get_tot_current_in:000000000000001c $d
     /tmp/ccETYwEL.s:1625   .text.mc_interface_get_tot_current_in_filtered:0000000000000000 $t
     /tmp/ccETYwEL.s:1633   .text.mc_interface_get_tot_current_in_filtered:0000000000000000 mc_interface_get_tot_current_in_filtered
     /tmp/ccETYwEL.s:1663   .text.mc_interface_get_tot_current_in_filtered:000000000000001c $d
     /tmp/ccETYwEL.s:1669   .text.mc_interface_get_tachometer_value:0000000000000000 $t
     /tmp/ccETYwEL.s:1677   .text.mc_interface_get_tachometer_value:0000000000000000 mc_interface_get_tachometer_value
     /tmp/ccETYwEL.s:1729   .text.mc_interface_get_tachometer_value:0000000000000044 $d
     /tmp/ccETYwEL.s:1735   .text.mc_interface_fault_stop.part.4:0000000000000000 $t
     /tmp/ccETYwEL.s:1742   .text.mc_interface_fault_stop.part.4:0000000000000000 mc_interface_fault_stop.part.4
     /tmp/ccETYwEL.s:1920   .text.mc_interface_fault_stop.part.4:0000000000000108 $d
     /tmp/ccETYwEL.s:1939   .text.update_override_limits.constprop.5:0000000000000000 $t
     /tmp/ccETYwEL.s:1946   .text.update_override_limits.constprop.5:0000000000000000 update_override_limits.constprop.5
     /tmp/ccETYwEL.s:2417   .text.update_override_limits.constprop.5:0000000000000380 $d
     /tmp/ccETYwEL.s:2437   .text.update_override_limits.constprop.5:00000000000003c0 $t
     /tmp/ccETYwEL.s:2668   .text.mc_interface_set_configuration:0000000000000000 $t
     /tmp/ccETYwEL.s:2676   .text.mc_interface_set_configuration:0000000000000000 mc_interface_set_configuration
     /tmp/ccETYwEL.s:2854   .text.mc_interface_set_configuration:00000000000000d8 $d
     /tmp/ccETYwEL.s:2859   .text.timer_thread:0000000000000000 $t
     /tmp/ccETYwEL.s:2956   .text.timer_thread:000000000000005c $d
     /tmp/ccETYwEL.s:2966   .text.mc_interface_get_tachometer_abs_value:0000000000000000 $t
     /tmp/ccETYwEL.s:2974   .text.mc_interface_get_tachometer_abs_value:0000000000000000 mc_interface_get_tachometer_abs_value
     /tmp/ccETYwEL.s:3006   .text.mc_interface_get_tachometer_abs_value:000000000000001c $d
     /tmp/ccETYwEL.s:3011   .text.mc_interface_get_last_inj_adc_isr_duration:0000000000000000 $t
     /tmp/ccETYwEL.s:3019   .text.mc_interface_get_last_inj_adc_isr_duration:0000000000000000 mc_interface_get_last_inj_adc_isr_duration
     /tmp/ccETYwEL.s:3049   .text.mc_interface_get_last_inj_adc_isr_duration:000000000000001c $d
     /tmp/ccETYwEL.s:3055   .text.mc_interface_read_reset_avg_motor_current:0000000000000000 $t
     /tmp/ccETYwEL.s:3063   .text.mc_interface_read_reset_avg_motor_current:0000000000000000 mc_interface_read_reset_avg_motor_current
     /tmp/ccETYwEL.s:3089   .text.mc_interface_read_reset_avg_motor_current:0000000000000018 $d
     /tmp/ccETYwEL.s:3095   .text.mc_interface_read_reset_avg_input_current:0000000000000000 $t
     /tmp/ccETYwEL.s:3103   .text.mc_interface_read_reset_avg_input_current:0000000000000000 mc_interface_read_reset_avg_input_current
     /tmp/ccETYwEL.s:3129   .text.mc_interface_read_reset_avg_input_current:0000000000000018 $d
     /tmp/ccETYwEL.s:3135   .text.mc_interface_read_reset_avg_id:0000000000000000 $t
     /tmp/ccETYwEL.s:3143   .text.mc_interface_read_reset_avg_id:0000000000000000 mc_interface_read_reset_avg_id
     /tmp/ccETYwEL.s:3178   .text.mc_interface_read_reset_avg_id:0000000000000024 $d
     /tmp/ccETYwEL.s:3185   .text.mc_interface_read_reset_avg_iq:0000000000000000 $t
ARM GAS  /tmp/ccETYwEL.s 			page 467


     /tmp/ccETYwEL.s:3193   .text.mc_interface_read_reset_avg_iq:0000000000000000 mc_interface_read_reset_avg_iq
     /tmp/ccETYwEL.s:3228   .text.mc_interface_read_reset_avg_iq:0000000000000024 $d
     /tmp/ccETYwEL.s:3235   .text.mc_interface_get_pid_pos_set:0000000000000000 $t
     /tmp/ccETYwEL.s:3243   .text.mc_interface_get_pid_pos_set:0000000000000000 mc_interface_get_pid_pos_set
     /tmp/ccETYwEL.s:3258   .text.mc_interface_get_pid_pos_set:0000000000000008 $d
     /tmp/ccETYwEL.s:3263   .text.mc_interface_get_pid_pos_now:0000000000000000 $t
     /tmp/ccETYwEL.s:3271   .text.mc_interface_get_pid_pos_now:0000000000000000 mc_interface_get_pid_pos_now
     /tmp/ccETYwEL.s:3334   .text.mc_interface_get_pid_pos_now:0000000000000044 $d
     /tmp/ccETYwEL.s:3340   .text.mc_interface_get_last_sample_adc_isr_duration:0000000000000000 $t
     /tmp/ccETYwEL.s:3348   .text.mc_interface_get_last_sample_adc_isr_duration:0000000000000000 mc_interface_get_last_sample_adc_isr_duration
     /tmp/ccETYwEL.s:3363   .text.mc_interface_get_last_sample_adc_isr_duration:0000000000000008 $d
     /tmp/ccETYwEL.s:3368   .text.mc_interface_sample_print_data:0000000000000000 $t
     /tmp/ccETYwEL.s:3376   .text.mc_interface_sample_print_data:0000000000000000 mc_interface_sample_print_data
     /tmp/ccETYwEL.s:3440   .text.mc_interface_sample_print_data:0000000000000038 $d
     /tmp/ccETYwEL.s:3450   .text.mc_interface_temp_fet_filtered:0000000000000000 $t
     /tmp/ccETYwEL.s:3458   .text.mc_interface_temp_fet_filtered:0000000000000000 mc_interface_temp_fet_filtered
     /tmp/ccETYwEL.s:3473   .text.mc_interface_temp_fet_filtered:0000000000000008 $d
     /tmp/ccETYwEL.s:3478   .text.mc_interface_temp_motor_filtered:0000000000000000 $t
     /tmp/ccETYwEL.s:3486   .text.mc_interface_temp_motor_filtered:0000000000000000 mc_interface_temp_motor_filtered
     /tmp/ccETYwEL.s:3501   .text.mc_interface_temp_motor_filtered:0000000000000008 $d
     /tmp/ccETYwEL.s:3506   .text.mc_interface_try_input:0000000000000000 $t
     /tmp/ccETYwEL.s:3514   .text.mc_interface_try_input:0000000000000000 mc_interface_try_input
     /tmp/ccETYwEL.s:3607   .text.mc_interface_try_input:0000000000000064 $d
     /tmp/ccETYwEL.s:3615   .text.mc_interface_set_duty:0000000000000000 $t
     /tmp/ccETYwEL.s:3623   .text.mc_interface_set_duty:0000000000000000 mc_interface_set_duty
     /tmp/ccETYwEL.s:3714   .text.mc_interface_set_duty:0000000000000058 $d
     /tmp/ccETYwEL.s:3721   .text.mc_interface_brake_now:0000000000000000 $t
     /tmp/ccETYwEL.s:3729   .text.mc_interface_brake_now:0000000000000000 mc_interface_brake_now
     /tmp/ccETYwEL.s:3743   .text.mc_interface_brake_now:0000000000000008 $d
     /tmp/ccETYwEL.s:3748   .text.mc_interface_set_duty_noramp:0000000000000000 $t
     /tmp/ccETYwEL.s:3756   .text.mc_interface_set_duty_noramp:0000000000000000 mc_interface_set_duty_noramp
     /tmp/ccETYwEL.s:3842   .text.mc_interface_set_duty_noramp:0000000000000058 $d
     /tmp/ccETYwEL.s:3847   .text.mc_interface_set_pid_speed:0000000000000000 $t
     /tmp/ccETYwEL.s:3855   .text.mc_interface_set_pid_speed:0000000000000000 mc_interface_set_pid_speed
     /tmp/ccETYwEL.s:3941   .text.mc_interface_set_pid_speed:0000000000000058 $d
     /tmp/ccETYwEL.s:3946   .text.mc_interface_set_pid_pos:0000000000000000 $t
     /tmp/ccETYwEL.s:3954   .text.mc_interface_set_pid_pos:0000000000000000 mc_interface_set_pid_pos
     /tmp/ccETYwEL.s:4023   .text.mc_interface_set_pid_pos:0000000000000054 $d
     /tmp/ccETYwEL.s:4029   .text.mc_interface_set_current:0000000000000000 $t
     /tmp/ccETYwEL.s:4037   .text.mc_interface_set_current:0000000000000000 mc_interface_set_current
     /tmp/ccETYwEL.s:4128   .text.mc_interface_set_current:0000000000000058 $d
     /tmp/ccETYwEL.s:4135   .text.mc_interface_set_current_rel:0000000000000000 $t
     /tmp/ccETYwEL.s:4143   .text.mc_interface_set_current_rel:0000000000000000 mc_interface_set_current_rel
     /tmp/ccETYwEL.s:4175   .text.mc_interface_set_current_rel:0000000000000028 $d
     /tmp/ccETYwEL.s:4180   .text.mc_interface_release_motor:0000000000000000 $t
     /tmp/ccETYwEL.s:4188   .text.mc_interface_release_motor:0000000000000000 mc_interface_release_motor
     /tmp/ccETYwEL.s:4202   .text.mc_interface_release_motor:0000000000000008 $d
     /tmp/ccETYwEL.s:4207   .text.mc_interface_set_brake_current:0000000000000000 $t
     /tmp/ccETYwEL.s:4215   .text.mc_interface_set_brake_current:0000000000000000 mc_interface_set_brake_current
     /tmp/ccETYwEL.s:4306   .text.mc_interface_set_brake_current:0000000000000058 $d
     /tmp/ccETYwEL.s:4313   .text.mc_interface_set_brake_current_rel:0000000000000000 $t
     /tmp/ccETYwEL.s:4321   .text.mc_interface_set_brake_current_rel:0000000000000000 mc_interface_set_brake_current_rel
     /tmp/ccETYwEL.s:4339   .text.mc_interface_set_brake_current_rel:0000000000000010 $d
     /tmp/ccETYwEL.s:4344   .text.mc_interface_set_handbrake:0000000000000000 $t
     /tmp/ccETYwEL.s:4352   .text.mc_interface_set_handbrake:0000000000000000 mc_interface_set_handbrake
     /tmp/ccETYwEL.s:4399   .text.mc_interface_set_handbrake_rel:0000000000000000 $t
     /tmp/ccETYwEL.s:4407   .text.mc_interface_set_handbrake_rel:0000000000000000 mc_interface_set_handbrake_rel
ARM GAS  /tmp/ccETYwEL.s 			page 468


     /tmp/ccETYwEL.s:4473   .text.mc_interface_set_handbrake_rel:0000000000000030 $d
     /tmp/ccETYwEL.s:4480   .text.mc_interface_fault_stop:0000000000000000 $t
     /tmp/ccETYwEL.s:4488   .text.mc_interface_fault_stop:0000000000000000 mc_interface_fault_stop
     /tmp/ccETYwEL.s:4514   .text.mc_interface_fault_stop:0000000000000018 $d
     /tmp/ccETYwEL.s:4521   .text.mc_interface_mc_timer_isr:0000000000000000 $t
     /tmp/ccETYwEL.s:4529   .text.mc_interface_mc_timer_isr:0000000000000000 mc_interface_mc_timer_isr
     /tmp/ccETYwEL.s:4807   .text.mc_interface_mc_timer_isr:00000000000001d4 $d
     /tmp/ccETYwEL.s:4814   .text.mc_interface_mc_timer_isr:00000000000001e0 $t
     /tmp/ccETYwEL.s:4845   .text.mc_interface_mc_timer_isr:0000000000000204 $d
     /tmp/ccETYwEL.s:4875   .text.mc_interface_mc_timer_isr:0000000000000264 $t
     /tmp/ccETYwEL.s:5497   .text.mc_interface_mc_timer_isr:000000000000055c $d
     /tmp/ccETYwEL.s:5528   .text.mc_interface_mc_timer_isr:00000000000005c0 $t
     /tmp/ccETYwEL.s:5725   .text.mc_interface_mc_timer_isr:00000000000006dc $d
     /tmp/ccETYwEL.s:5748   .text.mc_interface_adc_inj_int_handler:0000000000000000 $t
     /tmp/ccETYwEL.s:5756   .text.mc_interface_adc_inj_int_handler:0000000000000000 mc_interface_adc_inj_int_handler
     /tmp/ccETYwEL.s:5777   .text.mc_interface_adc_inj_int_handler:0000000000000010 $d
     /tmp/ccETYwEL.s:5795   .bss.ADC_curr_norm_value:0000000000000000 ADC_curr_norm_value
     /tmp/ccETYwEL.s:5788   .bss.ADC_Value:0000000000000000 ADC_Value
     /tmp/ccETYwEL.s:5784   .bss.ADC_Value:0000000000000000 $d
     /tmp/ccETYwEL.s:5791   .bss.ADC_curr_norm_value:0000000000000000 $d
     /tmp/ccETYwEL.s:5798   .bss.a.12115:0000000000000000 $d
     /tmp/ccETYwEL.s:5802   .bss.a.12115:0000000000000000 a.12115
     /tmp/ccETYwEL.s:5805   .bss.curr_diff_samples.12103:0000000000000000 $d
     /tmp/ccETYwEL.s:5809   .bss.curr_diff_samples.12103:0000000000000000 curr_diff_samples.12103
     /tmp/ccETYwEL.s:5812   .bss.curr_diff_sum.12102:0000000000000000 $d
     /tmp/ccETYwEL.s:5816   .bss.curr_diff_sum.12102:0000000000000000 curr_diff_sum.12102
     /tmp/ccETYwEL.s:5819   .bss.m_amp_seconds:0000000000000000 $d
     /tmp/ccETYwEL.s:5823   .bss.m_amp_seconds:0000000000000000 m_amp_seconds
     /tmp/ccETYwEL.s:5826   .bss.m_amp_seconds_charged:0000000000000000 $d
     /tmp/ccETYwEL.s:5830   .bss.m_amp_seconds_charged:0000000000000000 m_amp_seconds_charged
     /tmp/ccETYwEL.s:5833   .bss.m_conf:0000000000000000 $d
     /tmp/ccETYwEL.s:5837   .bss.m_conf:0000000000000000 m_conf
     /tmp/ccETYwEL.s:5840   .bss.m_cycles_running:0000000000000000 $d
     /tmp/ccETYwEL.s:5844   .bss.m_cycles_running:0000000000000000 m_cycles_running
     /tmp/ccETYwEL.s:5850   .bss.m_fault_now:0000000000000000 m_fault_now
     /tmp/ccETYwEL.s:5851   .bss.m_fault_now:0000000000000000 $d
     /tmp/ccETYwEL.s:5853   .bss.m_ignore_iterations:0000000000000000 $d
     /tmp/ccETYwEL.s:5857   .bss.m_ignore_iterations:0000000000000000 m_ignore_iterations
     /tmp/ccETYwEL.s:5860   .bss.m_input_current_iterations:0000000000000000 $d
     /tmp/ccETYwEL.s:5864   .bss.m_input_current_iterations:0000000000000000 m_input_current_iterations
     /tmp/ccETYwEL.s:5867   .bss.m_input_current_sum:0000000000000000 $d
     /tmp/ccETYwEL.s:5871   .bss.m_input_current_sum:0000000000000000 m_input_current_sum
     /tmp/ccETYwEL.s:5874   .bss.m_last_adc_duration_sample:0000000000000000 $d
     /tmp/ccETYwEL.s:5878   .bss.m_last_adc_duration_sample:0000000000000000 m_last_adc_duration_sample
     /tmp/ccETYwEL.s:5884   .bss.m_lock_enabled:0000000000000000 m_lock_enabled
     /tmp/ccETYwEL.s:5885   .bss.m_lock_enabled:0000000000000000 $d
     /tmp/ccETYwEL.s:5890   .bss.m_lock_override_once:0000000000000000 m_lock_override_once
     /tmp/ccETYwEL.s:5891   .bss.m_lock_override_once:0000000000000000 $d
     /tmp/ccETYwEL.s:5893   .bss.m_motor_current_iterations:0000000000000000 $d
     /tmp/ccETYwEL.s:5897   .bss.m_motor_current_iterations:0000000000000000 m_motor_current_iterations
     /tmp/ccETYwEL.s:5900   .bss.m_motor_current_sum:0000000000000000 $d
     /tmp/ccETYwEL.s:5904   .bss.m_motor_current_sum:0000000000000000 m_motor_current_sum
     /tmp/ccETYwEL.s:5907   .bss.m_motor_id_iterations:0000000000000000 $d
     /tmp/ccETYwEL.s:5911   .bss.m_motor_id_iterations:0000000000000000 m_motor_id_iterations
     /tmp/ccETYwEL.s:5914   .bss.m_motor_id_sum:0000000000000000 $d
     /tmp/ccETYwEL.s:5918   .bss.m_motor_id_sum:0000000000000000 m_motor_id_sum
     /tmp/ccETYwEL.s:5921   .bss.m_motor_iq_iterations:0000000000000000 $d
ARM GAS  /tmp/ccETYwEL.s 			page 469


     /tmp/ccETYwEL.s:5925   .bss.m_motor_iq_iterations:0000000000000000 m_motor_iq_iterations
     /tmp/ccETYwEL.s:5928   .bss.m_motor_iq_sum:0000000000000000 $d
     /tmp/ccETYwEL.s:5932   .bss.m_motor_iq_sum:0000000000000000 m_motor_iq_sum
     /tmp/ccETYwEL.s:5935   .bss.m_position_set:0000000000000000 $d
     /tmp/ccETYwEL.s:5939   .bss.m_position_set:0000000000000000 m_position_set
     /tmp/ccETYwEL.s:5942   .bss.m_sample_int:0000000000000000 $d
     /tmp/ccETYwEL.s:5946   .bss.m_sample_int:0000000000000000 m_sample_int
     /tmp/ccETYwEL.s:5949   .bss.m_sample_len:0000000000000000 $d
     /tmp/ccETYwEL.s:5953   .bss.m_sample_len:0000000000000000 m_sample_len
     /tmp/ccETYwEL.s:5959   .bss.m_sample_mode:0000000000000000 m_sample_mode
     /tmp/ccETYwEL.s:5960   .bss.m_sample_mode:0000000000000000 $d
     /tmp/ccETYwEL.s:5965   .bss.m_sample_mode_last:0000000000000000 m_sample_mode_last
     /tmp/ccETYwEL.s:5966   .bss.m_sample_mode_last:0000000000000000 $d
     /tmp/ccETYwEL.s:5968   .bss.m_sample_now:0000000000000000 $d
     /tmp/ccETYwEL.s:5972   .bss.m_sample_now:0000000000000000 m_sample_now
     /tmp/ccETYwEL.s:5975   .bss.m_sample_trigger:0000000000000000 $d
     /tmp/ccETYwEL.s:5979   .bss.m_sample_trigger:0000000000000000 m_sample_trigger
     /tmp/ccETYwEL.s:5982   .bss.m_temp_fet:0000000000000000 $d
     /tmp/ccETYwEL.s:5986   .bss.m_temp_fet:0000000000000000 m_temp_fet
     /tmp/ccETYwEL.s:5989   .bss.m_temp_motor:0000000000000000 $d
     /tmp/ccETYwEL.s:5993   .bss.m_temp_motor:0000000000000000 m_temp_motor
     /tmp/ccETYwEL.s:5996   .bss.m_watt_seconds:0000000000000000 $d
     /tmp/ccETYwEL.s:6000   .bss.m_watt_seconds:0000000000000000 m_watt_seconds
     /tmp/ccETYwEL.s:6003   .bss.m_watt_seconds_charged:0000000000000000 $d
     /tmp/ccETYwEL.s:6007   .bss.m_watt_seconds_charged:0000000000000000 m_watt_seconds_charged
     /tmp/ccETYwEL.s:6010   .bss.pwn_done_func:0000000000000000 $d
     /tmp/ccETYwEL.s:6014   .bss.pwn_done_func:0000000000000000 pwn_done_func
     /tmp/ccETYwEL.s:6017   .bss.sample_send_thread_wa:0000000000000000 $d
     /tmp/ccETYwEL.s:6021   .bss.sample_send_thread_wa:0000000000000000 sample_send_thread_wa
     /tmp/ccETYwEL.s:6024   .bss.sample_send_tp:0000000000000000 $d
     /tmp/ccETYwEL.s:6028   .bss.sample_send_tp:0000000000000000 sample_send_tp
     /tmp/ccETYwEL.s:6031   .bss.timer_thread_wa:0000000000000000 $d
     /tmp/ccETYwEL.s:6035   .bss.timer_thread_wa:0000000000000000 timer_thread_wa
     /tmp/ccETYwEL.s:6038   .bss.wrong_voltage_iterations.12096:0000000000000000 $d
     /tmp/ccETYwEL.s:6042   .bss.wrong_voltage_iterations.12096:0000000000000000 wrong_voltage_iterations.12096
     /tmp/ccETYwEL.s:6045   .ram4:0000000000000000 $d
     /tmp/ccETYwEL.s:6056   .ram4:0000000000000000 m_curr0_samples
     /tmp/ccETYwEL.s:6060   .ram4:0000000000000fa0 m_curr1_samples
     /tmp/ccETYwEL.s:6064   .ram4:0000000000001f40 m_ph1_samples
     /tmp/ccETYwEL.s:6068   .ram4:0000000000002ee0 m_ph2_samples
     /tmp/ccETYwEL.s:6072   .ram4:0000000000003e80 m_ph3_samples
     /tmp/ccETYwEL.s:6076   .ram4:0000000000004e20 m_vzero_samples
     /tmp/ccETYwEL.s:6080   .ram4:0000000000005dc0 m_curr_fir_samples
     /tmp/ccETYwEL.s:6084   .ram4:0000000000006d60 m_f_sw_samples
     /tmp/ccETYwEL.s:6088   .ram4:0000000000007d00 m_status_samples
     /tmp/ccETYwEL.s:6092   .ram4:00000000000084d0 m_phase_samples
     /tmp/ccETYwEL.s:6095   .rodata.CSWTCH.182:0000000000000000 $d
     /tmp/ccETYwEL.s:6099   .rodata.CSWTCH.182:0000000000000000 CSWTCH.182
     /tmp/ccETYwEL.s:6108   .rodata.mc_interface_fault_to_string.str1.4:0000000000000000 $d
     /tmp/ccETYwEL.s:6112   .rodata.sample_send_thread.str1.4:0000000000000000 $d
     /tmp/ccETYwEL.s:6116   .rodata.str1.4:0000000000000000 $d
     /tmp/ccETYwEL.s:6135   .rodata.timer_thread.str1.4:0000000000000000 $d

UNDEFINED SYMBOLS
chEvtWaitAny
buffer_append_float32_auto
commands_send_packet
ARM GAS  /tmp/ccETYwEL.s 			page 470


ch
mcpwm_foc_set_handbrake
mcpwm_set_brake_current
memcpy
chThdCreateStatic
mcpwm_foc_init
encoder_init_as5047p_spi
mcpwm_init
encoder_init_abi
mcpwm_foc_is_dccal_done
mcpwm_is_dccal_done
mcpwm_foc_get_state
mcpwm_get_state
mcpwm_foc_get_duty_cycle_set
mcpwm_get_duty_cycle_set
mcpwm_foc_get_duty_cycle_now
mcpwm_get_duty_cycle_now
mcpwm_foc_get_sampling_frequency_now
mcpwm_get_switching_frequency_now
mcpwm_foc_get_rpm
mcpwm_get_rpm
mcpwm_foc_get_tot_current
mcpwm_get_tot_current
mcpwm_foc_get_tot_current_filtered
mcpwm_get_tot_current_filtered
mcpwm_foc_get_tot_current_directional
mcpwm_get_tot_current_directional
mcpwm_foc_get_tot_current_directional_filtered
mcpwm_get_tot_current_directional_filtered
mcpwm_foc_get_tot_current_in
mcpwm_get_tot_current_in
mcpwm_foc_get_tot_current_in_filtered
mcpwm_get_tot_current_in_filtered
mcpwm_foc_get_tachometer_value
mcpwm_get_tachometer_value
mcpwm_foc_stop_pwm
mcpwm_stop_pwm
utils_sys_lock_cnt
utils_sys_unlock_cnt
mcpwm_get_comm_step
logf
terminal_add_fault_data
utils_map
utils_min_abs
mcpwm_foc_set_configuration
encoder_deinit
encoder_set_counts
mcpwm_deinit
mcpwm_set_configuration
mcpwm_foc_deinit
chThdSleep
mcpwm_foc_get_tachometer_abs_value
mcpwm_get_tachometer_abs_value
mcpwm_foc_get_last_inj_adc_isr_duration
mcpwm_get_last_inj_adc_isr_duration
utils_norm_angle
mcpwm_foc_get_pid_pos_now
ARM GAS  /tmp/ccETYwEL.s 			page 471


encoder_read_deg
chEvtSignal
mcpwm_foc_init_done
mcpwm_init_done
mcpwm_foc_set_duty
mcpwm_set_duty
mcpwm_foc_set_duty_noramp
mcpwm_set_duty_noramp
mcpwm_foc_set_pid_speed
mcpwm_set_pid_speed
mcpwm_foc_set_pid_pos
mcpwm_set_pid_pos
mcpwm_foc_set_current
mcpwm_set_current
mcpwm_foc_set_brake_current
ledpwm_update_pwm
mcpwm_foc_get_id
mcpwm_foc_get_iq
mcpwm_read_hall_phase
chEvtSignalI
mcpwm_foc_get_abs_motor_current
mcpwm_foc_get_abs_motor_current_filtered
mcpwm_vzero
mcpwm_foc_get_phase
mcpwm_detect_currents
mcpwm_detect_currents_diff
mcpwm_detect_voltages
mcpwm_adc_inj_int_handler
