ARM GAS  /tmp/ccETYwEL.s 			page 1


   1              		.cpu cortex-m4
   2              		.eabi_attribute 27, 1
   3              		.eabi_attribute 28, 1
   4              		.eabi_attribute 20, 1
   5              		.eabi_attribute 21, 1
   6              		.eabi_attribute 23, 3
   7              		.eabi_attribute 24, 1
   8              		.eabi_attribute 25, 1
   9              		.eabi_attribute 26, 1
  10              		.eabi_attribute 30, 2
  11              		.eabi_attribute 34, 1
  12              		.eabi_attribute 18, 4
  13              		.file	"mc_interface.c"
  14              		.text
  15              	.Ltext0:
  16              		.cfi_sections	.debug_frame
  17              		.section	.text.sample_send_thread,"ax",%progbits
  18              		.align	1
  19              		.p2align 4,,15
  20              		.syntax unified
  21              		.thumb
  22              		.thumb_func
  23              		.fpu fpv4-sp-d16
  24              		.type	sample_send_thread, %function
  25              	sample_send_thread:
  26              	.LFB312:
  27              		.file 1 "mc_interface.c"
  28              		.loc 1 1555 0
  29              		.cfi_startproc
  30              		@ args = 0, pretend = 0, frame = 48
  31              		@ frame_needed = 0, uses_anonymous_args = 0
  32              	.LVL0:
  33 0000 2DE9F04F 		push	{r4, r5, r6, r7, r8, r9, r10, fp, lr}
  34              		.cfi_def_cfa_offset 36
  35              		.cfi_offset 4, -36
  36              		.cfi_offset 5, -32
  37              		.cfi_offset 6, -28
  38              		.cfi_offset 7, -24
  39              		.cfi_offset 8, -20
  40              		.cfi_offset 9, -16
  41              		.cfi_offset 10, -12
  42              		.cfi_offset 11, -8
  43              		.cfi_offset 14, -4
  44              	.LBB117:
  45              	.LBB118:
  46              		.file 2 "ChibiOS_3.0.2/os/rt/include/chregistry.h"
  47              		.loc 2 135 0
  48 0004 7B4B     		ldr	r3, .L21
  49              	.LBE118:
  50              	.LBE117:
  51              		.loc 1 1560 0
  52 0006 7C4A     		ldr	r2, .L21+4
  53              	.LBB121:
  54              	.LBB119:
  55              		.loc 2 135 0
  56 0008 9B69     		ldr	r3, [r3, #24]
  57 000a 7C49     		ldr	r1, .L21+8
ARM GAS  /tmp/ccETYwEL.s 			page 2


  58 000c 7C4E     		ldr	r6, .L21+12
  59 000e DFF828B2 		ldr	fp, .L21+68
  60 0012 DFF828A2 		ldr	r10, .L21+72
  61              	.LBE119:
  62              	.LBE121:
  63              		.loc 1 1555 0
  64 0016 2DED068B 		vpush.64	{d8, d9, d10}
  65              		.cfi_def_cfa_offset 60
  66              		.cfi_offset 80, -60
  67              		.cfi_offset 81, -56
  68              		.cfi_offset 82, -52
  69              		.cfi_offset 83, -48
  70              		.cfi_offset 84, -44
  71              		.cfi_offset 85, -40
  72              	.LBB122:
  73              	.LBB123:
  74              	.LBB124:
  75              		.loc 1 1600 0
  76 001a DFED7A9A 		vldr.32	s19, .L21+16
  77              		.loc 1 1602 0
  78 001e 9FED7A9A 		vldr.32	s18, .L21+20
  79 0022 DFED7A8A 		vldr.32	s17, .L21+24
  80 0026 9FED7A8A 		vldr.32	s16, .L21+28
  81              		.loc 1 1606 0
  82 002a 9FED7AAA 		vldr.32	s20, .L21+32
  83              	.LBE124:
  84              	.LBE123:
  85              	.LBE122:
  86              	.LBB132:
  87              	.LBB120:
  88              		.loc 2 135 0
  89 002e 9961     		str	r1, [r3, #24]
  90              	.LVL1:
  91              	.LBE120:
  92              	.LBE132:
  93              		.loc 1 1555 0
  94 0030 8DB0     		sub	sp, sp, #52
  95              		.cfi_def_cfa_offset 112
  96              		.loc 1 1560 0
  97 0032 1360     		str	r3, [r2]
  98              	.LVL2:
  99              	.L13:
 100              	.LBB133:
 101              		.loc 1 1563 0
 102 0034 0120     		movs	r0, #1
 103 0036 FFF7FEFF 		bl	chEvtWaitAny
 104              	.LVL3:
 105              		.loc 1 1568 0
 106 003a 774B     		ldr	r3, .L21+36
 107 003c 1B78     		ldrb	r3, [r3]	@ zero_extendqisi2
 108 003e 013B     		subs	r3, r3, #1
 109 0040 052B     		cmp	r3, #5
 110 0042 F7D8     		bhi	.L13
 111 0044 DFE803F0 		tbb	[pc, r3]
 112              	.L4:
 113 0048 03       		.byte	(.L3-.L4)/2
 114 0049 03       		.byte	(.L3-.L4)/2
ARM GAS  /tmp/ccETYwEL.s 			page 3


 115 004a CC       		.byte	(.L5-.L4)/2
 116 004b CC       		.byte	(.L5-.L4)/2
 117 004c CC       		.byte	(.L5-.L4)/2
 118 004d CC       		.byte	(.L5-.L4)/2
 119              		.p2align 1
 120              	.L3:
 121              		.loc 1 1571 0
 122 004e 734B     		ldr	r3, .L21+40
 123 0050 D3F80080 		ldr	r8, [r3]
 124              	.LVL4:
 125              	.LBB129:
 126              		.loc 1 1586 0
 127 0054 B8F1000F 		cmp	r8, #0
 128              	.LBE129:
 129              		.loc 1 1566 0
 130 0058 C8BF     		it	gt
 131 005a 4FF00009 		movgt	r9, #0
 132              	.LBB130:
 133              		.loc 1 1586 0
 134 005e E9DD     		ble	.L13
 135              	.LVL5:
 136              	.L6:
 137              	.LBB125:
 138              		.loc 1 1591 0
 139 0060 B9F5FA6F 		cmp	r9, #2000
 140              	.LBE125:
 141              	.LBE130:
 142              		.loc 1 1578 0
 143 0064 4FF00007 		mov	r7, #0
 144              	.LVL6:
 145              	.LBB131:
 146              	.LBB126:
 147              		.loc 1 1589 0
 148 0068 4C46     		mov	r4, r9
 149              	.LVL7:
 150              		.loc 1 1591 0
 151 006a C0F2B180 		blt	.L7
 152              	.L8:
 153              		.loc 1 1592 0
 154 006e A4F5FA64 		sub	r4, r4, #2000
 155              	.LVL8:
 156              		.loc 1 1591 0
 157 0072 B4F5FA6F 		cmp	r4, #2000
 158 0076 FADA     		bge	.L8
 159              	.L9:
 160              		.loc 1 1600 0 discriminator 2
 161 0078 36F81430 		ldrh	r3, [r6, r4, lsl #1]
 162 007c 1BB2     		sxth	r3, r3
 163 007e 07EE903A 		vmov	s15, r3	@ int
 164 0082 B8EEE70A 		vcvt.f32.s32	s0, s15
 165              		.loc 1 1599 0 discriminator 2
 166 0086 0122     		movs	r2, #1
 167              		.loc 1 1601 0 discriminator 2
 168 0088 04FA02F5 		lsl	r5, r4, r2
 169              		.loc 1 1599 0 discriminator 2
 170 008c 1323     		movs	r3, #19
 171              		.loc 1 1600 0 discriminator 2
ARM GAS  /tmp/ccETYwEL.s 			page 4


 172 008e 20EE290A 		vmul.f32	s0, s0, s19
 173 0092 01A9     		add	r1, sp, #4
 174 0094 02A8     		add	r0, sp, #8
 175              		.loc 1 1599 0 discriminator 2
 176 0096 0192     		str	r2, [sp, #4]
 177 0098 8DF80830 		strb	r3, [sp, #8]
 178              		.loc 1 1600 0 discriminator 2
 179 009c FFF7FEFF 		bl	buffer_append_float32_auto
 180              	.LVL9:
 181              		.loc 1 1601 0 discriminator 2
 182 00a0 7319     		adds	r3, r6, r5
 183 00a2 01A9     		add	r1, sp, #4
 184 00a4 B3F8A03F 		ldrh	r3, [r3, #4000]
 185 00a8 1BB2     		sxth	r3, r3
 186 00aa 07EE903A 		vmov	s15, r3	@ int
 187 00ae B8EEE70A 		vcvt.f32.s32	s0, s15
 188 00b2 02A8     		add	r0, sp, #8
 189 00b4 20EE290A 		vmul.f32	s0, s0, s19
 190 00b8 FFF7FEFF 		bl	buffer_append_float32_auto
 191              	.LVL10:
 192              		.loc 1 1602 0 discriminator 2
 193 00bc 0BEB0503 		add	r3, fp, r5
 194 00c0 01A9     		add	r1, sp, #4
 195 00c2 B3F8483E 		ldrh	r3, [r3, #3656]
 196 00c6 1BB2     		sxth	r3, r3
 197 00c8 00EE103A 		vmov	s0, r3	@ int
 198 00cc B8EEC00A 		vcvt.f32.s32	s0, s0
 199 00d0 02A8     		add	r0, sp, #8
 200 00d2 20EE090A 		vmul.f32	s0, s0, s18
 201              	.LBE126:
 202              		.loc 1 1586 0 discriminator 2
 203 00d6 0137     		adds	r7, r7, #1
 204              	.LVL11:
 205              	.LBB127:
 206              		.loc 1 1602 0 discriminator 2
 207 00d8 20EE280A 		vmul.f32	s0, s0, s17
 208 00dc 09F10109 		add	r9, r9, #1
 209 00e0 20EE080A 		vmul.f32	s0, s0, s16
 210 00e4 FFF7FEFF 		bl	buffer_append_float32_auto
 211              	.LVL12:
 212              		.loc 1 1603 0 discriminator 2
 213 00e8 0AEB0503 		add	r3, r10, r5
 214 00ec 01A9     		add	r1, sp, #4
 215 00ee B3F8F03C 		ldrh	r3, [r3, #3312]
 216 00f2 1BB2     		sxth	r3, r3
 217 00f4 00EE103A 		vmov	s0, r3	@ int
 218 00f8 B8EEC00A 		vcvt.f32.s32	s0, s0
 219 00fc 02A8     		add	r0, sp, #8
 220 00fe 20EE090A 		vmul.f32	s0, s0, s18
 221 0102 20EE280A 		vmul.f32	s0, s0, s17
 222 0106 20EE080A 		vmul.f32	s0, s0, s16
 223 010a FFF7FEFF 		bl	buffer_append_float32_auto
 224              	.LVL13:
 225              		.loc 1 1604 0 discriminator 2
 226 010e 444B     		ldr	r3, .L21+44
 227 0110 2B44     		add	r3, r3, r5
 228 0112 01A9     		add	r1, sp, #4
ARM GAS  /tmp/ccETYwEL.s 			page 5


 229 0114 B3F8983B 		ldrh	r3, [r3, #2968]
 230 0118 1BB2     		sxth	r3, r3
 231 011a 00EE103A 		vmov	s0, r3	@ int
 232 011e B8EEC00A 		vcvt.f32.s32	s0, s0
 233 0122 02A8     		add	r0, sp, #8
 234 0124 20EE090A 		vmul.f32	s0, s0, s18
 235 0128 20EE280A 		vmul.f32	s0, s0, s17
 236 012c 20EE080A 		vmul.f32	s0, s0, s16
 237 0130 FFF7FEFF 		bl	buffer_append_float32_auto
 238              	.LVL14:
 239              		.loc 1 1605 0 discriminator 2
 240 0134 3B4B     		ldr	r3, .L21+48
 241 0136 2B44     		add	r3, r3, r5
 242 0138 01A9     		add	r1, sp, #4
 243 013a B3F8403A 		ldrh	r3, [r3, #2624]
 244 013e 1BB2     		sxth	r3, r3
 245 0140 00EE103A 		vmov	s0, r3	@ int
 246 0144 B8EEC00A 		vcvt.f32.s32	s0, s0
 247 0148 02A8     		add	r0, sp, #8
 248 014a 20EE090A 		vmul.f32	s0, s0, s18
 249 014e 20EE280A 		vmul.f32	s0, s0, s17
 250 0152 20EE080A 		vmul.f32	s0, s0, s16
 251 0156 FFF7FEFF 		bl	buffer_append_float32_auto
 252              	.LVL15:
 253              		.loc 1 1606 0 discriminator 2
 254 015a 334B     		ldr	r3, .L21+52
 255 015c 2B44     		add	r3, r3, r5
 256 015e 01A9     		add	r1, sp, #4
 257 0160 B3F8E838 		ldrh	r3, [r3, #2280]
 258 0164 1BB2     		sxth	r3, r3
 259 0166 07EE903A 		vmov	s15, r3	@ int
 260 016a B8EEE70A 		vcvt.f32.s32	s0, s15
 261 016e 02A8     		add	r0, sp, #8
 262 0170 80EE0A0A 		vdiv.f32	s0, s0, s20
 263 0174 FFF7FEFF 		bl	buffer_append_float32_auto
 264              	.LVL16:
 265              		.loc 1 1607 0 discriminator 2
 266 0178 2C4B     		ldr	r3, .L21+56
 267 017a 1D44     		add	r5, r5, r3
 268 017c 01A9     		add	r1, sp, #4
 269 017e B5F89037 		ldrh	r3, [r5, #1936]
 270 0182 1BB2     		sxth	r3, r3
 271 0184 02A8     		add	r0, sp, #8
 272 0186 07EE903A 		vmov	s15, r3	@ int
 273 018a F8EEE77A 		vcvt.f32.s32	s15, s15
 274 018e B2EE040A 		vmov.f32	s0, #1.0e+1
 275 0192 27EE800A 		vmul.f32	s0, s15, s0
 276 0196 FFF7FEFF 		bl	buffer_append_float32_auto
 277              	.LVL17:
 278              		.loc 1 1608 0 discriminator 2
 279 019a 254A     		ldr	r2, .L21+60
 280 019c 019B     		ldr	r3, [sp, #4]
 281 019e 1444     		add	r4, r4, r2
 282              	.LVL18:
 283 01a0 0CAA     		add	r2, sp, #48
 284 01a2 1A44     		add	r2, r2, r3
 285 01a4 94F83816 		ldrb	r1, [r4, #1592]	@ zero_extendqisi2
ARM GAS  /tmp/ccETYwEL.s 			page 6


 286 01a8 02F8281C 		strb	r1, [r2, #-40]
 287              		.loc 1 1609 0 discriminator 2
 288 01ac 0233     		adds	r3, r3, #2
 289 01ae 94F8084E 		ldrb	r4, [r4, #3592]	@ zero_extendqisi2
 290              	.LVL19:
 291 01b2 02F8274C 		strb	r4, [r2, #-39]
 292              		.loc 1 1611 0 discriminator 2
 293 01b6 1946     		mov	r1, r3
 294 01b8 02A8     		add	r0, sp, #8
 295              		.loc 1 1609 0 discriminator 2
 296 01ba 0193     		str	r3, [sp, #4]
 297              		.loc 1 1611 0 discriminator 2
 298 01bc FFF7FEFF 		bl	commands_send_packet
 299              	.LVL20:
 300              	.LBE127:
 301              		.loc 1 1586 0 discriminator 2
 302 01c0 4745     		cmp	r7, r8
 303 01c2 BFF637AF 		bge	.L13
 304              	.LBB128:
 305              		.loc 1 1591 0
 306 01c6 B9F5FA6F 		cmp	r9, #2000
 307              		.loc 1 1589 0
 308 01ca 4C46     		mov	r4, r9
 309              	.LVL21:
 310              		.loc 1 1591 0
 311 01cc BFF64FAF 		bge	.L8
 312              	.L7:
 313              		.loc 1 1595 0
 314 01d0 B9F1000F 		cmp	r9, #0
 315 01d4 BFF650AF 		bge	.L9
 316              	.L10:
 317              	.LVL22:
 318 01d8 14F5FA64 		adds	r4, r4, #2000
 319              	.LVL23:
 320 01dc FCD4     		bmi	.L10
 321 01de 4BE7     		b	.L9
 322              	.LVL24:
 323              	.L5:
 324              	.LBE128:
 325              	.LBE131:
 326              		.loc 1 1579 0
 327 01e0 144B     		ldr	r3, .L21+64
 328 01e2 0E4A     		ldr	r2, .L21+40
 329 01e4 1B68     		ldr	r3, [r3]
 330 01e6 1268     		ldr	r2, [r2]
 331              		.loc 1 1578 0
 332 01e8 4FF4FA68 		mov	r8, #2000
 333              		.loc 1 1579 0
 334 01ec A3EB0209 		sub	r9, r3, r2
 335              	.LVL25:
 336 01f0 36E7     		b	.L6
 337              	.L22:
 338 01f2 00BF     		.align	2
 339              	.L21:
 340 01f4 00000000 		.word	ch
 341 01f8 00000000 		.word	.LANCHOR0
 342 01fc 00000000 		.word	.LC0
ARM GAS  /tmp/ccETYwEL.s 			page 7


 343 0200 00000000 		.word	.LANCHOR4
 344 0204 500AA53D 		.word	1034226256
 345 0208 00008039 		.word	964689920
 346 020c 33335340 		.word	1079194419
 347 0210 74D19541 		.word	1100337524
 348 0214 A48BC642 		.word	1120308132
 349 0218 00000000 		.word	.LANCHOR1
 350 021c 00000000 		.word	.LANCHOR2
 351 0220 E8320000 		.word	.LANCHOR7
 352 0224 E0430000 		.word	.LANCHOR8
 353 0228 D8540000 		.word	.LANCHOR9
 354 022c D0650000 		.word	.LANCHOR10
 355 0230 C8760000 		.word	.LANCHOR11
 356 0234 00000000 		.word	.LANCHOR3
 357 0238 F8100000 		.word	.LANCHOR5
 358 023c F0210000 		.word	.LANCHOR6
 359              	.LBE133:
 360              		.cfi_endproc
 361              	.LFE312:
 362              		.size	sample_send_thread, .-sample_send_thread
 363              		.section	.text.mc_interface_set_handbrake.part.3,"ax",%progbits
 364              		.align	1
 365              		.p2align 4,,15
 366              		.syntax unified
 367              		.thumb
 368              		.thumb_func
 369              		.fpu fpv4-sp-d16
 370              		.type	mc_interface_set_handbrake.part.3, %function
 371              	mc_interface_set_handbrake.part.3:
 372              	.LFB316:
 373              		.loc 1 482 0
 374              		.cfi_startproc
 375              		@ args = 0, pretend = 0, frame = 0
 376              		@ frame_needed = 0, uses_anonymous_args = 0
 377              		@ link register save eliminated.
 378              	.LVL26:
 379              		.loc 1 487 0
 380 0000 054B     		ldr	r3, .L29
 381 0002 9B78     		ldrb	r3, [r3, #2]	@ zero_extendqisi2
 382 0004 DBB2     		uxtb	r3, r3
 383 0006 012B     		cmp	r3, #1
 384 0008 04D9     		bls	.L25
 385 000a 022B     		cmp	r3, #2
 386 000c 01D1     		bne	.L28
 387              		.loc 1 495 0
 388 000e FFF7FEBF 		b	mcpwm_foc_set_handbrake
 389              	.LVL27:
 390              	.L28:
 391 0012 7047     		bx	lr
 392              	.L25:
 393              		.loc 1 491 0
 394 0014 FFF7FEBF 		b	mcpwm_set_brake_current
 395              	.LVL28:
 396              	.L30:
 397              		.align	2
 398              	.L29:
 399 0018 00000000 		.word	.LANCHOR12
ARM GAS  /tmp/ccETYwEL.s 			page 8


 400              		.cfi_endproc
 401              	.LFE316:
 402              		.size	mc_interface_set_handbrake.part.3, .-mc_interface_set_handbrake.part.3
 403              		.section	.text.mc_interface_init,"ax",%progbits
 404              		.align	1
 405              		.p2align 4,,15
 406              		.global	mc_interface_init
 407              		.syntax unified
 408              		.thumb
 409              		.thumb_func
 410              		.fpu fpv4-sp-d16
 411              		.type	mc_interface_init, %function
 412              	mc_interface_init:
 413              	.LFB256:
 414              		.loc 1 100 0
 415              		.cfi_startproc
 416              		@ args = 0, pretend = 0, frame = 0
 417              		@ frame_needed = 0, uses_anonymous_args = 0
 418              	.LVL29:
 419 0000 F0B5     		push	{r4, r5, r6, r7, lr}
 420              		.cfi_def_cfa_offset 20
 421              		.cfi_offset 4, -20
 422              		.cfi_offset 5, -16
 423              		.cfi_offset 6, -12
 424              		.cfi_offset 7, -8
 425              		.cfi_offset 14, -4
 426              		.loc 1 101 0
 427 0002 3D4D     		ldr	r5, .L42
 428              		.loc 1 107 0
 429 0004 3D4E     		ldr	r6, .L42+4
 430              		.loc 1 124 0
 431 0006 3E4F     		ldr	r7, .L42+8
 432              		.loc 1 100 0
 433 0008 83B0     		sub	sp, sp, #12
 434              		.cfi_def_cfa_offset 32
 435              		.loc 1 101 0
 436 000a 0146     		mov	r1, r0
 437 000c 4FF4C272 		mov	r2, #388
 438 0010 2846     		mov	r0, r5
 439              	.LVL30:
 440 0012 FFF7FEFF 		bl	memcpy
 441              	.LVL31:
 442              		.loc 1 104 0
 443 0016 3B48     		ldr	r0, .L42+12
 444              		.loc 1 105 0
 445 0018 3B49     		ldr	r1, .L42+16
 446              		.loc 1 106 0
 447 001a 3C4A     		ldr	r2, .L42+20
 448              		.loc 1 102 0
 449 001c 0024     		movs	r4, #0
 450              		.loc 1 132 0
 451 001e 0094     		str	r4, [sp]
 452              		.loc 1 104 0
 453 0020 0460     		str	r4, [r0]
 454              		.loc 1 108 0
 455 0022 3B48     		ldr	r0, .L42+24
 456              		.loc 1 105 0
ARM GAS  /tmp/ccETYwEL.s 			page 9


 457 0024 0C70     		strb	r4, [r1]
 458              		.loc 1 107 0
 459 0026 0023     		movs	r3, #0
 460              		.loc 1 106 0
 461 0028 1470     		strb	r4, [r2]
 462              		.loc 1 109 0
 463 002a 3A49     		ldr	r1, .L42+28
 464              		.loc 1 110 0
 465 002c 3A4A     		ldr	r2, .L42+32
 466              		.loc 1 107 0
 467 002e 3360     		str	r3, [r6]	@ float
 468              		.loc 1 108 0
 469 0030 0360     		str	r3, [r0]	@ float
 470              		.loc 1 111 0
 471 0032 3A4E     		ldr	r6, .L42+36
 472              		.loc 1 112 0
 473 0034 3A48     		ldr	r0, .L42+40
 474              		.loc 1 109 0
 475 0036 0B60     		str	r3, [r1]	@ float
 476              		.loc 1 110 0
 477 0038 1360     		str	r3, [r2]	@ float
 478              		.loc 1 113 0
 479 003a 3A49     		ldr	r1, .L42+44
 480              		.loc 1 114 0
 481 003c 3A4A     		ldr	r2, .L42+48
 482              		.loc 1 111 0
 483 003e 3360     		str	r3, [r6]	@ float
 484              		.loc 1 112 0
 485 0040 0360     		str	r3, [r0]	@ float
 486              		.loc 1 115 0
 487 0042 3A4E     		ldr	r6, .L42+52
 488              		.loc 1 116 0
 489 0044 3A48     		ldr	r0, .L42+56
 490              		.loc 1 113 0
 491 0046 0B60     		str	r3, [r1]	@ float
 492              		.loc 1 114 0
 493 0048 1360     		str	r3, [r2]	@ float
 494              		.loc 1 117 0
 495 004a 3A49     		ldr	r1, .L42+60
 496              		.loc 1 118 0
 497 004c 3A4A     		ldr	r2, .L42+64
 498              		.loc 1 115 0
 499 004e 3360     		str	r3, [r6]	@ float
 500              		.loc 1 116 0
 501 0050 0360     		str	r3, [r0]	@ float
 502              		.loc 1 119 0
 503 0052 3A4E     		ldr	r6, .L42+68
 504              		.loc 1 120 0
 505 0054 3A48     		ldr	r0, .L42+72
 506              		.loc 1 117 0
 507 0056 0B60     		str	r3, [r1]	@ float
 508              		.loc 1 118 0
 509 0058 1360     		str	r3, [r2]	@ float
 510              		.loc 1 121 0
 511 005a 3A49     		ldr	r1, .L42+76
 512              		.loc 1 122 0
 513 005c 3A4A     		ldr	r2, .L42+80
ARM GAS  /tmp/ccETYwEL.s 			page 10


 514              		.loc 1 119 0
 515 005e 3360     		str	r3, [r6]	@ float
 516              		.loc 1 124 0
 517 0060 4FF47A7C 		mov	ip, #1000
 518              		.loc 1 120 0
 519 0064 0360     		str	r3, [r0]	@ float
 520              		.loc 1 126 0
 521 0066 394E     		ldr	r6, .L42+84
 522              		.loc 1 125 0
 523 0068 3948     		ldr	r0, .L42+88
 524              		.loc 1 121 0
 525 006a 0B60     		str	r3, [r1]	@ float
 526              		.loc 1 122 0
 527 006c 1360     		str	r3, [r2]	@ float
 528              		.loc 1 124 0
 529 006e C7F800C0 		str	ip, [r7]
 530              		.loc 1 125 0
 531 0072 0127     		movs	r7, #1
 532 0074 0760     		str	r7, [r0]
 533              		.loc 1 127 0
 534 0076 374B     		ldr	r3, .L42+92
 535              		.loc 1 126 0
 536 0078 3460     		str	r4, [r6]
 537              		.loc 1 128 0
 538 007a 374A     		ldr	r2, .L42+96
 539              		.loc 1 102 0
 540 007c 3749     		ldr	r1, .L42+100
 541              		.loc 1 103 0
 542 007e 3848     		ldr	r0, .L42+104
 543              		.loc 1 129 0
 544 0080 384E     		ldr	r6, .L42+108
 545              		.loc 1 127 0
 546 0082 1C60     		str	r4, [r3]
 547              		.loc 1 102 0
 548 0084 0C70     		strb	r4, [r1]
 549              		.loc 1 128 0
 550 0086 1470     		strb	r4, [r2]
 551              		.loc 1 132 0
 552 0088 374B     		ldr	r3, .L42+112
 553              		.loc 1 103 0
 554 008a 0460     		str	r4, [r0]
 555              		.loc 1 132 0
 556 008c 4022     		movs	r2, #64
 557 008e 4FF4B361 		mov	r1, #1432
 558 0092 3648     		ldr	r0, .L42+116
 559              		.loc 1 129 0
 560 0094 3470     		strb	r4, [r6]
 561              		.loc 1 132 0
 562 0096 FFF7FEFF 		bl	chThdCreateStatic
 563              	.LVL32:
 564              		.loc 1 133 0
 565 009a 354B     		ldr	r3, .L42+120
 566 009c 0094     		str	r4, [sp]
 567 009e 3548     		ldr	r0, .L42+124
 568 00a0 3F22     		movs	r2, #63
 569 00a2 4FF4B361 		mov	r1, #1432
 570 00a6 FFF7FEFF 		bl	chThdCreateStatic
ARM GAS  /tmp/ccETYwEL.s 			page 11


 571              	.LVL33:
 572              		.loc 1 145 0
 573 00aa 95F86831 		ldrb	r3, [r5, #360]	@ zero_extendqisi2
 574 00ae DBB2     		uxtb	r3, r3
 575 00b0 BB42     		cmp	r3, r7
 576 00b2 1BD0     		beq	.L33
 577 00b4 022B     		cmp	r3, #2
 578 00b6 0BD0     		beq	.L34
 579              	.L32:
 580              		.loc 1 160 0
 581 00b8 AB78     		ldrb	r3, [r5, #2]	@ zero_extendqisi2
 582 00ba DBB2     		uxtb	r3, r3
 583 00bc 012B     		cmp	r3, #1
 584 00be 0DD9     		bls	.L36
 585              	.L41:
 586 00c0 022B     		cmp	r3, #2
 587 00c2 11D1     		bne	.L40
 588              		.loc 1 167 0
 589 00c4 0C48     		ldr	r0, .L42
 590              		.loc 1 173 0
 591 00c6 03B0     		add	sp, sp, #12
 592              		.cfi_remember_state
 593              		.cfi_def_cfa_offset 20
 594              		@ sp needed
 595 00c8 BDE8F040 		pop	{r4, r5, r6, r7, lr}
 596              		.cfi_restore 14
 597              		.cfi_restore 7
 598              		.cfi_restore 6
 599              		.cfi_restore 5
 600              		.cfi_restore 4
 601              		.cfi_def_cfa_offset 0
 602              		.loc 1 167 0
 603 00cc FFF7FEBF 		b	mcpwm_foc_init
 604              	.LVL34:
 605              	.L34:
 606              		.cfi_restore_state
 607              		.loc 1 151 0
 608 00d0 FFF7FEFF 		bl	encoder_init_as5047p_spi
 609              	.LVL35:
 610              		.loc 1 160 0
 611 00d4 AB78     		ldrb	r3, [r5, #2]	@ zero_extendqisi2
 612 00d6 DBB2     		uxtb	r3, r3
 613 00d8 012B     		cmp	r3, #1
 614 00da F1D8     		bhi	.L41
 615              	.L36:
 616              		.loc 1 163 0
 617 00dc 0648     		ldr	r0, .L42
 618              		.loc 1 173 0
 619 00de 03B0     		add	sp, sp, #12
 620              		.cfi_remember_state
 621              		.cfi_def_cfa_offset 20
 622              		@ sp needed
 623 00e0 BDE8F040 		pop	{r4, r5, r6, r7, lr}
 624              		.cfi_restore 14
 625              		.cfi_restore 7
 626              		.cfi_restore 6
 627              		.cfi_restore 5
ARM GAS  /tmp/ccETYwEL.s 			page 12


 628              		.cfi_restore 4
 629              		.cfi_def_cfa_offset 0
 630              		.loc 1 163 0
 631 00e4 FFF7FEBF 		b	mcpwm_init
 632              	.LVL36:
 633              	.L40:
 634              		.cfi_restore_state
 635              		.loc 1 173 0
 636 00e8 03B0     		add	sp, sp, #12
 637              		.cfi_remember_state
 638              		.cfi_def_cfa_offset 20
 639              		@ sp needed
 640 00ea F0BD     		pop	{r4, r5, r6, r7, pc}
 641              	.L33:
 642              		.cfi_restore_state
 643              		.loc 1 147 0
 644 00ec D5F86401 		ldr	r0, [r5, #356]
 645 00f0 FFF7FEFF 		bl	encoder_init_abi
 646              	.LVL37:
 647              		.loc 1 148 0
 648 00f4 E0E7     		b	.L32
 649              	.L43:
 650 00f6 00BF     		.align	2
 651              	.L42:
 652 00f8 00000000 		.word	.LANCHOR12
 653 00fc 00000000 		.word	.LANCHOR18
 654 0100 00000000 		.word	.LANCHOR2
 655 0104 00000000 		.word	.LANCHOR15
 656 0108 00000000 		.word	.LANCHOR16
 657 010c 00000000 		.word	.LANCHOR17
 658 0110 00000000 		.word	.LANCHOR19
 659 0114 00000000 		.word	.LANCHOR20
 660 0118 00000000 		.word	.LANCHOR21
 661 011c 00000000 		.word	.LANCHOR22
 662 0120 00000000 		.word	.LANCHOR23
 663 0124 00000000 		.word	.LANCHOR24
 664 0128 00000000 		.word	.LANCHOR25
 665 012c 00000000 		.word	.LANCHOR26
 666 0130 00000000 		.word	.LANCHOR27
 667 0134 00000000 		.word	.LANCHOR28
 668 0138 00000000 		.word	.LANCHOR29
 669 013c 00000000 		.word	.LANCHOR30
 670 0140 00000000 		.word	.LANCHOR31
 671 0144 00000000 		.word	.LANCHOR32
 672 0148 00000000 		.word	.LANCHOR33
 673 014c 00000000 		.word	.LANCHOR35
 674 0150 00000000 		.word	.LANCHOR34
 675 0154 00000000 		.word	.LANCHOR3
 676 0158 00000000 		.word	.LANCHOR36
 677 015c 00000000 		.word	.LANCHOR13
 678 0160 00000000 		.word	.LANCHOR14
 679 0164 00000000 		.word	.LANCHOR1
 680 0168 00000000 		.word	timer_thread
 681 016c 00000000 		.word	.LANCHOR37
 682 0170 00000000 		.word	sample_send_thread
 683 0174 00000000 		.word	.LANCHOR38
 684              		.cfi_endproc
ARM GAS  /tmp/ccETYwEL.s 			page 13


 685              	.LFE256:
 686              		.size	mc_interface_init, .-mc_interface_init
 687              		.section	.text.mc_interface_get_configuration,"ax",%progbits
 688              		.align	1
 689              		.p2align 4,,15
 690              		.global	mc_interface_get_configuration
 691              		.syntax unified
 692              		.thumb
 693              		.thumb_func
 694              		.fpu fpv4-sp-d16
 695              		.type	mc_interface_get_configuration, %function
 696              	mc_interface_get_configuration:
 697              	.LFB257:
 698              		.loc 1 175 0
 699              		.cfi_startproc
 700              		@ args = 0, pretend = 0, frame = 0
 701              		@ frame_needed = 0, uses_anonymous_args = 0
 702              		@ link register save eliminated.
 703              		.loc 1 177 0
 704 0000 0048     		ldr	r0, .L45
 705 0002 7047     		bx	lr
 706              	.L46:
 707              		.align	2
 708              	.L45:
 709 0004 00000000 		.word	.LANCHOR12
 710              		.cfi_endproc
 711              	.LFE257:
 712              		.size	mc_interface_get_configuration, .-mc_interface_get_configuration
 713              		.section	.text.mc_interface_dccal_done,"ax",%progbits
 714              		.align	1
 715              		.p2align 4,,15
 716              		.global	mc_interface_dccal_done
 717              		.syntax unified
 718              		.thumb
 719              		.thumb_func
 720              		.fpu fpv4-sp-d16
 721              		.type	mc_interface_dccal_done, %function
 722              	mc_interface_dccal_done:
 723              	.LFB259:
 724              		.loc 1 241 0
 725              		.cfi_startproc
 726              		@ args = 0, pretend = 0, frame = 0
 727              		@ frame_needed = 0, uses_anonymous_args = 0
 728              		@ link register save eliminated.
 729              	.LVL38:
 730              		.loc 1 243 0
 731 0000 064B     		ldr	r3, .L53
 732 0002 9B78     		ldrb	r3, [r3, #2]	@ zero_extendqisi2
 733 0004 DBB2     		uxtb	r3, r3
 734 0006 012B     		cmp	r3, #1
 735 0008 05D9     		bls	.L49
 736 000a 022B     		cmp	r3, #2
 737 000c 01D1     		bne	.L52
 738              		.loc 1 250 0
 739 000e FFF7FEBF 		b	mcpwm_foc_is_dccal_done
 740              	.LVL39:
 741              	.L52:
ARM GAS  /tmp/ccETYwEL.s 			page 14


 742              		.loc 1 258 0
 743 0012 0020     		movs	r0, #0
 744 0014 7047     		bx	lr
 745              	.L49:
 746              		.loc 1 246 0
 747 0016 FFF7FEBF 		b	mcpwm_is_dccal_done
 748              	.LVL40:
 749              	.L54:
 750 001a 00BF     		.align	2
 751              	.L53:
 752 001c 00000000 		.word	.LANCHOR12
 753              		.cfi_endproc
 754              	.LFE259:
 755              		.size	mc_interface_dccal_done, .-mc_interface_dccal_done
 756              		.section	.text.mc_interface_set_pwm_callback,"ax",%progbits
 757              		.align	1
 758              		.p2align 4,,15
 759              		.global	mc_interface_set_pwm_callback
 760              		.syntax unified
 761              		.thumb
 762              		.thumb_func
 763              		.fpu fpv4-sp-d16
 764              		.type	mc_interface_set_pwm_callback, %function
 765              	mc_interface_set_pwm_callback:
 766              	.LFB260:
 767              		.loc 1 266 0
 768              		.cfi_startproc
 769              		@ args = 0, pretend = 0, frame = 0
 770              		@ frame_needed = 0, uses_anonymous_args = 0
 771              		@ link register save eliminated.
 772              	.LVL41:
 773              		.loc 1 267 0
 774 0000 014B     		ldr	r3, .L56
 775 0002 1860     		str	r0, [r3]
 776              		.loc 1 268 0
 777 0004 7047     		bx	lr
 778              	.L57:
 779 0006 00BF     		.align	2
 780              	.L56:
 781 0008 00000000 		.word	.LANCHOR39
 782              		.cfi_endproc
 783              	.LFE260:
 784              		.size	mc_interface_set_pwm_callback, .-mc_interface_set_pwm_callback
 785              		.section	.text.mc_interface_lock,"ax",%progbits
 786              		.align	1
 787              		.p2align 4,,15
 788              		.global	mc_interface_lock
 789              		.syntax unified
 790              		.thumb
 791              		.thumb_func
 792              		.fpu fpv4-sp-d16
 793              		.type	mc_interface_lock, %function
 794              	mc_interface_lock:
 795              	.LFB261:
 796              		.loc 1 273 0
 797              		.cfi_startproc
 798              		@ args = 0, pretend = 0, frame = 0
ARM GAS  /tmp/ccETYwEL.s 			page 15


 799              		@ frame_needed = 0, uses_anonymous_args = 0
 800              		@ link register save eliminated.
 801              		.loc 1 274 0
 802 0000 014B     		ldr	r3, .L59
 803 0002 0122     		movs	r2, #1
 804 0004 1A70     		strb	r2, [r3]
 805              		.loc 1 275 0
 806 0006 7047     		bx	lr
 807              	.L60:
 808              		.align	2
 809              	.L59:
 810 0008 00000000 		.word	.LANCHOR16
 811              		.cfi_endproc
 812              	.LFE261:
 813              		.size	mc_interface_lock, .-mc_interface_lock
 814              		.section	.text.mc_interface_unlock,"ax",%progbits
 815              		.align	1
 816              		.p2align 4,,15
 817              		.global	mc_interface_unlock
 818              		.syntax unified
 819              		.thumb
 820              		.thumb_func
 821              		.fpu fpv4-sp-d16
 822              		.type	mc_interface_unlock, %function
 823              	mc_interface_unlock:
 824              	.LFB262:
 825              		.loc 1 280 0
 826              		.cfi_startproc
 827              		@ args = 0, pretend = 0, frame = 0
 828              		@ frame_needed = 0, uses_anonymous_args = 0
 829              		@ link register save eliminated.
 830              		.loc 1 281 0
 831 0000 014B     		ldr	r3, .L62
 832 0002 0022     		movs	r2, #0
 833 0004 1A70     		strb	r2, [r3]
 834              		.loc 1 282 0
 835 0006 7047     		bx	lr
 836              	.L63:
 837              		.align	2
 838              	.L62:
 839 0008 00000000 		.word	.LANCHOR16
 840              		.cfi_endproc
 841              	.LFE262:
 842              		.size	mc_interface_unlock, .-mc_interface_unlock
 843              		.section	.text.mc_interface_lock_override_once,"ax",%progbits
 844              		.align	1
 845              		.p2align 4,,15
 846              		.global	mc_interface_lock_override_once
 847              		.syntax unified
 848              		.thumb
 849              		.thumb_func
 850              		.fpu fpv4-sp-d16
 851              		.type	mc_interface_lock_override_once, %function
 852              	mc_interface_lock_override_once:
 853              	.LFB263:
 854              		.loc 1 287 0
 855              		.cfi_startproc
ARM GAS  /tmp/ccETYwEL.s 			page 16


 856              		@ args = 0, pretend = 0, frame = 0
 857              		@ frame_needed = 0, uses_anonymous_args = 0
 858              		@ link register save eliminated.
 859              		.loc 1 288 0
 860 0000 014B     		ldr	r3, .L65
 861 0002 0122     		movs	r2, #1
 862 0004 1A70     		strb	r2, [r3]
 863              		.loc 1 289 0
 864 0006 7047     		bx	lr
 865              	.L66:
 866              		.align	2
 867              	.L65:
 868 0008 00000000 		.word	.LANCHOR17
 869              		.cfi_endproc
 870              	.LFE263:
 871              		.size	mc_interface_lock_override_once, .-mc_interface_lock_override_once
 872              		.section	.text.mc_interface_get_fault,"ax",%progbits
 873              		.align	1
 874              		.p2align 4,,15
 875              		.global	mc_interface_get_fault
 876              		.syntax unified
 877              		.thumb
 878              		.thumb_func
 879              		.fpu fpv4-sp-d16
 880              		.type	mc_interface_get_fault, %function
 881              	mc_interface_get_fault:
 882              	.LFB264:
 883              		.loc 1 291 0
 884              		.cfi_startproc
 885              		@ args = 0, pretend = 0, frame = 0
 886              		@ frame_needed = 0, uses_anonymous_args = 0
 887              		@ link register save eliminated.
 888              		.loc 1 292 0
 889 0000 014B     		ldr	r3, .L68
 890              		.loc 1 293 0
 891 0002 1878     		ldrb	r0, [r3]	@ zero_extendqisi2
 892 0004 7047     		bx	lr
 893              	.L69:
 894 0006 00BF     		.align	2
 895              	.L68:
 896 0008 00000000 		.word	.LANCHOR13
 897              		.cfi_endproc
 898              	.LFE264:
 899              		.size	mc_interface_get_fault, .-mc_interface_get_fault
 900              		.section	.text.mc_interface_fault_to_string,"ax",%progbits
 901              		.align	1
 902              		.p2align 4,,15
 903              		.global	mc_interface_fault_to_string
 904              		.syntax unified
 905              		.thumb
 906              		.thumb_func
 907              		.fpu fpv4-sp-d16
 908              		.type	mc_interface_fault_to_string, %function
 909              	mc_interface_fault_to_string:
 910              	.LFB265:
 911              		.loc 1 295 0
 912              		.cfi_startproc
ARM GAS  /tmp/ccETYwEL.s 			page 17


 913              		@ args = 0, pretend = 0, frame = 0
 914              		@ frame_needed = 0, uses_anonymous_args = 0
 915              		@ link register save eliminated.
 916              	.LVL42:
 917 0000 0628     		cmp	r0, #6
 918 0002 9ABF     		itte	ls
 919 0004 024B     		ldrls	r3, .L73
 920 0006 53F82000 		ldrls	r0, [r3, r0, lsl #2]
 921              	.LVL43:
 922              		.loc 1 295 0
 923 000a 0248     		ldrhi	r0, .L73+4
 924              		.loc 1 306 0
 925 000c 7047     		bx	lr
 926              	.L74:
 927 000e 00BF     		.align	2
 928              	.L73:
 929 0010 00000000 		.word	.LANCHOR40
 930 0014 00000000 		.word	.LC1
 931              		.cfi_endproc
 932              	.LFE265:
 933              		.size	mc_interface_fault_to_string, .-mc_interface_fault_to_string
 934              		.section	.text.mc_interface_get_state,"ax",%progbits
 935              		.align	1
 936              		.p2align 4,,15
 937              		.global	mc_interface_get_state
 938              		.syntax unified
 939              		.thumb
 940              		.thumb_func
 941              		.fpu fpv4-sp-d16
 942              		.type	mc_interface_get_state, %function
 943              	mc_interface_get_state:
 944              	.LFB266:
 945              		.loc 1 308 0
 946              		.cfi_startproc
 947              		@ args = 0, pretend = 0, frame = 0
 948              		@ frame_needed = 0, uses_anonymous_args = 0
 949              		@ link register save eliminated.
 950              	.LVL44:
 951              		.loc 1 310 0
 952 0000 064B     		ldr	r3, .L81
 953 0002 9B78     		ldrb	r3, [r3, #2]	@ zero_extendqisi2
 954 0004 DBB2     		uxtb	r3, r3
 955 0006 012B     		cmp	r3, #1
 956 0008 05D9     		bls	.L77
 957 000a 022B     		cmp	r3, #2
 958 000c 01D1     		bne	.L80
 959              		.loc 1 317 0
 960 000e FFF7FEBF 		b	mcpwm_foc_get_state
 961              	.LVL45:
 962              	.L80:
 963              		.loc 1 325 0
 964 0012 0020     		movs	r0, #0
 965 0014 7047     		bx	lr
 966              	.L77:
 967              		.loc 1 313 0
 968 0016 FFF7FEBF 		b	mcpwm_get_state
 969              	.LVL46:
ARM GAS  /tmp/ccETYwEL.s 			page 18


 970              	.L82:
 971 001a 00BF     		.align	2
 972              	.L81:
 973 001c 00000000 		.word	.LANCHOR12
 974              		.cfi_endproc
 975              	.LFE266:
 976              		.size	mc_interface_get_state, .-mc_interface_get_state
 977              		.section	.text.mc_interface_get_duty_cycle_set,"ax",%progbits
 978              		.align	1
 979              		.p2align 4,,15
 980              		.global	mc_interface_get_duty_cycle_set
 981              		.syntax unified
 982              		.thumb
 983              		.thumb_func
 984              		.fpu fpv4-sp-d16
 985              		.type	mc_interface_get_duty_cycle_set, %function
 986              	mc_interface_get_duty_cycle_set:
 987              	.LFB279:
 988              		.loc 1 527 0
 989              		.cfi_startproc
 990              		@ args = 0, pretend = 0, frame = 0
 991              		@ frame_needed = 0, uses_anonymous_args = 0
 992              	.LVL47:
 993 0000 10B5     		push	{r4, lr}
 994              		.cfi_def_cfa_offset 8
 995              		.cfi_offset 4, -8
 996              		.cfi_offset 14, -4
 997              		.loc 1 530 0
 998 0002 0B4C     		ldr	r4, .L95
 999 0004 A378     		ldrb	r3, [r4, #2]	@ zero_extendqisi2
 1000 0006 DBB2     		uxtb	r3, r3
 1001 0008 012B     		cmp	r3, #1
 1002 000a 0DD9     		bls	.L85
 1003 000c 022B     		cmp	r3, #2
 1004 000e 08D0     		beq	.L86
 1005              		.loc 1 528 0
 1006 0010 9FED080A 		vldr.32	s0, .L95+4
 1007              	.LVL48:
 1008              	.L84:
 1009              		.loc 1 544 0
 1010 0014 94F86931 		ldrb	r3, [r4, #361]	@ zero_extendqisi2
 1011 0018 03B9     		cbnz	r3, .L94
 1012              		.loc 1 545 0
 1013 001a 10BD     		pop	{r4, pc}
 1014              	.L94:
 1015 001c B1EE400A 		vneg.f32	s0, s0
 1016              	.LVL49:
 1017 0020 10BD     		pop	{r4, pc}
 1018              	.LVL50:
 1019              	.L86:
 1020              		.loc 1 537 0
 1021 0022 FFF7FEFF 		bl	mcpwm_foc_get_duty_cycle_set
 1022              	.LVL51:
 1023              		.loc 1 538 0
 1024 0026 F5E7     		b	.L84
 1025              	.LVL52:
 1026              	.L85:
ARM GAS  /tmp/ccETYwEL.s 			page 19


 1027              		.loc 1 533 0
 1028 0028 FFF7FEFF 		bl	mcpwm_get_duty_cycle_set
 1029              	.LVL53:
 1030              		.loc 1 534 0
 1031 002c F2E7     		b	.L84
 1032              	.L96:
 1033 002e 00BF     		.align	2
 1034              	.L95:
 1035 0030 00000000 		.word	.LANCHOR12
 1036 0034 00000000 		.word	0
 1037              		.cfi_endproc
 1038              	.LFE279:
 1039              		.size	mc_interface_get_duty_cycle_set, .-mc_interface_get_duty_cycle_set
 1040              		.section	.text.mc_interface_get_duty_cycle_now,"ax",%progbits
 1041              		.align	1
 1042              		.p2align 4,,15
 1043              		.global	mc_interface_get_duty_cycle_now
 1044              		.syntax unified
 1045              		.thumb
 1046              		.thumb_func
 1047              		.fpu fpv4-sp-d16
 1048              		.type	mc_interface_get_duty_cycle_now, %function
 1049              	mc_interface_get_duty_cycle_now:
 1050              	.LFB280:
 1051              		.loc 1 547 0
 1052              		.cfi_startproc
 1053              		@ args = 0, pretend = 0, frame = 0
 1054              		@ frame_needed = 0, uses_anonymous_args = 0
 1055              	.LVL54:
 1056 0000 10B5     		push	{r4, lr}
 1057              		.cfi_def_cfa_offset 8
 1058              		.cfi_offset 4, -8
 1059              		.cfi_offset 14, -4
 1060              		.loc 1 550 0
 1061 0002 0B4C     		ldr	r4, .L109
 1062 0004 A378     		ldrb	r3, [r4, #2]	@ zero_extendqisi2
 1063 0006 DBB2     		uxtb	r3, r3
 1064 0008 012B     		cmp	r3, #1
 1065 000a 0DD9     		bls	.L99
 1066 000c 022B     		cmp	r3, #2
 1067 000e 08D0     		beq	.L100
 1068              		.loc 1 548 0
 1069 0010 9FED080A 		vldr.32	s0, .L109+4
 1070              	.LVL55:
 1071              	.L98:
 1072              		.loc 1 564 0
 1073 0014 94F86931 		ldrb	r3, [r4, #361]	@ zero_extendqisi2
 1074 0018 03B9     		cbnz	r3, .L108
 1075              		.loc 1 565 0
 1076 001a 10BD     		pop	{r4, pc}
 1077              	.L108:
 1078 001c B1EE400A 		vneg.f32	s0, s0
 1079              	.LVL56:
 1080 0020 10BD     		pop	{r4, pc}
 1081              	.LVL57:
 1082              	.L100:
 1083              		.loc 1 557 0
ARM GAS  /tmp/ccETYwEL.s 			page 20


 1084 0022 FFF7FEFF 		bl	mcpwm_foc_get_duty_cycle_now
 1085              	.LVL58:
 1086              		.loc 1 558 0
 1087 0026 F5E7     		b	.L98
 1088              	.LVL59:
 1089              	.L99:
 1090              		.loc 1 553 0
 1091 0028 FFF7FEFF 		bl	mcpwm_get_duty_cycle_now
 1092              	.LVL60:
 1093              		.loc 1 554 0
 1094 002c F2E7     		b	.L98
 1095              	.L110:
 1096 002e 00BF     		.align	2
 1097              	.L109:
 1098 0030 00000000 		.word	.LANCHOR12
 1099 0034 00000000 		.word	0
 1100              		.cfi_endproc
 1101              	.LFE280:
 1102              		.size	mc_interface_get_duty_cycle_now, .-mc_interface_get_duty_cycle_now
 1103              		.section	.text.mc_interface_get_sampling_frequency_now,"ax",%progbits
 1104              		.align	1
 1105              		.p2align 4,,15
 1106              		.global	mc_interface_get_sampling_frequency_now
 1107              		.syntax unified
 1108              		.thumb
 1109              		.thumb_func
 1110              		.fpu fpv4-sp-d16
 1111              		.type	mc_interface_get_sampling_frequency_now, %function
 1112              	mc_interface_get_sampling_frequency_now:
 1113              	.LFB281:
 1114              		.loc 1 567 0
 1115              		.cfi_startproc
 1116              		@ args = 0, pretend = 0, frame = 0
 1117              		@ frame_needed = 0, uses_anonymous_args = 0
 1118              		@ link register save eliminated.
 1119              	.LVL61:
 1120              		.loc 1 570 0
 1121 0000 064B     		ldr	r3, .L117
 1122 0002 9B78     		ldrb	r3, [r3, #2]	@ zero_extendqisi2
 1123 0004 DBB2     		uxtb	r3, r3
 1124 0006 012B     		cmp	r3, #1
 1125 0008 06D9     		bls	.L113
 1126 000a 022B     		cmp	r3, #2
 1127 000c 01D1     		bne	.L116
 1128              		.loc 1 577 0
 1129 000e FFF7FEBF 		b	mcpwm_foc_get_sampling_frequency_now
 1130              	.LVL62:
 1131              	.L116:
 1132              		.loc 1 585 0
 1133 0012 9FED030A 		vldr.32	s0, .L117+4
 1134 0016 7047     		bx	lr
 1135              	.L113:
 1136              		.loc 1 573 0
 1137 0018 FFF7FEBF 		b	mcpwm_get_switching_frequency_now
 1138              	.LVL63:
 1139              	.L118:
 1140              		.align	2
ARM GAS  /tmp/ccETYwEL.s 			page 21


 1141              	.L117:
 1142 001c 00000000 		.word	.LANCHOR12
 1143 0020 00000000 		.word	0
 1144              		.cfi_endproc
 1145              	.LFE281:
 1146              		.size	mc_interface_get_sampling_frequency_now, .-mc_interface_get_sampling_frequency_now
 1147              		.section	.text.mc_interface_get_rpm,"ax",%progbits
 1148              		.align	1
 1149              		.p2align 4,,15
 1150              		.global	mc_interface_get_rpm
 1151              		.syntax unified
 1152              		.thumb
 1153              		.thumb_func
 1154              		.fpu fpv4-sp-d16
 1155              		.type	mc_interface_get_rpm, %function
 1156              	mc_interface_get_rpm:
 1157              	.LFB282:
 1158              		.loc 1 587 0
 1159              		.cfi_startproc
 1160              		@ args = 0, pretend = 0, frame = 0
 1161              		@ frame_needed = 0, uses_anonymous_args = 0
 1162              	.LVL64:
 1163 0000 10B5     		push	{r4, lr}
 1164              		.cfi_def_cfa_offset 8
 1165              		.cfi_offset 4, -8
 1166              		.cfi_offset 14, -4
 1167              		.loc 1 590 0
 1168 0002 0B4C     		ldr	r4, .L131
 1169 0004 A378     		ldrb	r3, [r4, #2]	@ zero_extendqisi2
 1170 0006 DBB2     		uxtb	r3, r3
 1171 0008 012B     		cmp	r3, #1
 1172 000a 0DD9     		bls	.L121
 1173 000c 022B     		cmp	r3, #2
 1174 000e 08D0     		beq	.L122
 1175              		.loc 1 588 0
 1176 0010 9FED080A 		vldr.32	s0, .L131+4
 1177              	.LVL65:
 1178              	.L120:
 1179              		.loc 1 604 0
 1180 0014 94F86931 		ldrb	r3, [r4, #361]	@ zero_extendqisi2
 1181 0018 03B9     		cbnz	r3, .L130
 1182              		.loc 1 605 0
 1183 001a 10BD     		pop	{r4, pc}
 1184              	.L130:
 1185 001c B1EE400A 		vneg.f32	s0, s0
 1186              	.LVL66:
 1187 0020 10BD     		pop	{r4, pc}
 1188              	.LVL67:
 1189              	.L122:
 1190              		.loc 1 597 0
 1191 0022 FFF7FEFF 		bl	mcpwm_foc_get_rpm
 1192              	.LVL68:
 1193              		.loc 1 598 0
 1194 0026 F5E7     		b	.L120
 1195              	.LVL69:
 1196              	.L121:
 1197              		.loc 1 593 0
ARM GAS  /tmp/ccETYwEL.s 			page 22


 1198 0028 FFF7FEFF 		bl	mcpwm_get_rpm
 1199              	.LVL70:
 1200              		.loc 1 594 0
 1201 002c F2E7     		b	.L120
 1202              	.L132:
 1203 002e 00BF     		.align	2
 1204              	.L131:
 1205 0030 00000000 		.word	.LANCHOR12
 1206 0034 00000000 		.word	0
 1207              		.cfi_endproc
 1208              	.LFE282:
 1209              		.size	mc_interface_get_rpm, .-mc_interface_get_rpm
 1210              		.section	.text.mc_interface_get_amp_hours,"ax",%progbits
 1211              		.align	1
 1212              		.p2align 4,,15
 1213              		.global	mc_interface_get_amp_hours
 1214              		.syntax unified
 1215              		.thumb
 1216              		.thumb_func
 1217              		.fpu fpv4-sp-d16
 1218              		.type	mc_interface_get_amp_hours, %function
 1219              	mc_interface_get_amp_hours:
 1220              	.LFB283:
 1221              		.loc 1 616 0
 1222              		.cfi_startproc
 1223              		@ args = 0, pretend = 0, frame = 0
 1224              		@ frame_needed = 0, uses_anonymous_args = 0
 1225              		@ link register save eliminated.
 1226              	.LVL71:
 1227              		.loc 1 617 0
 1228 0000 054B     		ldr	r3, .L138
 1229 0002 DFED067A 		vldr.32	s15, .L138+4
 1230 0006 93ED007A 		vldr.32	s14, [r3]
 1231 000a 87EE270A 		vdiv.f32	s0, s14, s15
 1232              	.LVL72:
 1233              		.loc 1 619 0
 1234 000e 08B1     		cbz	r0, .L133
 1235              		.loc 1 620 0
 1236 0010 0022     		movs	r2, #0
 1237 0012 1A60     		str	r2, [r3]	@ float
 1238              	.L133:
 1239              		.loc 1 624 0
 1240 0014 7047     		bx	lr
 1241              	.L139:
 1242 0016 00BF     		.align	2
 1243              	.L138:
 1244 0018 00000000 		.word	.LANCHOR26
 1245 001c 00006145 		.word	1163984896
 1246              		.cfi_endproc
 1247              	.LFE283:
 1248              		.size	mc_interface_get_amp_hours, .-mc_interface_get_amp_hours
 1249              		.section	.text.mc_interface_get_amp_hours_charged,"ax",%progbits
 1250              		.align	1
 1251              		.p2align 4,,15
 1252              		.global	mc_interface_get_amp_hours_charged
 1253              		.syntax unified
 1254              		.thumb
ARM GAS  /tmp/ccETYwEL.s 			page 23


 1255              		.thumb_func
 1256              		.fpu fpv4-sp-d16
 1257              		.type	mc_interface_get_amp_hours_charged, %function
 1258              	mc_interface_get_amp_hours_charged:
 1259              	.LFB284:
 1260              		.loc 1 635 0
 1261              		.cfi_startproc
 1262              		@ args = 0, pretend = 0, frame = 0
 1263              		@ frame_needed = 0, uses_anonymous_args = 0
 1264              		@ link register save eliminated.
 1265              	.LVL73:
 1266              		.loc 1 636 0
 1267 0000 054B     		ldr	r3, .L145
 1268 0002 DFED067A 		vldr.32	s15, .L145+4
 1269 0006 93ED007A 		vldr.32	s14, [r3]
 1270 000a 87EE270A 		vdiv.f32	s0, s14, s15
 1271              	.LVL74:
 1272              		.loc 1 638 0
 1273 000e 08B1     		cbz	r0, .L140
 1274              		.loc 1 639 0
 1275 0010 0022     		movs	r2, #0
 1276 0012 1A60     		str	r2, [r3]	@ float
 1277              	.L140:
 1278              		.loc 1 643 0
 1279 0014 7047     		bx	lr
 1280              	.L146:
 1281 0016 00BF     		.align	2
 1282              	.L145:
 1283 0018 00000000 		.word	.LANCHOR27
 1284 001c 00006145 		.word	1163984896
 1285              		.cfi_endproc
 1286              	.LFE284:
 1287              		.size	mc_interface_get_amp_hours_charged, .-mc_interface_get_amp_hours_charged
 1288              		.section	.text.mc_interface_get_watt_hours,"ax",%progbits
 1289              		.align	1
 1290              		.p2align 4,,15
 1291              		.global	mc_interface_get_watt_hours
 1292              		.syntax unified
 1293              		.thumb
 1294              		.thumb_func
 1295              		.fpu fpv4-sp-d16
 1296              		.type	mc_interface_get_watt_hours, %function
 1297              	mc_interface_get_watt_hours:
 1298              	.LFB285:
 1299              		.loc 1 654 0
 1300              		.cfi_startproc
 1301              		@ args = 0, pretend = 0, frame = 0
 1302              		@ frame_needed = 0, uses_anonymous_args = 0
 1303              		@ link register save eliminated.
 1304              	.LVL75:
 1305              		.loc 1 655 0
 1306 0000 054B     		ldr	r3, .L152
 1307 0002 DFED067A 		vldr.32	s15, .L152+4
 1308 0006 93ED007A 		vldr.32	s14, [r3]
 1309 000a 87EE270A 		vdiv.f32	s0, s14, s15
 1310              	.LVL76:
 1311              		.loc 1 657 0
ARM GAS  /tmp/ccETYwEL.s 			page 24


 1312 000e 08B1     		cbz	r0, .L147
 1313              		.loc 1 658 0
 1314 0010 0022     		movs	r2, #0
 1315 0012 1A60     		str	r2, [r3]	@ float
 1316              	.L147:
 1317              		.loc 1 662 0
 1318 0014 7047     		bx	lr
 1319              	.L153:
 1320 0016 00BF     		.align	2
 1321              	.L152:
 1322 0018 00000000 		.word	.LANCHOR28
 1323 001c 00006145 		.word	1163984896
 1324              		.cfi_endproc
 1325              	.LFE285:
 1326              		.size	mc_interface_get_watt_hours, .-mc_interface_get_watt_hours
 1327              		.section	.text.mc_interface_get_watt_hours_charged,"ax",%progbits
 1328              		.align	1
 1329              		.p2align 4,,15
 1330              		.global	mc_interface_get_watt_hours_charged
 1331              		.syntax unified
 1332              		.thumb
 1333              		.thumb_func
 1334              		.fpu fpv4-sp-d16
 1335              		.type	mc_interface_get_watt_hours_charged, %function
 1336              	mc_interface_get_watt_hours_charged:
 1337              	.LFB286:
 1338              		.loc 1 673 0
 1339              		.cfi_startproc
 1340              		@ args = 0, pretend = 0, frame = 0
 1341              		@ frame_needed = 0, uses_anonymous_args = 0
 1342              		@ link register save eliminated.
 1343              	.LVL77:
 1344              		.loc 1 674 0
 1345 0000 054B     		ldr	r3, .L159
 1346 0002 DFED067A 		vldr.32	s15, .L159+4
 1347 0006 93ED007A 		vldr.32	s14, [r3]
 1348 000a 87EE270A 		vdiv.f32	s0, s14, s15
 1349              	.LVL78:
 1350              		.loc 1 676 0
 1351 000e 08B1     		cbz	r0, .L154
 1352              		.loc 1 677 0
 1353 0010 0022     		movs	r2, #0
 1354 0012 1A60     		str	r2, [r3]	@ float
 1355              	.L154:
 1356              		.loc 1 681 0
 1357 0014 7047     		bx	lr
 1358              	.L160:
 1359 0016 00BF     		.align	2
 1360              	.L159:
 1361 0018 00000000 		.word	.LANCHOR29
 1362 001c 00006145 		.word	1163984896
 1363              		.cfi_endproc
 1364              	.LFE286:
 1365              		.size	mc_interface_get_watt_hours_charged, .-mc_interface_get_watt_hours_charged
 1366              		.section	.text.mc_interface_get_tot_current,"ax",%progbits
 1367              		.align	1
 1368              		.p2align 4,,15
ARM GAS  /tmp/ccETYwEL.s 			page 25


 1369              		.global	mc_interface_get_tot_current
 1370              		.syntax unified
 1371              		.thumb
 1372              		.thumb_func
 1373              		.fpu fpv4-sp-d16
 1374              		.type	mc_interface_get_tot_current, %function
 1375              	mc_interface_get_tot_current:
 1376              	.LFB287:
 1377              		.loc 1 683 0
 1378              		.cfi_startproc
 1379              		@ args = 0, pretend = 0, frame = 0
 1380              		@ frame_needed = 0, uses_anonymous_args = 0
 1381              		@ link register save eliminated.
 1382              	.LVL79:
 1383              		.loc 1 686 0
 1384 0000 064B     		ldr	r3, .L167
 1385 0002 9B78     		ldrb	r3, [r3, #2]	@ zero_extendqisi2
 1386 0004 DBB2     		uxtb	r3, r3
 1387 0006 012B     		cmp	r3, #1
 1388 0008 06D9     		bls	.L163
 1389 000a 022B     		cmp	r3, #2
 1390 000c 01D1     		bne	.L166
 1391              		.loc 1 693 0
 1392 000e FFF7FEBF 		b	mcpwm_foc_get_tot_current
 1393              	.LVL80:
 1394              	.L166:
 1395              		.loc 1 701 0
 1396 0012 9FED030A 		vldr.32	s0, .L167+4
 1397 0016 7047     		bx	lr
 1398              	.L163:
 1399              		.loc 1 689 0
 1400 0018 FFF7FEBF 		b	mcpwm_get_tot_current
 1401              	.LVL81:
 1402              	.L168:
 1403              		.align	2
 1404              	.L167:
 1405 001c 00000000 		.word	.LANCHOR12
 1406 0020 00000000 		.word	0
 1407              		.cfi_endproc
 1408              	.LFE287:
 1409              		.size	mc_interface_get_tot_current, .-mc_interface_get_tot_current
 1410              		.section	.text.mc_interface_get_tot_current_filtered,"ax",%progbits
 1411              		.align	1
 1412              		.p2align 4,,15
 1413              		.global	mc_interface_get_tot_current_filtered
 1414              		.syntax unified
 1415              		.thumb
 1416              		.thumb_func
 1417              		.fpu fpv4-sp-d16
 1418              		.type	mc_interface_get_tot_current_filtered, %function
 1419              	mc_interface_get_tot_current_filtered:
 1420              	.LFB288:
 1421              		.loc 1 703 0
 1422              		.cfi_startproc
 1423              		@ args = 0, pretend = 0, frame = 0
 1424              		@ frame_needed = 0, uses_anonymous_args = 0
 1425              		@ link register save eliminated.
ARM GAS  /tmp/ccETYwEL.s 			page 26


 1426              	.LVL82:
 1427              		.loc 1 706 0
 1428 0000 064B     		ldr	r3, .L175
 1429 0002 9B78     		ldrb	r3, [r3, #2]	@ zero_extendqisi2
 1430 0004 DBB2     		uxtb	r3, r3
 1431 0006 012B     		cmp	r3, #1
 1432 0008 06D9     		bls	.L171
 1433 000a 022B     		cmp	r3, #2
 1434 000c 01D1     		bne	.L174
 1435              		.loc 1 713 0
 1436 000e FFF7FEBF 		b	mcpwm_foc_get_tot_current_filtered
 1437              	.LVL83:
 1438              	.L174:
 1439              		.loc 1 721 0
 1440 0012 9FED030A 		vldr.32	s0, .L175+4
 1441 0016 7047     		bx	lr
 1442              	.L171:
 1443              		.loc 1 709 0
 1444 0018 FFF7FEBF 		b	mcpwm_get_tot_current_filtered
 1445              	.LVL84:
 1446              	.L176:
 1447              		.align	2
 1448              	.L175:
 1449 001c 00000000 		.word	.LANCHOR12
 1450 0020 00000000 		.word	0
 1451              		.cfi_endproc
 1452              	.LFE288:
 1453              		.size	mc_interface_get_tot_current_filtered, .-mc_interface_get_tot_current_filtered
 1454              		.section	.text.mc_interface_get_tot_current_directional,"ax",%progbits
 1455              		.align	1
 1456              		.p2align 4,,15
 1457              		.global	mc_interface_get_tot_current_directional
 1458              		.syntax unified
 1459              		.thumb
 1460              		.thumb_func
 1461              		.fpu fpv4-sp-d16
 1462              		.type	mc_interface_get_tot_current_directional, %function
 1463              	mc_interface_get_tot_current_directional:
 1464              	.LFB289:
 1465              		.loc 1 723 0
 1466              		.cfi_startproc
 1467              		@ args = 0, pretend = 0, frame = 0
 1468              		@ frame_needed = 0, uses_anonymous_args = 0
 1469              	.LVL85:
 1470 0000 10B5     		push	{r4, lr}
 1471              		.cfi_def_cfa_offset 8
 1472              		.cfi_offset 4, -8
 1473              		.cfi_offset 14, -4
 1474              		.loc 1 726 0
 1475 0002 0B4C     		ldr	r4, .L189
 1476 0004 A378     		ldrb	r3, [r4, #2]	@ zero_extendqisi2
 1477 0006 DBB2     		uxtb	r3, r3
 1478 0008 012B     		cmp	r3, #1
 1479 000a 0DD9     		bls	.L179
 1480 000c 022B     		cmp	r3, #2
 1481 000e 08D0     		beq	.L180
 1482              		.loc 1 724 0
ARM GAS  /tmp/ccETYwEL.s 			page 27


 1483 0010 9FED080A 		vldr.32	s0, .L189+4
 1484              	.LVL86:
 1485              	.L178:
 1486              		.loc 1 740 0
 1487 0014 94F86931 		ldrb	r3, [r4, #361]	@ zero_extendqisi2
 1488 0018 03B9     		cbnz	r3, .L188
 1489              		.loc 1 741 0
 1490 001a 10BD     		pop	{r4, pc}
 1491              	.L188:
 1492 001c B1EE400A 		vneg.f32	s0, s0
 1493              	.LVL87:
 1494 0020 10BD     		pop	{r4, pc}
 1495              	.LVL88:
 1496              	.L180:
 1497              		.loc 1 733 0
 1498 0022 FFF7FEFF 		bl	mcpwm_foc_get_tot_current_directional
 1499              	.LVL89:
 1500              		.loc 1 734 0
 1501 0026 F5E7     		b	.L178
 1502              	.LVL90:
 1503              	.L179:
 1504              		.loc 1 729 0
 1505 0028 FFF7FEFF 		bl	mcpwm_get_tot_current_directional
 1506              	.LVL91:
 1507              		.loc 1 730 0
 1508 002c F2E7     		b	.L178
 1509              	.L190:
 1510 002e 00BF     		.align	2
 1511              	.L189:
 1512 0030 00000000 		.word	.LANCHOR12
 1513 0034 00000000 		.word	0
 1514              		.cfi_endproc
 1515              	.LFE289:
 1516              		.size	mc_interface_get_tot_current_directional, .-mc_interface_get_tot_current_directional
 1517              		.section	.text.mc_interface_get_tot_current_directional_filtered,"ax",%progbits
 1518              		.align	1
 1519              		.p2align 4,,15
 1520              		.global	mc_interface_get_tot_current_directional_filtered
 1521              		.syntax unified
 1522              		.thumb
 1523              		.thumb_func
 1524              		.fpu fpv4-sp-d16
 1525              		.type	mc_interface_get_tot_current_directional_filtered, %function
 1526              	mc_interface_get_tot_current_directional_filtered:
 1527              	.LFB290:
 1528              		.loc 1 743 0
 1529              		.cfi_startproc
 1530              		@ args = 0, pretend = 0, frame = 0
 1531              		@ frame_needed = 0, uses_anonymous_args = 0
 1532              	.LVL92:
 1533 0000 10B5     		push	{r4, lr}
 1534              		.cfi_def_cfa_offset 8
 1535              		.cfi_offset 4, -8
 1536              		.cfi_offset 14, -4
 1537              		.loc 1 746 0
 1538 0002 0B4C     		ldr	r4, .L203
 1539 0004 A378     		ldrb	r3, [r4, #2]	@ zero_extendqisi2
ARM GAS  /tmp/ccETYwEL.s 			page 28


 1540 0006 DBB2     		uxtb	r3, r3
 1541 0008 012B     		cmp	r3, #1
 1542 000a 0DD9     		bls	.L193
 1543 000c 022B     		cmp	r3, #2
 1544 000e 08D0     		beq	.L194
 1545              		.loc 1 744 0
 1546 0010 9FED080A 		vldr.32	s0, .L203+4
 1547              	.LVL93:
 1548              	.L192:
 1549              		.loc 1 760 0
 1550 0014 94F86931 		ldrb	r3, [r4, #361]	@ zero_extendqisi2
 1551 0018 03B9     		cbnz	r3, .L202
 1552              		.loc 1 761 0
 1553 001a 10BD     		pop	{r4, pc}
 1554              	.L202:
 1555 001c B1EE400A 		vneg.f32	s0, s0
 1556              	.LVL94:
 1557 0020 10BD     		pop	{r4, pc}
 1558              	.LVL95:
 1559              	.L194:
 1560              		.loc 1 753 0
 1561 0022 FFF7FEFF 		bl	mcpwm_foc_get_tot_current_directional_filtered
 1562              	.LVL96:
 1563              		.loc 1 754 0
 1564 0026 F5E7     		b	.L192
 1565              	.LVL97:
 1566              	.L193:
 1567              		.loc 1 749 0
 1568 0028 FFF7FEFF 		bl	mcpwm_get_tot_current_directional_filtered
 1569              	.LVL98:
 1570              		.loc 1 750 0
 1571 002c F2E7     		b	.L192
 1572              	.L204:
 1573 002e 00BF     		.align	2
 1574              	.L203:
 1575 0030 00000000 		.word	.LANCHOR12
 1576 0034 00000000 		.word	0
 1577              		.cfi_endproc
 1578              	.LFE290:
 1579              		.size	mc_interface_get_tot_current_directional_filtered, .-mc_interface_get_tot_current_directiona
 1580              		.section	.text.mc_interface_get_tot_current_in,"ax",%progbits
 1581              		.align	1
 1582              		.p2align 4,,15
 1583              		.global	mc_interface_get_tot_current_in
 1584              		.syntax unified
 1585              		.thumb
 1586              		.thumb_func
 1587              		.fpu fpv4-sp-d16
 1588              		.type	mc_interface_get_tot_current_in, %function
 1589              	mc_interface_get_tot_current_in:
 1590              	.LFB291:
 1591              		.loc 1 763 0
 1592              		.cfi_startproc
 1593              		@ args = 0, pretend = 0, frame = 0
 1594              		@ frame_needed = 0, uses_anonymous_args = 0
 1595              		@ link register save eliminated.
 1596              	.LVL99:
ARM GAS  /tmp/ccETYwEL.s 			page 29


 1597              		.loc 1 766 0
 1598 0000 064B     		ldr	r3, .L211
 1599 0002 9B78     		ldrb	r3, [r3, #2]	@ zero_extendqisi2
 1600 0004 DBB2     		uxtb	r3, r3
 1601 0006 012B     		cmp	r3, #1
 1602 0008 06D9     		bls	.L207
 1603 000a 022B     		cmp	r3, #2
 1604 000c 01D1     		bne	.L210
 1605              		.loc 1 773 0
 1606 000e FFF7FEBF 		b	mcpwm_foc_get_tot_current_in
 1607              	.LVL100:
 1608              	.L210:
 1609              		.loc 1 781 0
 1610 0012 9FED030A 		vldr.32	s0, .L211+4
 1611 0016 7047     		bx	lr
 1612              	.L207:
 1613              		.loc 1 769 0
 1614 0018 FFF7FEBF 		b	mcpwm_get_tot_current_in
 1615              	.LVL101:
 1616              	.L212:
 1617              		.align	2
 1618              	.L211:
 1619 001c 00000000 		.word	.LANCHOR12
 1620 0020 00000000 		.word	0
 1621              		.cfi_endproc
 1622              	.LFE291:
 1623              		.size	mc_interface_get_tot_current_in, .-mc_interface_get_tot_current_in
 1624              		.section	.text.mc_interface_get_tot_current_in_filtered,"ax",%progbits
 1625              		.align	1
 1626              		.p2align 4,,15
 1627              		.global	mc_interface_get_tot_current_in_filtered
 1628              		.syntax unified
 1629              		.thumb
 1630              		.thumb_func
 1631              		.fpu fpv4-sp-d16
 1632              		.type	mc_interface_get_tot_current_in_filtered, %function
 1633              	mc_interface_get_tot_current_in_filtered:
 1634              	.LFB292:
 1635              		.loc 1 783 0
 1636              		.cfi_startproc
 1637              		@ args = 0, pretend = 0, frame = 0
 1638              		@ frame_needed = 0, uses_anonymous_args = 0
 1639              		@ link register save eliminated.
 1640              	.LVL102:
 1641              		.loc 1 786 0
 1642 0000 064B     		ldr	r3, .L219
 1643 0002 9B78     		ldrb	r3, [r3, #2]	@ zero_extendqisi2
 1644 0004 DBB2     		uxtb	r3, r3
 1645 0006 012B     		cmp	r3, #1
 1646 0008 06D9     		bls	.L215
 1647 000a 022B     		cmp	r3, #2
 1648 000c 01D1     		bne	.L218
 1649              		.loc 1 793 0
 1650 000e FFF7FEBF 		b	mcpwm_foc_get_tot_current_in_filtered
 1651              	.LVL103:
 1652              	.L218:
 1653              		.loc 1 801 0
ARM GAS  /tmp/ccETYwEL.s 			page 30


 1654 0012 9FED030A 		vldr.32	s0, .L219+4
 1655 0016 7047     		bx	lr
 1656              	.L215:
 1657              		.loc 1 789 0
 1658 0018 FFF7FEBF 		b	mcpwm_get_tot_current_in_filtered
 1659              	.LVL104:
 1660              	.L220:
 1661              		.align	2
 1662              	.L219:
 1663 001c 00000000 		.word	.LANCHOR12
 1664 0020 00000000 		.word	0
 1665              		.cfi_endproc
 1666              	.LFE292:
 1667              		.size	mc_interface_get_tot_current_in_filtered, .-mc_interface_get_tot_current_in_filtered
 1668              		.section	.text.mc_interface_get_tachometer_value,"ax",%progbits
 1669              		.align	1
 1670              		.p2align 4,,15
 1671              		.global	mc_interface_get_tachometer_value
 1672              		.syntax unified
 1673              		.thumb
 1674              		.thumb_func
 1675              		.fpu fpv4-sp-d16
 1676              		.type	mc_interface_get_tachometer_value, %function
 1677              	mc_interface_get_tachometer_value:
 1678              	.LFB293:
 1679              		.loc 1 803 0
 1680              		.cfi_startproc
 1681              		@ args = 0, pretend = 0, frame = 0
 1682              		@ frame_needed = 0, uses_anonymous_args = 0
 1683              	.LVL105:
 1684 0000 10B5     		push	{r4, lr}
 1685              		.cfi_def_cfa_offset 8
 1686              		.cfi_offset 4, -8
 1687              		.cfi_offset 14, -4
 1688              		.loc 1 806 0
 1689 0002 104C     		ldr	r4, .L232
 1690 0004 A378     		ldrb	r3, [r4, #2]	@ zero_extendqisi2
 1691 0006 DBB2     		uxtb	r3, r3
 1692 0008 012B     		cmp	r3, #1
 1693 000a 14D9     		bls	.L223
 1694 000c 022B     		cmp	r3, #2
 1695 000e 0BD0     		beq	.L224
 1696 0010 DFED0D7A 		vldr.32	s15, .L232+4
 1697              	.LVL106:
 1698              	.L222:
 1699              		.loc 1 820 0
 1700 0014 94F86931 		ldrb	r3, [r4, #361]	@ zero_extendqisi2
 1701 0018 0BB1     		cbz	r3, .L225
 1702 001a F1EE677A 		vneg.f32	s15, s15
 1703              	.L225:
 1704              		.loc 1 821 0 discriminator 4
 1705 001e FDEEE77A 		vcvt.s32.f32	s15, s15
 1706 0022 17EE900A 		vmov	r0, s15	@ int
 1707 0026 10BD     		pop	{r4, pc}
 1708              	.LVL107:
 1709              	.L224:
 1710              		.loc 1 813 0
ARM GAS  /tmp/ccETYwEL.s 			page 31


 1711 0028 FFF7FEFF 		bl	mcpwm_foc_get_tachometer_value
 1712              	.LVL108:
 1713 002c 07EE900A 		vmov	s15, r0	@ int
 1714 0030 F8EEE77A 		vcvt.f32.s32	s15, s15
 1715              		.loc 1 814 0
 1716 0034 EEE7     		b	.L222
 1717              	.LVL109:
 1718              	.L223:
 1719              		.loc 1 809 0
 1720 0036 FFF7FEFF 		bl	mcpwm_get_tachometer_value
 1721              	.LVL110:
 1722 003a 07EE900A 		vmov	s15, r0	@ int
 1723 003e F8EEE77A 		vcvt.f32.s32	s15, s15
 1724              		.loc 1 810 0
 1725 0042 E7E7     		b	.L222
 1726              	.L233:
 1727              		.align	2
 1728              	.L232:
 1729 0044 00000000 		.word	.LANCHOR12
 1730 0048 00000000 		.word	0
 1731              		.cfi_endproc
 1732              	.LFE293:
 1733              		.size	mc_interface_get_tachometer_value, .-mc_interface_get_tachometer_value
 1734              		.section	.text.mc_interface_fault_stop.part.4,"ax",%progbits
 1735              		.align	1
 1736              		.p2align 4,,15
 1737              		.syntax unified
 1738              		.thumb
 1739              		.thumb_func
 1740              		.fpu fpv4-sp-d16
 1741              		.type	mc_interface_fault_stop.part.4, %function
 1742              	mc_interface_fault_stop.part.4:
 1743              	.LFB317:
 1744              		.loc 1 1020 0
 1745              		.cfi_startproc
 1746              		@ args = 0, pretend = 0, frame = 72
 1747              		@ frame_needed = 0, uses_anonymous_args = 0
 1748              	.LVL111:
 1749 0000 F0B5     		push	{r4, r5, r6, r7, lr}
 1750              		.cfi_def_cfa_offset 20
 1751              		.cfi_offset 4, -20
 1752              		.cfi_offset 5, -16
 1753              		.cfi_offset 6, -12
 1754              		.cfi_offset 7, -8
 1755              		.cfi_offset 14, -4
 1756 0002 93B0     		sub	sp, sp, #76
 1757              		.cfi_def_cfa_offset 96
 1758              		.loc 1 1020 0
 1759 0004 0546     		mov	r5, r0
 1760              		.loc 1 1026 0
 1761 0006 FFF7FEFF 		bl	mc_interface_dccal_done
 1762              	.LVL112:
 1763 000a 3F4C     		ldr	r4, .L244
 1764 000c 08B1     		cbz	r0, .L235
 1765 000e 2678     		ldrb	r6, [r4]	@ zero_extendqisi2
 1766 0010 A6B1     		cbz	r6, .L243
 1767              	.L235:
ARM GAS  /tmp/ccETYwEL.s 			page 32


 1768              		.loc 1 1061 0
 1769 0012 3E4B     		ldr	r3, .L244+4
 1770 0014 3E4A     		ldr	r2, .L244+8
 1771 0016 D3F85811 		ldr	r1, [r3, #344]
 1772              		.loc 1 1063 0
 1773 001a 9B78     		ldrb	r3, [r3, #2]	@ zero_extendqisi2
 1774              		.loc 1 1061 0
 1775 001c 1160     		str	r1, [r2]
 1776              		.loc 1 1063 0
 1777 001e DBB2     		uxtb	r3, r3
 1778 0020 012B     		cmp	r3, #1
 1779 0022 06D9     		bls	.L237
 1780 0024 022B     		cmp	r3, #2
 1781 0026 01D1     		bne	.L236
 1782              		.loc 1 1070 0
 1783 0028 FFF7FEFF 		bl	mcpwm_foc_stop_pwm
 1784              	.LVL113:
 1785              	.L236:
 1786              		.loc 1 1077 0
 1787 002c 2570     		strb	r5, [r4]
 1788              		.loc 1 1078 0
 1789 002e 13B0     		add	sp, sp, #76
 1790              		.cfi_remember_state
 1791              		.cfi_def_cfa_offset 20
 1792              		@ sp needed
 1793 0030 F0BD     		pop	{r4, r5, r6, r7, pc}
 1794              	.L237:
 1795              		.cfi_restore_state
 1796              		.loc 1 1066 0
 1797 0032 FFF7FEFF 		bl	mcpwm_stop_pwm
 1798              	.LVL114:
 1799              		.loc 1 1077 0
 1800 0036 2570     		strb	r5, [r4]
 1801              		.loc 1 1078 0
 1802 0038 13B0     		add	sp, sp, #76
 1803              		.cfi_remember_state
 1804              		.cfi_def_cfa_offset 20
 1805              		@ sp needed
 1806 003a F0BD     		pop	{r4, r5, r6, r7, pc}
 1807              	.L243:
 1808              		.cfi_restore_state
 1809              	.LBB134:
 1810              		.loc 1 1029 0
 1811 003c FFF7FEFF 		bl	utils_sys_lock_cnt
 1812              	.LVL115:
 1813              		.loc 1 1030 0
 1814 0040 344A     		ldr	r2, .L244+12
 1815              		.loc 1 1031 0
 1816 0042 354B     		ldr	r3, .L244+16
 1817              		.loc 1 1030 0
 1818 0044 526B     		ldr	r2, [r2, #52]
 1819 0046 0192     		str	r2, [sp, #4]
 1820              		.loc 1 1031 0
 1821 0048 1A6C     		ldr	r2, [r3, #64]
 1822 004a 0292     		str	r2, [sp, #8]
 1823              		.loc 1 1032 0
 1824 004c DB6A     		ldr	r3, [r3, #44]
ARM GAS  /tmp/ccETYwEL.s 			page 33


 1825 004e 0393     		str	r3, [sp, #12]
 1826              		.loc 1 1033 0
 1827 0050 FFF7FEFF 		bl	utils_sys_unlock_cnt
 1828              	.LVL116:
 1829              		.loc 1 1036 0
 1830 0054 8DF81050 		strb	r5, [sp, #16]
 1831              		.loc 1 1037 0
 1832 0058 FFF7FEFF 		bl	mc_interface_get_tot_current
 1833              	.LVL117:
 1834              		.loc 1 1039 0
 1835 005c 2F4F     		ldr	r7, .L244+20
 1836              		.loc 1 1037 0
 1837 005e 8DED050A 		vstr.32	s0, [sp, #20]
 1838              		.loc 1 1038 0
 1839 0062 FFF7FEFF 		bl	mc_interface_get_tot_current_filtered
 1840              	.LVL118:
 1841              		.loc 1 1039 0
 1842 0066 3B8A     		ldrh	r3, [r7, #16]
 1843 0068 DFED2D6A 		vldr.32	s13, .L244+24
 1844 006c 9FED2D7A 		vldr.32	s14, .L244+28
 1845              		.loc 1 1038 0
 1846 0070 8DED060A 		vstr.32	s0, [sp, #24]
 1847              		.loc 1 1039 0
 1848 0074 07EE903A 		vmov	s15, r3	@ int
 1849 0078 F8EE677A 		vcvt.f32.u32	s15, s15
 1850 007c 67EEA67A 		vmul.f32	s15, s15, s13
 1851 0080 67EE877A 		vmul.f32	s15, s15, s14
 1852 0084 CDED077A 		vstr.32	s15, [sp, #28]
 1853              		.loc 1 1040 0
 1854 0088 FFF7FEFF 		bl	mc_interface_get_duty_cycle_now
 1855              	.LVL119:
 1856 008c 8DED080A 		vstr.32	s0, [sp, #32]
 1857              		.loc 1 1041 0
 1858 0090 FFF7FEFF 		bl	mc_interface_get_rpm
 1859              	.LVL120:
 1860              		.loc 1 1042 0
 1861 0094 3046     		mov	r0, r6
 1862              		.loc 1 1041 0
 1863 0096 8DED090A 		vstr.32	s0, [sp, #36]
 1864              		.loc 1 1042 0
 1865 009a FFF7FEFF 		bl	mc_interface_get_tachometer_value
 1866              	.LVL121:
 1867              		.loc 1 1043 0
 1868 009e 224B     		ldr	r3, .L244+32
 1869              		.loc 1 1042 0
 1870 00a0 0A90     		str	r0, [sp, #40]
 1871              		.loc 1 1043 0
 1872 00a2 1B68     		ldr	r3, [r3]
 1873              		.loc 1 1044 0
 1874 00a4 0199     		ldr	r1, [sp, #4]
 1875              		.loc 1 1045 0
 1876 00a6 029A     		ldr	r2, [sp, #8]
 1877              		.loc 1 1043 0
 1878 00a8 0B93     		str	r3, [sp, #44]
 1879              		.loc 1 1046 0
 1880 00aa 039B     		ldr	r3, [sp, #12]
 1881 00ac 0E93     		str	r3, [sp, #56]
ARM GAS  /tmp/ccETYwEL.s 			page 34


 1882              		.loc 1 1045 0
 1883 00ae CDE90C12 		strd	r1, r2, [sp, #48]
 1884              		.loc 1 1047 0
 1885 00b2 FFF7FEFF 		bl	mcpwm_get_comm_step
 1886              	.LVL122:
 1887              		.loc 1 1048 0
 1888 00b6 7B89     		ldrh	r3, [r7, #10]
 1889 00b8 DFED1C6A 		vldr.32	s13, .L244+36
 1890 00bc 9FED1C0A 		vldr.32	s0, .L244+40
 1891              		.loc 1 1047 0
 1892 00c0 0F90     		str	r0, [sp, #60]
 1893              		.loc 1 1048 0
 1894 00c2 07EE103A 		vmov	s14, r3	@ int
 1895 00c6 B8EEC77A 		vcvt.f32.s32	s14, s14
 1896 00ca C6EE877A 		vdiv.f32	s15, s13, s14
 1897 00ce 77EEC07A 		vsub.f32	s15, s15, s0
 1898 00d2 87EE800A 		vdiv.f32	s0, s15, s0
 1899 00d6 FFF7FEFF 		bl	logf
 1900              	.LVL123:
 1901              		.loc 1 1058 0
 1902 00da 04A8     		add	r0, sp, #16
 1903              		.loc 1 1048 0
 1904 00dc DFED156A 		vldr.32	s13, .L244+44
 1905 00e0 DFED157A 		vldr.32	s15, .L244+48
 1906 00e4 9FED157A 		vldr.32	s14, .L244+52
 1907 00e8 80EE260A 		vdiv.f32	s0, s0, s13
 1908 00ec F7EE006A 		vmov.f32	s13, #1.0e+0
 1909 00f0 30EE270A 		vadd.f32	s0, s0, s15
 1910 00f4 C6EE807A 		vdiv.f32	s15, s13, s0
 1911 00f8 77EEC77A 		vsub.f32	s15, s15, s14
 1912 00fc CDED107A 		vstr.32	s15, [sp, #64]
 1913              		.loc 1 1058 0
 1914 0100 FFF7FEFF 		bl	terminal_add_fault_data
 1915              	.LVL124:
 1916 0104 85E7     		b	.L235
 1917              	.L245:
 1918 0106 00BF     		.align	2
 1919              	.L244:
 1920 0108 00000000 		.word	.LANCHOR13
 1921 010c 00000000 		.word	.LANCHOR12
 1922 0110 00000000 		.word	.LANCHOR14
 1923 0114 00040140 		.word	1073808384
 1924 0118 00000140 		.word	1073807360
 1925 011c 00000000 		.word	.LANCHOR41
 1926 0120 6740533A 		.word	978534503
 1927 0124 74D19541 		.word	1100337524
 1928 0128 00000000 		.word	.LANCHOR15
 1929 012c 3C361C4C 		.word	1276917308
 1930 0130 00401C46 		.word	1176256512
 1931 0134 00A05645 		.word	1163304960
 1932 0138 0FCF5B3B 		.word	995872527
 1933 013c 33938843 		.word	1133024051
 1934              	.LBE134:
 1935              		.cfi_endproc
 1936              	.LFE317:
 1937              		.size	mc_interface_fault_stop.part.4, .-mc_interface_fault_stop.part.4
 1938              		.section	.text.update_override_limits.constprop.5,"ax",%progbits
ARM GAS  /tmp/ccETYwEL.s 			page 35


 1939              		.align	1
 1940              		.p2align 4,,15
 1941              		.syntax unified
 1942              		.thumb
 1943              		.thumb_func
 1944              		.fpu fpv4-sp-d16
 1945              		.type	update_override_limits.constprop.5, %function
 1946              	update_override_limits.constprop.5:
 1947              	.LFB318:
 1948              		.loc 1 1334 0
 1949              		.cfi_startproc
 1950              		@ args = 0, pretend = 0, frame = 0
 1951              		@ frame_needed = 0, uses_anonymous_args = 0
 1952              	.LVL125:
 1953 0000 F8B5     		push	{r3, r4, r5, r6, r7, lr}
 1954              		.cfi_def_cfa_offset 24
 1955              		.cfi_offset 3, -24
 1956              		.cfi_offset 4, -20
 1957              		.cfi_offset 5, -16
 1958              		.cfi_offset 6, -12
 1959              		.cfi_offset 7, -8
 1960              		.cfi_offset 14, -4
 1961              		.loc 1 1335 0
 1962 0002 DF4F     		ldr	r7, .L335
 1963 0004 9FEDDF7A 		vldr.32	s14, .L335+4
 1964 0008 3B8A     		ldrh	r3, [r7, #16]
 1965              		.loc 1 1338 0
 1966 000a DF4E     		ldr	r6, .L335+8
 1967              		.loc 1 1335 0
 1968 000c DFEDDF7A 		vldr.32	s15, .L335+12
 1969              		.loc 1 1339 0
 1970 0010 DF4D     		ldr	r5, .L335+16
 1971 0012 E04C     		ldr	r4, .L335+20
 1972              		.loc 1 1334 0
 1973 0014 2DED0A8B 		vpush.64	{d8, d9, d10, d11, d12}
 1974              		.cfi_def_cfa_offset 64
 1975              		.cfi_offset 80, -64
 1976              		.cfi_offset 81, -60
 1977              		.cfi_offset 82, -56
 1978              		.cfi_offset 83, -52
 1979              		.cfi_offset 84, -48
 1980              		.cfi_offset 85, -44
 1981              		.cfi_offset 86, -40
 1982              		.cfi_offset 87, -36
 1983              		.cfi_offset 88, -32
 1984              		.cfi_offset 89, -28
 1985              		.loc 1 1335 0
 1986 0018 08EE103A 		vmov	s16, r3	@ int
 1987 001c B8EE488A 		vcvt.f32.u32	s16, s16
 1988              		.loc 1 1338 0
 1989 0020 DFEDDD8A 		vldr.32	s17, .L335+24
 1990 0024 DFEDDDBA 		vldr.32	s23, .L335+28
 1991 0028 9FEDDDBA 		vldr.32	s22, .L335+32
 1992 002c DFEDDDAA 		vldr.32	s21, .L335+36
 1993              		.loc 1 1335 0
 1994 0030 28EE078A 		vmul.f32	s16, s16, s14
 1995              		.loc 1 1338 0
ARM GAS  /tmp/ccETYwEL.s 			page 36


 1996 0034 B7EE00AA 		vmov.f32	s20, #1.0e+0
 1997              		.loc 1 1335 0
 1998 0038 28EE278A 		vmul.f32	s16, s16, s15
 1999              	.LVL126:
 2000              		.loc 1 1336 0
 2001 003c FFF7FEFF 		bl	mc_interface_get_rpm
 2002              	.LVL127:
 2003              		.loc 1 1338 0
 2004 0040 D6ED009A 		vldr.32	s19, [r6]
 2005 0044 7B89     		ldrh	r3, [r7, #10]
 2006 0046 9FEDD87A 		vldr.32	s14, .L335+40
 2007 004a 07EE903A 		vmov	s15, r3	@ int
 2008 004e F8EEE77A 		vcvt.f32.s32	s15, s15
 2009              		.loc 1 1336 0
 2010 0052 B0EE409A 		vmov.f32	s18, s0
 2011              	.LVL128:
 2012              		.loc 1 1338 0
 2013 0056 87EE270A 		vdiv.f32	s0, s14, s15
 2014              	.LVL129:
 2015 005a 30EE680A 		vsub.f32	s0, s0, s17
 2016 005e 80EE280A 		vdiv.f32	s0, s0, s17
 2017 0062 FFF7FEFF 		bl	logf
 2018              	.LVL130:
 2019 0066 9FEDD17A 		vldr.32	s14, .L335+44
 2020 006a D6ED007A 		vldr.32	s15, [r6]
 2021              		.loc 1 1339 0
 2022 006e DFEDD06A 		vldr.32	s13, .L335+48
 2023              		.loc 1 1338 0
 2024 0072 80EE070A 		vdiv.f32	s0, s0, s14
 2025 0076 30EE2B0A 		vadd.f32	s0, s0, s23
 2026 007a 8AEE007A 		vdiv.f32	s14, s20, s0
 2027 007e 37EE4B7A 		vsub.f32	s14, s14, s22
 2028 0082 79EEC79A 		vsub.f32	s19, s19, s14
 2029 0086 E9EEEA7A 		vfms.f32	s15, s19, s21
 2030 008a C6ED007A 		vstr.32	s15, [r6]
 2031              		.loc 1 1339 0
 2032 008e D5ED009A 		vldr.32	s19, [r5]
 2033 0092 FB8A     		ldrh	r3, [r7, #22]
 2034 0094 07EE103A 		vmov	s14, r3	@ int
 2035 0098 B8EE477A 		vcvt.f32.u32	s14, s14
 2036 009c C6EE877A 		vdiv.f32	s15, s13, s14
 2037 00a0 77EECA7A 		vsub.f32	s15, s15, s20
 2038 00a4 88EEA70A 		vdiv.f32	s0, s17, s15
 2039 00a8 80EE280A 		vdiv.f32	s0, s0, s17
 2040 00ac FFF7FEFF 		bl	logf
 2041              	.LVL131:
 2042 00b0 94ED5F7A 		vldr.32	s14, [r4, #380]
 2043 00b4 D5ED007A 		vldr.32	s15, [r5]
 2044 00b8 80EE070A 		vdiv.f32	s0, s0, s14
 2045 00bc 30EE2B0A 		vadd.f32	s0, s0, s23
 2046 00c0 8AEE007A 		vdiv.f32	s14, s20, s0
 2047 00c4 37EE4B7A 		vsub.f32	s14, s14, s22
 2048 00c8 79EEC79A 		vsub.f32	s19, s19, s14
 2049 00cc E9EEEA7A 		vfms.f32	s15, s19, s21
 2050 00d0 C5ED007A 		vstr.32	s15, [r5]
 2051              		.loc 1 1342 0
 2052 00d4 94ED02AA 		vldr.32	s20, [r4, #8]
ARM GAS  /tmp/ccETYwEL.s 			page 37


 2053              	.LVL132:
 2054              		.loc 1 1343 0
 2055 00d8 D4ED018A 		vldr.32	s17, [r4, #4]
 2056              	.LVL133:
 2057              		.loc 1 1344 0
 2058 00dc 94ED107A 		vldr.32	s14, [r4, #64]
 2059 00e0 D6ED007A 		vldr.32	s15, [r6]
 2060 00e4 B4EEE77A 		vcmpe.f32	s14, s15
 2061 00e8 F1EE10FA 		vmrs	APSR_nzcv, FPSCR
 2062 00ec 16DC     		bgt	.L247
 2063              		.loc 1 1346 0
 2064 00ee 94ED117A 		vldr.32	s14, [r4, #68]
 2065 00f2 D6ED007A 		vldr.32	s15, [r6]
 2066 00f6 B4EEE77A 		vcmpe.f32	s14, s15
 2067 00fa F1EE10FA 		vmrs	APSR_nzcv, FPSCR
 2068 00fe 40F15F81 		bpl	.L318
 2069              	.LVL134:
 2070              	.LBB135:
 2071              	.LBB136:
 2072              		.loc 1 1021 0
 2073 0102 AC4B     		ldr	r3, .L335+52
 2074 0104 1B78     		ldrb	r3, [r3]	@ zero_extendqisi2
 2075 0106 052B     		cmp	r3, #5
 2076 0108 40F02C82 		bne	.L250
 2077              		.loc 1 1022 0
 2078 010c AA4B     		ldr	r3, .L335+56
 2079              	.LBE136:
 2080              	.LBE135:
 2081              		.loc 1 1348 0
 2082 010e DFEDAB8A 		vldr.32	s17, .L335+60
 2083              	.LBB140:
 2084              	.LBB137:
 2085              		.loc 1 1022 0
 2086 0112 D4F85821 		ldr	r2, [r4, #344]
 2087 0116 1A60     		str	r2, [r3]
 2088              	.LBE137:
 2089              	.LBE140:
 2090              		.loc 1 1347 0
 2091 0118 B0EE68AA 		vmov.f32	s20, s17
 2092              	.LVL135:
 2093              	.L247:
 2094              		.loc 1 1368 0
 2095 011c D4ED02AA 		vldr.32	s21, [r4, #8]
 2096              	.LVL136:
 2097              		.loc 1 1369 0
 2098 0120 D4ED019A 		vldr.32	s19, [r4, #4]
 2099              	.LVL137:
 2100              		.loc 1 1370 0
 2101 0124 94ED127A 		vldr.32	s14, [r4, #72]
 2102 0128 D5ED007A 		vldr.32	s15, [r5]
 2103 012c B4EEE77A 		vcmpe.f32	s14, s15
 2104 0130 F1EE10FA 		vmrs	APSR_nzcv, FPSCR
 2105 0134 16DC     		bgt	.L260
 2106              		.loc 1 1372 0
 2107 0136 94ED137A 		vldr.32	s14, [r4, #76]
 2108 013a D5ED007A 		vldr.32	s15, [r5]
 2109 013e B4EEE77A 		vcmpe.f32	s14, s15
ARM GAS  /tmp/ccETYwEL.s 			page 38


 2110 0142 F1EE10FA 		vmrs	APSR_nzcv, FPSCR
 2111 0146 40F18181 		bpl	.L320
 2112              	.LVL138:
 2113              	.LBB141:
 2114              	.LBB142:
 2115              		.loc 1 1021 0
 2116 014a 9A4B     		ldr	r3, .L335+52
 2117 014c 1B78     		ldrb	r3, [r3]	@ zero_extendqisi2
 2118 014e 062B     		cmp	r3, #6
 2119 0150 40F01082 		bne	.L263
 2120              		.loc 1 1022 0
 2121 0154 984B     		ldr	r3, .L335+56
 2122              	.LBE142:
 2123              	.LBE141:
 2124              		.loc 1 1374 0
 2125 0156 DFED999A 		vldr.32	s19, .L335+60
 2126              	.LBB146:
 2127              	.LBB143:
 2128              		.loc 1 1022 0
 2129 015a D4F85821 		ldr	r2, [r4, #344]
 2130 015e 1A60     		str	r2, [r3]
 2131              	.LBE143:
 2132              	.LBE146:
 2133              		.loc 1 1373 0
 2134 0160 F0EE69AA 		vmov.f32	s21, s19
 2135              	.LVL139:
 2136              	.L260:
 2137              		.loc 1 1395 0
 2138 0164 94ED140A 		vldr.32	s0, [r4, #80]
 2139 0168 DFED940A 		vldr.32	s1, .L335+60
 2140 016c D4ED101A 		vldr.32	s3, [r4, #64]
 2141 0170 B3EE092A 		vmov.f32	s4, #2.5e+1
 2142 0174 B7EE001A 		vmov.f32	s2, #1.0e+0
 2143 0178 FFF7FEFF 		bl	utils_map
 2144              	.LVL140:
 2145              		.loc 1 1396 0
 2146 017c DFED8F0A 		vldr.32	s1, .L335+60
 2147              		.loc 1 1395 0
 2148 0180 F0EE40BA 		vmov.f32	s23, s0
 2149              	.LVL141:
 2150              		.loc 1 1396 0
 2151 0184 B3EE092A 		vmov.f32	s4, #2.5e+1
 2152 0188 94ED140A 		vldr.32	s0, [r4, #80]
 2153              	.LVL142:
 2154 018c D4ED111A 		vldr.32	s3, [r4, #68]
 2155 0190 B7EE001A 		vmov.f32	s2, #1.0e+0
 2156 0194 FFF7FEFF 		bl	utils_map
 2157              	.LVL143:
 2158              		.loc 1 1397 0
 2159 0198 DFED880A 		vldr.32	s1, .L335+60
 2160 019c B3EE092A 		vmov.f32	s4, #2.5e+1
 2161 01a0 B7EE001A 		vmov.f32	s2, #1.0e+0
 2162              		.loc 1 1396 0
 2163 01a4 F0EE40CA 		vmov.f32	s25, s0
 2164              	.LVL144:
 2165              		.loc 1 1397 0
 2166 01a8 94ED140A 		vldr.32	s0, [r4, #80]
ARM GAS  /tmp/ccETYwEL.s 			page 39


 2167              	.LVL145:
 2168 01ac D4ED121A 		vldr.32	s3, [r4, #72]
 2169 01b0 FFF7FEFF 		bl	utils_map
 2170              	.LVL146:
 2171              		.loc 1 1398 0
 2172 01b4 DFED810A 		vldr.32	s1, .L335+60
 2173              		.loc 1 1397 0
 2174 01b8 B0EE40BA 		vmov.f32	s22, s0
 2175              	.LVL147:
 2176              		.loc 1 1398 0
 2177 01bc B3EE092A 		vmov.f32	s4, #2.5e+1
 2178 01c0 94ED140A 		vldr.32	s0, [r4, #80]
 2179              	.LVL148:
 2180 01c4 D4ED131A 		vldr.32	s3, [r4, #76]
 2181 01c8 B7EE001A 		vmov.f32	s2, #1.0e+0
 2182 01cc FFF7FEFF 		bl	utils_map
 2183              	.LVL149:
 2184              		.loc 1 1401 0
 2185 01d0 D6ED007A 		vldr.32	s15, [r6]
 2186 01d4 F4EEE7BA 		vcmpe.f32	s23, s15
 2187 01d8 F1EE10FA 		vmrs	APSR_nzcv, FPSCR
 2188              		.loc 1 1398 0
 2189 01dc B0EE40CA 		vmov.f32	s24, s0
 2190              	.LVL150:
 2191              		.loc 1 1401 0
 2192 01e0 40F39E80 		ble	.L322
 2193              		.loc 1 1402 0
 2194 01e4 D4ED01BA 		vldr.32	s23, [r4, #4]
 2195              	.LVL151:
 2196              	.L275:
 2197              		.loc 1 1411 0
 2198 01e8 D5ED007A 		vldr.32	s15, [r5]
 2199 01ec B4EEE7BA 		vcmpe.f32	s22, s15
 2200 01f0 F1EE10FA 		vmrs	APSR_nzcv, FPSCR
 2201 01f4 40F3A680 		ble	.L323
 2202              	.L331:
 2203              		.loc 1 1412 0
 2204 01f8 94ED01BA 		vldr.32	s22, [r4, #4]
 2205              	.LVL152:
 2206              	.L278:
 2207              		.loc 1 1422 0
 2208 01fc D4ED070A 		vldr.32	s1, [r4, #28]
 2209 0200 D4ED087A 		vldr.32	s15, [r4, #32]
 2210              		.loc 1 1423 0
 2211 0204 94ED071A 		vldr.32	s2, [r4, #28]
 2212              		.loc 1 1422 0
 2213 0208 60EEA70A 		vmul.f32	s1, s1, s15
 2214              	.LVL153:
 2215              		.loc 1 1424 0
 2216 020c B4EEE09A 		vcmpe.f32	s18, s1
 2217 0210 F1EE10FA 		vmrs	APSR_nzcv, FPSCR
 2218 0214 40F1AA80 		bpl	.L324
 2219              		.loc 1 1425 0
 2220 0218 94ED01CA 		vldr.32	s24, [r4, #4]
 2221              	.LVL154:
 2222              	.L281:
 2223              		.loc 1 1434 0
ARM GAS  /tmp/ccETYwEL.s 			page 40


 2224 021c D4ED060A 		vldr.32	s1, [r4, #24]
 2225 0220 D4ED087A 		vldr.32	s15, [r4, #32]
 2226              		.loc 1 1435 0
 2227 0224 94ED061A 		vldr.32	s2, [r4, #24]
 2228              		.loc 1 1434 0
 2229 0228 60EEA70A 		vmul.f32	s1, s1, s15
 2230              	.LVL155:
 2231              		.loc 1 1436 0
 2232 022c B4EEE09A 		vcmpe.f32	s18, s1
 2233 0230 F1EE10FA 		vmrs	APSR_nzcv, FPSCR
 2234 0234 40F39180 		ble	.L325
 2235              		.loc 1 1437 0
 2236 0238 94ED019A 		vldr.32	s18, [r4, #4]
 2237              	.LVL156:
 2238              	.L284:
 2239              		.loc 1 1444 0
 2240 023c F0EE690A 		vmov.f32	s1, s19
 2241 0240 B0EE680A 		vmov.f32	s0, s17
 2242 0244 FFF7FEFF 		bl	utils_min_abs
 2243              	.LVL157:
 2244              		.loc 1 1445 0
 2245 0248 F0EE6A0A 		vmov.f32	s1, s21
 2246              		.loc 1 1444 0
 2247 024c F0EE409A 		vmov.f32	s19, s0
 2248              	.LVL158:
 2249              		.loc 1 1445 0
 2250 0250 B0EE4A0A 		vmov.f32	s0, s20
 2251              	.LVL159:
 2252 0254 FFF7FEFF 		bl	utils_min_abs
 2253              	.LVL160:
 2254              		.loc 1 1447 0
 2255 0258 F0EE4C0A 		vmov.f32	s1, s24
 2256              		.loc 1 1445 0
 2257 025c F0EE408A 		vmov.f32	s17, s0
 2258              	.LVL161:
 2259              		.loc 1 1447 0
 2260 0260 B0EE690A 		vmov.f32	s0, s19
 2261              	.LVL162:
 2262 0264 FFF7FEFF 		bl	utils_min_abs
 2263              	.LVL163:
 2264              		.loc 1 1448 0
 2265 0268 F0EE490A 		vmov.f32	s1, s18
 2266 026c FFF7FEFF 		bl	utils_min_abs
 2267              	.LVL164:
 2268              		.loc 1 1449 0
 2269 0270 F0EE6B0A 		vmov.f32	s1, s23
 2270 0274 FFF7FEFF 		bl	utils_min_abs
 2271              	.LVL165:
 2272              		.loc 1 1450 0
 2273 0278 F0EE4B0A 		vmov.f32	s1, s22
 2274 027c FFF7FEFF 		bl	utils_min_abs
 2275              	.LVL166:
 2276              		.loc 1 1452 0
 2277 0280 D4ED537A 		vldr.32	s15, [r4, #332]
 2278 0284 B4EEE70A 		vcmpe.f32	s0, s15
 2279 0288 F1EE10FA 		vmrs	APSR_nzcv, FPSCR
 2280              		.loc 1 1453 0
ARM GAS  /tmp/ccETYwEL.s 			page 41


 2281 028c 48BF     		it	mi
 2282 028e 94ED530A 		vldrmi.32	s0, [r4, #332]
 2283              	.LVL167:
 2284              		.loc 1 1456 0
 2285 0292 D4ED537A 		vldr.32	s15, [r4, #332]
 2286 0296 F1EE677A 		vneg.f32	s15, s15
 2287 029a F4EEE78A 		vcmpe.f32	s17, s15
 2288 029e F1EE10FA 		vmrs	APSR_nzcv, FPSCR
 2289              		.loc 1 1457 0
 2290 02a2 C8BF     		it	gt
 2291 02a4 D4ED538A 		vldrgt.32	s17, [r4, #332]
 2292              	.LVL168:
 2293              		.loc 1 1460 0
 2294 02a8 84ED190A 		vstr.32	s0, [r4, #100]
 2295              		.loc 1 1457 0
 2296 02ac C8BF     		it	gt
 2297 02ae F1EE688A 		vneggt.f32	s17, s17
 2298              	.LVL169:
 2299              		.loc 1 1461 0
 2300 02b2 C4ED1A8A 		vstr.32	s17, [r4, #104]
 2301              	.LVL170:
 2302              		.loc 1 1465 0
 2303 02b6 D4ED0D7A 		vldr.32	s15, [r4, #52]
 2304 02ba B4EEE78A 		vcmpe.f32	s16, s15
 2305 02be F1EE10FA 		vmrs	APSR_nzcv, FPSCR
 2306 02c2 00F30981 		bgt	.L328
 2307              		.loc 1 1467 0
 2308 02c6 D4ED0E7A 		vldr.32	s15, [r4, #56]
 2309 02ca B4EEE78A 		vcmpe.f32	s16, s15
 2310 02ce F1EE10FA 		vmrs	APSR_nzcv, FPSCR
 2311 02d2 40F10481 		bpl	.L329
 2312              		.loc 1 1468 0
 2313 02d6 DFED390A 		vldr.32	s1, .L335+60
 2314              	.LVL171:
 2315              	.L291:
 2316              		.loc 1 1475 0
 2317 02da 94ED170A 		vldr.32	s0, [r4, #92]
 2318              	.LVL172:
 2319              		.loc 1 1476 0
 2320 02de 94ED187A 		vldr.32	s14, [r4, #96]
 2321 02e2 C7EE088A 		vdiv.f32	s17, s14, s16
 2322              	.LVL173:
 2323              		.loc 1 1478 0
 2324 02e6 80EE080A 		vdiv.f32	s0, s0, s16
 2325              	.LVL174:
 2326 02ea FFF7FEFF 		bl	utils_min_abs
 2327              	.LVL175:
 2328              		.loc 1 1481 0
 2329 02ee D4ED037A 		vldr.32	s15, [r4, #12]
 2330 02f2 F0EE400A 		vmov.f32	s1, s0
 2331 02f6 B0EE670A 		vmov.f32	s0, s15
 2332              	.LVL176:
 2333 02fa FFF7FEFF 		bl	utils_min_abs
 2334              	.LVL177:
 2335 02fe 84ED1B0A 		vstr.32	s0, [r4, #108]
 2336              		.loc 1 1482 0
 2337 0302 F0EE680A 		vmov.f32	s1, s17
ARM GAS  /tmp/ccETYwEL.s 			page 42


 2338 0306 94ED040A 		vldr.32	s0, [r4, #16]
 2339 030a FFF7FEFF 		bl	utils_min_abs
 2340              	.LVL178:
 2341              		.loc 1 1504 0
 2342 030e BDEC0A8B 		vldm	sp!, {d8-d12}
 2343              		.cfi_remember_state
 2344              		.cfi_restore 88
 2345              		.cfi_restore 89
 2346              		.cfi_restore 86
 2347              		.cfi_restore 87
 2348              		.cfi_restore 84
 2349              		.cfi_restore 85
 2350              		.cfi_restore 82
 2351              		.cfi_restore 83
 2352              		.cfi_restore 80
 2353              		.cfi_restore 81
 2354              		.cfi_def_cfa_offset 24
 2355              	.LVL179:
 2356              		.loc 1 1482 0
 2357 0312 84ED1C0A 		vstr.32	s0, [r4, #112]
 2358              		.loc 1 1502 0
 2359 0316 636E     		ldr	r3, [r4, #100]	@ float
 2360 0318 6367     		str	r3, [r4, #116]	@ float
 2361              		.loc 1 1503 0
 2362 031a A36E     		ldr	r3, [r4, #104]	@ float
 2363 031c A367     		str	r3, [r4, #120]	@ float
 2364              		.loc 1 1504 0
 2365 031e F8BD     		pop	{r3, r4, r5, r6, r7, pc}
 2366              	.LVL180:
 2367              	.L322:
 2368              		.cfi_restore_state
 2369              		.loc 1 1403 0
 2370 0320 D6ED007A 		vldr.32	s15, [r6]
 2371 0324 F4EEE7CA 		vcmpe.f32	s25, s15
 2372 0328 F1EE10FA 		vmrs	APSR_nzcv, FPSCR
 2373 032c 40F1E680 		bpl	.L330
 2374              		.loc 1 1411 0
 2375 0330 D5ED007A 		vldr.32	s15, [r5]
 2376              		.loc 1 1404 0
 2377 0334 DFED21BA 		vldr.32	s23, .L335+60
 2378              	.LVL181:
 2379              		.loc 1 1411 0
 2380 0338 B4EEE7BA 		vcmpe.f32	s22, s15
 2381 033c F1EE10FA 		vmrs	APSR_nzcv, FPSCR
 2382 0340 3FF75AAF 		bgt	.L331
 2383              	.LVL182:
 2384              	.L323:
 2385              		.loc 1 1413 0
 2386 0344 D5ED007A 		vldr.32	s15, [r5]
 2387 0348 B4EEE7CA 		vcmpe.f32	s24, s15
 2388 034c F1EE10FA 		vmrs	APSR_nzcv, FPSCR
 2389 0350 40F1E380 		bpl	.L332
 2390              		.loc 1 1414 0
 2391 0354 9FED19BA 		vldr.32	s22, .L335+60
 2392              	.LVL183:
 2393 0358 50E7     		b	.L278
 2394              	.LVL184:
ARM GAS  /tmp/ccETYwEL.s 			page 43


 2395              	.L325:
 2396              		.loc 1 1438 0
 2397 035a B4EEC19A 		vcmpe.f32	s18, s2
 2398 035e F1EE10FA 		vmrs	APSR_nzcv, FPSCR
 2399 0362 40F1E980 		bpl	.L333
 2400              		.loc 1 1439 0
 2401 0366 9FED159A 		vldr.32	s18, .L335+60
 2402              	.LVL185:
 2403 036a 67E7     		b	.L284
 2404              	.LVL186:
 2405              	.L324:
 2406              		.loc 1 1426 0
 2407 036c B4EEC19A 		vcmpe.f32	s18, s2
 2408 0370 F1EE10FA 		vmrs	APSR_nzcv, FPSCR
 2409 0374 40F3EB80 		ble	.L334
 2410              		.loc 1 1427 0
 2411 0378 9FED10CA 		vldr.32	s24, .L335+60
 2412              	.LVL187:
 2413 037c 4EE7     		b	.L281
 2414              	.L336:
 2415 037e 00BF     		.align	2
 2416              	.L335:
 2417 0380 00000000 		.word	.LANCHOR41
 2418 0384 6740533A 		.word	978534503
 2419 0388 00000000 		.word	.LANCHOR32
 2420 038c 74D19541 		.word	1100337524
 2421 0390 00000000 		.word	.LANCHOR33
 2422 0394 00000000 		.word	.LANCHOR12
 2423 0398 00401C46 		.word	1176256512
 2424 039c 0FCF5B3B 		.word	995872527
 2425 03a0 33938843 		.word	1133024051
 2426 03a4 CDCCCC3D 		.word	1036831949
 2427 03a8 3C361C4C 		.word	1276917308
 2428 03ac 00A05645 		.word	1163304960
 2429 03b0 00F07F45 		.word	1166012416
 2430 03b4 00000000 		.word	.LANCHOR13
 2431 03b8 00000000 		.word	.LANCHOR14
 2432 03bc 00000000 		.word	0
 2433              	.LVL188:
 2434              	.L318:
 2435              	.LBB147:
 2436              		.loc 1 1351 0
 2437 03c0 D4ED011A 		vldr.32	s3, [r4, #4]
 2438              		.loc 1 1352 0
 2439 03c4 D4ED027A 		vldr.32	s15, [r4, #8]
 2440              		.loc 1 1356 0
 2441 03c8 1FED042A 		vldr.32	s4, .L335+60
 2442              		.loc 1 1351 0
 2443 03cc F0EEE11A 		vabs.f32	s3, s3
 2444              	.LVL189:
 2445              		.loc 1 1352 0
 2446 03d0 F0EEE77A 		vabs.f32	s15, s15
 2447 03d4 F4EEE71A 		vcmpe.f32	s3, s15
 2448 03d8 F1EE10FA 		vmrs	APSR_nzcv, FPSCR
 2449              		.loc 1 1353 0
 2450 03dc 48BF     		it	mi
 2451 03de D4ED021A 		vldrmi.32	s3, [r4, #8]
ARM GAS  /tmp/ccETYwEL.s 			page 44


 2452              	.LVL190:
 2453              		.loc 1 1356 0
 2454 03e2 96ED000A 		vldr.32	s0, [r6]
 2455 03e6 D4ED100A 		vldr.32	s1, [r4, #64]
 2456 03ea 94ED111A 		vldr.32	s2, [r4, #68]
 2457              		.loc 1 1353 0
 2458 03ee 48BF     		it	mi
 2459 03f0 F0EEE11A 		vabsmi.f32	s3, s3
 2460              	.LVL191:
 2461              		.loc 1 1356 0
 2462 03f4 FFF7FEFF 		bl	utils_map
 2463              	.LVL192:
 2464              		.loc 1 1358 0
 2465 03f8 D4ED027A 		vldr.32	s15, [r4, #8]
 2466 03fc F0EEE77A 		vabs.f32	s15, s15
 2467 0400 B4EEE70A 		vcmpe.f32	s0, s15
 2468 0404 F1EE10FA 		vmrs	APSR_nzcv, FPSCR
 2469 0408 0AD5     		bpl	.L253
 2470              		.loc 1 1359 0
 2471 040a D4ED027A 		vldr.32	s15, [r4, #8]
 2472 040e F5EEC07A 		vcmpe.f32	s15, #0
 2473 0412 F1EE10FA 		vmrs	APSR_nzcv, FPSCR
 2474 0416 4CBF     		ite	mi
 2475 0418 B1EE40AA 		vnegmi.f32	s20, s0
 2476              	.LVL193:
 2477 041c B0EE40AA 		vmovpl.f32	s20, s0
 2478              	.L253:
 2479              	.LVL194:
 2480              		.loc 1 1362 0
 2481 0420 D4ED017A 		vldr.32	s15, [r4, #4]
 2482 0424 F0EEE77A 		vabs.f32	s15, s15
 2483 0428 B4EEE70A 		vcmpe.f32	s0, s15
 2484 042c F1EE10FA 		vmrs	APSR_nzcv, FPSCR
 2485 0430 7FF574AE 		bpl	.L247
 2486              		.loc 1 1363 0
 2487 0434 D4ED017A 		vldr.32	s15, [r4, #4]
 2488 0438 F5EEC07A 		vcmpe.f32	s15, #0
 2489 043c F1EE10FA 		vmrs	APSR_nzcv, FPSCR
 2490 0440 48BF     		it	mi
 2491 0442 B1EE400A 		vnegmi.f32	s0, s0
 2492              	.LVL195:
 2493 0446 F0EE408A 		vmov.f32	s17, s0
 2494 044a 67E6     		b	.L247
 2495              	.LVL196:
 2496              	.L320:
 2497              	.LBE147:
 2498              	.LBB148:
 2499              		.loc 1 1377 0
 2500 044c D4ED011A 		vldr.32	s3, [r4, #4]
 2501              		.loc 1 1378 0
 2502 0450 D4ED027A 		vldr.32	s15, [r4, #8]
 2503              		.loc 1 1382 0
 2504 0454 1FED272A 		vldr.32	s4, .L335+60
 2505              		.loc 1 1377 0
 2506 0458 F0EEE11A 		vabs.f32	s3, s3
 2507              	.LVL197:
 2508              		.loc 1 1378 0
ARM GAS  /tmp/ccETYwEL.s 			page 45


 2509 045c F0EEE77A 		vabs.f32	s15, s15
 2510 0460 F4EEE71A 		vcmpe.f32	s3, s15
 2511 0464 F1EE10FA 		vmrs	APSR_nzcv, FPSCR
 2512              		.loc 1 1379 0
 2513 0468 48BF     		it	mi
 2514 046a D4ED021A 		vldrmi.32	s3, [r4, #8]
 2515              	.LVL198:
 2516              		.loc 1 1382 0
 2517 046e 95ED000A 		vldr.32	s0, [r5]
 2518 0472 D4ED120A 		vldr.32	s1, [r4, #72]
 2519 0476 94ED131A 		vldr.32	s2, [r4, #76]
 2520              		.loc 1 1379 0
 2521 047a 48BF     		it	mi
 2522 047c F0EEE11A 		vabsmi.f32	s3, s3
 2523              	.LVL199:
 2524              		.loc 1 1382 0
 2525 0480 FFF7FEFF 		bl	utils_map
 2526              	.LVL200:
 2527              		.loc 1 1384 0
 2528 0484 D4ED027A 		vldr.32	s15, [r4, #8]
 2529 0488 F0EEE77A 		vabs.f32	s15, s15
 2530 048c B4EEE70A 		vcmpe.f32	s0, s15
 2531 0490 F1EE10FA 		vmrs	APSR_nzcv, FPSCR
 2532 0494 0AD5     		bpl	.L266
 2533              		.loc 1 1385 0
 2534 0496 D4ED027A 		vldr.32	s15, [r4, #8]
 2535 049a F5EEC07A 		vcmpe.f32	s15, #0
 2536 049e F1EE10FA 		vmrs	APSR_nzcv, FPSCR
 2537 04a2 4CBF     		ite	mi
 2538 04a4 F1EE40AA 		vnegmi.f32	s21, s0
 2539              	.LVL201:
 2540 04a8 F0EE40AA 		vmovpl.f32	s21, s0
 2541              	.L266:
 2542              	.LVL202:
 2543              		.loc 1 1388 0
 2544 04ac D4ED017A 		vldr.32	s15, [r4, #4]
 2545 04b0 F0EEE77A 		vabs.f32	s15, s15
 2546 04b4 B4EEE70A 		vcmpe.f32	s0, s15
 2547 04b8 F1EE10FA 		vmrs	APSR_nzcv, FPSCR
 2548 04bc 7FF552AE 		bpl	.L260
 2549              		.loc 1 1389 0
 2550 04c0 D4ED017A 		vldr.32	s15, [r4, #4]
 2551 04c4 F5EEC07A 		vcmpe.f32	s15, #0
 2552 04c8 F1EE10FA 		vmrs	APSR_nzcv, FPSCR
 2553 04cc 48BF     		it	mi
 2554 04ce B1EE400A 		vnegmi.f32	s0, s0
 2555              	.LVL203:
 2556 04d2 F0EE409A 		vmov.f32	s19, s0
 2557 04d6 45E6     		b	.L260
 2558              	.LVL204:
 2559              	.L328:
 2560              	.LBE148:
 2561              		.loc 1 1466 0
 2562 04d8 D4ED030A 		vldr.32	s1, [r4, #12]
 2563              	.LVL205:
 2564 04dc FDE6     		b	.L291
 2565              	.LVL206:
ARM GAS  /tmp/ccETYwEL.s 			page 46


 2566              	.L329:
 2567              		.loc 1 1470 0
 2568 04de D4ED0D0A 		vldr.32	s1, [r4, #52]
 2569 04e2 1FED4A2A 		vldr.32	s4, .L335+60
 2570 04e6 94ED0E1A 		vldr.32	s2, [r4, #56]
 2571 04ea D4ED031A 		vldr.32	s3, [r4, #12]
 2572 04ee B0EE480A 		vmov.f32	s0, s16
 2573              	.LVL207:
 2574 04f2 FFF7FEFF 		bl	utils_map
 2575              	.LVL208:
 2576 04f6 F0EE400A 		vmov.f32	s1, s0
 2577              	.LVL209:
 2578 04fa EEE6     		b	.L291
 2579              	.LVL210:
 2580              	.L330:
 2581              		.loc 1 1406 0
 2582 04fc 96ED000A 		vldr.32	s0, [r6]
 2583              	.LVL211:
 2584 0500 1FED522A 		vldr.32	s4, .L335+60
 2585 0504 D4ED011A 		vldr.32	s3, [r4, #4]
 2586 0508 F0EE6B0A 		vmov.f32	s1, s23
 2587 050c B0EE6C1A 		vmov.f32	s2, s25
 2588 0510 FFF7FEFF 		bl	utils_map
 2589              	.LVL212:
 2590 0514 F0EE40BA 		vmov.f32	s23, s0
 2591              	.LVL213:
 2592 0518 66E6     		b	.L275
 2593              	.LVL214:
 2594              	.L332:
 2595              		.loc 1 1416 0
 2596 051a 95ED000A 		vldr.32	s0, [r5]
 2597 051e 1FED592A 		vldr.32	s4, .L335+60
 2598 0522 D4ED011A 		vldr.32	s3, [r4, #4]
 2599 0526 F0EE4B0A 		vmov.f32	s1, s22
 2600 052a B0EE4C1A 		vmov.f32	s2, s24
 2601 052e FFF7FEFF 		bl	utils_map
 2602              	.LVL215:
 2603 0532 B0EE40BA 		vmov.f32	s22, s0
 2604              	.LVL216:
 2605 0536 61E6     		b	.L278
 2606              	.LVL217:
 2607              	.L333:
 2608              		.loc 1 1441 0
 2609 0538 B0EE490A 		vmov.f32	s0, s18
 2610 053c D4ED011A 		vldr.32	s3, [r4, #4]
 2611 0540 1FED622A 		vldr.32	s4, .L335+60
 2612 0544 FFF7FEFF 		bl	utils_map
 2613              	.LVL218:
 2614 0548 B0EE409A 		vmov.f32	s18, s0
 2615              	.LVL219:
 2616 054c 76E6     		b	.L284
 2617              	.LVL220:
 2618              	.L334:
 2619              		.loc 1 1429 0
 2620 054e D4ED011A 		vldr.32	s3, [r4, #4]
 2621 0552 1FED662A 		vldr.32	s4, .L335+60
 2622 0556 B0EE490A 		vmov.f32	s0, s18
ARM GAS  /tmp/ccETYwEL.s 			page 47


 2623 055a FFF7FEFF 		bl	utils_map
 2624              	.LVL221:
 2625 055e B0EE40CA 		vmov.f32	s24, s0
 2626              	.LVL222:
 2627 0562 5BE6     		b	.L281
 2628              	.LVL223:
 2629              	.L250:
 2630              		.loc 1 1348 0
 2631 0564 5FED6B8A 		vldr.32	s17, .L335+60
 2632              	.LBB149:
 2633              	.LBB138:
 2634 0568 0520     		movs	r0, #5
 2635              	.LBE138:
 2636              	.LBE149:
 2637              		.loc 1 1347 0
 2638 056a B0EE68AA 		vmov.f32	s20, s17
 2639              	.LBB150:
 2640              	.LBB139:
 2641 056e FFF7FEFF 		bl	mc_interface_fault_stop.part.4
 2642              	.LVL224:
 2643 0572 D3E5     		b	.L247
 2644              	.LVL225:
 2645              	.L263:
 2646              	.LBE139:
 2647              	.LBE150:
 2648              		.loc 1 1374 0
 2649 0574 5FED6F9A 		vldr.32	s19, .L335+60
 2650              	.LBB151:
 2651              	.LBB144:
 2652 0578 0620     		movs	r0, #6
 2653              	.LBE144:
 2654              	.LBE151:
 2655              		.loc 1 1373 0
 2656 057a F0EE69AA 		vmov.f32	s21, s19
 2657              	.LBB152:
 2658              	.LBB145:
 2659 057e FFF7FEFF 		bl	mc_interface_fault_stop.part.4
 2660              	.LVL226:
 2661 0582 EFE5     		b	.L260
 2662              	.LBE145:
 2663              	.LBE152:
 2664              		.cfi_endproc
 2665              	.LFE318:
 2666              		.size	update_override_limits.constprop.5, .-update_override_limits.constprop.5
 2667              		.section	.text.mc_interface_set_configuration,"ax",%progbits
 2668              		.align	1
 2669              		.p2align 4,,15
 2670              		.global	mc_interface_set_configuration
 2671              		.syntax unified
 2672              		.thumb
 2673              		.thumb_func
 2674              		.fpu fpv4-sp-d16
 2675              		.type	mc_interface_set_configuration, %function
 2676              	mc_interface_set_configuration:
 2677              	.LFB258:
 2678              		.loc 1 179 0
 2679              		.cfi_startproc
ARM GAS  /tmp/ccETYwEL.s 			page 48


 2680              		@ args = 0, pretend = 0, frame = 0
 2681              		@ frame_needed = 0, uses_anonymous_args = 0
 2682              	.LVL227:
 2683 0000 38B5     		push	{r3, r4, r5, lr}
 2684              		.cfi_def_cfa_offset 16
 2685              		.cfi_offset 3, -16
 2686              		.cfi_offset 4, -12
 2687              		.cfi_offset 5, -8
 2688              		.cfi_offset 14, -4
 2689              		.loc 1 181 0
 2690 0002 354D     		ldr	r5, .L361
 2691 0004 90F86831 		ldrb	r3, [r0, #360]	@ zero_extendqisi2
 2692 0008 95F86821 		ldrb	r2, [r5, #360]	@ zero_extendqisi2
 2693 000c 9A42     		cmp	r2, r3
 2694              		.loc 1 179 0
 2695 000e 0446     		mov	r4, r0
 2696              		.loc 1 181 0
 2697 0010 1ED1     		bne	.L355
 2698              	.LVL228:
 2699              	.L338:
 2700              		.loc 1 197 0
 2701 0012 012B     		cmp	r3, #1
 2702 0014 2AD0     		beq	.L356
 2703              	.L339:
 2704              		.loc 1 210 0
 2705 0016 AB78     		ldrb	r3, [r5, #2]	@ zero_extendqisi2
 2706 0018 022B     		cmp	r3, #2
 2707 001a 2ED0     		beq	.L357
 2708              	.L342:
 2709              		.loc 1 215 0
 2710 001c AB78     		ldrb	r3, [r5, #2]	@ zero_extendqisi2
 2711 001e 022B     		cmp	r3, #2
 2712 0020 02D0     		beq	.L345
 2713              		.loc 1 216 0
 2714 0022 A378     		ldrb	r3, [r4, #2]	@ zero_extendqisi2
 2715 0024 022B     		cmp	r3, #2
 2716 0026 2ED0     		beq	.L349
 2717              	.L345:
 2718              		.loc 1 221 0
 2719 0028 2146     		mov	r1, r4
 2720 002a 4FF4C272 		mov	r2, #388
 2721 002e 2A48     		ldr	r0, .L361
 2722 0030 FFF7FEFF 		bl	memcpy
 2723              	.LVL229:
 2724              	.L344:
 2725              		.loc 1 224 0
 2726 0034 FFF7FEFF 		bl	update_override_limits.constprop.5
 2727              	.LVL230:
 2728              		.loc 1 226 0
 2729 0038 AB78     		ldrb	r3, [r5, #2]	@ zero_extendqisi2
 2730 003a DBB2     		uxtb	r3, r3
 2731 003c 012B     		cmp	r3, #1
 2732 003e 33D9     		bls	.L347
 2733              	.L360:
 2734 0040 022B     		cmp	r3, #2
 2735 0042 04D1     		bne	.L358
 2736              		.loc 1 233 0
ARM GAS  /tmp/ccETYwEL.s 			page 49


 2737 0044 2448     		ldr	r0, .L361
 2738              		.loc 1 239 0
 2739 0046 BDE83840 		pop	{r3, r4, r5, lr}
 2740              		.cfi_remember_state
 2741              		.cfi_restore 14
 2742              		.cfi_restore 5
 2743              		.cfi_restore 4
 2744              		.cfi_restore 3
 2745              		.cfi_def_cfa_offset 0
 2746              	.LVL231:
 2747              		.loc 1 233 0
 2748 004a FFF7FEBF 		b	mcpwm_foc_set_configuration
 2749              	.LVL232:
 2750              	.L358:
 2751              		.cfi_restore_state
 2752              		.loc 1 239 0
 2753 004e 38BD     		pop	{r3, r4, r5, pc}
 2754              	.LVL233:
 2755              	.L355:
 2756              		.loc 1 182 0
 2757 0050 FFF7FEFF 		bl	encoder_deinit
 2758              	.LVL234:
 2759              		.loc 1 183 0
 2760 0054 94F86831 		ldrb	r3, [r4, #360]	@ zero_extendqisi2
 2761 0058 012B     		cmp	r3, #1
 2762 005a 36D0     		beq	.L340
 2763 005c 022B     		cmp	r3, #2
 2764 005e DAD1     		bne	.L339
 2765              		.loc 1 189 0
 2766 0060 FFF7FEFF 		bl	encoder_init_as5047p_spi
 2767              	.LVL235:
 2768 0064 94F86831 		ldrb	r3, [r4, #360]	@ zero_extendqisi2
 2769              		.loc 1 197 0
 2770 0068 012B     		cmp	r3, #1
 2771 006a D4D1     		bne	.L339
 2772              	.L356:
 2773              		.loc 1 198 0
 2774 006c D4F86401 		ldr	r0, [r4, #356]
 2775 0070 FFF7FEFF 		bl	encoder_set_counts
 2776              	.LVL236:
 2777              		.loc 1 210 0
 2778 0074 AB78     		ldrb	r3, [r5, #2]	@ zero_extendqisi2
 2779 0076 022B     		cmp	r3, #2
 2780 0078 D0D1     		bne	.L342
 2781              	.L357:
 2782              		.loc 1 211 0
 2783 007a A378     		ldrb	r3, [r4, #2]	@ zero_extendqisi2
 2784 007c 022B     		cmp	r3, #2
 2785 007e 18D1     		bne	.L359
 2786              		.loc 1 215 0
 2787 0080 AB78     		ldrb	r3, [r5, #2]	@ zero_extendqisi2
 2788 0082 022B     		cmp	r3, #2
 2789 0084 D0D0     		beq	.L345
 2790              	.L349:
 2791              		.loc 1 217 0
 2792 0086 FFF7FEFF 		bl	mcpwm_deinit
 2793              	.LVL237:
ARM GAS  /tmp/ccETYwEL.s 			page 50


 2794              		.loc 1 218 0
 2795 008a 2146     		mov	r1, r4
 2796 008c 4FF4C272 		mov	r2, #388
 2797 0090 1148     		ldr	r0, .L361
 2798 0092 FFF7FEFF 		bl	memcpy
 2799              	.LVL238:
 2800              		.loc 1 219 0
 2801 0096 1048     		ldr	r0, .L361
 2802 0098 FFF7FEFF 		bl	mcpwm_foc_init
 2803              	.LVL239:
 2804              		.loc 1 224 0
 2805 009c FFF7FEFF 		bl	update_override_limits.constprop.5
 2806              	.LVL240:
 2807              		.loc 1 226 0
 2808 00a0 AB78     		ldrb	r3, [r5, #2]	@ zero_extendqisi2
 2809 00a2 DBB2     		uxtb	r3, r3
 2810 00a4 012B     		cmp	r3, #1
 2811 00a6 CBD8     		bhi	.L360
 2812              	.L347:
 2813              		.loc 1 229 0
 2814 00a8 0B48     		ldr	r0, .L361
 2815              		.loc 1 239 0
 2816 00aa BDE83840 		pop	{r3, r4, r5, lr}
 2817              		.cfi_remember_state
 2818              		.cfi_restore 14
 2819              		.cfi_restore 5
 2820              		.cfi_restore 4
 2821              		.cfi_restore 3
 2822              		.cfi_def_cfa_offset 0
 2823              	.LVL241:
 2824              		.loc 1 229 0
 2825 00ae FFF7FEBF 		b	mcpwm_set_configuration
 2826              	.LVL242:
 2827              	.L359:
 2828              		.cfi_restore_state
 2829              		.loc 1 212 0
 2830 00b2 FFF7FEFF 		bl	mcpwm_foc_deinit
 2831              	.LVL243:
 2832              		.loc 1 213 0
 2833 00b6 2146     		mov	r1, r4
 2834 00b8 4FF4C272 		mov	r2, #388
 2835 00bc 0648     		ldr	r0, .L361
 2836 00be FFF7FEFF 		bl	memcpy
 2837              	.LVL244:
 2838              		.loc 1 214 0
 2839 00c2 0548     		ldr	r0, .L361
 2840 00c4 FFF7FEFF 		bl	mcpwm_init
 2841              	.LVL245:
 2842 00c8 B4E7     		b	.L344
 2843              	.L340:
 2844              		.loc 1 185 0
 2845 00ca D4F86401 		ldr	r0, [r4, #356]
 2846 00ce FFF7FEFF 		bl	encoder_init_abi
 2847              	.LVL246:
 2848 00d2 94F86831 		ldrb	r3, [r4, #360]	@ zero_extendqisi2
 2849              		.loc 1 186 0
 2850 00d6 9CE7     		b	.L338
ARM GAS  /tmp/ccETYwEL.s 			page 51


 2851              	.L362:
 2852              		.align	2
 2853              	.L361:
 2854 00d8 00000000 		.word	.LANCHOR12
 2855              		.cfi_endproc
 2856              	.LFE258:
 2857              		.size	mc_interface_set_configuration, .-mc_interface_set_configuration
 2858              		.section	.text.timer_thread,"ax",%progbits
 2859              		.align	1
 2860              		.p2align 4,,15
 2861              		.syntax unified
 2862              		.thumb
 2863              		.thumb_func
 2864              		.fpu fpv4-sp-d16
 2865              		.type	timer_thread, %function
 2866              	timer_thread:
 2867              	.LFB311:
 2868              		.loc 1 1506 0
 2869              		.cfi_startproc
 2870              		@ Volatile: function does not return.
 2871              		@ args = 0, pretend = 0, frame = 0
 2872              		@ frame_needed = 0, uses_anonymous_args = 0
 2873              	.LVL247:
 2874              	.LBB153:
 2875              	.LBB154:
 2876              		.loc 2 135 0
 2877 0000 164E     		ldr	r6, .L377
 2878 0002 174A     		ldr	r2, .L377+4
 2879 0004 B369     		ldr	r3, [r6, #24]
 2880 0006 174C     		ldr	r4, .L377+8
 2881 0008 DFF86490 		ldr	r9, .L377+20
 2882 000c 164D     		ldr	r5, .L377+12
 2883              	.LBE154:
 2884              	.LBE153:
 2885              		.loc 1 1506 0
 2886 000e 80B5     		push	{r7, lr}
 2887              		.cfi_def_cfa_offset 8
 2888              		.cfi_offset 7, -8
 2889              		.cfi_offset 14, -4
 2890              		.loc 1 1517 0
 2891 0010 4FF00008 		mov	r8, #0
 2892              		.loc 1 1516 0
 2893 0014 154F     		ldr	r7, .L377+16
 2894              	.LBB156:
 2895              	.LBB155:
 2896              		.loc 2 135 0
 2897 0016 9A61     		str	r2, [r3, #24]
 2898 0018 0FE0     		b	.L370
 2899              	.LVL248:
 2900              	.L375:
 2901              	.LBE155:
 2902              	.LBE156:
 2903              		.loc 1 1514 0
 2904 001a 013B     		subs	r3, r3, #1
 2905 001c 2360     		str	r3, [r4]
 2906              		.loc 1 1521 0
 2907 001e FFF7FEFF 		bl	update_override_limits.constprop.5
ARM GAS  /tmp/ccETYwEL.s 			page 52


 2908              	.LVL249:
 2909              		.loc 1 1524 0
 2910 0022 95F88031 		ldrb	r3, [r5, #384]	@ zero_extendqisi2
 2911 0026 DBB2     		uxtb	r3, r3
 2912 0028 022B     		cmp	r3, #2
 2913 002a 15D0     		beq	.L368
 2914              	.L376:
 2915 002c 032B     		cmp	r3, #3
 2916 002e 13D0     		beq	.L368
 2917 0030 012B     		cmp	r3, #1
 2918 0032 11D0     		beq	.L368
 2919              	.L366:
 2920              		.loc 1 1551 0
 2921 0034 0A20     		movs	r0, #10
 2922 0036 FFF7FEFF 		bl	chThdSleep
 2923              	.LVL250:
 2924              	.L370:
 2925              		.loc 1 1513 0
 2926 003a 2368     		ldr	r3, [r4]
 2927 003c 002B     		cmp	r3, #0
 2928 003e ECDC     		bgt	.L375
 2929              		.loc 1 1516 0
 2930 0040 3B69     		ldr	r3, [r7, #16]
 2931 0042 DB04     		lsls	r3, r3, #19
 2932              		.loc 1 1517 0
 2933 0044 48BF     		it	mi
 2934 0046 89F80080 		strbmi	r8, [r9]
 2935              		.loc 1 1521 0
 2936 004a FFF7FEFF 		bl	update_override_limits.constprop.5
 2937              	.LVL251:
 2938              		.loc 1 1524 0
 2939 004e 95F88031 		ldrb	r3, [r5, #384]	@ zero_extendqisi2
 2940 0052 DBB2     		uxtb	r3, r3
 2941 0054 022B     		cmp	r3, #2
 2942 0056 E9D1     		bne	.L376
 2943              	.L368:
 2944              	.LBB157:
 2945              	.LBB158:
 2946              		.file 3 "ChibiOS_3.0.2/os/rt/include/chvt.h"
 2947              		.loc 3 231 0
 2948 0058 B36A     		ldr	r3, [r6, #40]
 2949              	.LBE158:
 2950              	.LBE157:
 2951              		.loc 1 1545 0
 2952 005a EBE7     		b	.L366
 2953              	.L378:
 2954              		.align	2
 2955              	.L377:
 2956 005c 00000000 		.word	ch
 2957 0060 00000000 		.word	.LC2
 2958 0064 00000000 		.word	.LANCHOR14
 2959 0068 00000000 		.word	.LANCHOR12
 2960 006c 00080240 		.word	1073874944
 2961 0070 00000000 		.word	.LANCHOR13
 2962              		.cfi_endproc
 2963              	.LFE311:
 2964              		.size	timer_thread, .-timer_thread
ARM GAS  /tmp/ccETYwEL.s 			page 53


 2965              		.section	.text.mc_interface_get_tachometer_abs_value,"ax",%progbits
 2966              		.align	1
 2967              		.p2align 4,,15
 2968              		.global	mc_interface_get_tachometer_abs_value
 2969              		.syntax unified
 2970              		.thumb
 2971              		.thumb_func
 2972              		.fpu fpv4-sp-d16
 2973              		.type	mc_interface_get_tachometer_abs_value, %function
 2974              	mc_interface_get_tachometer_abs_value:
 2975              	.LFB294:
 2976              		.loc 1 823 0
 2977              		.cfi_startproc
 2978              		@ args = 0, pretend = 0, frame = 0
 2979              		@ frame_needed = 0, uses_anonymous_args = 0
 2980              		@ link register save eliminated.
 2981              	.LVL252:
 2982              		.loc 1 826 0
 2983 0000 064B     		ldr	r3, .L385
 2984 0002 9B78     		ldrb	r3, [r3, #2]	@ zero_extendqisi2
 2985 0004 DBB2     		uxtb	r3, r3
 2986 0006 012B     		cmp	r3, #1
 2987 0008 05D9     		bls	.L381
 2988 000a 022B     		cmp	r3, #2
 2989 000c 01D1     		bne	.L384
 2990              		.loc 1 833 0
 2991 000e FFF7FEBF 		b	mcpwm_foc_get_tachometer_abs_value
 2992              	.LVL253:
 2993              	.L384:
 2994              		.loc 1 841 0
 2995 0012 0020     		movs	r0, #0
 2996              	.LVL254:
 2997 0014 7047     		bx	lr
 2998              	.LVL255:
 2999              	.L381:
 3000              		.loc 1 829 0
 3001 0016 FFF7FEBF 		b	mcpwm_get_tachometer_abs_value
 3002              	.LVL256:
 3003              	.L386:
 3004 001a 00BF     		.align	2
 3005              	.L385:
 3006 001c 00000000 		.word	.LANCHOR12
 3007              		.cfi_endproc
 3008              	.LFE294:
 3009              		.size	mc_interface_get_tachometer_abs_value, .-mc_interface_get_tachometer_abs_value
 3010              		.section	.text.mc_interface_get_last_inj_adc_isr_duration,"ax",%progbits
 3011              		.align	1
 3012              		.p2align 4,,15
 3013              		.global	mc_interface_get_last_inj_adc_isr_duration
 3014              		.syntax unified
 3015              		.thumb
 3016              		.thumb_func
 3017              		.fpu fpv4-sp-d16
 3018              		.type	mc_interface_get_last_inj_adc_isr_duration, %function
 3019              	mc_interface_get_last_inj_adc_isr_duration:
 3020              	.LFB295:
 3021              		.loc 1 843 0
ARM GAS  /tmp/ccETYwEL.s 			page 54


 3022              		.cfi_startproc
 3023              		@ args = 0, pretend = 0, frame = 0
 3024              		@ frame_needed = 0, uses_anonymous_args = 0
 3025              		@ link register save eliminated.
 3026              	.LVL257:
 3027              		.loc 1 846 0
 3028 0000 064B     		ldr	r3, .L393
 3029 0002 9B78     		ldrb	r3, [r3, #2]	@ zero_extendqisi2
 3030 0004 DBB2     		uxtb	r3, r3
 3031 0006 012B     		cmp	r3, #1
 3032 0008 06D9     		bls	.L389
 3033 000a 022B     		cmp	r3, #2
 3034 000c 01D1     		bne	.L392
 3035              		.loc 1 853 0
 3036 000e FFF7FEBF 		b	mcpwm_foc_get_last_inj_adc_isr_duration
 3037              	.LVL258:
 3038              	.L392:
 3039              		.loc 1 861 0
 3040 0012 9FED030A 		vldr.32	s0, .L393+4
 3041 0016 7047     		bx	lr
 3042              	.L389:
 3043              		.loc 1 849 0
 3044 0018 FFF7FEBF 		b	mcpwm_get_last_inj_adc_isr_duration
 3045              	.LVL259:
 3046              	.L394:
 3047              		.align	2
 3048              	.L393:
 3049 001c 00000000 		.word	.LANCHOR12
 3050 0020 00000000 		.word	0
 3051              		.cfi_endproc
 3052              	.LFE295:
 3053              		.size	mc_interface_get_last_inj_adc_isr_duration, .-mc_interface_get_last_inj_adc_isr_duration
 3054              		.section	.text.mc_interface_read_reset_avg_motor_current,"ax",%progbits
 3055              		.align	1
 3056              		.p2align 4,,15
 3057              		.global	mc_interface_read_reset_avg_motor_current
 3058              		.syntax unified
 3059              		.thumb
 3060              		.thumb_func
 3061              		.fpu fpv4-sp-d16
 3062              		.type	mc_interface_read_reset_avg_motor_current, %function
 3063              	mc_interface_read_reset_avg_motor_current:
 3064              	.LFB296:
 3065              		.loc 1 863 0
 3066              		.cfi_startproc
 3067              		@ args = 0, pretend = 0, frame = 0
 3068              		@ frame_needed = 0, uses_anonymous_args = 0
 3069              		@ link register save eliminated.
 3070              		.loc 1 864 0
 3071 0000 0549     		ldr	r1, .L396
 3072 0002 064B     		ldr	r3, .L396+4
 3073 0004 91ED000A 		vldr.32	s0, [r1]
 3074 0008 D3ED007A 		vldr.32	s15, [r3]
 3075              	.LVL260:
 3076              		.loc 1 865 0
 3077 000c 0022     		movs	r2, #0
 3078 000e 0A60     		str	r2, [r1]	@ float
ARM GAS  /tmp/ccETYwEL.s 			page 55


 3079              		.loc 1 868 0
 3080 0010 80EE270A 		vdiv.f32	s0, s0, s15
 3081              	.LVL261:
 3082              		.loc 1 866 0
 3083 0014 1A60     		str	r2, [r3]	@ float
 3084              		.loc 1 868 0
 3085 0016 7047     		bx	lr
 3086              	.L397:
 3087              		.align	2
 3088              	.L396:
 3089 0018 00000000 		.word	.LANCHOR18
 3090 001c 00000000 		.word	.LANCHOR20
 3091              		.cfi_endproc
 3092              	.LFE296:
 3093              		.size	mc_interface_read_reset_avg_motor_current, .-mc_interface_read_reset_avg_motor_current
 3094              		.section	.text.mc_interface_read_reset_avg_input_current,"ax",%progbits
 3095              		.align	1
 3096              		.p2align 4,,15
 3097              		.global	mc_interface_read_reset_avg_input_current
 3098              		.syntax unified
 3099              		.thumb
 3100              		.thumb_func
 3101              		.fpu fpv4-sp-d16
 3102              		.type	mc_interface_read_reset_avg_input_current, %function
 3103              	mc_interface_read_reset_avg_input_current:
 3104              	.LFB297:
 3105              		.loc 1 870 0
 3106              		.cfi_startproc
 3107              		@ args = 0, pretend = 0, frame = 0
 3108              		@ frame_needed = 0, uses_anonymous_args = 0
 3109              		@ link register save eliminated.
 3110              		.loc 1 871 0
 3111 0000 0549     		ldr	r1, .L399
 3112 0002 064B     		ldr	r3, .L399+4
 3113 0004 91ED000A 		vldr.32	s0, [r1]
 3114 0008 D3ED007A 		vldr.32	s15, [r3]
 3115              	.LVL262:
 3116              		.loc 1 872 0
 3117 000c 0022     		movs	r2, #0
 3118 000e 0A60     		str	r2, [r1]	@ float
 3119              		.loc 1 875 0
 3120 0010 80EE270A 		vdiv.f32	s0, s0, s15
 3121              	.LVL263:
 3122              		.loc 1 873 0
 3123 0014 1A60     		str	r2, [r3]	@ float
 3124              		.loc 1 875 0
 3125 0016 7047     		bx	lr
 3126              	.L400:
 3127              		.align	2
 3128              	.L399:
 3129 0018 00000000 		.word	.LANCHOR19
 3130 001c 00000000 		.word	.LANCHOR21
 3131              		.cfi_endproc
 3132              	.LFE297:
 3133              		.size	mc_interface_read_reset_avg_input_current, .-mc_interface_read_reset_avg_input_current
 3134              		.section	.text.mc_interface_read_reset_avg_id,"ax",%progbits
 3135              		.align	1
ARM GAS  /tmp/ccETYwEL.s 			page 56


 3136              		.p2align 4,,15
 3137              		.global	mc_interface_read_reset_avg_id
 3138              		.syntax unified
 3139              		.thumb
 3140              		.thumb_func
 3141              		.fpu fpv4-sp-d16
 3142              		.type	mc_interface_read_reset_avg_id, %function
 3143              	mc_interface_read_reset_avg_id:
 3144              	.LFB298:
 3145              		.loc 1 883 0
 3146              		.cfi_startproc
 3147              		@ args = 0, pretend = 0, frame = 0
 3148              		@ frame_needed = 0, uses_anonymous_args = 0
 3149              		@ link register save eliminated.
 3150              		.loc 1 884 0
 3151 0000 084B     		ldr	r3, .L406
 3152 0002 0949     		ldr	r1, .L406+4
 3153              		.loc 1 887 0
 3154 0004 0948     		ldr	r0, .L406+8
 3155              		.loc 1 884 0
 3156 0006 91ED007A 		vldr.32	s14, [r1]
 3157 000a D3ED007A 		vldr.32	s15, [r3]
 3158              		.loc 1 885 0
 3159 000e 0022     		movs	r2, #0
 3160 0010 0A60     		str	r2, [r1]	@ float
 3161              		.loc 1 886 0
 3162 0012 1A60     		str	r2, [r3]	@ float
 3163              		.loc 1 887 0
 3164 0014 90F86931 		ldrb	r3, [r0, #361]	@ zero_extendqisi2
 3165              		.loc 1 884 0
 3166 0018 87EE270A 		vdiv.f32	s0, s14, s15
 3167              	.LVL264:
 3168              		.loc 1 887 0
 3169 001c 0BB1     		cbz	r3, .L401
 3170 001e B1EE400A 		vneg.f32	s0, s0
 3171              	.LVL265:
 3172              	.L401:
 3173              		.loc 1 888 0
 3174 0022 7047     		bx	lr
 3175              	.L407:
 3176              		.align	2
 3177              	.L406:
 3178 0024 00000000 		.word	.LANCHOR24
 3179 0028 00000000 		.word	.LANCHOR22
 3180 002c 00000000 		.word	.LANCHOR12
 3181              		.cfi_endproc
 3182              	.LFE298:
 3183              		.size	mc_interface_read_reset_avg_id, .-mc_interface_read_reset_avg_id
 3184              		.section	.text.mc_interface_read_reset_avg_iq,"ax",%progbits
 3185              		.align	1
 3186              		.p2align 4,,15
 3187              		.global	mc_interface_read_reset_avg_iq
 3188              		.syntax unified
 3189              		.thumb
 3190              		.thumb_func
 3191              		.fpu fpv4-sp-d16
 3192              		.type	mc_interface_read_reset_avg_iq, %function
ARM GAS  /tmp/ccETYwEL.s 			page 57


 3193              	mc_interface_read_reset_avg_iq:
 3194              	.LFB299:
 3195              		.loc 1 896 0
 3196              		.cfi_startproc
 3197              		@ args = 0, pretend = 0, frame = 0
 3198              		@ frame_needed = 0, uses_anonymous_args = 0
 3199              		@ link register save eliminated.
 3200              		.loc 1 897 0
 3201 0000 084B     		ldr	r3, .L413
 3202 0002 0949     		ldr	r1, .L413+4
 3203              		.loc 1 900 0
 3204 0004 0948     		ldr	r0, .L413+8
 3205              		.loc 1 897 0
 3206 0006 91ED007A 		vldr.32	s14, [r1]
 3207 000a D3ED007A 		vldr.32	s15, [r3]
 3208              		.loc 1 898 0
 3209 000e 0022     		movs	r2, #0
 3210 0010 0A60     		str	r2, [r1]	@ float
 3211              		.loc 1 899 0
 3212 0012 1A60     		str	r2, [r3]	@ float
 3213              		.loc 1 900 0
 3214 0014 90F86931 		ldrb	r3, [r0, #361]	@ zero_extendqisi2
 3215              		.loc 1 897 0
 3216 0018 87EE270A 		vdiv.f32	s0, s14, s15
 3217              	.LVL266:
 3218              		.loc 1 900 0
 3219 001c 0BB1     		cbz	r3, .L408
 3220 001e B1EE400A 		vneg.f32	s0, s0
 3221              	.LVL267:
 3222              	.L408:
 3223              		.loc 1 901 0
 3224 0022 7047     		bx	lr
 3225              	.L414:
 3226              		.align	2
 3227              	.L413:
 3228 0024 00000000 		.word	.LANCHOR25
 3229 0028 00000000 		.word	.LANCHOR23
 3230 002c 00000000 		.word	.LANCHOR12
 3231              		.cfi_endproc
 3232              	.LFE299:
 3233              		.size	mc_interface_read_reset_avg_iq, .-mc_interface_read_reset_avg_iq
 3234              		.section	.text.mc_interface_get_pid_pos_set,"ax",%progbits
 3235              		.align	1
 3236              		.p2align 4,,15
 3237              		.global	mc_interface_get_pid_pos_set
 3238              		.syntax unified
 3239              		.thumb
 3240              		.thumb_func
 3241              		.fpu fpv4-sp-d16
 3242              		.type	mc_interface_get_pid_pos_set, %function
 3243              	mc_interface_get_pid_pos_set:
 3244              	.LFB300:
 3245              		.loc 1 903 0
 3246              		.cfi_startproc
 3247              		@ args = 0, pretend = 0, frame = 0
 3248              		@ frame_needed = 0, uses_anonymous_args = 0
 3249              		@ link register save eliminated.
ARM GAS  /tmp/ccETYwEL.s 			page 58


 3250              		.loc 1 904 0
 3251 0000 014B     		ldr	r3, .L416
 3252 0002 93ED000A 		vldr.32	s0, [r3]
 3253              		.loc 1 905 0
 3254 0006 7047     		bx	lr
 3255              	.L417:
 3256              		.align	2
 3257              	.L416:
 3258 0008 00000000 		.word	.LANCHOR30
 3259              		.cfi_endproc
 3260              	.LFE300:
 3261              		.size	mc_interface_get_pid_pos_set, .-mc_interface_get_pid_pos_set
 3262              		.section	.text.mc_interface_get_pid_pos_now,"ax",%progbits
 3263              		.align	1
 3264              		.p2align 4,,15
 3265              		.global	mc_interface_get_pid_pos_now
 3266              		.syntax unified
 3267              		.thumb
 3268              		.thumb_func
 3269              		.fpu fpv4-sp-d16
 3270              		.type	mc_interface_get_pid_pos_now, %function
 3271              	mc_interface_get_pid_pos_now:
 3272              	.LFB301:
 3273              		.loc 1 907 0
 3274              		.cfi_startproc
 3275              		@ args = 0, pretend = 0, frame = 8
 3276              		@ frame_needed = 0, uses_anonymous_args = 0
 3277 0000 10B5     		push	{r4, lr}
 3278              		.cfi_def_cfa_offset 8
 3279              		.cfi_offset 4, -8
 3280              		.cfi_offset 14, -4
 3281              		.loc 1 910 0
 3282 0002 104C     		ldr	r4, .L429
 3283              		.loc 1 908 0
 3284 0004 9FED100A 		vldr.32	s0, .L429+4
 3285              		.loc 1 910 0
 3286 0008 A378     		ldrb	r3, [r4, #2]	@ zero_extendqisi2
 3287 000a DBB2     		uxtb	r3, r3
 3288              		.loc 1 907 0
 3289 000c 82B0     		sub	sp, sp, #8
 3290              		.cfi_def_cfa_offset 16
 3291              		.loc 1 910 0
 3292 000e 012B     		cmp	r3, #1
 3293              		.loc 1 908 0
 3294 0010 8DED010A 		vstr.32	s0, [sp, #4]
 3295              		.loc 1 910 0
 3296 0014 12D9     		bls	.L420
 3297 0016 022B     		cmp	r3, #2
 3298 0018 0DD0     		beq	.L421
 3299              	.L419:
 3300              		.loc 1 924 0
 3301 001a 94F86931 		ldrb	r3, [r4, #361]	@ zero_extendqisi2
 3302 001e 0BB1     		cbz	r3, .L422
 3303 0020 B1EE400A 		vneg.f32	s0, s0
 3304              	.L422:
 3305              		.loc 1 924 0 is_stmt 0 discriminator 4
 3306 0024 02A8     		add	r0, sp, #8
ARM GAS  /tmp/ccETYwEL.s 			page 59


 3307 0026 20ED010A 		vstmdb.32	r0!, {s0}
 3308              		.loc 1 925 0 is_stmt 1 discriminator 4
 3309 002a FFF7FEFF 		bl	utils_norm_angle
 3310              	.LVL268:
 3311              		.loc 1 928 0 discriminator 4
 3312 002e 9DED010A 		vldr.32	s0, [sp, #4]
 3313 0032 02B0     		add	sp, sp, #8
 3314              		.cfi_remember_state
 3315              		.cfi_def_cfa_offset 8
 3316              		@ sp needed
 3317 0034 10BD     		pop	{r4, pc}
 3318              	.L421:
 3319              		.cfi_restore_state
 3320              		.loc 1 917 0
 3321 0036 FFF7FEFF 		bl	mcpwm_foc_get_pid_pos_now
 3322              	.LVL269:
 3323              		.loc 1 918 0
 3324 003a EEE7     		b	.L419
 3325              	.L420:
 3326              		.loc 1 913 0
 3327 003c FFF7FEFF 		bl	encoder_read_deg
 3328              	.LVL270:
 3329              		.loc 1 914 0
 3330 0040 EBE7     		b	.L419
 3331              	.L430:
 3332 0042 00BF     		.align	2
 3333              	.L429:
 3334 0044 00000000 		.word	.LANCHOR12
 3335 0048 00000000 		.word	0
 3336              		.cfi_endproc
 3337              	.LFE301:
 3338              		.size	mc_interface_get_pid_pos_now, .-mc_interface_get_pid_pos_now
 3339              		.section	.text.mc_interface_get_last_sample_adc_isr_duration,"ax",%progbits
 3340              		.align	1
 3341              		.p2align 4,,15
 3342              		.global	mc_interface_get_last_sample_adc_isr_duration
 3343              		.syntax unified
 3344              		.thumb
 3345              		.thumb_func
 3346              		.fpu fpv4-sp-d16
 3347              		.type	mc_interface_get_last_sample_adc_isr_duration, %function
 3348              	mc_interface_get_last_sample_adc_isr_duration:
 3349              	.LFB302:
 3350              		.loc 1 930 0
 3351              		.cfi_startproc
 3352              		@ args = 0, pretend = 0, frame = 0
 3353              		@ frame_needed = 0, uses_anonymous_args = 0
 3354              		@ link register save eliminated.
 3355              		.loc 1 931 0
 3356 0000 014B     		ldr	r3, .L432
 3357 0002 93ED000A 		vldr.32	s0, [r3]
 3358              		.loc 1 932 0
 3359 0006 7047     		bx	lr
 3360              	.L433:
 3361              		.align	2
 3362              	.L432:
 3363 0008 00000000 		.word	.LANCHOR31
ARM GAS  /tmp/ccETYwEL.s 			page 60


 3364              		.cfi_endproc
 3365              	.LFE302:
 3366              		.size	mc_interface_get_last_sample_adc_isr_duration, .-mc_interface_get_last_sample_adc_isr_durati
 3367              		.section	.text.mc_interface_sample_print_data,"ax",%progbits
 3368              		.align	1
 3369              		.p2align 4,,15
 3370              		.global	mc_interface_sample_print_data
 3371              		.syntax unified
 3372              		.thumb
 3373              		.thumb_func
 3374              		.fpu fpv4-sp-d16
 3375              		.type	mc_interface_sample_print_data, %function
 3376              	mc_interface_sample_print_data:
 3377              	.LFB303:
 3378              		.loc 1 934 0
 3379              		.cfi_startproc
 3380              		@ args = 0, pretend = 0, frame = 0
 3381              		@ frame_needed = 0, uses_anonymous_args = 0
 3382              		@ link register save eliminated.
 3383              	.LVL271:
 3384 0000 B1F5FA6F 		cmp	r1, #2000
 3385 0004 28BF     		it	cs
 3386 0006 4FF4FA61 		movcs	r1, #2000
 3387              	.LVL272:
 3388              		.loc 1 939 0
 3389 000a 0728     		cmp	r0, #7
 3390 000c 0FD0     		beq	.L438
 3391              		.loc 1 934 0
 3392 000e F0B4     		push	{r4, r5, r6, r7}
 3393              		.cfi_def_cfa_offset 16
 3394              		.cfi_offset 4, -16
 3395              		.cfi_offset 5, -12
 3396              		.cfi_offset 6, -8
 3397              		.cfi_offset 7, -4
 3398              		.loc 1 942 0
 3399 0010 094E     		ldr	r6, .L439
 3400              		.loc 1 943 0
 3401 0012 0A4B     		ldr	r3, .L439+4
 3402              		.loc 1 944 0
 3403 0014 0A4D     		ldr	r5, .L439+8
 3404              		.loc 1 945 0
 3405 0016 0B4C     		ldr	r4, .L439+12
 3406              		.loc 1 942 0
 3407 0018 4FF0FF37 		mov	r7, #-1
 3408 001c 3760     		str	r7, [r6]
 3409              		.loc 1 943 0
 3410 001e 0026     		movs	r6, #0
 3411 0020 1E60     		str	r6, [r3]
 3412              		.loc 1 946 0
 3413 0022 094B     		ldr	r3, .L439+16
 3414              		.loc 1 944 0
 3415 0024 2960     		str	r1, [r5]
 3416              		.loc 1 945 0
 3417 0026 2260     		str	r2, [r4]
 3418              		.loc 1 946 0
 3419 0028 1870     		strb	r0, [r3]
 3420              		.loc 1 948 0
ARM GAS  /tmp/ccETYwEL.s 			page 61


 3421 002a F0BC     		pop	{r4, r5, r6, r7}
 3422              		.cfi_restore 7
 3423              		.cfi_restore 6
 3424              		.cfi_restore 5
 3425              		.cfi_restore 4
 3426              		.cfi_def_cfa_offset 0
 3427 002c 7047     		bx	lr
 3428              	.L438:
 3429              		.loc 1 940 0
 3430 002e 074B     		ldr	r3, .L439+20
 3431 0030 0121     		movs	r1, #1
 3432              	.LVL273:
 3433 0032 1868     		ldr	r0, [r3]
 3434              	.LVL274:
 3435 0034 FFF7FEBF 		b	chEvtSignal
 3436              	.LVL275:
 3437              	.L440:
 3438              		.align	2
 3439              	.L439:
 3440 0038 00000000 		.word	.LANCHOR3
 3441 003c 00000000 		.word	.LANCHOR35
 3442 0040 00000000 		.word	.LANCHOR2
 3443 0044 00000000 		.word	.LANCHOR34
 3444 0048 00000000 		.word	.LANCHOR36
 3445 004c 00000000 		.word	.LANCHOR0
 3446              		.cfi_endproc
 3447              	.LFE303:
 3448              		.size	mc_interface_sample_print_data, .-mc_interface_sample_print_data
 3449              		.section	.text.mc_interface_temp_fet_filtered,"ax",%progbits
 3450              		.align	1
 3451              		.p2align 4,,15
 3452              		.global	mc_interface_temp_fet_filtered
 3453              		.syntax unified
 3454              		.thumb
 3455              		.thumb_func
 3456              		.fpu fpv4-sp-d16
 3457              		.type	mc_interface_temp_fet_filtered, %function
 3458              	mc_interface_temp_fet_filtered:
 3459              	.LFB304:
 3460              		.loc 1 957 0
 3461              		.cfi_startproc
 3462              		@ args = 0, pretend = 0, frame = 0
 3463              		@ frame_needed = 0, uses_anonymous_args = 0
 3464              		@ link register save eliminated.
 3465              		.loc 1 958 0
 3466 0000 014B     		ldr	r3, .L442
 3467 0002 93ED000A 		vldr.32	s0, [r3]
 3468              		.loc 1 959 0
 3469 0006 7047     		bx	lr
 3470              	.L443:
 3471              		.align	2
 3472              	.L442:
 3473 0008 00000000 		.word	.LANCHOR32
 3474              		.cfi_endproc
 3475              	.LFE304:
 3476              		.size	mc_interface_temp_fet_filtered, .-mc_interface_temp_fet_filtered
 3477              		.section	.text.mc_interface_temp_motor_filtered,"ax",%progbits
ARM GAS  /tmp/ccETYwEL.s 			page 62


 3478              		.align	1
 3479              		.p2align 4,,15
 3480              		.global	mc_interface_temp_motor_filtered
 3481              		.syntax unified
 3482              		.thumb
 3483              		.thumb_func
 3484              		.fpu fpv4-sp-d16
 3485              		.type	mc_interface_temp_motor_filtered, %function
 3486              	mc_interface_temp_motor_filtered:
 3487              	.LFB305:
 3488              		.loc 1 968 0
 3489              		.cfi_startproc
 3490              		@ args = 0, pretend = 0, frame = 0
 3491              		@ frame_needed = 0, uses_anonymous_args = 0
 3492              		@ link register save eliminated.
 3493              		.loc 1 969 0
 3494 0000 014B     		ldr	r3, .L445
 3495 0002 93ED000A 		vldr.32	s0, [r3]
 3496              		.loc 1 970 0
 3497 0006 7047     		bx	lr
 3498              	.L446:
 3499              		.align	2
 3500              	.L445:
 3501 0008 00000000 		.word	.LANCHOR33
 3502              		.cfi_endproc
 3503              	.LFE305:
 3504              		.size	mc_interface_temp_motor_filtered, .-mc_interface_temp_motor_filtered
 3505              		.section	.text.mc_interface_try_input,"ax",%progbits
 3506              		.align	1
 3507              		.p2align 4,,15
 3508              		.global	mc_interface_try_input
 3509              		.syntax unified
 3510              		.thumb
 3511              		.thumb_func
 3512              		.fpu fpv4-sp-d16
 3513              		.type	mc_interface_try_input, %function
 3514              	mc_interface_try_input:
 3515              	.LFB306:
 3516              		.loc 1 982 0
 3517              		.cfi_startproc
 3518              		@ args = 0, pretend = 0, frame = 0
 3519              		@ frame_needed = 0, uses_anonymous_args = 0
 3520 0000 10B5     		push	{r4, lr}
 3521              		.cfi_def_cfa_offset 8
 3522              		.cfi_offset 4, -8
 3523              		.cfi_offset 14, -4
 3524              		.loc 1 984 0
 3525 0002 FFF7FEFF 		bl	mc_interface_get_state
 3526              	.LVL276:
 3527 0006 0128     		cmp	r0, #1
 3528 0008 22D0     		beq	.L462
 3529              		.loc 1 989 0
 3530 000a 164B     		ldr	r3, .L466
 3531 000c 1C68     		ldr	r4, [r3]
 3532              	.LVL277:
 3533              		.loc 1 991 0
 3534 000e 14B9     		cbnz	r4, .L449
ARM GAS  /tmp/ccETYwEL.s 			page 63


 3535              		.loc 1 991 0 is_stmt 0 discriminator 1
 3536 0010 154B     		ldr	r3, .L466+4
 3537 0012 1B78     		ldrb	r3, [r3]	@ zero_extendqisi2
 3538 0014 63B9     		cbnz	r3, .L463
 3539              	.LVL278:
 3540              	.L449:
 3541              		.loc 1 999 0 is_stmt 1
 3542 0016 154B     		ldr	r3, .L466+8
 3543 0018 9B78     		ldrb	r3, [r3, #2]	@ zero_extendqisi2
 3544 001a DBB2     		uxtb	r3, r3
 3545 001c 012B     		cmp	r3, #1
 3546 001e 11D9     		bls	.L451
 3547              	.L465:
 3548 0020 022B     		cmp	r3, #2
 3549 0022 03D1     		bne	.L447
 3550              		.loc 1 1008 0
 3551 0024 FFF7FEFF 		bl	mcpwm_foc_init_done
 3552              	.LVL279:
 3553 0028 00B9     		cbnz	r0, .L447
 3554              	.LVL280:
 3555              		.loc 1 1003 0
 3556 002a 0124     		movs	r4, #1
 3557              	.LVL281:
 3558              	.L447:
 3559              		.loc 1 1018 0
 3560 002c 2046     		mov	r0, r4
 3561 002e 10BD     		pop	{r4, pc}
 3562              	.LVL282:
 3563              	.L463:
 3564              		.loc 1 992 0
 3565 0030 0F4B     		ldr	r3, .L466+12
 3566 0032 1A78     		ldrb	r2, [r3]	@ zero_extendqisi2
 3567 0034 9AB9     		cbnz	r2, .L464
 3568              		.loc 1 999 0
 3569 0036 0D4B     		ldr	r3, .L466+8
 3570 0038 9B78     		ldrb	r3, [r3, #2]	@ zero_extendqisi2
 3571 003a DBB2     		uxtb	r3, r3
 3572 003c 012B     		cmp	r3, #1
 3573              		.loc 1 993 0
 3574 003e 4FF00104 		mov	r4, #1
 3575              	.LVL283:
 3576              		.loc 1 999 0
 3577 0042 EDD8     		bhi	.L465
 3578              	.L451:
 3579              		.loc 1 1002 0
 3580 0044 FFF7FEFF 		bl	mcpwm_init_done
 3581              	.LVL284:
 3582 0048 0028     		cmp	r0, #0
 3583 004a EFD1     		bne	.L447
 3584              	.LVL285:
 3585              		.loc 1 1003 0
 3586 004c 0124     		movs	r4, #1
 3587 004e EDE7     		b	.L447
 3588              	.LVL286:
 3589              	.L462:
 3590              		.loc 1 985 0
 3591 0050 FFF7FEFF 		bl	mcpwm_stop_pwm
ARM GAS  /tmp/ccETYwEL.s 			page 64


 3592              	.LVL287:
 3593              		.loc 1 986 0
 3594 0054 034B     		ldr	r3, .L466
 3595 0056 4FF4FA74 		mov	r4, #500
 3596 005a 1C60     		str	r4, [r3]
 3597              	.LVL288:
 3598 005c DBE7     		b	.L449
 3599              	.LVL289:
 3600              	.L464:
 3601              		.loc 1 995 0
 3602 005e 1C70     		strb	r4, [r3]
 3603 0060 D9E7     		b	.L449
 3604              	.L467:
 3605 0062 00BF     		.align	2
 3606              	.L466:
 3607 0064 00000000 		.word	.LANCHOR14
 3608 0068 00000000 		.word	.LANCHOR16
 3609 006c 00000000 		.word	.LANCHOR12
 3610 0070 00000000 		.word	.LANCHOR17
 3611              		.cfi_endproc
 3612              	.LFE306:
 3613              		.size	mc_interface_try_input, .-mc_interface_try_input
 3614              		.section	.text.mc_interface_set_duty,"ax",%progbits
 3615              		.align	1
 3616              		.p2align 4,,15
 3617              		.global	mc_interface_set_duty
 3618              		.syntax unified
 3619              		.thumb
 3620              		.thumb_func
 3621              		.fpu fpv4-sp-d16
 3622              		.type	mc_interface_set_duty, %function
 3623              	mc_interface_set_duty:
 3624              	.LFB267:
 3625              		.loc 1 327 0
 3626              		.cfi_startproc
 3627              		@ args = 0, pretend = 0, frame = 0
 3628              		@ frame_needed = 0, uses_anonymous_args = 0
 3629              	.LVL290:
 3630 0000 08B5     		push	{r3, lr}
 3631              		.cfi_def_cfa_offset 8
 3632              		.cfi_offset 3, -8
 3633              		.cfi_offset 14, -4
 3634 0002 2DED028B 		vpush.64	{d8}
 3635              		.cfi_def_cfa_offset 16
 3636              		.cfi_offset 80, -16
 3637              		.cfi_offset 81, -12
 3638              		.loc 1 327 0
 3639 0006 B0EE408A 		vmov.f32	s16, s0
 3640              		.loc 1 328 0
 3641 000a FFF7FEFF 		bl	mc_interface_try_input
 3642              	.LVL291:
 3643 000e 98B9     		cbnz	r0, .L468
 3644              		.loc 1 332 0
 3645 0010 114A     		ldr	r2, .L481
 3646 0012 9378     		ldrb	r3, [r2, #2]	@ zero_extendqisi2
 3647 0014 DBB2     		uxtb	r3, r3
 3648 0016 012B     		cmp	r3, #1
ARM GAS  /tmp/ccETYwEL.s 			page 65


 3649 0018 11D9     		bls	.L470
 3650 001a 022B     		cmp	r3, #2
 3651 001c 0CD1     		bne	.L468
 3652              		.loc 1 339 0
 3653 001e 92F86931 		ldrb	r3, [r2, #361]	@ zero_extendqisi2
 3654 0022 0BB1     		cbz	r3, .L473
 3655 0024 B1EE488A 		vneg.f32	s16, s16
 3656              	.LVL292:
 3657              	.L473:
 3658              		.loc 1 339 0 is_stmt 0 discriminator 4
 3659 0028 B0EE480A 		vmov.f32	s0, s16
 3660              		.loc 1 345 0 is_stmt 1 discriminator 4
 3661 002c BDEC028B 		vldm	sp!, {d8}
 3662              		.cfi_remember_state
 3663              		.cfi_restore 80
 3664              		.cfi_restore 81
 3665              		.cfi_def_cfa_offset 8
 3666 0030 BDE80840 		pop	{r3, lr}
 3667              		.cfi_restore 14
 3668              		.cfi_restore 3
 3669              		.cfi_def_cfa_offset 0
 3670              		.loc 1 339 0 discriminator 4
 3671 0034 FFF7FEBF 		b	mcpwm_foc_set_duty
 3672              	.LVL293:
 3673              	.L468:
 3674              		.cfi_restore_state
 3675              		.loc 1 345 0
 3676 0038 BDEC028B 		vldm	sp!, {d8}
 3677              		.cfi_remember_state
 3678              		.cfi_restore 80
 3679              		.cfi_restore 81
 3680              		.cfi_def_cfa_offset 8
 3681              	.LVL294:
 3682 003c 08BD     		pop	{r3, pc}
 3683              	.LVL295:
 3684              	.L470:
 3685              		.cfi_restore_state
 3686              	.LBB161:
 3687              	.LBB162:
 3688              		.loc 1 335 0
 3689 003e 92F86931 		ldrb	r3, [r2, #361]	@ zero_extendqisi2
 3690 0042 0BB1     		cbz	r3, .L472
 3691 0044 B1EE488A 		vneg.f32	s16, s16
 3692              	.LVL296:
 3693              	.L472:
 3694 0048 B0EE480A 		vmov.f32	s0, s16
 3695              	.LBE162:
 3696              	.LBE161:
 3697              		.loc 1 345 0
 3698 004c BDEC028B 		vldm	sp!, {d8}
 3699              		.cfi_restore 80
 3700              		.cfi_restore 81
 3701              		.cfi_def_cfa_offset 8
 3702 0050 BDE80840 		pop	{r3, lr}
 3703              		.cfi_restore 14
 3704              		.cfi_restore 3
 3705              		.cfi_def_cfa_offset 0
ARM GAS  /tmp/ccETYwEL.s 			page 66


 3706              	.LBB164:
 3707              	.LBB163:
 3708              		.loc 1 335 0
 3709 0054 FFF7FEBF 		b	mcpwm_set_duty
 3710              	.LVL297:
 3711              	.L482:
 3712              		.align	2
 3713              	.L481:
 3714 0058 00000000 		.word	.LANCHOR12
 3715              	.LBE163:
 3716              	.LBE164:
 3717              		.cfi_endproc
 3718              	.LFE267:
 3719              		.size	mc_interface_set_duty, .-mc_interface_set_duty
 3720              		.section	.text.mc_interface_brake_now,"ax",%progbits
 3721              		.align	1
 3722              		.p2align 4,,15
 3723              		.global	mc_interface_brake_now
 3724              		.syntax unified
 3725              		.thumb
 3726              		.thumb_func
 3727              		.fpu fpv4-sp-d16
 3728              		.type	mc_interface_brake_now, %function
 3729              	mc_interface_brake_now:
 3730              	.LFB277:
 3731              		.loc 1 513 0
 3732              		.cfi_startproc
 3733              		@ args = 0, pretend = 0, frame = 0
 3734              		@ frame_needed = 0, uses_anonymous_args = 0
 3735              		@ link register save eliminated.
 3736              		.loc 1 514 0
 3737 0000 9FED010A 		vldr.32	s0, .L484
 3738 0004 FFF7FEBF 		b	mc_interface_set_duty
 3739              	.LVL298:
 3740              	.L485:
 3741              		.align	2
 3742              	.L484:
 3743 0008 00000000 		.word	0
 3744              		.cfi_endproc
 3745              	.LFE277:
 3746              		.size	mc_interface_brake_now, .-mc_interface_brake_now
 3747              		.section	.text.mc_interface_set_duty_noramp,"ax",%progbits
 3748              		.align	1
 3749              		.p2align 4,,15
 3750              		.global	mc_interface_set_duty_noramp
 3751              		.syntax unified
 3752              		.thumb
 3753              		.thumb_func
 3754              		.fpu fpv4-sp-d16
 3755              		.type	mc_interface_set_duty_noramp, %function
 3756              	mc_interface_set_duty_noramp:
 3757              	.LFB268:
 3758              		.loc 1 347 0
 3759              		.cfi_startproc
 3760              		@ args = 0, pretend = 0, frame = 0
 3761              		@ frame_needed = 0, uses_anonymous_args = 0
 3762              	.LVL299:
ARM GAS  /tmp/ccETYwEL.s 			page 67


 3763 0000 08B5     		push	{r3, lr}
 3764              		.cfi_def_cfa_offset 8
 3765              		.cfi_offset 3, -8
 3766              		.cfi_offset 14, -4
 3767 0002 2DED028B 		vpush.64	{d8}
 3768              		.cfi_def_cfa_offset 16
 3769              		.cfi_offset 80, -16
 3770              		.cfi_offset 81, -12
 3771              		.loc 1 347 0
 3772 0006 B0EE408A 		vmov.f32	s16, s0
 3773              		.loc 1 348 0
 3774 000a FFF7FEFF 		bl	mc_interface_try_input
 3775              	.LVL300:
 3776 000e 98B9     		cbnz	r0, .L486
 3777              		.loc 1 352 0
 3778 0010 114A     		ldr	r2, .L499
 3779 0012 9378     		ldrb	r3, [r2, #2]	@ zero_extendqisi2
 3780 0014 DBB2     		uxtb	r3, r3
 3781 0016 012B     		cmp	r3, #1
 3782 0018 11D9     		bls	.L488
 3783 001a 022B     		cmp	r3, #2
 3784 001c 0CD1     		bne	.L486
 3785              		.loc 1 359 0
 3786 001e 92F86931 		ldrb	r3, [r2, #361]	@ zero_extendqisi2
 3787 0022 0BB1     		cbz	r3, .L491
 3788 0024 B1EE488A 		vneg.f32	s16, s16
 3789              	.LVL301:
 3790              	.L491:
 3791              		.loc 1 359 0 is_stmt 0 discriminator 4
 3792 0028 B0EE480A 		vmov.f32	s0, s16
 3793              		.loc 1 365 0 is_stmt 1 discriminator 4
 3794 002c BDEC028B 		vldm	sp!, {d8}
 3795              		.cfi_remember_state
 3796              		.cfi_restore 80
 3797              		.cfi_restore 81
 3798              		.cfi_def_cfa_offset 8
 3799 0030 BDE80840 		pop	{r3, lr}
 3800              		.cfi_restore 14
 3801              		.cfi_restore 3
 3802              		.cfi_def_cfa_offset 0
 3803              		.loc 1 359 0 discriminator 4
 3804 0034 FFF7FEBF 		b	mcpwm_foc_set_duty_noramp
 3805              	.LVL302:
 3806              	.L486:
 3807              		.cfi_restore_state
 3808              		.loc 1 365 0
 3809 0038 BDEC028B 		vldm	sp!, {d8}
 3810              		.cfi_remember_state
 3811              		.cfi_restore 80
 3812              		.cfi_restore 81
 3813              		.cfi_def_cfa_offset 8
 3814              	.LVL303:
 3815 003c 08BD     		pop	{r3, pc}
 3816              	.LVL304:
 3817              	.L488:
 3818              		.cfi_restore_state
 3819              		.loc 1 355 0
ARM GAS  /tmp/ccETYwEL.s 			page 68


 3820 003e 92F86931 		ldrb	r3, [r2, #361]	@ zero_extendqisi2
 3821 0042 0BB1     		cbz	r3, .L490
 3822 0044 B1EE488A 		vneg.f32	s16, s16
 3823              	.LVL305:
 3824              	.L490:
 3825              		.loc 1 355 0 is_stmt 0 discriminator 4
 3826 0048 B0EE480A 		vmov.f32	s0, s16
 3827              		.loc 1 365 0 is_stmt 1 discriminator 4
 3828 004c BDEC028B 		vldm	sp!, {d8}
 3829              		.cfi_restore 80
 3830              		.cfi_restore 81
 3831              		.cfi_def_cfa_offset 8
 3832 0050 BDE80840 		pop	{r3, lr}
 3833              		.cfi_restore 14
 3834              		.cfi_restore 3
 3835              		.cfi_def_cfa_offset 0
 3836              		.loc 1 355 0 discriminator 4
 3837 0054 FFF7FEBF 		b	mcpwm_set_duty_noramp
 3838              	.LVL306:
 3839              	.L500:
 3840              		.align	2
 3841              	.L499:
 3842 0058 00000000 		.word	.LANCHOR12
 3843              		.cfi_endproc
 3844              	.LFE268:
 3845              		.size	mc_interface_set_duty_noramp, .-mc_interface_set_duty_noramp
 3846              		.section	.text.mc_interface_set_pid_speed,"ax",%progbits
 3847              		.align	1
 3848              		.p2align 4,,15
 3849              		.global	mc_interface_set_pid_speed
 3850              		.syntax unified
 3851              		.thumb
 3852              		.thumb_func
 3853              		.fpu fpv4-sp-d16
 3854              		.type	mc_interface_set_pid_speed, %function
 3855              	mc_interface_set_pid_speed:
 3856              	.LFB269:
 3857              		.loc 1 367 0
 3858              		.cfi_startproc
 3859              		@ args = 0, pretend = 0, frame = 0
 3860              		@ frame_needed = 0, uses_anonymous_args = 0
 3861              	.LVL307:
 3862 0000 08B5     		push	{r3, lr}
 3863              		.cfi_def_cfa_offset 8
 3864              		.cfi_offset 3, -8
 3865              		.cfi_offset 14, -4
 3866 0002 2DED028B 		vpush.64	{d8}
 3867              		.cfi_def_cfa_offset 16
 3868              		.cfi_offset 80, -16
 3869              		.cfi_offset 81, -12
 3870              		.loc 1 367 0
 3871 0006 B0EE408A 		vmov.f32	s16, s0
 3872              		.loc 1 368 0
 3873 000a FFF7FEFF 		bl	mc_interface_try_input
 3874              	.LVL308:
 3875 000e 98B9     		cbnz	r0, .L501
 3876              		.loc 1 372 0
ARM GAS  /tmp/ccETYwEL.s 			page 69


 3877 0010 114A     		ldr	r2, .L514
 3878 0012 9378     		ldrb	r3, [r2, #2]	@ zero_extendqisi2
 3879 0014 DBB2     		uxtb	r3, r3
 3880 0016 012B     		cmp	r3, #1
 3881 0018 11D9     		bls	.L503
 3882 001a 022B     		cmp	r3, #2
 3883 001c 0CD1     		bne	.L501
 3884              		.loc 1 379 0
 3885 001e 92F86931 		ldrb	r3, [r2, #361]	@ zero_extendqisi2
 3886 0022 0BB1     		cbz	r3, .L506
 3887 0024 B1EE488A 		vneg.f32	s16, s16
 3888              	.LVL309:
 3889              	.L506:
 3890              		.loc 1 379 0 is_stmt 0 discriminator 4
 3891 0028 B0EE480A 		vmov.f32	s0, s16
 3892              		.loc 1 385 0 is_stmt 1 discriminator 4
 3893 002c BDEC028B 		vldm	sp!, {d8}
 3894              		.cfi_remember_state
 3895              		.cfi_restore 80
 3896              		.cfi_restore 81
 3897              		.cfi_def_cfa_offset 8
 3898 0030 BDE80840 		pop	{r3, lr}
 3899              		.cfi_restore 14
 3900              		.cfi_restore 3
 3901              		.cfi_def_cfa_offset 0
 3902              		.loc 1 379 0 discriminator 4
 3903 0034 FFF7FEBF 		b	mcpwm_foc_set_pid_speed
 3904              	.LVL310:
 3905              	.L501:
 3906              		.cfi_restore_state
 3907              		.loc 1 385 0
 3908 0038 BDEC028B 		vldm	sp!, {d8}
 3909              		.cfi_remember_state
 3910              		.cfi_restore 80
 3911              		.cfi_restore 81
 3912              		.cfi_def_cfa_offset 8
 3913              	.LVL311:
 3914 003c 08BD     		pop	{r3, pc}
 3915              	.LVL312:
 3916              	.L503:
 3917              		.cfi_restore_state
 3918              		.loc 1 375 0
 3919 003e 92F86931 		ldrb	r3, [r2, #361]	@ zero_extendqisi2
 3920 0042 0BB1     		cbz	r3, .L505
 3921 0044 B1EE488A 		vneg.f32	s16, s16
 3922              	.LVL313:
 3923              	.L505:
 3924              		.loc 1 375 0 is_stmt 0 discriminator 4
 3925 0048 B0EE480A 		vmov.f32	s0, s16
 3926              		.loc 1 385 0 is_stmt 1 discriminator 4
 3927 004c BDEC028B 		vldm	sp!, {d8}
 3928              		.cfi_restore 80
 3929              		.cfi_restore 81
 3930              		.cfi_def_cfa_offset 8
 3931 0050 BDE80840 		pop	{r3, lr}
 3932              		.cfi_restore 14
 3933              		.cfi_restore 3
ARM GAS  /tmp/ccETYwEL.s 			page 70


 3934              		.cfi_def_cfa_offset 0
 3935              		.loc 1 375 0 discriminator 4
 3936 0054 FFF7FEBF 		b	mcpwm_set_pid_speed
 3937              	.LVL314:
 3938              	.L515:
 3939              		.align	2
 3940              	.L514:
 3941 0058 00000000 		.word	.LANCHOR12
 3942              		.cfi_endproc
 3943              	.LFE269:
 3944              		.size	mc_interface_set_pid_speed, .-mc_interface_set_pid_speed
 3945              		.section	.text.mc_interface_set_pid_pos,"ax",%progbits
 3946              		.align	1
 3947              		.p2align 4,,15
 3948              		.global	mc_interface_set_pid_pos
 3949              		.syntax unified
 3950              		.thumb
 3951              		.thumb_func
 3952              		.fpu fpv4-sp-d16
 3953              		.type	mc_interface_set_pid_pos, %function
 3954              	mc_interface_set_pid_pos:
 3955              	.LFB270:
 3956              		.loc 1 387 0
 3957              		.cfi_startproc
 3958              		@ args = 0, pretend = 0, frame = 8
 3959              		@ frame_needed = 0, uses_anonymous_args = 0
 3960              	.LVL315:
 3961 0000 10B5     		push	{r4, lr}
 3962              		.cfi_def_cfa_offset 8
 3963              		.cfi_offset 4, -8
 3964              		.cfi_offset 14, -4
 3965 0002 82B0     		sub	sp, sp, #8
 3966              		.cfi_def_cfa_offset 16
 3967              		.loc 1 387 0
 3968 0004 8DED010A 		vstr.32	s0, [sp, #4]
 3969              		.loc 1 388 0
 3970 0008 FFF7FEFF 		bl	mc_interface_try_input
 3971              	.LVL316:
 3972 000c C8B9     		cbnz	r0, .L516
 3973              		.loc 1 392 0
 3974 000e 114B     		ldr	r3, .L525
 3975 0010 DDED017A 		vldr.32	s15, [sp, #4]
 3976              		.loc 1 394 0
 3977 0014 104C     		ldr	r4, .L525+4
 3978              		.loc 1 392 0
 3979 0016 C3ED007A 		vstr.32	s15, [r3]
 3980              		.loc 1 394 0
 3981 001a 94F86931 		ldrb	r3, [r4, #361]	@ zero_extendqisi2
 3982 001e 0BB1     		cbz	r3, .L518
 3983 0020 F1EE677A 		vneg.f32	s15, s15
 3984              	.L518:
 3985              		.loc 1 394 0 is_stmt 0 discriminator 4
 3986 0024 02A8     		add	r0, sp, #8
 3987 0026 60ED017A 		vstmdb.32	r0!, {s15}
 3988              		.loc 1 395 0 is_stmt 1 discriminator 4
 3989 002a FFF7FEFF 		bl	utils_norm_angle
 3990              	.LVL317:
ARM GAS  /tmp/ccETYwEL.s 			page 71


 3991              		.loc 1 397 0 discriminator 4
 3992 002e A378     		ldrb	r3, [r4, #2]	@ zero_extendqisi2
 3993 0030 DBB2     		uxtb	r3, r3
 3994 0032 012B     		cmp	r3, #1
 3995 0034 07D9     		bls	.L519
 3996 0036 022B     		cmp	r3, #2
 3997 0038 03D1     		bne	.L516
 3998              		.loc 1 404 0
 3999 003a 9DED010A 		vldr.32	s0, [sp, #4]
 4000 003e FFF7FEFF 		bl	mcpwm_foc_set_pid_pos
 4001              	.LVL318:
 4002              	.L516:
 4003              		.loc 1 410 0
 4004 0042 02B0     		add	sp, sp, #8
 4005              		.cfi_remember_state
 4006              		.cfi_def_cfa_offset 8
 4007              		@ sp needed
 4008 0044 10BD     		pop	{r4, pc}
 4009              	.L519:
 4010              		.cfi_restore_state
 4011              		.loc 1 400 0
 4012 0046 9DED010A 		vldr.32	s0, [sp, #4]
 4013 004a FFF7FEFF 		bl	mcpwm_set_pid_pos
 4014              	.LVL319:
 4015              		.loc 1 410 0
 4016 004e 02B0     		add	sp, sp, #8
 4017              		.cfi_def_cfa_offset 8
 4018              		@ sp needed
 4019 0050 10BD     		pop	{r4, pc}
 4020              	.L526:
 4021 0052 00BF     		.align	2
 4022              	.L525:
 4023 0054 00000000 		.word	.LANCHOR30
 4024 0058 00000000 		.word	.LANCHOR12
 4025              		.cfi_endproc
 4026              	.LFE270:
 4027              		.size	mc_interface_set_pid_pos, .-mc_interface_set_pid_pos
 4028              		.section	.text.mc_interface_set_current,"ax",%progbits
 4029              		.align	1
 4030              		.p2align 4,,15
 4031              		.global	mc_interface_set_current
 4032              		.syntax unified
 4033              		.thumb
 4034              		.thumb_func
 4035              		.fpu fpv4-sp-d16
 4036              		.type	mc_interface_set_current, %function
 4037              	mc_interface_set_current:
 4038              	.LFB271:
 4039              		.loc 1 412 0
 4040              		.cfi_startproc
 4041              		@ args = 0, pretend = 0, frame = 0
 4042              		@ frame_needed = 0, uses_anonymous_args = 0
 4043              	.LVL320:
 4044 0000 08B5     		push	{r3, lr}
 4045              		.cfi_def_cfa_offset 8
 4046              		.cfi_offset 3, -8
 4047              		.cfi_offset 14, -4
ARM GAS  /tmp/ccETYwEL.s 			page 72


 4048 0002 2DED028B 		vpush.64	{d8}
 4049              		.cfi_def_cfa_offset 16
 4050              		.cfi_offset 80, -16
 4051              		.cfi_offset 81, -12
 4052              		.loc 1 412 0
 4053 0006 B0EE408A 		vmov.f32	s16, s0
 4054              		.loc 1 413 0
 4055 000a FFF7FEFF 		bl	mc_interface_try_input
 4056              	.LVL321:
 4057 000e 98B9     		cbnz	r0, .L527
 4058              		.loc 1 417 0
 4059 0010 114A     		ldr	r2, .L540
 4060 0012 9378     		ldrb	r3, [r2, #2]	@ zero_extendqisi2
 4061 0014 DBB2     		uxtb	r3, r3
 4062 0016 012B     		cmp	r3, #1
 4063 0018 11D9     		bls	.L529
 4064 001a 022B     		cmp	r3, #2
 4065 001c 0CD1     		bne	.L527
 4066              		.loc 1 424 0
 4067 001e 92F86931 		ldrb	r3, [r2, #361]	@ zero_extendqisi2
 4068 0022 0BB1     		cbz	r3, .L532
 4069 0024 B1EE488A 		vneg.f32	s16, s16
 4070              	.LVL322:
 4071              	.L532:
 4072              		.loc 1 424 0 is_stmt 0 discriminator 4
 4073 0028 B0EE480A 		vmov.f32	s0, s16
 4074              		.loc 1 430 0 is_stmt 1 discriminator 4
 4075 002c BDEC028B 		vldm	sp!, {d8}
 4076              		.cfi_remember_state
 4077              		.cfi_restore 80
 4078              		.cfi_restore 81
 4079              		.cfi_def_cfa_offset 8
 4080 0030 BDE80840 		pop	{r3, lr}
 4081              		.cfi_restore 14
 4082              		.cfi_restore 3
 4083              		.cfi_def_cfa_offset 0
 4084              		.loc 1 424 0 discriminator 4
 4085 0034 FFF7FEBF 		b	mcpwm_foc_set_current
 4086              	.LVL323:
 4087              	.L527:
 4088              		.cfi_restore_state
 4089              		.loc 1 430 0
 4090 0038 BDEC028B 		vldm	sp!, {d8}
 4091              		.cfi_remember_state
 4092              		.cfi_restore 80
 4093              		.cfi_restore 81
 4094              		.cfi_def_cfa_offset 8
 4095              	.LVL324:
 4096 003c 08BD     		pop	{r3, pc}
 4097              	.LVL325:
 4098              	.L529:
 4099              		.cfi_restore_state
 4100              	.LBB167:
 4101              	.LBB168:
 4102              		.loc 1 420 0
 4103 003e 92F86931 		ldrb	r3, [r2, #361]	@ zero_extendqisi2
 4104 0042 0BB1     		cbz	r3, .L531
ARM GAS  /tmp/ccETYwEL.s 			page 73


 4105 0044 B1EE488A 		vneg.f32	s16, s16
 4106              	.LVL326:
 4107              	.L531:
 4108 0048 B0EE480A 		vmov.f32	s0, s16
 4109              	.LBE168:
 4110              	.LBE167:
 4111              		.loc 1 430 0
 4112 004c BDEC028B 		vldm	sp!, {d8}
 4113              		.cfi_restore 80
 4114              		.cfi_restore 81
 4115              		.cfi_def_cfa_offset 8
 4116 0050 BDE80840 		pop	{r3, lr}
 4117              		.cfi_restore 14
 4118              		.cfi_restore 3
 4119              		.cfi_def_cfa_offset 0
 4120              	.LBB170:
 4121              	.LBB169:
 4122              		.loc 1 420 0
 4123 0054 FFF7FEBF 		b	mcpwm_set_current
 4124              	.LVL327:
 4125              	.L541:
 4126              		.align	2
 4127              	.L540:
 4128 0058 00000000 		.word	.LANCHOR12
 4129              	.LBE169:
 4130              	.LBE170:
 4131              		.cfi_endproc
 4132              	.LFE271:
 4133              		.size	mc_interface_set_current, .-mc_interface_set_current
 4134              		.section	.text.mc_interface_set_current_rel,"ax",%progbits
 4135              		.align	1
 4136              		.p2align 4,,15
 4137              		.global	mc_interface_set_current_rel
 4138              		.syntax unified
 4139              		.thumb
 4140              		.thumb_func
 4141              		.fpu fpv4-sp-d16
 4142              		.type	mc_interface_set_current_rel, %function
 4143              	mc_interface_set_current_rel:
 4144              	.LFB273:
 4145              		.loc 1 458 0
 4146              		.cfi_startproc
 4147              		@ args = 0, pretend = 0, frame = 0
 4148              		@ frame_needed = 0, uses_anonymous_args = 0
 4149              		@ link register save eliminated.
 4150              	.LVL328:
 4151              		.loc 1 459 0
 4152 0000 B5EEC00A 		vcmpe.f32	s0, #0
 4153 0004 F1EE10FA 		vmrs	APSR_nzcv, FPSCR
 4154              		.loc 1 460 0
 4155 0008 074B     		ldr	r3, .L547
 4156              		.loc 1 459 0
 4157 000a 05DD     		ble	.L546
 4158              		.loc 1 460 0
 4159 000c D3ED1D7A 		vldr.32	s15, [r3, #116]
 4160 0010 27EE800A 		vmul.f32	s0, s15, s0
 4161              	.LVL329:
ARM GAS  /tmp/ccETYwEL.s 			page 74


 4162 0014 FFF7FEBF 		b	mc_interface_set_current
 4163              	.LVL330:
 4164              	.L546:
 4165              		.loc 1 462 0
 4166 0018 D3ED1E7A 		vldr.32	s15, [r3, #120]
 4167 001c F0EEE77A 		vabs.f32	s15, s15
 4168 0020 27EE800A 		vmul.f32	s0, s15, s0
 4169              	.LVL331:
 4170 0024 FFF7FEBF 		b	mc_interface_set_current
 4171              	.LVL332:
 4172              	.L548:
 4173              		.align	2
 4174              	.L547:
 4175 0028 00000000 		.word	.LANCHOR12
 4176              		.cfi_endproc
 4177              	.LFE273:
 4178              		.size	mc_interface_set_current_rel, .-mc_interface_set_current_rel
 4179              		.section	.text.mc_interface_release_motor,"ax",%progbits
 4180              		.align	1
 4181              		.p2align 4,,15
 4182              		.global	mc_interface_release_motor
 4183              		.syntax unified
 4184              		.thumb
 4185              		.thumb_func
 4186              		.fpu fpv4-sp-d16
 4187              		.type	mc_interface_release_motor, %function
 4188              	mc_interface_release_motor:
 4189              	.LFB278:
 4190              		.loc 1 520 0
 4191              		.cfi_startproc
 4192              		@ args = 0, pretend = 0, frame = 0
 4193              		@ frame_needed = 0, uses_anonymous_args = 0
 4194              		@ link register save eliminated.
 4195              		.loc 1 521 0
 4196 0000 9FED010A 		vldr.32	s0, .L550
 4197 0004 FFF7FEBF 		b	mc_interface_set_current
 4198              	.LVL333:
 4199              	.L551:
 4200              		.align	2
 4201              	.L550:
 4202 0008 00000000 		.word	0
 4203              		.cfi_endproc
 4204              	.LFE278:
 4205              		.size	mc_interface_release_motor, .-mc_interface_release_motor
 4206              		.section	.text.mc_interface_set_brake_current,"ax",%progbits
 4207              		.align	1
 4208              		.p2align 4,,15
 4209              		.global	mc_interface_set_brake_current
 4210              		.syntax unified
 4211              		.thumb
 4212              		.thumb_func
 4213              		.fpu fpv4-sp-d16
 4214              		.type	mc_interface_set_brake_current, %function
 4215              	mc_interface_set_brake_current:
 4216              	.LFB272:
 4217              		.loc 1 432 0
 4218              		.cfi_startproc
ARM GAS  /tmp/ccETYwEL.s 			page 75


 4219              		@ args = 0, pretend = 0, frame = 0
 4220              		@ frame_needed = 0, uses_anonymous_args = 0
 4221              	.LVL334:
 4222 0000 08B5     		push	{r3, lr}
 4223              		.cfi_def_cfa_offset 8
 4224              		.cfi_offset 3, -8
 4225              		.cfi_offset 14, -4
 4226 0002 2DED028B 		vpush.64	{d8}
 4227              		.cfi_def_cfa_offset 16
 4228              		.cfi_offset 80, -16
 4229              		.cfi_offset 81, -12
 4230              		.loc 1 432 0
 4231 0006 B0EE408A 		vmov.f32	s16, s0
 4232              		.loc 1 433 0
 4233 000a FFF7FEFF 		bl	mc_interface_try_input
 4234              	.LVL335:
 4235 000e 98B9     		cbnz	r0, .L552
 4236              		.loc 1 437 0
 4237 0010 114A     		ldr	r2, .L565
 4238 0012 9378     		ldrb	r3, [r2, #2]	@ zero_extendqisi2
 4239 0014 DBB2     		uxtb	r3, r3
 4240 0016 012B     		cmp	r3, #1
 4241 0018 11D9     		bls	.L554
 4242 001a 022B     		cmp	r3, #2
 4243 001c 0CD1     		bne	.L552
 4244              		.loc 1 444 0
 4245 001e 92F86931 		ldrb	r3, [r2, #361]	@ zero_extendqisi2
 4246 0022 0BB1     		cbz	r3, .L557
 4247 0024 B1EE488A 		vneg.f32	s16, s16
 4248              	.LVL336:
 4249              	.L557:
 4250              		.loc 1 444 0 is_stmt 0 discriminator 4
 4251 0028 B0EE480A 		vmov.f32	s0, s16
 4252              		.loc 1 450 0 is_stmt 1 discriminator 4
 4253 002c BDEC028B 		vldm	sp!, {d8}
 4254              		.cfi_remember_state
 4255              		.cfi_restore 80
 4256              		.cfi_restore 81
 4257              		.cfi_def_cfa_offset 8
 4258 0030 BDE80840 		pop	{r3, lr}
 4259              		.cfi_restore 14
 4260              		.cfi_restore 3
 4261              		.cfi_def_cfa_offset 0
 4262              		.loc 1 444 0 discriminator 4
 4263 0034 FFF7FEBF 		b	mcpwm_foc_set_brake_current
 4264              	.LVL337:
 4265              	.L552:
 4266              		.cfi_restore_state
 4267              		.loc 1 450 0
 4268 0038 BDEC028B 		vldm	sp!, {d8}
 4269              		.cfi_remember_state
 4270              		.cfi_restore 80
 4271              		.cfi_restore 81
 4272              		.cfi_def_cfa_offset 8
 4273              	.LVL338:
 4274 003c 08BD     		pop	{r3, pc}
 4275              	.LVL339:
ARM GAS  /tmp/ccETYwEL.s 			page 76


 4276              	.L554:
 4277              		.cfi_restore_state
 4278              	.LBB173:
 4279              	.LBB174:
 4280              		.loc 1 440 0
 4281 003e 92F86931 		ldrb	r3, [r2, #361]	@ zero_extendqisi2
 4282 0042 0BB1     		cbz	r3, .L556
 4283 0044 B1EE488A 		vneg.f32	s16, s16
 4284              	.LVL340:
 4285              	.L556:
 4286 0048 B0EE480A 		vmov.f32	s0, s16
 4287              	.LBE174:
 4288              	.LBE173:
 4289              		.loc 1 450 0
 4290 004c BDEC028B 		vldm	sp!, {d8}
 4291              		.cfi_restore 80
 4292              		.cfi_restore 81
 4293              		.cfi_def_cfa_offset 8
 4294 0050 BDE80840 		pop	{r3, lr}
 4295              		.cfi_restore 14
 4296              		.cfi_restore 3
 4297              		.cfi_def_cfa_offset 0
 4298              	.LBB176:
 4299              	.LBB175:
 4300              		.loc 1 440 0
 4301 0054 FFF7FEBF 		b	mcpwm_set_brake_current
 4302              	.LVL341:
 4303              	.L566:
 4304              		.align	2
 4305              	.L565:
 4306 0058 00000000 		.word	.LANCHOR12
 4307              	.LBE175:
 4308              	.LBE176:
 4309              		.cfi_endproc
 4310              	.LFE272:
 4311              		.size	mc_interface_set_brake_current, .-mc_interface_set_brake_current
 4312              		.section	.text.mc_interface_set_brake_current_rel,"ax",%progbits
 4313              		.align	1
 4314              		.p2align 4,,15
 4315              		.global	mc_interface_set_brake_current_rel
 4316              		.syntax unified
 4317              		.thumb
 4318              		.thumb_func
 4319              		.fpu fpv4-sp-d16
 4320              		.type	mc_interface_set_brake_current_rel, %function
 4321              	mc_interface_set_brake_current_rel:
 4322              	.LFB274:
 4323              		.loc 1 472 0
 4324              		.cfi_startproc
 4325              		@ args = 0, pretend = 0, frame = 0
 4326              		@ frame_needed = 0, uses_anonymous_args = 0
 4327              		@ link register save eliminated.
 4328              	.LVL342:
 4329              		.loc 1 473 0
 4330 0000 034B     		ldr	r3, .L568
 4331 0002 D3ED1D7A 		vldr.32	s15, [r3, #116]
 4332 0006 27EE800A 		vmul.f32	s0, s15, s0
ARM GAS  /tmp/ccETYwEL.s 			page 77


 4333              	.LVL343:
 4334 000a FFF7FEBF 		b	mc_interface_set_brake_current
 4335              	.LVL344:
 4336              	.L569:
 4337 000e 00BF     		.align	2
 4338              	.L568:
 4339 0010 00000000 		.word	.LANCHOR12
 4340              		.cfi_endproc
 4341              	.LFE274:
 4342              		.size	mc_interface_set_brake_current_rel, .-mc_interface_set_brake_current_rel
 4343              		.section	.text.mc_interface_set_handbrake,"ax",%progbits
 4344              		.align	1
 4345              		.p2align 4,,15
 4346              		.global	mc_interface_set_handbrake
 4347              		.syntax unified
 4348              		.thumb
 4349              		.thumb_func
 4350              		.fpu fpv4-sp-d16
 4351              		.type	mc_interface_set_handbrake, %function
 4352              	mc_interface_set_handbrake:
 4353              	.LFB275:
 4354              		.loc 1 482 0
 4355              		.cfi_startproc
 4356              		@ args = 0, pretend = 0, frame = 0
 4357              		@ frame_needed = 0, uses_anonymous_args = 0
 4358              	.LVL345:
 4359 0000 08B5     		push	{r3, lr}
 4360              		.cfi_def_cfa_offset 8
 4361              		.cfi_offset 3, -8
 4362              		.cfi_offset 14, -4
 4363 0002 2DED028B 		vpush.64	{d8}
 4364              		.cfi_def_cfa_offset 16
 4365              		.cfi_offset 80, -16
 4366              		.cfi_offset 81, -12
 4367              		.loc 1 482 0
 4368 0006 B0EE408A 		vmov.f32	s16, s0
 4369              		.loc 1 483 0
 4370 000a FFF7FEFF 		bl	mc_interface_try_input
 4371              	.LVL346:
 4372 000e 38B9     		cbnz	r0, .L570
 4373 0010 B0EE480A 		vmov.f32	s0, s16
 4374              		.loc 1 501 0
 4375 0014 BDEC028B 		vldm	sp!, {d8}
 4376              		.cfi_remember_state
 4377              		.cfi_restore 80
 4378              		.cfi_restore 81
 4379              		.cfi_def_cfa_offset 8
 4380              	.LVL347:
 4381 0018 BDE80840 		pop	{r3, lr}
 4382              		.cfi_restore 14
 4383              		.cfi_restore 3
 4384              		.cfi_def_cfa_offset 0
 4385 001c FFF7FEBF 		b	mc_interface_set_handbrake.part.3
 4386              	.LVL348:
 4387              	.L570:
 4388              		.cfi_restore_state
 4389 0020 BDEC028B 		vldm	sp!, {d8}
ARM GAS  /tmp/ccETYwEL.s 			page 78


 4390              		.cfi_restore 80
 4391              		.cfi_restore 81
 4392              		.cfi_def_cfa_offset 8
 4393              	.LVL349:
 4394 0024 08BD     		pop	{r3, pc}
 4395              		.cfi_endproc
 4396              	.LFE275:
 4397              		.size	mc_interface_set_handbrake, .-mc_interface_set_handbrake
 4398 0026 00BF     		.section	.text.mc_interface_set_handbrake_rel,"ax",%progbits
 4399              		.align	1
 4400              		.p2align 4,,15
 4401              		.global	mc_interface_set_handbrake_rel
 4402              		.syntax unified
 4403              		.thumb
 4404              		.thumb_func
 4405              		.fpu fpv4-sp-d16
 4406              		.type	mc_interface_set_handbrake_rel, %function
 4407              	mc_interface_set_handbrake_rel:
 4408              	.LFB276:
 4409              		.loc 1 509 0
 4410              		.cfi_startproc
 4411              		@ args = 0, pretend = 0, frame = 0
 4412              		@ frame_needed = 0, uses_anonymous_args = 0
 4413              	.LVL350:
 4414 0000 08B5     		push	{r3, lr}
 4415              		.cfi_def_cfa_offset 8
 4416              		.cfi_offset 3, -8
 4417              		.cfi_offset 14, -4
 4418              		.loc 1 510 0
 4419 0002 0B4B     		ldr	r3, .L577
 4420              		.loc 1 509 0
 4421 0004 2DED028B 		vpush.64	{d8}
 4422              		.cfi_def_cfa_offset 16
 4423              		.cfi_offset 80, -16
 4424              		.cfi_offset 81, -12
 4425              		.loc 1 509 0
 4426 0008 F0EE408A 		vmov.f32	s17, s0
 4427              		.loc 1 510 0
 4428 000c 93ED1E8A 		vldr.32	s16, [r3, #120]
 4429              	.LVL351:
 4430              	.LBB177:
 4431              	.LBB178:
 4432              		.loc 1 483 0
 4433 0010 FFF7FEFF 		bl	mc_interface_try_input
 4434              	.LVL352:
 4435 0014 10B1     		cbz	r0, .L576
 4436              	.LBE178:
 4437              	.LBE177:
 4438              		.loc 1 511 0
 4439 0016 BDEC028B 		vldm	sp!, {d8}
 4440              		.cfi_remember_state
 4441              		.cfi_restore 80
 4442              		.cfi_restore 81
 4443              		.cfi_def_cfa_offset 8
 4444              	.LVL353:
 4445 001a 08BD     		pop	{r3, pc}
 4446              	.LVL354:
ARM GAS  /tmp/ccETYwEL.s 			page 79


 4447              	.L576:
 4448              		.cfi_restore_state
 4449              		.loc 1 510 0
 4450 001c B0EEC80A 		vabs.f32	s0, s16
 4451              	.LBB181:
 4452              	.LBB179:
 4453 0020 20EE280A 		vmul.f32	s0, s0, s17
 4454              	.LBE179:
 4455              	.LBE181:
 4456              		.loc 1 511 0
 4457 0024 BDEC028B 		vldm	sp!, {d8}
 4458              		.cfi_restore 80
 4459              		.cfi_restore 81
 4460              		.cfi_def_cfa_offset 8
 4461              	.LVL355:
 4462 0028 BDE80840 		pop	{r3, lr}
 4463              		.cfi_restore 14
 4464              		.cfi_restore 3
 4465              		.cfi_def_cfa_offset 0
 4466              	.LBB182:
 4467              	.LBB180:
 4468 002c FFF7FEBF 		b	mc_interface_set_handbrake.part.3
 4469              	.LVL356:
 4470              	.L578:
 4471              		.align	2
 4472              	.L577:
 4473 0030 00000000 		.word	.LANCHOR12
 4474              	.LBE180:
 4475              	.LBE182:
 4476              		.cfi_endproc
 4477              	.LFE276:
 4478              		.size	mc_interface_set_handbrake_rel, .-mc_interface_set_handbrake_rel
 4479              		.section	.text.mc_interface_fault_stop,"ax",%progbits
 4480              		.align	1
 4481              		.p2align 4,,15
 4482              		.global	mc_interface_fault_stop
 4483              		.syntax unified
 4484              		.thumb
 4485              		.thumb_func
 4486              		.fpu fpv4-sp-d16
 4487              		.type	mc_interface_fault_stop, %function
 4488              	mc_interface_fault_stop:
 4489              	.LFB307:
 4490              		.loc 1 1020 0
 4491              		.cfi_startproc
 4492              		@ args = 0, pretend = 0, frame = 0
 4493              		@ frame_needed = 0, uses_anonymous_args = 0
 4494              		@ link register save eliminated.
 4495              	.LVL357:
 4496              		.loc 1 1021 0
 4497 0000 054B     		ldr	r3, .L584
 4498 0002 1B78     		ldrb	r3, [r3]	@ zero_extendqisi2
 4499 0004 8342     		cmp	r3, r0
 4500 0006 01D0     		beq	.L583
 4501 0008 FFF7FEBF 		b	mc_interface_fault_stop.part.4
 4502              	.LVL358:
 4503              	.L583:
ARM GAS  /tmp/ccETYwEL.s 			page 80


 4504              		.loc 1 1022 0
 4505 000c 034A     		ldr	r2, .L584+4
 4506 000e 044B     		ldr	r3, .L584+8
 4507 0010 D2F85821 		ldr	r2, [r2, #344]
 4508 0014 1A60     		str	r2, [r3]
 4509              		.loc 1 1078 0
 4510 0016 7047     		bx	lr
 4511              	.L585:
 4512              		.align	2
 4513              	.L584:
 4514 0018 00000000 		.word	.LANCHOR13
 4515 001c 00000000 		.word	.LANCHOR12
 4516 0020 00000000 		.word	.LANCHOR14
 4517              		.cfi_endproc
 4518              	.LFE307:
 4519              		.size	mc_interface_fault_stop, .-mc_interface_fault_stop
 4520              		.section	.text.mc_interface_mc_timer_isr,"ax",%progbits
 4521              		.align	1
 4522              		.p2align 4,,15
 4523              		.global	mc_interface_mc_timer_isr
 4524              		.syntax unified
 4525              		.thumb
 4526              		.thumb_func
 4527              		.fpu fpv4-sp-d16
 4528              		.type	mc_interface_mc_timer_isr, %function
 4529              	mc_interface_mc_timer_isr:
 4530              	.LFB308:
 4531              		.loc 1 1080 0
 4532              		.cfi_startproc
 4533              		@ args = 0, pretend = 0, frame = 8
 4534              		@ frame_needed = 0, uses_anonymous_args = 0
 4535 0000 2DE9F043 		push	{r4, r5, r6, r7, r8, r9, lr}
 4536              		.cfi_def_cfa_offset 28
 4537              		.cfi_offset 4, -28
 4538              		.cfi_offset 5, -24
 4539              		.cfi_offset 6, -20
 4540              		.cfi_offset 7, -16
 4541              		.cfi_offset 8, -12
 4542              		.cfi_offset 9, -8
 4543              		.cfi_offset 14, -4
 4544 0004 2DED048B 		vpush.64	{d8, d9}
 4545              		.cfi_def_cfa_offset 44
 4546              		.cfi_offset 80, -44
 4547              		.cfi_offset 81, -40
 4548              		.cfi_offset 82, -36
 4549              		.cfi_offset 83, -32
 4550              		.loc 1 1083 0
 4551 0008 7E4E     		ldr	r6, .L684
 4552              		.loc 1 1087 0
 4553 000a 7F4C     		ldr	r4, .L684+4
 4554              		.loc 1 1080 0
 4555 000c 83B0     		sub	sp, sp, #12
 4556              		.cfi_def_cfa_offset 56
 4557              		.loc 1 1081 0
 4558 000e FFF7FEFF 		bl	ledpwm_update_pwm
 4559              	.LVL359:
 4560              		.loc 1 1083 0
ARM GAS  /tmp/ccETYwEL.s 			page 81


 4561 0012 338A     		ldrh	r3, [r6, #16]
 4562 0014 DFED7D6A 		vldr.32	s13, .L684+8
 4563 0018 9FED7D7A 		vldr.32	s14, .L684+12
 4564              		.loc 1 1087 0
 4565 001c D4ED0B7A 		vldr.32	s15, [r4, #44]
 4566              		.loc 1 1083 0
 4567 0020 08EE103A 		vmov	s16, r3	@ int
 4568 0024 B8EE488A 		vcvt.f32.u32	s16, s16
 4569 0028 28EE268A 		vmul.f32	s16, s16, s13
 4570 002c 28EE078A 		vmul.f32	s16, s16, s14
 4571              	.LVL360:
 4572              		.loc 1 1087 0
 4573 0030 F4EEC87A 		vcmpe.f32	s15, s16
 4574 0034 F1EE10FA 		vmrs	APSR_nzcv, FPSCR
 4575 0038 07DC     		bgt	.L587
 4576              		.loc 1 1088 0 discriminator 1
 4577 003a D4ED0C7A 		vldr.32	s15, [r4, #48]
 4578              		.loc 1 1087 0 discriminator 1
 4579 003e F4EEC87A 		vcmpe.f32	s15, s16
 4580 0042 F1EE10FA 		vmrs	APSR_nzcv, FPSCR
 4581 0046 40F1D881 		bpl	.L662
 4582              	.L587:
 4583              		.loc 1 1089 0
 4584 004a 724A     		ldr	r2, .L684+16
 4585 004c 1368     		ldr	r3, [r2]
 4586 004e 0133     		adds	r3, r3, #1
 4587              		.loc 1 1091 0
 4588 0050 072B     		cmp	r3, #7
 4589              		.loc 1 1089 0
 4590 0052 1360     		str	r3, [r2]
 4591              		.loc 1 1091 0
 4592 0054 00F3B681 		bgt	.L673
 4593              	.L590:
 4594              		.loc 1 1099 0
 4595 0058 FFF7FEFF 		bl	mc_interface_get_state
 4596              	.LVL361:
 4597 005c 0228     		cmp	r0, #2
 4598 005e 00F0C781 		beq	.L674
 4599              	.L594:
 4600              		.loc 1 1102 0
 4601 0062 6D4B     		ldr	r3, .L684+20
 4602 0064 0022     		movs	r2, #0
 4603 0066 1A60     		str	r2, [r3]
 4604              	.L595:
 4605              		.loc 1 1105 0
 4606 0068 6C4B     		ldr	r3, .L684+24
 4607 006a 1B68     		ldr	r3, [r3]
 4608 006c 03B1     		cbz	r3, .L596
 4609              		.loc 1 1106 0
 4610 006e 9847     		blx	r3
 4611              	.LVL362:
 4612              	.L596:
 4613              		.loc 1 1109 0
 4614 0070 FFF7FEFF 		bl	mc_interface_get_tot_current_filtered
 4615              	.LVL363:
 4616 0074 F0EE408A 		vmov.f32	s17, s0
 4617              	.LVL364:
ARM GAS  /tmp/ccETYwEL.s 			page 82


 4618              		.loc 1 1110 0
 4619 0078 FFF7FEFF 		bl	mc_interface_get_tot_current_in_filtered
 4620              	.LVL365:
 4621              		.loc 1 1111 0
 4622 007c 6848     		ldr	r0, .L684+28
 4623              		.loc 1 1112 0
 4624 007e 6949     		ldr	r1, .L684+32
 4625              		.loc 1 1111 0
 4626 0080 D0ED007A 		vldr.32	s15, [r0]
 4627              		.loc 1 1113 0
 4628 0084 684A     		ldr	r2, .L684+36
 4629              		.loc 1 1114 0
 4630 0086 694B     		ldr	r3, .L684+40
 4631              		.loc 1 1111 0
 4632 0088 77EEA87A 		vadd.f32	s15, s15, s17
 4633              		.loc 1 1113 0
 4634 008c B7EE009A 		vmov.f32	s18, #1.0e+0
 4635              		.loc 1 1111 0
 4636 0090 C0ED007A 		vstr.32	s15, [r0]
 4637              		.loc 1 1112 0
 4638 0094 D1ED007A 		vldr.32	s15, [r1]
 4639 0098 77EE807A 		vadd.f32	s15, s15, s0
 4640              		.loc 1 1110 0
 4641 009c F0EE409A 		vmov.f32	s19, s0
 4642              	.LVL366:
 4643              		.loc 1 1112 0
 4644 00a0 C1ED007A 		vstr.32	s15, [r1]
 4645              		.loc 1 1113 0
 4646 00a4 D2ED007A 		vldr.32	s15, [r2]
 4647 00a8 77EE897A 		vadd.f32	s15, s15, s18
 4648 00ac C2ED007A 		vstr.32	s15, [r2]
 4649              		.loc 1 1114 0
 4650 00b0 D3ED007A 		vldr.32	s15, [r3]
 4651 00b4 77EE897A 		vadd.f32	s15, s15, s18
 4652 00b8 C3ED007A 		vstr.32	s15, [r3]
 4653              		.loc 1 1116 0
 4654 00bc FFF7FEFF 		bl	mcpwm_foc_get_id
 4655              	.LVL367:
 4656 00c0 5B4B     		ldr	r3, .L684+44
 4657 00c2 D3ED007A 		vldr.32	s15, [r3]
 4658 00c6 37EE800A 		vadd.f32	s0, s15, s0
 4659 00ca 83ED000A 		vstr.32	s0, [r3]
 4660              		.loc 1 1117 0
 4661 00ce FFF7FEFF 		bl	mcpwm_foc_get_iq
 4662              	.LVL368:
 4663 00d2 5849     		ldr	r1, .L684+48
 4664              		.loc 1 1118 0
 4665 00d4 584A     		ldr	r2, .L684+52
 4666              		.loc 1 1117 0
 4667 00d6 D1ED007A 		vldr.32	s15, [r1]
 4668              		.loc 1 1119 0
 4669 00da 584B     		ldr	r3, .L684+56
 4670              		.loc 1 1117 0
 4671 00dc 37EE800A 		vadd.f32	s0, s15, s0
 4672 00e0 81ED000A 		vstr.32	s0, [r1]
 4673              		.loc 1 1118 0
 4674 00e4 D2ED007A 		vldr.32	s15, [r2]
ARM GAS  /tmp/ccETYwEL.s 			page 83


 4675 00e8 77EE897A 		vadd.f32	s15, s15, s18
 4676 00ec C2ED007A 		vstr.32	s15, [r2]
 4677              		.loc 1 1119 0
 4678 00f0 D3ED007A 		vldr.32	s15, [r3]
 4679 00f4 37EE899A 		vadd.f32	s18, s15, s18
 4680 00f8 83ED009A 		vstr.32	s18, [r3]
 4681              		.loc 1 1121 0
 4682 00fc FFF7FEFF 		bl	mc_interface_get_tot_current
 4683              	.LVL369:
 4684              		.loc 1 1123 0
 4685 0100 A378     		ldrb	r3, [r4, #2]	@ zero_extendqisi2
 4686 0102 022B     		cmp	r3, #2
 4687              		.loc 1 1121 0
 4688 0104 B0EE409A 		vmov.f32	s18, s0
 4689              	.LVL370:
 4690              		.loc 1 1123 0
 4691 0108 00F0CB81 		beq	.L675
 4692              		.loc 1 1122 0
 4693 010c B0EE680A 		vmov.f32	s0, s17
 4694              	.LVL371:
 4695              	.L597:
 4696              		.loc 1 1130 0
 4697 0110 94F83C30 		ldrb	r3, [r4, #60]	@ zero_extendqisi2
 4698              		.loc 1 1131 0
 4699 0114 D4ED057A 		vldr.32	s15, [r4, #20]
 4700              		.loc 1 1130 0
 4701 0118 002B     		cmp	r3, #0
 4702 011a 00F04581 		beq	.L598
 4703              		.loc 1 1131 0
 4704 011e B0EEC00A 		vabs.f32	s0, s0
 4705              	.LVL372:
 4706 0122 B4EEE70A 		vcmpe.f32	s0, s15
 4707 0126 F1EE10FA 		vmrs	APSR_nzcv, FPSCR
 4708 012a 5CDD     		ble	.L599
 4709              	.LVL373:
 4710              	.LBB183:
 4711              	.LBB184:
 4712              		.loc 1 1021 0
 4713 012c 444B     		ldr	r3, .L684+60
 4714 012e 1B78     		ldrb	r3, [r3]	@ zero_extendqisi2
 4715 0130 042B     		cmp	r3, #4
 4716 0132 55D1     		bne	.L601
 4717              	.LVL374:
 4718              	.L680:
 4719              		.loc 1 1022 0
 4720 0134 434B     		ldr	r3, .L684+64
 4721 0136 D4F85821 		ldr	r2, [r4, #344]
 4722 013a 1A60     		str	r2, [r3]
 4723              	.LBE184:
 4724              	.LBE183:
 4725              		.loc 1 1141 0
 4726 013c 424B     		ldr	r3, .L684+68
 4727 013e 1B69     		ldr	r3, [r3, #16]
 4728 0140 DB04     		lsls	r3, r3, #19
 4729 0142 40F1AA81 		bpl	.L606
 4730              	.LVL375:
 4731              	.L605:
ARM GAS  /tmp/ccETYwEL.s 			page 84


 4732              		.loc 1 1146 0
 4733 0146 FFF7FEFF 		bl	mc_interface_get_sampling_frequency_now
 4734              	.LVL376:
 4735              		.loc 1 1147 0
 4736 014a F0EEE88A 		vabs.f32	s17, s17
 4737              	.LVL377:
 4738 014e F7EE006A 		vmov.f32	s13, #1.0e+0
 4739 0152 F4EEE68A 		vcmpe.f32	s17, s13
 4740 0156 F1EE10FA 		vmrs	APSR_nzcv, FPSCR
 4741              		.loc 1 1146 0
 4742 015a B0EE409A 		vmov.f32	s18, s0
 4743              	.LVL378:
 4744              		.loc 1 1147 0
 4745 015e 31DD     		ble	.L608
 4746              	.LBB186:
 4747              		.loc 1 1153 0
 4748 0160 86EE807A 		vdiv.f32	s14, s13, s0
 4749 0164 394A     		ldr	r2, .L684+72
 4750              		.loc 1 1152 0
 4751 0166 3A4B     		ldr	r3, .L684+76
 4752 0168 C9EE807A 		vdiv.f32	s15, s19, s0
 4753              		.loc 1 1153 0
 4754 016c 92ED006A 		vldr.32	s12, [r2]
 4755              		.loc 1 1152 0
 4756 0170 D3ED005A 		vldr.32	s11, [r3]
 4757              		.loc 1 1155 0
 4758 0174 DFED376A 		vldr.32	s13, .L684+80
 4759              		.loc 1 1153 0
 4760 0178 37EE067A 		vadd.f32	s14, s14, s12
 4761              		.loc 1 1152 0
 4762 017c 77EEA57A 		vadd.f32	s15, s15, s11
 4763              		.loc 1 1155 0
 4764 0180 B4EEE67A 		vcmpe.f32	s14, s13
 4765 0184 F1EE10FA 		vmrs	APSR_nzcv, FPSCR
 4766              		.loc 1 1152 0
 4767 0188 C3ED007A 		vstr.32	s15, [r3]
 4768              		.loc 1 1153 0
 4769 018c 82ED007A 		vstr.32	s14, [r2]
 4770              		.loc 1 1155 0
 4771 0190 18DB     		blt	.L608
 4772              		.loc 1 1156 0
 4773 0192 F5EEC07A 		vcmpe.f32	s15, #0
 4774 0196 F1EE10FA 		vmrs	APSR_nzcv, FPSCR
 4775 019a 27EE888A 		vmul.f32	s16, s15, s16
 4776              	.LVL379:
 4777 019e 40F3A081 		ble	.L663
 4778              		.loc 1 1157 0
 4779 01a2 2D48     		ldr	r0, .L684+84
 4780              		.loc 1 1158 0
 4781 01a4 2D49     		ldr	r1, .L684+88
 4782              		.loc 1 1157 0
 4783 01a6 90ED007A 		vldr.32	s14, [r0]
 4784 01aa 77EE877A 		vadd.f32	s15, s15, s14
 4785 01ae C0ED007A 		vstr.32	s15, [r0]
 4786              		.loc 1 1158 0
 4787 01b2 D1ED007A 		vldr.32	s15, [r1]
 4788 01b6 37EE888A 		vadd.f32	s16, s15, s16
ARM GAS  /tmp/ccETYwEL.s 			page 85


 4789 01ba 81ED008A 		vstr.32	s16, [r1]
 4790              	.L613:
 4791              		.loc 1 1164 0
 4792 01be 0021     		movs	r1, #0
 4793 01c0 1160     		str	r1, [r2]	@ float
 4794              		.loc 1 1165 0
 4795 01c2 1960     		str	r1, [r3]	@ float
 4796              	.L608:
 4797              	.LVL380:
 4798              	.LBE186:
 4799              		.loc 1 1171 0
 4800 01c4 264F     		ldr	r7, .L684+92
 4801 01c6 3B78     		ldrb	r3, [r7]	@ zero_extendqisi2
 4802 01c8 013B     		subs	r3, r3, #1
 4803 01ca 052B     		cmp	r3, #5
 4804 01cc 00F2E780 		bhi	.L586
 4805 01d0 DFE813F0 		tbh	[pc, r3, lsl #1]
 4806              	.L616:
 4807 01d4 4D01     		.2byte	(.L615-.L616)/2
 4808 01d6 2601     		.2byte	(.L617-.L616)/2
 4809 01d8 1701     		.2byte	(.L618-.L616)/2
 4810 01da 4800     		.2byte	(.L619-.L616)/2
 4811 01dc 1701     		.2byte	(.L618-.L616)/2
 4812 01de 4800     		.2byte	(.L619-.L616)/2
 4813              	.LVL381:
 4814              		.p2align 1
 4815              	.L601:
 4816              	.LBB187:
 4817              	.LBB188:
 4818 01e0 0420     		movs	r0, #4
 4819 01e2 FFF7FEFF 		bl	mc_interface_fault_stop.part.4
 4820              	.LVL382:
 4821              	.L599:
 4822              	.LBE188:
 4823              	.LBE187:
 4824              		.loc 1 1141 0
 4825 01e6 184B     		ldr	r3, .L684+68
 4826 01e8 1B69     		ldr	r3, [r3, #16]
 4827 01ea DA04     		lsls	r2, r3, #19
 4828 01ec ABD4     		bmi	.L605
 4829              	.LVL383:
 4830              	.LBB189:
 4831              	.LBB190:
 4832              		.loc 1 1021 0
 4833 01ee 144B     		ldr	r3, .L684+60
 4834 01f0 1B78     		ldrb	r3, [r3]	@ zero_extendqisi2
 4835 01f2 032B     		cmp	r3, #3
 4836 01f4 40F05181 		bne	.L606
 4837              		.loc 1 1022 0
 4838 01f8 124B     		ldr	r3, .L684+64
 4839 01fa D4F85821 		ldr	r2, [r4, #344]
 4840 01fe 1A60     		str	r2, [r3]
 4841 0200 A1E7     		b	.L605
 4842              	.L685:
 4843 0202 00BF     		.align	2
 4844              	.L684:
 4845 0204 00000000 		.word	.LANCHOR41
ARM GAS  /tmp/ccETYwEL.s 			page 86


 4846 0208 00000000 		.word	.LANCHOR12
 4847 020c 6740533A 		.word	978534503
 4848 0210 74D19541 		.word	1100337524
 4849 0214 00000000 		.word	.LANCHOR42
 4850 0218 00000000 		.word	.LANCHOR15
 4851 021c 00000000 		.word	.LANCHOR39
 4852 0220 00000000 		.word	.LANCHOR18
 4853 0224 00000000 		.word	.LANCHOR19
 4854 0228 00000000 		.word	.LANCHOR20
 4855 022c 00000000 		.word	.LANCHOR21
 4856 0230 00000000 		.word	.LANCHOR22
 4857 0234 00000000 		.word	.LANCHOR23
 4858 0238 00000000 		.word	.LANCHOR24
 4859 023c 00000000 		.word	.LANCHOR25
 4860 0240 00000000 		.word	.LANCHOR13
 4861 0244 00000000 		.word	.LANCHOR14
 4862 0248 00080240 		.word	1073874944
 4863 024c 00000000 		.word	.LANCHOR44
 4864 0250 00000000 		.word	.LANCHOR43
 4865 0254 0AD7233C 		.word	1008981770
 4866 0258 00000000 		.word	.LANCHOR26
 4867 025c 00000000 		.word	.LANCHOR28
 4868 0260 00000000 		.word	.LANCHOR36
 4869              	.LVL384:
 4870              	.L619:
 4871              	.LBE190:
 4872              	.LBE189:
 4873              	.LBB192:
 4874              		.loc 1 1233 0
 4875 0264 DFF85083 		ldr	r8, .L686+92
 4876 0268 D8F80030 		ldr	r3, [r8]
 4877 026c 002B     		cmp	r3, #0
 4878 026e 80F22281 		bge	.L676
 4879              		.loc 1 1232 0
 4880 0272 4FF0FF33 		mov	r3, #-1
 4881              	.LVL385:
 4882              	.L629:
 4883              		.loc 1 1240 0
 4884 0276 B94D     		ldr	r5, .L686
 4885 0278 2A68     		ldr	r2, [r5]
 4886 027a 9A42     		cmp	r2, r3
 4887 027c 00F05881 		beq	.L677
 4888              		.loc 1 1253 0
 4889 0280 B74B     		ldr	r3, .L686+4
 4890              	.LVL386:
 4891 0282 1B78     		ldrb	r3, [r3]	@ zero_extendqisi2
 4892 0284 33B1     		cbz	r3, .L621
 4893              	.LVL387:
 4894              	.L638:
 4895 0286 D8F80030 		ldr	r3, [r8]
 4896 028a 002B     		cmp	r3, #0
 4897              		.loc 1 1254 0
 4898 028c BCBF     		itt	lt
 4899 028e 2B68     		ldrlt	r3, [r5]
 4900 0290 C8F80030 		strlt	r3, [r8]
 4901              	.LVL388:
 4902              	.L621:
ARM GAS  /tmp/ccETYwEL.s 			page 87


 4903              	.LBE192:
 4904              	.LBB203:
 4905              		.loc 1 1264 0
 4906 0294 B34A     		ldr	r2, .L686+8
 4907              		.loc 1 1266 0
 4908 0296 B449     		ldr	r1, .L686+12
 4909              		.loc 1 1264 0
 4910 0298 1368     		ldr	r3, [r2]
 4911              		.loc 1 1266 0
 4912 029a 0968     		ldr	r1, [r1]
 4913              		.loc 1 1264 0
 4914 029c 0133     		adds	r3, r3, #1
 4915              		.loc 1 1266 0
 4916 029e 8B42     		cmp	r3, r1
 4917              		.loc 1 1264 0
 4918 02a0 1360     		str	r3, [r2]
 4919              		.loc 1 1266 0
 4920 02a2 7CDB     		blt	.L586
 4921              	.LBB204:
 4922              		.loc 1 1269 0
 4923 02a4 2968     		ldr	r1, [r5]
 4924              		.loc 1 1267 0
 4925 02a6 0023     		movs	r3, #0
 4926              		.loc 1 1269 0
 4927 02a8 B1F5FA6F 		cmp	r1, #2000
 4928              		.loc 1 1270 0
 4929 02ac A8BF     		it	ge
 4930 02ae 2B60     		strge	r3, [r5]
 4931              		.loc 1 1267 0
 4932 02b0 1360     		str	r3, [r2]
 4933              		.loc 1 1274 0
 4934 02b2 A378     		ldrb	r3, [r4, #2]	@ zero_extendqisi2
 4935 02b4 022B     		cmp	r3, #2
 4936 02b6 00F08381 		beq	.L678
 4937              		.loc 1 1281 0
 4938 02ba AC4B     		ldr	r3, .L686+16
 4939              		.loc 1 1282 0
 4940 02bc AC4F     		ldr	r7, .L686+20
 4941              		.loc 1 1281 0
 4942 02be 1C68     		ldr	r4, [r3]
 4943              		.loc 1 1282 0
 4944 02c0 2B68     		ldr	r3, [r5]
 4945 02c2 3B44     		add	r3, r3, r7
 4946 02c4 0022     		movs	r2, #0
 4947              		.loc 1 1281 0
 4948 02c6 24B2     		sxth	r4, r4
 4949              	.LVL389:
 4950              		.loc 1 1282 0
 4951 02c8 83F8082E 		strb	r2, [r3, #3592]
 4952              	.L634:
 4953              		.loc 1 1285 0
 4954 02cc FFF7FEFF 		bl	mc_interface_get_state
 4955              	.LVL390:
 4956 02d0 0128     		cmp	r0, #1
 4957 02d2 00F09581 		beq	.L679
 4958              		.loc 1 1293 0
 4959 02d6 A748     		ldr	r0, .L686+24
ARM GAS  /tmp/ccETYwEL.s 			page 88


 4960 02d8 A74B     		ldr	r3, .L686+28
 4961 02da 0268     		ldr	r2, [r0]
 4962 02dc D5F800C0 		ldr	ip, [r5]
 4963              		.loc 1 1296 0
 4964 02e0 A649     		ldr	r1, .L686+32
 4965              		.loc 1 1293 0
 4966 02e2 12B2     		sxth	r2, r2
 4967 02e4 23F81C20 		strh	r2, [r3, ip, lsl #1]	@ movhi
 4968              		.loc 1 1294 0
 4969 02e8 4268     		ldr	r2, [r0, #4]
 4970 02ea 2868     		ldr	r0, [r5]
 4971              		.loc 1 1297 0
 4972 02ec DFF8CCC2 		ldr	ip, .L686+96
 4973              		.loc 1 1294 0
 4974 02f0 03EB4003 		add	r3, r3, r0, lsl #1
 4975 02f4 12B2     		sxth	r2, r2
 4976 02f6 A3F8A02F 		strh	r2, [r3, #4000]	@ movhi
 4977              		.loc 1 1296 0
 4978 02fa B288     		ldrh	r2, [r6, #4]
 4979 02fc 2B68     		ldr	r3, [r5]
 4980 02fe A0B2     		uxth	r0, r4
 4981 0300 01EB4303 		add	r3, r1, r3, lsl #1
 4982 0304 121A     		subs	r2, r2, r0
 4983 0306 12B2     		sxth	r2, r2
 4984 0308 A3F8482E 		strh	r2, [r3, #3656]	@ movhi
 4985              		.loc 1 1297 0
 4986 030c 7288     		ldrh	r2, [r6, #2]
 4987 030e 2B68     		ldr	r3, [r5]
 4988              		.loc 1 1298 0
 4989 0310 9B49     		ldr	r1, .L686+36
 4990              		.loc 1 1297 0
 4991 0312 0CEB4303 		add	r3, ip, r3, lsl #1
 4992 0316 121A     		subs	r2, r2, r0
 4993 0318 12B2     		sxth	r2, r2
 4994 031a A3F8F02C 		strh	r2, [r3, #3312]	@ movhi
 4995              		.loc 1 1298 0
 4996 031e 3388     		ldrh	r3, [r6]
 4997 0320 2A68     		ldr	r2, [r5]
 4998 0322 1B1A     		subs	r3, r3, r0
 4999 0324 01EB4202 		add	r2, r1, r2, lsl #1
 5000 0328 1BB2     		sxth	r3, r3
 5001 032a A2F8983B 		strh	r3, [r2, #2968]	@ movhi
 5002              	.L636:
 5003              		.loc 1 1301 0
 5004 032e 2A68     		ldr	r2, [r5]
 5005 0330 944B     		ldr	r3, .L686+40
 5006 0332 03EB4203 		add	r3, r3, r2, lsl #1
 5007 0336 A3F8404A 		strh	r4, [r3, #2624]	@ movhi
 5008              		.loc 1 1302 0
 5009 033a FFF7FEFF 		bl	mc_interface_get_tot_current
 5010              	.LVL391:
 5011              		.loc 1 1303 0
 5012 033e F2EE047A 		vmov.f32	s15, #1.0e+1
 5013 0342 89EE277A 		vdiv.f32	s14, s18, s15
 5014              		.loc 1 1302 0
 5015 0346 2B68     		ldr	r3, [r5]
 5016 0348 8F48     		ldr	r0, .L686+44
ARM GAS  /tmp/ccETYwEL.s 			page 89


 5017              		.loc 1 1303 0
 5018 034a 9049     		ldr	r1, .L686+48
 5019              		.loc 1 1302 0
 5020 034c 00EB4300 		add	r0, r0, r3, lsl #1
 5021 0350 DFED8F7A 		vldr.32	s15, .L686+52
 5022              		.loc 1 1303 0
 5023 0354 BDEEC77A 		vcvt.s32.f32	s14, s14
 5024              		.loc 1 1302 0
 5025 0358 20EE270A 		vmul.f32	s0, s0, s15
 5026              		.loc 1 1303 0
 5027 035c 17EE103A 		vmov	r3, s14	@ int
 5028              		.loc 1 1302 0
 5029 0360 BDEEC00A 		vcvt.s32.f32	s0, s0
 5030              		.loc 1 1303 0
 5031 0364 1AB2     		sxth	r2, r3
 5032              		.loc 1 1302 0
 5033 0366 10EE103A 		vmov	r3, s0	@ int
 5034 036a 1BB2     		sxth	r3, r3
 5035 036c A0F8E838 		strh	r3, [r0, #2280]	@ movhi
 5036              		.loc 1 1303 0
 5037 0370 2B68     		ldr	r3, [r5]
 5038 0372 01EB4303 		add	r3, r1, r3, lsl #1
 5039 0376 A3F89027 		strh	r2, [r3, #1936]	@ movhi
 5040              		.loc 1 1304 0
 5041 037a FFF7FEFF 		bl	mcpwm_get_comm_step
 5042              	.LVL392:
 5043 037e 0446     		mov	r4, r0
 5044              	.LVL393:
 5045 0380 FFF7FEFF 		bl	mcpwm_read_hall_phase
 5046              	.LVL394:
 5047 0384 2B68     		ldr	r3, [r5]
 5048              	.LBB205:
 5049              	.LBB206:
 5050              		.loc 1 931 0
 5051 0386 834A     		ldr	r2, .L686+56
 5052              	.LBE206:
 5053              	.LBE205:
 5054              		.loc 1 1304 0
 5055 0388 1F44     		add	r7, r7, r3
 5056 038a 44EAC000 		orr	r0, r4, r0, lsl #3
 5057 038e C0B2     		uxtb	r0, r0
 5058 0390 87F83806 		strb	r0, [r7, #1592]
 5059              		.loc 1 1306 0
 5060 0394 2B68     		ldr	r3, [r5]
 5061 0396 0133     		adds	r3, r3, #1
 5062 0398 2B60     		str	r3, [r5]
 5063              	.LBB208:
 5064              	.LBB207:
 5065              		.loc 1 931 0
 5066 039a 1368     		ldr	r3, [r2]	@ float
 5067              	.LBE207:
 5068              	.LBE208:
 5069              		.loc 1 1308 0
 5070 039c 1360     		str	r3, [r2]	@ float
 5071              	.L586:
 5072              	.LBE204:
 5073              	.LBE203:
ARM GAS  /tmp/ccETYwEL.s 			page 90


 5074              		.loc 1 1311 0
 5075 039e 03B0     		add	sp, sp, #12
 5076              		.cfi_remember_state
 5077              		.cfi_def_cfa_offset 44
 5078              		@ sp needed
 5079 03a0 BDEC048B 		vldm	sp!, {d8-d9}
 5080              		.cfi_restore 82
 5081              		.cfi_restore 83
 5082              		.cfi_restore 80
 5083              		.cfi_restore 81
 5084              		.cfi_def_cfa_offset 28
 5085              	.LVL395:
 5086 03a4 BDE8F083 		pop	{r4, r5, r6, r7, r8, r9, pc}
 5087              	.LVL396:
 5088              	.L598:
 5089              		.cfi_restore_state
 5090              		.loc 1 1135 0
 5091 03a8 B0EEC99A 		vabs.f32	s18, s18
 5092              	.LVL397:
 5093 03ac B4EEE79A 		vcmpe.f32	s18, s15
 5094 03b0 F1EE10FA 		vmrs	APSR_nzcv, FPSCR
 5095 03b4 7FF717AF 		ble	.L599
 5096              	.LVL398:
 5097              	.LBB210:
 5098              	.LBB185:
 5099              		.loc 1 1021 0
 5100 03b8 694B     		ldr	r3, .L686+4
 5101 03ba 1B78     		ldrb	r3, [r3]	@ zero_extendqisi2
 5102 03bc 042B     		cmp	r3, #4
 5103 03be 3FF4B9AE 		beq	.L680
 5104 03c2 0DE7     		b	.L601
 5105              	.LVL399:
 5106              	.L673:
 5107              	.LBE185:
 5108              	.LBE210:
 5109              		.loc 1 1092 0
 5110 03c4 D4ED0B7A 		vldr.32	s15, [r4, #44]
 5111              	.LBB211:
 5112              	.LBB212:
 5113              		.loc 1 1021 0
 5114 03c8 654B     		ldr	r3, .L686+4
 5115              	.LBE212:
 5116              	.LBE211:
 5117              		.loc 1 1092 0
 5118 03ca F4EEC87A 		vcmpe.f32	s15, s16
 5119 03ce F1EE10FA 		vmrs	APSR_nzcv, FPSCR
 5120              	.LBB216:
 5121              	.LBB213:
 5122              		.loc 1 1021 0
 5123 03d2 1B78     		ldrb	r3, [r3]	@ zero_extendqisi2
 5124              	.LBE213:
 5125              	.LBE216:
 5126              		.loc 1 1092 0
 5127 03d4 CCBF     		ite	gt
 5128 03d6 0220     		movgt	r0, #2
 5129 03d8 0120     		movle	r0, #1
 5130              	.LVL400:
ARM GAS  /tmp/ccETYwEL.s 			page 91


 5131              	.LBB217:
 5132              	.LBB214:
 5133              		.loc 1 1021 0
 5134 03da 8342     		cmp	r3, r0
 5135 03dc 68D1     		bne	.L593
 5136              		.loc 1 1022 0
 5137 03de 6E4B     		ldr	r3, .L686+60
 5138 03e0 D4F85821 		ldr	r2, [r4, #344]
 5139 03e4 1A60     		str	r2, [r3]
 5140              	.LBE214:
 5141              	.LBE217:
 5142              		.loc 1 1099 0
 5143 03e6 FFF7FEFF 		bl	mc_interface_get_state
 5144              	.LVL401:
 5145 03ea 0228     		cmp	r0, #2
 5146 03ec 7FF439AE 		bne	.L594
 5147              	.L674:
 5148              		.loc 1 1100 0
 5149 03f0 6A4A     		ldr	r2, .L686+64
 5150 03f2 1368     		ldr	r3, [r2]
 5151 03f4 0133     		adds	r3, r3, #1
 5152 03f6 1360     		str	r3, [r2]
 5153 03f8 36E6     		b	.L595
 5154              	.L662:
 5155              		.loc 1 1096 0
 5156 03fa 694B     		ldr	r3, .L686+68
 5157 03fc 0022     		movs	r2, #0
 5158 03fe 1A60     		str	r2, [r3]
 5159 0400 2AE6     		b	.L590
 5160              	.LVL402:
 5161              	.L618:
 5162              	.LBB218:
 5163              		.loc 1 1203 0
 5164 0402 DFF8B481 		ldr	r8, .L686+92
 5165 0406 D8F80030 		ldr	r3, [r8]
 5166 040a 002B     		cmp	r3, #0
 5167 040c 5DDB     		blt	.L642
 5168              		.loc 1 1204 0
 5169 040e 654A     		ldr	r2, .L686+72
 5170 0410 D8F80030 		ldr	r3, [r8]
 5171 0414 1268     		ldr	r2, [r2]
 5172              	.LVL403:
 5173              		.loc 1 1205 0
 5174 0416 9B1A     		subs	r3, r3, r2
 5175              	.LVL404:
 5176 0418 59D5     		bpl	.L625
 5177              		.loc 1 1206 0
 5178 041a 03F5FA63 		add	r3, r3, #2000
 5179              	.LVL405:
 5180 041e 56E0     		b	.L625
 5181              	.LVL406:
 5182              	.L617:
 5183              	.LBE218:
 5184              		.loc 1 1185 0
 5185 0420 FFF7FEFF 		bl	mc_interface_get_state
 5186              	.LVL407:
 5187 0424 0228     		cmp	r0, #2
ARM GAS  /tmp/ccETYwEL.s 			page 92


 5188 0426 4D4D     		ldr	r5, .L686
 5189 0428 03D0     		beq	.L622
 5190              		.loc 1 1185 0 is_stmt 0 discriminator 1
 5191 042a 2B68     		ldr	r3, [r5]
 5192 042c 002B     		cmp	r3, #0
 5193 042e 40F33381 		ble	.L681
 5194              	.L622:
 5195              	.LVL408:
 5196              		.loc 1 1189 0 is_stmt 1
 5197 0432 5C4B     		ldr	r3, .L686+72
 5198 0434 2A68     		ldr	r2, [r5]
 5199 0436 1B68     		ldr	r3, [r3]
 5200 0438 9A42     		cmp	r2, r3
 5201 043a 7FF42BAF 		bne	.L621
 5202 043e 4FF00109 		mov	r9, #1
 5203              	.LVL409:
 5204              	.L637:
 5205              		.loc 1 1190 0
 5206 0442 3B78     		ldrb	r3, [r7]	@ zero_extendqisi2
 5207 0444 584A     		ldr	r2, .L686+76
 5208 0446 DBB2     		uxtb	r3, r3
 5209              		.loc 1 1191 0
 5210 0448 4FF00008 		mov	r8, #0
 5211              		.loc 1 1190 0
 5212 044c 1370     		strb	r3, [r2]
 5213              	.LBB229:
 5214              	.LBB230:
 5215              	.LBB231:
 5216              	.LBB232:
 5217              	.LBB233:
 5218              		.file 4 "ChibiOS_3.0.2/os/ext/CMSIS/include/core_cmFunc.h"
 5219              		.loc 4 546 0
 5220 044e 2023     		movs	r3, #32
 5221              	.LBE233:
 5222              	.LBE232:
 5223              	.LBE231:
 5224              	.LBE230:
 5225              	.LBE229:
 5226              		.loc 1 1191 0
 5227 0450 87F80080 		strb	r8, [r7]
 5228              	.LVL410:
 5229              	.LBB238:
 5230              	.LBB237:
 5231              	.LBB236:
 5232              	.LBB235:
 5233              	.LBB234:
 5234              		.loc 4 546 0
 5235              		.syntax unified
 5236              	@ 546 "ChibiOS_3.0.2/os/ext/CMSIS/include/core_cmFunc.h" 1
 5237 0454 83F31188 		MSR basepri, r3
 5238              	@ 0 "" 2
 5239              	.LVL411:
 5240              		.thumb
 5241              		.syntax unified
 5242              	.LBE234:
 5243              	.LBE235:
 5244              	.LBE236:
ARM GAS  /tmp/ccETYwEL.s 			page 93


 5245              	.LBE237:
 5246              	.LBE238:
 5247              		.loc 1 1193 0
 5248 0458 544B     		ldr	r3, .L686+80
 5249 045a 0121     		movs	r1, #1
 5250 045c 1868     		ldr	r0, [r3]
 5251 045e FFF7FEFF 		bl	chEvtSignalI
 5252              	.LVL412:
 5253              	.LBB239:
 5254              	.LBB240:
 5255              	.LBB241:
 5256              	.LBB242:
 5257              	.LBB243:
 5258              		.loc 4 546 0
 5259              		.syntax unified
 5260              	@ 546 "ChibiOS_3.0.2/os/ext/CMSIS/include/core_cmFunc.h" 1
 5261 0462 88F31188 		MSR basepri, r8
 5262              	@ 0 "" 2
 5263              	.LVL413:
 5264              		.thumb
 5265              		.syntax unified
 5266              	.LBE243:
 5267              	.LBE242:
 5268              	.LBE241:
 5269              	.LBE240:
 5270              	.LBE239:
 5271              		.loc 1 1262 0
 5272 0466 B9F1000F 		cmp	r9, #0
 5273 046a 98D0     		beq	.L586
 5274 046c 12E7     		b	.L621
 5275              	.LVL414:
 5276              	.L615:
 5277              		.loc 1 1173 0
 5278 046e 3B4D     		ldr	r5, .L686
 5279 0470 4C4B     		ldr	r3, .L686+72
 5280 0472 2A68     		ldr	r2, [r5]
 5281 0474 1B68     		ldr	r3, [r3]
 5282 0476 9A42     		cmp	r2, r3
 5283 0478 7FF40CAF 		bne	.L621
 5284              		.loc 1 1175 0
 5285 047c 4A4A     		ldr	r2, .L686+76
 5286              		.loc 1 1174 0
 5287 047e 0024     		movs	r4, #0
 5288              		.loc 1 1175 0
 5289 0480 0121     		movs	r1, #1
 5290              		.loc 1 1174 0
 5291 0482 3C70     		strb	r4, [r7]
 5292              	.LBB244:
 5293              	.LBB245:
 5294              	.LBB246:
 5295              	.LBB247:
 5296              	.LBB248:
 5297              		.loc 4 546 0
 5298 0484 2023     		movs	r3, #32
 5299              	.LBE248:
 5300              	.LBE247:
 5301              	.LBE246:
ARM GAS  /tmp/ccETYwEL.s 			page 94


 5302              	.LBE245:
 5303              	.LBE244:
 5304              		.loc 1 1175 0
 5305 0486 1170     		strb	r1, [r2]
 5306              	.LVL415:
 5307              	.LBB253:
 5308              	.LBB252:
 5309              	.LBB251:
 5310              	.LBB250:
 5311              	.LBB249:
 5312              		.loc 4 546 0
 5313              		.syntax unified
 5314              	@ 546 "ChibiOS_3.0.2/os/ext/CMSIS/include/core_cmFunc.h" 1
 5315 0488 83F31188 		MSR basepri, r3
 5316              	@ 0 "" 2
 5317              	.LVL416:
 5318              		.thumb
 5319              		.syntax unified
 5320              	.LBE249:
 5321              	.LBE250:
 5322              	.LBE251:
 5323              	.LBE252:
 5324              	.LBE253:
 5325              		.loc 1 1177 0
 5326 048c 474B     		ldr	r3, .L686+80
 5327 048e 1868     		ldr	r0, [r3]
 5328 0490 FFF7FEFF 		bl	chEvtSignalI
 5329              	.LVL417:
 5330              	.LBB254:
 5331              	.LBB255:
 5332              	.LBB256:
 5333              	.LBB257:
 5334              	.LBB258:
 5335              		.loc 4 546 0
 5336              		.syntax unified
 5337              	@ 546 "ChibiOS_3.0.2/os/ext/CMSIS/include/core_cmFunc.h" 1
 5338 0494 84F31188 		MSR basepri, r4
 5339              	@ 0 "" 2
 5340              	.LVL418:
 5341              		.thumb
 5342              		.syntax unified
 5343 0498 81E7     		b	.L586
 5344              	.LVL419:
 5345              	.L606:
 5346              	.LBE258:
 5347              	.LBE257:
 5348              	.LBE256:
 5349              	.LBE255:
 5350              	.LBE254:
 5351              	.LBB259:
 5352              	.LBB191:
 5353 049a 0320     		movs	r0, #3
 5354 049c FFF7FEFF 		bl	mc_interface_fault_stop.part.4
 5355              	.LVL420:
 5356 04a0 51E6     		b	.L605
 5357              	.LVL421:
 5358              	.L675:
ARM GAS  /tmp/ccETYwEL.s 			page 95


 5359              	.LBE191:
 5360              	.LBE259:
 5361              		.loc 1 1125 0
 5362 04a2 FFF7FEFF 		bl	mcpwm_foc_get_abs_motor_current
 5363              	.LVL422:
 5364 04a6 B0EE409A 		vmov.f32	s18, s0
 5365              	.LVL423:
 5366              		.loc 1 1126 0
 5367 04aa FFF7FEFF 		bl	mcpwm_foc_get_abs_motor_current_filtered
 5368              	.LVL424:
 5369 04ae 2FE6     		b	.L597
 5370              	.LVL425:
 5371              	.L593:
 5372              	.LBB260:
 5373              	.LBB215:
 5374 04b0 FFF7FEFF 		bl	mc_interface_fault_stop.part.4
 5375              	.LVL426:
 5376 04b4 D0E5     		b	.L590
 5377              	.LVL427:
 5378              	.L676:
 5379              	.LBE215:
 5380              	.LBE260:
 5381              	.LBB261:
 5382              		.loc 1 1234 0
 5383 04b6 3B4A     		ldr	r2, .L686+72
 5384 04b8 D8F80030 		ldr	r3, [r8]
 5385 04bc 1268     		ldr	r2, [r2]
 5386              	.LVL428:
 5387              		.loc 1 1235 0
 5388 04be 9B1A     		subs	r3, r3, r2
 5389              	.LVL429:
 5390 04c0 7FF5D9AE 		bpl	.L629
 5391              		.loc 1 1236 0
 5392 04c4 03F5FA63 		add	r3, r3, #2000
 5393              	.LVL430:
 5394 04c8 D5E6     		b	.L629
 5395              	.LVL431:
 5396              	.L642:
 5397              	.LBE261:
 5398              	.LBB262:
 5399              		.loc 1 1202 0
 5400 04ca 4FF0FF33 		mov	r3, #-1
 5401              	.LVL432:
 5402              	.L625:
 5403              		.loc 1 1210 0
 5404 04ce 234D     		ldr	r5, .L686
 5405 04d0 2A68     		ldr	r2, [r5]
 5406 04d2 9A42     		cmp	r2, r3
 5407 04d4 14D0     		beq	.L626
 5408              		.loc 1 1223 0
 5409 04d6 FFF7FEFF 		bl	mc_interface_get_state
 5410              	.LVL433:
 5411 04da 0228     		cmp	r0, #2
 5412 04dc 7FF4DAAE 		bne	.L621
 5413 04e0 D1E6     		b	.L638
 5414              	.LVL434:
 5415              	.L663:
ARM GAS  /tmp/ccETYwEL.s 			page 96


 5416              	.LBE262:
 5417              	.LBB263:
 5418              		.loc 1 1160 0
 5419 04e2 3348     		ldr	r0, .L686+84
 5420              		.loc 1 1161 0
 5421 04e4 3349     		ldr	r1, .L686+88
 5422              		.loc 1 1160 0
 5423 04e6 90ED007A 		vldr.32	s14, [r0]
 5424 04ea 77EE677A 		vsub.f32	s15, s14, s15
 5425 04ee C0ED007A 		vstr.32	s15, [r0]
 5426              		.loc 1 1161 0
 5427 04f2 D1ED007A 		vldr.32	s15, [r1]
 5428 04f6 37EEC88A 		vsub.f32	s16, s15, s16
 5429 04fa 81ED008A 		vstr.32	s16, [r1]
 5430 04fe 5EE6     		b	.L613
 5431              	.LVL435:
 5432              	.L626:
 5433              	.LBE263:
 5434              	.LBB264:
 5435              		.loc 1 1211 0
 5436 0500 3B78     		ldrb	r3, [r7]	@ zero_extendqisi2
 5437              	.LVL436:
 5438 0502 294A     		ldr	r2, .L686+76
 5439 0504 DBB2     		uxtb	r3, r3
 5440 0506 1370     		strb	r3, [r2]
 5441              	.LVL437:
 5442              		.loc 1 1214 0
 5443 0508 3B78     		ldrb	r3, [r7]	@ zero_extendqisi2
 5444 050a 032B     		cmp	r3, #3
 5445 050c 00F0CD80 		beq	.L682
 5446              	.LVL438:
 5447              	.L627:
 5448              		.loc 1 1220 0
 5449 0510 0023     		movs	r3, #0
 5450 0512 3B70     		strb	r3, [r7]
 5451              		.loc 1 1223 0
 5452 0514 FFF7FEFF 		bl	mc_interface_get_state
 5453              	.LVL439:
 5454 0518 0228     		cmp	r0, #2
 5455 051a 7FF440AF 		bne	.L586
 5456 051e D8F80030 		ldr	r3, [r8]
 5457 0522 002B     		cmp	r3, #0
 5458 0524 BFF63BAF 		bge	.L586
 5459              	.L669:
 5460              	.LBE264:
 5461              	.LBB265:
 5462              		.loc 1 1254 0
 5463 0528 2B68     		ldr	r3, [r5]
 5464 052a C8F80030 		str	r3, [r8]
 5465 052e 36E7     		b	.L586
 5466              	.LVL440:
 5467              	.L677:
 5468              		.loc 1 1241 0
 5469 0530 3B78     		ldrb	r3, [r7]	@ zero_extendqisi2
 5470              	.LVL441:
 5471 0532 1D4A     		ldr	r2, .L686+76
 5472 0534 DBB2     		uxtb	r3, r3
ARM GAS  /tmp/ccETYwEL.s 			page 97


 5473 0536 1370     		strb	r3, [r2]
 5474              	.LVL442:
 5475              		.loc 1 1244 0
 5476 0538 3B78     		ldrb	r3, [r7]	@ zero_extendqisi2
 5477 053a 042B     		cmp	r3, #4
 5478 053c 00F0C180 		beq	.L683
 5479              	.LVL443:
 5480              	.L631:
 5481              		.loc 1 1253 0
 5482 0540 074B     		ldr	r3, .L686+4
 5483 0542 1B78     		ldrb	r3, [r3]	@ zero_extendqisi2
 5484              		.loc 1 1250 0
 5485 0544 0022     		movs	r2, #0
 5486 0546 3A70     		strb	r2, [r7]
 5487              		.loc 1 1253 0
 5488 0548 002B     		cmp	r3, #0
 5489 054a 3FF428AF 		beq	.L586
 5490 054e D8F80030 		ldr	r3, [r8]
 5491 0552 9342     		cmp	r3, r2
 5492 0554 BFF623AF 		bge	.L586
 5493 0558 E6E7     		b	.L669
 5494              	.L687:
 5495 055a 00BF     		.align	2
 5496              	.L686:
 5497 055c 00000000 		.word	.LANCHOR35
 5498 0560 00000000 		.word	.LANCHOR13
 5499 0564 00000000 		.word	.LANCHOR45
 5500 0568 00000000 		.word	.LANCHOR34
 5501 056c 00000000 		.word	mcpwm_vzero
 5502 0570 C8760000 		.word	.LANCHOR11
 5503 0574 00000000 		.word	.LANCHOR46
 5504 0578 00000000 		.word	.LANCHOR4
 5505 057c F8100000 		.word	.LANCHOR5
 5506 0580 E8320000 		.word	.LANCHOR7
 5507 0584 E0430000 		.word	.LANCHOR8
 5508 0588 D8540000 		.word	.LANCHOR9
 5509 058c D0650000 		.word	.LANCHOR10
 5510 0590 A48BC642 		.word	1120308132
 5511 0594 00000000 		.word	.LANCHOR31
 5512 0598 00000000 		.word	.LANCHOR14
 5513 059c 00000000 		.word	.LANCHOR15
 5514 05a0 00000000 		.word	.LANCHOR42
 5515 05a4 00000000 		.word	.LANCHOR2
 5516 05a8 00000000 		.word	.LANCHOR1
 5517 05ac 00000000 		.word	.LANCHOR0
 5518 05b0 00000000 		.word	.LANCHOR27
 5519 05b4 00000000 		.word	.LANCHOR29
 5520 05b8 00000000 		.word	.LANCHOR3
 5521 05bc F0210000 		.word	.LANCHOR6
 5522              	.LVL444:
 5523              	.L678:
 5524              	.LBE265:
 5525              	.LBB266:
 5526              	.LBB209:
 5527              		.loc 1 1275 0
 5528 05c0 B188     		ldrh	r1, [r6, #4]
 5529 05c2 7488     		ldrh	r4, [r6, #2]
ARM GAS  /tmp/ccETYwEL.s 			page 98


 5530 05c4 3288     		ldrh	r2, [r6]
 5531 05c6 454B     		ldr	r3, .L688
 5532              		.loc 1 1276 0
 5533 05c8 454F     		ldr	r7, .L688+4
 5534              		.loc 1 1275 0
 5535 05ca 0C44     		add	r4, r4, r1
 5536 05cc 1444     		add	r4, r4, r2
 5537 05ce A3FB0434 		umull	r3, r4, r3, r4
 5538              		.loc 1 1276 0
 5539 05d2 FFF7FEFF 		bl	mcpwm_foc_get_phase
 5540              	.LVL445:
 5541 05d6 9FED437A 		vldr.32	s14, .L688+8
 5542 05da DFED437A 		vldr.32	s15, .L688+12
 5543 05de 2B68     		ldr	r3, [r5]
 5544 05e0 80EE070A 		vdiv.f32	s0, s0, s14
 5545 05e4 3B44     		add	r3, r3, r7
 5546              		.loc 1 1275 0
 5547 05e6 44F34F04 		sbfx	r4, r4, #1, #16
 5548              	.LVL446:
 5549              		.loc 1 1276 0
 5550 05ea 20EE270A 		vmul.f32	s0, s0, s15
 5551 05ee FCEEC07A 		vcvt.u32.f32	s15, s0
 5552 05f2 CDED017A 		vstr.32	s15, [sp, #4]	@ int
 5553 05f6 9DF90420 		ldrsb	r2, [sp, #4]
 5554 05fa 83F8082E 		strb	r2, [r3, #3592]
 5555 05fe 65E6     		b	.L634
 5556              	.L679:
 5557              		.loc 1 1286 0
 5558 0600 FFF7FEFF 		bl	mcpwm_get_comm_step
 5559              	.LVL447:
 5560 0604 394B     		ldr	r3, .L688+16
 5561 0606 3A4E     		ldr	r6, .L688+20
 5562 0608 0138     		subs	r0, r0, #1
 5563 060a 03EB8003 		add	r3, r3, r0, lsl #2
 5564 060e D3ED007A 		vldr.32	s15, [r3]
 5565 0612 2A68     		ldr	r2, [r5]
 5566 0614 FDEEE77A 		vcvt.s32.f32	s15, s15
 5567 0618 17EE903A 		vmov	r3, s15	@ int
 5568 061c 1BB2     		sxth	r3, r3
 5569 061e 26F81230 		strh	r3, [r6, r2, lsl #1]	@ movhi
 5570              		.loc 1 1287 0
 5571 0622 FFF7FEFF 		bl	mcpwm_get_comm_step
 5572              	.LVL448:
 5573 0626 334B     		ldr	r3, .L688+24
 5574              		.loc 1 1289 0
 5575 0628 3349     		ldr	r1, .L688+28
 5576 062a 344A     		ldr	r2, .L688+32
 5577              		.loc 1 1287 0
 5578 062c 0138     		subs	r0, r0, #1
 5579 062e 03EB8003 		add	r3, r3, r0, lsl #2
 5580 0632 D3ED007A 		vldr.32	s15, [r3]
 5581 0636 2B68     		ldr	r3, [r5]
 5582              		.loc 1 1290 0
 5583 0638 3148     		ldr	r0, .L688+36
 5584              		.loc 1 1287 0
 5585 063a FDEEE77A 		vcvt.s32.f32	s15, s15
 5586 063e 06EB4306 		add	r6, r6, r3, lsl #1
ARM GAS  /tmp/ccETYwEL.s 			page 99


 5587 0642 17EE903A 		vmov	r3, s15	@ int
 5588 0646 1BB2     		sxth	r3, r3
 5589 0648 A6F8A03F 		strh	r3, [r6, #4000]	@ movhi
 5590              		.loc 1 1289 0
 5591 064c D1ED007A 		vldr.32	s15, [r1]
 5592 0650 2B68     		ldr	r3, [r5]
 5593 0652 FDEEE77A 		vcvt.s32.f32	s15, s15
 5594 0656 02EB4302 		add	r2, r2, r3, lsl #1
 5595 065a 17EE903A 		vmov	r3, s15	@ int
 5596 065e 1BB2     		sxth	r3, r3
 5597 0660 A2F8483E 		strh	r3, [r2, #3656]	@ movhi
 5598              		.loc 1 1290 0
 5599 0664 D1ED017A 		vldr.32	s15, [r1, #4]
 5600 0668 2B68     		ldr	r3, [r5]
 5601              		.loc 1 1291 0
 5602 066a 264A     		ldr	r2, .L688+40
 5603              		.loc 1 1290 0
 5604 066c FDEEE77A 		vcvt.s32.f32	s15, s15
 5605 0670 00EB4300 		add	r0, r0, r3, lsl #1
 5606 0674 17EE903A 		vmov	r3, s15	@ int
 5607 0678 1BB2     		sxth	r3, r3
 5608 067a A0F8F03C 		strh	r3, [r0, #3312]	@ movhi
 5609              		.loc 1 1291 0
 5610 067e D1ED027A 		vldr.32	s15, [r1, #8]
 5611 0682 2B68     		ldr	r3, [r5]
 5612 0684 FDEEE77A 		vcvt.s32.f32	s15, s15
 5613 0688 02EB4302 		add	r2, r2, r3, lsl #1
 5614 068c 17EE903A 		vmov	r3, s15	@ int
 5615 0690 1BB2     		sxth	r3, r3
 5616 0692 A2F8983B 		strh	r3, [r2, #2968]	@ movhi
 5617 0696 4AE6     		b	.L636
 5618              	.LVL449:
 5619              	.L681:
 5620              	.LBE209:
 5621              	.LBE266:
 5622              		.loc 1 1189 0
 5623 0698 1B4B     		ldr	r3, .L688+44
 5624 069a 2A68     		ldr	r2, [r5]
 5625 069c 1B68     		ldr	r3, [r3]
 5626 069e 9A42     		cmp	r2, r3
 5627 06a0 7FF47DAE 		bne	.L586
 5628              		.loc 1 1169 0
 5629 06a4 4FF00009 		mov	r9, #0
 5630 06a8 CBE6     		b	.L637
 5631              	.LVL450:
 5632              	.L682:
 5633              	.LBB267:
 5634              	.LBB219:
 5635              	.LBB220:
 5636              	.LBB221:
 5637              	.LBB222:
 5638              	.LBB223:
 5639              		.loc 4 546 0
 5640 06aa 2023     		movs	r3, #32
 5641              		.syntax unified
 5642              	@ 546 "ChibiOS_3.0.2/os/ext/CMSIS/include/core_cmFunc.h" 1
 5643 06ac 83F31188 		MSR basepri, r3
ARM GAS  /tmp/ccETYwEL.s 			page 100


 5644              	@ 0 "" 2
 5645              	.LVL451:
 5646              		.thumb
 5647              		.syntax unified
 5648              	.LBE223:
 5649              	.LBE222:
 5650              	.LBE221:
 5651              	.LBE220:
 5652              	.LBE219:
 5653              		.loc 1 1216 0
 5654 06b0 164B     		ldr	r3, .L688+48
 5655 06b2 0121     		movs	r1, #1
 5656 06b4 1868     		ldr	r0, [r3]
 5657 06b6 FFF7FEFF 		bl	chEvtSignalI
 5658              	.LVL452:
 5659              	.LBB224:
 5660              	.LBB225:
 5661              	.LBB226:
 5662              	.LBB227:
 5663              	.LBB228:
 5664              		.loc 4 546 0
 5665 06ba 0023     		movs	r3, #0
 5666              		.syntax unified
 5667              	@ 546 "ChibiOS_3.0.2/os/ext/CMSIS/include/core_cmFunc.h" 1
 5668 06bc 83F31188 		MSR basepri, r3
 5669              	@ 0 "" 2
 5670              	.LVL453:
 5671              		.thumb
 5672              		.syntax unified
 5673 06c0 26E7     		b	.L627
 5674              	.LVL454:
 5675              	.L683:
 5676              	.LBE228:
 5677              	.LBE227:
 5678              	.LBE226:
 5679              	.LBE225:
 5680              	.LBE224:
 5681              	.LBE267:
 5682              	.LBB268:
 5683              	.LBB193:
 5684              	.LBB194:
 5685              	.LBB195:
 5686              	.LBB196:
 5687              	.LBB197:
 5688 06c2 2023     		movs	r3, #32
 5689              		.syntax unified
 5690              	@ 546 "ChibiOS_3.0.2/os/ext/CMSIS/include/core_cmFunc.h" 1
 5691 06c4 83F31188 		MSR basepri, r3
 5692              	@ 0 "" 2
 5693              	.LVL455:
 5694              		.thumb
 5695              		.syntax unified
 5696              	.LBE197:
 5697              	.LBE196:
 5698              	.LBE195:
 5699              	.LBE194:
 5700              	.LBE193:
ARM GAS  /tmp/ccETYwEL.s 			page 101


 5701              		.loc 1 1246 0
 5702 06c8 104B     		ldr	r3, .L688+48
 5703 06ca 0121     		movs	r1, #1
 5704 06cc 1868     		ldr	r0, [r3]
 5705 06ce FFF7FEFF 		bl	chEvtSignalI
 5706              	.LVL456:
 5707              	.LBB198:
 5708              	.LBB199:
 5709              	.LBB200:
 5710              	.LBB201:
 5711              	.LBB202:
 5712              		.loc 4 546 0
 5713 06d2 0023     		movs	r3, #0
 5714              		.syntax unified
 5715              	@ 546 "ChibiOS_3.0.2/os/ext/CMSIS/include/core_cmFunc.h" 1
 5716 06d4 83F31188 		MSR basepri, r3
 5717              	@ 0 "" 2
 5718              	.LVL457:
 5719              		.thumb
 5720              		.syntax unified
 5721 06d8 32E7     		b	.L631
 5722              	.L689:
 5723 06da 00BF     		.align	2
 5724              	.L688:
 5725 06dc ABAAAAAA 		.word	-1431655765
 5726 06e0 C8760000 		.word	.LANCHOR11
 5727 06e4 0000B443 		.word	1135869952
 5728 06e8 00007A43 		.word	1132068864
 5729 06ec 00000000 		.word	mcpwm_detect_currents
 5730 06f0 00000000 		.word	.LANCHOR4
 5731 06f4 00000000 		.word	mcpwm_detect_currents_diff
 5732 06f8 00000000 		.word	mcpwm_detect_voltages
 5733 06fc F8100000 		.word	.LANCHOR5
 5734 0700 F0210000 		.word	.LANCHOR6
 5735 0704 E8320000 		.word	.LANCHOR7
 5736 0708 00000000 		.word	.LANCHOR2
 5737 070c 00000000 		.word	.LANCHOR0
 5738              	.LBE202:
 5739              	.LBE201:
 5740              	.LBE200:
 5741              	.LBE199:
 5742              	.LBE198:
 5743              	.LBE268:
 5744              		.cfi_endproc
 5745              	.LFE308:
 5746              		.size	mc_interface_mc_timer_isr, .-mc_interface_mc_timer_isr
 5747              		.section	.text.mc_interface_adc_inj_int_handler,"ax",%progbits
 5748              		.align	1
 5749              		.p2align 4,,15
 5750              		.global	mc_interface_adc_inj_int_handler
 5751              		.syntax unified
 5752              		.thumb
 5753              		.thumb_func
 5754              		.fpu fpv4-sp-d16
 5755              		.type	mc_interface_adc_inj_int_handler, %function
 5756              	mc_interface_adc_inj_int_handler:
 5757              	.LFB309:
ARM GAS  /tmp/ccETYwEL.s 			page 102


 5758              		.loc 1 1313 0
 5759              		.cfi_startproc
 5760              		@ args = 0, pretend = 0, frame = 0
 5761              		@ frame_needed = 0, uses_anonymous_args = 0
 5762              		@ link register save eliminated.
 5763              		.loc 1 1314 0
 5764 0000 034B     		ldr	r3, .L694
 5765 0002 9B78     		ldrb	r3, [r3, #2]	@ zero_extendqisi2
 5766 0004 012B     		cmp	r3, #1
 5767 0006 00D9     		bls	.L693
 5768              		.loc 1 1326 0
 5769 0008 7047     		bx	lr
 5770              	.L693:
 5771              		.loc 1 1317 0
 5772 000a FFF7FEBF 		b	mcpwm_adc_inj_int_handler
 5773              	.LVL458:
 5774              	.L695:
 5775 000e 00BF     		.align	2
 5776              	.L694:
 5777 0010 00000000 		.word	.LANCHOR12
 5778              		.cfi_endproc
 5779              	.LFE309:
 5780              		.size	mc_interface_adc_inj_int_handler, .-mc_interface_adc_inj_int_handler
 5781              		.global	ADC_curr_norm_value
 5782              		.global	ADC_Value
 5783              		.section	.bss.ADC_Value,"aw",%nobits
 5784              		.align	2
 5785              		.set	.LANCHOR41,. + 0
 5786              		.type	ADC_Value, %object
 5787              		.size	ADC_Value, 24
 5788              	ADC_Value:
 5789 0000 00000000 		.space	24
 5789      00000000 
 5789      00000000 
 5789      00000000 
 5789      00000000 
 5790              		.section	.bss.ADC_curr_norm_value,"aw",%nobits
 5791              		.align	2
 5792              		.set	.LANCHOR46,. + 0
 5793              		.type	ADC_curr_norm_value, %object
 5794              		.size	ADC_curr_norm_value, 12
 5795              	ADC_curr_norm_value:
 5796 0000 00000000 		.space	12
 5796      00000000 
 5796      00000000 
 5797              		.section	.bss.a.12115,"aw",%nobits
 5798              		.align	2
 5799              		.set	.LANCHOR45,. + 0
 5800              		.type	a.12115, %object
 5801              		.size	a.12115, 4
 5802              	a.12115:
 5803 0000 00000000 		.space	4
 5804              		.section	.bss.curr_diff_samples.12103,"aw",%nobits
 5805              		.align	2
 5806              		.set	.LANCHOR44,. + 0
 5807              		.type	curr_diff_samples.12103, %object
 5808              		.size	curr_diff_samples.12103, 4
ARM GAS  /tmp/ccETYwEL.s 			page 103


 5809              	curr_diff_samples.12103:
 5810 0000 00000000 		.space	4
 5811              		.section	.bss.curr_diff_sum.12102,"aw",%nobits
 5812              		.align	2
 5813              		.set	.LANCHOR43,. + 0
 5814              		.type	curr_diff_sum.12102, %object
 5815              		.size	curr_diff_sum.12102, 4
 5816              	curr_diff_sum.12102:
 5817 0000 00000000 		.space	4
 5818              		.section	.bss.m_amp_seconds,"aw",%nobits
 5819              		.align	2
 5820              		.set	.LANCHOR26,. + 0
 5821              		.type	m_amp_seconds, %object
 5822              		.size	m_amp_seconds, 4
 5823              	m_amp_seconds:
 5824 0000 00000000 		.space	4
 5825              		.section	.bss.m_amp_seconds_charged,"aw",%nobits
 5826              		.align	2
 5827              		.set	.LANCHOR27,. + 0
 5828              		.type	m_amp_seconds_charged, %object
 5829              		.size	m_amp_seconds_charged, 4
 5830              	m_amp_seconds_charged:
 5831 0000 00000000 		.space	4
 5832              		.section	.bss.m_conf,"aw",%nobits
 5833              		.align	2
 5834              		.set	.LANCHOR12,. + 0
 5835              		.type	m_conf, %object
 5836              		.size	m_conf, 388
 5837              	m_conf:
 5838 0000 00000000 		.space	388
 5838      00000000 
 5838      00000000 
 5838      00000000 
 5838      00000000 
 5839              		.section	.bss.m_cycles_running,"aw",%nobits
 5840              		.align	2
 5841              		.set	.LANCHOR15,. + 0
 5842              		.type	m_cycles_running, %object
 5843              		.size	m_cycles_running, 4
 5844              	m_cycles_running:
 5845 0000 00000000 		.space	4
 5846              		.section	.bss.m_fault_now,"aw",%nobits
 5847              		.set	.LANCHOR13,. + 0
 5848              		.type	m_fault_now, %object
 5849              		.size	m_fault_now, 1
 5850              	m_fault_now:
 5851 0000 00       		.space	1
 5852              		.section	.bss.m_ignore_iterations,"aw",%nobits
 5853              		.align	2
 5854              		.set	.LANCHOR14,. + 0
 5855              		.type	m_ignore_iterations, %object
 5856              		.size	m_ignore_iterations, 4
 5857              	m_ignore_iterations:
 5858 0000 00000000 		.space	4
 5859              		.section	.bss.m_input_current_iterations,"aw",%nobits
 5860              		.align	2
 5861              		.set	.LANCHOR21,. + 0
ARM GAS  /tmp/ccETYwEL.s 			page 104


 5862              		.type	m_input_current_iterations, %object
 5863              		.size	m_input_current_iterations, 4
 5864              	m_input_current_iterations:
 5865 0000 00000000 		.space	4
 5866              		.section	.bss.m_input_current_sum,"aw",%nobits
 5867              		.align	2
 5868              		.set	.LANCHOR19,. + 0
 5869              		.type	m_input_current_sum, %object
 5870              		.size	m_input_current_sum, 4
 5871              	m_input_current_sum:
 5872 0000 00000000 		.space	4
 5873              		.section	.bss.m_last_adc_duration_sample,"aw",%nobits
 5874              		.align	2
 5875              		.set	.LANCHOR31,. + 0
 5876              		.type	m_last_adc_duration_sample, %object
 5877              		.size	m_last_adc_duration_sample, 4
 5878              	m_last_adc_duration_sample:
 5879 0000 00000000 		.space	4
 5880              		.section	.bss.m_lock_enabled,"aw",%nobits
 5881              		.set	.LANCHOR16,. + 0
 5882              		.type	m_lock_enabled, %object
 5883              		.size	m_lock_enabled, 1
 5884              	m_lock_enabled:
 5885 0000 00       		.space	1
 5886              		.section	.bss.m_lock_override_once,"aw",%nobits
 5887              		.set	.LANCHOR17,. + 0
 5888              		.type	m_lock_override_once, %object
 5889              		.size	m_lock_override_once, 1
 5890              	m_lock_override_once:
 5891 0000 00       		.space	1
 5892              		.section	.bss.m_motor_current_iterations,"aw",%nobits
 5893              		.align	2
 5894              		.set	.LANCHOR20,. + 0
 5895              		.type	m_motor_current_iterations, %object
 5896              		.size	m_motor_current_iterations, 4
 5897              	m_motor_current_iterations:
 5898 0000 00000000 		.space	4
 5899              		.section	.bss.m_motor_current_sum,"aw",%nobits
 5900              		.align	2
 5901              		.set	.LANCHOR18,. + 0
 5902              		.type	m_motor_current_sum, %object
 5903              		.size	m_motor_current_sum, 4
 5904              	m_motor_current_sum:
 5905 0000 00000000 		.space	4
 5906              		.section	.bss.m_motor_id_iterations,"aw",%nobits
 5907              		.align	2
 5908              		.set	.LANCHOR24,. + 0
 5909              		.type	m_motor_id_iterations, %object
 5910              		.size	m_motor_id_iterations, 4
 5911              	m_motor_id_iterations:
 5912 0000 00000000 		.space	4
 5913              		.section	.bss.m_motor_id_sum,"aw",%nobits
 5914              		.align	2
 5915              		.set	.LANCHOR22,. + 0
 5916              		.type	m_motor_id_sum, %object
 5917              		.size	m_motor_id_sum, 4
 5918              	m_motor_id_sum:
ARM GAS  /tmp/ccETYwEL.s 			page 105


 5919 0000 00000000 		.space	4
 5920              		.section	.bss.m_motor_iq_iterations,"aw",%nobits
 5921              		.align	2
 5922              		.set	.LANCHOR25,. + 0
 5923              		.type	m_motor_iq_iterations, %object
 5924              		.size	m_motor_iq_iterations, 4
 5925              	m_motor_iq_iterations:
 5926 0000 00000000 		.space	4
 5927              		.section	.bss.m_motor_iq_sum,"aw",%nobits
 5928              		.align	2
 5929              		.set	.LANCHOR23,. + 0
 5930              		.type	m_motor_iq_sum, %object
 5931              		.size	m_motor_iq_sum, 4
 5932              	m_motor_iq_sum:
 5933 0000 00000000 		.space	4
 5934              		.section	.bss.m_position_set,"aw",%nobits
 5935              		.align	2
 5936              		.set	.LANCHOR30,. + 0
 5937              		.type	m_position_set, %object
 5938              		.size	m_position_set, 4
 5939              	m_position_set:
 5940 0000 00000000 		.space	4
 5941              		.section	.bss.m_sample_int,"aw",%nobits
 5942              		.align	2
 5943              		.set	.LANCHOR34,. + 0
 5944              		.type	m_sample_int, %object
 5945              		.size	m_sample_int, 4
 5946              	m_sample_int:
 5947 0000 00000000 		.space	4
 5948              		.section	.bss.m_sample_len,"aw",%nobits
 5949              		.align	2
 5950              		.set	.LANCHOR2,. + 0
 5951              		.type	m_sample_len, %object
 5952              		.size	m_sample_len, 4
 5953              	m_sample_len:
 5954 0000 00000000 		.space	4
 5955              		.section	.bss.m_sample_mode,"aw",%nobits
 5956              		.set	.LANCHOR36,. + 0
 5957              		.type	m_sample_mode, %object
 5958              		.size	m_sample_mode, 1
 5959              	m_sample_mode:
 5960 0000 00       		.space	1
 5961              		.section	.bss.m_sample_mode_last,"aw",%nobits
 5962              		.set	.LANCHOR1,. + 0
 5963              		.type	m_sample_mode_last, %object
 5964              		.size	m_sample_mode_last, 1
 5965              	m_sample_mode_last:
 5966 0000 00       		.space	1
 5967              		.section	.bss.m_sample_now,"aw",%nobits
 5968              		.align	2
 5969              		.set	.LANCHOR35,. + 0
 5970              		.type	m_sample_now, %object
 5971              		.size	m_sample_now, 4
 5972              	m_sample_now:
 5973 0000 00000000 		.space	4
 5974              		.section	.bss.m_sample_trigger,"aw",%nobits
 5975              		.align	2
ARM GAS  /tmp/ccETYwEL.s 			page 106


 5976              		.set	.LANCHOR3,. + 0
 5977              		.type	m_sample_trigger, %object
 5978              		.size	m_sample_trigger, 4
 5979              	m_sample_trigger:
 5980 0000 00000000 		.space	4
 5981              		.section	.bss.m_temp_fet,"aw",%nobits
 5982              		.align	2
 5983              		.set	.LANCHOR32,. + 0
 5984              		.type	m_temp_fet, %object
 5985              		.size	m_temp_fet, 4
 5986              	m_temp_fet:
 5987 0000 00000000 		.space	4
 5988              		.section	.bss.m_temp_motor,"aw",%nobits
 5989              		.align	2
 5990              		.set	.LANCHOR33,. + 0
 5991              		.type	m_temp_motor, %object
 5992              		.size	m_temp_motor, 4
 5993              	m_temp_motor:
 5994 0000 00000000 		.space	4
 5995              		.section	.bss.m_watt_seconds,"aw",%nobits
 5996              		.align	2
 5997              		.set	.LANCHOR28,. + 0
 5998              		.type	m_watt_seconds, %object
 5999              		.size	m_watt_seconds, 4
 6000              	m_watt_seconds:
 6001 0000 00000000 		.space	4
 6002              		.section	.bss.m_watt_seconds_charged,"aw",%nobits
 6003              		.align	2
 6004              		.set	.LANCHOR29,. + 0
 6005              		.type	m_watt_seconds_charged, %object
 6006              		.size	m_watt_seconds_charged, 4
 6007              	m_watt_seconds_charged:
 6008 0000 00000000 		.space	4
 6009              		.section	.bss.pwn_done_func,"aw",%nobits
 6010              		.align	2
 6011              		.set	.LANCHOR39,. + 0
 6012              		.type	pwn_done_func, %object
 6013              		.size	pwn_done_func, 4
 6014              	pwn_done_func:
 6015 0000 00000000 		.space	4
 6016              		.section	.bss.sample_send_thread_wa,"aw",%nobits
 6017              		.align	3
 6018              		.set	.LANCHOR38,. + 0
 6019              		.type	sample_send_thread_wa, %object
 6020              		.size	sample_send_thread_wa, 1432
 6021              	sample_send_thread_wa:
 6022 0000 00000000 		.space	1432
 6022      00000000 
 6022      00000000 
 6022      00000000 
 6022      00000000 
 6023              		.section	.bss.sample_send_tp,"aw",%nobits
 6024              		.align	2
 6025              		.set	.LANCHOR0,. + 0
 6026              		.type	sample_send_tp, %object
 6027              		.size	sample_send_tp, 4
 6028              	sample_send_tp:
ARM GAS  /tmp/ccETYwEL.s 			page 107


 6029 0000 00000000 		.space	4
 6030              		.section	.bss.timer_thread_wa,"aw",%nobits
 6031              		.align	3
 6032              		.set	.LANCHOR37,. + 0
 6033              		.type	timer_thread_wa, %object
 6034              		.size	timer_thread_wa, 1432
 6035              	timer_thread_wa:
 6036 0000 00000000 		.space	1432
 6036      00000000 
 6036      00000000 
 6036      00000000 
 6036      00000000 
 6037              		.section	.bss.wrong_voltage_iterations.12096,"aw",%nobits
 6038              		.align	2
 6039              		.set	.LANCHOR42,. + 0
 6040              		.type	wrong_voltage_iterations.12096, %object
 6041              		.size	wrong_voltage_iterations.12096, 4
 6042              	wrong_voltage_iterations.12096:
 6043 0000 00000000 		.space	4
 6044              		.section	.ram4,"aw",%progbits
 6045              		.align	2
 6046              		.set	.LANCHOR4,. + 0
 6047              		.set	.LANCHOR5,. + 4344
 6048              		.set	.LANCHOR6,. + 8688
 6049              		.set	.LANCHOR7,. + 13032
 6050              		.set	.LANCHOR8,. + 17376
 6051              		.set	.LANCHOR9,. + 21720
 6052              		.set	.LANCHOR10,. + 26064
 6053              		.set	.LANCHOR11,. + 30408
 6054              		.type	m_curr0_samples, %object
 6055              		.size	m_curr0_samples, 4000
 6056              	m_curr0_samples:
 6057 0000 00000000 		.space	4000
 6057      00000000 
 6057      00000000 
 6057      00000000 
 6057      00000000 
 6058              		.type	m_curr1_samples, %object
 6059              		.size	m_curr1_samples, 4000
 6060              	m_curr1_samples:
 6061 0fa0 00000000 		.space	4000
 6061      00000000 
 6061      00000000 
 6061      00000000 
 6061      00000000 
 6062              		.type	m_ph1_samples, %object
 6063              		.size	m_ph1_samples, 4000
 6064              	m_ph1_samples:
 6065 1f40 00000000 		.space	4000
 6065      00000000 
 6065      00000000 
 6065      00000000 
 6065      00000000 
 6066              		.type	m_ph2_samples, %object
 6067              		.size	m_ph2_samples, 4000
 6068              	m_ph2_samples:
 6069 2ee0 00000000 		.space	4000
ARM GAS  /tmp/ccETYwEL.s 			page 108


 6069      00000000 
 6069      00000000 
 6069      00000000 
 6069      00000000 
 6070              		.type	m_ph3_samples, %object
 6071              		.size	m_ph3_samples, 4000
 6072              	m_ph3_samples:
 6073 3e80 00000000 		.space	4000
 6073      00000000 
 6073      00000000 
 6073      00000000 
 6073      00000000 
 6074              		.type	m_vzero_samples, %object
 6075              		.size	m_vzero_samples, 4000
 6076              	m_vzero_samples:
 6077 4e20 00000000 		.space	4000
 6077      00000000 
 6077      00000000 
 6077      00000000 
 6077      00000000 
 6078              		.type	m_curr_fir_samples, %object
 6079              		.size	m_curr_fir_samples, 4000
 6080              	m_curr_fir_samples:
 6081 5dc0 00000000 		.space	4000
 6081      00000000 
 6081      00000000 
 6081      00000000 
 6081      00000000 
 6082              		.type	m_f_sw_samples, %object
 6083              		.size	m_f_sw_samples, 4000
 6084              	m_f_sw_samples:
 6085 6d60 00000000 		.space	4000
 6085      00000000 
 6085      00000000 
 6085      00000000 
 6085      00000000 
 6086              		.type	m_status_samples, %object
 6087              		.size	m_status_samples, 2000
 6088              	m_status_samples:
 6089 7d00 00000000 		.space	2000
 6089      00000000 
 6089      00000000 
 6089      00000000 
 6089      00000000 
 6090              		.type	m_phase_samples, %object
 6091              		.size	m_phase_samples, 2000
 6092              	m_phase_samples:
 6093 84d0 00000000 		.space	2000
 6093      00000000 
 6093      00000000 
 6093      00000000 
 6093      00000000 
 6094              		.section	.rodata.CSWTCH.182,"a",%progbits
 6095              		.align	2
 6096              		.set	.LANCHOR40,. + 0
 6097              		.type	CSWTCH.182, %object
 6098              		.size	CSWTCH.182, 28
ARM GAS  /tmp/ccETYwEL.s 			page 109


 6099              	CSWTCH.182:
 6100 0000 00000000 		.word	.LC3
 6101 0004 10000000 		.word	.LC4
 6102 0008 28000000 		.word	.LC5
 6103 000c 44000000 		.word	.LC6
 6104 0010 54000000 		.word	.LC7
 6105 0014 70000000 		.word	.LC8
 6106 0018 8C000000 		.word	.LC9
 6107              		.section	.rodata.mc_interface_fault_to_string.str1.4,"aMS",%progbits,1
 6108              		.align	2
 6109              	.LC1:
 6110 0000 4641554C 		.ascii	"FAULT_UNKNOWN\000"
 6110      545F554E 
 6110      4B4E4F57 
 6110      4E00
 6111              		.section	.rodata.sample_send_thread.str1.4,"aMS",%progbits,1
 6112              		.align	2
 6113              	.LC0:
 6114 0000 53616D70 		.ascii	"SampleSender\000"
 6114      6C655365 
 6114      6E646572 
 6114      00
 6115              		.section	.rodata.str1.4,"aMS",%progbits,1
 6116              		.align	2
 6117              	.LC3:
 6118 0000 4641554C 		.ascii	"FAULT_CODE_NONE\000"
 6118      545F434F 
 6118      44455F4E 
 6118      4F4E4500 
 6119              	.LC4:
 6120 0010 4641554C 		.ascii	"FAULT_CODE_OVER_VOLTAGE\000"
 6120      545F434F 
 6120      44455F4F 
 6120      5645525F 
 6120      564F4C54 
 6121              	.LC5:
 6122 0028 4641554C 		.ascii	"FAULT_CODE_UNDER_VOLTAGE\000"
 6122      545F434F 
 6122      44455F55 
 6122      4E444552 
 6122      5F564F4C 
 6123 0041 000000   		.space	3
 6124              	.LC6:
 6125 0044 4641554C 		.ascii	"FAULT_CODE_DRV\000"
 6125      545F434F 
 6125      44455F44 
 6125      525600
 6126 0053 00       		.space	1
 6127              	.LC7:
 6128 0054 4641554C 		.ascii	"FAULT_CODE_ABS_OVER_CURRENT\000"
 6128      545F434F 
 6128      44455F41 
 6128      42535F4F 
 6128      5645525F 
 6129              	.LC8:
 6130 0070 4641554C 		.ascii	"FAULT_CODE_OVER_TEMP_FET\000"
 6130      545F434F 
ARM GAS  /tmp/ccETYwEL.s 			page 110


 6130      44455F4F 
 6130      5645525F 
 6130      54454D50 
 6131 0089 000000   		.space	3
 6132              	.LC9:
 6133 008c 4641554C 		.ascii	"FAULT_CODE_OVER_TEMP_MOTOR\000"
 6133      545F434F 
 6133      44455F4F 
 6133      5645525F 
 6133      54454D50 
 6134              		.section	.rodata.timer_thread.str1.4,"aMS",%progbits,1
 6135              		.align	2
 6136              	.LC2:
 6137 0000 6D636966 		.ascii	"mcif timer\000"
 6137      2074696D 
 6137      657200
 6138              		.text
 6139              	.Letext0:
 6140              		.file 5 "/usr/arm-none-eabi/include/machine/_default_types.h"
 6141              		.file 6 "/usr/arm-none-eabi/include/sys/_stdint.h"
 6142              		.file 7 "/usr/lib/gcc/arm-none-eabi/7.3.1/include/stddef.h"
 6143              		.file 8 "ChibiOS_3.0.2/os/rt/ports/ARMCMx/compilers/GCC/chtypes.h"
 6144              		.file 9 "ChibiOS_3.0.2/os/rt/include/chsystypes.h"
 6145              		.file 10 "ChibiOS_3.0.2/os/rt/include/chschd.h"
 6146              		.file 11 "ChibiOS_3.0.2/os/ext/CMSIS/include/core_cm4.h"
 6147              		.file 12 "ChibiOS_3.0.2/os/ext/CMSIS/ST/system_stm32f4xx.h"
 6148              		.file 13 "ChibiOS_3.0.2/os/ext/CMSIS/ST/stm32f407xx.h"
 6149              		.file 14 "ChibiOS_3.0.2/os/rt/ports/ARMCMx/chcore.h"
 6150              		.file 15 "ChibiOS_3.0.2/os/rt/ports/ARMCMx/chcore_v7m.h"
 6151              		.file 16 "ChibiOS_3.0.2/os/rt/include/chtm.h"
 6152              		.file 17 "ChibiOS_3.0.2/os/rt/include/chsem.h"
 6153              		.file 18 "ChibiOS_3.0.2/os/rt/include/chmtx.h"
 6154              		.file 19 "ChibiOS_3.0.2/os/rt/include/chevents.h"
 6155              		.file 20 "ChibiOS_3.0.2/os/rt/include/chqueues.h"
 6156              		.file 21 "datatypes.h"
 6157              		.file 22 "conf_general.h"
 6158              		.file 23 "mc_interface.h"
 6159              		.file 24 "mcpwm.h"
 6160              		.file 25 "ChibiOS_3.0.2/os/hal/ports/STM32/STM32F4xx/stm32_dma.h"
 6161              		.file 26 "ChibiOS_3.0.2/os/hal/ports/STM32/LLD/GPIOv2/pal_lld.h"
 6162              		.file 27 "ChibiOS_3.0.2/os/hal/include/can.h"
 6163              		.file 28 "ChibiOS_3.0.2/os/hal/ports/STM32/LLD/can_lld.h"
 6164              		.file 29 "ChibiOS_3.0.2/os/hal/include/i2c.h"
 6165              		.file 30 "ChibiOS_3.0.2/os/hal/ports/STM32/LLD/I2Cv1/i2c_lld.h"
 6166              		.file 31 "ChibiOS_3.0.2/os/hal/include/icu.h"
 6167              		.file 32 "ChibiOS_3.0.2/os/hal/ports/STM32/LLD/TIMv1/icu_lld.h"
 6168              		.file 33 "ChibiOS_3.0.2/os/hal/ports/STM32/LLD/TIMv1/stm32_tim.h"
 6169              		.file 34 "ChibiOS_3.0.2/os/hal/include/spi.h"
 6170              		.file 35 "ChibiOS_3.0.2/os/hal/ports/STM32/LLD/SPIv1/spi_lld.h"
 6171              		.file 36 "ChibiOS_3.0.2/os/hal/include/uart.h"
 6172              		.file 37 "ChibiOS_3.0.2/os/hal/ports/STM32/LLD/USARTv1/uart_lld.h"
 6173              		.file 38 "ChibiOS_3.0.2/os/hal/include/usb.h"
 6174              		.file 39 "ChibiOS_3.0.2/os/hal/ports/STM32/LLD/OTGv1/usb_lld.h"
 6175              		.file 40 "ChibiOS_3.0.2/os/hal/ports/STM32/LLD/OTGv1/stm32_otg.h"
 6176              		.file 41 "/usr/arm-none-eabi/include/sys/lock.h"
 6177              		.file 42 "/usr/arm-none-eabi/include/sys/_types.h"
 6178              		.file 43 "/usr/arm-none-eabi/include/sys/reent.h"
ARM GAS  /tmp/ccETYwEL.s 			page 111


 6179              		.file 44 "/usr/arm-none-eabi/include/math.h"
 6180              		.file 45 "ChibiOS_3.0.2/os/rt/include/chsys.h"
 6181              		.file 46 "ChibiOS_3.0.2/os/rt/include/chthreads.h"
 6182              		.file 47 "buffer.h"
 6183              		.file 48 "commands.h"
 6184              		.file 49 "mcpwm_foc.h"
 6185              		.file 50 "ledpwm.h"
 6186              		.file 51 "utils.h"
 6187              		.file 52 "encoder.h"
 6188              		.file 53 "terminal.h"
 6189              		.file 54 "<built-in>"