ARM GAS  /tmp/ccvafMs5.s 			page 1


   1              		.cpu cortex-m4
   2              		.eabi_attribute 27, 1
   3              		.eabi_attribute 28, 1
   4              		.eabi_attribute 20, 1
   5              		.eabi_attribute 21, 1
   6              		.eabi_attribute 23, 3
   7              		.eabi_attribute 24, 1
   8              		.eabi_attribute 25, 1
   9              		.eabi_attribute 26, 1
  10              		.eabi_attribute 30, 2
  11              		.eabi_attribute 34, 1
  12              		.eabi_attribute 18, 4
  13              		.file	"mcpwm_foc.c"
  14              		.text
  15              	.Ltext0:
  16              		.cfi_sections	.debug_frame
  17              		.section	.text.correct_encoder,"ax",%progbits
  18              		.align	1
  19              		.p2align 4,,15
  20              		.syntax unified
  21              		.thumb
  22              		.thumb_func
  23              		.fpu fpv4-sp-d16
  24              		.type	correct_encoder, %function
  25              	correct_encoder:
  26              	.LFB316:
  27              		.file 1 "mcpwm_foc.c"
  28              		.loc 1 2583 0
  29              		.cfi_startproc
  30              		@ args = 0, pretend = 0, frame = 0
  31              		@ frame_needed = 0, uses_anonymous_args = 0
  32              		@ link register save eliminated.
  33              	.LVL0:
  34              		.loc 1 2584 0
  35 0000 DFED146A 		vldr.32	s13, .L12
  36              		.loc 1 2588 0
  37 0004 144B     		ldr	r3, .L12+4
  38              		.loc 1 2589 0
  39 0006 154A     		ldr	r2, .L12+8
  40              		.loc 1 2588 0
  41 0008 1B68     		ldr	r3, [r3]
  42 000a 9FED157A 		vldr.32	s14, .L12+12
  43 000e D3ED417A 		vldr.32	s15, [r3, #260]
  44              		.loc 1 2589 0
  45 0012 1178     		ldrb	r1, [r2]	@ zero_extendqisi2
  46              		.loc 1 2584 0
  47 0014 81EE261A 		vdiv.f32	s2, s2, s13
  48              	.LVL1:
  49              		.loc 1 2588 0
  50 0018 67EE877A 		vmul.f32	s15, s15, s14
  51              		.loc 1 2584 0
  52 001c B0EEC11A 		vabs.f32	s2, s2
  53              	.LVL2:
  54              		.loc 1 2590 0
  55 0020 93ED417A 		vldr.32	s14, [r3, #260]
  56              		.loc 1 2589 0
  57 0024 49B1     		cbz	r1, .L2
ARM GAS  /tmp/ccvafMs5.s 			page 2


  58              		.loc 1 2590 0
  59 0026 77EE277A 		vadd.f32	s15, s14, s15
  60              	.LVL3:
  61 002a F4EEC17A 		vcmpe.f32	s15, s2
  62 002e F1EE10FA 		vmrs	APSR_nzcv, FPSCR
  63 0032 0CD4     		bmi	.L11
  64              	.L3:
  65              		.loc 1 2599 0
  66 0034 B0EE600A 		vmov.f32	s0, s1
  67              	.LVL4:
  68              	.L1:
  69              		.loc 1 2600 0
  70 0038 7047     		bx	lr
  71              	.LVL5:
  72              	.L2:
  73              		.loc 1 2594 0
  74 003a 77EE677A 		vsub.f32	s15, s14, s15
  75              	.LVL6:
  76 003e F4EEC17A 		vcmpe.f32	s15, s2
  77 0042 F1EE10FA 		vmrs	APSR_nzcv, FPSCR
  78 0046 F7DD     		ble	.L1
  79              		.loc 1 2595 0
  80 0048 0123     		movs	r3, #1
  81 004a 1370     		strb	r3, [r2]
  82 004c F2E7     		b	.L3
  83              	.L11:
  84              		.loc 1 2591 0
  85 004e 0023     		movs	r3, #0
  86 0050 1370     		strb	r3, [r2]
  87 0052 7047     		bx	lr
  88              	.L13:
  89              		.align	2
  90              	.L12:
  91 0054 5077D63D 		.word	1037465424
  92 0058 00000000 		.word	.LANCHOR0
  93 005c 00000000 		.word	.LANCHOR1
  94 0060 CDCC4C3D 		.word	1028443341
  95              		.cfi_endproc
  96              	.LFE316:
  97              		.size	correct_encoder, .-correct_encoder
  98              		.section	.text.start_pwm_hw,"ax",%progbits
  99              		.align	1
 100              		.p2align 4,,15
 101              		.syntax unified
 102              		.thumb
 103              		.thumb_func
 104              		.fpu fpv4-sp-d16
 105              		.type	start_pwm_hw, %function
 106              	start_pwm_hw:
 107              	.LFB314:
 108              		.loc 1 2543 0
 109              		.cfi_startproc
 110              		@ args = 0, pretend = 0, frame = 0
 111              		@ frame_needed = 0, uses_anonymous_args = 0
 112 0000 10B5     		push	{r4, lr}
 113              		.cfi_def_cfa_offset 8
 114              		.cfi_offset 4, -8
ARM GAS  /tmp/ccvafMs5.s 			page 3


 115              		.cfi_offset 14, -4
 116              		.loc 1 2544 0
 117 0002 194C     		ldr	r4, .L16
 118 0004 6022     		movs	r2, #96
 119 0006 2046     		mov	r0, r4
 120 0008 0021     		movs	r1, #0
 121 000a FFF7FEFF 		bl	TIM_SelectOCxM
 122              	.LVL7:
 123              		.loc 1 2545 0
 124 000e 2046     		mov	r0, r4
 125 0010 0122     		movs	r2, #1
 126 0012 0021     		movs	r1, #0
 127 0014 FFF7FEFF 		bl	TIM_CCxCmd
 128              	.LVL8:
 129              		.loc 1 2546 0
 130 0018 2046     		mov	r0, r4
 131 001a 0422     		movs	r2, #4
 132 001c 0021     		movs	r1, #0
 133 001e FFF7FEFF 		bl	TIM_CCxNCmd
 134              	.LVL9:
 135              		.loc 1 2548 0
 136 0022 2046     		mov	r0, r4
 137 0024 6022     		movs	r2, #96
 138 0026 0421     		movs	r1, #4
 139 0028 FFF7FEFF 		bl	TIM_SelectOCxM
 140              	.LVL10:
 141              		.loc 1 2549 0
 142 002c 2046     		mov	r0, r4
 143 002e 0122     		movs	r2, #1
 144 0030 0421     		movs	r1, #4
 145 0032 FFF7FEFF 		bl	TIM_CCxCmd
 146              	.LVL11:
 147              		.loc 1 2550 0
 148 0036 0422     		movs	r2, #4
 149 0038 1146     		mov	r1, r2
 150 003a 2046     		mov	r0, r4
 151 003c FFF7FEFF 		bl	TIM_CCxNCmd
 152              	.LVL12:
 153              		.loc 1 2552 0
 154 0040 2046     		mov	r0, r4
 155 0042 6022     		movs	r2, #96
 156 0044 0821     		movs	r1, #8
 157 0046 FFF7FEFF 		bl	TIM_SelectOCxM
 158              	.LVL13:
 159              		.loc 1 2553 0
 160 004a 2046     		mov	r0, r4
 161 004c 0122     		movs	r2, #1
 162 004e 0821     		movs	r1, #8
 163 0050 FFF7FEFF 		bl	TIM_CCxCmd
 164              	.LVL14:
 165              		.loc 1 2554 0
 166 0054 0422     		movs	r2, #4
 167 0056 2046     		mov	r0, r4
 168 0058 0821     		movs	r1, #8
 169 005a FFF7FEFF 		bl	TIM_CCxNCmd
 170              	.LVL15:
 171              		.loc 1 2562 0
ARM GAS  /tmp/ccvafMs5.s 			page 4


 172 005e 034B     		ldr	r3, .L16+4
 173 0060 0122     		movs	r2, #1
 174 0062 1A70     		strb	r2, [r3]
 175              		.loc 1 2563 0
 176 0064 10BD     		pop	{r4, pc}
 177              	.L17:
 178 0066 00BF     		.align	2
 179              	.L16:
 180 0068 00000140 		.word	1073807360
 181 006c 00000000 		.word	.LANCHOR2
 182              		.cfi_endproc
 183              	.LFE314:
 184              		.size	start_pwm_hw, .-start_pwm_hw
 185              		.section	.text.stop_pwm_hw,"ax",%progbits
 186              		.align	1
 187              		.p2align 4,,15
 188              		.syntax unified
 189              		.thumb
 190              		.thumb_func
 191              		.fpu fpv4-sp-d16
 192              		.type	stop_pwm_hw, %function
 193              	stop_pwm_hw:
 194              	.LFB313:
 195              		.loc 1 2522 0
 196              		.cfi_startproc
 197              		@ args = 0, pretend = 0, frame = 0
 198              		@ frame_needed = 0, uses_anonymous_args = 0
 199 0000 10B5     		push	{r4, lr}
 200              		.cfi_def_cfa_offset 8
 201              		.cfi_offset 4, -8
 202              		.cfi_offset 14, -4
 203              		.loc 1 2523 0
 204 0002 1B4C     		ldr	r4, .L20
 205 0004 4022     		movs	r2, #64
 206 0006 2046     		mov	r0, r4
 207 0008 0021     		movs	r1, #0
 208 000a FFF7FEFF 		bl	TIM_SelectOCxM
 209              	.LVL16:
 210              		.loc 1 2524 0
 211 000e 2046     		mov	r0, r4
 212 0010 0122     		movs	r2, #1
 213 0012 0021     		movs	r1, #0
 214 0014 FFF7FEFF 		bl	TIM_CCxCmd
 215              	.LVL17:
 216              		.loc 1 2525 0
 217 0018 0022     		movs	r2, #0
 218 001a 1146     		mov	r1, r2
 219 001c 2046     		mov	r0, r4
 220 001e FFF7FEFF 		bl	TIM_CCxNCmd
 221              	.LVL18:
 222              		.loc 1 2527 0
 223 0022 2046     		mov	r0, r4
 224 0024 4022     		movs	r2, #64
 225 0026 0421     		movs	r1, #4
 226 0028 FFF7FEFF 		bl	TIM_SelectOCxM
 227              	.LVL19:
 228              		.loc 1 2528 0
ARM GAS  /tmp/ccvafMs5.s 			page 5


 229 002c 2046     		mov	r0, r4
 230 002e 0122     		movs	r2, #1
 231 0030 0421     		movs	r1, #4
 232 0032 FFF7FEFF 		bl	TIM_CCxCmd
 233              	.LVL20:
 234              		.loc 1 2529 0
 235 0036 2046     		mov	r0, r4
 236 0038 0022     		movs	r2, #0
 237 003a 0421     		movs	r1, #4
 238 003c FFF7FEFF 		bl	TIM_CCxNCmd
 239              	.LVL21:
 240              		.loc 1 2531 0
 241 0040 2046     		mov	r0, r4
 242 0042 4022     		movs	r2, #64
 243 0044 0821     		movs	r1, #8
 244 0046 FFF7FEFF 		bl	TIM_SelectOCxM
 245              	.LVL22:
 246              		.loc 1 2532 0
 247 004a 2046     		mov	r0, r4
 248 004c 0122     		movs	r2, #1
 249 004e 0821     		movs	r1, #8
 250 0050 FFF7FEFF 		bl	TIM_CCxCmd
 251              	.LVL23:
 252              		.loc 1 2533 0
 253 0054 0022     		movs	r2, #0
 254 0056 2046     		mov	r0, r4
 255 0058 0821     		movs	r1, #8
 256 005a FFF7FEFF 		bl	TIM_CCxNCmd
 257              	.LVL24:
 258              		.loc 1 2535 0
 259 005e 2046     		mov	r0, r4
 260 0060 2021     		movs	r1, #32
 261 0062 FFF7FEFF 		bl	TIM_GenerateEvent
 262              	.LVL25:
 263              		.loc 1 2540 0
 264 0066 034B     		ldr	r3, .L20+4
 265 0068 0022     		movs	r2, #0
 266 006a 1A70     		strb	r2, [r3]
 267              		.loc 1 2541 0
 268 006c 10BD     		pop	{r4, pc}
 269              	.L21:
 270 006e 00BF     		.align	2
 271              	.L20:
 272 0070 00000140 		.word	1073807360
 273 0074 00000000 		.word	.LANCHOR2
 274              		.cfi_endproc
 275              	.LFE313:
 276              		.size	stop_pwm_hw, .-stop_pwm_hw
 277              		.section	.text.read_hall,"ax",%progbits
 278              		.align	1
 279              		.p2align 4,,15
 280              		.syntax unified
 281              		.thumb
 282              		.thumb_func
 283              		.fpu fpv4-sp-d16
 284              		.type	read_hall, %function
 285              	read_hall:
ARM GAS  /tmp/ccvafMs5.s 			page 6


 286              	.LFB315:
 287              		.loc 1 2565 0
 288              		.cfi_startproc
 289              		@ args = 0, pretend = 0, frame = 0
 290              		@ frame_needed = 0, uses_anonymous_args = 0
 291 0000 2DE9F047 		push	{r4, r5, r6, r7, r8, r9, r10, lr}
 292              		.cfi_def_cfa_offset 32
 293              		.cfi_offset 4, -32
 294              		.cfi_offset 5, -28
 295              		.cfi_offset 6, -24
 296              		.cfi_offset 7, -20
 297              		.cfi_offset 8, -16
 298              		.cfi_offset 9, -12
 299              		.cfi_offset 10, -8
 300              		.cfi_offset 14, -4
 301              		.loc 1 2566 0
 302 0004 164B     		ldr	r3, .L24
 303              		.loc 1 2568 0
 304 0006 174C     		ldr	r4, .L24+4
 305              		.loc 1 2566 0
 306 0008 1869     		ldr	r0, [r3, #16]
 307              	.LVL26:
 308              		.loc 1 2567 0
 309 000a 1D69     		ldr	r5, [r3, #16]
 310              	.LVL27:
 311              		.loc 1 2568 0
 312 000c 2669     		ldr	r6, [r4, #16]
 313              	.LVL28:
 314              		.loc 1 2570 0
 315 000e 1969     		ldr	r1, [r3, #16]
 316              	.LVL29:
 317              		.loc 1 2571 0
 318 0010 D3F81090 		ldr	r9, [r3, #16]
 319              	.LVL30:
 320              		.loc 1 2572 0
 321 0014 2769     		ldr	r7, [r4, #16]
 322              	.LVL31:
 323              		.loc 1 2574 0
 324 0016 1A69     		ldr	r2, [r3, #16]
 325              	.LVL32:
 326              		.loc 1 2575 0
 327 0018 D3F810A0 		ldr	r10, [r3, #16]
 328              	.LVL33:
 329              		.loc 1 2576 0
 330 001c D4F81080 		ldr	r8, [r4, #16]
 331              	.LVL34:
 332              		.loc 1 2578 0
 333 0020 C1F38011 		ubfx	r1, r1, #6, #1
 334              	.LVL35:
 335 0024 C2F38012 		ubfx	r2, r2, #6, #1
 336              	.LVL36:
 337 0028 C0F38010 		ubfx	r0, r0, #6, #1
 338              	.LVL37:
 339 002c FFF7FEFF 		bl	utils_middle_of_3_int
 340              	.LVL38:
 341              		.loc 1 2579 0
 342 0030 CAF3C012 		ubfx	r2, r10, #7, #1
ARM GAS  /tmp/ccvafMs5.s 			page 7


 343              		.loc 1 2578 0
 344 0034 0446     		mov	r4, r0
 345              		.loc 1 2579 0
 346 0036 C9F3C011 		ubfx	r1, r9, #7, #1
 347 003a C5F3C010 		ubfx	r0, r5, #7, #1
 348 003e FFF7FEFF 		bl	utils_middle_of_3_int
 349              	.LVL39:
 350              		.loc 1 2580 0
 351 0042 C8F3C022 		ubfx	r2, r8, #11, #1
 352              		.loc 1 2579 0
 353 0046 0546     		mov	r5, r0
 354              	.LVL40:
 355              		.loc 1 2580 0
 356 0048 C7F3C021 		ubfx	r1, r7, #11, #1
 357 004c C6F3C020 		ubfx	r0, r6, #11, #1
 358 0050 FFF7FEFF 		bl	utils_middle_of_3_int
 359              	.LVL41:
 360 0054 8000     		lsls	r0, r0, #2
 361              		.loc 1 2579 0
 362 0056 40EA4500 		orr	r0, r0, r5, lsl #1
 363              		.loc 1 2581 0
 364 005a 2043     		orrs	r0, r0, r4
 365 005c BDE8F087 		pop	{r4, r5, r6, r7, r8, r9, r10, pc}
 366              	.LVL42:
 367              	.L25:
 368              		.align	2
 369              	.L24:
 370 0060 00040240 		.word	1073873920
 371 0064 00080240 		.word	1073874944
 372              		.cfi_endproc
 373              	.LFE315:
 374              		.size	read_hall, .-read_hall
 375              		.section	.text.correct_hall,"ax",%progbits
 376              		.align	1
 377              		.p2align 4,,15
 378              		.syntax unified
 379              		.thumb
 380              		.thumb_func
 381              		.fpu fpv4-sp-d16
 382              		.type	correct_hall, %function
 383              	correct_hall:
 384              	.LFB317:
 385              		.loc 1 2602 0
 386              		.cfi_startproc
 387              		@ args = 0, pretend = 0, frame = 0
 388              		@ frame_needed = 0, uses_anonymous_args = 0
 389              	.LVL43:
 390 0000 F8B5     		push	{r3, r4, r5, r6, r7, lr}
 391              		.cfi_def_cfa_offset 24
 392              		.cfi_offset 3, -24
 393              		.cfi_offset 4, -20
 394              		.cfi_offset 5, -16
 395              		.cfi_offset 6, -12
 396              		.cfi_offset 7, -8
 397              		.cfi_offset 14, -4
 398              		.loc 1 2604 0
 399 0002 DFED6B6A 		vldr.32	s13, .L63
ARM GAS  /tmp/ccvafMs5.s 			page 8


 400              		.loc 1 2608 0
 401 0006 6B4A     		ldr	r2, .L63+4
 402              		.loc 1 2609 0
 403 0008 6B4B     		ldr	r3, .L63+8
 404              		.loc 1 2608 0
 405 000a 1568     		ldr	r5, [r2]
 406 000c 9FED6B7A 		vldr.32	s14, .L63+12
 407 0010 D5ED417A 		vldr.32	s15, [r5, #260]
 408              		.loc 1 2609 0
 409 0014 1A78     		ldrb	r2, [r3]	@ zero_extendqisi2
 410              		.loc 1 2602 0
 411 0016 2DED028B 		vpush.64	{d8}
 412              		.cfi_def_cfa_offset 32
 413              		.cfi_offset 80, -32
 414              		.cfi_offset 81, -28
 415              		.loc 1 2604 0
 416 001a 80EEA68A 		vdiv.f32	s16, s1, s13
 417              		.loc 1 2608 0
 418 001e 67EE877A 		vmul.f32	s15, s15, s14
 419              		.loc 1 2604 0
 420 0022 B0EEC88A 		vabs.f32	s16, s16
 421              	.LVL44:
 422              		.loc 1 2610 0
 423 0026 95ED417A 		vldr.32	s14, [r5, #260]
 424              		.loc 1 2609 0
 425 002a 7AB1     		cbz	r2, .L27
 426              		.loc 1 2610 0
 427 002c 77EE277A 		vadd.f32	s15, s14, s15
 428              	.LVL45:
 429 0030 F4EEC87A 		vcmpe.f32	s15, s16
 430 0034 F1EE10FA 		vmrs	APSR_nzcv, FPSCR
 431 0038 11D5     		bpl	.L28
 432              		.loc 1 2611 0
 433 003a 0022     		movs	r2, #0
 434 003c 1A70     		strb	r2, [r3]
 435              	.L30:
 436              		.loc 1 2682 0
 437 003e 604B     		ldr	r3, .L63+16
 438 0040 6FF00102 		mvn	r2, #1
 439 0044 1A60     		str	r2, [r3]
 440              	.LVL46:
 441              	.L26:
 442              		.loc 1 2686 0
 443 0046 BDEC028B 		vldm	sp!, {d8}
 444              		.cfi_remember_state
 445              		.cfi_restore 80
 446              		.cfi_restore 81
 447              		.cfi_def_cfa_offset 24
 448              	.LVL47:
 449 004a F8BD     		pop	{r3, r4, r5, r6, r7, pc}
 450              	.LVL48:
 451              	.L27:
 452              		.cfi_restore_state
 453              		.loc 1 2614 0
 454 004c 77EE677A 		vsub.f32	s15, s14, s15
 455              	.LVL49:
 456 0050 F4EEC87A 		vcmpe.f32	s15, s16
ARM GAS  /tmp/ccvafMs5.s 			page 9


 457 0054 F1EE10FA 		vmrs	APSR_nzcv, FPSCR
 458 0058 F1DD     		ble	.L30
 459              		.loc 1 2615 0
 460 005a 0122     		movs	r2, #1
 461 005c 1A70     		strb	r2, [r3]
 462              	.L28:
 463 005e 11EE107A 		vmov	r7, s2
 464 0062 10EE104A 		vmov	r4, s0
 465 0066 10EE906A 		vmov	r6, s1
 466              	.LBB12:
 467              		.loc 1 2620 0
 468 006a FFF7FEFF 		bl	read_hall
 469              	.LVL50:
 470 006e 2844     		add	r0, r0, r5
 471 0070 90F8F930 		ldrb	r3, [r0, #249]	@ zero_extendqisi2
 472 0074 DBB2     		uxtb	r3, r3
 473              	.LVL51:
 474              		.loc 1 2623 0
 475 0076 C82B     		cmp	r3, #200
 476 0078 3FDC     		bgt	.L58
 477              	.LBB13:
 478              		.loc 1 2625 0
 479 007a 07EE903A 		vmov	s15, r3	@ int
 480 007e DFED515A 		vldr.32	s11, .L63+20
 481 0082 9FED516A 		vldr.32	s12, .L63+24
 482              		.loc 1 2627 0
 483 0086 4E49     		ldr	r1, .L63+16
 484              		.loc 1 2625 0
 485 0088 9FED507A 		vldr.32	s14, .L63+28
 486              		.loc 1 2627 0
 487 008c 0A68     		ldr	r2, [r1]
 488              		.loc 1 2625 0
 489 008e DFED506A 		vldr.32	s13, .L63+32
 490 0092 B8EEE75A 		vcvt.f32.s32	s10, s15
 491              		.loc 1 2627 0
 492 0096 002A     		cmp	r2, #0
 493              		.loc 1 2625 0
 494 0098 C5EE257A 		vdiv.f32	s15, s10, s11
 495 009c 67EE867A 		vmul.f32	s15, s15, s12
 496 00a0 67EE877A 		vmul.f32	s15, s15, s14
 497 00a4 C7EEA60A 		vdiv.f32	s1, s15, s13
 498              	.LVL52:
 499              		.loc 1 2627 0
 500 00a8 37DB     		blt	.L59
 501              		.loc 1 2638 0
 502 00aa 9A42     		cmp	r2, r3
 503 00ac 79D0     		beq	.L60
 504              	.LBB14:
 505              		.loc 1 2640 0
 506 00ae 981A     		subs	r0, r3, r2
 507 00b0 0028     		cmp	r0, #0
 508 00b2 B8BF     		it	lt
 509 00b4 4042     		rsblt	r0, r0, #0
 510              	.LVL53:
 511              		.loc 1 2641 0
 512 00b6 6328     		cmp	r0, #99
 513 00b8 5CDD     		ble	.L61
ARM GAS  /tmp/ccvafMs5.s 			page 10


 514              		.loc 1 2643 0
 515 00ba 6428     		cmp	r0, #100
 516 00bc 19D0     		beq	.L35
 517              	.LVL54:
 518              		.loc 1 2644 0
 519 00be 1A44     		add	r2, r2, r3
 520              	.LVL55:
 521 00c0 02EBD272 		add	r2, r2, r2, lsr #31
 522 00c4 5210     		asrs	r2, r2, #1
 523 00c6 434C     		ldr	r4, .L63+36
 524              	.LVL56:
 525 00c8 6432     		adds	r2, r2, #100
 526 00ca 84FB0204 		smull	r0, r4, r4, r2
 527 00ce D017     		asrs	r0, r2, #31
 528 00d0 C0EBA410 		rsb	r0, r0, r4, asr #6
 529 00d4 C824     		movs	r4, #200
 530 00d6 04FB1022 		mls	r2, r4, r0, r2
 531              	.LVL57:
 532              	.L57:
 533 00da 07EE902A 		vmov	s15, r2	@ int
 534 00de F8EEE77A 		vcvt.f32.s32	s15, s15
 535 00e2 87EEA55A 		vdiv.f32	s10, s15, s11
 536 00e6 25EE066A 		vmul.f32	s12, s10, s12
 537 00ea 26EE076A 		vmul.f32	s12, s12, s14
 538 00ee 86EE267A 		vdiv.f32	s14, s12, s13
 539              	.L35:
 540              		.loc 1 2647 0
 541 00f2 394C     		ldr	r4, .L63+40
 542 00f4 84ED007A 		vstr.32	s14, [r4]
 543 00f8 12E0     		b	.L33
 544              	.LVL58:
 545              	.L58:
 546              	.LBE14:
 547              	.LBE13:
 548              		.loc 1 2676 0
 549 00fa 384B     		ldr	r3, .L63+44
 550              	.LVL59:
 551              		.loc 1 2671 0
 552 00fc 304A     		ldr	r2, .L63+16
 553              		.loc 1 2676 0
 554 00fe 1B78     		ldrb	r3, [r3]	@ zero_extendqisi2
 555              		.loc 1 2671 0
 556 0100 4FF0FF31 		mov	r1, #-1
 557 0104 1160     		str	r1, [r2]
 558              		.loc 1 2676 0
 559 0106 1BB1     		cbz	r3, .L46
 560              		.loc 1 2676 0 is_stmt 0 discriminator 1
 561 0108 354B     		ldr	r3, .L63+48
 562 010a 1B78     		ldrb	r3, [r3]	@ zero_extendqisi2
 563 010c 022B     		cmp	r3, #2
 564 010e 4AD0     		beq	.L62
 565              	.L46:
 566              	.LBE12:
 567              		.loc 1 2686 0 is_stmt 1
 568 0110 BDEC028B 		vldm	sp!, {d8}
 569              		.cfi_remember_state
 570              		.cfi_restore 80
ARM GAS  /tmp/ccvafMs5.s 			page 11


 571              		.cfi_restore 81
 572              		.cfi_def_cfa_offset 24
 573              	.LVL60:
 574              	.LBB21:
 575 0114 00EE104A 		vmov	s0, r4
 576              	.LBE21:
 577 0118 F8BD     		pop	{r3, r4, r5, r6, r7, pc}
 578              	.LVL61:
 579              	.L59:
 580              		.cfi_restore_state
 581              	.LBB22:
 582              	.LBB18:
 583              		.loc 1 2636 0
 584 011a 2F4C     		ldr	r4, .L63+40
 585              	.LVL62:
 586 011c C4ED000A 		vstr.32	s1, [r4]
 587              	.L33:
 588              		.loc 1 2652 0
 589 0120 DFED308A 		vldr.32	s17, .L63+52
 590              		.loc 1 2650 0
 591 0124 0B60     		str	r3, [r1]
 592              		.loc 1 2652 0
 593 0126 B4EEE88A 		vcmpe.f32	s16, s17
 594 012a F1EE10FA 		vmrs	APSR_nzcv, FPSCR
 595 012e 09D5     		bpl	.L53
 596              		.loc 1 2654 0
 597 0130 C4ED000A 		vstr.32	s1, [r4]
 598              	.LVL63:
 599              	.L38:
 600              		.loc 1 2667 0
 601 0134 2848     		ldr	r0, .L63+40
 602 0136 FFF7FEFF 		bl	utils_norm_angle_rad
 603              	.LVL64:
 604              	.LBE18:
 605              	.LBE22:
 606              		.loc 1 2686 0
 607 013a BDEC028B 		vldm	sp!, {d8}
 608              		.cfi_remember_state
 609              		.cfi_restore 80
 610              		.cfi_restore 81
 611              		.cfi_def_cfa_offset 24
 612              	.LVL65:
 613              	.LBB23:
 614              	.LBB19:
 615              		.loc 1 2668 0
 616 013e 94ED000A 		vldr.32	s0, [r4]
 617              	.LVL66:
 618              	.LBE19:
 619              	.LBE23:
 620              		.loc 1 2686 0
 621 0142 F8BD     		pop	{r3, r4, r5, r6, r7, pc}
 622              	.LVL67:
 623              	.L53:
 624              		.cfi_restore_state
 625              	.LBB24:
 626              	.LBB20:
 627              	.LBB15:
ARM GAS  /tmp/ccvafMs5.s 			page 12


 628              		.loc 1 2657 0
 629 0144 94ED000A 		vldr.32	s0, [r4]
 630 0148 FFF7FEFF 		bl	utils_angle_difference_rad
 631              	.LVL68:
 632              		.loc 1 2658 0
 633 014c DFED267A 		vldr.32	s15, .L63+56
 634 0150 B0EEC07A 		vabs.f32	s14, s0
 635 0154 B4EEE77A 		vcmpe.f32	s14, s15
 636 0158 F1EE10FA 		vmrs	APSR_nzcv, FPSCR
 637 015c 18D5     		bpl	.L54
 638              		.loc 1 2660 0
 639 015e D4ED007A 		vldr.32	s15, [r4]
 640 0162 07EE106A 		vmov	s14, r6
 641 0166 06EE907A 		vmov	s13, r7
 642 016a E7EE267A 		vfma.f32	s15, s14, s13
 643 016e C4ED007A 		vstr.32	s15, [r4]
 644 0172 DFE7     		b	.L38
 645              	.LVL69:
 646              	.L61:
 647              	.LBE15:
 648              	.LBB16:
 649              		.loc 1 2642 0
 650 0174 1A44     		add	r2, r2, r3
 651              	.LVL70:
 652 0176 02EBD272 		add	r2, r2, r2, lsr #31
 653 017a 1648     		ldr	r0, .L63+36
 654 017c 5410     		asrs	r4, r2, #1
 655              	.LVL71:
 656 017e 80FB0450 		smull	r5, r0, r0, r4
 657 0182 D217     		asrs	r2, r2, #31
 658 0184 C2EBA012 		rsb	r2, r2, r0, asr #6
 659 0188 C820     		movs	r0, #200
 660 018a 00FB1242 		mls	r2, r0, r2, r4
 661 018e A4E7     		b	.L57
 662              	.LVL72:
 663              	.L54:
 664              	.LBE16:
 665              	.LBB17:
 666              		.loc 1 2663 0
 667 0190 80EE287A 		vdiv.f32	s14, s0, s17
 668 0194 D4ED007A 		vldr.32	s15, [r4]
 669 0198 77EEC77A 		vsub.f32	s15, s15, s14
 670 019c C4ED007A 		vstr.32	s15, [r4]
 671 01a0 C8E7     		b	.L38
 672              	.LVL73:
 673              	.L60:
 674 01a2 0D4C     		ldr	r4, .L63+40
 675              	.LVL74:
 676 01a4 BCE7     		b	.L33
 677              	.LVL75:
 678              	.L62:
 679              	.LBE17:
 680              	.LBE20:
 681              		.loc 1 2677 0
 682 01a6 114B     		ldr	r3, .L63+60
 683 01a8 93ED000A 		vldr.32	s0, [r3]
 684              	.LVL76:
ARM GAS  /tmp/ccvafMs5.s 			page 13


 685 01ac 4BE7     		b	.L26
 686              	.L64:
 687 01ae 00BF     		.align	2
 688              	.L63:
 689 01b0 5077D63D 		.word	1037465424
 690 01b4 00000000 		.word	.LANCHOR0
 691 01b8 00000000 		.word	.LANCHOR3
 692 01bc CDCCCC3D 		.word	1036831949
 693 01c0 00000000 		.word	.LANCHOR4
 694 01c4 00004843 		.word	1128792064
 695 01c8 0000B443 		.word	1135869952
 696 01cc DB0F4940 		.word	1078530011
 697 01d0 00003443 		.word	1127481344
 698 01d4 1F85EB51 		.word	1374389535
 699 01d8 00000000 		.word	.LANCHOR5
 700 01dc 00000000 		.word	.LANCHOR6
 701 01e0 00000000 		.word	.LANCHOR7
 702 01e4 0000C842 		.word	1120403456
 703 01e8 920A063F 		.word	1057360530
 704 01ec 00000000 		.word	.LANCHOR8
 705              	.LBE24:
 706              		.cfi_endproc
 707              	.LFE317:
 708              		.size	correct_hall, .-correct_hall
 709              		.section	.text.timer_thread,"ax",%progbits
 710              		.align	1
 711              		.p2align 4,,15
 712              		.syntax unified
 713              		.thumb
 714              		.thumb_func
 715              		.fpu fpv4-sp-d16
 716              		.type	timer_thread, %function
 717              	timer_thread:
 718              	.LFB305:
 719              		.loc 1 1949 0
 720              		.cfi_startproc
 721              		@ args = 0, pretend = 0, frame = 32
 722              		@ frame_needed = 0, uses_anonymous_args = 0
 723              	.LVL77:
 724              	.LBB33:
 725              	.LBB34:
 726              		.file 2 "ChibiOS_3.0.2/os/rt/include/chregistry.h"
 727              		.loc 2 135 0
 728 0000 C34B     		ldr	r3, .L137
 729 0002 C449     		ldr	r1, .L137+4
 730 0004 9A69     		ldr	r2, [r3, #24]
 731              	.LBE34:
 732              	.LBE33:
 733              	.LBB36:
 734              		.loc 1 1955 0
 735 0006 C44B     		ldr	r3, .L137+8
 736              	.LBE36:
 737              	.LBB49:
 738              	.LBB35:
 739              		.loc 2 135 0
 740 0008 9161     		str	r1, [r2, #24]
 741              	.LBE35:
ARM GAS  /tmp/ccvafMs5.s 			page 14


 742              	.LBE49:
 743              	.LBB50:
 744              		.loc 1 1955 0
 745 000a 1B78     		ldrb	r3, [r3]	@ zero_extendqisi2
 746 000c 002B     		cmp	r3, #0
 747 000e 40F02682 		bne	.L124
 748              	.LBE50:
 749              		.loc 1 1949 0
 750 0012 2DE9F04F 		push	{r4, r5, r6, r7, r8, r9, r10, fp, lr}
 751              		.cfi_def_cfa_offset 36
 752              		.cfi_offset 4, -36
 753              		.cfi_offset 5, -32
 754              		.cfi_offset 6, -28
 755              		.cfi_offset 7, -24
 756              		.cfi_offset 8, -20
 757              		.cfi_offset 9, -16
 758              		.cfi_offset 10, -12
 759              		.cfi_offset 11, -8
 760              		.cfi_offset 14, -4
 761 0016 2DED0A8B 		vpush.64	{d8, d9, d10, d11, d12}
 762              		.cfi_def_cfa_offset 76
 763              		.cfi_offset 80, -76
 764              		.cfi_offset 81, -72
 765              		.cfi_offset 82, -68
 766              		.cfi_offset 83, -64
 767              		.cfi_offset 84, -60
 768              		.cfi_offset 85, -56
 769              		.cfi_offset 86, -52
 770              		.cfi_offset 87, -48
 771              		.cfi_offset 88, -44
 772              		.cfi_offset 89, -40
 773 001a C04C     		ldr	r4, .L137+12
 774 001c C04D     		ldr	r5, .L137+16
 775 001e DFF834A3 		ldr	r10, .L137+68
 776 0022 C04E     		ldr	r6, .L137+20
 777 0024 DFF84493 		ldr	r9, .L137+92
 778 0028 DFF844B3 		ldr	fp, .L137+96
 779 002c DFF84483 		ldr	r8, .L137+100
 780 0030 BD4F     		ldr	r7, .L137+24
 781              	.LBB51:
 782              		.loc 1 1960 0
 783 0032 DFEDBE8A 		vldr.32	s17, .L137+28
 784              		.loc 1 1967 0
 785 0036 9FEDBEAA 		vldr.32	s20, .L137+32
 786 003a DFEDBE9A 		vldr.32	s19, .L137+36
 787              		.loc 1 1975 0
 788 003e 9FEDBE9A 		vldr.32	s18, .L137+40
 789              		.loc 1 1996 0
 790 0042 DFEDBEAA 		vldr.32	s21, .L137+44
 791              	.LBE51:
 792              		.loc 1 1949 0
 793 0046 89B0     		sub	sp, sp, #36
 794              		.cfi_def_cfa_offset 112
 795 0048 81E0     		b	.L66
 796              	.LVL78:
 797              	.L132:
 798              	.LBB52:
ARM GAS  /tmp/ccvafMs5.s 			page 15


 799              		.loc 1 1990 0
 800 004a 99F80030 		ldrb	r3, [r9]	@ zero_extendqisi2
 801              		.loc 1 1984 0
 802 004e 77EE897A 		vadd.f32	s15, s15, s18
 803              		.loc 1 1990 0
 804 0052 032B     		cmp	r3, #3
 805              		.loc 1 1984 0
 806 0054 C6ED007A 		vstr.32	s15, [r6]
 807              		.loc 1 1990 0
 808 0058 00F0CA80 		beq	.L74
 809              	.L133:
 810              		.loc 1 1990 0 is_stmt 0 discriminator 1
 811 005c D4ED037A 		vldr.32	s15, [r4, #12]
 812 0060 F0EEE77A 		vabs.f32	s15, s15
 813 0064 F4EEC97A 		vcmpe.f32	s15, s18
 814 0068 F1EE10FA 		vmrs	APSR_nzcv, FPSCR
 815 006c 00F1C080 		bmi	.L74
 816 0070 D6ED006A 		vldr.32	s13, [r6]
 817              	.L75:
 818              	.LVL79:
 819              		.loc 1 1996 0 is_stmt 1
 820 0074 2B68     		ldr	r3, [r5]
 821 0076 D8ED007A 		vldr.32	s15, [r8]
 822 007a 93ED3A7A 		vldr.32	s14, [r3, #232]
 823 007e B4EEE67A 		vcmpe.f32	s14, s13
 824 0082 F1EE10FA 		vmrs	APSR_nzcv, FPSCR
 825 0086 40F1BB80 		bpl	.L120
 826              		.loc 1 1996 0 is_stmt 0 discriminator 1
 827 008a F4EEEA7A 		vcmpe.f32	s15, s21
 828 008e F1EE10FA 		vmrs	APSR_nzcv, FPSCR
 829 0092 00F2B580 		bhi	.L120
 830              		.loc 1 1997 0 is_stmt 1
 831 0096 D3ED3B7A 		vldr.32	s15, [r3, #236]
 832              		.loc 1 2001 0
 833 009a F5EEC07A 		vcmpe.f32	s15, #0
 834 009e F1EE10FA 		vmrs	APSR_nzcv, FPSCR
 835              		.loc 1 1997 0
 836 00a2 C8ED007A 		vstr.32	s15, [r8]
 837              	.LVL80:
 838              		.loc 1 2001 0
 839 00a6 40F3B780 		ble	.L77
 840              		.loc 1 2002 0
 841 00aa D7ED007A 		vldr.32	s15, [r7]
 842 00ae 38EE278A 		vadd.f32	s16, s16, s15
 843              	.LVL81:
 844 00b2 87ED008A 		vstr.32	s16, [r7]
 845              		.loc 1 2007 0
 846 00b6 D4ED037A 		vldr.32	s15, [r4, #12]
 847 00ba F5EEC07A 		vcmpe.f32	s15, #0
 848 00be F1EE10FA 		vmrs	APSR_nzcv, FPSCR
 849 00c2 40F31C81 		ble	.L129
 850              		.loc 1 2008 0
 851 00c6 97ED007A 		vldr.32	s14, [r7]
 852 00ca DFED9D7A 		vldr.32	s15, .L137+48
 853 00ce 77EE277A 		vadd.f32	s15, s14, s15
 854 00d2 C7ED007A 		vstr.32	s15, [r7]
 855              	.LVL82:
ARM GAS  /tmp/ccvafMs5.s 			page 16


 856              	.L79:
 857              		.loc 1 2014 0
 858 00d6 9448     		ldr	r0, .L137+24
 859 00d8 FFF7FEFF 		bl	utils_norm_angle_rad
 860              	.LVL83:
 861              		.loc 1 2015 0
 862 00dc 0123     		movs	r3, #1
 863              		.loc 1 2024 0
 864 00de 994A     		ldr	r2, .L137+52
 865              		.loc 1 2016 0
 866 00e0 D8ED007A 		vldr.32	s15, [r8]
 867              		.loc 1 2015 0
 868 00e4 8BF80030 		strb	r3, [fp]
 869              		.loc 1 2024 0
 870 00e8 1278     		ldrb	r2, [r2]	@ zero_extendqisi2
 871              		.loc 1 2017 0
 872 00ea C6ED008A 		vstr.32	s17, [r6]
 873              		.loc 1 2016 0
 874 00ee 77EEC97A 		vsub.f32	s15, s15, s18
 875              		.loc 1 2024 0
 876 00f2 022A     		cmp	r2, #2
 877              		.loc 1 2016 0
 878 00f4 C8ED007A 		vstr.32	s15, [r8]
 879 00f8 2B68     		ldr	r3, [r5]
 880              		.loc 1 2024 0
 881 00fa 00F09880 		beq	.L130
 882              	.L87:
 883              		.loc 1 2036 0
 884 00fe 94ED030A 		vldr.32	s0, [r4, #12]
 885              		.loc 1 2037 0
 886 0102 D3ED331A 		vldr.32	s3, [r3, #204]
 887 0106 D3ED347A 		vldr.32	s15, [r3, #208]
 888              		.loc 1 2036 0
 889 010a 93ED332A 		vldr.32	s4, [r3, #204]
 890 010e B0EEC00A 		vabs.f32	s0, s0
 891 0112 61EEA71A 		vmul.f32	s3, s3, s15
 892 0116 B7EE001A 		vmov.f32	s2, #1.0e+0
 893 011a F0EE680A 		vmov.f32	s1, s17
 894 011e FFF7FEFF 		bl	utils_map
 895              	.LVL84:
 896 0122 894B     		ldr	r3, .L137+56
 897 0124 83ED000A 		vstr.32	s0, [r3]
 898              	.LVL85:
 899              	.LBB37:
 900              	.LBB38:
 901              		.loc 1 2472 0
 902 0128 99F80030 		ldrb	r3, [r9]	@ zero_extendqisi2
 903 012c 012B     		cmp	r3, #1
 904 012e 00F0BF80 		beq	.L90
 905              		.loc 1 2473 0
 906 0132 864B     		ldr	r3, .L137+60
 907 0134 C3ED008A 		vstr.32	s17, [r3]
 908              		.loc 1 2474 0
 909 0138 854B     		ldr	r3, .L137+64
 910 013a C3ED008A 		vstr.32	s17, [r3]
 911              	.LVL86:
 912              	.L99:
ARM GAS  /tmp/ccvafMs5.s 			page 17


 913              	.LBE38:
 914              	.LBE37:
 915              		.loc 1 2040 0
 916 013e 0A20     		movs	r0, #10
 917 0140 FFF7FEFF 		bl	chThdSleep
 918              	.LVL87:
 919              		.loc 1 1955 0
 920 0144 744B     		ldr	r3, .L137+8
 921 0146 1B78     		ldrb	r3, [r3]	@ zero_extendqisi2
 922 0148 002B     		cmp	r3, #0
 923 014a 40F0D080 		bne	.L131
 924              	.LVL88:
 925              	.L66:
 926              		.loc 1 1961 0
 927 014e 2B68     		ldr	r3, [r5]
 928              		.loc 1 1960 0
 929 0150 94ED010A 		vldr.32	s0, [r4, #4]
 930 0154 DFED750A 		vldr.32	s1, .L137+28
 931 0158 93ED011A 		vldr.32	s2, [r3, #4]
 932 015c 93ED392A 		vldr.32	s4, [r3, #228]
 933 0160 F0EE681A 		vmov.f32	s3, s17
 934 0164 B0EEC00A 		vabs.f32	s0, s0
 935 0168 FFF7FEFF 		bl	utils_map
 936              	.LVL89:
 937              		.loc 1 1964 0
 938 016c 2B68     		ldr	r3, [r5]
 939              		.loc 1 1960 0
 940 016e 8DED020A 		vstr.32	s0, [sp, #8]
 941              		.loc 1 1964 0
 942 0172 D3ED397A 		vldr.32	s15, [r3, #228]
 943 0176 02A8     		add	r0, sp, #8
 944 0178 B0EE670A 		vmov.f32	s0, s15
 945 017c FFF7FEFF 		bl	utils_truncate_number_abs
 946              	.LVL90:
 947              		.loc 1 1967 0
 948 0180 DDED027A 		vldr.32	s15, [sp, #8]
 949              		.loc 1 1972 0
 950 0184 94ED037A 		vldr.32	s14, [r4, #12]
 951              		.loc 1 1980 0
 952 0188 7248     		ldr	r0, .L137+68
 953              		.loc 1 1967 0
 954 018a 77EEA77A 		vadd.f32	s15, s15, s15
 955              		.loc 1 1972 0
 956 018e B5EEC07A 		vcmpe.f32	s14, #0
 957              		.loc 1 1967 0
 958 0192 67EE8A7A 		vmul.f32	s15, s15, s20
 959              		.loc 1 1972 0
 960 0196 F1EE10FA 		vmrs	APSR_nzcv, FPSCR
 961              		.loc 1 1967 0
 962 019a 87EEA9BA 		vdiv.f32	s22, s15, s19
 963              	.LVL91:
 964              		.loc 1 1979 0
 965 019e DAED007A 		vldr.32	s15, [r10]
 966              		.loc 1 1973 0
 967 01a2 CCBF     		ite	gt
 968 01a4 2BEE098A 		vmulgt.f32	s16, s22, s18
 969              	.LVL92:
ARM GAS  /tmp/ccvafMs5.s 			page 18


 970              		.loc 1 1975 0
 971 01a8 2BEE498A 		vnmulle.f32	s16, s22, s18
 972              	.LVL93:
 973              		.loc 1 1979 0
 974 01ac 77EE887A 		vadd.f32	s15, s15, s16
 975 01b0 CAED007A 		vstr.32	s15, [r10]
 976              		.loc 1 1980 0
 977 01b4 FFF7FEFF 		bl	utils_norm_angle_rad
 978              	.LVL94:
 979              		.loc 1 1983 0
 980 01b8 674B     		ldr	r3, .L137+72
 981 01ba D3ED007A 		vldr.32	s15, [r3]
 982 01be F0EEE77A 		vabs.f32	s15, s15
 983 01c2 F4EECB7A 		vcmpe.f32	s15, s22
 984 01c6 F1EE10FA 		vmrs	APSR_nzcv, FPSCR
 985              		.loc 1 1984 0
 986 01ca D6ED007A 		vldr.32	s15, [r6]
 987              		.loc 1 1983 0
 988 01ce 3FF53CAF 		bmi	.L132
 989              		.loc 1 1985 0
 990 01d2 F5EEC07A 		vcmpe.f32	s15, #0
 991 01d6 F1EE10FA 		vmrs	APSR_nzcv, FPSCR
 992              		.loc 1 1986 0
 993 01da C8BF     		it	gt
 994 01dc 77EEC97A 		vsubgt.f32	s15, s15, s18
 995              		.loc 1 1990 0
 996 01e0 99F80030 		ldrb	r3, [r9]	@ zero_extendqisi2
 997              		.loc 1 1986 0
 998 01e4 C8BF     		it	gt
 999 01e6 C6ED007A 		vstrgt.32	s15, [r6]
 1000              		.loc 1 1990 0
 1001 01ea 032B     		cmp	r3, #3
 1002 01ec 7FF436AF 		bne	.L133
 1003              	.L74:
 1004              		.loc 1 1992 0
 1005 01f0 0023     		movs	r3, #0
 1006 01f2 F0EE686A 		vmov.f32	s13, s17
 1007              		.loc 1 1991 0
 1008 01f6 C6ED008A 		vstr.32	s17, [r6]
 1009              		.loc 1 1992 0
 1010 01fa 8BF80030 		strb	r3, [fp]
 1011 01fe 39E7     		b	.L75
 1012              	.LVL95:
 1013              	.L120:
 1014              		.loc 1 2001 0
 1015 0200 F5EEC07A 		vcmpe.f32	s15, #0
 1016 0204 F1EE10FA 		vmrs	APSR_nzcv, FPSCR
 1017 0208 06DD     		ble	.L77
 1018              		.loc 1 2002 0
 1019 020a D7ED007A 		vldr.32	s15, [r7]
 1020 020e 38EE278A 		vadd.f32	s16, s16, s15
 1021              	.LVL96:
 1022 0212 87ED008A 		vstr.32	s16, [r7]
 1023 0216 5EE7     		b	.L79
 1024              	.LVL97:
 1025              	.L77:
 1026              		.loc 1 2019 0
ARM GAS  /tmp/ccvafMs5.s 			page 19


 1027 0218 504A     		ldr	r2, .L137+76
 1028 021a 1168     		ldr	r1, [r2]	@ float
 1029 021c 3960     		str	r1, [r7]	@ float
 1030              		.loc 1 2020 0
 1031 021e 0022     		movs	r2, #0
 1032 0220 8BF80020 		strb	r2, [fp]
 1033              		.loc 1 2024 0
 1034 0224 474A     		ldr	r2, .L137+52
 1035 0226 1278     		ldrb	r2, [r2]	@ zero_extendqisi2
 1036 0228 022A     		cmp	r2, #2
 1037 022a 7FF468AF 		bne	.L87
 1038              	.LVL98:
 1039              	.L130:
 1040              	.LBB45:
 1041              		.loc 1 2025 0
 1042 022e E26C     		ldr	r2, [r4, #76]	@ float
 1043 0230 0392     		str	r2, [sp, #12]	@ float
 1044              		.loc 1 2026 0
 1045 0232 226D     		ldr	r2, [r4, #80]	@ float
 1046 0234 0492     		str	r2, [sp, #16]	@ float
 1047              		.loc 1 2027 0
 1048 0236 E26B     		ldr	r2, [r4, #60]	@ float
 1049 0238 0592     		str	r2, [sp, #20]	@ float
 1050              		.loc 1 2028 0
 1051 023a 226C     		ldr	r2, [r4, #64]	@ float
 1052 023c 0692     		str	r2, [sp, #24]	@ float
 1053              		.loc 1 2030 0
 1054 023e DDED056A 		vldr.32	s13, [sp, #20]
 1055 0242 9DED057A 		vldr.32	s14, [sp, #20]
 1056 0246 DDED067A 		vldr.32	s15, [sp, #24]
 1057 024a 9DED060A 		vldr.32	s0, [sp, #24]
 1058 024e 27EE800A 		vmul.f32	s0, s15, s0
 1059 0252 A6EE870A 		vfma.f32	s0, s13, s14
 1060 0256 B5EE400A 		vcmp.f32	s0, #0
 1061 025a F1EE10FA 		vmrs	APSR_nzcv, FPSCR
 1062 025e B1EEC08A 		vsqrt.f32	s16, s0
 1063 0262 00F10081 		bmi	.L134
 1064              	.L88:
 1065 0266 3E4A     		ldr	r2, .L137+80
 1066 0268 D2ED017A 		vldr.32	s15, [r2, #4]
 1067 026c 37EE888A 		vadd.f32	s16, s15, s16
 1068 0270 82ED018A 		vstr.32	s16, [r2, #4]
 1069              		.loc 1 2031 0
 1070 0274 DDED036A 		vldr.32	s13, [sp, #12]
 1071 0278 9DED037A 		vldr.32	s14, [sp, #12]
 1072 027c DDED047A 		vldr.32	s15, [sp, #16]
 1073 0280 9DED040A 		vldr.32	s0, [sp, #16]
 1074 0284 27EE800A 		vmul.f32	s0, s15, s0
 1075 0288 A6EE870A 		vfma.f32	s0, s13, s14
 1076 028c B5EE400A 		vcmp.f32	s0, #0
 1077 0290 F1EE10FA 		vmrs	APSR_nzcv, FPSCR
 1078 0294 B1EEC08A 		vsqrt.f32	s16, s0
 1079 0298 00F1EA80 		bmi	.L135
 1080              	.L89:
 1081 029c D2ED027A 		vldr.32	s15, [r2, #8]
 1082 02a0 37EE888A 		vadd.f32	s16, s15, s16
 1083 02a4 82ED028A 		vstr.32	s16, [r2, #8]
ARM GAS  /tmp/ccvafMs5.s 			page 20


 1084              		.loc 1 2032 0
 1085 02a8 1168     		ldr	r1, [r2]
 1086 02aa 0131     		adds	r1, r1, #1
 1087 02ac 1160     		str	r1, [r2]
 1088 02ae 26E7     		b	.L87
 1089              	.LVL99:
 1090              	.L90:
 1091              	.LBE45:
 1092              	.LBB46:
 1093              	.LBB43:
 1094              	.LBB39:
 1095              	.LBB40:
 1096              		.loc 1 720 0
 1097 02b0 294B     		ldr	r3, .L137+72
 1098 02b2 DFED2C6A 		vldr.32	s13, .L137+84
 1099 02b6 93ED006A 		vldr.32	s12, [r3]
 1100              	.LBE40:
 1101              	.LBE39:
 1102              		.loc 1 2479 0
 1103 02ba 2B4A     		ldr	r2, .L137+88
 1104              		.loc 1 2482 0
 1105 02bc 2B68     		ldr	r3, [r5]
 1106              		.loc 1 2479 0
 1107 02be 92ED008A 		vldr.32	s16, [r2]
 1108              		.loc 1 2482 0
 1109 02c2 D2ED007A 		vldr.32	s15, [r2]
 1110 02c6 93ED4B7A 		vldr.32	s14, [r3, #300]
 1111              	.LBB42:
 1112              	.LBB41:
 1113              		.loc 1 720 0
 1114 02ca C6EE26BA 		vdiv.f32	s23, s12, s13
 1115              	.LBE41:
 1116              	.LBE42:
 1117              		.loc 1 2482 0
 1118 02ce F0EEE77A 		vabs.f32	s15, s15
 1119 02d2 F4EEC77A 		vcmpe.f32	s15, s14
 1120 02d6 F1EE10FA 		vmrs	APSR_nzcv, FPSCR
 1121              		.loc 1 2479 0
 1122 02da 38EE6B8A 		vsub.f32	s16, s16, s23
 1123              	.LVL100:
 1124              		.loc 1 2482 0
 1125 02de 4BD5     		bpl	.L122
 1126              		.loc 1 2483 0
 1127 02e0 1A4B     		ldr	r3, .L137+60
 1128 02e2 C3ED008A 		vstr.32	s17, [r3]
 1129              		.loc 1 2484 0
 1130 02e6 1A4B     		ldr	r3, .L137+64
 1131 02e8 83ED008A 		vstr.32	s16, [r3]
 1132 02ec 27E7     		b	.L99
 1133              	.LVL101:
 1134              	.L131:
 1135              	.LBE43:
 1136              	.LBE46:
 1137              		.loc 1 1956 0
 1138 02ee 0A4A     		ldr	r2, .L137+8
 1139 02f0 0023     		movs	r3, #0
 1140 02f2 1370     		strb	r3, [r2]
ARM GAS  /tmp/ccvafMs5.s 			page 21


 1141              	.LBE52:
 1142              		.loc 1 2043 0
 1143 02f4 09B0     		add	sp, sp, #36
 1144              		.cfi_remember_state
 1145              		.cfi_def_cfa_offset 76
 1146              		@ sp needed
 1147 02f6 BDEC0A8B 		vldm	sp!, {d8-d12}
 1148              		.cfi_restore 88
 1149              		.cfi_restore 89
 1150              		.cfi_restore 86
 1151              		.cfi_restore 87
 1152              		.cfi_restore 84
 1153              		.cfi_restore 85
 1154              		.cfi_restore 82
 1155              		.cfi_restore 83
 1156              		.cfi_restore 80
 1157              		.cfi_restore 81
 1158              		.cfi_def_cfa_offset 36
 1159 02fa BDE8F08F 		pop	{r4, r5, r6, r7, r8, r9, r10, fp, pc}
 1160              	.LVL102:
 1161              	.L129:
 1162              		.cfi_restore_state
 1163              	.LBB53:
 1164              		.loc 1 2010 0
 1165 02fe 97ED007A 		vldr.32	s14, [r7]
 1166 0302 DFED0F7A 		vldr.32	s15, .L137+48
 1167 0306 77EE677A 		vsub.f32	s15, s14, s15
 1168 030a C7ED007A 		vstr.32	s15, [r7]
 1169 030e E2E6     		b	.L79
 1170              	.L138:
 1171              		.align	2
 1172              	.L137:
 1173 0310 00000000 		.word	ch
 1174 0314 00000000 		.word	.LC0
 1175 0318 00000000 		.word	.LANCHOR9
 1176 031c 00000000 		.word	.LANCHOR10
 1177 0320 00000000 		.word	.LANCHOR0
 1178 0324 00000000 		.word	.LANCHOR13
 1179 0328 00000000 		.word	.LANCHOR8
 1180 032c 00000000 		.word	0
 1181 0330 DB0F4940 		.word	1078530011
 1182 0334 00007042 		.word	1114636288
 1183 0338 6F12833A 		.word	981668463
 1184 033c 17B7D138 		.word	953267991
 1185 0340 DB0FC93F 		.word	1070141403
 1186 0344 00000000 		.word	.LANCHOR7
 1187 0348 00000000 		.word	.LANCHOR18
 1188 034c 00000000 		.word	.LANCHOR19
 1189 0350 00000000 		.word	.LANCHOR20
 1190 0354 00000000 		.word	.LANCHOR11
 1191 0358 00000000 		.word	.LANCHOR12
 1192 035c 00000000 		.word	.LANCHOR16
 1193 0360 00000000 		.word	.LANCHOR17
 1194 0364 5077D63D 		.word	1037465424
 1195 0368 00000000 		.word	.LANCHOR21
 1196 036c 00000000 		.word	.LANCHOR14
 1197 0370 00000000 		.word	.LANCHOR6
ARM GAS  /tmp/ccvafMs5.s 			page 22


 1198 0374 00000000 		.word	.LANCHOR15
 1199              	.LVL103:
 1200              	.L122:
 1201              	.LBB47:
 1202              	.LBB44:
 1203              		.loc 1 2489 0
 1204 0378 D3ED47CA 		vldr.32	s25, [r3, #284]
 1205              		.loc 1 2490 0
 1206 037c D3ED486A 		vldr.32	s13, [r3, #288]
 1207              		.loc 1 2491 0
 1208 0380 93ED495A 		vldr.32	s10, [r3, #292]
 1209 0384 3E4A     		ldr	r2, .L139
 1210              		.loc 1 2490 0
 1211 0386 9FED3FCA 		vldr.32	s24, .L139+4
 1212              		.loc 1 2491 0
 1213 038a D2ED007A 		vldr.32	s15, [r2]
 1214              		.loc 1 2495 0
 1215 038e 3E4A     		ldr	r2, .L139+8
 1216              		.loc 1 2490 0
 1217 0390 3E49     		ldr	r1, .L139+12
 1218              		.loc 1 2495 0
 1219 0392 92ED00BA 		vldr.32	s22, [r2]
 1220              	.LVL104:
 1221              		.loc 1 2490 0
 1222 0396 91ED006A 		vldr.32	s12, [r1]
 1223              		.loc 1 2495 0
 1224 039a D3ED4A5A 		vldr.32	s11, [r3, #296]
 1225              		.loc 1 2491 0
 1226 039e 85EE097A 		vdiv.f32	s14, s10, s18
 1227              		.loc 1 2499 0
 1228 03a2 0846     		mov	r0, r1
 1229              		.loc 1 2491 0
 1230 03a4 78EE677A 		vsub.f32	s15, s16, s15
 1231              		.loc 1 2490 0
 1232 03a8 66EE896A 		vmul.f32	s13, s13, s18
 1233              		.loc 1 2495 0
 1234 03ac 67EE677A 		vnmul.f32	s15, s14, s15
 1235              		.loc 1 2490 0
 1236 03b0 26EE887A 		vmul.f32	s14, s13, s16
 1237              		.loc 1 2495 0
 1238 03b4 F0EE4B6A 		vmov.f32	s13, s22
 1239 03b8 E7EE8C6A 		vfma.f32	s13, s15, s24
 1240              		.loc 1 2490 0
 1241 03bc F0EE467A 		vmov.f32	s15, s12
 1242 03c0 E7EE0C7A 		vfma.f32	s15, s14, s24
 1243              		.loc 1 2495 0
 1244 03c4 A5EEE6BA 		vfms.f32	s22, s11, s13
 1245              		.loc 1 2499 0
 1246 03c8 F7EE000A 		vmov.f32	s1, #1.0e+0
 1247 03cc BFEE000A 		vmov.f32	s0, #-1.0e+0
 1248              		.loc 1 2490 0
 1249 03d0 C1ED007A 		vstr.32	s15, [r1]
 1250              		.loc 1 2495 0
 1251 03d4 82ED00BA 		vstr.32	s22, [r2]
 1252              		.loc 1 2499 0
 1253 03d8 FFF7FEFF 		bl	utils_truncate_number
 1254              	.LVL105:
ARM GAS  /tmp/ccvafMs5.s 			page 23


 1255              		.loc 1 2505 0
 1256 03dc 2B49     		ldr	r1, .L139+12
 1257              		.loc 1 2502 0
 1258 03de 284A     		ldr	r2, .L139
 1259              		.loc 1 2505 0
 1260 03e0 D1ED007A 		vldr.32	s15, [r1]
 1261              		.loc 1 2502 0
 1262 03e4 82ED008A 		vstr.32	s16, [r2]
 1263              		.loc 1 2489 0
 1264 03e8 68EE2CCA 		vmul.f32	s25, s16, s25
 1265              	.LVL106:
 1266              		.loc 1 2505 0
 1267 03ec 08A8     		add	r0, sp, #32
 1268 03ee ECEE8C7A 		vfma.f32	s15, s25, s24
 1269              		.loc 1 2506 0
 1270 03f2 F7EE000A 		vmov.f32	s1, #1.0e+0
 1271              		.loc 1 2505 0
 1272 03f6 37EE8BBA 		vadd.f32	s22, s15, s22
 1273              	.LVL107:
 1274              		.loc 1 2506 0
 1275 03fa BFEE000A 		vmov.f32	s0, #-1.0e+0
 1276              		.loc 1 2505 0
 1277 03fe 20ED01BA 		vstmdb.32	r0!, {s22}
 1278              		.loc 1 2506 0
 1279 0402 FFF7FEFF 		bl	utils_truncate_number
 1280              	.LVL108:
 1281              		.loc 1 2509 0
 1282 0406 2B68     		ldr	r3, [r5]
 1283 0408 DDED077A 		vldr.32	s15, [sp, #28]
 1284 040c 93F83021 		ldrb	r2, [r3, #304]	@ zero_extendqisi2
 1285 0410 72B9     		cbnz	r2, .L95
 1286              		.loc 1 2510 0
 1287 0412 F5EEC0BA 		vcmpe.f32	s23, #0
 1288 0416 F1EE10FA 		vmrs	APSR_nzcv, FPSCR
 1289 041a 04DD     		ble	.L96
 1290 041c F5EEC07A 		vcmpe.f32	s15, #0
 1291 0420 F1EE10FA 		vmrs	APSR_nzcv, FPSCR
 1292 0424 11D4     		bmi	.L102
 1293              	.L96:
 1294              		.loc 1 2514 0
 1295 0426 F5EEC0BA 		vcmpe.f32	s23, #0
 1296 042a F1EE10FA 		vmrs	APSR_nzcv, FPSCR
 1297 042e 07D4     		bmi	.L136
 1298              	.L95:
 1299              		.loc 1 2519 0
 1300 0430 93ED197A 		vldr.32	s14, [r3, #100]
 1301 0434 164B     		ldr	r3, .L139+16
 1302 0436 67EE877A 		vmul.f32	s15, s15, s14
 1303 043a C3ED007A 		vstr.32	s15, [r3]
 1304 043e 7EE6     		b	.L99
 1305              	.L136:
 1306              		.loc 1 2514 0
 1307 0440 F5EEC07A 		vcmpe.f32	s15, #0
 1308 0444 F1EE10FA 		vmrs	APSR_nzcv, FPSCR
 1309 0448 F2DD     		ble	.L95
 1310              	.L102:
 1311              		.loc 1 2519 0
ARM GAS  /tmp/ccvafMs5.s 			page 24


 1312 044a 93ED197A 		vldr.32	s14, [r3, #100]
 1313 044e 104B     		ldr	r3, .L139+16
 1314              		.loc 1 2514 0
 1315 0450 F0EE687A 		vmov.f32	s15, s17
 1316              		.loc 1 2519 0
 1317 0454 67EE877A 		vmul.f32	s15, s15, s14
 1318 0458 C3ED007A 		vstr.32	s15, [r3]
 1319 045c 6FE6     		b	.L99
 1320              	.LVL109:
 1321              	.L124:
 1322              		.cfi_def_cfa_offset 0
 1323              		.cfi_restore 4
 1324              		.cfi_restore 5
 1325              		.cfi_restore 6
 1326              		.cfi_restore 7
 1327              		.cfi_restore 8
 1328              		.cfi_restore 9
 1329              		.cfi_restore 10
 1330              		.cfi_restore 11
 1331              		.cfi_restore 14
 1332              		.cfi_restore 80
 1333              		.cfi_restore 81
 1334              		.cfi_restore 82
 1335              		.cfi_restore 83
 1336              		.cfi_restore 84
 1337              		.cfi_restore 85
 1338              		.cfi_restore 86
 1339              		.cfi_restore 87
 1340              		.cfi_restore 88
 1341              		.cfi_restore 89
 1342              	.LBE44:
 1343              	.LBE47:
 1344              		.loc 1 1956 0
 1345 045e 0D4A     		ldr	r2, .L139+20
 1346 0460 0023     		movs	r3, #0
 1347 0462 1370     		strb	r3, [r2]
 1348 0464 7047     		bx	lr
 1349              	.LVL110:
 1350              	.L134:
 1351              		.cfi_def_cfa_offset 112
 1352              		.cfi_offset 4, -36
 1353              		.cfi_offset 5, -32
 1354              		.cfi_offset 6, -28
 1355              		.cfi_offset 7, -24
 1356              		.cfi_offset 8, -20
 1357              		.cfi_offset 9, -16
 1358              		.cfi_offset 10, -12
 1359              		.cfi_offset 11, -8
 1360              		.cfi_offset 14, -4
 1361              		.cfi_offset 80, -76
 1362              		.cfi_offset 81, -72
 1363              		.cfi_offset 82, -68
 1364              		.cfi_offset 83, -64
 1365              		.cfi_offset 84, -60
 1366              		.cfi_offset 85, -56
 1367              		.cfi_offset 86, -52
 1368              		.cfi_offset 87, -48
ARM GAS  /tmp/ccvafMs5.s 			page 25


 1369              		.cfi_offset 88, -44
 1370              		.cfi_offset 89, -40
 1371 0466 0093     		str	r3, [sp]
 1372              	.LBB48:
 1373              		.loc 1 2030 0
 1374 0468 FFF7FEFF 		bl	sqrtf
 1375              	.LVL111:
 1376 046c 009B     		ldr	r3, [sp]
 1377 046e FAE6     		b	.L88
 1378              	.L135:
 1379 0470 CDE90032 		strd	r3, r2, [sp]
 1380              		.loc 1 2031 0
 1381 0474 FFF7FEFF 		bl	sqrtf
 1382              	.LVL112:
 1383 0478 DDE90032 		ldrd	r3, r2, [sp]
 1384 047c 0EE7     		b	.L89
 1385              	.L140:
 1386 047e 00BF     		.align	2
 1387              	.L139:
 1388 0480 00000000 		.word	.LANCHOR20
 1389 0484 CDCC4C3D 		.word	1028443341
 1390 0488 00000000 		.word	.LANCHOR22
 1391 048c 00000000 		.word	.LANCHOR19
 1392 0490 00000000 		.word	.LANCHOR23
 1393 0494 00000000 		.word	.LANCHOR9
 1394              	.LBE48:
 1395              	.LBE53:
 1396              		.cfi_endproc
 1397              	.LFE305:
 1398              		.size	timer_thread, .-timer_thread
 1399              		.section	.text.mcpwm_foc_init,"ax",%progbits
 1400              		.align	1
 1401              		.p2align 4,,15
 1402              		.global	mcpwm_foc_init
 1403              		.syntax unified
 1404              		.thumb
 1405              		.thumb_func
 1406              		.fpu fpv4-sp-d16
 1407              		.type	mcpwm_foc_init, %function
 1408              	mcpwm_foc_init:
 1409              	.LFB256:
 1410              		.loc 1 190 0
 1411              		.cfi_startproc
 1412              		@ args = 0, pretend = 0, frame = 160
 1413              		@ frame_needed = 0, uses_anonymous_args = 0
 1414              	.LVL113:
 1415 0000 2DE9F04F 		push	{r4, r5, r6, r7, r8, r9, r10, fp, lr}
 1416              		.cfi_def_cfa_offset 36
 1417              		.cfi_offset 4, -36
 1418              		.cfi_offset 5, -32
 1419              		.cfi_offset 6, -28
 1420              		.cfi_offset 7, -24
 1421              		.cfi_offset 8, -20
 1422              		.cfi_offset 9, -16
 1423              		.cfi_offset 10, -12
 1424              		.cfi_offset 11, -8
 1425              		.cfi_offset 14, -4
ARM GAS  /tmp/ccvafMs5.s 			page 26


 1426 0004 ABB0     		sub	sp, sp, #172
 1427              		.cfi_def_cfa_offset 208
 1428              		.loc 1 190 0
 1429 0006 8146     		mov	r9, r0
 1430              		.loc 1 191 0
 1431 0008 FFF7FEFF 		bl	utils_sys_lock_cnt
 1432              	.LVL114:
 1433              		.loc 1 193 0
 1434 000c D04B     		ldr	r3, .L149
 1435              		.loc 1 203 0
 1436 000e DFF8CCE3 		ldr	lr, .L149+140
 1437              		.loc 1 204 0
 1438 0012 DFF8CCC3 		ldr	ip, .L149+144
 1439              		.loc 1 205 0
 1440 0016 DFF8CCB3 		ldr	fp, .L149+148
 1441              		.loc 1 207 0
 1442 001a CE4F     		ldr	r7, .L149+4
 1443              		.loc 1 210 0
 1444 001c DFEDCE7A 		vldr.32	s15, .L149+8
 1445              		.loc 1 199 0
 1446 0020 DFF8C483 		ldr	r8, .L149+152
 1447              		.loc 1 209 0
 1448 0024 DFF8C4A3 		ldr	r10, .L149+156
 1449              		.loc 1 211 0
 1450 0028 CC49     		ldr	r1, .L149+12
 1451              		.loc 1 212 0
 1452 002a CD4A     		ldr	r2, .L149+16
 1453              		.loc 1 213 0
 1454 002c CD48     		ldr	r0, .L149+20
 1455              		.loc 1 199 0
 1456 002e C8F80090 		str	r9, [r8]
 1457              		.loc 1 193 0
 1458 0032 0024     		movs	r4, #0
 1459 0034 1C70     		strb	r4, [r3]
 1460              		.loc 1 206 0
 1461 0036 CC4B     		ldr	r3, .L149+24
 1462              		.loc 1 203 0
 1463 0038 8EF80040 		strb	r4, [lr]
 1464              		.loc 1 204 0
 1465 003c 4FF0070E 		mov	lr, #7
 1466 0040 8CF800E0 		strb	lr, [ip]
 1467              		.loc 1 205 0
 1468 0044 CBF80040 		str	r4, [fp]
 1469              		.loc 1 206 0
 1470 0048 1C60     		str	r4, [r3]
 1471              		.loc 1 208 0
 1472 004a C84B     		ldr	r3, .L149+28
 1473              		.loc 1 207 0
 1474 004c 3C60     		str	r4, [r7]
 1475              		.loc 1 208 0
 1476 004e 1C70     		strb	r4, [r3]
 1477              		.loc 1 210 0
 1478 0050 C74B     		ldr	r3, .L149+32
 1479              		.loc 1 209 0
 1480 0052 8AF80040 		strb	r4, [r10]
 1481              		.loc 1 214 0
 1482 0056 DFF89893 		ldr	r9, .L149+160
ARM GAS  /tmp/ccvafMs5.s 			page 27


 1483              	.LVL115:
 1484              		.loc 1 210 0
 1485 005a C3ED007A 		vstr.32	s15, [r3]
 1486              		.loc 1 215 0
 1487 005e DFF894E3 		ldr	lr, .L149+164
 1488              		.loc 1 216 0
 1489 0062 DFF894C3 		ldr	ip, .L149+168
 1490              		.loc 1 217 0
 1491 0066 C34B     		ldr	r3, .L149+36
 1492              		.loc 1 211 0
 1493 0068 C1ED007A 		vstr.32	s15, [r1]
 1494              		.loc 1 212 0
 1495 006c C2ED007A 		vstr.32	s15, [r2]
 1496              		.loc 1 218 0
 1497 0070 C149     		ldr	r1, .L149+40
 1498              		.loc 1 213 0
 1499 0072 C0ED007A 		vstr.32	s15, [r0]
 1500              		.loc 1 219 0
 1501 0076 C14A     		ldr	r2, .L149+44
 1502              		.loc 1 220 0
 1503 0078 C148     		ldr	r0, .L149+48
 1504              		.loc 1 214 0
 1505 007a C9ED007A 		vstr.32	s15, [r9]
 1506              		.loc 1 215 0
 1507 007e 8EF80040 		strb	r4, [lr]
 1508              		.loc 1 221 0
 1509 0082 DFF87893 		ldr	r9, .L149+172
 1510              		.loc 1 216 0
 1511 0086 CCED007A 		vstr.32	s15, [ip]
 1512              		.loc 1 222 0
 1513 008a DFF874E3 		ldr	lr, .L149+176
 1514              		.loc 1 217 0
 1515 008e C3ED007A 		vstr.32	s15, [r3]
 1516              		.loc 1 223 0
 1517 0092 DFF870C3 		ldr	ip, .L149+180
 1518              		.loc 1 224 0
 1519 0096 BB4B     		ldr	r3, .L149+52
 1520              		.loc 1 218 0
 1521 0098 C1ED007A 		vstr.32	s15, [r1]
 1522              		.loc 1 219 0
 1523 009c C2ED007A 		vstr.32	s15, [r2]
 1524              		.loc 1 225 0
 1525 00a0 B949     		ldr	r1, .L149+56
 1526              		.loc 1 220 0
 1527 00a2 0470     		strb	r4, [r0]
 1528              		.loc 1 226 0
 1529 00a4 B94A     		ldr	r2, .L149+60
 1530              		.loc 1 227 0
 1531 00a6 BA48     		ldr	r0, .L149+64
 1532              		.loc 1 221 0
 1533 00a8 C9ED007A 		vstr.32	s15, [r9]
 1534              		.loc 1 222 0
 1535 00ac CEED007A 		vstr.32	s15, [lr]
 1536              		.loc 1 228 0
 1537 00b0 DFF85493 		ldr	r9, .L149+184
 1538              		.loc 1 229 0
 1539 00b4 DFF854E3 		ldr	lr, .L149+188
ARM GAS  /tmp/ccvafMs5.s 			page 28


 1540              		.loc 1 223 0
 1541 00b8 CCED007A 		vstr.32	s15, [ip]
 1542              		.loc 1 224 0
 1543 00bc C3ED007A 		vstr.32	s15, [r3]
 1544              		.loc 1 230 0
 1545 00c0 DFF84CC3 		ldr	ip, .L149+192
 1546              		.loc 1 231 0
 1547 00c4 B34B     		ldr	r3, .L149+68
 1548              		.loc 1 225 0
 1549 00c6 C1ED007A 		vstr.32	s15, [r1]
 1550              		.loc 1 226 0
 1551 00ca C2ED007A 		vstr.32	s15, [r2]
 1552              		.loc 1 232 0
 1553 00ce 2146     		mov	r1, r4
 1554              		.loc 1 227 0
 1555 00d0 0460     		str	r4, [r0]
 1556              		.loc 1 232 0
 1557 00d2 6022     		movs	r2, #96
 1558 00d4 B048     		ldr	r0, .L149+72
 1559              		.loc 1 239 0
 1560 00d6 B14D     		ldr	r5, .L149+76
 1561              		.loc 1 228 0
 1562 00d8 C9F80040 		str	r4, [r9]
 1563              		.loc 1 229 0
 1564 00dc CEED007A 		vstr.32	s15, [lr]
 1565              		.loc 1 230 0
 1566 00e0 CCED007A 		vstr.32	s15, [ip]
 1567              		.loc 1 231 0
 1568 00e4 C3ED007A 		vstr.32	s15, [r3]
 1569              		.loc 1 232 0
 1570 00e8 FFF7FEFF 		bl	memset
 1571              	.LVL116:
 1572              		.loc 1 233 0
 1573 00ec AC4B     		ldr	r3, .L149+80
 1574              		.loc 1 240 0
 1575 00ee AD4E     		ldr	r6, .L149+84
 1576              		.loc 1 233 0
 1577 00f0 1C60     		str	r4, [r3]
 1578              		.loc 1 239 0
 1579 00f2 2846     		mov	r0, r5
 1580              		.loc 1 233 0
 1581 00f4 5C60     		str	r4, [r3, #4]
 1582 00f6 9C60     		str	r4, [r3, #8]
 1583 00f8 DC60     		str	r4, [r3, #12]
 1584 00fa 1C61     		str	r4, [r3, #16]
 1585              		.loc 1 239 0
 1586 00fc FFF7FEFF 		bl	TIM_DeInit
 1587              	.LVL117:
 1588              		.loc 1 240 0
 1589 0100 3046     		mov	r0, r6
 1590 0102 FFF7FEFF 		bl	TIM_DeInit
 1591              	.LVL118:
 1592              		.loc 1 245 0
 1593 0106 0121     		movs	r1, #1
 1594              		.loc 1 241 0
 1595 0108 6C62     		str	r4, [r5, #36]
 1596              		.loc 1 245 0
ARM GAS  /tmp/ccvafMs5.s 			page 29


 1597 010a 0846     		mov	r0, r1
 1598              		.loc 1 242 0
 1599 010c 7462     		str	r4, [r6, #36]
 1600              		.loc 1 245 0
 1601 010e FFF7FEFF 		bl	RCC_APB2PeriphClockCmd
 1602              	.LVL119:
 1603              		.loc 1 250 0
 1604 0112 D8F80030 		ldr	r3, [r8]
 1605 0116 A44A     		ldr	r2, .L149+88
 1606 0118 D3ED2B7A 		vldr.32	s15, [r3, #172]
 1607              		.loc 1 251 0
 1608 011c ADF81C40 		strh	r4, [sp, #28]	@ movhi
 1609              		.loc 1 250 0
 1610 0120 FDEEE77A 		vcvt.s32.f32	s15, s15
 1611              		.loc 1 248 0
 1612 0124 4FF4001C 		mov	ip, #2097152
 1613              		.loc 1 250 0
 1614 0128 17EE903A 		vmov	r3, s15	@ int
 1615              		.loc 1 254 0
 1616 012c 2846     		mov	r0, r5
 1617 012e 05A9     		add	r1, sp, #20
 1618              		.loc 1 248 0
 1619 0130 CDF814C0 		str	ip, [sp, #20]
 1620              		.loc 1 250 0
 1621 0134 92FBF3F3 		sdiv	r3, r2, r3
 1622              		.loc 1 252 0
 1623 0138 8DF81E40 		strb	r4, [sp, #30]
 1624              		.loc 1 250 0
 1625 013c 0693     		str	r3, [sp, #24]
 1626              		.loc 1 254 0
 1627 013e FFF7FEFF 		bl	TIM_TimeBaseInit
 1628              	.LVL120:
 1629              		.loc 1 260 0
 1630 0142 EB6A     		ldr	r3, [r5, #44]
 1631              		.loc 1 257 0
 1632 0144 994A     		ldr	r2, .L149+92
 1633 0146 1092     		str	r2, [sp, #64]
 1634              		.loc 1 260 0
 1635 0148 5B08     		lsrs	r3, r3, #1
 1636              		.loc 1 266 0
 1637 014a 2846     		mov	r0, r5
 1638              		.loc 1 258 0
 1639 014c 4FF00409 		mov	r9, #4
 1640              		.loc 1 261 0
 1641 0150 CDE91234 		strd	r3, r4, [sp, #72]
 1642              		.loc 1 266 0
 1643 0154 10A9     		add	r1, sp, #64
 1644              		.loc 1 262 0
 1645 0156 964B     		ldr	r3, .L149+96
 1646 0158 1493     		str	r3, [sp, #80]
 1647              		.loc 1 258 0
 1648 015a ADF84490 		strh	r9, [sp, #68]	@ movhi
 1649              		.loc 1 266 0
 1650 015e FFF7FEFF 		bl	TIM_OC1Init
 1651              	.LVL121:
 1652              		.loc 1 267 0
 1653 0162 2846     		mov	r0, r5
ARM GAS  /tmp/ccvafMs5.s 			page 30


 1654 0164 10A9     		add	r1, sp, #64
 1655 0166 FFF7FEFF 		bl	TIM_OC2Init
 1656              	.LVL122:
 1657              		.loc 1 268 0
 1658 016a 2846     		mov	r0, r5
 1659 016c 10A9     		add	r1, sp, #64
 1660 016e FFF7FEFF 		bl	TIM_OC3Init
 1661              	.LVL123:
 1662              		.loc 1 269 0
 1663 0172 2846     		mov	r0, r5
 1664 0174 10A9     		add	r1, sp, #64
 1665 0176 FFF7FEFF 		bl	TIM_OC4Init
 1666              	.LVL124:
 1667              		.loc 1 271 0
 1668 017a 2846     		mov	r0, r5
 1669 017c 0821     		movs	r1, #8
 1670 017e FFF7FEFF 		bl	TIM_OC1PreloadConfig
 1671              	.LVL125:
 1672              		.loc 1 272 0
 1673 0182 2846     		mov	r0, r5
 1674 0184 0821     		movs	r1, #8
 1675 0186 FFF7FEFF 		bl	TIM_OC2PreloadConfig
 1676              	.LVL126:
 1677              		.loc 1 273 0
 1678 018a 2846     		mov	r0, r5
 1679 018c 0821     		movs	r1, #8
 1680 018e FFF7FEFF 		bl	TIM_OC3PreloadConfig
 1681              	.LVL127:
 1682              		.loc 1 274 0
 1683 0192 2846     		mov	r0, r5
 1684 0194 0821     		movs	r1, #8
 1685 0196 FFF7FEFF 		bl	TIM_OC4PreloadConfig
 1686              	.LVL128:
 1687              		.loc 1 277 0
 1688 019a 864A     		ldr	r2, .L149+100
 1689              		.loc 1 282 0
 1690 019c ADF82C40 		strh	r4, [sp, #44]	@ movhi
 1691              		.loc 1 278 0
 1692 01a0 4FF47013 		mov	r3, #3932160
 1693              		.loc 1 285 0
 1694 01a4 2846     		mov	r0, r5
 1695              		.loc 1 280 0
 1696 01a6 4FF0005A 		mov	r10, #536870912
 1697              		.loc 1 285 0
 1698 01aa 08A9     		add	r1, sp, #32
 1699              		.loc 1 278 0
 1700 01ac CDE90823 		strd	r2, r3, [sp, #32]
 1701              		.loc 1 280 0
 1702 01b0 CDF828A0 		str	r10, [sp, #40]
 1703              		.loc 1 285 0
 1704 01b4 FFF7FEFF 		bl	TIM_BDTRConfig
 1705              	.LVL129:
 1706              		.loc 1 286 0
 1707 01b8 2846     		mov	r0, r5
 1708 01ba 0121     		movs	r1, #1
 1709 01bc FFF7FEFF 		bl	TIM_CCPreloadControl
 1710              	.LVL130:
ARM GAS  /tmp/ccvafMs5.s 			page 31


 1711              		.loc 1 287 0
 1712 01c0 2846     		mov	r0, r5
 1713 01c2 0121     		movs	r1, #1
 1714 01c4 FFF7FEFF 		bl	TIM_ARRPreloadConfig
 1715              	.LVL131:
 1716              		.loc 1 297 0
 1717 01c8 0121     		movs	r1, #1
 1718 01ca 7B48     		ldr	r0, .L149+104
 1719 01cc FFF7FEFF 		bl	RCC_AHB1PeriphClockCmd
 1720              	.LVL132:
 1721              		.loc 1 298 0
 1722 01d0 0121     		movs	r1, #1
 1723 01d2 4FF4E060 		mov	r0, #1792
 1724 01d6 FFF7FEFF 		bl	RCC_APB2PeriphClockCmd
 1725              	.LVL133:
 1726              		.loc 1 300 0
 1727 01da 2346     		mov	r3, r4
 1728 01dc 774A     		ldr	r2, .L149+108
 1729 01de 7848     		ldr	r0, .L149+112
 1730 01e0 0321     		movs	r1, #3
 1731 01e2 FFF7FEFF 		bl	dmaStreamAllocate
 1732              	.LVL134:
 1733              		.loc 1 307 0
 1734 01e6 774A     		ldr	r2, .L149+116
 1735              		.loc 1 308 0
 1736 01e8 7749     		ldr	r1, .L149+120
 1737              		.loc 1 307 0
 1738 01ea 1D92     		str	r2, [sp, #116]
 1739              		.loc 1 310 0
 1740 01ec 4FF00C0C 		mov	ip, #12
 1741              		.loc 1 313 0
 1742 01f0 4FF40062 		mov	r2, #2048
 1743              		.loc 1 308 0
 1744 01f4 1C91     		str	r1, [sp, #112]
 1745              		.loc 1 314 0
 1746 01f6 4FF40051 		mov	r1, #8192
 1747              		.loc 1 312 0
 1748 01fa 4FF48063 		mov	r3, #1024
 1749              		.loc 1 321 0
 1750 01fe 7348     		ldr	r0, .L149+124
 1751              		.loc 1 310 0
 1752 0200 CDF87CC0 		str	ip, [sp, #124]
 1753              		.loc 1 313 0
 1754 0204 2292     		str	r2, [sp, #136]
 1755              		.loc 1 315 0
 1756 0206 4FF4807C 		mov	ip, #256
 1757              		.loc 1 316 0
 1758 020a 4FF40032 		mov	r2, #131072
 1759              		.loc 1 314 0
 1760 020e 2391     		str	r1, [sp, #140]
 1761              		.loc 1 321 0
 1762 0210 1BA9     		add	r1, sp, #108
 1763              		.loc 1 316 0
 1764 0212 CDE924C2 		strd	ip, r2, [sp, #144]
 1765              		.loc 1 312 0
 1766 0216 2193     		str	r3, [sp, #132]
 1767 0218 0393     		str	r3, [sp, #12]
ARM GAS  /tmp/ccvafMs5.s 			page 32


 1768              		.loc 1 306 0
 1769 021a 1B94     		str	r4, [sp, #108]
 1770              		.loc 1 309 0
 1771 021c 1E94     		str	r4, [sp, #120]
 1772              		.loc 1 311 0
 1773 021e 2094     		str	r4, [sp, #128]
 1774              		.loc 1 318 0
 1775 0220 CDE92644 		strd	r4, r4, [sp, #152]
 1776              		.loc 1 320 0
 1777 0224 CDE92844 		strd	r4, r4, [sp, #160]
 1778              		.loc 1 321 0
 1779 0228 FFF7FEFF 		bl	DMA_Init
 1780              	.LVL135:
 1781              		.loc 1 324 0
 1782 022c 0121     		movs	r1, #1
 1783 022e 6748     		ldr	r0, .L149+124
 1784 0230 FFF7FEFF 		bl	DMA_Cmd
 1785              	.LVL136:
 1786              		.loc 1 327 0
 1787 0234 0122     		movs	r2, #1
 1788 0236 1021     		movs	r1, #16
 1789 0238 6448     		ldr	r0, .L149+124
 1790 023a FFF7FEFF 		bl	DMA_ITConfig
 1791              	.LVL137:
 1792              		.loc 1 332 0
 1793 023e 1621     		movs	r1, #22
 1794              		.loc 1 334 0
 1795 0240 4FF48042 		mov	r2, #16384
 1796              		.loc 1 336 0
 1797 0244 0CA8     		add	r0, sp, #48
 1798              		.loc 1 340 0
 1799 0246 4FF00108 		mov	r8, #1
 1800              		.loc 1 333 0
 1801 024a 0D94     		str	r4, [sp, #52]
 1802              		.loc 1 335 0
 1803 024c 0F94     		str	r4, [sp, #60]
 1804              		.loc 1 332 0
 1805 024e 0C91     		str	r1, [sp, #48]
 1806              		.loc 1 334 0
 1807 0250 0E92     		str	r2, [sp, #56]
 1808              		.loc 1 336 0
 1809 0252 FFF7FEFF 		bl	ADC_CommonInit
 1810              	.LVL138:
 1811              		.loc 1 343 0
 1812 0256 4FF05062 		mov	r2, #218103808
 1813              		.loc 1 347 0
 1814 025a 15A9     		add	r1, sp, #84
 1815 025c 5C48     		ldr	r0, .L149+128
 1816              		.loc 1 343 0
 1817 025e 1892     		str	r2, [sp, #96]
 1818              		.loc 1 339 0
 1819 0260 1594     		str	r4, [sp, #84]
 1820              		.loc 1 341 0
 1821 0262 8DF85940 		strb	r4, [sp, #89]
 1822              		.loc 1 344 0
 1823 0266 1994     		str	r4, [sp, #100]
 1824              		.loc 1 342 0
ARM GAS  /tmp/ccvafMs5.s 			page 33


 1825 0268 CDF85CA0 		str	r10, [sp, #92]
 1826              		.loc 1 345 0
 1827 026c 8DF86890 		strb	r9, [sp, #104]
 1828              		.loc 1 340 0
 1829 0270 8DF85880 		strb	r8, [sp, #88]
 1830              		.loc 1 347 0
 1831 0274 FFF7FEFF 		bl	ADC_Init
 1832              	.LVL139:
 1833              		.loc 1 350 0
 1834 0278 15A9     		add	r1, sp, #84
 1835 027a 5648     		ldr	r0, .L149+132
 1836              		.loc 1 349 0
 1837 027c CDE91744 		strd	r4, r4, [sp, #92]
 1838              		.loc 1 350 0
 1839 0280 FFF7FEFF 		bl	ADC_Init
 1840              	.LVL140:
 1841              		.loc 1 351 0
 1842 0284 15A9     		add	r1, sp, #84
 1843 0286 5448     		ldr	r0, .L149+136
 1844 0288 FFF7FEFF 		bl	ADC_Init
 1845              	.LVL141:
 1846              		.loc 1 354 0
 1847 028c 4046     		mov	r0, r8
 1848 028e FFF7FEFF 		bl	ADC_TempSensorVrefintCmd
 1849              	.LVL142:
 1850              		.loc 1 357 0
 1851 0292 4046     		mov	r0, r8
 1852 0294 FFF7FEFF 		bl	ADC_MultiModeDMARequestAfterLastTransferCmd
 1853              	.LVL143:
 1854              		.loc 1 359 0
 1855 0298 FFF7FEFF 		bl	hw_setup_adc_channels
 1856              	.LVL144:
 1857              		.loc 1 362 0
 1858 029c 4146     		mov	r1, r8
 1859 029e 4C48     		ldr	r0, .L149+128
 1860 02a0 FFF7FEFF 		bl	ADC_Cmd
 1861              	.LVL145:
 1862              		.loc 1 365 0
 1863 02a4 4146     		mov	r1, r8
 1864 02a6 4B48     		ldr	r0, .L149+132
 1865 02a8 FFF7FEFF 		bl	ADC_Cmd
 1866              	.LVL146:
 1867              		.loc 1 368 0
 1868 02ac 4146     		mov	r1, r8
 1869 02ae 4A48     		ldr	r0, .L149+136
 1870 02b0 FFF7FEFF 		bl	ADC_Cmd
 1871              	.LVL147:
 1872              		.loc 1 372 0
 1873 02b4 4146     		mov	r1, r8
 1874 02b6 0220     		movs	r0, #2
 1875 02b8 FFF7FEFF 		bl	RCC_APB2PeriphClockCmd
 1876              	.LVL148:
 1877              		.loc 1 375 0
 1878 02bc 4FF6FF72 		movw	r2, #65535
 1879              		.loc 1 379 0
 1880 02c0 05A9     		add	r1, sp, #20
 1881 02c2 3046     		mov	r0, r6
ARM GAS  /tmp/ccvafMs5.s 			page 34


 1882              		.loc 1 374 0
 1883 02c4 0594     		str	r4, [sp, #20]
 1884              		.loc 1 376 0
 1885 02c6 ADF81C40 		strh	r4, [sp, #28]	@ movhi
 1886              		.loc 1 377 0
 1887 02ca 8DF81E40 		strb	r4, [sp, #30]
 1888              		.loc 1 375 0
 1889 02ce 0692     		str	r2, [sp, #24]
 1890              		.loc 1 379 0
 1891 02d0 FFF7FEFF 		bl	TIM_TimeBaseInit
 1892              	.LVL149:
 1893              		.loc 1 381 0
 1894 02d4 354B     		ldr	r3, .L149+92
 1895 02d6 1093     		str	r3, [sp, #64]
 1896              		.loc 1 383 0
 1897 02d8 4FF4FA72 		mov	r2, #500
 1898              		.loc 1 385 0
 1899 02dc 344B     		ldr	r3, .L149+96
 1900 02de 1493     		str	r3, [sp, #80]
 1901              		.loc 1 388 0
 1902 02e0 10A9     		add	r1, sp, #64
 1903 02e2 3046     		mov	r0, r6
 1904              		.loc 1 383 0
 1905 02e4 1292     		str	r2, [sp, #72]
 1906 02e6 1394     		str	r4, [sp, #76]
 1907              		.loc 1 388 0
 1908 02e8 FFF7FEFF 		bl	TIM_OC1Init
 1909              	.LVL150:
 1910              		.loc 1 389 0
 1911 02ec 3046     		mov	r0, r6
 1912 02ee 0821     		movs	r1, #8
 1913 02f0 FFF7FEFF 		bl	TIM_OC1PreloadConfig
 1914              	.LVL151:
 1915              		.loc 1 390 0
 1916 02f4 10A9     		add	r1, sp, #64
 1917 02f6 3046     		mov	r0, r6
 1918 02f8 FFF7FEFF 		bl	TIM_OC2Init
 1919              	.LVL152:
 1920              		.loc 1 391 0
 1921 02fc 3046     		mov	r0, r6
 1922 02fe 0821     		movs	r1, #8
 1923 0300 FFF7FEFF 		bl	TIM_OC2PreloadConfig
 1924              	.LVL153:
 1925              		.loc 1 392 0
 1926 0304 10A9     		add	r1, sp, #64
 1927 0306 3046     		mov	r0, r6
 1928 0308 FFF7FEFF 		bl	TIM_OC3Init
 1929              	.LVL154:
 1930              		.loc 1 393 0
 1931 030c 3046     		mov	r0, r6
 1932 030e 0821     		movs	r1, #8
 1933 0310 FFF7FEFF 		bl	TIM_OC3PreloadConfig
 1934              	.LVL155:
 1935              		.loc 1 395 0
 1936 0314 4146     		mov	r1, r8
 1937 0316 3046     		mov	r0, r6
 1938 0318 FFF7FEFF 		bl	TIM_ARRPreloadConfig
ARM GAS  /tmp/ccvafMs5.s 			page 35


 1939              	.LVL156:
 1940              		.loc 1 396 0
 1941 031c 4146     		mov	r1, r8
 1942 031e 3046     		mov	r0, r6
 1943 0320 FFF7FEFF 		bl	TIM_CCPreloadControl
 1944              	.LVL157:
 1945              		.loc 1 399 0
 1946 0324 4146     		mov	r1, r8
 1947 0326 3046     		mov	r0, r6
 1948 0328 FFF7FEFF 		bl	TIM_CtrlPWMOutputs
 1949              	.LVL158:
 1950              		.loc 1 402 0
 1951 032c 2846     		mov	r0, r5
 1952 032e 2021     		movs	r1, #32
 1953 0330 FFF7FEFF 		bl	TIM_SelectOutputTrigger
 1954              	.LVL159:
 1955              		.loc 1 403 0
 1956 0334 2846     		mov	r0, r5
 1957 0336 8021     		movs	r1, #128
 1958 0338 FFF7FEFF 		bl	TIM_SelectMasterSlaveMode
 1959              	.LVL160:
 1960              		.loc 1 404 0
 1961 033c 2146     		mov	r1, r4
 1962 033e 3046     		mov	r0, r6
 1963 0340 FFF7FEFF 		bl	TIM_SelectInputTrigger
 1964              	.LVL161:
 1965              		.loc 1 405 0
 1966 0344 4946     		mov	r1, r9
 1967 0346 3046     		mov	r0, r6
 1968 0348 FFF7FEFF 		bl	TIM_SelectSlaveMode
 1969              	.LVL162:
 1970 034c 62E0     		b	.L150
 1971              	.L151:
 1972 034e 00BF     		.align	2
 1973              	.L149:
 1974 0350 00000000 		.word	.LANCHOR24
 1975 0354 00000000 		.word	.LANCHOR27
 1976 0358 00000000 		.word	0
 1977 035c 00000000 		.word	.LANCHOR31
 1978 0360 00000000 		.word	.LANCHOR32
 1979 0364 00000000 		.word	.LANCHOR23
 1980 0368 00000000 		.word	.LANCHOR26
 1981 036c 00000000 		.word	.LANCHOR28
 1982 0370 00000000 		.word	.LANCHOR30
 1983 0374 00000000 		.word	.LANCHOR21
 1984 0378 00000000 		.word	.LANCHOR16
 1985 037c 00000000 		.word	.LANCHOR8
 1986 0380 00000000 		.word	.LANCHOR6
 1987 0384 00000000 		.word	.LANCHOR37
 1988 0388 00000000 		.word	.LANCHOR38
 1989 038c 00000000 		.word	.LANCHOR12
 1990 0390 00000000 		.word	.LANCHOR39
 1991 0394 00000000 		.word	.LANCHOR18
 1992 0398 00000000 		.word	.LANCHOR10
 1993 039c 00000140 		.word	1073807360
 1994 03a0 00000000 		.word	.LANCHOR17
 1995 03a4 00040140 		.word	1073808384
ARM GAS  /tmp/ccvafMs5.s 			page 36


 1996 03a8 007A030A 		.word	168000000
 1997 03ac 60000100 		.word	65632
 1998 03b0 00010002 		.word	33554688
 1999 03b4 00080004 		.word	67110912
 2000 03b8 05004000 		.word	4194309
 2001 03bc 00000000 		.word	mcpwm_foc_adc_int_handler
 2002 03c0 90000000 		.word	_stm32_dma_streams+144
 2003 03c4 00000000 		.word	ADC_Value
 2004 03c8 08230140 		.word	1073816328
 2005 03cc 70640240 		.word	1073898608
 2006 03d0 00200140 		.word	1073815552
 2007 03d4 00210140 		.word	1073815808
 2008 03d8 00220140 		.word	1073816064
 2009 03dc 00000000 		.word	.LANCHOR7
 2010 03e0 00000000 		.word	.LANCHOR14
 2011 03e4 00000000 		.word	.LANCHOR25
 2012 03e8 00000000 		.word	.LANCHOR0
 2013 03ec 00000000 		.word	.LANCHOR29
 2014 03f0 00000000 		.word	.LANCHOR33
 2015 03f4 00000000 		.word	.LANCHOR2
 2016 03f8 00000000 		.word	.LANCHOR34
 2017 03fc 00000000 		.word	.LANCHOR35
 2018 0400 00000000 		.word	.LANCHOR11
 2019 0404 00000000 		.word	.LANCHOR36
 2020 0408 00000000 		.word	.LANCHOR40
 2021 040c 00000000 		.word	.LANCHOR41
 2022 0410 00000000 		.word	.LANCHOR42
 2023              	.L150:
 2024              		.loc 1 408 0
 2025 0414 2846     		mov	r0, r5
 2026 0416 4146     		mov	r1, r8
 2027 0418 FFF7FEFF 		bl	TIM_Cmd
 2028              	.LVL163:
 2029              		.loc 1 409 0
 2030 041c 4146     		mov	r1, r8
 2031 041e 3046     		mov	r0, r6
 2032 0420 FFF7FEFF 		bl	TIM_Cmd
 2033              	.LVL164:
 2034              		.loc 1 412 0
 2035 0424 2846     		mov	r0, r5
 2036 0426 4146     		mov	r1, r8
 2037 0428 FFF7FEFF 		bl	TIM_CtrlPWMOutputs
 2038              	.LVL165:
 2039              		.loc 1 415 0
 2040 042c FFF7FEFF 		bl	stop_pwm_hw
 2041              	.LVL166:
 2042              		.loc 1 419 0
 2043 0430 0221     		movs	r1, #2
 2044              		.loc 1 422 0
 2045 0432 4246     		mov	r2, r8
 2046              		.loc 1 419 0
 2047 0434 7163     		str	r1, [r6, #52]
 2048              		.loc 1 422 0
 2049 0436 3046     		mov	r0, r6
 2050 0438 FFF7FEFF 		bl	TIM_ITConfig
 2051              	.LVL167:
 2052              		.loc 1 428 0
ARM GAS  /tmp/ccvafMs5.s 			page 37


 2053 043c 05F58435 		add	r5, r5, #67584
 2054              		.loc 1 423 0
 2055 0440 0621     		movs	r1, #6
 2056 0442 2E20     		movs	r0, #46
 2057 0444 FFF7FEFF 		bl	nvicEnableVector
 2058              	.LVL168:
 2059              		.loc 1 425 0
 2060 0448 FFF7FEFF 		bl	utils_sys_unlock_cnt
 2061              	.LVL169:
 2062              		.loc 1 428 0
 2063 044c 039B     		ldr	r3, [sp, #12]
 2064              		.loc 1 429 0
 2065 044e 334A     		ldr	r2, .L152
 2066              		.loc 1 428 0
 2067 0450 2B83     		strh	r3, [r5, #24]	@ movhi
 2068              		.loc 1 429 0
 2069 0452 4FF48053 		mov	r3, #4096
 2070 0456 5383     		strh	r3, [r2, #26]	@ movhi
 2071              	.LBB56:
 2072              	.LBB57:
 2073              		.loc 1 2046 0
 2074 0458 41F28934 		movw	r4, #5001
 2075 045c 1383     		strh	r3, [r2, #24]	@ movhi
 2076              	.LVL170:
 2077 045e 03E0     		b	.L142
 2078              	.LVL171:
 2079              	.L144:
 2080              		.loc 1 2051 0
 2081 0460 FFF7FEFF 		bl	chThdSleep
 2082              	.LVL172:
 2083              		.loc 1 2053 0
 2084 0464 013C     		subs	r4, r4, #1
 2085              	.LVL173:
 2086 0466 04D0     		beq	.L145
 2087              	.LVL174:
 2088              	.L142:
 2089              		.loc 1 2050 0
 2090 0468 2B69     		ldr	r3, [r5, #16]
 2091 046a DB04     		lsls	r3, r3, #19
 2092              		.loc 1 2051 0
 2093 046c 4FF00A00 		mov	r0, #10
 2094              		.loc 1 2050 0
 2095 0470 F6D5     		bpl	.L144
 2096              	.LVL175:
 2097              	.L145:
 2098              		.loc 1 2058 0
 2099 0472 42F21070 		movw	r0, #10000
 2100 0476 FFF7FEFF 		bl	chThdSleep
 2101              	.LVL176:
 2102              		.loc 1 2060 0
 2103 047a 294A     		ldr	r2, .L152+4
 2104              		.loc 1 2059 0
 2105 047c 0023     		movs	r3, #0
 2106 047e CBF80030 		str	r3, [fp]
 2107              		.loc 1 2060 0
 2108 0482 1360     		str	r3, [r2]
 2109              		.loc 1 2064 0
ARM GAS  /tmp/ccvafMs5.s 			page 38


 2110 0484 3B60     		str	r3, [r7]
 2111              	.L143:
 2112              		.loc 1 2065 0
 2113 0486 3B68     		ldr	r3, [r7]
 2114 0488 B3F57A6F 		cmp	r3, #4000
 2115 048c FBDB     		blt	.L143
 2116              		.loc 1 2066 0
 2117 048e 254A     		ldr	r2, .L152+8
 2118 0490 DBF80030 		ldr	r3, [fp]
 2119 0494 3968     		ldr	r1, [r7]
 2120 0496 93FBF1F3 		sdiv	r3, r3, r1
 2121              		.loc 1 2067 0
 2122 049a 2349     		ldr	r1, .L152+12
 2123              		.loc 1 2066 0
 2124 049c 1360     		str	r3, [r2]
 2125              		.loc 1 2067 0
 2126 049e 204B     		ldr	r3, .L152+4
 2127              		.loc 1 2071 0
 2128 04a0 1E4A     		ldr	r2, .L152
 2129              		.loc 1 2067 0
 2130 04a2 1B68     		ldr	r3, [r3]
 2131 04a4 3868     		ldr	r0, [r7]
 2132 04a6 93FBF0F3 		sdiv	r3, r3, r0
 2133              		.loc 1 2072 0
 2134 04aa 0124     		movs	r4, #1
 2135              		.loc 1 2067 0
 2136 04ac 0B60     		str	r3, [r1]
 2137              		.loc 1 2071 0
 2138 04ae 4FF48050 		mov	r0, #4096
 2139              		.loc 1 2072 0
 2140 04b2 1E4B     		ldr	r3, .L152+16
 2141              		.loc 1 2071 0
 2142 04b4 5083     		strh	r0, [r2, #26]	@ movhi
 2143              	.LBE57:
 2144              	.LBE56:
 2145              		.loc 1 433 0
 2146 04b6 2146     		mov	r1, r4
 2147 04b8 4020     		movs	r0, #64
 2148              		.loc 1 436 0
 2149 04ba 0025     		movs	r5, #0
 2150              	.LBB59:
 2151              	.LBB58:
 2152              		.loc 1 2072 0
 2153 04bc 1C70     		strb	r4, [r3]
 2154              	.LBE58:
 2155              	.LBE59:
 2156              		.loc 1 433 0
 2157 04be FFF7FEFF 		bl	RCC_APB1PeriphClockCmd
 2158              	.LVL177:
 2159              		.loc 1 437 0
 2160 04c2 0722     		movs	r2, #7
 2161              		.loc 1 439 0
 2162 04c4 4FF0FF33 		mov	r3, #-1
 2163              		.loc 1 440 0
 2164 04c8 05A9     		add	r1, sp, #20
 2165 04ca 1948     		ldr	r0, .L152+20
 2166              		.loc 1 436 0
ARM GAS  /tmp/ccvafMs5.s 			page 39


 2167 04cc ADF81C50 		strh	r5, [sp, #28]	@ movhi
 2168              		.loc 1 439 0
 2169 04d0 CDE90523 		strd	r2, r3, [sp, #20]
 2170              		.loc 1 440 0
 2171 04d4 FFF7FEFF 		bl	TIM_TimeBaseInit
 2172              	.LVL178:
 2173              		.loc 1 442 0
 2174 04d8 2146     		mov	r1, r4
 2175 04da 1548     		ldr	r0, .L152+20
 2176 04dc FFF7FEFF 		bl	TIM_Cmd
 2177              	.LVL179:
 2178              		.loc 1 445 0
 2179 04e0 144A     		ldr	r2, .L152+24
 2180              		.loc 1 446 0
 2181 04e2 154B     		ldr	r3, .L152+28
 2182 04e4 0095     		str	r5, [sp]
 2183 04e6 40F69811 		movw	r1, #2456
 2184              		.loc 1 445 0
 2185 04ea 1570     		strb	r5, [r2]
 2186              		.loc 1 446 0
 2187 04ec 1348     		ldr	r0, .L152+32
 2188 04ee 4022     		movs	r2, #64
 2189 04f0 FFF7FEFF 		bl	chThdCreateStatic
 2190              	.LVL180:
 2191              		.loc 1 449 0
 2192 04f4 2146     		mov	r1, r4
 2193 04f6 4FF40060 		mov	r0, #2048
 2194 04fa FFF7FEFF 		bl	RCC_APB1PeriphClockCmd
 2195              	.LVL181:
 2196              		.loc 1 450 0
 2197 04fe 2846     		mov	r0, r5
 2198 0500 FFF7FEFF 		bl	WWDG_SetPrescaler
 2199              	.LVL182:
 2200              		.loc 1 451 0
 2201 0504 FF20     		movs	r0, #255
 2202 0506 FFF7FEFF 		bl	WWDG_SetWindowValue
 2203              	.LVL183:
 2204              		.loc 1 452 0
 2205 050a 6420     		movs	r0, #100
 2206 050c FFF7FEFF 		bl	WWDG_Enable
 2207              	.LVL184:
 2208              		.loc 1 454 0
 2209 0510 0B4B     		ldr	r3, .L152+36
 2210 0512 1C70     		strb	r4, [r3]
 2211              		.loc 1 455 0
 2212 0514 2BB0     		add	sp, sp, #172
 2213              		.cfi_def_cfa_offset 36
 2214              		@ sp needed
 2215 0516 BDE8F08F 		pop	{r4, r5, r6, r7, r8, r9, r10, fp, pc}
 2216              	.L153:
 2217 051a 00BF     		.align	2
 2218              	.L152:
 2219 051c 00040240 		.word	1073873920
 2220 0520 00000000 		.word	.LANCHOR26
 2221 0524 00000000 		.word	.LANCHOR43
 2222 0528 00000000 		.word	.LANCHOR44
 2223 052c 00000000 		.word	.LANCHOR28
ARM GAS  /tmp/ccvafMs5.s 			page 40


 2224 0530 00180040 		.word	1073747968
 2225 0534 00000000 		.word	.LANCHOR9
 2226 0538 00000000 		.word	timer_thread
 2227 053c 00000000 		.word	.LANCHOR45
 2228 0540 00000000 		.word	.LANCHOR24
 2229              		.cfi_endproc
 2230              	.LFE256:
 2231              		.size	mcpwm_foc_init, .-mcpwm_foc_init
 2232              		.section	.text.mcpwm_foc_deinit,"ax",%progbits
 2233              		.align	1
 2234              		.p2align 4,,15
 2235              		.global	mcpwm_foc_deinit
 2236              		.syntax unified
 2237              		.thumb
 2238              		.thumb_func
 2239              		.fpu fpv4-sp-d16
 2240              		.type	mcpwm_foc_deinit, %function
 2241              	mcpwm_foc_deinit:
 2242              	.LFB257:
 2243              		.loc 1 457 0
 2244              		.cfi_startproc
 2245              		@ args = 0, pretend = 0, frame = 0
 2246              		@ frame_needed = 0, uses_anonymous_args = 0
 2247              		.loc 1 458 0
 2248 0000 134B     		ldr	r3, .L162
 2249              		.loc 1 457 0
 2250 0002 10B5     		push	{r4, lr}
 2251              		.cfi_def_cfa_offset 8
 2252              		.cfi_offset 4, -8
 2253              		.cfi_offset 14, -4
 2254              		.loc 1 458 0
 2255 0004 0022     		movs	r2, #0
 2256              		.loc 1 462 0
 2257 0006 134C     		ldr	r4, .L162+4
 2258              		.loc 1 458 0
 2259 0008 1A70     		strb	r2, [r3]
 2260              		.loc 1 460 0
 2261 000a FFF7FEFF 		bl	WWDG_DeInit
 2262              	.LVL185:
 2263              		.loc 1 462 0
 2264 000e 0123     		movs	r3, #1
 2265 0010 2370     		strb	r3, [r4]
 2266              		.loc 1 464 0
 2267 0012 2378     		ldrb	r3, [r4]	@ zero_extendqisi2
 2268 0014 2BB1     		cbz	r3, .L155
 2269              	.L156:
 2270              		.loc 1 465 0
 2271 0016 0A20     		movs	r0, #10
 2272 0018 FFF7FEFF 		bl	chThdSleep
 2273              	.LVL186:
 2274              		.loc 1 464 0
 2275 001c 2378     		ldrb	r3, [r4]	@ zero_extendqisi2
 2276 001e 002B     		cmp	r3, #0
 2277 0020 F9D1     		bne	.L156
 2278              	.L155:
 2279              		.loc 1 468 0
 2280 0022 0D48     		ldr	r0, .L162+8
ARM GAS  /tmp/ccvafMs5.s 			page 41


 2281 0024 FFF7FEFF 		bl	TIM_DeInit
 2282              	.LVL187:
 2283              		.loc 1 469 0
 2284 0028 0C48     		ldr	r0, .L162+12
 2285 002a FFF7FEFF 		bl	TIM_DeInit
 2286              	.LVL188:
 2287              		.loc 1 470 0
 2288 002e 0C48     		ldr	r0, .L162+16
 2289 0030 FFF7FEFF 		bl	TIM_DeInit
 2290              	.LVL189:
 2291              		.loc 1 471 0
 2292 0034 FFF7FEFF 		bl	ADC_DeInit
 2293              	.LVL190:
 2294              		.loc 1 472 0
 2295 0038 0A48     		ldr	r0, .L162+20
 2296 003a FFF7FEFF 		bl	DMA_DeInit
 2297              	.LVL191:
 2298              		.loc 1 473 0
 2299 003e 1220     		movs	r0, #18
 2300 0040 FFF7FEFF 		bl	nvicDisableVector
 2301              	.LVL192:
 2302              		.loc 1 474 0
 2303 0044 0848     		ldr	r0, .L162+24
 2304              		.loc 1 475 0
 2305 0046 BDE81040 		pop	{r4, lr}
 2306              		.cfi_restore 14
 2307              		.cfi_restore 4
 2308              		.cfi_def_cfa_offset 0
 2309              		.loc 1 474 0
 2310 004a FFF7FEBF 		b	dmaStreamRelease
 2311              	.LVL193:
 2312              	.L163:
 2313 004e 00BF     		.align	2
 2314              	.L162:
 2315 0050 00000000 		.word	.LANCHOR24
 2316 0054 00000000 		.word	.LANCHOR9
 2317 0058 00000140 		.word	1073807360
 2318 005c 00040140 		.word	1073808384
 2319 0060 00180040 		.word	1073747968
 2320 0064 70640240 		.word	1073898608
 2321 0068 90000000 		.word	_stm32_dma_streams+144
 2322              		.cfi_endproc
 2323              	.LFE257:
 2324              		.size	mcpwm_foc_deinit, .-mcpwm_foc_deinit
 2325              		.section	.text.mcpwm_foc_init_done,"ax",%progbits
 2326              		.align	1
 2327              		.p2align 4,,15
 2328              		.global	mcpwm_foc_init_done
 2329              		.syntax unified
 2330              		.thumb
 2331              		.thumb_func
 2332              		.fpu fpv4-sp-d16
 2333              		.type	mcpwm_foc_init_done, %function
 2334              	mcpwm_foc_init_done:
 2335              	.LFB258:
 2336              		.loc 1 477 0
 2337              		.cfi_startproc
ARM GAS  /tmp/ccvafMs5.s 			page 42


 2338              		@ args = 0, pretend = 0, frame = 0
 2339              		@ frame_needed = 0, uses_anonymous_args = 0
 2340              		@ link register save eliminated.
 2341              		.loc 1 478 0
 2342 0000 014B     		ldr	r3, .L165
 2343 0002 1878     		ldrb	r0, [r3]	@ zero_extendqisi2
 2344              		.loc 1 479 0
 2345 0004 7047     		bx	lr
 2346              	.L166:
 2347 0006 00BF     		.align	2
 2348              	.L165:
 2349 0008 00000000 		.word	.LANCHOR24
 2350              		.cfi_endproc
 2351              	.LFE258:
 2352              		.size	mcpwm_foc_init_done, .-mcpwm_foc_init_done
 2353              		.section	.text.mcpwm_foc_set_configuration,"ax",%progbits
 2354              		.align	1
 2355              		.p2align 4,,15
 2356              		.global	mcpwm_foc_set_configuration
 2357              		.syntax unified
 2358              		.thumb
 2359              		.thumb_func
 2360              		.fpu fpv4-sp-d16
 2361              		.type	mcpwm_foc_set_configuration, %function
 2362              	mcpwm_foc_set_configuration:
 2363              	.LFB259:
 2364              		.loc 1 481 0
 2365              		.cfi_startproc
 2366              		@ args = 0, pretend = 0, frame = 0
 2367              		@ frame_needed = 0, uses_anonymous_args = 0
 2368              	.LVL194:
 2369 0000 10B5     		push	{r4, lr}
 2370              		.cfi_def_cfa_offset 8
 2371              		.cfi_offset 4, -8
 2372              		.cfi_offset 14, -4
 2373              		.loc 1 482 0
 2374 0002 144C     		ldr	r4, .L169
 2375              		.loc 1 484 0
 2376 0004 1449     		ldr	r1, .L169+4
 2377              		.loc 1 485 0
 2378 0006 154B     		ldr	r3, .L169+8
 2379              		.loc 1 482 0
 2380 0008 2060     		str	r0, [r4]
 2381              		.loc 1 485 0
 2382 000a 0022     		movs	r2, #0
 2383              		.loc 1 484 0
 2384 000c 0720     		movs	r0, #7
 2385              	.LVL195:
 2386 000e 0870     		strb	r0, [r1]
 2387              		.loc 1 485 0
 2388 0010 1A70     		strb	r2, [r3]
 2389              		.loc 1 486 0
 2390 0012 FFF7FEFF 		bl	stop_pwm_hw
 2391              	.LVL196:
 2392              		.loc 1 487 0
 2393 0016 2368     		ldr	r3, [r4]
 2394              		.loc 1 488 0
ARM GAS  /tmp/ccvafMs5.s 			page 43


 2395 0018 114A     		ldr	r2, .L169+12
 2396              		.loc 1 487 0
 2397 001a D3ED2B7A 		vldr.32	s15, [r3, #172]
 2398              		.loc 1 488 0
 2399 001e 1168     		ldr	r1, [r2]
 2400 0020 104B     		ldr	r3, .L169+16
 2401              		.loc 1 487 0
 2402 0022 1148     		ldr	r0, .L169+20
 2403              		.loc 1 488 0
 2404 0024 41F00201 		orr	r1, r1, #2
 2405 0028 1160     		str	r1, [r2]
 2406 002a 1968     		ldr	r1, [r3]
 2407 002c 0224     		movs	r4, #2
 2408              		.loc 1 487 0
 2409 002e FDEEE77A 		vcvt.s32.f32	s15, s15
 2410              		.loc 1 488 0
 2411 0032 2143     		orrs	r1, r1, r4
 2412 0034 1960     		str	r1, [r3]
 2413              		.loc 1 487 0
 2414 0036 17EE901A 		vmov	r1, s15	@ int
 2415 003a 90FBF1F1 		sdiv	r1, r0, r1
 2416              	.LVL197:
 2417              		.loc 1 488 0
 2418 003e D162     		str	r1, [r2, #44]
 2419 0040 5C63     		str	r4, [r3, #52]
 2420 0042 1168     		ldr	r1, [r2]
 2421              	.LVL198:
 2422 0044 21F00201 		bic	r1, r1, #2
 2423 0048 1160     		str	r1, [r2]
 2424 004a 1A68     		ldr	r2, [r3]
 2425 004c 22F00202 		bic	r2, r2, #2
 2426 0050 1A60     		str	r2, [r3]
 2427              		.loc 1 489 0
 2428 0052 10BD     		pop	{r4, pc}
 2429              	.L170:
 2430              		.align	2
 2431              	.L169:
 2432 0054 00000000 		.word	.LANCHOR0
 2433 0058 00000000 		.word	.LANCHOR14
 2434 005c 00000000 		.word	.LANCHOR7
 2435 0060 00000140 		.word	1073807360
 2436 0064 00040140 		.word	1073808384
 2437 0068 007A030A 		.word	168000000
 2438              		.cfi_endproc
 2439              	.LFE259:
 2440              		.size	mcpwm_foc_set_configuration, .-mcpwm_foc_set_configuration
 2441              		.section	.text.mcpwm_foc_get_state,"ax",%progbits
 2442              		.align	1
 2443              		.p2align 4,,15
 2444              		.global	mcpwm_foc_get_state
 2445              		.syntax unified
 2446              		.thumb
 2447              		.thumb_func
 2448              		.fpu fpv4-sp-d16
 2449              		.type	mcpwm_foc_get_state, %function
 2450              	mcpwm_foc_get_state:
 2451              	.LFB260:
ARM GAS  /tmp/ccvafMs5.s 			page 44


 2452              		.loc 1 491 0
 2453              		.cfi_startproc
 2454              		@ args = 0, pretend = 0, frame = 0
 2455              		@ frame_needed = 0, uses_anonymous_args = 0
 2456              		@ link register save eliminated.
 2457              		.loc 1 492 0
 2458 0000 014B     		ldr	r3, .L172
 2459 0002 1878     		ldrb	r0, [r3]	@ zero_extendqisi2
 2460              		.loc 1 493 0
 2461 0004 7047     		bx	lr
 2462              	.L173:
 2463 0006 00BF     		.align	2
 2464              	.L172:
 2465 0008 00000000 		.word	.LANCHOR7
 2466              		.cfi_endproc
 2467              	.LFE260:
 2468              		.size	mcpwm_foc_get_state, .-mcpwm_foc_get_state
 2469              		.section	.text.mcpwm_foc_is_dccal_done,"ax",%progbits
 2470              		.align	1
 2471              		.p2align 4,,15
 2472              		.global	mcpwm_foc_is_dccal_done
 2473              		.syntax unified
 2474              		.thumb
 2475              		.thumb_func
 2476              		.fpu fpv4-sp-d16
 2477              		.type	mcpwm_foc_is_dccal_done, %function
 2478              	mcpwm_foc_is_dccal_done:
 2479              	.LFB261:
 2480              		.loc 1 495 0
 2481              		.cfi_startproc
 2482              		@ args = 0, pretend = 0, frame = 0
 2483              		@ frame_needed = 0, uses_anonymous_args = 0
 2484              		@ link register save eliminated.
 2485              		.loc 1 496 0
 2486 0000 014B     		ldr	r3, .L175
 2487 0002 1878     		ldrb	r0, [r3]	@ zero_extendqisi2
 2488              		.loc 1 497 0
 2489 0004 7047     		bx	lr
 2490              	.L176:
 2491 0006 00BF     		.align	2
 2492              	.L175:
 2493 0008 00000000 		.word	.LANCHOR28
 2494              		.cfi_endproc
 2495              	.LFE261:
 2496              		.size	mcpwm_foc_is_dccal_done, .-mcpwm_foc_is_dccal_done
 2497              		.section	.text.mcpwm_foc_set_duty,"ax",%progbits
 2498              		.align	1
 2499              		.p2align 4,,15
 2500              		.global	mcpwm_foc_set_duty
 2501              		.syntax unified
 2502              		.thumb
 2503              		.thumb_func
 2504              		.fpu fpv4-sp-d16
 2505              		.type	mcpwm_foc_set_duty, %function
 2506              	mcpwm_foc_set_duty:
 2507              	.LFB263:
 2508              		.loc 1 513 0
ARM GAS  /tmp/ccvafMs5.s 			page 45


 2509              		.cfi_startproc
 2510              		@ args = 0, pretend = 0, frame = 0
 2511              		@ frame_needed = 0, uses_anonymous_args = 0
 2512              		@ link register save eliminated.
 2513              	.LVL199:
 2514              		.loc 1 515 0
 2515 0000 064A     		ldr	r2, .L182
 2516              		.loc 1 514 0
 2517 0002 0749     		ldr	r1, .L182+4
 2518              		.loc 1 517 0
 2519 0004 074B     		ldr	r3, .L182+8
 2520              		.loc 1 514 0
 2521 0006 0020     		movs	r0, #0
 2522 0008 0870     		strb	r0, [r1]
 2523              		.loc 1 515 0
 2524 000a 82ED000A 		vstr.32	s0, [r2]
 2525              		.loc 1 517 0
 2526 000e 1A78     		ldrb	r2, [r3]	@ zero_extendqisi2
 2527 0010 022A     		cmp	r2, #2
 2528              		.loc 1 518 0
 2529 0012 1CBF     		itt	ne
 2530 0014 0222     		movne	r2, #2
 2531 0016 1A70     		strbne	r2, [r3]
 2532              		.loc 1 520 0
 2533 0018 7047     		bx	lr
 2534              	.L183:
 2535 001a 00BF     		.align	2
 2536              	.L182:
 2537 001c 00000000 		.word	.LANCHOR31
 2538 0020 00000000 		.word	.LANCHOR14
 2539 0024 00000000 		.word	.LANCHOR7
 2540              		.cfi_endproc
 2541              	.LFE263:
 2542              		.size	mcpwm_foc_set_duty, .-mcpwm_foc_set_duty
 2543              		.section	.text.mcpwm_foc_set_duty_noramp,"ax",%progbits
 2544              		.align	1
 2545              		.p2align 4,,15
 2546              		.global	mcpwm_foc_set_duty_noramp
 2547              		.syntax unified
 2548              		.thumb
 2549              		.thumb_func
 2550              		.fpu fpv4-sp-d16
 2551              		.type	mcpwm_foc_set_duty_noramp, %function
 2552              	mcpwm_foc_set_duty_noramp:
 2553              	.LFB264:
 2554              		.loc 1 532 0
 2555              		.cfi_startproc
 2556              		@ args = 0, pretend = 0, frame = 0
 2557              		@ frame_needed = 0, uses_anonymous_args = 0
 2558              		@ link register save eliminated.
 2559              	.LVL200:
 2560              	.LBB60:
 2561              	.LBB61:
 2562              		.loc 1 515 0
 2563 0000 064A     		ldr	r2, .L189
 2564              		.loc 1 514 0
 2565 0002 0749     		ldr	r1, .L189+4
ARM GAS  /tmp/ccvafMs5.s 			page 46


 2566              		.loc 1 517 0
 2567 0004 074B     		ldr	r3, .L189+8
 2568              		.loc 1 514 0
 2569 0006 0020     		movs	r0, #0
 2570 0008 0870     		strb	r0, [r1]
 2571              		.loc 1 515 0
 2572 000a 82ED000A 		vstr.32	s0, [r2]
 2573              		.loc 1 517 0
 2574 000e 1A78     		ldrb	r2, [r3]	@ zero_extendqisi2
 2575 0010 022A     		cmp	r2, #2
 2576              		.loc 1 518 0
 2577 0012 1CBF     		itt	ne
 2578 0014 0222     		movne	r2, #2
 2579 0016 1A70     		strbne	r2, [r3]
 2580              	.LVL201:
 2581              	.LBE61:
 2582              	.LBE60:
 2583              		.loc 1 535 0
 2584 0018 7047     		bx	lr
 2585              	.L190:
 2586 001a 00BF     		.align	2
 2587              	.L189:
 2588 001c 00000000 		.word	.LANCHOR31
 2589 0020 00000000 		.word	.LANCHOR14
 2590 0024 00000000 		.word	.LANCHOR7
 2591              		.cfi_endproc
 2592              	.LFE264:
 2593              		.size	mcpwm_foc_set_duty_noramp, .-mcpwm_foc_set_duty_noramp
 2594              		.section	.text.mcpwm_foc_set_pid_speed,"ax",%progbits
 2595              		.align	1
 2596              		.p2align 4,,15
 2597              		.global	mcpwm_foc_set_pid_speed
 2598              		.syntax unified
 2599              		.thumb
 2600              		.thumb_func
 2601              		.fpu fpv4-sp-d16
 2602              		.type	mcpwm_foc_set_pid_speed, %function
 2603              	mcpwm_foc_set_pid_speed:
 2604              	.LFB265:
 2605              		.loc 1 544 0
 2606              		.cfi_startproc
 2607              		@ args = 0, pretend = 0, frame = 0
 2608              		@ frame_needed = 0, uses_anonymous_args = 0
 2609              		@ link register save eliminated.
 2610              	.LVL202:
 2611              		.loc 1 546 0
 2612 0000 064A     		ldr	r2, .L196
 2613              		.loc 1 545 0
 2614 0002 0749     		ldr	r1, .L196+4
 2615              		.loc 1 548 0
 2616 0004 074B     		ldr	r3, .L196+8
 2617              		.loc 1 545 0
 2618 0006 0120     		movs	r0, #1
 2619 0008 0870     		strb	r0, [r1]
 2620              		.loc 1 546 0
 2621 000a 82ED000A 		vstr.32	s0, [r2]
 2622              		.loc 1 548 0
ARM GAS  /tmp/ccvafMs5.s 			page 47


 2623 000e 1A78     		ldrb	r2, [r3]	@ zero_extendqisi2
 2624 0010 022A     		cmp	r2, #2
 2625              		.loc 1 549 0
 2626 0012 1CBF     		itt	ne
 2627 0014 0222     		movne	r2, #2
 2628 0016 1A70     		strbne	r2, [r3]
 2629              		.loc 1 551 0
 2630 0018 7047     		bx	lr
 2631              	.L197:
 2632 001a 00BF     		.align	2
 2633              	.L196:
 2634 001c 00000000 		.word	.LANCHOR21
 2635 0020 00000000 		.word	.LANCHOR14
 2636 0024 00000000 		.word	.LANCHOR7
 2637              		.cfi_endproc
 2638              	.LFE265:
 2639              		.size	mcpwm_foc_set_pid_speed, .-mcpwm_foc_set_pid_speed
 2640              		.section	.text.mcpwm_foc_set_pid_pos,"ax",%progbits
 2641              		.align	1
 2642              		.p2align 4,,15
 2643              		.global	mcpwm_foc_set_pid_pos
 2644              		.syntax unified
 2645              		.thumb
 2646              		.thumb_func
 2647              		.fpu fpv4-sp-d16
 2648              		.type	mcpwm_foc_set_pid_pos, %function
 2649              	mcpwm_foc_set_pid_pos:
 2650              	.LFB266:
 2651              		.loc 1 560 0
 2652              		.cfi_startproc
 2653              		@ args = 0, pretend = 0, frame = 0
 2654              		@ frame_needed = 0, uses_anonymous_args = 0
 2655              		@ link register save eliminated.
 2656              	.LVL203:
 2657              		.loc 1 562 0
 2658 0000 064A     		ldr	r2, .L203
 2659              		.loc 1 561 0
 2660 0002 0749     		ldr	r1, .L203+4
 2661              		.loc 1 564 0
 2662 0004 074B     		ldr	r3, .L203+8
 2663              		.loc 1 561 0
 2664 0006 0420     		movs	r0, #4
 2665 0008 0870     		strb	r0, [r1]
 2666              		.loc 1 562 0
 2667 000a 82ED000A 		vstr.32	s0, [r2]
 2668              		.loc 1 564 0
 2669 000e 1A78     		ldrb	r2, [r3]	@ zero_extendqisi2
 2670 0010 022A     		cmp	r2, #2
 2671              		.loc 1 565 0
 2672 0012 1CBF     		itt	ne
 2673 0014 0222     		movne	r2, #2
 2674 0016 1A70     		strbne	r2, [r3]
 2675              		.loc 1 567 0
 2676 0018 7047     		bx	lr
 2677              	.L204:
 2678 001a 00BF     		.align	2
 2679              	.L203:
ARM GAS  /tmp/ccvafMs5.s 			page 48


 2680 001c 00000000 		.word	.LANCHOR34
 2681 0020 00000000 		.word	.LANCHOR14
 2682 0024 00000000 		.word	.LANCHOR7
 2683              		.cfi_endproc
 2684              	.LFE266:
 2685              		.size	mcpwm_foc_set_pid_pos, .-mcpwm_foc_set_pid_pos
 2686              		.section	.text.mcpwm_foc_set_current,"ax",%progbits
 2687              		.align	1
 2688              		.p2align 4,,15
 2689              		.global	mcpwm_foc_set_current
 2690              		.syntax unified
 2691              		.thumb
 2692              		.thumb_func
 2693              		.fpu fpv4-sp-d16
 2694              		.type	mcpwm_foc_set_current, %function
 2695              	mcpwm_foc_set_current:
 2696              	.LFB267:
 2697              		.loc 1 577 0
 2698              		.cfi_startproc
 2699              		@ args = 0, pretend = 0, frame = 0
 2700              		@ frame_needed = 0, uses_anonymous_args = 0
 2701              		@ link register save eliminated.
 2702              	.LVL204:
 2703              		.loc 1 578 0
 2704 0000 0F4B     		ldr	r3, .L215
 2705 0002 1B68     		ldr	r3, [r3]
 2706 0004 D3ED537A 		vldr.32	s15, [r3, #332]
 2707 0008 B0EEC07A 		vabs.f32	s14, s0
 2708 000c B4EEE77A 		vcmpe.f32	s14, s15
 2709 0010 F1EE10FA 		vmrs	APSR_nzcv, FPSCR
 2710 0014 0BD4     		bmi	.L214
 2711              		.loc 1 586 0
 2712 0016 0B49     		ldr	r1, .L215+4
 2713              		.loc 1 585 0
 2714 0018 0B48     		ldr	r0, .L215+8
 2715              		.loc 1 588 0
 2716 001a 0C4B     		ldr	r3, .L215+12
 2717              		.loc 1 585 0
 2718 001c 0222     		movs	r2, #2
 2719 001e 0270     		strb	r2, [r0]
 2720              		.loc 1 586 0
 2721 0020 81ED000A 		vstr.32	s0, [r1]
 2722              		.loc 1 588 0
 2723 0024 1978     		ldrb	r1, [r3]	@ zero_extendqisi2
 2724 0026 9142     		cmp	r1, r2
 2725              		.loc 1 589 0
 2726 0028 18BF     		it	ne
 2727 002a 1A70     		strbne	r2, [r3]
 2728              		.loc 1 591 0
 2729 002c 7047     		bx	lr
 2730              	.L214:
 2731              	.LVL205:
 2732              	.LBB64:
 2733              	.LBB65:
 2734              		.loc 1 579 0
 2735 002e 0649     		ldr	r1, .L215+8
 2736              		.loc 1 580 0
ARM GAS  /tmp/ccvafMs5.s 			page 49


 2737 0030 064B     		ldr	r3, .L215+12
 2738              		.loc 1 579 0
 2739 0032 0720     		movs	r0, #7
 2740              		.loc 1 580 0
 2741 0034 0022     		movs	r2, #0
 2742              		.loc 1 579 0
 2743 0036 0870     		strb	r0, [r1]
 2744              		.loc 1 580 0
 2745 0038 1A70     		strb	r2, [r3]
 2746              		.loc 1 581 0
 2747 003a FFF7FEBF 		b	stop_pwm_hw
 2748              	.LVL206:
 2749              	.L216:
 2750 003e 00BF     		.align	2
 2751              	.L215:
 2752 0040 00000000 		.word	.LANCHOR0
 2753 0044 00000000 		.word	.LANCHOR23
 2754 0048 00000000 		.word	.LANCHOR14
 2755 004c 00000000 		.word	.LANCHOR7
 2756              	.LBE65:
 2757              	.LBE64:
 2758              		.cfi_endproc
 2759              	.LFE267:
 2760              		.size	mcpwm_foc_set_current, .-mcpwm_foc_set_current
 2761              		.section	.text.mcpwm_foc_stop_pwm,"ax",%progbits
 2762              		.align	1
 2763              		.p2align 4,,15
 2764              		.global	mcpwm_foc_stop_pwm
 2765              		.syntax unified
 2766              		.thumb
 2767              		.thumb_func
 2768              		.fpu fpv4-sp-d16
 2769              		.type	mcpwm_foc_stop_pwm, %function
 2770              	mcpwm_foc_stop_pwm:
 2771              	.LFB262:
 2772              		.loc 1 502 0
 2773              		.cfi_startproc
 2774              		@ args = 0, pretend = 0, frame = 0
 2775              		@ frame_needed = 0, uses_anonymous_args = 0
 2776              		@ link register save eliminated.
 2777              		.loc 1 503 0
 2778 0000 9FED010A 		vldr.32	s0, .L218
 2779 0004 FFF7FEBF 		b	mcpwm_foc_set_current
 2780              	.LVL207:
 2781              	.L219:
 2782              		.align	2
 2783              	.L218:
 2784 0008 00000000 		.word	0
 2785              		.cfi_endproc
 2786              	.LFE262:
 2787              		.size	mcpwm_foc_stop_pwm, .-mcpwm_foc_stop_pwm
 2788              		.section	.text.mcpwm_foc_set_brake_current,"ax",%progbits
 2789              		.align	1
 2790              		.p2align 4,,15
 2791              		.global	mcpwm_foc_set_brake_current
 2792              		.syntax unified
 2793              		.thumb
ARM GAS  /tmp/ccvafMs5.s 			page 50


 2794              		.thumb_func
 2795              		.fpu fpv4-sp-d16
 2796              		.type	mcpwm_foc_set_brake_current, %function
 2797              	mcpwm_foc_set_brake_current:
 2798              	.LFB268:
 2799              		.loc 1 600 0
 2800              		.cfi_startproc
 2801              		@ args = 0, pretend = 0, frame = 0
 2802              		@ frame_needed = 0, uses_anonymous_args = 0
 2803              		@ link register save eliminated.
 2804              	.LVL208:
 2805              		.loc 1 601 0
 2806 0000 0F4B     		ldr	r3, .L230
 2807              		.loc 1 602 0
 2808 0002 1049     		ldr	r1, .L230+4
 2809              		.loc 1 601 0
 2810 0004 1B68     		ldr	r3, [r3]
 2811 0006 D3ED537A 		vldr.32	s15, [r3, #332]
 2812 000a B0EEC07A 		vabs.f32	s14, s0
 2813 000e B4EEE77A 		vcmpe.f32	s14, s15
 2814 0012 F1EE10FA 		vmrs	APSR_nzcv, FPSCR
 2815 0016 0BD4     		bmi	.L229
 2816              		.loc 1 609 0
 2817 0018 0B4A     		ldr	r2, .L230+8
 2818              		.loc 1 611 0
 2819 001a 0C4B     		ldr	r3, .L230+12
 2820              		.loc 1 608 0
 2821 001c 0320     		movs	r0, #3
 2822 001e 0870     		strb	r0, [r1]
 2823              		.loc 1 609 0
 2824 0020 82ED000A 		vstr.32	s0, [r2]
 2825              		.loc 1 611 0
 2826 0024 1A78     		ldrb	r2, [r3]	@ zero_extendqisi2
 2827 0026 022A     		cmp	r2, #2
 2828              		.loc 1 612 0
 2829 0028 1CBF     		itt	ne
 2830 002a 0222     		movne	r2, #2
 2831 002c 1A70     		strbne	r2, [r3]
 2832              		.loc 1 614 0
 2833 002e 7047     		bx	lr
 2834              	.L229:
 2835              		.loc 1 603 0
 2836 0030 064B     		ldr	r3, .L230+12
 2837              		.loc 1 602 0
 2838 0032 0720     		movs	r0, #7
 2839              		.loc 1 603 0
 2840 0034 0022     		movs	r2, #0
 2841              		.loc 1 602 0
 2842 0036 0870     		strb	r0, [r1]
 2843              		.loc 1 603 0
 2844 0038 1A70     		strb	r2, [r3]
 2845              		.loc 1 604 0
 2846 003a FFF7FEBF 		b	stop_pwm_hw
 2847              	.LVL209:
 2848              	.L231:
 2849 003e 00BF     		.align	2
 2850              	.L230:
ARM GAS  /tmp/ccvafMs5.s 			page 51


 2851 0040 00000000 		.word	.LANCHOR0
 2852 0044 00000000 		.word	.LANCHOR14
 2853 0048 00000000 		.word	.LANCHOR23
 2854 004c 00000000 		.word	.LANCHOR7
 2855              		.cfi_endproc
 2856              	.LFE268:
 2857              		.size	mcpwm_foc_set_brake_current, .-mcpwm_foc_set_brake_current
 2858              		.section	.text.mcpwm_foc_set_handbrake,"ax",%progbits
 2859              		.align	1
 2860              		.p2align 4,,15
 2861              		.global	mcpwm_foc_set_handbrake
 2862              		.syntax unified
 2863              		.thumb
 2864              		.thumb_func
 2865              		.fpu fpv4-sp-d16
 2866              		.type	mcpwm_foc_set_handbrake, %function
 2867              	mcpwm_foc_set_handbrake:
 2868              	.LFB269:
 2869              		.loc 1 623 0
 2870              		.cfi_startproc
 2871              		@ args = 0, pretend = 0, frame = 0
 2872              		@ frame_needed = 0, uses_anonymous_args = 0
 2873              		@ link register save eliminated.
 2874              	.LVL210:
 2875              		.loc 1 624 0
 2876 0000 0F4B     		ldr	r3, .L242
 2877              		.loc 1 625 0
 2878 0002 1049     		ldr	r1, .L242+4
 2879              		.loc 1 624 0
 2880 0004 1B68     		ldr	r3, [r3]
 2881 0006 D3ED537A 		vldr.32	s15, [r3, #332]
 2882 000a B0EEC07A 		vabs.f32	s14, s0
 2883 000e B4EEE77A 		vcmpe.f32	s14, s15
 2884 0012 F1EE10FA 		vmrs	APSR_nzcv, FPSCR
 2885 0016 0BD4     		bmi	.L241
 2886              		.loc 1 632 0
 2887 0018 0B4A     		ldr	r2, .L242+8
 2888              		.loc 1 634 0
 2889 001a 0C4B     		ldr	r3, .L242+12
 2890              		.loc 1 631 0
 2891 001c 0520     		movs	r0, #5
 2892 001e 0870     		strb	r0, [r1]
 2893              		.loc 1 632 0
 2894 0020 82ED000A 		vstr.32	s0, [r2]
 2895              		.loc 1 634 0
 2896 0024 1A78     		ldrb	r2, [r3]	@ zero_extendqisi2
 2897 0026 022A     		cmp	r2, #2
 2898              		.loc 1 635 0
 2899 0028 1CBF     		itt	ne
 2900 002a 0222     		movne	r2, #2
 2901 002c 1A70     		strbne	r2, [r3]
 2902              		.loc 1 637 0
 2903 002e 7047     		bx	lr
 2904              	.L241:
 2905              		.loc 1 626 0
 2906 0030 064B     		ldr	r3, .L242+12
 2907              		.loc 1 625 0
ARM GAS  /tmp/ccvafMs5.s 			page 52


 2908 0032 0720     		movs	r0, #7
 2909              		.loc 1 626 0
 2910 0034 0022     		movs	r2, #0
 2911              		.loc 1 625 0
 2912 0036 0870     		strb	r0, [r1]
 2913              		.loc 1 626 0
 2914 0038 1A70     		strb	r2, [r3]
 2915              		.loc 1 627 0
 2916 003a FFF7FEBF 		b	stop_pwm_hw
 2917              	.LVL211:
 2918              	.L243:
 2919 003e 00BF     		.align	2
 2920              	.L242:
 2921 0040 00000000 		.word	.LANCHOR0
 2922 0044 00000000 		.word	.LANCHOR14
 2923 0048 00000000 		.word	.LANCHOR23
 2924 004c 00000000 		.word	.LANCHOR7
 2925              		.cfi_endproc
 2926              	.LFE269:
 2927              		.size	mcpwm_foc_set_handbrake, .-mcpwm_foc_set_handbrake
 2928              		.section	.text.mcpwm_foc_set_openloop,"ax",%progbits
 2929              		.align	1
 2930              		.p2align 4,,15
 2931              		.global	mcpwm_foc_set_openloop
 2932              		.syntax unified
 2933              		.thumb
 2934              		.thumb_func
 2935              		.fpu fpv4-sp-d16
 2936              		.type	mcpwm_foc_set_openloop, %function
 2937              	mcpwm_foc_set_openloop:
 2938              	.LFB270:
 2939              		.loc 1 648 0
 2940              		.cfi_startproc
 2941              		@ args = 0, pretend = 0, frame = 8
 2942              		@ frame_needed = 0, uses_anonymous_args = 0
 2943              	.LVL212:
 2944 0000 30B5     		push	{r4, r5, lr}
 2945              		.cfi_def_cfa_offset 12
 2946              		.cfi_offset 4, -12
 2947              		.cfi_offset 5, -8
 2948              		.cfi_offset 14, -4
 2949              		.loc 1 649 0
 2950 0002 1F4B     		ldr	r3, .L255
 2951 0004 1B68     		ldr	r3, [r3]
 2952              		.loc 1 648 0
 2953 0006 2DED028B 		vpush.64	{d8}
 2954              		.cfi_def_cfa_offset 20
 2955              		.cfi_offset 80, -20
 2956              		.cfi_offset 81, -16
 2957              		.loc 1 649 0
 2958 000a D3ED537A 		vldr.32	s15, [r3, #332]
 2959 000e B0EEC07A 		vabs.f32	s14, s0
 2960 0012 B4EEE77A 		vcmpe.f32	s14, s15
 2961              		.loc 1 648 0
 2962 0016 83B0     		sub	sp, sp, #12
 2963              		.cfi_def_cfa_offset 32
 2964              		.loc 1 649 0
ARM GAS  /tmp/ccvafMs5.s 			page 53


 2965 0018 F1EE10FA 		vmrs	APSR_nzcv, FPSCR
 2966              		.loc 1 648 0
 2967 001c 8DED010A 		vstr.32	s0, [sp, #4]
 2968              		.loc 1 649 0
 2969 0020 21D4     		bmi	.L254
 2970              		.loc 1 656 0
 2971 0022 93ED010A 		vldr.32	s0, [r3, #4]
 2972              	.LVL213:
 2973              		.loc 1 658 0
 2974 0026 174C     		ldr	r4, .L255+4
 2975 0028 B0EE608A 		vmov.f32	s16, s1
 2976              		.loc 1 656 0
 2977 002c B1EE400A 		vneg.f32	s0, s0
 2978 0030 D3ED010A 		vldr.32	s1, [r3, #4]
 2979              	.LVL214:
 2980 0034 01A8     		add	r0, sp, #4
 2981              	.LVL215:
 2982 0036 FFF7FEFF 		bl	utils_truncate_number
 2983              	.LVL216:
 2984              		.loc 1 660 0
 2985 003a DFED137A 		vldr.32	s15, .L255+8
 2986              		.loc 1 659 0
 2987 003e 1349     		ldr	r1, .L255+12
 2988              		.loc 1 660 0
 2989 0040 134A     		ldr	r2, .L255+16
 2990              		.loc 1 662 0
 2991 0042 144B     		ldr	r3, .L255+20
 2992              		.loc 1 659 0
 2993 0044 0198     		ldr	r0, [sp, #4]	@ float
 2994              		.loc 1 660 0
 2995 0046 28EE278A 		vmul.f32	s16, s16, s15
 2996              	.LVL217:
 2997              		.loc 1 658 0
 2998 004a 0625     		movs	r5, #6
 2999 004c 2570     		strb	r5, [r4]
 3000              		.loc 1 659 0
 3001 004e 0860     		str	r0, [r1]	@ float
 3002              		.loc 1 660 0
 3003 0050 82ED008A 		vstr.32	s16, [r2]
 3004              		.loc 1 662 0
 3005 0054 1A78     		ldrb	r2, [r3]	@ zero_extendqisi2
 3006 0056 022A     		cmp	r2, #2
 3007              		.loc 1 663 0
 3008 0058 1CBF     		itt	ne
 3009 005a 0222     		movne	r2, #2
 3010 005c 1A70     		strbne	r2, [r3]
 3011              		.loc 1 665 0
 3012 005e 03B0     		add	sp, sp, #12
 3013              		.cfi_remember_state
 3014              		.cfi_def_cfa_offset 20
 3015              		@ sp needed
 3016 0060 BDEC028B 		vldm	sp!, {d8}
 3017              		.cfi_restore 80
 3018              		.cfi_restore 81
 3019              		.cfi_def_cfa_offset 12
 3020 0064 30BD     		pop	{r4, r5, pc}
 3021              	.LVL218:
ARM GAS  /tmp/ccvafMs5.s 			page 54


 3022              	.L254:
 3023              		.cfi_restore_state
 3024              		.loc 1 650 0
 3025 0066 0749     		ldr	r1, .L255+4
 3026              		.loc 1 651 0
 3027 0068 0A4B     		ldr	r3, .L255+20
 3028              		.loc 1 650 0
 3029 006a 0720     		movs	r0, #7
 3030              		.loc 1 651 0
 3031 006c 0022     		movs	r2, #0
 3032              		.loc 1 650 0
 3033 006e 0870     		strb	r0, [r1]
 3034              		.loc 1 651 0
 3035 0070 1A70     		strb	r2, [r3]
 3036              		.loc 1 652 0
 3037 0072 FFF7FEFF 		bl	stop_pwm_hw
 3038              	.LVL219:
 3039              		.loc 1 665 0
 3040 0076 03B0     		add	sp, sp, #12
 3041              		.cfi_def_cfa_offset 20
 3042              		@ sp needed
 3043 0078 BDEC028B 		vldm	sp!, {d8}
 3044              		.cfi_restore 80
 3045              		.cfi_restore 81
 3046              		.cfi_def_cfa_offset 12
 3047 007c 30BD     		pop	{r4, r5, pc}
 3048              	.L256:
 3049 007e 00BF     		.align	2
 3050              	.L255:
 3051 0080 00000000 		.word	.LANCHOR0
 3052 0084 00000000 		.word	.LANCHOR14
 3053 0088 5077D63D 		.word	1037465424
 3054 008c 00000000 		.word	.LANCHOR23
 3055 0090 00000000 		.word	.LANCHOR33
 3056 0094 00000000 		.word	.LANCHOR7
 3057              		.cfi_endproc
 3058              	.LFE270:
 3059              		.size	mcpwm_foc_set_openloop, .-mcpwm_foc_set_openloop
 3060              		.section	.text.mcpwm_foc_get_duty_cycle_set,"ax",%progbits
 3061              		.align	1
 3062              		.p2align 4,,15
 3063              		.global	mcpwm_foc_get_duty_cycle_set
 3064              		.syntax unified
 3065              		.thumb
 3066              		.thumb_func
 3067              		.fpu fpv4-sp-d16
 3068              		.type	mcpwm_foc_get_duty_cycle_set, %function
 3069              	mcpwm_foc_get_duty_cycle_set:
 3070              	.LFB271:
 3071              		.loc 1 667 0
 3072              		.cfi_startproc
 3073              		@ args = 0, pretend = 0, frame = 0
 3074              		@ frame_needed = 0, uses_anonymous_args = 0
 3075              		@ link register save eliminated.
 3076              		.loc 1 668 0
 3077 0000 014B     		ldr	r3, .L258
 3078 0002 93ED000A 		vldr.32	s0, [r3]
ARM GAS  /tmp/ccvafMs5.s 			page 55


 3079              		.loc 1 669 0
 3080 0006 7047     		bx	lr
 3081              	.L259:
 3082              		.align	2
 3083              	.L258:
 3084 0008 00000000 		.word	.LANCHOR31
 3085              		.cfi_endproc
 3086              	.LFE271:
 3087              		.size	mcpwm_foc_get_duty_cycle_set, .-mcpwm_foc_get_duty_cycle_set
 3088              		.section	.text.mcpwm_foc_get_duty_cycle_now,"ax",%progbits
 3089              		.align	1
 3090              		.p2align 4,,15
 3091              		.global	mcpwm_foc_get_duty_cycle_now
 3092              		.syntax unified
 3093              		.thumb
 3094              		.thumb_func
 3095              		.fpu fpv4-sp-d16
 3096              		.type	mcpwm_foc_get_duty_cycle_now, %function
 3097              	mcpwm_foc_get_duty_cycle_now:
 3098              	.LFB272:
 3099              		.loc 1 671 0
 3100              		.cfi_startproc
 3101              		@ args = 0, pretend = 0, frame = 0
 3102              		@ frame_needed = 0, uses_anonymous_args = 0
 3103              		@ link register save eliminated.
 3104              		.loc 1 672 0
 3105 0000 014B     		ldr	r3, .L261
 3106 0002 93ED030A 		vldr.32	s0, [r3, #12]
 3107              		.loc 1 673 0
 3108 0006 7047     		bx	lr
 3109              	.L262:
 3110              		.align	2
 3111              	.L261:
 3112 0008 00000000 		.word	.LANCHOR10
 3113              		.cfi_endproc
 3114              	.LFE272:
 3115              		.size	mcpwm_foc_get_duty_cycle_now, .-mcpwm_foc_get_duty_cycle_now
 3116              		.section	.text.mcpwm_foc_get_pid_pos_set,"ax",%progbits
 3117              		.align	1
 3118              		.p2align 4,,15
 3119              		.global	mcpwm_foc_get_pid_pos_set
 3120              		.syntax unified
 3121              		.thumb
 3122              		.thumb_func
 3123              		.fpu fpv4-sp-d16
 3124              		.type	mcpwm_foc_get_pid_pos_set, %function
 3125              	mcpwm_foc_get_pid_pos_set:
 3126              	.LFB273:
 3127              		.loc 1 675 0
 3128              		.cfi_startproc
 3129              		@ args = 0, pretend = 0, frame = 0
 3130              		@ frame_needed = 0, uses_anonymous_args = 0
 3131              		@ link register save eliminated.
 3132              		.loc 1 676 0
 3133 0000 014B     		ldr	r3, .L264
 3134 0002 93ED000A 		vldr.32	s0, [r3]
 3135              		.loc 1 677 0
ARM GAS  /tmp/ccvafMs5.s 			page 56


 3136 0006 7047     		bx	lr
 3137              	.L265:
 3138              		.align	2
 3139              	.L264:
 3140 0008 00000000 		.word	.LANCHOR34
 3141              		.cfi_endproc
 3142              	.LFE273:
 3143              		.size	mcpwm_foc_get_pid_pos_set, .-mcpwm_foc_get_pid_pos_set
 3144              		.section	.text.mcpwm_foc_get_pid_pos_now,"ax",%progbits
 3145              		.align	1
 3146              		.p2align 4,,15
 3147              		.global	mcpwm_foc_get_pid_pos_now
 3148              		.syntax unified
 3149              		.thumb
 3150              		.thumb_func
 3151              		.fpu fpv4-sp-d16
 3152              		.type	mcpwm_foc_get_pid_pos_now, %function
 3153              	mcpwm_foc_get_pid_pos_now:
 3154              	.LFB274:
 3155              		.loc 1 679 0
 3156              		.cfi_startproc
 3157              		@ args = 0, pretend = 0, frame = 0
 3158              		@ frame_needed = 0, uses_anonymous_args = 0
 3159              		@ link register save eliminated.
 3160              		.loc 1 680 0
 3161 0000 014B     		ldr	r3, .L267
 3162 0002 93ED000A 		vldr.32	s0, [r3]
 3163              		.loc 1 681 0
 3164 0006 7047     		bx	lr
 3165              	.L268:
 3166              		.align	2
 3167              	.L267:
 3168 0008 00000000 		.word	.LANCHOR42
 3169              		.cfi_endproc
 3170              	.LFE274:
 3171              		.size	mcpwm_foc_get_pid_pos_now, .-mcpwm_foc_get_pid_pos_now
 3172              		.section	.text.mcpwm_foc_get_switching_frequency_now,"ax",%progbits
 3173              		.align	1
 3174              		.p2align 4,,15
 3175              		.global	mcpwm_foc_get_switching_frequency_now
 3176              		.syntax unified
 3177              		.thumb
 3178              		.thumb_func
 3179              		.fpu fpv4-sp-d16
 3180              		.type	mcpwm_foc_get_switching_frequency_now, %function
 3181              	mcpwm_foc_get_switching_frequency_now:
 3182              	.LFB275:
 3183              		.loc 1 689 0
 3184              		.cfi_startproc
 3185              		@ args = 0, pretend = 0, frame = 0
 3186              		@ frame_needed = 0, uses_anonymous_args = 0
 3187              		@ link register save eliminated.
 3188              		.loc 1 690 0
 3189 0000 024B     		ldr	r3, .L270
 3190 0002 1B68     		ldr	r3, [r3]
 3191 0004 93ED2B0A 		vldr.32	s0, [r3, #172]
 3192              		.loc 1 691 0
ARM GAS  /tmp/ccvafMs5.s 			page 57


 3193 0008 7047     		bx	lr
 3194              	.L271:
 3195 000a 00BF     		.align	2
 3196              	.L270:
 3197 000c 00000000 		.word	.LANCHOR0
 3198              		.cfi_endproc
 3199              	.LFE275:
 3200              		.size	mcpwm_foc_get_switching_frequency_now, .-mcpwm_foc_get_switching_frequency_now
 3201              		.section	.text.mcpwm_foc_get_sampling_frequency_now,"ax",%progbits
 3202              		.align	1
 3203              		.p2align 4,,15
 3204              		.global	mcpwm_foc_get_sampling_frequency_now
 3205              		.syntax unified
 3206              		.thumb
 3207              		.thumb_func
 3208              		.fpu fpv4-sp-d16
 3209              		.type	mcpwm_foc_get_sampling_frequency_now, %function
 3210              	mcpwm_foc_get_sampling_frequency_now:
 3211              	.LFB276:
 3212              		.loc 1 699 0
 3213              		.cfi_startproc
 3214              		@ args = 0, pretend = 0, frame = 0
 3215              		@ frame_needed = 0, uses_anonymous_args = 0
 3216              		@ link register save eliminated.
 3217              		.loc 1 707 0
 3218 0000 044B     		ldr	r3, .L273
 3219 0002 1B68     		ldr	r3, [r3]
 3220 0004 93ED2B0A 		vldr.32	s0, [r3, #172]
 3221 0008 F6EE007A 		vmov.f32	s15, #5.0e-1
 3222              		.loc 1 709 0
 3223 000c 20EE270A 		vmul.f32	s0, s0, s15
 3224 0010 7047     		bx	lr
 3225              	.L274:
 3226 0012 00BF     		.align	2
 3227              	.L273:
 3228 0014 00000000 		.word	.LANCHOR0
 3229              		.cfi_endproc
 3230              	.LFE276:
 3231              		.size	mcpwm_foc_get_sampling_frequency_now, .-mcpwm_foc_get_sampling_frequency_now
 3232              		.section	.text.mcpwm_foc_get_rpm,"ax",%progbits
 3233              		.align	1
 3234              		.p2align 4,,15
 3235              		.global	mcpwm_foc_get_rpm
 3236              		.syntax unified
 3237              		.thumb
 3238              		.thumb_func
 3239              		.fpu fpv4-sp-d16
 3240              		.type	mcpwm_foc_get_rpm, %function
 3241              	mcpwm_foc_get_rpm:
 3242              	.LFB277:
 3243              		.loc 1 719 0
 3244              		.cfi_startproc
 3245              		@ args = 0, pretend = 0, frame = 0
 3246              		@ frame_needed = 0, uses_anonymous_args = 0
 3247              		@ link register save eliminated.
 3248              		.loc 1 720 0
 3249 0000 034B     		ldr	r3, .L276
ARM GAS  /tmp/ccvafMs5.s 			page 58


 3250 0002 DFED047A 		vldr.32	s15, .L276+4
 3251 0006 93ED000A 		vldr.32	s0, [r3]
 3252              		.loc 1 721 0
 3253 000a 80EE270A 		vdiv.f32	s0, s0, s15
 3254 000e 7047     		bx	lr
 3255              	.L277:
 3256              		.align	2
 3257              	.L276:
 3258 0010 00000000 		.word	.LANCHOR12
 3259 0014 5077D63D 		.word	1037465424
 3260              		.cfi_endproc
 3261              	.LFE277:
 3262              		.size	mcpwm_foc_get_rpm, .-mcpwm_foc_get_rpm
 3263              		.section	.text.mcpwm_foc_get_tot_current,"ax",%progbits
 3264              		.align	1
 3265              		.p2align 4,,15
 3266              		.global	mcpwm_foc_get_tot_current
 3267              		.syntax unified
 3268              		.thumb
 3269              		.thumb_func
 3270              		.fpu fpv4-sp-d16
 3271              		.type	mcpwm_foc_get_tot_current, %function
 3272              	mcpwm_foc_get_tot_current:
 3273              	.LFB278:
 3274              		.loc 1 731 0
 3275              		.cfi_startproc
 3276              		@ args = 0, pretend = 0, frame = 0
 3277              		@ frame_needed = 0, uses_anonymous_args = 0
 3278              		@ link register save eliminated.
 3279              		.loc 1 732 0
 3280 0000 094B     		ldr	r3, .L281
 3281 0002 D3ED147A 		vldr.32	s15, [r3, #80]
 3282 0006 93ED100A 		vldr.32	s0, [r3, #64]
 3283 000a F5EEC07A 		vcmpe.f32	s15, #0
 3284 000e F1EE10FA 		vmrs	APSR_nzcv, FPSCR
 3285 0012 B7EE007A 		vmov.f32	s14, #1.0e+0
 3286 0016 FFEE007A 		vmov.f32	s15, #-1.0e+0
 3287 001a 58BF     		it	pl
 3288 001c F0EE477A 		vmovpl.f32	s15, s14
 3289              		.loc 1 733 0
 3290 0020 20EE270A 		vmul.f32	s0, s0, s15
 3291 0024 7047     		bx	lr
 3292              	.L282:
 3293 0026 00BF     		.align	2
 3294              	.L281:
 3295 0028 00000000 		.word	.LANCHOR10
 3296              		.cfi_endproc
 3297              	.LFE278:
 3298              		.size	mcpwm_foc_get_tot_current, .-mcpwm_foc_get_tot_current
 3299              		.section	.text.mcpwm_foc_get_tot_current_filtered,"ax",%progbits
 3300              		.align	1
 3301              		.p2align 4,,15
 3302              		.global	mcpwm_foc_get_tot_current_filtered
 3303              		.syntax unified
 3304              		.thumb
 3305              		.thumb_func
 3306              		.fpu fpv4-sp-d16
ARM GAS  /tmp/ccvafMs5.s 			page 59


 3307              		.type	mcpwm_foc_get_tot_current_filtered, %function
 3308              	mcpwm_foc_get_tot_current_filtered:
 3309              	.LFB279:
 3310              		.loc 1 743 0
 3311              		.cfi_startproc
 3312              		@ args = 0, pretend = 0, frame = 0
 3313              		@ frame_needed = 0, uses_anonymous_args = 0
 3314              		@ link register save eliminated.
 3315              		.loc 1 744 0
 3316 0000 094B     		ldr	r3, .L286
 3317 0002 D3ED147A 		vldr.32	s15, [r3, #80]
 3318 0006 93ED120A 		vldr.32	s0, [r3, #72]
 3319 000a F5EEC07A 		vcmpe.f32	s15, #0
 3320 000e F1EE10FA 		vmrs	APSR_nzcv, FPSCR
 3321 0012 B7EE007A 		vmov.f32	s14, #1.0e+0
 3322 0016 FFEE007A 		vmov.f32	s15, #-1.0e+0
 3323 001a 58BF     		it	pl
 3324 001c F0EE477A 		vmovpl.f32	s15, s14
 3325              		.loc 1 745 0
 3326 0020 20EE270A 		vmul.f32	s0, s0, s15
 3327 0024 7047     		bx	lr
 3328              	.L287:
 3329 0026 00BF     		.align	2
 3330              	.L286:
 3331 0028 00000000 		.word	.LANCHOR10
 3332              		.cfi_endproc
 3333              	.LFE279:
 3334              		.size	mcpwm_foc_get_tot_current_filtered, .-mcpwm_foc_get_tot_current_filtered
 3335              		.section	.text.mcpwm_foc_get_abs_motor_current,"ax",%progbits
 3336              		.align	1
 3337              		.p2align 4,,15
 3338              		.global	mcpwm_foc_get_abs_motor_current
 3339              		.syntax unified
 3340              		.thumb
 3341              		.thumb_func
 3342              		.fpu fpv4-sp-d16
 3343              		.type	mcpwm_foc_get_abs_motor_current, %function
 3344              	mcpwm_foc_get_abs_motor_current:
 3345              	.LFB280:
 3346              		.loc 1 754 0
 3347              		.cfi_startproc
 3348              		@ args = 0, pretend = 0, frame = 0
 3349              		@ frame_needed = 0, uses_anonymous_args = 0
 3350              		@ link register save eliminated.
 3351              		.loc 1 755 0
 3352 0000 014B     		ldr	r3, .L289
 3353 0002 93ED070A 		vldr.32	s0, [r3, #28]
 3354              		.loc 1 756 0
 3355 0006 7047     		bx	lr
 3356              	.L290:
 3357              		.align	2
 3358              	.L289:
 3359 0008 00000000 		.word	.LANCHOR10
 3360              		.cfi_endproc
 3361              	.LFE280:
 3362              		.size	mcpwm_foc_get_abs_motor_current, .-mcpwm_foc_get_abs_motor_current
 3363              		.section	.text.mcpwm_foc_get_abs_motor_voltage,"ax",%progbits
ARM GAS  /tmp/ccvafMs5.s 			page 60


 3364              		.align	1
 3365              		.p2align 4,,15
 3366              		.global	mcpwm_foc_get_abs_motor_voltage
 3367              		.syntax unified
 3368              		.thumb
 3369              		.thumb_func
 3370              		.fpu fpv4-sp-d16
 3371              		.type	mcpwm_foc_get_abs_motor_voltage, %function
 3372              	mcpwm_foc_get_abs_motor_voltage:
 3373              	.LFB281:
 3374              		.loc 1 764 0
 3375              		.cfi_startproc
 3376              		@ args = 0, pretend = 0, frame = 0
 3377              		@ frame_needed = 0, uses_anonymous_args = 0
 3378 0000 08B5     		push	{r3, lr}
 3379              		.cfi_def_cfa_offset 8
 3380              		.cfi_offset 3, -8
 3381              		.cfi_offset 14, -4
 3382              		.loc 1 765 0
 3383 0002 0D4B     		ldr	r3, .L295
 3384 0004 D3ED137A 		vldr.32	s15, [r3, #76]
 3385              	.LVL220:
 3386              		.loc 1 766 0
 3387 0008 93ED140A 		vldr.32	s0, [r3, #80]
 3388              	.LVL221:
 3389              		.loc 1 767 0
 3390 000c 20EE000A 		vmul.f32	s0, s0, s0
 3391              	.LVL222:
 3392              		.loc 1 764 0
 3393 0010 2DED028B 		vpush.64	{d8}
 3394              		.cfi_def_cfa_offset 16
 3395              		.cfi_offset 80, -16
 3396              		.cfi_offset 81, -12
 3397              		.loc 1 767 0
 3398 0014 A7EEA70A 		vfma.f32	s0, s15, s15
 3399 0018 B5EE400A 		vcmp.f32	s0, #0
 3400 001c F1EE10FA 		vmrs	APSR_nzcv, FPSCR
 3401 0020 B1EEC08A 		vsqrt.f32	s16, s0
 3402 0024 04D4     		bmi	.L294
 3403              	.LVL223:
 3404              	.L291:
 3405              		.loc 1 768 0
 3406 0026 B0EE480A 		vmov.f32	s0, s16
 3407 002a BDEC028B 		vldm	sp!, {d8}
 3408              		.cfi_remember_state
 3409              		.cfi_restore 80
 3410              		.cfi_restore 81
 3411              		.cfi_def_cfa_offset 8
 3412 002e 08BD     		pop	{r3, pc}
 3413              	.LVL224:
 3414              	.L294:
 3415              		.cfi_restore_state
 3416              		.loc 1 767 0
 3417 0030 FFF7FEFF 		bl	sqrtf
 3418              	.LVL225:
 3419 0034 F7E7     		b	.L291
 3420              	.L296:
ARM GAS  /tmp/ccvafMs5.s 			page 61


 3421 0036 00BF     		.align	2
 3422              	.L295:
 3423 0038 00000000 		.word	.LANCHOR10
 3424              		.cfi_endproc
 3425              	.LFE281:
 3426              		.size	mcpwm_foc_get_abs_motor_voltage, .-mcpwm_foc_get_abs_motor_voltage
 3427              		.section	.text.mcpwm_foc_get_abs_motor_current_filtered,"ax",%progbits
 3428              		.align	1
 3429              		.p2align 4,,15
 3430              		.global	mcpwm_foc_get_abs_motor_current_filtered
 3431              		.syntax unified
 3432              		.thumb
 3433              		.thumb_func
 3434              		.fpu fpv4-sp-d16
 3435              		.type	mcpwm_foc_get_abs_motor_current_filtered, %function
 3436              	mcpwm_foc_get_abs_motor_current_filtered:
 3437              	.LFB282:
 3438              		.loc 1 777 0
 3439              		.cfi_startproc
 3440              		@ args = 0, pretend = 0, frame = 0
 3441              		@ frame_needed = 0, uses_anonymous_args = 0
 3442              		@ link register save eliminated.
 3443              		.loc 1 778 0
 3444 0000 014B     		ldr	r3, .L298
 3445 0002 93ED080A 		vldr.32	s0, [r3, #32]
 3446              		.loc 1 779 0
 3447 0006 7047     		bx	lr
 3448              	.L299:
 3449              		.align	2
 3450              	.L298:
 3451 0008 00000000 		.word	.LANCHOR10
 3452              		.cfi_endproc
 3453              	.LFE282:
 3454              		.size	mcpwm_foc_get_abs_motor_current_filtered, .-mcpwm_foc_get_abs_motor_current_filtered
 3455              		.section	.text.mcpwm_foc_get_tot_current_directional,"ax",%progbits
 3456              		.align	1
 3457              		.p2align 4,,15
 3458              		.global	mcpwm_foc_get_tot_current_directional
 3459              		.syntax unified
 3460              		.thumb
 3461              		.thumb_func
 3462              		.fpu fpv4-sp-d16
 3463              		.type	mcpwm_foc_get_tot_current_directional, %function
 3464              	mcpwm_foc_get_tot_current_directional:
 3465              	.LFB283:
 3466              		.loc 1 788 0
 3467              		.cfi_startproc
 3468              		@ args = 0, pretend = 0, frame = 0
 3469              		@ frame_needed = 0, uses_anonymous_args = 0
 3470              		@ link register save eliminated.
 3471              		.loc 1 789 0
 3472 0000 014B     		ldr	r3, .L301
 3473 0002 93ED100A 		vldr.32	s0, [r3, #64]
 3474              		.loc 1 790 0
 3475 0006 7047     		bx	lr
 3476              	.L302:
 3477              		.align	2
ARM GAS  /tmp/ccvafMs5.s 			page 62


 3478              	.L301:
 3479 0008 00000000 		.word	.LANCHOR10
 3480              		.cfi_endproc
 3481              	.LFE283:
 3482              		.size	mcpwm_foc_get_tot_current_directional, .-mcpwm_foc_get_tot_current_directional
 3483              		.section	.text.mcpwm_foc_get_tot_current_directional_filtered,"ax",%progbits
 3484              		.align	1
 3485              		.p2align 4,,15
 3486              		.global	mcpwm_foc_get_tot_current_directional_filtered
 3487              		.syntax unified
 3488              		.thumb
 3489              		.thumb_func
 3490              		.fpu fpv4-sp-d16
 3491              		.type	mcpwm_foc_get_tot_current_directional_filtered, %function
 3492              	mcpwm_foc_get_tot_current_directional_filtered:
 3493              	.LFB284:
 3494              		.loc 1 799 0
 3495              		.cfi_startproc
 3496              		@ args = 0, pretend = 0, frame = 0
 3497              		@ frame_needed = 0, uses_anonymous_args = 0
 3498              		@ link register save eliminated.
 3499              		.loc 1 800 0
 3500 0000 014B     		ldr	r3, .L304
 3501 0002 93ED120A 		vldr.32	s0, [r3, #72]
 3502              		.loc 1 801 0
 3503 0006 7047     		bx	lr
 3504              	.L305:
 3505              		.align	2
 3506              	.L304:
 3507 0008 00000000 		.word	.LANCHOR10
 3508              		.cfi_endproc
 3509              	.LFE284:
 3510              		.size	mcpwm_foc_get_tot_current_directional_filtered, .-mcpwm_foc_get_tot_current_directional_filt
 3511              		.section	.text.mcpwm_foc_get_id,"ax",%progbits
 3512              		.align	1
 3513              		.p2align 4,,15
 3514              		.global	mcpwm_foc_get_id
 3515              		.syntax unified
 3516              		.thumb
 3517              		.thumb_func
 3518              		.fpu fpv4-sp-d16
 3519              		.type	mcpwm_foc_get_id, %function
 3520              	mcpwm_foc_get_id:
 3521              	.LFB285:
 3522              		.loc 1 809 0
 3523              		.cfi_startproc
 3524              		@ args = 0, pretend = 0, frame = 0
 3525              		@ frame_needed = 0, uses_anonymous_args = 0
 3526              		@ link register save eliminated.
 3527              		.loc 1 810 0
 3528 0000 014B     		ldr	r3, .L307
 3529 0002 93ED0F0A 		vldr.32	s0, [r3, #60]
 3530              		.loc 1 811 0
 3531 0006 7047     		bx	lr
 3532              	.L308:
 3533              		.align	2
 3534              	.L307:
ARM GAS  /tmp/ccvafMs5.s 			page 63


 3535 0008 00000000 		.word	.LANCHOR10
 3536              		.cfi_endproc
 3537              	.LFE285:
 3538              		.size	mcpwm_foc_get_id, .-mcpwm_foc_get_id
 3539              		.section	.text.mcpwm_foc_get_iq,"ax",%progbits
 3540              		.align	1
 3541              		.p2align 4,,15
 3542              		.global	mcpwm_foc_get_iq
 3543              		.syntax unified
 3544              		.thumb
 3545              		.thumb_func
 3546              		.fpu fpv4-sp-d16
 3547              		.type	mcpwm_foc_get_iq, %function
 3548              	mcpwm_foc_get_iq:
 3549              	.LFB320:
 3550              		.cfi_startproc
 3551              		@ args = 0, pretend = 0, frame = 0
 3552              		@ frame_needed = 0, uses_anonymous_args = 0
 3553              		@ link register save eliminated.
 3554 0000 014B     		ldr	r3, .L310
 3555 0002 93ED100A 		vldr.32	s0, [r3, #64]
 3556 0006 7047     		bx	lr
 3557              	.L311:
 3558              		.align	2
 3559              	.L310:
 3560 0008 00000000 		.word	.LANCHOR10
 3561              		.cfi_endproc
 3562              	.LFE320:
 3563              		.size	mcpwm_foc_get_iq, .-mcpwm_foc_get_iq
 3564              		.section	.text.mcpwm_foc_get_tot_current_in,"ax",%progbits
 3565              		.align	1
 3566              		.p2align 4,,15
 3567              		.global	mcpwm_foc_get_tot_current_in
 3568              		.syntax unified
 3569              		.thumb
 3570              		.thumb_func
 3571              		.fpu fpv4-sp-d16
 3572              		.type	mcpwm_foc_get_tot_current_in, %function
 3573              	mcpwm_foc_get_tot_current_in:
 3574              	.LFB287:
 3575              		.loc 1 829 0
 3576              		.cfi_startproc
 3577              		@ args = 0, pretend = 0, frame = 0
 3578              		@ frame_needed = 0, uses_anonymous_args = 0
 3579              		@ link register save eliminated.
 3580              		.loc 1 830 0
 3581 0000 014B     		ldr	r3, .L313
 3582 0002 93ED090A 		vldr.32	s0, [r3, #36]
 3583              		.loc 1 831 0
 3584 0006 7047     		bx	lr
 3585              	.L314:
 3586              		.align	2
 3587              	.L313:
 3588 0008 00000000 		.word	.LANCHOR10
 3589              		.cfi_endproc
 3590              	.LFE287:
 3591              		.size	mcpwm_foc_get_tot_current_in, .-mcpwm_foc_get_tot_current_in
ARM GAS  /tmp/ccvafMs5.s 			page 64


 3592              		.section	.text.mcpwm_foc_get_tot_current_in_filtered,"ax",%progbits
 3593              		.align	1
 3594              		.p2align 4,,15
 3595              		.global	mcpwm_foc_get_tot_current_in_filtered
 3596              		.syntax unified
 3597              		.thumb
 3598              		.thumb_func
 3599              		.fpu fpv4-sp-d16
 3600              		.type	mcpwm_foc_get_tot_current_in_filtered, %function
 3601              	mcpwm_foc_get_tot_current_in_filtered:
 3602              	.LFB322:
 3603              		.cfi_startproc
 3604              		@ args = 0, pretend = 0, frame = 0
 3605              		@ frame_needed = 0, uses_anonymous_args = 0
 3606              		@ link register save eliminated.
 3607 0000 014B     		ldr	r3, .L316
 3608 0002 93ED090A 		vldr.32	s0, [r3, #36]
 3609 0006 7047     		bx	lr
 3610              	.L317:
 3611              		.align	2
 3612              	.L316:
 3613 0008 00000000 		.word	.LANCHOR10
 3614              		.cfi_endproc
 3615              	.LFE322:
 3616              		.size	mcpwm_foc_get_tot_current_in_filtered, .-mcpwm_foc_get_tot_current_in_filtered
 3617              		.section	.text.mcpwm_foc_get_tachometer_value,"ax",%progbits
 3618              		.align	1
 3619              		.p2align 4,,15
 3620              		.global	mcpwm_foc_get_tachometer_value
 3621              		.syntax unified
 3622              		.thumb
 3623              		.thumb_func
 3624              		.fpu fpv4-sp-d16
 3625              		.type	mcpwm_foc_get_tachometer_value, %function
 3626              	mcpwm_foc_get_tachometer_value:
 3627              	.LFB289:
 3628              		.loc 1 854 0
 3629              		.cfi_startproc
 3630              		@ args = 0, pretend = 0, frame = 0
 3631              		@ frame_needed = 0, uses_anonymous_args = 0
 3632              		@ link register save eliminated.
 3633              	.LVL226:
 3634              		.loc 1 855 0
 3635 0000 034B     		ldr	r3, .L323
 3636 0002 1A68     		ldr	r2, [r3]
 3637              	.LVL227:
 3638              		.loc 1 857 0
 3639 0004 08B1     		cbz	r0, .L318
 3640              		.loc 1 858 0
 3641 0006 0021     		movs	r1, #0
 3642 0008 1960     		str	r1, [r3]
 3643              	.L318:
 3644              		.loc 1 862 0
 3645 000a 1046     		mov	r0, r2
 3646              	.LVL228:
 3647 000c 7047     		bx	lr
 3648              	.L324:
ARM GAS  /tmp/ccvafMs5.s 			page 65


 3649 000e 00BF     		.align	2
 3650              	.L323:
 3651 0010 00000000 		.word	.LANCHOR39
 3652              		.cfi_endproc
 3653              	.LFE289:
 3654              		.size	mcpwm_foc_get_tachometer_value, .-mcpwm_foc_get_tachometer_value
 3655              		.section	.text.mcpwm_foc_get_tachometer_abs_value,"ax",%progbits
 3656              		.align	1
 3657              		.p2align 4,,15
 3658              		.global	mcpwm_foc_get_tachometer_abs_value
 3659              		.syntax unified
 3660              		.thumb
 3661              		.thumb_func
 3662              		.fpu fpv4-sp-d16
 3663              		.type	mcpwm_foc_get_tachometer_abs_value, %function
 3664              	mcpwm_foc_get_tachometer_abs_value:
 3665              	.LFB290:
 3666              		.loc 1 874 0
 3667              		.cfi_startproc
 3668              		@ args = 0, pretend = 0, frame = 0
 3669              		@ frame_needed = 0, uses_anonymous_args = 0
 3670              		@ link register save eliminated.
 3671              	.LVL229:
 3672              		.loc 1 875 0
 3673 0000 034B     		ldr	r3, .L330
 3674 0002 1A68     		ldr	r2, [r3]
 3675              	.LVL230:
 3676              		.loc 1 877 0
 3677 0004 08B1     		cbz	r0, .L325
 3678              		.loc 1 878 0
 3679 0006 0021     		movs	r1, #0
 3680 0008 1960     		str	r1, [r3]
 3681              	.L325:
 3682              		.loc 1 882 0
 3683 000a 1046     		mov	r0, r2
 3684              	.LVL231:
 3685 000c 7047     		bx	lr
 3686              	.L331:
 3687 000e 00BF     		.align	2
 3688              	.L330:
 3689 0010 00000000 		.word	.LANCHOR40
 3690              		.cfi_endproc
 3691              	.LFE290:
 3692              		.size	mcpwm_foc_get_tachometer_abs_value, .-mcpwm_foc_get_tachometer_abs_value
 3693              		.section	.text.mcpwm_foc_get_phase,"ax",%progbits
 3694              		.align	1
 3695              		.p2align 4,,15
 3696              		.global	mcpwm_foc_get_phase
 3697              		.syntax unified
 3698              		.thumb
 3699              		.thumb_func
 3700              		.fpu fpv4-sp-d16
 3701              		.type	mcpwm_foc_get_phase, %function
 3702              	mcpwm_foc_get_phase:
 3703              	.LFB291:
 3704              		.loc 1 890 0
 3705              		.cfi_startproc
ARM GAS  /tmp/ccvafMs5.s 			page 66


 3706              		@ args = 0, pretend = 0, frame = 8
 3707              		@ frame_needed = 0, uses_anonymous_args = 0
 3708 0000 00B5     		push	{lr}
 3709              		.cfi_def_cfa_offset 4
 3710              		.cfi_offset 14, -4
 3711              		.loc 1 891 0
 3712 0002 094B     		ldr	r3, .L334
 3713 0004 9FED097A 		vldr.32	s14, .L334+4
 3714 0008 D3ED047A 		vldr.32	s15, [r3, #16]
 3715              		.loc 1 890 0
 3716 000c 83B0     		sub	sp, sp, #12
 3717              		.cfi_def_cfa_offset 16
 3718              		.loc 1 891 0
 3719 000e 67EE877A 		vmul.f32	s15, s15, s14
 3720 0012 02A8     		add	r0, sp, #8
 3721 0014 60ED017A 		vstmdb.32	r0!, {s15}
 3722              		.loc 1 892 0
 3723 0018 FFF7FEFF 		bl	utils_norm_angle
 3724              	.LVL232:
 3725              		.loc 1 894 0
 3726 001c 9DED010A 		vldr.32	s0, [sp, #4]
 3727 0020 03B0     		add	sp, sp, #12
 3728              		.cfi_def_cfa_offset 4
 3729              		@ sp needed
 3730 0022 5DF804FB 		ldr	pc, [sp], #4
 3731              	.L335:
 3732 0026 00BF     		.align	2
 3733              	.L334:
 3734 0028 00000000 		.word	.LANCHOR10
 3735 002c E02E6542 		.word	1113927392
 3736              		.cfi_endproc
 3737              	.LFE291:
 3738              		.size	mcpwm_foc_get_phase, .-mcpwm_foc_get_phase
 3739              		.section	.text.mcpwm_foc_get_phase_observer,"ax",%progbits
 3740              		.align	1
 3741              		.p2align 4,,15
 3742              		.global	mcpwm_foc_get_phase_observer
 3743              		.syntax unified
 3744              		.thumb
 3745              		.thumb_func
 3746              		.fpu fpv4-sp-d16
 3747              		.type	mcpwm_foc_get_phase_observer, %function
 3748              	mcpwm_foc_get_phase_observer:
 3749              	.LFB292:
 3750              		.loc 1 902 0
 3751              		.cfi_startproc
 3752              		@ args = 0, pretend = 0, frame = 8
 3753              		@ frame_needed = 0, uses_anonymous_args = 0
 3754 0000 00B5     		push	{lr}
 3755              		.cfi_def_cfa_offset 4
 3756              		.cfi_offset 14, -4
 3757              		.loc 1 903 0
 3758 0002 094B     		ldr	r3, .L338
 3759 0004 9FED097A 		vldr.32	s14, .L338+4
 3760 0008 D3ED007A 		vldr.32	s15, [r3]
 3761              		.loc 1 902 0
 3762 000c 83B0     		sub	sp, sp, #12
ARM GAS  /tmp/ccvafMs5.s 			page 67


 3763              		.cfi_def_cfa_offset 16
 3764              		.loc 1 903 0
 3765 000e 67EE877A 		vmul.f32	s15, s15, s14
 3766 0012 02A8     		add	r0, sp, #8
 3767 0014 60ED017A 		vstmdb.32	r0!, {s15}
 3768              		.loc 1 904 0
 3769 0018 FFF7FEFF 		bl	utils_norm_angle
 3770              	.LVL233:
 3771              		.loc 1 906 0
 3772 001c 9DED010A 		vldr.32	s0, [sp, #4]
 3773 0020 03B0     		add	sp, sp, #12
 3774              		.cfi_def_cfa_offset 4
 3775              		@ sp needed
 3776 0022 5DF804FB 		ldr	pc, [sp], #4
 3777              	.L339:
 3778 0026 00BF     		.align	2
 3779              	.L338:
 3780 0028 00000000 		.word	.LANCHOR16
 3781 002c E02E6542 		.word	1113927392
 3782              		.cfi_endproc
 3783              	.LFE292:
 3784              		.size	mcpwm_foc_get_phase_observer, .-mcpwm_foc_get_phase_observer
 3785              		.section	.text.mcpwm_foc_get_phase_encoder,"ax",%progbits
 3786              		.align	1
 3787              		.p2align 4,,15
 3788              		.global	mcpwm_foc_get_phase_encoder
 3789              		.syntax unified
 3790              		.thumb
 3791              		.thumb_func
 3792              		.fpu fpv4-sp-d16
 3793              		.type	mcpwm_foc_get_phase_encoder, %function
 3794              	mcpwm_foc_get_phase_encoder:
 3795              	.LFB293:
 3796              		.loc 1 914 0
 3797              		.cfi_startproc
 3798              		@ args = 0, pretend = 0, frame = 8
 3799              		@ frame_needed = 0, uses_anonymous_args = 0
 3800 0000 00B5     		push	{lr}
 3801              		.cfi_def_cfa_offset 4
 3802              		.cfi_offset 14, -4
 3803              		.loc 1 915 0
 3804 0002 094B     		ldr	r3, .L342
 3805 0004 9FED097A 		vldr.32	s14, .L342+4
 3806 0008 D3ED007A 		vldr.32	s15, [r3]
 3807              		.loc 1 914 0
 3808 000c 83B0     		sub	sp, sp, #12
 3809              		.cfi_def_cfa_offset 16
 3810              		.loc 1 915 0
 3811 000e 67EE877A 		vmul.f32	s15, s15, s14
 3812 0012 02A8     		add	r0, sp, #8
 3813 0014 60ED017A 		vstmdb.32	r0!, {s15}
 3814              		.loc 1 916 0
 3815 0018 FFF7FEFF 		bl	utils_norm_angle
 3816              	.LVL234:
 3817              		.loc 1 918 0
 3818 001c 9DED010A 		vldr.32	s0, [sp, #4]
 3819 0020 03B0     		add	sp, sp, #12
ARM GAS  /tmp/ccvafMs5.s 			page 68


 3820              		.cfi_def_cfa_offset 4
 3821              		@ sp needed
 3822 0022 5DF804FB 		ldr	pc, [sp], #4
 3823              	.L343:
 3824 0026 00BF     		.align	2
 3825              	.L342:
 3826 0028 00000000 		.word	.LANCHOR35
 3827 002c E02E6542 		.word	1113927392
 3828              		.cfi_endproc
 3829              	.LFE293:
 3830              		.size	mcpwm_foc_get_phase_encoder, .-mcpwm_foc_get_phase_encoder
 3831              		.section	.text.mcpwm_foc_get_vd,"ax",%progbits
 3832              		.align	1
 3833              		.p2align 4,,15
 3834              		.global	mcpwm_foc_get_vd
 3835              		.syntax unified
 3836              		.thumb
 3837              		.thumb_func
 3838              		.fpu fpv4-sp-d16
 3839              		.type	mcpwm_foc_get_vd, %function
 3840              	mcpwm_foc_get_vd:
 3841              	.LFB294:
 3842              		.loc 1 920 0
 3843              		.cfi_startproc
 3844              		@ args = 0, pretend = 0, frame = 0
 3845              		@ frame_needed = 0, uses_anonymous_args = 0
 3846              		@ link register save eliminated.
 3847              		.loc 1 921 0
 3848 0000 014B     		ldr	r3, .L345
 3849 0002 93ED130A 		vldr.32	s0, [r3, #76]
 3850              		.loc 1 922 0
 3851 0006 7047     		bx	lr
 3852              	.L346:
 3853              		.align	2
 3854              	.L345:
 3855 0008 00000000 		.word	.LANCHOR10
 3856              		.cfi_endproc
 3857              	.LFE294:
 3858              		.size	mcpwm_foc_get_vd, .-mcpwm_foc_get_vd
 3859              		.section	.text.mcpwm_foc_get_vq,"ax",%progbits
 3860              		.align	1
 3861              		.p2align 4,,15
 3862              		.global	mcpwm_foc_get_vq
 3863              		.syntax unified
 3864              		.thumb
 3865              		.thumb_func
 3866              		.fpu fpv4-sp-d16
 3867              		.type	mcpwm_foc_get_vq, %function
 3868              	mcpwm_foc_get_vq:
 3869              	.LFB295:
 3870              		.loc 1 924 0
 3871              		.cfi_startproc
 3872              		@ args = 0, pretend = 0, frame = 0
 3873              		@ frame_needed = 0, uses_anonymous_args = 0
 3874              		@ link register save eliminated.
 3875              		.loc 1 925 0
 3876 0000 014B     		ldr	r3, .L348
ARM GAS  /tmp/ccvafMs5.s 			page 69


 3877 0002 93ED140A 		vldr.32	s0, [r3, #80]
 3878              		.loc 1 926 0
 3879 0006 7047     		bx	lr
 3880              	.L349:
 3881              		.align	2
 3882              	.L348:
 3883 0008 00000000 		.word	.LANCHOR10
 3884              		.cfi_endproc
 3885              	.LFE295:
 3886              		.size	mcpwm_foc_get_vq, .-mcpwm_foc_get_vq
 3887              		.global	__aeabi_f2d
 3888              		.section	.text.mcpwm_foc_encoder_detect,"ax",%progbits
 3889              		.align	1
 3890              		.p2align 4,,15
 3891              		.global	mcpwm_foc_encoder_detect
 3892              		.syntax unified
 3893              		.thumb
 3894              		.thumb_func
 3895              		.fpu fpv4-sp-d16
 3896              		.type	mcpwm_foc_encoder_detect, %function
 3897              	mcpwm_foc_encoder_detect:
 3898              	.LFB296:
 3899              		.loc 1 943 0
 3900              		.cfi_startproc
 3901              		@ args = 0, pretend = 0, frame = 24
 3902              		@ frame_needed = 0, uses_anonymous_args = 0
 3903              	.LVL235:
 3904 0000 2DE9F04F 		push	{r4, r5, r6, r7, r8, r9, r10, fp, lr}
 3905              		.cfi_def_cfa_offset 36
 3906              		.cfi_offset 4, -36
 3907              		.cfi_offset 5, -32
 3908              		.cfi_offset 6, -28
 3909              		.cfi_offset 7, -24
 3910              		.cfi_offset 8, -20
 3911              		.cfi_offset 9, -16
 3912              		.cfi_offset 10, -12
 3913              		.cfi_offset 11, -8
 3914              		.cfi_offset 14, -4
 3915 0004 2DED0E8B 		vpush.64	{d8, d9, d10, d11, d12, d13, d14}
 3916              		.cfi_def_cfa_offset 92
 3917              		.cfi_offset 80, -92
 3918              		.cfi_offset 81, -88
 3919              		.cfi_offset 82, -84
 3920              		.cfi_offset 83, -80
 3921              		.cfi_offset 84, -76
 3922              		.cfi_offset 85, -72
 3923              		.cfi_offset 86, -68
 3924              		.cfi_offset 87, -64
 3925              		.cfi_offset 88, -60
 3926              		.cfi_offset 89, -56
 3927              		.cfi_offset 90, -52
 3928              		.cfi_offset 91, -48
 3929              		.cfi_offset 92, -44
 3930              		.cfi_offset 93, -40
 3931 0008 87B0     		sub	sp, sp, #28
 3932              		.cfi_def_cfa_offset 120
 3933              		.loc 1 943 0
ARM GAS  /tmp/ccvafMs5.s 			page 70


 3934 000a B0EE409A 		vmov.f32	s18, s0
 3935 000e CDE90223 		strd	r2, r3, [sp, #8]
 3936 0012 0746     		mov	r7, r0
 3937 0014 8946     		mov	r9, r1
 3938              		.loc 1 944 0
 3939 0016 FFF7FEFF 		bl	mc_interface_lock
 3940              	.LVL236:
 3941              		.loc 1 946 0
 3942 001a C549     		ldr	r1, .L430
 3943              		.loc 1 948 0
 3944 001c 9FEDC58A 		vldr.32	s16, .L430+4
 3945              		.loc 1 959 0
 3946 0020 DFF84883 		ldr	r8, .L430+60
 3947              	.LBB66:
 3948              		.loc 1 970 0
 3949 0024 DFEDC48A 		vldr.32	s17, .L430+8
 3950 0028 C44C     		ldr	r4, .L430+12
 3951              	.LBE66:
 3952              		.loc 1 946 0
 3953 002a 0122     		movs	r2, #1
 3954 002c 0A70     		strb	r2, [r1]
 3955              		.loc 1 947 0
 3956 002e C44A     		ldr	r2, .L430+16
 3957 0030 82ED009A 		vstr.32	s18, [r2]
 3958              		.loc 1 948 0
 3959 0034 C34A     		ldr	r2, .L430+20
 3960 0036 82ED008A 		vstr.32	s16, [r2]
 3961              		.loc 1 949 0
 3962 003a C34A     		ldr	r2, .L430+24
 3963 003c 0223     		movs	r3, #2
 3964 003e 1370     		strb	r3, [r2]
 3965              		.loc 1 950 0
 3966 0040 C24A     		ldr	r2, .L430+28
 3967 0042 1370     		strb	r3, [r2]
 3968              		.loc 1 953 0
 3969 0044 FFF7FEFF 		bl	timeout_get_timeout_msec
 3970              	.LVL237:
 3971 0048 0190     		str	r0, [sp, #4]
 3972              	.LVL238:
 3973              		.loc 1 954 0
 3974 004a FFF7FEFF 		bl	timeout_get_brake_current
 3975              	.LVL239:
 3976 004e F0EE409A 		vmov.f32	s19, s0
 3977              	.LVL240:
 3978              		.loc 1 955 0
 3979 0052 FFF7FEFF 		bl	timeout_reset
 3980              	.LVL241:
 3981              		.loc 1 956 0
 3982 0056 B0EE480A 		vmov.f32	s0, s16
 3983 005a BD48     		ldr	r0, .L430+32
 3984 005c FFF7FEFF 		bl	timeout_configure
 3985              	.LVL242:
 3986              		.loc 1 959 0
 3987 0060 D8F80030 		ldr	r3, [r8]
 3988 0064 93ED2DAA 		vldr.32	s20, [r3, #180]
 3989              	.LVL243:
 3990              		.loc 1 960 0
ARM GAS  /tmp/ccvafMs5.s 			page 71


 3991 0068 93F8B820 		ldrb	r2, [r3, #184]	@ zero_extendqisi2
 3992              		.loc 1 961 0
 3993 006c D3ED2FAA 		vldr.32	s21, [r3, #188]
 3994              		.loc 1 963 0
 3995 0070 83ED2D8A 		vstr.32	s16, [r3, #180]
 3996              		.loc 1 960 0
 3997 0074 09EE102A 		vmov	s18, r2	@ int
 3998              	.LVL244:
 3999              		.loc 1 964 0
 4000 0078 0022     		movs	r2, #0
 4001 007a 83F8B820 		strb	r2, [r3, #184]
 4002              		.loc 1 960 0
 4003 007e B8EE499A 		vcvt.f32.u32	s18, s18
 4004              	.LVL245:
 4005              		.loc 1 965 0
 4006 0082 4FF07E52 		mov	r2, #1065353216
 4007 0086 C3F8BC20 		str	r2, [r3, #188]	@ float
 4008              		.loc 1 969 0
 4009 008a 1F25     		movs	r5, #31
 4010              	.LVL246:
 4011              	.L351:
 4012 008c FFF7FEFF 		bl	encoder_index_found
 4013              	.LVL247:
 4014 0090 70B9     		cbnz	r0, .L355
 4015              	.LBB67:
 4016              		.loc 1 970 0
 4017 0092 9FEDA88A 		vldr.32	s16, .L430+4
 4018              	.LBE67:
 4019 0096 4FF4FA76 		mov	r6, #500
 4020              	.L352:
 4021              	.LVL248:
 4022              	.LBB68:
 4023              		.loc 1 972 0 discriminator 3
 4024 009a 0A20     		movs	r0, #10
 4025              		.loc 1 971 0 discriminator 3
 4026 009c 84ED008A 		vstr.32	s16, [r4]
 4027              		.loc 1 972 0 discriminator 3
 4028 00a0 FFF7FEFF 		bl	chThdSleep
 4029              	.LVL249:
 4030              		.loc 1 970 0 discriminator 3
 4031 00a4 013E     		subs	r6, r6, #1
 4032 00a6 38EE288A 		vadd.f32	s16, s16, s17
 4033              	.LVL250:
 4034 00aa F6D1     		bne	.L352
 4035              	.LVL251:
 4036              	.LBE68:
 4037              		.loc 1 976 0
 4038 00ac 013D     		subs	r5, r5, #1
 4039              	.LVL252:
 4040 00ae EDD1     		bne	.L351
 4041              	.LVL253:
 4042              	.L355:
 4043              		.loc 1 982 0
 4044 00b0 17B1     		cbz	r7, .L354
 4045              		.loc 1 983 0
 4046 00b2 A848     		ldr	r0, .L430+36
 4047 00b4 FFF7FEFF 		bl	commands_printf
ARM GAS  /tmp/ccvafMs5.s 			page 72


 4048              	.LVL254:
 4049              	.L354:
 4050              		.loc 1 969 0 discriminator 1
 4051 00b8 9FED9E8A 		vldr.32	s16, .L430+4
 4052              	.LBB69:
 4053              		.loc 1 987 0 discriminator 1
 4054 00bc DFED9E8A 		vldr.32	s17, .L430+8
 4055              	.LBE69:
 4056              		.loc 1 969 0 discriminator 1
 4057 00c0 4FF4FA75 		mov	r5, #500
 4058              	.LVL255:
 4059              	.L356:
 4060              	.LBB70:
 4061              		.loc 1 989 0 discriminator 3
 4062 00c4 0A20     		movs	r0, #10
 4063              		.loc 1 988 0 discriminator 3
 4064 00c6 84ED008A 		vstr.32	s16, [r4]
 4065              		.loc 1 989 0 discriminator 3
 4066 00ca FFF7FEFF 		bl	chThdSleep
 4067              	.LVL256:
 4068              		.loc 1 987 0 discriminator 3
 4069 00ce 013D     		subs	r5, r5, #1
 4070 00d0 38EE288A 		vadd.f32	s16, s16, s17
 4071              	.LVL257:
 4072 00d4 F6D1     		bne	.L356
 4073              	.LBE70:
 4074              		.loc 1 992 0
 4075 00d6 17B1     		cbz	r7, .L357
 4076              		.loc 1 993 0
 4077 00d8 9F48     		ldr	r0, .L430+40
 4078 00da FFF7FEFF 		bl	commands_printf
 4079              	.LVL258:
 4080              	.L357:
 4081              		.loc 1 1002 0
 4082 00de 9F4D     		ldr	r5, .L430+44
 4083              		.loc 1 1001 0
 4084 00e0 DFED94BA 		vldr.32	s23, .L430+4
 4085              	.LBB71:
 4086              	.LBB72:
 4087              	.LBB73:
 4088              		.loc 1 1007 0
 4089 00e4 DFED9ECA 		vldr.32	s25, .L430+48
 4090              		.loc 1 1008 0
 4091 00e8 9FED93BA 		vldr.32	s22, .L430+8
 4092              	.LBE73:
 4093              		.loc 1 1012 0
 4094 00ec DFF84CA2 		ldr	r10, .L430+12
 4095              		.loc 1 1022 0
 4096 00f0 9FEDA1EA 		vldr.32	s28, .L430+72
 4097 00f4 DFED9FDA 		vldr.32	s27, .L430+68
 4098 00f8 DFF874B2 		ldr	fp, .L430+64
 4099              	.LBE72:
 4100              	.LBE71:
 4101              		.loc 1 997 0
 4102 00fc 42F21070 		movw	r0, #10000
 4103 0100 FFF7FEFF 		bl	chThdSleep
 4104              	.LVL259:
ARM GAS  /tmp/ccvafMs5.s 			page 73


 4105              		.loc 1 1002 0
 4106 0104 95ED00DA 		vldr.32	s26, [r5]
 4107              	.LVL260:
 4108              		.loc 1 1000 0
 4109 0108 B0EE6BCA 		vmov.f32	s24, s23
 4110              	.LBB77:
 4111              		.loc 1 1004 0
 4112 010c 0026     		movs	r6, #0
 4113              	.LVL261:
 4114              	.L363:
 4115              	.LBB75:
 4116              		.loc 1 1005 0
 4117 010e D5ED00EA 		vldr.32	s29, [r5]
 4118              	.LVL262:
 4119              		.loc 1 1006 0
 4120 0112 94ED008A 		vldr.32	s16, [r4]
 4121              	.LVL263:
 4122              	.LBB74:
 4123              		.loc 1 1007 0
 4124 0116 78EE2C8A 		vadd.f32	s17, s16, s25
 4125 011a F4EEC88A 		vcmpe.f32	s17, s16
 4126 011e F1EE10FA 		vmrs	APSR_nzcv, FPSCR
 4127 0122 0BDD     		ble	.L358
 4128              	.LVL264:
 4129              	.L360:
 4130              		.loc 1 1010 0
 4131 0124 0A20     		movs	r0, #10
 4132              		.loc 1 1009 0
 4133 0126 84ED008A 		vstr.32	s16, [r4]
 4134              		.loc 1 1010 0
 4135 012a FFF7FEFF 		bl	chThdSleep
 4136              	.LVL265:
 4137              		.loc 1 1008 0
 4138 012e 38EE0B8A 		vadd.f32	s16, s16, s22
 4139              	.LVL266:
 4140              		.loc 1 1007 0
 4141 0132 F4EEC88A 		vcmpe.f32	s17, s16
 4142 0136 F1EE10FA 		vmrs	APSR_nzcv, FPSCR
 4143 013a F3DC     		bgt	.L360
 4144              	.L358:
 4145              	.LBE74:
 4146              		.loc 1 1012 0
 4147 013c 5046     		mov	r0, r10
 4148 013e FFF7FEFF 		bl	utils_norm_angle_rad
 4149              	.LVL267:
 4150              		.loc 1 1013 0
 4151 0142 40F6B830 		movw	r0, #3000
 4152 0146 FFF7FEFF 		bl	chThdSleep
 4153              	.LVL268:
 4154              		.loc 1 1014 0
 4155 014a F0EE6E0A 		vmov.f32	s1, s29
 4156 014e 95ED000A 		vldr.32	s0, [r5]
 4157 0152 FFF7FEFF 		bl	utils_angle_difference_rad
 4158              	.LVL269:
 4159              		.loc 1 1017 0
 4160 0156 05A9     		add	r1, sp, #20
 4161 0158 04A8     		add	r0, sp, #16
ARM GAS  /tmp/ccvafMs5.s 			page 74


 4162              		.loc 1 1014 0
 4163 015a B0EE408A 		vmov.f32	s16, s0
 4164              	.LVL270:
 4165              		.loc 1 1017 0
 4166 015e FFF7FEFF 		bl	sincosf
 4167              	.LVL271:
 4168              		.loc 1 1018 0
 4169 0162 9DED047A 		vldr.32	s14, [sp, #16]
 4170              		.loc 1 1019 0
 4171 0166 DDED057A 		vldr.32	s15, [sp, #20]
 4172              		.loc 1 1018 0
 4173 016a 3CEE07CA 		vadd.f32	s24, s24, s14
 4174              	.LVL272:
 4175              		.loc 1 1019 0
 4176 016e 7BEEA7BA 		vadd.f32	s23, s23, s15
 4177              	.LVL273:
 4178              		.loc 1 1021 0
 4179 0172 002F     		cmp	r7, #0
 4180 0174 40F0C581 		bne	.L423
 4181              	.L361:
 4182              		.loc 1 1025 0
 4183 0178 032E     		cmp	r6, #3
 4184 017a 12DD     		ble	.L365
 4185              		.loc 1 1025 0 is_stmt 0 discriminator 1
 4186 017c 95ED000A 		vldr.32	s0, [r5]
 4187 0180 F0EE4D0A 		vmov.f32	s1, s26
 4188 0184 FFF7FEFF 		bl	utils_angle_difference_rad
 4189              	.LVL274:
 4190 0188 F6EE007A 		vmov.f32	s15, #5.0e-1
 4191 018c 28EE278A 		vmul.f32	s16, s16, s15
 4192              	.LVL275:
 4193 0190 B0EEC00A 		vabs.f32	s0, s0
 4194 0194 B0EEC88A 		vabs.f32	s16, s16
 4195 0198 B4EEC80A 		vcmpe.f32	s0, s16
 4196 019c F1EE10FA 		vmrs	APSR_nzcv, FPSCR
 4197 01a0 02D4     		bmi	.L364
 4198              	.L365:
 4199              	.LBE75:
 4200              		.loc 1 1004 0 is_stmt 1
 4201 01a2 0136     		adds	r6, r6, #1
 4202              	.LVL276:
 4203 01a4 142E     		cmp	r6, #20
 4204 01a6 B2D1     		bne	.L363
 4205              	.L364:
 4206              	.LBE77:
 4207              		.loc 1 1030 0
 4208 01a8 95ED00DA 		vldr.32	s26, [r5]
 4209              	.LVL277:
 4210              	.LBB78:
 4211              	.LBB79:
 4212              	.LBB80:
 4213              		.loc 1 1035 0
 4214 01ac DFED6CCA 		vldr.32	s25, .L430+48
 4215              		.loc 1 1036 0
 4216 01b0 9FED61BA 		vldr.32	s22, .L430+8
 4217              	.LBE80:
 4218              		.loc 1 1040 0
ARM GAS  /tmp/ccvafMs5.s 			page 75


 4219 01b4 DFF884A1 		ldr	r10, .L430+12
 4220              		.loc 1 1050 0
 4221 01b8 9FED6FEA 		vldr.32	s28, .L430+72
 4222 01bc DFED6DDA 		vldr.32	s27, .L430+68
 4223 01c0 DFF8ACB1 		ldr	fp, .L430+64
 4224              	.LBE79:
 4225              		.loc 1 1032 0
 4226 01c4 0026     		movs	r6, #0
 4227              	.LVL278:
 4228              	.L372:
 4229              	.LBB82:
 4230              		.loc 1 1033 0
 4231 01c6 D5ED00EA 		vldr.32	s29, [r5]
 4232              	.LVL279:
 4233              		.loc 1 1034 0
 4234 01ca 94ED008A 		vldr.32	s16, [r4]
 4235              	.LVL280:
 4236              	.LBB81:
 4237              		.loc 1 1035 0
 4238 01ce 78EE6C8A 		vsub.f32	s17, s16, s25
 4239 01d2 F4EEC88A 		vcmpe.f32	s17, s16
 4240 01d6 F1EE10FA 		vmrs	APSR_nzcv, FPSCR
 4241 01da 0BD5     		bpl	.L367
 4242              	.LVL281:
 4243              	.L369:
 4244              		.loc 1 1038 0
 4245 01dc 0A20     		movs	r0, #10
 4246              		.loc 1 1037 0
 4247 01de 84ED008A 		vstr.32	s16, [r4]
 4248              		.loc 1 1038 0
 4249 01e2 FFF7FEFF 		bl	chThdSleep
 4250              	.LVL282:
 4251              		.loc 1 1036 0
 4252 01e6 38EE4B8A 		vsub.f32	s16, s16, s22
 4253              	.LVL283:
 4254              		.loc 1 1035 0
 4255 01ea F4EEC88A 		vcmpe.f32	s17, s16
 4256 01ee F1EE10FA 		vmrs	APSR_nzcv, FPSCR
 4257 01f2 F3D4     		bmi	.L369
 4258              	.L367:
 4259              	.LBE81:
 4260              		.loc 1 1040 0
 4261 01f4 5046     		mov	r0, r10
 4262 01f6 FFF7FEFF 		bl	utils_norm_angle_rad
 4263              	.LVL284:
 4264              		.loc 1 1041 0
 4265 01fa 40F6B830 		movw	r0, #3000
 4266 01fe FFF7FEFF 		bl	chThdSleep
 4267              	.LVL285:
 4268              		.loc 1 1042 0
 4269 0202 D5ED000A 		vldr.32	s1, [r5]
 4270 0206 B0EE6E0A 		vmov.f32	s0, s29
 4271 020a FFF7FEFF 		bl	utils_angle_difference_rad
 4272              	.LVL286:
 4273              		.loc 1 1045 0
 4274 020e 05A9     		add	r1, sp, #20
 4275 0210 04A8     		add	r0, sp, #16
ARM GAS  /tmp/ccvafMs5.s 			page 76


 4276              		.loc 1 1042 0
 4277 0212 B0EE408A 		vmov.f32	s16, s0
 4278              	.LVL287:
 4279              		.loc 1 1045 0
 4280 0216 FFF7FEFF 		bl	sincosf
 4281              	.LVL288:
 4282              		.loc 1 1046 0
 4283 021a 9DED047A 		vldr.32	s14, [sp, #16]
 4284              		.loc 1 1047 0
 4285 021e DDED057A 		vldr.32	s15, [sp, #20]
 4286              		.loc 1 1046 0
 4287 0222 3CEE07CA 		vadd.f32	s24, s24, s14
 4288              	.LVL289:
 4289              		.loc 1 1047 0
 4290 0226 7BEEA7BA 		vadd.f32	s23, s23, s15
 4291              	.LVL290:
 4292              		.loc 1 1049 0
 4293 022a 002F     		cmp	r7, #0
 4294 022c 40F07781 		bne	.L424
 4295              	.L370:
 4296              		.loc 1 1053 0
 4297 0230 032E     		cmp	r6, #3
 4298 0232 12DD     		ble	.L374
 4299              		.loc 1 1053 0 is_stmt 0 discriminator 1
 4300 0234 95ED000A 		vldr.32	s0, [r5]
 4301 0238 F0EE4D0A 		vmov.f32	s1, s26
 4302 023c FFF7FEFF 		bl	utils_angle_difference_rad
 4303              	.LVL291:
 4304 0240 F6EE007A 		vmov.f32	s15, #5.0e-1
 4305 0244 28EE278A 		vmul.f32	s16, s16, s15
 4306              	.LVL292:
 4307 0248 B0EEC00A 		vabs.f32	s0, s0
 4308 024c B0EEC88A 		vabs.f32	s16, s16
 4309 0250 B4EEC80A 		vcmpe.f32	s0, s16
 4310 0254 F1EE10FA 		vmrs	APSR_nzcv, FPSCR
 4311 0258 02D4     		bmi	.L373
 4312              	.L374:
 4313              	.LBE82:
 4314              		.loc 1 1032 0 is_stmt 1
 4315 025a 0136     		adds	r6, r6, #1
 4316              	.LVL293:
 4317 025c 142E     		cmp	r6, #20
 4318 025e B2D1     		bne	.L372
 4319              	.L373:
 4320              	.LBE78:
 4321              		.loc 1 1058 0
 4322 0260 F0EE6B0A 		vmov.f32	s1, s23
 4323 0264 B0EE4C0A 		vmov.f32	s0, s24
 4324 0268 FFF7FEFF 		bl	atan2f
 4325              	.LVL294:
 4326 026c DFED427A 		vldr.32	s15, .L430+72
 4327 0270 DFED406A 		vldr.32	s13, .L430+68
 4328              		.loc 1 1059 0
 4329 0274 039B     		ldr	r3, [sp, #12]
 4330              		.loc 1 1060 0
 4331 0276 9FED3B7A 		vldr.32	s14, .L430+52
 4332              		.loc 1 1058 0
ARM GAS  /tmp/ccvafMs5.s 			page 77


 4333 027a 20EE270A 		vmul.f32	s0, s0, s15
 4334 027e C0EE267A 		vdiv.f32	s15, s0, s13
 4335              	.LVL295:
 4336              		.loc 1 1059 0
 4337 0282 F5EEC07A 		vcmpe.f32	s15, #0
 4338 0286 F1EE10FA 		vmrs	APSR_nzcv, FPSCR
 4339 028a 4CBF     		ite	mi
 4340 028c 0126     		movmi	r6, #1
 4341              	.LVL296:
 4342 028e 0026     		movpl	r6, #0
 4343              		.loc 1 1061 0
 4344 0290 F0EEE77A 		vabs.f32	s15, s15
 4345              	.LVL297:
 4346              		.loc 1 1059 0
 4347 0294 1E70     		strb	r6, [r3]
 4348              		.loc 1 1060 0
 4349 0296 87EE270A 		vdiv.f32	s0, s14, s15
 4350              	.LVL298:
 4351 029a FFF7FEFF 		bl	roundf
 4352              	.LVL299:
 4353              		.loc 1 1063 0
 4354 029e D8F80030 		ldr	r3, [r8]
 4355              		.loc 1 1060 0
 4356 02a2 029A     		ldr	r2, [sp, #8]
 4357 02a4 82ED000A 		vstr.32	s0, [r2]
 4358              		.loc 1 1063 0
 4359 02a8 83F8B860 		strb	r6, [r3, #184]
 4360              		.loc 1 1064 0
 4361 02ac 83ED2F0A 		vstr.32	s0, [r3, #188]
 4362              		.loc 1 1066 0
 4363 02b0 002F     		cmp	r7, #0
 4364 02b2 40F04281 		bne	.L425
 4365              	.LBB84:
 4366              		.loc 1 1071 0
 4367 02b6 94ED008A 		vldr.32	s16, [r4]
 4368              	.LVL300:
 4369 02ba DFED2B7A 		vldr.32	s15, .L430+56
 4370 02be B4EEE78A 		vcmpe.f32	s16, s15
 4371 02c2 F1EE10FA 		vmrs	APSR_nzcv, FPSCR
 4372 02c6 14D5     		bpl	.L382
 4373              	.L377:
 4374              		.loc 1 1071 0 is_stmt 0 discriminator 3
 4375 02c8 9FED1BBA 		vldr.32	s22, .L430+8
 4376 02cc DFED268A 		vldr.32	s17, .L430+56
 4377              	.L380:
 4378              		.loc 1 1072 0 is_stmt 1 discriminator 3
 4379 02d0 84ED008A 		vstr.32	s16, [r4]
 4380              		.loc 1 1073 0 discriminator 3
 4381 02d4 1420     		movs	r0, #20
 4382 02d6 FFF7FEFF 		bl	chThdSleep
 4383              	.LVL301:
 4384              		.loc 1 1071 0 discriminator 3
 4385 02da 38EE0B8A 		vadd.f32	s16, s16, s22
 4386              	.LVL302:
 4387 02de B4EEE88A 		vcmpe.f32	s16, s17
 4388 02e2 F1EE10FA 		vmrs	APSR_nzcv, FPSCR
 4389 02e6 F3D4     		bmi	.L380
ARM GAS  /tmp/ccvafMs5.s 			page 78


 4390              	.LBE84:
 4391              		.loc 1 1076 0
 4392 02e8 002F     		cmp	r7, #0
 4393 02ea 40F03381 		bne	.L381
 4394 02ee D8F80030 		ldr	r3, [r8]
 4395              	.L382:
 4396              		.loc 1 1081 0
 4397 02f2 D3ED2F7A 		vldr.32	s15, [r3, #188]
 4398 02f6 B0EE087A 		vmov.f32	s14, #3.0e+0
 4399 02fa 67EE877A 		vmul.f32	s15, s15, s14
 4400 02fe FDEEE77A 		vcvt.s32.f32	s15, s15
 4401 0302 17EE90AA 		vmov	r10, s15	@ int
 4402              	.LVL303:
 4403              	.LBB85:
 4404              		.loc 1 1085 0
 4405 0306 BAF1000F 		cmp	r10, #0
 4406 030a 40F35681 		ble	.L426
 4407              	.L378:
 4408              	.LBE85:
 4409              		.loc 1 1083 0
 4410 030e 9FED098A 		vldr.32	s16, .L430+4
 4411              	.LVL304:
 4412              	.LBB89:
 4413              	.LBB86:
 4414              		.loc 1 1086 0
 4415 0312 9FED18CA 		vldr.32	s24, .L430+68
 4416              		.loc 1 1096 0
 4417 0316 DFED18CA 		vldr.32	s25, .L430+72
 4418 031a DFF854B0 		ldr	fp, .L430+64
 4419 031e 07EE90AA 		vmov	s15, r10	@ int
 4420              	.LBE86:
 4421              	.LBE89:
 4422              		.loc 1 1082 0
 4423 0322 F0EE488A 		vmov.f32	s17, s16
 4424 0326 B8EEE7BA 		vcvt.f32.s32	s22, s15
 4425              	.LBB90:
 4426              		.loc 1 1085 0
 4427 032a 0026     		movs	r6, #0
 4428 032c 2AE0     		b	.L384
 4429              	.L431:
 4430 032e 00BF     		.align	2
 4431              	.L430:
 4432 0330 00000000 		.word	.LANCHOR29
 4433 0334 00000000 		.word	0
 4434 0338 2EE34D3C 		.word	1011737390
 4435 033c 00000000 		.word	.LANCHOR30
 4436 0340 00000000 		.word	.LANCHOR32
 4437 0344 00000000 		.word	.LANCHOR23
 4438 0348 00000000 		.word	.LANCHOR14
 4439 034c 00000000 		.word	.LANCHOR7
 4440 0350 C0270900 		.word	600000
 4441 0354 00000000 		.word	.LC1
 4442 0358 0C000000 		.word	.LC2
 4443 035c 00000000 		.word	.LANCHOR35
 4444 0360 920A0640 		.word	1074137746
 4445 0364 0000F042 		.word	1123024896
 4446 0368 DB0FC940 		.word	1086918619
ARM GAS  /tmp/ccvafMs5.s 			page 79


 4447 036c 00000000 		.word	.LANCHOR0
 4448 0370 20000000 		.word	.LC3
 4449 0374 DB0F4940 		.word	1078530011
 4450 0378 00003443 		.word	1127481344
 4451              	.LVL305:
 4452              	.L383:
 4453              		.loc 1 1085 0 is_stmt 0 discriminator 2
 4454 037c 5645     		cmp	r6, r10
 4455 037e D8F80030 		ldr	r3, [r8]
 4456 0382 3BD0     		beq	.L427
 4457              	.LVL306:
 4458              	.L384:
 4459              	.LBB87:
 4460              		.loc 1 1086 0 is_stmt 1
 4461 0384 07EE906A 		vmov	s15, r6	@ int
 4462 0388 F8EEE77A 		vcvt.f32.s32	s15, s15
 4463 038c 93ED2F7A 		vldr.32	s14, [r3, #188]
 4464 0390 77EEA77A 		vadd.f32	s15, s15, s15
 4465              		.loc 1 1087 0
 4466 0394 41F28830 		movw	r0, #5000
 4467              		.loc 1 1086 0
 4468 0398 67EE8C7A 		vmul.f32	s15, s15, s24
 4469              	.LBE87:
 4470              		.loc 1 1085 0
 4471 039c 0136     		adds	r6, r6, #1
 4472              	.LVL307:
 4473              	.LBB88:
 4474              		.loc 1 1086 0
 4475 039e 67EE877A 		vmul.f32	s15, s15, s14
 4476 03a2 87EE8B7A 		vdiv.f32	s14, s15, s22
 4477 03a6 84ED007A 		vstr.32	s14, [r4]
 4478              		.loc 1 1087 0
 4479 03aa FFF7FEFF 		bl	chThdSleep
 4480              	.LVL308:
 4481              		.loc 1 1089 0
 4482 03ae 95ED000A 		vldr.32	s0, [r5]
 4483 03b2 D4ED000A 		vldr.32	s1, [r4]
 4484 03b6 FFF7FEFF 		bl	utils_angle_difference_rad
 4485              	.LVL309:
 4486              		.loc 1 1091 0
 4487 03ba 05A9     		add	r1, sp, #20
 4488 03bc 04A8     		add	r0, sp, #16
 4489              		.loc 1 1089 0
 4490 03be F0EE40BA 		vmov.f32	s23, s0
 4491              	.LVL310:
 4492              		.loc 1 1091 0
 4493 03c2 FFF7FEFF 		bl	sincosf
 4494              	.LVL311:
 4495              		.loc 1 1092 0
 4496 03c6 9DED047A 		vldr.32	s14, [sp, #16]
 4497              		.loc 1 1093 0
 4498 03ca DDED057A 		vldr.32	s15, [sp, #20]
 4499              		.loc 1 1092 0
 4500 03ce 78EE878A 		vadd.f32	s17, s17, s14
 4501              	.LVL312:
 4502              		.loc 1 1093 0
 4503 03d2 38EE278A 		vadd.f32	s16, s16, s15
ARM GAS  /tmp/ccvafMs5.s 			page 80


 4504              	.LVL313:
 4505              		.loc 1 1095 0
 4506 03d6 002F     		cmp	r7, #0
 4507 03d8 D0D0     		beq	.L383
 4508              		.loc 1 1096 0
 4509 03da 6BEEACBA 		vmul.f32	s23, s23, s25
 4510              	.LVL314:
 4511 03de CBEE8C7A 		vdiv.f32	s15, s23, s24
 4512 03e2 17EE900A 		vmov	r0, s15
 4513 03e6 FFF7FEFF 		bl	__aeabi_f2d
 4514              	.LVL315:
 4515 03ea 0246     		mov	r2, r0
 4516 03ec 0B46     		mov	r3, r1
 4517 03ee 5846     		mov	r0, fp
 4518 03f0 FFF7FEFF 		bl	commands_printf
 4519              	.LVL316:
 4520              	.LBE88:
 4521              		.loc 1 1085 0
 4522 03f4 5645     		cmp	r6, r10
 4523 03f6 D8F80030 		ldr	r3, [r8]
 4524 03fa C3D1     		bne	.L384
 4525              	.L427:
 4526              	.LBE90:
 4527              	.LBB91:
 4528              	.LBB92:
 4529              		.loc 1 1101 0
 4530 03fc 1FED23CA 		vldr.32	s24, .L430+68
 4531              		.loc 1 1111 0
 4532 0400 5FED23CA 		vldr.32	s25, .L430+72
 4533 0404 DFF8F4A1 		ldr	r10, .L432+56
 4534              	.LVL317:
 4535 0408 03E0     		b	.L386
 4536              	.LVL318:
 4537              	.L385:
 4538              	.LBE92:
 4539              		.loc 1 1100 0 discriminator 2
 4540 040a 013E     		subs	r6, r6, #1
 4541              	.LVL319:
 4542 040c 3AD0     		beq	.L379
 4543              	.LVL320:
 4544              	.L428:
 4545 040e D8F80030 		ldr	r3, [r8]
 4546              	.LVL321:
 4547              	.L386:
 4548              	.LBB93:
 4549              		.loc 1 1101 0
 4550 0412 93ED2F7A 		vldr.32	s14, [r3, #188]
 4551 0416 07EE906A 		vmov	s15, r6	@ int
 4552 041a F8EEE77A 		vcvt.f32.s32	s15, s15
 4553              		.loc 1 1102 0
 4554 041e 41F28830 		movw	r0, #5000
 4555              		.loc 1 1101 0
 4556 0422 77EEA77A 		vadd.f32	s15, s15, s15
 4557 0426 67EE8C7A 		vmul.f32	s15, s15, s24
 4558 042a 67EE877A 		vmul.f32	s15, s15, s14
 4559 042e 87EE8B7A 		vdiv.f32	s14, s15, s22
 4560 0432 84ED007A 		vstr.32	s14, [r4]
ARM GAS  /tmp/ccvafMs5.s 			page 81


 4561              		.loc 1 1102 0
 4562 0436 FFF7FEFF 		bl	chThdSleep
 4563              	.LVL322:
 4564              		.loc 1 1104 0
 4565 043a 95ED000A 		vldr.32	s0, [r5]
 4566 043e D4ED000A 		vldr.32	s1, [r4]
 4567 0442 FFF7FEFF 		bl	utils_angle_difference_rad
 4568              	.LVL323:
 4569              		.loc 1 1106 0
 4570 0446 05A9     		add	r1, sp, #20
 4571 0448 04A8     		add	r0, sp, #16
 4572              		.loc 1 1104 0
 4573 044a F0EE40BA 		vmov.f32	s23, s0
 4574              	.LVL324:
 4575              		.loc 1 1106 0
 4576 044e FFF7FEFF 		bl	sincosf
 4577              	.LVL325:
 4578              		.loc 1 1107 0
 4579 0452 9DED047A 		vldr.32	s14, [sp, #16]
 4580              		.loc 1 1108 0
 4581 0456 DDED057A 		vldr.32	s15, [sp, #20]
 4582              		.loc 1 1107 0
 4583 045a 78EE878A 		vadd.f32	s17, s17, s14
 4584              	.LVL326:
 4585              		.loc 1 1108 0
 4586 045e 38EE278A 		vadd.f32	s16, s16, s15
 4587              	.LVL327:
 4588              		.loc 1 1110 0
 4589 0462 002F     		cmp	r7, #0
 4590 0464 D1D0     		beq	.L385
 4591              		.loc 1 1111 0
 4592 0466 6BEEACBA 		vmul.f32	s23, s23, s25
 4593              	.LVL328:
 4594 046a CBEE8C7A 		vdiv.f32	s15, s23, s24
 4595 046e 17EE900A 		vmov	r0, s15
 4596 0472 FFF7FEFF 		bl	__aeabi_f2d
 4597              	.LVL329:
 4598 0476 0246     		mov	r2, r0
 4599 0478 0B46     		mov	r3, r1
 4600 047a 5046     		mov	r0, r10
 4601 047c FFF7FEFF 		bl	commands_printf
 4602              	.LVL330:
 4603              	.LBE93:
 4604              		.loc 1 1100 0
 4605 0480 013E     		subs	r6, r6, #1
 4606              	.LVL331:
 4607 0482 C4D1     		bne	.L428
 4608              	.LVL332:
 4609              	.L379:
 4610              	.LBE91:
 4611              		.loc 1 1115 0
 4612 0484 F0EE480A 		vmov.f32	s1, s16
 4613 0488 B0EE680A 		vmov.f32	s0, s17
 4614 048c FFF7FEFF 		bl	atan2f
 4615              	.LVL333:
 4616 0490 DFED4C7A 		vldr.32	s15, .L432
 4617 0494 DFED4C6A 		vldr.32	s13, .L432+4
ARM GAS  /tmp/ccvafMs5.s 			page 82


 4618 0498 60EE277A 		vmul.f32	s15, s0, s15
 4619 049c 87EEA67A 		vdiv.f32	s14, s15, s13
 4620 04a0 89ED007A 		vstr.32	s14, [r9]
 4621              		.loc 1 1117 0
 4622 04a4 002F     		cmp	r7, #0
 4623 04a6 78D1     		bne	.L429
 4624              	.L387:
 4625              		.loc 1 1121 0
 4626 04a8 4846     		mov	r0, r9
 4627 04aa FFF7FEFF 		bl	utils_norm_angle
 4628              	.LVL334:
 4629              	.L388:
 4630              		.loc 1 1128 0
 4631 04ae 4748     		ldr	r0, .L432+8
 4632              		.loc 1 1127 0
 4633 04b0 4749     		ldr	r1, .L432+12
 4634 04b2 0022     		movs	r2, #0
 4635 04b4 0A60     		str	r2, [r1]	@ float
 4636              		.loc 1 1128 0
 4637 04b6 0260     		str	r2, [r0]	@ float
 4638              		.loc 1 1129 0
 4639 04b8 464A     		ldr	r2, .L432+16
 4640 04ba 0023     		movs	r3, #0
 4641 04bc 1370     		strb	r3, [r2]
 4642              		.loc 1 1130 0
 4643 04be 464A     		ldr	r2, .L432+20
 4644 04c0 0721     		movs	r1, #7
 4645 04c2 1170     		strb	r1, [r2]
 4646              		.loc 1 1131 0
 4647 04c4 454A     		ldr	r2, .L432+24
 4648 04c6 1370     		strb	r3, [r2]
 4649              		.loc 1 1132 0
 4650 04c8 FFF7FEFF 		bl	stop_pwm_hw
 4651              	.LVL335:
 4652              		.loc 1 1135 0
 4653 04cc B5EE409A 		vcmp.f32	s18, #0
 4654 04d0 D8F80030 		ldr	r3, [r8]
 4655              		.loc 1 1140 0
 4656 04d4 0198     		ldr	r0, [sp, #4]
 4657              		.loc 1 1135 0
 4658 04d6 F1EE10FA 		vmrs	APSR_nzcv, FPSCR
 4659 04da 14BF     		ite	ne
 4660 04dc 0122     		movne	r2, #1
 4661 04de 0022     		moveq	r2, #0
 4662 04e0 83F8B820 		strb	r2, [r3, #184]
 4663              		.loc 1 1140 0
 4664 04e4 B0EE690A 		vmov.f32	s0, s19
 4665              		.loc 1 1136 0
 4666 04e8 83ED2DAA 		vstr.32	s20, [r3, #180]
 4667              		.loc 1 1137 0
 4668 04ec C3ED2FAA 		vstr.32	s21, [r3, #188]
 4669              		.loc 1 1140 0
 4670 04f0 FFF7FEFF 		bl	timeout_configure
 4671              	.LVL336:
 4672              		.loc 1 1143 0
 4673 04f4 07B0     		add	sp, sp, #28
 4674              		.cfi_remember_state
ARM GAS  /tmp/ccvafMs5.s 			page 83


 4675              		.cfi_def_cfa_offset 92
 4676              		@ sp needed
 4677 04f6 BDEC0E8B 		vldm	sp!, {d8-d14}
 4678              		.cfi_restore 92
 4679              		.cfi_restore 93
 4680              		.cfi_restore 90
 4681              		.cfi_restore 91
 4682              		.cfi_restore 88
 4683              		.cfi_restore 89
 4684              		.cfi_restore 86
 4685              		.cfi_restore 87
 4686              		.cfi_restore 84
 4687              		.cfi_restore 85
 4688              		.cfi_restore 82
 4689              		.cfi_restore 83
 4690              		.cfi_restore 80
 4691              		.cfi_restore 81
 4692              		.cfi_def_cfa_offset 36
 4693              	.LVL337:
 4694 04fa BDE8F04F 		pop	{r4, r5, r6, r7, r8, r9, r10, fp, lr}
 4695              		.cfi_restore 14
 4696              		.cfi_restore 11
 4697              		.cfi_restore 10
 4698              		.cfi_restore 9
 4699              		.cfi_restore 8
 4700              		.cfi_restore 7
 4701              		.cfi_restore 6
 4702              		.cfi_restore 5
 4703              		.cfi_restore 4
 4704              		.cfi_def_cfa_offset 0
 4705              	.LVL338:
 4706              		.loc 1 1142 0
 4707 04fe FFF7FEBF 		b	mc_interface_unlock
 4708              	.LVL339:
 4709              	.L423:
 4710              		.cfi_restore_state
 4711              	.LBB94:
 4712              	.LBB76:
 4713              		.loc 1 1022 0
 4714 0502 68EE0E7A 		vmul.f32	s15, s16, s28
 4715 0506 C7EEAD7A 		vdiv.f32	s15, s15, s27
 4716 050a 17EE900A 		vmov	r0, s15
 4717 050e FFF7FEFF 		bl	__aeabi_f2d
 4718              	.LVL340:
 4719 0512 0246     		mov	r2, r0
 4720 0514 0B46     		mov	r3, r1
 4721 0516 5846     		mov	r0, fp
 4722 0518 FFF7FEFF 		bl	commands_printf
 4723              	.LVL341:
 4724 051c 2CE6     		b	.L361
 4725              	.LVL342:
 4726              	.L424:
 4727              	.LBE76:
 4728              	.LBE94:
 4729              	.LBB95:
 4730              	.LBB83:
 4731              		.loc 1 1050 0
ARM GAS  /tmp/ccvafMs5.s 			page 84


 4732 051e 68EE0E7A 		vmul.f32	s15, s16, s28
 4733 0522 C7EEAD7A 		vdiv.f32	s15, s15, s27
 4734 0526 17EE900A 		vmov	r0, s15
 4735 052a FFF7FEFF 		bl	__aeabi_f2d
 4736              	.LVL343:
 4737 052e 0246     		mov	r2, r0
 4738 0530 0B46     		mov	r3, r1
 4739 0532 5846     		mov	r0, fp
 4740 0534 FFF7FEFF 		bl	commands_printf
 4741              	.LVL344:
 4742 0538 7AE6     		b	.L370
 4743              	.LVL345:
 4744              	.L425:
 4745              	.LBE83:
 4746              	.LBE95:
 4747              		.loc 1 1067 0
 4748 053a 2948     		ldr	r0, .L432+28
 4749 053c FFF7FEFF 		bl	commands_printf
 4750              	.LVL346:
 4751              	.LBB96:
 4752              		.loc 1 1071 0
 4753 0540 94ED008A 		vldr.32	s16, [r4]
 4754              	.LVL347:
 4755 0544 DFED277A 		vldr.32	s15, .L432+32
 4756 0548 B4EEE78A 		vcmpe.f32	s16, s15
 4757 054c F1EE10FA 		vmrs	APSR_nzcv, FPSCR
 4758 0550 3FF5BAAE 		bmi	.L377
 4759              	.L381:
 4760              	.LBE96:
 4761              		.loc 1 1077 0
 4762 0554 2448     		ldr	r0, .L432+36
 4763 0556 FFF7FEFF 		bl	commands_printf
 4764              	.LVL348:
 4765              		.loc 1 1078 0
 4766 055a FFF7FEFF 		bl	encoder_read_deg
 4767              	.LVL349:
 4768 055e 10EE100A 		vmov	r0, s0
 4769 0562 FFF7FEFF 		bl	__aeabi_f2d
 4770              	.LVL350:
 4771 0566 0246     		mov	r2, r0
 4772 0568 0B46     		mov	r3, r1
 4773 056a 2048     		ldr	r0, .L432+40
 4774 056c FFF7FEFF 		bl	commands_printf
 4775              	.LVL351:
 4776 0570 D8F80030 		ldr	r3, [r8]
 4777              		.loc 1 1081 0
 4778 0574 D3ED2F7A 		vldr.32	s15, [r3, #188]
 4779 0578 B0EE087A 		vmov.f32	s14, #3.0e+0
 4780 057c 67EE877A 		vmul.f32	s15, s15, s14
 4781 0580 FDEEE77A 		vcvt.s32.f32	s15, s15
 4782 0584 17EE90AA 		vmov	r10, s15	@ int
 4783              	.LVL352:
 4784              	.LBB97:
 4785              		.loc 1 1085 0
 4786 0588 BAF1000F 		cmp	r10, #0
 4787 058c 3FF7BFAE 		bgt	.L378
 4788              	.LBE97:
ARM GAS  /tmp/ccvafMs5.s 			page 85


 4789              		.loc 1 1083 0
 4790 0590 9FED178A 		vldr.32	s16, .L432+44
 4791              	.LVL353:
 4792              		.loc 1 1082 0
 4793 0594 F0EE488A 		vmov.f32	s17, s16
 4794 0598 74E7     		b	.L379
 4795              	.LVL354:
 4796              	.L429:
 4797              		.loc 1 1118 0
 4798 059a 17EE100A 		vmov	r0, s14
 4799 059e FFF7FEFF 		bl	__aeabi_f2d
 4800              	.LVL355:
 4801 05a2 0246     		mov	r2, r0
 4802 05a4 0B46     		mov	r3, r1
 4803 05a6 1348     		ldr	r0, .L432+48
 4804 05a8 FFF7FEFF 		bl	commands_printf
 4805              	.LVL356:
 4806              		.loc 1 1121 0
 4807 05ac 4846     		mov	r0, r9
 4808 05ae FFF7FEFF 		bl	utils_norm_angle
 4809              	.LVL357:
 4810              		.loc 1 1124 0
 4811 05b2 1148     		ldr	r0, .L432+52
 4812 05b4 FFF7FEFF 		bl	commands_printf
 4813              	.LVL358:
 4814 05b8 79E7     		b	.L388
 4815              	.LVL359:
 4816              	.L426:
 4817              		.loc 1 1115 0
 4818 05ba 0023     		movs	r3, #0
 4819 05bc C9F80030 		str	r3, [r9]	@ float
 4820 05c0 72E7     		b	.L387
 4821              	.L433:
 4822 05c2 00BF     		.align	2
 4823              	.L432:
 4824 05c4 00003443 		.word	1127481344
 4825 05c8 DB0F4940 		.word	1078530011
 4826 05cc 00000000 		.word	.LANCHOR23
 4827 05d0 00000000 		.word	.LANCHOR32
 4828 05d4 00000000 		.word	.LANCHOR29
 4829 05d8 00000000 		.word	.LANCHOR14
 4830 05dc 00000000 		.word	.LANCHOR7
 4831 05e0 28000000 		.word	.LC4
 4832 05e4 DB0FC940 		.word	1086918619
 4833 05e8 0C000000 		.word	.LC2
 4834 05ec 48000000 		.word	.LC5
 4835 05f0 00000000 		.word	0
 4836 05f4 54000000 		.word	.LC6
 4837 05f8 60000000 		.word	.LC7
 4838 05fc 20000000 		.word	.LC3
 4839              		.cfi_endproc
 4840              	.LFE296:
 4841              		.size	mcpwm_foc_encoder_detect, .-mcpwm_foc_encoder_detect
 4842              		.section	.text.mcpwm_foc_measure_resistance,"ax",%progbits
 4843              		.align	1
 4844              		.p2align 4,,15
 4845              		.global	mcpwm_foc_measure_resistance
ARM GAS  /tmp/ccvafMs5.s 			page 86


 4846              		.syntax unified
 4847              		.thumb
 4848              		.thumb_func
 4849              		.fpu fpv4-sp-d16
 4850              		.type	mcpwm_foc_measure_resistance, %function
 4851              	mcpwm_foc_measure_resistance:
 4852              	.LFB297:
 4853              		.loc 1 1158 0
 4854              		.cfi_startproc
 4855              		@ args = 0, pretend = 0, frame = 8
 4856              		@ frame_needed = 0, uses_anonymous_args = 0
 4857              	.LVL360:
 4858 0000 2DE9F04F 		push	{r4, r5, r6, r7, r8, r9, r10, fp, lr}
 4859              		.cfi_def_cfa_offset 36
 4860              		.cfi_offset 4, -36
 4861              		.cfi_offset 5, -32
 4862              		.cfi_offset 6, -28
 4863              		.cfi_offset 7, -24
 4864              		.cfi_offset 8, -20
 4865              		.cfi_offset 9, -16
 4866              		.cfi_offset 10, -12
 4867              		.cfi_offset 11, -8
 4868              		.cfi_offset 14, -4
 4869 0004 2DED048B 		vpush.64	{d8, d9}
 4870              		.cfi_def_cfa_offset 52
 4871              		.cfi_offset 80, -52
 4872              		.cfi_offset 81, -48
 4873              		.cfi_offset 82, -44
 4874              		.cfi_offset 83, -40
 4875 0008 83B0     		sub	sp, sp, #12
 4876              		.cfi_def_cfa_offset 64
 4877              		.loc 1 1158 0
 4878 000a F0EE408A 		vmov.f32	s17, s0
 4879              		.loc 1 1162 0
 4880 000e 9FED388A 		vldr.32	s16, .L441
 4881              		.loc 1 1161 0
 4882 0012 DFF8F4A0 		ldr	r10, .L441+24
 4883              		.loc 1 1163 0
 4884 0016 374E     		ldr	r6, .L441+4
 4885              		.loc 1 1164 0
 4886 0018 DFF8F090 		ldr	r9, .L441+28
 4887              		.loc 1 1165 0
 4888 001c 364F     		ldr	r7, .L441+8
 4889              		.loc 1 1166 0
 4890 001e DFF8F080 		ldr	r8, .L441+32
 4891              		.loc 1 1178 0
 4892 0022 364C     		ldr	r4, .L441+12
 4893              		.loc 1 1158 0
 4894 0024 0546     		mov	r5, r0
 4895              		.loc 1 1159 0
 4896 0026 FFF7FEFF 		bl	mc_interface_lock
 4897              	.LVL361:
 4898              		.loc 1 1162 0
 4899 002a 354A     		ldr	r2, .L441+16
 4900              		.loc 1 1165 0
 4901 002c 0223     		movs	r3, #2
 4902              		.loc 1 1161 0
ARM GAS  /tmp/ccvafMs5.s 			page 87


 4903 002e 0121     		movs	r1, #1
 4904 0030 8AF80010 		strb	r1, [r10]
 4905              		.loc 1 1162 0
 4906 0034 82ED008A 		vstr.32	s16, [r2]
 4907              		.loc 1 1163 0
 4908 0038 86ED008A 		vstr.32	s16, [r6]
 4909              		.loc 1 1164 0
 4910 003c C9ED008A 		vstr.32	s17, [r9]
 4911              		.loc 1 1165 0
 4912 0040 3B70     		strb	r3, [r7]
 4913              		.loc 1 1166 0
 4914 0042 88F80030 		strb	r3, [r8]
 4915              		.loc 1 1169 0
 4916 0046 FFF7FEFF 		bl	timeout_get_timeout_msec
 4917              	.LVL362:
 4918 004a 0190     		str	r0, [sp, #4]
 4919              	.LVL363:
 4920              		.loc 1 1170 0
 4921 004c FFF7FEFF 		bl	timeout_get_brake_current
 4922              	.LVL364:
 4923 0050 F0EE408A 		vmov.f32	s17, s0
 4924              	.LVL365:
 4925              		.loc 1 1171 0
 4926 0054 FFF7FEFF 		bl	timeout_reset
 4927              	.LVL366:
 4928              		.loc 1 1172 0
 4929 0058 B0EE480A 		vmov.f32	s0, s16
 4930 005c 4EF66020 		movw	r0, #60000
 4931 0060 FFF7FEFF 		bl	timeout_configure
 4932              	.LVL367:
 4933              		.loc 1 1175 0
 4934 0064 41F28830 		movw	r0, #5000
 4935 0068 FFF7FEFF 		bl	chThdSleep
 4936              	.LVL368:
 4937              		.loc 1 1180 0
 4938 006c 0023     		movs	r3, #0
 4939              		.loc 1 1178 0
 4940 006e 84ED018A 		vstr.32	s16, [r4, #4]
 4941              		.loc 1 1183 0
 4942 0072 42F2117B 		movw	fp, #10001
 4943              		.loc 1 1179 0
 4944 0076 84ED028A 		vstr.32	s16, [r4, #8]
 4945              		.loc 1 1180 0
 4946 007a 2360     		str	r3, [r4]
 4947              	.LVL369:
 4948              		.loc 1 1183 0
 4949 007c 04E0     		b	.L435
 4950              	.LVL370:
 4951              	.L436:
 4952              		.loc 1 1184 0
 4953 007e FFF7FEFF 		bl	chThdSleep
 4954              	.LVL371:
 4955              		.loc 1 1187 0
 4956 0082 BBF1010B 		subs	fp, fp, #1
 4957              	.LVL372:
 4958 0086 04D0     		beq	.L437
 4959              	.LVL373:
ARM GAS  /tmp/ccvafMs5.s 			page 88


 4960              	.L435:
 4961              		.loc 1 1183 0
 4962 0088 2268     		ldr	r2, [r4]
 4963 008a AA42     		cmp	r2, r5
 4964              		.loc 1 1184 0
 4965 008c 4FF00A00 		mov	r0, #10
 4966              		.loc 1 1183 0
 4967 0090 F5DB     		blt	.L436
 4968              	.LVL374:
 4969              	.L437:
 4970              		.loc 1 1192 0
 4971 0092 94ED016A 		vldr.32	s12, [r4, #4]
 4972 0096 94ED007A 		vldr.32	s14, [r4]	@ int
 4973              		.loc 1 1193 0
 4974 009a D4ED026A 		vldr.32	s13, [r4, #8]
 4975 009e D4ED007A 		vldr.32	s15, [r4]	@ int
 4976              		.loc 1 1192 0
 4977 00a2 B8EEC77A 		vcvt.f32.s32	s14, s14
 4978              		.loc 1 1193 0
 4979 00a6 F8EEE77A 		vcvt.f32.s32	s15, s15
 4980              		.loc 1 1192 0
 4981 00aa 86EE078A 		vdiv.f32	s16, s12, s14
 4982              	.LVL375:
 4983              		.loc 1 1196 0
 4984 00ae 0022     		movs	r2, #0
 4985              		.loc 1 1198 0
 4986 00b0 0023     		movs	r3, #0
 4987              		.loc 1 1199 0
 4988 00b2 0721     		movs	r1, #7
 4989              		.loc 1 1196 0
 4990 00b4 3260     		str	r2, [r6]	@ float
 4991              		.loc 1 1197 0
 4992 00b6 C9F80020 		str	r2, [r9]	@ float
 4993              		.loc 1 1198 0
 4994 00ba 8AF80030 		strb	r3, [r10]
 4995              		.loc 1 1199 0
 4996 00be 3970     		strb	r1, [r7]
 4997              		.loc 1 1200 0
 4998 00c0 88F80030 		strb	r3, [r8]
 4999              		.loc 1 1193 0
 5000 00c4 86EEA79A 		vdiv.f32	s18, s13, s15
 5001              	.LVL376:
 5002              		.loc 1 1201 0
 5003 00c8 FFF7FEFF 		bl	stop_pwm_hw
 5004              	.LVL377:
 5005              		.loc 1 1204 0
 5006 00cc 0198     		ldr	r0, [sp, #4]
 5007 00ce B0EE680A 		vmov.f32	s0, s17
 5008 00d2 FFF7FEFF 		bl	timeout_configure
 5009              	.LVL378:
 5010              		.loc 1 1206 0
 5011 00d6 FFF7FEFF 		bl	mc_interface_unlock
 5012              	.LVL379:
 5013              		.loc 1 1208 0
 5014 00da 89EE080A 		vdiv.f32	s0, s18, s16
 5015 00de DFED097A 		vldr.32	s15, .L441+20
 5016 00e2 20EE270A 		vmul.f32	s0, s0, s15
ARM GAS  /tmp/ccvafMs5.s 			page 89


 5017              		.loc 1 1209 0
 5018 00e6 03B0     		add	sp, sp, #12
 5019              		.cfi_def_cfa_offset 52
 5020              		@ sp needed
 5021 00e8 BDEC048B 		vldm	sp!, {d8-d9}
 5022              		.cfi_restore 82
 5023              		.cfi_restore 83
 5024              		.cfi_restore 80
 5025              		.cfi_restore 81
 5026              		.cfi_def_cfa_offset 36
 5027              	.LVL380:
 5028 00ec BDE8F08F 		pop	{r4, r5, r6, r7, r8, r9, r10, fp, pc}
 5029              	.LVL381:
 5030              	.L442:
 5031              		.align	2
 5032              	.L441:
 5033 00f0 00000000 		.word	0
 5034 00f4 00000000 		.word	.LANCHOR32
 5035 00f8 00000000 		.word	.LANCHOR14
 5036 00fc 00000000 		.word	.LANCHOR17
 5037 0100 00000000 		.word	.LANCHOR30
 5038 0104 ABAA2A3F 		.word	1059760811
 5039 0108 00000000 		.word	.LANCHOR29
 5040 010c 00000000 		.word	.LANCHOR23
 5041 0110 00000000 		.word	.LANCHOR7
 5042              		.cfi_endproc
 5043              	.LFE297:
 5044              		.size	mcpwm_foc_measure_resistance, .-mcpwm_foc_measure_resistance
 5045              		.section	.text.mcpwm_foc_measure_inductance,"ax",%progbits
 5046              		.align	1
 5047              		.p2align 4,,15
 5048              		.global	mcpwm_foc_measure_inductance
 5049              		.syntax unified
 5050              		.thumb
 5051              		.thumb_func
 5052              		.fpu fpv4-sp-d16
 5053              		.type	mcpwm_foc_measure_inductance, %function
 5054              	mcpwm_foc_measure_inductance:
 5055              	.LFB298:
 5056              		.loc 1 1226 0
 5057              		.cfi_startproc
 5058              		@ args = 0, pretend = 0, frame = 0
 5059              		@ frame_needed = 0, uses_anonymous_args = 0
 5060              	.LVL382:
 5061 0000 2DE9F84F 		push	{r3, r4, r5, r6, r7, r8, r9, r10, fp, lr}
 5062              		.cfi_def_cfa_offset 40
 5063              		.cfi_offset 3, -40
 5064              		.cfi_offset 4, -36
 5065              		.cfi_offset 5, -32
 5066              		.cfi_offset 6, -28
 5067              		.cfi_offset 7, -24
 5068              		.cfi_offset 8, -20
 5069              		.cfi_offset 9, -16
 5070              		.cfi_offset 10, -12
 5071              		.cfi_offset 11, -8
 5072              		.cfi_offset 14, -4
 5073              		.loc 1 1227 0
ARM GAS  /tmp/ccvafMs5.s 			page 90


 5074 0004 394D     		ldr	r5, .L459
 5075              		.loc 1 1226 0
 5076 0006 2DED028B 		vpush.64	{d8}
 5077              		.cfi_def_cfa_offset 48
 5078              		.cfi_offset 80, -48
 5079              		.cfi_offset 81, -44
 5080              		.loc 1 1227 0
 5081 000a DFED398A 		vldr.32	s17, .L459+4
 5082              		.loc 1 1229 0
 5083 000e 0027     		movs	r7, #0
 5084              		.loc 1 1226 0
 5085 0010 8A46     		mov	r10, r1
 5086              		.loc 1 1227 0
 5087 0012 C5ED018A 		vstr.32	s17, [r5, #4]
 5088              		.loc 1 1226 0
 5089 0016 8046     		mov	r8, r0
 5090              		.loc 1 1228 0
 5091 0018 C5ED028A 		vstr.32	s17, [r5, #8]
 5092              		.loc 1 1229 0
 5093 001c 2F60     		str	r7, [r5]
 5094              		.loc 1 1230 0
 5095 001e 85ED040A 		vstr.32	s0, [r5, #16]
 5096              		.loc 1 1233 0
 5097 0022 FFF7FEFF 		bl	timeout_get_timeout_msec
 5098              	.LVL383:
 5099 0026 8346     		mov	fp, r0
 5100              	.LVL384:
 5101              		.loc 1 1234 0
 5102 0028 FFF7FEFF 		bl	timeout_get_brake_current
 5103              	.LVL385:
 5104 002c B0EE408A 		vmov.f32	s16, s0
 5105              	.LVL386:
 5106              		.loc 1 1235 0
 5107 0030 FFF7FEFF 		bl	timeout_reset
 5108              	.LVL387:
 5109              		.loc 1 1236 0
 5110 0034 B0EE680A 		vmov.f32	s0, s17
 5111 0038 4EF66020 		movw	r0, #60000
 5112 003c FFF7FEFF 		bl	timeout_configure
 5113              	.LVL388:
 5114              		.loc 1 1238 0
 5115 0040 FFF7FEFF 		bl	mc_interface_lock
 5116              	.LVL389:
 5117              	.LBB98:
 5118              		.loc 1 1241 0
 5119 0044 B845     		cmp	r8, r7
 5120 0046 10DD     		ble	.L444
 5121              	.LBE98:
 5122              		.loc 1 1240 0
 5123 0048 3C46     		mov	r4, r7
 5124              	.LBB99:
 5125              		.loc 1 1242 0
 5126 004a 4FF00109 		mov	r9, #1
 5127              		.loc 1 1247 0
 5128 004e 4CF25036 		movw	r6, #50000
 5129              	.LVL390:
 5130              	.L448:
ARM GAS  /tmp/ccvafMs5.s 			page 91


 5131              		.loc 1 1242 0
 5132 0052 85F80C90 		strb	r9, [r5, #12]
 5133 0056 02E0     		b	.L445
 5134              	.L458:
 5135              		.loc 1 1250 0
 5136 0058 2B7B     		ldrb	r3, [r5, #12]	@ zero_extendqisi2
 5137 005a 002B     		cmp	r3, #0
 5138 005c 42D0     		beq	.L457
 5139              	.L445:
 5140              		.loc 1 1246 0
 5141 005e 0134     		adds	r4, r4, #1
 5142              	.LVL391:
 5143              		.loc 1 1245 0
 5144 0060 0120     		movs	r0, #1
 5145 0062 FFF7FEFF 		bl	chThdSleep
 5146              	.LVL392:
 5147              		.loc 1 1247 0
 5148 0066 B442     		cmp	r4, r6
 5149 0068 F6DD     		ble	.L458
 5150              	.LVL393:
 5151              	.L444:
 5152              	.LBE99:
 5153              		.loc 1 1258 0
 5154 006a B0EE480A 		vmov.f32	s0, s16
 5155 006e 5846     		mov	r0, fp
 5156 0070 FFF7FEFF 		bl	timeout_configure
 5157              	.LVL394:
 5158              		.loc 1 1260 0
 5159 0074 FFF7FEFF 		bl	mc_interface_unlock
 5160              	.LVL395:
 5161              		.loc 1 1264 0
 5162 0078 1E4B     		ldr	r3, .L459+8
 5163              		.loc 1 1262 0
 5164 007a D5ED014A 		vldr.32	s9, [r5, #4]
 5165 007e D5ED006A 		vldr.32	s13, [r5]	@ int
 5166              		.loc 1 1263 0
 5167 0082 95ED025A 		vldr.32	s10, [r5, #8]
 5168 0086 95ED007A 		vldr.32	s14, [r5]	@ int
 5169              		.loc 1 1264 0
 5170 008a D3ED0B7A 		vldr.32	s15, [r3, #44]	@ int
 5171 008e 95ED046A 		vldr.32	s12, [r5, #16]
 5172 0092 9FED194A 		vldr.32	s8, .L459+12
 5173 0096 DFED195A 		vldr.32	s11, .L459+16
 5174 009a F8EE677A 		vcvt.f32.u32	s15, s15
 5175              		.loc 1 1262 0
 5176 009e F8EEE66A 		vcvt.f32.s32	s13, s13
 5177              		.loc 1 1264 0
 5178 00a2 67EE867A 		vmul.f32	s15, s15, s12
 5179              		.loc 1 1263 0
 5180 00a6 B8EEC77A 		vcvt.f32.s32	s14, s14
 5181              		.loc 1 1264 0
 5182 00aa 87EE846A 		vdiv.f32	s12, s15, s8
 5183              		.loc 1 1262 0
 5184 00ae 84EEA64A 		vdiv.f32	s8, s9, s13
 5185              	.LVL396:
 5186              		.loc 1 1263 0
 5187 00b2 C5EE077A 		vdiv.f32	s15, s10, s14
ARM GAS  /tmp/ccvafMs5.s 			page 92


 5188              	.LVL397:
 5189              		.loc 1 1264 0
 5190 00b6 36EE656A 		vsub.f32	s12, s12, s11
 5191              	.LVL398:
 5192              		.loc 1 1267 0
 5193 00ba BAF1000F 		cmp	r10, #0
 5194 00be 01D0     		beq	.L447
 5195              		.loc 1 1268 0
 5196 00c0 8AED004A 		vstr.32	s8, [r10]
 5197              	.L447:
 5198              		.loc 1 1271 0
 5199 00c4 27EE866A 		vmul.f32	s12, s15, s12
 5200              	.LVL399:
 5201              		.loc 1 1272 0
 5202 00c8 BDEC028B 		vldm	sp!, {d8}
 5203              		.cfi_remember_state
 5204              		.cfi_restore 80
 5205              		.cfi_restore 81
 5206              		.cfi_def_cfa_offset 40
 5207              	.LVL400:
 5208              		.loc 1 1271 0
 5209 00cc 86EE040A 		vdiv.f32	s0, s12, s8
 5210 00d0 9FED0B7A 		vldr.32	s14, .L459+20
 5211 00d4 DFED0B7A 		vldr.32	s15, .L459+24
 5212              	.LVL401:
 5213 00d8 20EE070A 		vmul.f32	s0, s0, s14
 5214 00dc 20EE270A 		vmul.f32	s0, s0, s15
 5215              		.loc 1 1272 0
 5216 00e0 BDE8F88F 		pop	{r3, r4, r5, r6, r7, r8, r9, r10, fp, pc}
 5217              	.LVL402:
 5218              	.L457:
 5219              		.cfi_restore_state
 5220              	.LBB100:
 5221              		.loc 1 1241 0
 5222 00e4 0137     		adds	r7, r7, #1
 5223              	.LVL403:
 5224 00e6 B845     		cmp	r8, r7
 5225 00e8 B3D1     		bne	.L448
 5226 00ea BEE7     		b	.L444
 5227              	.L460:
 5228              		.align	2
 5229              	.L459:
 5230 00ec 00000000 		.word	.LANCHOR17
 5231 00f0 00000000 		.word	0
 5232 00f4 00000140 		.word	1073807360
 5233 00f8 A037204D 		.word	1293957024
 5234 00fc 57BDBF34 		.word	884981079
 5235 0100 00247449 		.word	1232348160
 5236 0104 ABAA2A3F 		.word	1059760811
 5237              	.LBE100:
 5238              		.cfi_endproc
 5239              	.LFE298:
 5240              		.size	mcpwm_foc_measure_inductance, .-mcpwm_foc_measure_inductance
 5241              		.section	.text.mcpwm_foc_measure_res_ind,"ax",%progbits
 5242              		.align	1
 5243              		.p2align 4,,15
 5244              		.global	mcpwm_foc_measure_res_ind
ARM GAS  /tmp/ccvafMs5.s 			page 93


 5245              		.syntax unified
 5246              		.thumb
 5247              		.thumb_func
 5248              		.fpu fpv4-sp-d16
 5249              		.type	mcpwm_foc_measure_res_ind, %function
 5250              	mcpwm_foc_measure_res_ind:
 5251              	.LFB299:
 5252              		.loc 1 1286 0
 5253              		.cfi_startproc
 5254              		@ args = 0, pretend = 0, frame = 8
 5255              		@ frame_needed = 0, uses_anonymous_args = 0
 5256              	.LVL404:
 5257 0000 2DE9F043 		push	{r4, r5, r6, r7, r8, r9, lr}
 5258              		.cfi_def_cfa_offset 28
 5259              		.cfi_offset 4, -28
 5260              		.cfi_offset 5, -24
 5261              		.cfi_offset 6, -20
 5262              		.cfi_offset 7, -16
 5263              		.cfi_offset 8, -12
 5264              		.cfi_offset 9, -8
 5265              		.cfi_offset 14, -4
 5266              		.loc 1 1287 0
 5267 0004 734D     		ldr	r5, .L477
 5268              		.loc 1 1291 0
 5269 0006 744A     		ldr	r2, .L477+4
 5270              		.loc 1 1287 0
 5271 0008 2B68     		ldr	r3, [r5]
 5272              		.loc 1 1296 0
 5273 000a 744C     		ldr	r4, .L477+8
 5274              		.loc 1 1287 0
 5275 000c D3F8AC90 		ldr	r9, [r3, #172]	@ float
 5276              	.LVL405:
 5277              		.loc 1 1292 0
 5278 0010 734E     		ldr	r6, .L477+12
 5279              		.loc 1 1288 0
 5280 0012 D3F8A480 		ldr	r8, [r3, #164]	@ float
 5281              	.LVL406:
 5282              		.loc 1 1289 0
 5283 0016 D3F8A870 		ldr	r7, [r3, #168]	@ float
 5284              	.LVL407:
 5285              		.loc 1 1286 0
 5286 001a 2DED048B 		vpush.64	{d8, d9}
 5287              		.cfi_def_cfa_offset 44
 5288              		.cfi_offset 80, -44
 5289              		.cfi_offset 81, -40
 5290              		.cfi_offset 82, -36
 5291              		.cfi_offset 83, -32
 5292              		.loc 1 1291 0
 5293 001e C3F8AC20 		str	r2, [r3, #172]	@ float
 5294              		.loc 1 1293 0
 5295 0022 704A     		ldr	r2, .L477+16
 5296              		.loc 1 1292 0
 5297 0024 C3F8A460 		str	r6, [r3, #164]	@ float
 5298              		.loc 1 1293 0
 5299 0028 C3F8A820 		str	r2, [r3, #168]	@ float
 5300              		.loc 1 1295 0
 5301 002c D3ED2B7A 		vldr.32	s15, [r3, #172]
ARM GAS  /tmp/ccvafMs5.s 			page 94


 5302              		.loc 1 1296 0
 5303 0030 D4F800C0 		ldr	ip, [r4]
 5304 0034 6C4A     		ldr	r2, .L477+20
 5305              		.loc 1 1295 0
 5306 0036 6D4E     		ldr	r6, .L477+24
 5307              		.loc 1 1296 0
 5308 0038 4CF0020C 		orr	ip, ip, #2
 5309 003c C4F800C0 		str	ip, [r4]
 5310 0040 D2F800C0 		ldr	ip, [r2]
 5311              		.loc 1 1295 0
 5312 0044 FDEEE77A 		vcvt.s32.f32	s15, s15
 5313              		.loc 1 1296 0
 5314 0048 4CF0020C 		orr	ip, ip, #2
 5315 004c C2F800C0 		str	ip, [r2]
 5316              		.loc 1 1295 0
 5317 0050 17EE90CA 		vmov	ip, s15	@ int
 5318              		.loc 1 1296 0
 5319 0054 4FF0020E 		mov	lr, #2
 5320              		.loc 1 1295 0
 5321 0058 96FBFCF6 		sdiv	r6, r6, ip
 5322              	.LVL408:
 5323              		.loc 1 1296 0
 5324 005c E662     		str	r6, [r4, #44]
 5325 005e C2F834E0 		str	lr, [r2, #52]
 5326 0062 2668     		ldr	r6, [r4]
 5327              	.LVL409:
 5328 0064 26F00206 		bic	r6, r6, #2
 5329 0068 2660     		str	r6, [r4]
 5330 006a 1468     		ldr	r4, [r2]
 5331 006c 24F00204 		bic	r4, r4, #2
 5332 0070 1460     		str	r4, [r2]
 5333              	.LVL410:
 5334              	.LBB101:
 5335              		.loc 1 1300 0
 5336 0072 D3ED017A 		vldr.32	s15, [r3, #4]
 5337 0076 B6EE007A 		vmov.f32	s14, #5.0e-1
 5338 007a 67EE877A 		vmul.f32	s15, s15, s14
 5339 007e B0EE008A 		vmov.f32	s16, #2.0e+0
 5340 0082 F4EEC87A 		vcmpe.f32	s15, s16
 5341 0086 F1EE10FA 		vmrs	APSR_nzcv, FPSCR
 5342              	.LBE101:
 5343              		.loc 1 1286 0
 5344 008a 83B0     		sub	sp, sp, #12
 5345              		.cfi_def_cfa_offset 56
 5346              		.loc 1 1286 0
 5347 008c 0446     		mov	r4, r0
 5348 008e 0E46     		mov	r6, r1
 5349              	.LBB102:
 5350              		.loc 1 1300 0
 5351 0090 26DD     		ble	.L462
 5352              		.loc 1 1303 0
 5353 0092 F7EE008A 		vmov.f32	s17, #1.0e+0
 5354              		.loc 1 1300 0
 5355 0096 B7EE089A 		vmov.f32	s18, #1.5e+0
 5356 009a 0BE0     		b	.L465
 5357              	.LVL411:
 5358              	.L476:
ARM GAS  /tmp/ccvafMs5.s 			page 95


 5359              		.loc 1 1300 0 is_stmt 0 discriminator 2
 5360 009c 2B68     		ldr	r3, [r5]
 5361 009e D3ED017A 		vldr.32	s15, [r3, #4]
 5362 00a2 28EE098A 		vmul.f32	s16, s16, s18
 5363              	.LVL412:
 5364 00a6 67EE877A 		vmul.f32	s15, s15, s14
 5365 00aa F4EEC87A 		vcmpe.f32	s15, s16
 5366 00ae F1EE10FA 		vmrs	APSR_nzcv, FPSCR
 5367 00b2 15DD     		ble	.L462
 5368              	.LVL413:
 5369              	.L465:
 5370              		.loc 1 1301 0 is_stmt 1
 5371 00b4 1420     		movs	r0, #20
 5372 00b6 B0EE480A 		vmov.f32	s0, s16
 5373 00ba FFF7FEFF 		bl	mcpwm_foc_measure_resistance
 5374              	.LVL414:
 5375              		.loc 1 1303 0
 5376 00be 88EE800A 		vdiv.f32	s0, s17, s0
 5377              	.LVL415:
 5378              		.loc 1 1300 0
 5379 00c2 B6EE007A 		vmov.f32	s14, #5.0e-1
 5380              		.loc 1 1303 0
 5381 00c6 B4EEC80A 		vcmpe.f32	s0, s16
 5382 00ca F1EE10FA 		vmrs	APSR_nzcv, FPSCR
 5383 00ce E5D5     		bpl	.L476
 5384              	.LVL416:
 5385              	.LBE102:
 5386              		.loc 1 1309 0
 5387 00d0 DFED477A 		vldr.32	s15, .L477+28
 5388 00d4 B4EEE78A 		vcmpe.f32	s16, s15
 5389 00d8 F1EE10FA 		vmrs	APSR_nzcv, FPSCR
 5390 00dc 06D5     		bpl	.L466
 5391 00de 2B68     		ldr	r3, [r5]
 5392              	.LVL417:
 5393              	.L462:
 5394              		.loc 1 1310 0
 5395 00e0 93ED018A 		vldr.32	s16, [r3, #4]
 5396 00e4 F6EE007A 		vmov.f32	s15, #5.0e-1
 5397 00e8 28EE278A 		vmul.f32	s16, s16, s15
 5398              	.LVL418:
 5399              	.L466:
 5400              		.loc 1 1313 0
 5401 00ec C820     		movs	r0, #200
 5402 00ee B0EE480A 		vmov.f32	s0, s16
 5403 00f2 FFF7FEFF 		bl	mcpwm_foc_measure_resistance
 5404              	.LVL419:
 5405              		.loc 1 1315 0
 5406 00f6 2B68     		ldr	r3, [r5]
 5407              		.loc 1 1317 0
 5408 00f8 384A     		ldr	r2, .L477+8
 5409              		.loc 1 1315 0
 5410 00fa 3E49     		ldr	r1, .L477+32
 5411              		.loc 1 1313 0
 5412 00fc 84ED000A 		vstr.32	s0, [r4]
 5413              		.loc 1 1315 0
 5414 0100 C3F8AC10 		str	r1, [r3, #172]	@ float
 5415              		.loc 1 1316 0
ARM GAS  /tmp/ccvafMs5.s 			page 96


 5416 0104 D3ED2B7A 		vldr.32	s15, [r3, #172]
 5417              		.loc 1 1317 0
 5418 0108 1168     		ldr	r1, [r2]
 5419 010a 374B     		ldr	r3, .L477+20
 5420              		.loc 1 1316 0
 5421 010c 3748     		ldr	r0, .L477+24
 5422              	.LBB103:
 5423              		.loc 1 1320 0
 5424 010e DFED3A8A 		vldr.32	s17, .L477+36
 5425              	.LBE103:
 5426              		.loc 1 1317 0
 5427 0112 41F00201 		orr	r1, r1, #2
 5428 0116 1160     		str	r1, [r2]
 5429 0118 1968     		ldr	r1, [r3]
 5430              		.loc 1 1316 0
 5431 011a FDEEE77A 		vcvt.s32.f32	s15, s15
 5432              		.loc 1 1317 0
 5433 011e 41F00201 		orr	r1, r1, #2
 5434 0122 1960     		str	r1, [r3]
 5435              		.loc 1 1316 0
 5436 0124 17EE901A 		vmov	r1, s15	@ int
 5437              		.loc 1 1317 0
 5438 0128 0224     		movs	r4, #2
 5439              	.LVL420:
 5440              		.loc 1 1316 0
 5441 012a 90FBF1F1 		sdiv	r1, r0, r1
 5442              	.LVL421:
 5443              		.loc 1 1317 0
 5444 012e D162     		str	r1, [r2, #44]
 5445 0130 5C63     		str	r4, [r3, #52]
 5446 0132 1168     		ldr	r1, [r2]
 5447              	.LVL422:
 5448 0134 21F00201 		bic	r1, r1, #2
 5449 0138 1160     		str	r1, [r2]
 5450 013a 1A68     		ldr	r2, [r3]
 5451 013c 22F00202 		bic	r2, r2, #2
 5452 0140 1A60     		str	r2, [r3]
 5453              	.LVL423:
 5454 0142 0824     		movs	r4, #8
 5455              	.LBB105:
 5456              		.loc 1 1320 0
 5457 0144 B7EE089A 		vmov.f32	s18, #1.5e+0
 5458 0148 01E0     		b	.L469
 5459              	.LVL424:
 5460              	.L471:
 5461 014a F0EE678A 		vmov.f32	s17, s15
 5462              	.LVL425:
 5463              	.L469:
 5464              	.LBB104:
 5465              		.loc 1 1322 0
 5466 014e 01A9     		add	r1, sp, #4
 5467 0150 1420     		movs	r0, #20
 5468 0152 B0EE680A 		vmov.f32	s0, s17
 5469 0156 FFF7FEFF 		bl	mcpwm_foc_measure_inductance
 5470              	.LVL426:
 5471              		.loc 1 1325 0
 5472 015a DDED017A 		vldr.32	s15, [sp, #4]
ARM GAS  /tmp/ccvafMs5.s 			page 97


 5473 015e F4EEC87A 		vcmpe.f32	s15, s16
 5474 0162 F1EE10FA 		vmrs	APSR_nzcv, FPSCR
 5475 0166 03DA     		bge	.L470
 5476              	.LBE104:
 5477              		.loc 1 1320 0
 5478 0168 013C     		subs	r4, r4, #1
 5479 016a 68EE897A 		vmul.f32	s15, s17, s18
 5480              	.LVL427:
 5481 016e ECD1     		bne	.L471
 5482              	.LVL428:
 5483              	.L470:
 5484              	.LBE105:
 5485              		.loc 1 1330 0
 5486 0170 B0EE680A 		vmov.f32	s0, s17
 5487 0174 0021     		movs	r1, #0
 5488 0176 C820     		movs	r0, #200
 5489 0178 FFF7FEFF 		bl	mcpwm_foc_measure_inductance
 5490              	.LVL429:
 5491              		.loc 1 1332 0
 5492 017c 2B68     		ldr	r3, [r5]
 5493              		.loc 1 1337 0
 5494 017e 174A     		ldr	r2, .L477+8
 5495              		.loc 1 1330 0
 5496 0180 86ED000A 		vstr.32	s0, [r6]
 5497              		.loc 1 1332 0
 5498 0184 C3F8AC90 		str	r9, [r3, #172]	@ float
 5499              		.loc 1 1333 0
 5500 0188 C3F8A480 		str	r8, [r3, #164]	@ float
 5501              		.loc 1 1334 0
 5502 018c C3F8A870 		str	r7, [r3, #168]	@ float
 5503              		.loc 1 1336 0
 5504 0190 D3ED2B7A 		vldr.32	s15, [r3, #172]
 5505              		.loc 1 1337 0
 5506 0194 1168     		ldr	r1, [r2]
 5507 0196 144B     		ldr	r3, .L477+20
 5508              		.loc 1 1336 0
 5509 0198 1448     		ldr	r0, .L477+24
 5510              		.loc 1 1337 0
 5511 019a 41F00201 		orr	r1, r1, #2
 5512 019e 1160     		str	r1, [r2]
 5513 01a0 1968     		ldr	r1, [r3]
 5514 01a2 0224     		movs	r4, #2
 5515              		.loc 1 1336 0
 5516 01a4 FDEEE77A 		vcvt.s32.f32	s15, s15
 5517              		.loc 1 1337 0
 5518 01a8 2143     		orrs	r1, r1, r4
 5519 01aa 1960     		str	r1, [r3]
 5520              		.loc 1 1336 0
 5521 01ac 17EE901A 		vmov	r1, s15	@ int
 5522 01b0 90FBF1F1 		sdiv	r1, r0, r1
 5523              	.LVL430:
 5524              		.loc 1 1337 0
 5525 01b4 D162     		str	r1, [r2, #44]
 5526 01b6 5C63     		str	r4, [r3, #52]
 5527 01b8 1168     		ldr	r1, [r2]
 5528              	.LVL431:
 5529 01ba 21F00201 		bic	r1, r1, #2
ARM GAS  /tmp/ccvafMs5.s 			page 98


 5530 01be 1160     		str	r1, [r2]
 5531 01c0 1A68     		ldr	r2, [r3]
 5532              		.loc 1 1340 0
 5533 01c2 0120     		movs	r0, #1
 5534              	.LVL432:
 5535              		.loc 1 1337 0
 5536 01c4 22F00202 		bic	r2, r2, #2
 5537 01c8 1A60     		str	r2, [r3]
 5538              		.loc 1 1340 0
 5539 01ca 03B0     		add	sp, sp, #12
 5540              		.cfi_def_cfa_offset 44
 5541              		@ sp needed
 5542 01cc BDEC048B 		vldm	sp!, {d8-d9}
 5543              		.cfi_restore 82
 5544              		.cfi_restore 83
 5545              		.cfi_restore 80
 5546              		.cfi_restore 81
 5547              		.cfi_def_cfa_offset 28
 5548              	.LVL433:
 5549 01d0 BDE8F083 		pop	{r4, r5, r6, r7, r8, r9, pc}
 5550              	.LVL434:
 5551              	.L478:
 5552              		.align	2
 5553              	.L477:
 5554 01d4 00000000 		.word	.LANCHOR0
 5555 01d8 00401C46 		.word	1176256512
 5556 01dc 00000140 		.word	1073807360
 5557 01e0 0AD7233C 		.word	1008981770
 5558 01e4 00002041 		.word	1092616192
 5559 01e8 00040140 		.word	1073808384
 5560 01ec 007A030A 		.word	168000000
 5561 01f0 0AD7233C 		.word	1008981770
 5562 01f4 00803B45 		.word	1161527296
 5563 01f8 0AD7A33C 		.word	1017370378
 5564              		.cfi_endproc
 5565              	.LFE299:
 5566              		.size	mcpwm_foc_measure_res_ind, .-mcpwm_foc_measure_res_ind
 5567              		.section	.text.mcpwm_foc_hall_detect,"ax",%progbits
 5568              		.align	1
 5569              		.p2align 4,,15
 5570              		.global	mcpwm_foc_hall_detect
 5571              		.syntax unified
 5572              		.thumb
 5573              		.thumb_func
 5574              		.fpu fpv4-sp-d16
 5575              		.type	mcpwm_foc_hall_detect, %function
 5576              	mcpwm_foc_hall_detect:
 5577              	.LFB300:
 5578              		.loc 1 1355 0
 5579              		.cfi_startproc
 5580              		@ args = 0, pretend = 0, frame = 112
 5581              		@ frame_needed = 0, uses_anonymous_args = 0
 5582              	.LVL435:
 5583 0000 2DE9F04F 		push	{r4, r5, r6, r7, r8, r9, r10, fp, lr}
 5584              		.cfi_def_cfa_offset 36
 5585              		.cfi_offset 4, -36
 5586              		.cfi_offset 5, -32
ARM GAS  /tmp/ccvafMs5.s 			page 99


 5587              		.cfi_offset 6, -28
 5588              		.cfi_offset 7, -24
 5589              		.cfi_offset 8, -20
 5590              		.cfi_offset 9, -16
 5591              		.cfi_offset 10, -12
 5592              		.cfi_offset 11, -8
 5593              		.cfi_offset 14, -4
 5594 0004 2DED048B 		vpush.64	{d8, d9}
 5595              		.cfi_def_cfa_offset 52
 5596              		.cfi_offset 80, -52
 5597              		.cfi_offset 81, -48
 5598              		.cfi_offset 82, -44
 5599              		.cfi_offset 83, -40
 5600 0008 9DB0     		sub	sp, sp, #116
 5601              		.cfi_def_cfa_offset 168
 5602              		.loc 1 1355 0
 5603 000a B0EE408A 		vmov.f32	s16, s0
 5604 000e 0646     		mov	r6, r0
 5605              		.loc 1 1356 0
 5606 0010 FFF7FEFF 		bl	mc_interface_lock
 5607              	.LVL436:
 5608              		.loc 1 1358 0
 5609 0014 8349     		ldr	r1, .L494
 5610              		.loc 1 1360 0
 5611 0016 DFED849A 		vldr.32	s19, .L494+4
 5612              		.loc 1 1359 0
 5613 001a DFF82CB2 		ldr	fp, .L494+36
 5614              		.loc 1 1360 0
 5615 001e DFF82CA2 		ldr	r10, .L494+40
 5616              		.loc 1 1362 0
 5617 0022 824F     		ldr	r7, .L494+8
 5618              		.loc 1 1371 0
 5619 0024 824C     		ldr	r4, .L494+12
 5620              	.LBB106:
 5621              	.LBB107:
 5622              	.LBB108:
 5623              		.loc 1 1384 0
 5624 0026 9FED839A 		vldr.32	s18, .L494+16
 5625 002a DFED838A 		vldr.32	s17, .L494+20
 5626              	.LBE108:
 5627              	.LBE107:
 5628              	.LBE106:
 5629              		.loc 1 1358 0
 5630 002e 0122     		movs	r2, #1
 5631 0030 0A70     		strb	r2, [r1]
 5632              		.loc 1 1361 0
 5633 0032 824A     		ldr	r2, .L494+24
 5634              		.loc 1 1359 0
 5635 0034 8BED008A 		vstr.32	s16, [fp]
 5636              		.loc 1 1361 0
 5637 0038 0223     		movs	r3, #2
 5638              		.loc 1 1360 0
 5639 003a CAED009A 		vstr.32	s19, [r10]
 5640              		.loc 1 1361 0
 5641 003e 1370     		strb	r3, [r2]
 5642              		.loc 1 1362 0
 5643 0040 3B70     		strb	r3, [r7]
ARM GAS  /tmp/ccvafMs5.s 			page 100


 5644              		.loc 1 1365 0
 5645 0042 FFF7FEFF 		bl	timeout_get_timeout_msec
 5646              	.LVL437:
 5647 0046 0190     		str	r0, [sp, #4]
 5648              	.LVL438:
 5649              		.loc 1 1366 0
 5650 0048 FFF7FEFF 		bl	timeout_get_brake_current
 5651              	.LVL439:
 5652 004c B0EE408A 		vmov.f32	s16, s0
 5653              	.LVL440:
 5654              		.loc 1 1367 0
 5655 0050 FFF7FEFF 		bl	timeout_reset
 5656              	.LVL441:
 5657              		.loc 1 1368 0
 5658 0054 B0EE690A 		vmov.f32	s0, s19
 5659 0058 4EF66020 		movw	r0, #60000
 5660 005c FFF7FEFF 		bl	timeout_configure
 5661              	.LVL442:
 5662              		.loc 1 1372 0
 5663 0060 42F21070 		movw	r0, #10000
 5664              		.loc 1 1371 0
 5665 0064 C4ED009A 		vstr.32	s19, [r4]
 5666              		.loc 1 1372 0
 5667 0068 FFF7FEFF 		bl	chThdSleep
 5668              	.LVL443:
 5669              		.loc 1 1377 0
 5670 006c 2022     		movs	r2, #32
 5671 006e 0021     		movs	r1, #0
 5672 0070 04A8     		add	r0, sp, #16
 5673 0072 FFF7FEFF 		bl	memset
 5674              	.LVL444:
 5675              		.loc 1 1378 0
 5676 0076 2022     		movs	r2, #32
 5677 0078 0021     		movs	r1, #0
 5678 007a 0CA8     		add	r0, sp, #48
 5679 007c FFF7FEFF 		bl	memset
 5680              	.LVL445:
 5681              		.loc 1 1379 0
 5682 0080 2022     		movs	r2, #32
 5683 0082 0021     		movs	r1, #0
 5684 0084 14A8     		add	r0, sp, #80
 5685 0086 FFF7FEFF 		bl	memset
 5686              	.LVL446:
 5687 008a 0325     		movs	r5, #3
 5688              	.LVL447:
 5689              	.L480:
 5690              	.LBB113:
 5691              	.LBB112:
 5692              		.loc 1 1383 0
 5693 008c 4FF00009 		mov	r9, #0
 5694              	.LVL448:
 5695              	.L481:
 5696              	.LBB109:
 5697              		.loc 1 1384 0 discriminator 3
 5698 0090 07EE909A 		vmov	s15, r9	@ int
 5699 0094 F8EEE77A 		vcvt.f32.s32	s15, s15
 5700              		.loc 1 1385 0 discriminator 3
ARM GAS  /tmp/ccvafMs5.s 			page 101


 5701 0098 3220     		movs	r0, #50
 5702              		.loc 1 1384 0 discriminator 3
 5703 009a 67EE897A 		vmul.f32	s15, s15, s18
 5704              	.LBE109:
 5705              		.loc 1 1383 0 discriminator 3
 5706 009e 09F10109 		add	r9, r9, #1
 5707              	.LVL449:
 5708              	.LBB110:
 5709              		.loc 1 1384 0 discriminator 3
 5710 00a2 87EEA87A 		vdiv.f32	s14, s15, s17
 5711 00a6 84ED007A 		vstr.32	s14, [r4]
 5712              		.loc 1 1385 0 discriminator 3
 5713 00aa FFF7FEFF 		bl	chThdSleep
 5714              	.LVL450:
 5715              		.loc 1 1387 0 discriminator 3
 5716 00ae FFF7FEFF 		bl	read_hall
 5717              	.LVL451:
 5718              		.loc 1 1389 0 discriminator 3
 5719 00b2 94ED000A 		vldr.32	s0, [r4]
 5720              		.loc 1 1387 0 discriminator 3
 5721 00b6 8046     		mov	r8, r0
 5722              	.LVL452:
 5723              		.loc 1 1389 0 discriminator 3
 5724 00b8 03A9     		add	r1, sp, #12
 5725 00ba 02A8     		add	r0, sp, #8
 5726              	.LVL453:
 5727 00bc FFF7FEFF 		bl	sincosf
 5728              	.LVL454:
 5729              		.loc 1 1390 0 discriminator 3
 5730 00c0 1CAB     		add	r3, sp, #112
 5731 00c2 03EB8800 		add	r0, r3, r8, lsl #2
 5732 00c6 10ED186A 		vldr.32	s12, [r0, #-96]
 5733              		.loc 1 1391 0 discriminator 3
 5734 00ca 10ED107A 		vldr.32	s14, [r0, #-64]
 5735              		.loc 1 1390 0 discriminator 3
 5736 00ce DDED026A 		vldr.32	s13, [sp, #8]
 5737              		.loc 1 1391 0 discriminator 3
 5738 00d2 DDED037A 		vldr.32	s15, [sp, #12]
 5739              		.loc 1 1392 0 discriminator 3
 5740 00d6 50F8203C 		ldr	r3, [r0, #-32]
 5741              		.loc 1 1390 0 discriminator 3
 5742 00da 76EE266A 		vadd.f32	s13, s12, s13
 5743              		.loc 1 1391 0 discriminator 3
 5744 00de 77EE277A 		vadd.f32	s15, s14, s15
 5745              		.loc 1 1392 0 discriminator 3
 5746 00e2 0133     		adds	r3, r3, #1
 5747              	.LBE110:
 5748              		.loc 1 1383 0 discriminator 3
 5749 00e4 B9F5B47F 		cmp	r9, #360
 5750              	.LBB111:
 5751              		.loc 1 1390 0 discriminator 3
 5752 00e8 40ED186A 		vstr.32	s13, [r0, #-96]
 5753              		.loc 1 1391 0 discriminator 3
 5754 00ec 40ED107A 		vstr.32	s15, [r0, #-64]
 5755              		.loc 1 1392 0 discriminator 3
 5756 00f0 40F8203C 		str	r3, [r0, #-32]
 5757              	.LBE111:
ARM GAS  /tmp/ccvafMs5.s 			page 102


 5758              		.loc 1 1383 0 discriminator 3
 5759 00f4 CCD1     		bne	.L481
 5760              	.LVL455:
 5761              	.LBE112:
 5762              		.loc 1 1382 0 discriminator 2
 5763 00f6 013D     		subs	r5, r5, #1
 5764              	.LVL456:
 5765 00f8 C8D1     		bne	.L480
 5766              	.LBE113:
 5767              	.LBB114:
 5768              	.LBB115:
 5769              	.LBB116:
 5770              		.loc 1 1399 0
 5771 00fa 9FED4E9A 		vldr.32	s18, .L494+16
 5772 00fe DFED4E8A 		vldr.32	s17, .L494+20
 5773              	.LBE116:
 5774              	.LBE115:
 5775              	.LBE114:
 5776              	.LBB121:
 5777 0102 0325     		movs	r5, #3
 5778              	.LVL457:
 5779              	.L482:
 5780              	.LBE121:
 5781              	.LBB122:
 5782              	.LBB120:
 5783              		.loc 1 1398 0
 5784 0104 4FF4B479 		mov	r9, #360
 5785              	.LVL458:
 5786              	.L483:
 5787              	.LBB117:
 5788              		.loc 1 1399 0 discriminator 3
 5789 0108 07EE909A 		vmov	s15, r9	@ int
 5790 010c F8EEE77A 		vcvt.f32.s32	s15, s15
 5791              		.loc 1 1400 0 discriminator 3
 5792 0110 3220     		movs	r0, #50
 5793              		.loc 1 1399 0 discriminator 3
 5794 0112 67EE897A 		vmul.f32	s15, s15, s18
 5795              	.LBE117:
 5796              		.loc 1 1398 0 discriminator 3
 5797 0116 09F1FF39 		add	r9, r9, #-1
 5798              	.LVL459:
 5799              	.LBB118:
 5800              		.loc 1 1399 0 discriminator 3
 5801 011a 87EEA87A 		vdiv.f32	s14, s15, s17
 5802 011e 84ED007A 		vstr.32	s14, [r4]
 5803              		.loc 1 1400 0 discriminator 3
 5804 0122 FFF7FEFF 		bl	chThdSleep
 5805              	.LVL460:
 5806              		.loc 1 1402 0 discriminator 3
 5807 0126 FFF7FEFF 		bl	read_hall
 5808              	.LVL461:
 5809              		.loc 1 1404 0 discriminator 3
 5810 012a 94ED000A 		vldr.32	s0, [r4]
 5811              		.loc 1 1402 0 discriminator 3
 5812 012e 8046     		mov	r8, r0
 5813              	.LVL462:
 5814              		.loc 1 1404 0 discriminator 3
ARM GAS  /tmp/ccvafMs5.s 			page 103


 5815 0130 03A9     		add	r1, sp, #12
 5816 0132 02A8     		add	r0, sp, #8
 5817              	.LVL463:
 5818 0134 FFF7FEFF 		bl	sincosf
 5819              	.LVL464:
 5820              		.loc 1 1405 0 discriminator 3
 5821 0138 1CAB     		add	r3, sp, #112
 5822 013a 03EB8800 		add	r0, r3, r8, lsl #2
 5823 013e 10ED186A 		vldr.32	s12, [r0, #-96]
 5824              		.loc 1 1406 0 discriminator 3
 5825 0142 10ED107A 		vldr.32	s14, [r0, #-64]
 5826              		.loc 1 1405 0 discriminator 3
 5827 0146 DDED026A 		vldr.32	s13, [sp, #8]
 5828              		.loc 1 1406 0 discriminator 3
 5829 014a DDED037A 		vldr.32	s15, [sp, #12]
 5830              		.loc 1 1407 0 discriminator 3
 5831 014e 50F8203C 		ldr	r3, [r0, #-32]
 5832              		.loc 1 1405 0 discriminator 3
 5833 0152 76EE266A 		vadd.f32	s13, s12, s13
 5834              		.loc 1 1406 0 discriminator 3
 5835 0156 77EE277A 		vadd.f32	s15, s14, s15
 5836              		.loc 1 1407 0 discriminator 3
 5837 015a 0133     		adds	r3, r3, #1
 5838              	.LBE118:
 5839              		.loc 1 1398 0 discriminator 3
 5840 015c B9F1FF3F 		cmp	r9, #-1
 5841              	.LBB119:
 5842              		.loc 1 1405 0 discriminator 3
 5843 0160 40ED186A 		vstr.32	s13, [r0, #-96]
 5844              		.loc 1 1406 0 discriminator 3
 5845 0164 40ED107A 		vstr.32	s15, [r0, #-64]
 5846              		.loc 1 1407 0 discriminator 3
 5847 0168 40F8203C 		str	r3, [r0, #-32]
 5848              	.LBE119:
 5849              		.loc 1 1398 0 discriminator 3
 5850 016c CCD1     		bne	.L483
 5851              	.LVL465:
 5852              	.LBE120:
 5853              		.loc 1 1397 0 discriminator 2
 5854 016e 013D     		subs	r5, r5, #1
 5855              	.LVL466:
 5856 0170 C8D1     		bne	.L482
 5857              	.LBE122:
 5858              		.loc 1 1411 0
 5859 0172 0023     		movs	r3, #0
 5860 0174 CBF80030 		str	r3, [fp]	@ float
 5861              		.loc 1 1412 0
 5862 0178 CAF80030 		str	r3, [r10]	@ float
 5863              		.loc 1 1413 0
 5864 017c 294B     		ldr	r3, .L494
 5865              	.LBB123:
 5866              	.LBB124:
 5867              		.loc 1 1424 0
 5868 017e DFED2E9A 		vldr.32	s19, .L494+20
 5869              	.LBE124:
 5870              	.LBE123:
 5871              		.loc 1 1413 0
ARM GAS  /tmp/ccvafMs5.s 			page 104


 5872 0182 1D70     		strb	r5, [r3]
 5873              		.loc 1 1414 0
 5874 0184 2D4B     		ldr	r3, .L494+24
 5875              	.LBB128:
 5876              	.LBB125:
 5877              		.loc 1 1424 0
 5878 0186 9FED2B9A 		vldr.32	s18, .L494+16
 5879              		.loc 1 1426 0
 5880 018a DFED2D8A 		vldr.32	s17, .L494+28
 5881              	.LBE125:
 5882              	.LBE128:
 5883              		.loc 1 1414 0
 5884 018e 0722     		movs	r2, #7
 5885 0190 1A70     		strb	r2, [r3]
 5886              		.loc 1 1415 0
 5887 0192 3D70     		strb	r5, [r7]
 5888              		.loc 1 1416 0
 5889 0194 FFF7FEFF 		bl	stop_pwm_hw
 5890              	.LVL467:
 5891              		.loc 1 1419 0
 5892 0198 B0EE480A 		vmov.f32	s0, s16
 5893 019c 0198     		ldr	r0, [sp, #4]
 5894              	.LBB129:
 5895              	.LBB126:
 5896              		.loc 1 1426 0
 5897 019e 9FED298A 		vldr.32	s16, .L494+32
 5898              	.LVL468:
 5899              	.LBE126:
 5900              	.LBE129:
 5901              		.loc 1 1419 0
 5902 01a2 FFF7FEFF 		bl	timeout_configure
 5903              	.LVL469:
 5904              		.loc 1 1421 0
 5905 01a6 2F46     		mov	r7, r5
 5906 01a8 13AC     		add	r4, sp, #76
 5907              	.LBB130:
 5908              		.loc 1 1428 0
 5909 01aa 4FF0FF08 		mov	r8, #255
 5910              	.LVL470:
 5911 01ae 06E0     		b	.L487
 5912              	.LVL471:
 5913              	.L485:
 5914 01b0 06F80580 		strb	r8, [r6, r5]
 5915              		.loc 1 1422 0
 5916 01b4 0135     		adds	r5, r5, #1
 5917              	.LVL472:
 5918 01b6 082D     		cmp	r5, #8
 5919              		.loc 1 1429 0
 5920 01b8 07F10107 		add	r7, r7, #1
 5921              	.LVL473:
 5922              		.loc 1 1422 0
 5923 01bc 25D0     		beq	.L493
 5924              	.LVL474:
 5925              	.L487:
 5926              		.loc 1 1423 0
 5927 01be 54F8043F 		ldr	r3, [r4, #4]!
 5928 01c2 1E2B     		cmp	r3, #30
ARM GAS  /tmp/ccvafMs5.s 			page 105


 5929 01c4 F4DD     		ble	.L485
 5930 01c6 AB00     		lsls	r3, r5, #2
 5931              	.LBB127:
 5932              		.loc 1 1424 0
 5933 01c8 04A9     		add	r1, sp, #16
 5934 01ca 0CAA     		add	r2, sp, #48
 5935 01cc 1A44     		add	r2, r2, r3
 5936 01ce 0B44     		add	r3, r3, r1
 5937 01d0 93ED000A 		vldr.32	s0, [r3]
 5938 01d4 D2ED000A 		vldr.32	s1, [r2]
 5939 01d8 FFF7FEFF 		bl	atan2f
 5940              	.LVL475:
 5941 01dc 20EE290A 		vmul.f32	s0, s0, s19
 5942              		.loc 1 1425 0
 5943 01e0 03A8     		add	r0, sp, #12
 5944              		.loc 1 1424 0
 5945 01e2 C0EE097A 		vdiv.f32	s15, s0, s18
 5946 01e6 CDED037A 		vstr.32	s15, [sp, #12]
 5947              		.loc 1 1425 0
 5948 01ea FFF7FEFF 		bl	utils_norm_angle
 5949              	.LVL476:
 5950              		.loc 1 1426 0
 5951 01ee 9DED037A 		vldr.32	s14, [sp, #12]
 5952 01f2 27EE287A 		vmul.f32	s14, s14, s17
 5953 01f6 C7EE087A 		vdiv.f32	s15, s14, s16
 5954 01fa FCEEE77A 		vcvt.u32.f32	s15, s15
 5955 01fe 17EE903A 		vmov	r3, s15	@ int
 5956 0202 7355     		strb	r3, [r6, r5]
 5957              	.LBE127:
 5958              		.loc 1 1422 0
 5959 0204 0135     		adds	r5, r5, #1
 5960              	.LVL477:
 5961 0206 082D     		cmp	r5, #8
 5962 0208 D9D1     		bne	.L487
 5963              	.L493:
 5964              	.LBE130:
 5965              		.loc 1 1433 0
 5966 020a FFF7FEFF 		bl	mc_interface_unlock
 5967              	.LVL478:
 5968              		.loc 1 1436 0
 5969 020e A7F10200 		sub	r0, r7, #2
 5970 0212 B0FA80F0 		clz	r0, r0
 5971 0216 4009     		lsrs	r0, r0, #5
 5972 0218 1DB0     		add	sp, sp, #116
 5973              		.cfi_def_cfa_offset 52
 5974              		@ sp needed
 5975 021a BDEC048B 		vldm	sp!, {d8-d9}
 5976              		.cfi_restore 82
 5977              		.cfi_restore 83
 5978              		.cfi_restore 80
 5979              		.cfi_restore 81
 5980              		.cfi_def_cfa_offset 36
 5981 021e BDE8F08F 		pop	{r4, r5, r6, r7, r8, r9, r10, fp, pc}
 5982              	.LVL479:
 5983              	.L495:
 5984 0222 00BF     		.align	2
 5985              	.L494:
ARM GAS  /tmp/ccvafMs5.s 			page 106


 5986 0224 00000000 		.word	.LANCHOR29
 5987 0228 00000000 		.word	0
 5988 022c 00000000 		.word	.LANCHOR7
 5989 0230 00000000 		.word	.LANCHOR30
 5990 0234 DB0F4940 		.word	1078530011
 5991 0238 00003443 		.word	1127481344
 5992 023c 00000000 		.word	.LANCHOR14
 5993 0240 00004843 		.word	1128792064
 5994 0244 0000B443 		.word	1135869952
 5995 0248 00000000 		.word	.LANCHOR32
 5996 024c 00000000 		.word	.LANCHOR23
 5997              		.cfi_endproc
 5998              	.LFE300:
 5999              		.size	mcpwm_foc_hall_detect, .-mcpwm_foc_hall_detect
 6000              		.section	.text.mcpwm_foc_print_state,"ax",%progbits
 6001              		.align	1
 6002              		.p2align 4,,15
 6003              		.global	mcpwm_foc_print_state
 6004              		.syntax unified
 6005              		.thumb
 6006              		.thumb_func
 6007              		.fpu fpv4-sp-d16
 6008              		.type	mcpwm_foc_print_state, %function
 6009              	mcpwm_foc_print_state:
 6010              	.LFB301:
 6011              		.loc 1 1438 0
 6012              		.cfi_startproc
 6013              		@ args = 0, pretend = 0, frame = 0
 6014              		@ frame_needed = 0, uses_anonymous_args = 0
 6015 0000 10B5     		push	{r4, lr}
 6016              		.cfi_def_cfa_offset 8
 6017              		.cfi_offset 4, -8
 6018              		.cfi_offset 14, -4
 6019              		.loc 1 1439 0
 6020 0002 4A4C     		ldr	r4, .L498
 6021 0004 606B     		ldr	r0, [r4, #52]	@ float
 6022 0006 FFF7FEFF 		bl	__aeabi_f2d
 6023              	.LVL480:
 6024 000a 0246     		mov	r2, r0
 6025 000c 0B46     		mov	r3, r1
 6026 000e 4848     		ldr	r0, .L498+4
 6027 0010 FFF7FEFF 		bl	commands_printf
 6028              	.LVL481:
 6029              		.loc 1 1440 0
 6030 0014 A06B     		ldr	r0, [r4, #56]	@ float
 6031 0016 FFF7FEFF 		bl	__aeabi_f2d
 6032              	.LVL482:
 6033 001a 0246     		mov	r2, r0
 6034 001c 0B46     		mov	r3, r1
 6035 001e 4548     		ldr	r0, .L498+8
 6036 0020 FFF7FEFF 		bl	commands_printf
 6037              	.LVL483:
 6038              		.loc 1 1441 0
 6039 0024 E068     		ldr	r0, [r4, #12]	@ float
 6040 0026 FFF7FEFF 		bl	__aeabi_f2d
 6041              	.LVL484:
 6042 002a 0246     		mov	r2, r0
ARM GAS  /tmp/ccvafMs5.s 			page 107


 6043 002c 0B46     		mov	r3, r1
 6044 002e 4248     		ldr	r0, .L498+12
 6045 0030 FFF7FEFF 		bl	commands_printf
 6046              	.LVL485:
 6047              		.loc 1 1442 0
 6048 0034 E06C     		ldr	r0, [r4, #76]	@ float
 6049 0036 FFF7FEFF 		bl	__aeabi_f2d
 6050              	.LVL486:
 6051 003a 0246     		mov	r2, r0
 6052 003c 0B46     		mov	r3, r1
 6053 003e 3F48     		ldr	r0, .L498+16
 6054 0040 FFF7FEFF 		bl	commands_printf
 6055              	.LVL487:
 6056              		.loc 1 1443 0
 6057 0044 206D     		ldr	r0, [r4, #80]	@ float
 6058 0046 FFF7FEFF 		bl	__aeabi_f2d
 6059              	.LVL488:
 6060 004a 0246     		mov	r2, r0
 6061 004c 0B46     		mov	r3, r1
 6062 004e 3C48     		ldr	r0, .L498+20
 6063 0050 FFF7FEFF 		bl	commands_printf
 6064              	.LVL489:
 6065              		.loc 1 1444 0
 6066 0054 2069     		ldr	r0, [r4, #16]	@ float
 6067 0056 FFF7FEFF 		bl	__aeabi_f2d
 6068              	.LVL490:
 6069 005a 0246     		mov	r2, r0
 6070 005c 0B46     		mov	r3, r1
 6071 005e 3948     		ldr	r0, .L498+24
 6072 0060 FFF7FEFF 		bl	commands_printf
 6073              	.LVL491:
 6074              		.loc 1 1445 0
 6075 0064 E06A     		ldr	r0, [r4, #44]	@ float
 6076 0066 FFF7FEFF 		bl	__aeabi_f2d
 6077              	.LVL492:
 6078 006a 0246     		mov	r2, r0
 6079 006c 0B46     		mov	r3, r1
 6080 006e 3648     		ldr	r0, .L498+28
 6081 0070 FFF7FEFF 		bl	commands_printf
 6082              	.LVL493:
 6083              		.loc 1 1446 0
 6084 0074 206B     		ldr	r0, [r4, #48]	@ float
 6085 0076 FFF7FEFF 		bl	__aeabi_f2d
 6086              	.LVL494:
 6087 007a 0246     		mov	r2, r0
 6088 007c 0B46     		mov	r3, r1
 6089 007e 3348     		ldr	r0, .L498+32
 6090 0080 FFF7FEFF 		bl	commands_printf
 6091              	.LVL495:
 6092              		.loc 1 1447 0
 6093 0084 E06B     		ldr	r0, [r4, #60]	@ float
 6094 0086 FFF7FEFF 		bl	__aeabi_f2d
 6095              	.LVL496:
 6096 008a 0246     		mov	r2, r0
 6097 008c 0B46     		mov	r3, r1
 6098 008e 3048     		ldr	r0, .L498+36
 6099 0090 FFF7FEFF 		bl	commands_printf
ARM GAS  /tmp/ccvafMs5.s 			page 108


 6100              	.LVL497:
 6101              		.loc 1 1448 0
 6102 0094 206C     		ldr	r0, [r4, #64]	@ float
 6103 0096 FFF7FEFF 		bl	__aeabi_f2d
 6104              	.LVL498:
 6105 009a 0246     		mov	r2, r0
 6106 009c 0B46     		mov	r3, r1
 6107 009e 2D48     		ldr	r0, .L498+40
 6108 00a0 FFF7FEFF 		bl	commands_printf
 6109              	.LVL499:
 6110              		.loc 1 1449 0
 6111 00a4 606C     		ldr	r0, [r4, #68]	@ float
 6112 00a6 FFF7FEFF 		bl	__aeabi_f2d
 6113              	.LVL500:
 6114 00aa 0246     		mov	r2, r0
 6115 00ac 0B46     		mov	r3, r1
 6116 00ae 2A48     		ldr	r0, .L498+44
 6117 00b0 FFF7FEFF 		bl	commands_printf
 6118              	.LVL501:
 6119              		.loc 1 1450 0
 6120 00b4 A06C     		ldr	r0, [r4, #72]	@ float
 6121 00b6 FFF7FEFF 		bl	__aeabi_f2d
 6122              	.LVL502:
 6123 00ba 0246     		mov	r2, r0
 6124 00bc 0B46     		mov	r3, r1
 6125 00be 2748     		ldr	r0, .L498+48
 6126 00c0 FFF7FEFF 		bl	commands_printf
 6127              	.LVL503:
 6128              		.loc 1 1451 0
 6129 00c4 2068     		ldr	r0, [r4]	@ float
 6130 00c6 FFF7FEFF 		bl	__aeabi_f2d
 6131              	.LVL504:
 6132 00ca 0246     		mov	r2, r0
 6133 00cc 0B46     		mov	r3, r1
 6134 00ce 2448     		ldr	r0, .L498+52
 6135 00d0 FFF7FEFF 		bl	commands_printf
 6136              	.LVL505:
 6137              		.loc 1 1452 0
 6138 00d4 6068     		ldr	r0, [r4, #4]	@ float
 6139 00d6 FFF7FEFF 		bl	__aeabi_f2d
 6140              	.LVL506:
 6141 00da 0246     		mov	r2, r0
 6142 00dc 0B46     		mov	r3, r1
 6143 00de 2148     		ldr	r0, .L498+56
 6144 00e0 FFF7FEFF 		bl	commands_printf
 6145              	.LVL507:
 6146              		.loc 1 1453 0
 6147 00e4 E069     		ldr	r0, [r4, #28]	@ float
 6148 00e6 FFF7FEFF 		bl	__aeabi_f2d
 6149              	.LVL508:
 6150 00ea 0246     		mov	r2, r0
 6151 00ec 0B46     		mov	r3, r1
 6152 00ee 1E48     		ldr	r0, .L498+60
 6153 00f0 FFF7FEFF 		bl	commands_printf
 6154              	.LVL509:
 6155              		.loc 1 1454 0
 6156 00f4 206A     		ldr	r0, [r4, #32]	@ float
ARM GAS  /tmp/ccvafMs5.s 			page 109


 6157 00f6 FFF7FEFF 		bl	__aeabi_f2d
 6158              	.LVL510:
 6159 00fa 0246     		mov	r2, r0
 6160 00fc 0B46     		mov	r3, r1
 6161 00fe 1B48     		ldr	r0, .L498+64
 6162 0100 FFF7FEFF 		bl	commands_printf
 6163              	.LVL511:
 6164              		.loc 1 1455 0
 6165 0104 1A4B     		ldr	r3, .L498+68
 6166 0106 1868     		ldr	r0, [r3]	@ float
 6167 0108 FFF7FEFF 		bl	__aeabi_f2d
 6168              	.LVL512:
 6169 010c 0246     		mov	r2, r0
 6170 010e 0B46     		mov	r3, r1
 6171 0110 1848     		ldr	r0, .L498+72
 6172 0112 FFF7FEFF 		bl	commands_printf
 6173              	.LVL513:
 6174              		.loc 1 1456 0
 6175 0116 184B     		ldr	r3, .L498+76
 6176 0118 1868     		ldr	r0, [r3]	@ float
 6177 011a FFF7FEFF 		bl	__aeabi_f2d
 6178              	.LVL514:
 6179              		.loc 1 1457 0
 6180 011e BDE81040 		pop	{r4, lr}
 6181              		.cfi_restore 14
 6182              		.cfi_restore 4
 6183              		.cfi_def_cfa_offset 0
 6184              		.loc 1 1456 0
 6185 0122 0246     		mov	r2, r0
 6186 0124 0B46     		mov	r3, r1
 6187 0126 1548     		ldr	r0, .L498+80
 6188 0128 FFF7FEBF 		b	commands_printf
 6189              	.LVL515:
 6190              	.L499:
 6191              		.align	2
 6192              	.L498:
 6193 012c 00000000 		.word	.LANCHOR10
 6194 0130 00000000 		.word	.LC8
 6195 0134 14000000 		.word	.LC9
 6196 0138 28000000 		.word	.LC10
 6197 013c 3C000000 		.word	.LC11
 6198 0140 50000000 		.word	.LC12
 6199 0144 64000000 		.word	.LC13
 6200 0148 78000000 		.word	.LC14
 6201 014c 8C000000 		.word	.LC15
 6202 0150 A0000000 		.word	.LC16
 6203 0154 B4000000 		.word	.LC17
 6204 0158 C8000000 		.word	.LC18
 6205 015c DC000000 		.word	.LC19
 6206 0160 F0000000 		.word	.LC20
 6207 0164 04010000 		.word	.LC21
 6208 0168 18010000 		.word	.LC22
 6209 016c 2C010000 		.word	.LC23
 6210 0170 00000000 		.word	.LANCHOR36
 6211 0174 40010000 		.word	.LC24
 6212 0178 00000000 		.word	.LANCHOR37
 6213 017c 54010000 		.word	.LC25
ARM GAS  /tmp/ccvafMs5.s 			page 110


 6214              		.cfi_endproc
 6215              	.LFE301:
 6216              		.size	mcpwm_foc_print_state, .-mcpwm_foc_print_state
 6217              		.section	.text.mcpwm_foc_get_last_inj_adc_isr_duration,"ax",%progbits
 6218              		.align	1
 6219              		.p2align 4,,15
 6220              		.global	mcpwm_foc_get_last_inj_adc_isr_duration
 6221              		.syntax unified
 6222              		.thumb
 6223              		.thumb_func
 6224              		.fpu fpv4-sp-d16
 6225              		.type	mcpwm_foc_get_last_inj_adc_isr_duration, %function
 6226              	mcpwm_foc_get_last_inj_adc_isr_duration:
 6227              	.LFB302:
 6228              		.loc 1 1459 0
 6229              		.cfi_startproc
 6230              		@ args = 0, pretend = 0, frame = 0
 6231              		@ frame_needed = 0, uses_anonymous_args = 0
 6232              		@ link register save eliminated.
 6233              		.loc 1 1460 0
 6234 0000 014B     		ldr	r3, .L501
 6235 0002 93ED000A 		vldr.32	s0, [r3]
 6236              		.loc 1 1461 0
 6237 0006 7047     		bx	lr
 6238              	.L502:
 6239              		.align	2
 6240              	.L501:
 6241 0008 00000000 		.word	.LANCHOR41
 6242              		.cfi_endproc
 6243              	.LFE302:
 6244              		.size	mcpwm_foc_get_last_inj_adc_isr_duration, .-mcpwm_foc_get_last_inj_adc_isr_duration
 6245              		.section	.text.mcpwm_foc_tim_sample_int_handler,"ax",%progbits
 6246              		.align	1
 6247              		.p2align 4,,15
 6248              		.global	mcpwm_foc_tim_sample_int_handler
 6249              		.syntax unified
 6250              		.thumb
 6251              		.thumb_func
 6252              		.fpu fpv4-sp-d16
 6253              		.type	mcpwm_foc_tim_sample_int_handler, %function
 6254              	mcpwm_foc_tim_sample_int_handler:
 6255              	.LFB303:
 6256              		.loc 1 1463 0
 6257              		.cfi_startproc
 6258              		@ args = 0, pretend = 0, frame = 0
 6259              		@ frame_needed = 0, uses_anonymous_args = 0
 6260              		@ link register save eliminated.
 6261              		.loc 1 1464 0
 6262 0000 034B     		ldr	r3, .L506
 6263 0002 1B78     		ldrb	r3, [r3]	@ zero_extendqisi2
 6264 0004 03B9     		cbnz	r3, .L505
 6265              		.loc 1 1468 0
 6266 0006 7047     		bx	lr
 6267              	.L505:
 6268              		.loc 1 1466 0
 6269 0008 2021     		movs	r1, #32
 6270 000a 0248     		ldr	r0, .L506+4
ARM GAS  /tmp/ccvafMs5.s 			page 111


 6271 000c FFF7FEBF 		b	TIM_GenerateEvent
 6272              	.LVL516:
 6273              	.L507:
 6274              		.align	2
 6275              	.L506:
 6276 0010 00000000 		.word	.LANCHOR24
 6277 0014 00000140 		.word	1073807360
 6278              		.cfi_endproc
 6279              	.LFE303:
 6280              		.size	mcpwm_foc_tim_sample_int_handler, .-mcpwm_foc_tim_sample_int_handler
 6281              		.section	.text.observer_update,"ax",%progbits
 6282              		.align	1
 6283              		.p2align 4,,15
 6284              		.global	observer_update
 6285              		.syntax unified
 6286              		.thumb
 6287              		.thumb_func
 6288              		.fpu fpv4-sp-d16
 6289              		.type	observer_update, %function
 6290              	observer_update:
 6291              	.LFB307:
 6292              		.loc 1 2077 0
 6293              		.cfi_startproc
 6294              		@ args = 0, pretend = 0, frame = 8
 6295              		@ frame_needed = 0, uses_anonymous_args = 0
 6296              	.LVL517:
 6297 0000 2DE9F041 		push	{r4, r5, r6, r7, r8, lr}
 6298              		.cfi_def_cfa_offset 24
 6299              		.cfi_offset 4, -24
 6300              		.cfi_offset 5, -20
 6301              		.cfi_offset 6, -16
 6302              		.cfi_offset 7, -12
 6303              		.cfi_offset 8, -8
 6304              		.cfi_offset 14, -4
 6305              		.loc 1 2079 0
 6306 0004 734F     		ldr	r7, .L529
 6307              		.loc 1 2084 0
 6308 0006 744E     		ldr	r6, .L529+4
 6309              		.loc 1 2079 0
 6310 0008 3B68     		ldr	r3, [r7]
 6311              		.loc 1 2077 0
 6312 000a 2DED0A8B 		vpush.64	{d8, d9, d10, d11, d12}
 6313              		.cfi_def_cfa_offset 64
 6314              		.cfi_offset 80, -64
 6315              		.cfi_offset 81, -60
 6316              		.cfi_offset 82, -56
 6317              		.cfi_offset 83, -52
 6318              		.cfi_offset 84, -48
 6319              		.cfi_offset 85, -44
 6320              		.cfi_offset 86, -40
 6321              		.cfi_offset 87, -36
 6322              		.cfi_offset 88, -32
 6323              		.cfi_offset 89, -28
 6324              		.loc 1 2079 0
 6325 000e 93ED30BA 		vldr.32	s22, [r3, #192]
 6326              		.loc 1 2080 0
 6327 0012 93ED328A 		vldr.32	s16, [r3, #200]
ARM GAS  /tmp/ccvafMs5.s 			page 112


 6328              		.loc 1 2081 0
 6329 0016 D3ED31AA 		vldr.32	s21, [r3, #196]
 6330              		.loc 1 2084 0
 6331 001a D6ED107A 		vldr.32	s15, [r6, #64]
 6332 001e 96ED147A 		vldr.32	s14, [r6, #80]
 6333              		.loc 1 2085 0
 6334 0022 D3ED436A 		vldr.32	s13, [r3, #268]
 6335 0026 D6ED085A 		vldr.32	s11, [r6, #32]
 6336 002a 93ED016A 		vldr.32	s12, [r3, #4]
 6337              		.loc 1 2084 0
 6338 002e 67EE877A 		vmul.f32	s15, s15, s14
 6339              		.loc 1 2079 0
 6340 0032 B7EE087A 		vmov.f32	s14, #1.5e+0
 6341              		.loc 1 2081 0
 6342 0036 6AEE87AA 		vmul.f32	s21, s21, s14
 6343              		.loc 1 2079 0
 6344 003a 2BEE07BA 		vmul.f32	s22, s22, s14
 6345              		.loc 1 2085 0
 6346 003e 85EE867A 		vdiv.f32	s14, s11, s12
 6347              		.loc 1 2077 0
 6348 0042 82B0     		sub	sp, sp, #8
 6349              		.cfi_def_cfa_offset 72
 6350              		.loc 1 2077 0
 6351 0044 9046     		mov	r8, r2
 6352 0046 0546     		mov	r5, r0
 6353 0048 0C46     		mov	r4, r1
 6354              		.loc 1 2084 0
 6355 004a F5EEC07A 		vcmpe.f32	s15, #0
 6356 004e F1EE10FA 		vmrs	APSR_nzcv, FPSCR
 6357 0052 B4BF     		ite	lt
 6358 0054 F1EE6A7A 		vneglt.f32	s15, s21
 6359 0058 F0EE6A7A 		vmovge.f32	s15, s21
 6360              		.loc 1 2085 0
 6361 005c 67EEE67A 		vnmul.f32	s15, s15, s13
 6362              		.loc 1 2077 0
 6363 0060 B0EE409A 		vmov.f32	s18, s0
 6364              	.LVL518:
 6365 0064 F0EE608A 		vmov.f32	s17, s1
 6366 0068 F0EE41BA 		vmov.f32	s23, s2
 6367 006c F0EE61CA 		vmov.f32	s25, s3
 6368 0070 F0EE429A 		vmov.f32	s19, s4
 6369              		.loc 1 2085 0
 6370 0074 E7EE87AA 		vfma.f32	s21, s15, s14
 6371              	.LVL519:
 6372              		.loc 1 2088 0
 6373 0078 FFF7FEFF 		bl	mc_interface_temp_motor_filtered
 6374              	.LVL520:
 6375              		.loc 1 2089 0
 6376 007c 3B68     		ldr	r3, [r7]
 6377 007e 93F81021 		ldrb	r2, [r3, #272]	@ zero_extendqisi2
 6378 0082 3AB1     		cbz	r2, .L510
 6379              		.loc 1 2089 0 is_stmt 0 discriminator 1
 6380 0084 F9EE047A 		vmov.f32	s15, #-5.0e+0
 6381 0088 B4EEE70A 		vcmpe.f32	s0, s15
 6382 008c F1EE10FA 		vmrs	APSR_nzcv, FPSCR
 6383 0090 00F39480 		bgt	.L526
 6384              	.LVL521:
ARM GAS  /tmp/ccvafMs5.s 			page 113


 6385              	.L510:
 6386              		.loc 1 2098 0 is_stmt 1
 6387 0094 514B     		ldr	r3, .L529+8
 6388              		.loc 1 2109 0
 6389 0096 F1EE087A 		vmov.f32	s15, #6.0e+0
 6390 009a 89EEA7CA 		vdiv.f32	s24, s19, s15
 6391              	.LBB131:
 6392              	.LBB132:
 6393              		.loc 1 2113 0
 6394 009e 0626     		movs	r6, #6
 6395              	.LBE132:
 6396              	.LBE131:
 6397              		.loc 1 2095 0
 6398 00a0 6AEEAB7A 		vmul.f32	s15, s21, s23
 6399              		.loc 1 2097 0
 6400 00a4 28EE088A 		vmul.f32	s16, s16, s16
 6401              	.LVL522:
 6402              		.loc 1 2096 0
 6403 00a8 6AEEACAA 		vmul.f32	s21, s21, s25
 6404              	.LVL523:
 6405              		.loc 1 2098 0
 6406 00ac 93ED00AA 		vldr.32	s20, [r3]
 6407              	.LBB138:
 6408              	.LBB133:
 6409              		.loc 1 2113 0
 6410 00b0 DFED4B9A 		vldr.32	s19, .L529+12
 6411              	.LVL524:
 6412              	.LBE133:
 6413              	.LBE138:
 6414              		.loc 1 2098 0
 6415 00b4 B6EE007A 		vmov.f32	s14, #5.0e-1
 6416 00b8 78EEEA8A 		vsub.f32	s17, s17, s21
 6417              	.LVL525:
 6418              		.loc 1 2093 0
 6419 00bc 6BEE2BBA 		vmul.f32	s23, s22, s23
 6420              	.LVL526:
 6421              		.loc 1 2098 0
 6422 00c0 2AEE07AA 		vmul.f32	s20, s20, s14
 6423              	.LBB139:
 6424              	.LBB134:
 6425              		.loc 1 2113 0
 6426 00c4 68EE299A 		vmul.f32	s19, s16, s19
 6427 00c8 39EE679A 		vsub.f32	s18, s18, s15
 6428              	.LVL527:
 6429              	.LBE134:
 6430              	.LBE139:
 6431              		.loc 1 2094 0
 6432 00cc 2BEE2CBA 		vmul.f32	s22, s22, s25
 6433              	.LVL528:
 6434              	.LBB140:
 6435              	.LBB135:
 6436              		.loc 1 2114 0
 6437 00d0 F2EE04AA 		vmov.f32	s21, #1.0e+1
 6438 00d4 27E0     		b	.L513
 6439              	.LVL529:
 6440              	.L528:
 6441 00d6 6AEE2A5A 		vmul.f32	s11, s20, s21
ARM GAS  /tmp/ccvafMs5.s 			page 114


 6442              	.LVL530:
 6443              	.L512:
 6444              		.loc 1 2116 0 discriminator 2
 6445 00da 95ED007A 		vldr.32	s14, [r5]
 6446              		.loc 1 2117 0 discriminator 2
 6447 00de D4ED007A 		vldr.32	s15, [r4]
 6448              		.loc 1 2116 0 discriminator 2
 6449 00e2 9DED016A 		vldr.32	s12, [sp, #4]
 6450              	.LVL531:
 6451              		.loc 1 2119 0 discriminator 2
 6452 00e6 D5ED006A 		vldr.32	s13, [r5]
 6453              		.loc 1 2116 0 discriminator 2
 6454 00ea 37EE6B7A 		vsub.f32	s14, s14, s23
 6455              		.loc 1 2117 0 discriminator 2
 6456 00ee 77EECB7A 		vsub.f32	s15, s15, s22
 6457              		.loc 1 2116 0 discriminator 2
 6458 00f2 27EE257A 		vmul.f32	s14, s14, s11
 6459              		.loc 1 2117 0 discriminator 2
 6460 00f6 67EEA57A 		vmul.f32	s15, s15, s11
 6461              		.loc 1 2116 0 discriminator 2
 6462 00fa F0EE495A 		vmov.f32	s11, s18
 6463              	.LVL532:
 6464 00fe E7EE065A 		vfma.f32	s11, s14, s12
 6465              	.LBE135:
 6466              		.loc 1 2110 0 discriminator 2
 6467 0102 013E     		subs	r6, r6, #1
 6468              	.LVL533:
 6469              	.LBB136:
 6470              		.loc 1 2117 0 discriminator 2
 6471 0104 B0EE687A 		vmov.f32	s14, s17
 6472 0108 A6EE277A 		vfma.f32	s14, s12, s15
 6473              		.loc 1 2119 0 discriminator 2
 6474 010c F0EE667A 		vmov.f32	s15, s13
 6475 0110 ECEE257A 		vfma.f32	s15, s24, s11
 6476 0114 C5ED007A 		vstr.32	s15, [r5]
 6477              		.loc 1 2120 0 discriminator 2
 6478 0118 D4ED007A 		vldr.32	s15, [r4]
 6479 011c ECEE077A 		vfma.f32	s15, s24, s14
 6480 0120 C4ED007A 		vstr.32	s15, [r4]
 6481              	.LVL534:
 6482              	.LBE136:
 6483              		.loc 1 2110 0 discriminator 2
 6484 0124 21D0     		beq	.L527
 6485              	.L513:
 6486              	.LVL535:
 6487              	.LBB137:
 6488              		.loc 1 2111 0
 6489 0126 D5ED006A 		vldr.32	s13, [r5]
 6490 012a 95ED007A 		vldr.32	s14, [r5]
 6491 012e D4ED007A 		vldr.32	s15, [r4]
 6492 0132 94ED006A 		vldr.32	s12, [r4]
 6493 0136 77EECB7A 		vsub.f32	s15, s15, s22
 6494 013a 36EE4B6A 		vsub.f32	s12, s12, s22
 6495 013e 76EEEB6A 		vsub.f32	s13, s13, s23
 6496 0142 37EE6B7A 		vsub.f32	s14, s14, s23
 6497 0146 67EE867A 		vmul.f32	s15, s15, s12
 6498              		.loc 1 2113 0
ARM GAS  /tmp/ccvafMs5.s 			page 115


 6499 014a B0EE690A 		vmov.f32	s0, s19
 6500              		.loc 1 2111 0
 6501 014e E6EE877A 		vfma.f32	s15, s13, s14
 6502              		.loc 1 2113 0
 6503 0152 01A8     		add	r0, sp, #4
 6504              		.loc 1 2111 0
 6505 0154 78EE677A 		vsub.f32	s15, s16, s15
 6506 0158 CDED017A 		vstr.32	s15, [sp, #4]
 6507              		.loc 1 2113 0
 6508 015c FFF7FEFF 		bl	utils_truncate_number_abs
 6509              	.LVL536:
 6510 0160 0028     		cmp	r0, #0
 6511 0162 B8D1     		bne	.L528
 6512              		.loc 1 2112 0
 6513 0164 F0EE4A5A 		vmov.f32	s11, s20
 6514 0168 B7E7     		b	.L512
 6515              	.LVL537:
 6516              	.L527:
 6517              	.LBE137:
 6518              	.LBE140:
 6519              		.loc 1 2134 0
 6520 016a 95ED007A 		vldr.32	s14, [r5]
 6521 016e D5ED007A 		vldr.32	s15, [r5]
 6522 0172 B4EE677A 		vcmp.f32	s14, s15
 6523 0176 F1EE10FA 		vmrs	APSR_nzcv, FPSCR
 6524 017a 0CBF     		ite	eq
 6525 017c 2B68     		ldreq	r3, [r5]	@ float
 6526 017e 0023     		movne	r3, #0
 6527 0180 2B60     		str	r3, [r5]	@ float
 6528              		.loc 1 2135 0
 6529 0182 94ED007A 		vldr.32	s14, [r4]
 6530 0186 D4ED007A 		vldr.32	s15, [r4]
 6531 018a B4EE677A 		vcmp.f32	s14, s15
 6532 018e F1EE10FA 		vmrs	APSR_nzcv, FPSCR
 6533 0192 0CBF     		ite	eq
 6534 0194 2368     		ldreq	r3, [r4]	@ float
 6535 0196 0023     		movne	r3, #0
 6536 0198 2360     		str	r3, [r4]	@ float
 6537              		.loc 1 2137 0
 6538 019a 94ED000A 		vldr.32	s0, [r4]
 6539 019e D5ED000A 		vldr.32	s1, [r5]
 6540 01a2 30EE4B0A 		vsub.f32	s0, s0, s22
 6541 01a6 70EEEB0A 		vsub.f32	s1, s1, s23
 6542 01aa FFF7FEFF 		bl	utils_fast_atan2
 6543              	.LVL538:
 6544 01ae 88ED000A 		vstr.32	s0, [r8]
 6545              		.loc 1 2138 0
 6546 01b2 02B0     		add	sp, sp, #8
 6547              		.cfi_remember_state
 6548              		.cfi_def_cfa_offset 64
 6549              		@ sp needed
 6550 01b4 BDEC0A8B 		vldm	sp!, {d8-d12}
 6551              		.cfi_restore 88
 6552              		.cfi_restore 89
