ARM GAS  /tmp/ccUSLiGn.s 			page 1


   1              		.cpu cortex-m4
   2              		.eabi_attribute 27, 1
   3              		.eabi_attribute 28, 1
   4              		.eabi_attribute 20, 1
   5              		.eabi_attribute 21, 1
   6              		.eabi_attribute 23, 3
   7              		.eabi_attribute 24, 1
   8              		.eabi_attribute 25, 1
   9              		.eabi_attribute 26, 1
  10              		.eabi_attribute 30, 2
  11              		.eabi_attribute 34, 1
  12              		.eabi_attribute 18, 4
  13              		.file	"packet.c"
  14              		.text
  15              	.Ltext0:
  16              		.cfi_sections	.debug_frame
  17              		.section	.text.packet_init,"ax",%progbits
  18              		.align	1
  19              		.p2align 4,,15
  20              		.global	packet_init
  21              		.syntax unified
  22              		.thumb
  23              		.thumb_func
  24              		.fpu fpv4-sp-d16
  25              		.type	packet_init, %function
  26              	packet_init:
  27              	.LFB0:
  28              		.file 1 "packet.c"
  29              		.loc 1 40 0
  30              		.cfi_startproc
  31              		@ args = 0, pretend = 0, frame = 0
  32              		@ frame_needed = 0, uses_anonymous_args = 0
  33              		@ link register save eliminated.
  34              	.LVL0:
  35              		.loc 1 41 0
  36 0000 034B     		ldr	r3, .L3
  37 0002 02EB8212 		add	r2, r2, r2, lsl #6
  38              	.LVL1:
  39 0006 03EB4212 		add	r2, r3, r2, lsl #5
  40              		.loc 1 42 0
  41 000a C2E90101 		strd	r0, r1, [r2, #4]
  42              		.loc 1 43 0
  43 000e 7047     		bx	lr
  44              	.L4:
  45              		.align	2
  46              	.L3:
  47 0010 00000000 		.word	handler_states
  48              		.cfi_endproc
  49              	.LFE0:
  50              		.size	packet_init, .-packet_init
  51              		.section	.text.packet_send_packet,"ax",%progbits
  52              		.align	1
  53              		.p2align 4,,15
  54              		.global	packet_send_packet
  55              		.syntax unified
  56              		.thumb
  57              		.thumb_func
ARM GAS  /tmp/ccUSLiGn.s 			page 2


  58              		.fpu fpv4-sp-d16
  59              		.type	packet_send_packet, %function
  60              	packet_send_packet:
  61              	.LFB1:
  62              		.loc 1 45 0
  63              		.cfi_startproc
  64              		@ args = 0, pretend = 0, frame = 0
  65              		@ frame_needed = 0, uses_anonymous_args = 0
  66              	.LVL2:
  67              		.loc 1 46 0
  68 0000 B1F5806F 		cmp	r1, #1024
  69 0004 3ED8     		bhi	.L15
  70              	.LVL3:
  71              		.loc 1 45 0
  72 0006 2DE9F047 		push	{r4, r5, r6, r7, r8, r9, r10, lr}
  73              		.cfi_def_cfa_offset 32
  74              		.cfi_offset 4, -32
  75              		.cfi_offset 5, -28
  76              		.cfi_offset 6, -24
  77              		.cfi_offset 7, -20
  78              		.cfi_offset 8, -16
  79              		.cfi_offset 9, -12
  80              		.cfi_offset 10, -8
  81              		.cfi_offset 14, -4
  82              		.loc 1 53 0
  83 000a 9301     		lsls	r3, r2, #6
  84 000c 1E4E     		ldr	r6, .L19
  85 000e 9C18     		adds	r4, r3, r2
  86              		.loc 1 52 0
  87 0010 B1F5807F 		cmp	r1, #256
  88 0014 5FFA81FC 		uxtb	ip, r1
  89              		.loc 1 53 0
  90 0018 06EB4414 		add	r4, r6, r4, lsl #5
  91              		.loc 1 52 0
  92 001c 2AD9     		bls	.L18
  93              	.LVL4:
  94              		.loc 1 57 0
  95 001e 0D0A     		lsrs	r5, r1, #8
  96              		.loc 1 56 0
  97 0020 0327     		movs	r7, #3
  98              		.loc 1 58 0
  99 0022 84F812C4 		strb	ip, [r4, #1042]
 100              		.loc 1 57 0
 101 0026 84F81154 		strb	r5, [r4, #1041]
 102              		.loc 1 56 0
 103 002a 84F81074 		strb	r7, [r4, #1040]
 104              	.LVL5:
 105              	.L9:
 106              		.loc 1 61 0
 107 002e 9C18     		adds	r4, r3, r2
 108 0030 6401     		lsls	r4, r4, #5
 109 0032 04F58269 		add	r9, r4, #1040
 110 0036 8046     		mov	r8, r0
 111 0038 B144     		add	r9, r9, r6
 112 003a 0A46     		mov	r2, r1
 113              	.LVL6:
 114 003c 0D46     		mov	r5, r1
ARM GAS  /tmp/ccUSLiGn.s 			page 3


 115 003e 09EB0700 		add	r0, r9, r7
 116              	.LVL7:
 117 0042 4146     		mov	r1, r8
 118              	.LVL8:
 119 0044 FFF7FEFF 		bl	memcpy
 120              	.LVL9:
 121              		.loc 1 64 0
 122 0048 2946     		mov	r1, r5
 123 004a 4046     		mov	r0, r8
 124 004c FFF7FEFF 		bl	crc16
 125              	.LVL10:
 126              		.loc 1 65 0
 127 0050 3444     		add	r4, r4, r6
 128              		.loc 1 62 0
 129 0052 E919     		adds	r1, r5, r7
 130              	.LVL11:
 131              		.loc 1 65 0
 132 0054 6318     		adds	r3, r4, r1
 133              		.loc 1 69 0
 134 0056 6268     		ldr	r2, [r4, #4]
 135              		.loc 1 66 0
 136 0058 83F81104 		strb	r0, [r3, #1041]
 137              		.loc 1 67 0
 138 005c 0324     		movs	r4, #3
 139              		.loc 1 65 0
 140 005e 000A     		lsrs	r0, r0, #8
 141              	.LVL12:
 142 0060 83F81004 		strb	r0, [r3, #1040]
 143              	.LVL13:
 144              		.loc 1 67 0
 145 0064 2144     		add	r1, r1, r4
 146              	.LVL14:
 147 0066 83F81244 		strb	r4, [r3, #1042]
 148              		.loc 1 69 0
 149 006a 4AB1     		cbz	r2, .L5
 150              		.loc 1 70 0
 151 006c 4846     		mov	r0, r9
 152              		.loc 1 72 0
 153 006e BDE8F047 		pop	{r4, r5, r6, r7, r8, r9, r10, lr}
 154              		.cfi_remember_state
 155              		.cfi_restore 14
 156              		.cfi_restore 10
 157              		.cfi_restore 9
 158              		.cfi_restore 8
 159              		.cfi_restore 7
 160              		.cfi_restore 6
 161              		.cfi_restore 5
 162              		.cfi_restore 4
 163              		.cfi_def_cfa_offset 0
 164              	.LVL15:
 165              		.loc 1 70 0
 166 0072 1047     		bx	r2	@ indirect register sibling call
 167              	.LVL16:
 168              	.L18:
 169              		.cfi_restore_state
 170              		.loc 1 53 0
 171 0074 0227     		movs	r7, #2
ARM GAS  /tmp/ccUSLiGn.s 			page 4


 172              		.loc 1 54 0
 173 0076 84F811C4 		strb	ip, [r4, #1041]
 174              		.loc 1 53 0
 175 007a 84F81074 		strb	r7, [r4, #1040]
 176              	.LVL17:
 177 007e D6E7     		b	.L9
 178              	.LVL18:
 179              	.L5:
 180              		.loc 1 72 0
 181 0080 BDE8F087 		pop	{r4, r5, r6, r7, r8, r9, r10, pc}
 182              	.LVL19:
 183              	.L15:
 184              		.cfi_def_cfa_offset 0
 185              		.cfi_restore 4
 186              		.cfi_restore 5
 187              		.cfi_restore 6
 188              		.cfi_restore 7
 189              		.cfi_restore 8
 190              		.cfi_restore 9
 191              		.cfi_restore 10
 192              		.cfi_restore 14
 193 0084 7047     		bx	lr
 194              	.L20:
 195 0086 00BF     		.align	2
 196              	.L19:
 197 0088 00000000 		.word	handler_states
 198              		.cfi_endproc
 199              	.LFE1:
 200              		.size	packet_send_packet, .-packet_send_packet
 201              		.section	.text.packet_timerfunc,"ax",%progbits
 202              		.align	1
 203              		.p2align 4,,15
 204              		.global	packet_timerfunc
 205              		.syntax unified
 206              		.thumb
 207              		.thumb_func
 208              		.fpu fpv4-sp-d16
 209              		.type	packet_timerfunc, %function
 210              	packet_timerfunc:
 211              	.LFB2:
 212              		.loc 1 77 0
 213              		.cfi_startproc
 214              		@ args = 0, pretend = 0, frame = 0
 215              		@ frame_needed = 0, uses_anonymous_args = 0
 216              		@ link register save eliminated.
 217              	.LVL20:
 218              	.LBB2:
 219              		.loc 1 79 0
 220 0000 0E4B     		ldr	r3, .L27
 221 0002 5A88     		ldrh	r2, [r3, #2]
 222 0004 92B2     		uxth	r2, r2
 223 0006 72B9     		cbnz	r2, .L22
 224              	.LVL21:
 225              		.loc 1 82 0
 226 0008 1A70     		strb	r2, [r3]
 227              		.loc 1 79 0
 228 000a B3F82228 		ldrh	r2, [r3, #2082]
ARM GAS  /tmp/ccUSLiGn.s 			page 5


 229 000e 92B2     		uxth	r2, r2
 230 0010 32B1     		cbz	r2, .L26
 231              	.L24:
 232              		.loc 1 80 0
 233 0012 B3F82228 		ldrh	r2, [r3, #2082]
 234 0016 013A     		subs	r2, r2, #1
 235 0018 92B2     		uxth	r2, r2
 236 001a A3F82228 		strh	r2, [r3, #2082]	@ movhi
 237              	.LVL22:
 238              	.LBE2:
 239              		.loc 1 85 0
 240 001e 7047     		bx	lr
 241              	.LVL23:
 242              	.L26:
 243              	.LBB3:
 244              		.loc 1 82 0
 245 0020 83F82028 		strb	r2, [r3, #2080]
 246 0024 7047     		bx	lr
 247              	.LVL24:
 248              	.L22:
 249              		.loc 1 80 0
 250 0026 5A88     		ldrh	r2, [r3, #2]
 251 0028 013A     		subs	r2, r2, #1
 252 002a 92B2     		uxth	r2, r2
 253 002c 5A80     		strh	r2, [r3, #2]	@ movhi
 254              	.LVL25:
 255              		.loc 1 79 0
 256 002e B3F82228 		ldrh	r2, [r3, #2082]
 257 0032 92B2     		uxth	r2, r2
 258 0034 002A     		cmp	r2, #0
 259 0036 ECD1     		bne	.L24
 260 0038 F2E7     		b	.L26
 261              	.L28:
 262 003a 00BF     		.align	2
 263              	.L27:
 264 003c 00000000 		.word	handler_states
 265              	.LBE3:
 266              		.cfi_endproc
 267              	.LFE2:
 268              		.size	packet_timerfunc, .-packet_timerfunc
 269              		.section	.text.packet_process_byte,"ax",%progbits
 270              		.align	1
 271              		.p2align 4,,15
 272              		.global	packet_process_byte
 273              		.syntax unified
 274              		.thumb
 275              		.thumb_func
 276              		.fpu fpv4-sp-d16
 277              		.type	packet_process_byte, %function
 278              	packet_process_byte:
 279              	.LFB3:
 280              		.loc 1 87 0
 281              		.cfi_startproc
 282              		@ args = 0, pretend = 0, frame = 0
 283              		@ frame_needed = 0, uses_anonymous_args = 0
 284              	.LVL26:
 285 0000 2DE9F843 		push	{r3, r4, r5, r6, r7, r8, r9, lr}
ARM GAS  /tmp/ccUSLiGn.s 			page 6


 286              		.cfi_def_cfa_offset 32
 287              		.cfi_offset 3, -32
 288              		.cfi_offset 4, -28
 289              		.cfi_offset 5, -24
 290              		.cfi_offset 6, -20
 291              		.cfi_offset 7, -16
 292              		.cfi_offset 8, -12
 293              		.cfi_offset 9, -8
 294              		.cfi_offset 14, -4
 295              		.loc 1 88 0
 296 0004 8E01     		lsls	r6, r1, #6
 297 0006 7318     		adds	r3, r6, r1
 298 0008 5B01     		lsls	r3, r3, #5
 299 000a 4B4D     		ldr	r5, .L57
 300 000c EB5C     		ldrb	r3, [r5, r3]	@ zero_extendqisi2
 301 000e 062B     		cmp	r3, #6
 302 0010 63D8     		bhi	.L30
 303 0012 DFE803F0 		tbb	[pc, r3]
 304              	.L32:
 305 0016 0D       		.byte	(.L31-.L32)/2
 306 0017 18       		.byte	(.L33-.L32)/2
 307 0018 26       		.byte	(.L34-.L32)/2
 308 0019 39       		.byte	(.L35-.L32)/2
 309 001a 54       		.byte	(.L36-.L32)/2
 310 001b 5B       		.byte	(.L37-.L32)/2
 311 001c 04       		.byte	(.L38-.L32)/2
 312 001d 00       		.p2align 1
 313              	.L38:
 314              		.loc 1 145 0
 315 001e 0328     		cmp	r0, #3
 316 0020 0C46     		mov	r4, r1
 317 0022 6ED0     		beq	.L54
 318              	.LVL27:
 319              	.L45:
 320              		.loc 1 156 0
 321 0024 3444     		add	r4, r4, r6
 322              	.LVL28:
 323 0026 6401     		lsls	r4, r4, #5
 324 0028 0023     		movs	r3, #0
 325 002a 2B55     		strb	r3, [r5, r4]
 326              	.L29:
 327              		.loc 1 163 0
 328 002c BDE8F883 		pop	{r3, r4, r5, r6, r7, r8, r9, pc}
 329              	.LVL29:
 330              	.L31:
 331              		.loc 1 92 0
 332 0030 3144     		add	r1, r1, r6
 333              	.LVL30:
 334              		.loc 1 90 0
 335 0032 0228     		cmp	r0, #2
 336              		.loc 1 92 0
 337 0034 4FEA4111 		lsl	r1, r1, #5
 338              		.loc 1 90 0
 339 0038 52D0     		beq	.L55
 340              		.loc 1 96 0
 341 003a 0328     		cmp	r0, #3
 342 003c 5DD0     		beq	.L56
ARM GAS  /tmp/ccUSLiGn.s 			page 7


 343              	.LVL31:
 344              	.L52:
 345              		.loc 1 160 0
 346 003e 0023     		movs	r3, #0
 347 0040 6B54     		strb	r3, [r5, r1]
 348              		.loc 1 163 0
 349 0042 BDE8F883 		pop	{r3, r4, r5, r6, r7, r8, r9, pc}
 350              	.LVL32:
 351              	.L33:
 352              		.loc 1 108 0
 353 0046 3144     		add	r1, r1, r6
 354              	.LVL33:
 355 0048 4901     		lsls	r1, r1, #5
 356 004a 6A18     		adds	r2, r5, r1
 357              		.loc 1 109 0
 358 004c 6B5C     		ldrb	r3, [r5, r1]	@ zero_extendqisi2
 359 004e 0133     		adds	r3, r3, #1
 360 0050 DBB2     		uxtb	r3, r3
 361 0052 6B54     		strb	r3, [r5, r1]
 362              		.loc 1 108 0
 363 0054 0002     		lsls	r0, r0, #8
 364              	.LVL34:
 365              		.loc 1 110 0
 366 0056 4FF47A74 		mov	r4, #1000
 367              		.loc 1 108 0
 368 005a D060     		str	r0, [r2, #12]
 369              		.loc 1 110 0
 370 005c 5480     		strh	r4, [r2, #2]	@ movhi
 371              		.loc 1 163 0
 372 005e BDE8F883 		pop	{r3, r4, r5, r6, r7, r8, r9, pc}
 373              	.LVL35:
 374              	.L34:
 375              		.loc 1 114 0
 376 0062 3144     		add	r1, r1, r6
 377              	.LVL36:
 378 0064 4901     		lsls	r1, r1, #5
 379 0066 6A18     		adds	r2, r5, r1
 380 0068 D368     		ldr	r3, [r2, #12]
 381 006a 1843     		orrs	r0, r0, r3
 382              	.LVL37:
 383              		.loc 1 115 0
 384 006c 431E     		subs	r3, r0, #1
 385 006e B3F5806F 		cmp	r3, #1024
 386              		.loc 1 114 0
 387 0072 D060     		str	r0, [r2, #12]
 388              		.loc 1 115 0
 389 0074 E3D2     		bcs	.L52
 390              		.loc 1 117 0
 391 0076 6B5C     		ldrb	r3, [r5, r1]	@ zero_extendqisi2
 392              	.L53:
 393              		.loc 1 140 0
 394 0078 0133     		adds	r3, r3, #1
 395 007a DBB2     		uxtb	r3, r3
 396 007c 6B54     		strb	r3, [r5, r1]
 397              		.loc 1 141 0
 398 007e 4FF47A70 		mov	r0, #1000
 399 0082 5080     		strh	r0, [r2, #2]	@ movhi
ARM GAS  /tmp/ccUSLiGn.s 			page 8


 400              		.loc 1 163 0
 401 0084 BDE8F883 		pop	{r3, r4, r5, r6, r7, r8, r9, pc}
 402              	.LVL38:
 403              	.L35:
 404              		.loc 1 125 0
 405 0088 7418     		adds	r4, r6, r1
 406 008a 6401     		lsls	r4, r4, #5
 407 008c 2A19     		adds	r2, r5, r4
 408 008e D2F81838 		ldr	r3, [r2, #2072]
 409              		.loc 1 126 0
 410 0092 D768     		ldr	r7, [r2, #12]
 411              		.loc 1 125 0
 412 0094 02EB030C 		add	ip, r2, r3
 413 0098 0133     		adds	r3, r3, #1
 414              		.loc 1 126 0
 415 009a BB42     		cmp	r3, r7
 416              		.loc 1 125 0
 417 009c 8CF81000 		strb	r0, [ip, #16]
 418 00a0 C2F81838 		str	r3, [r2, #2072]
 419              		.loc 1 126 0
 420 00a4 03D1     		bne	.L43
 421              		.loc 1 127 0
 422 00a6 2B5D     		ldrb	r3, [r5, r4]	@ zero_extendqisi2
 423 00a8 0133     		adds	r3, r3, #1
 424 00aa DBB2     		uxtb	r3, r3
 425 00ac 2B55     		strb	r3, [r5, r4]
 426              	.L43:
 427              		.loc 1 129 0
 428 00ae 3144     		add	r1, r1, r6
 429              	.LVL39:
 430 00b0 05EB4115 		add	r5, r5, r1, lsl #5
 431 00b4 4FF47A73 		mov	r3, #1000
 432 00b8 6B80     		strh	r3, [r5, #2]	@ movhi
 433              		.loc 1 163 0
 434 00ba BDE8F883 		pop	{r3, r4, r5, r6, r7, r8, r9, pc}
 435              	.LVL40:
 436              	.L36:
 437              		.loc 1 133 0
 438 00be 3144     		add	r1, r1, r6
 439              	.LVL41:
 440 00c0 4901     		lsls	r1, r1, #5
 441 00c2 6A18     		adds	r2, r5, r1
 442              		.loc 1 134 0
 443 00c4 6B5C     		ldrb	r3, [r5, r1]	@ zero_extendqisi2
 444              		.loc 1 133 0
 445 00c6 82F81D08 		strb	r0, [r2, #2077]
 446 00ca D5E7     		b	.L53
 447              	.LVL42:
 448              	.L37:
 449              		.loc 1 139 0
 450 00cc 3144     		add	r1, r1, r6
 451              	.LVL43:
 452 00ce 4901     		lsls	r1, r1, #5
 453 00d0 6A18     		adds	r2, r5, r1
 454              		.loc 1 140 0
 455 00d2 6B5C     		ldrb	r3, [r5, r1]	@ zero_extendqisi2
 456              		.loc 1 139 0
ARM GAS  /tmp/ccUSLiGn.s 			page 9


 457 00d4 82F81C08 		strb	r0, [r2, #2076]
 458 00d8 CEE7     		b	.L53
 459              	.LVL44:
 460              	.L30:
 461              		.loc 1 160 0
 462 00da 3144     		add	r1, r1, r6
 463              	.LVL45:
 464 00dc 4901     		lsls	r1, r1, #5
 465 00de AEE7     		b	.L52
 466              	.L55:
 467              		.loc 1 92 0
 468 00e0 6B5C     		ldrb	r3, [r5, r1]	@ zero_extendqisi2
 469 00e2 6A18     		adds	r2, r5, r1
 470 00e4 0233     		adds	r3, r3, #2
 471              	.L51:
 472              		.loc 1 100 0
 473 00e6 0020     		movs	r0, #0
 474              	.LVL46:
 475              		.loc 1 98 0
 476 00e8 DBB2     		uxtb	r3, r3
 477              		.loc 1 99 0
 478 00ea 4FF47A74 		mov	r4, #1000
 479              		.loc 1 98 0
 480 00ee 6B54     		strb	r3, [r5, r1]
 481              		.loc 1 100 0
 482 00f0 C2F81808 		str	r0, [r2, #2072]
 483              		.loc 1 99 0
 484 00f4 5480     		strh	r4, [r2, #2]	@ movhi
 485              		.loc 1 101 0
 486 00f6 D060     		str	r0, [r2, #12]
 487 00f8 98E7     		b	.L29
 488              	.LVL47:
 489              	.L56:
 490              		.loc 1 98 0
 491 00fa 6B5C     		ldrb	r3, [r5, r1]	@ zero_extendqisi2
 492 00fc 6A18     		adds	r2, r5, r1
 493 00fe 0133     		adds	r3, r3, #1
 494 0100 F1E7     		b	.L51
 495              	.LVL48:
 496              	.L54:
 497 0102 7718     		adds	r7, r6, r1
 498 0104 7F01     		lsls	r7, r7, #5
 499              		.loc 1 146 0
 500 0106 07F11008 		add	r8, r7, #16
 501 010a 05EB0709 		add	r9, r5, r7
 502 010e A844     		add	r8, r8, r5
 503 0110 4046     		mov	r0, r8
 504              	.LVL49:
 505 0112 D9F80C10 		ldr	r1, [r9, #12]
 506              	.LVL50:
 507 0116 FFF7FEFF 		bl	crc16
 508              	.LVL51:
 509 011a 084B     		ldr	r3, .L57+4
 510 011c DB5B     		ldrh	r3, [r3, r7]
 511 011e 8342     		cmp	r3, r0
 512 0120 80D1     		bne	.L45
 513              		.loc 1 150 0
ARM GAS  /tmp/ccUSLiGn.s 			page 10


 514 0122 D9F80830 		ldr	r3, [r9, #8]
 515 0126 002B     		cmp	r3, #0
 516 0128 3FF47CAF 		beq	.L45
 517              		.loc 1 151 0
 518 012c D9F80C10 		ldr	r1, [r9, #12]
 519 0130 4046     		mov	r0, r8
 520 0132 9847     		blx	r3
 521              	.LVL52:
 522 0134 76E7     		b	.L45
 523              	.L58:
 524 0136 00BF     		.align	2
 525              	.L57:
 526 0138 00000000 		.word	handler_states
 527 013c 1C080000 		.word	handler_states+2076
 528              		.cfi_endproc
 529              	.LFE3:
 530              		.size	packet_process_byte, .-packet_process_byte
 531              		.section	.bss.handler_states,"aw",%nobits
 532              		.align	2
 533              		.type	handler_states, %object
 534              		.size	handler_states, 4160
 535              	handler_states:
 536 0000 00000000 		.space	4160
 536      00000000 
 536      00000000 
 536      00000000 
 536      00000000 
 537              		.text
 538              	.Letext0:
 539              		.file 2 "/usr/arm-none-eabi/include/machine/_default_types.h"
 540              		.file 3 "/usr/arm-none-eabi/include/sys/lock.h"
 541              		.file 4 "/usr/arm-none-eabi/include/sys/_types.h"
 542              		.file 5 "/usr/lib/gcc/arm-none-eabi/7.3.1/include/stddef.h"
 543              		.file 6 "/usr/arm-none-eabi/include/sys/reent.h"
 544              		.file 7 "/usr/arm-none-eabi/include/sys/_stdint.h"
 545              		.file 8 "crc.h"
 546              		.file 9 "<built-in>"
 547              		.section	.debug_info,"",%progbits
 548              	.Ldebug_info0:
 549 0000 230B0000 		.4byte	0xb23
 550 0004 0400     		.2byte	0x4
 551 0006 00000000 		.4byte	.Ldebug_abbrev0
 552 000a 04       		.byte	0x4
 553 000b 01       		.uleb128 0x1
 554 000c 50000000 		.4byte	.LASF144
 555 0010 0C       		.byte	0xc
 556 0011 15050000 		.4byte	.LASF145
 557 0015 30050000 		.4byte	.LASF146
 558 0019 18000000 		.4byte	.Ldebug_ranges0+0x18
 559 001d 00000000 		.4byte	0
 560 0021 00000000 		.4byte	.Ldebug_line0
 561 0025 02       		.uleb128 0x2
 562 0026 04       		.byte	0x4
 563 0027 05       		.byte	0x5
 564 0028 696E7400 		.ascii	"int\000"
 565 002c 03       		.uleb128 0x3
 566 002d 04       		.byte	0x4
ARM GAS  /tmp/ccUSLiGn.s 			page 11


 567 002e 07       		.byte	0x7
 568 002f FC020000 		.4byte	.LASF0
 569 0033 03       		.uleb128 0x3
 570 0034 01       		.byte	0x1
 571 0035 06       		.byte	0x6
 572 0036 E5010000 		.4byte	.LASF1
 573 003a 04       		.uleb128 0x4
 574 003b 40000000 		.4byte	.LASF9
 575 003f 02       		.byte	0x2
 576 0040 2B       		.byte	0x2b
 577 0041 45000000 		.4byte	0x45
 578 0045 03       		.uleb128 0x3
 579 0046 01       		.byte	0x1
 580 0047 08       		.byte	0x8
 581 0048 93040000 		.4byte	.LASF2
 582 004c 05       		.uleb128 0x5
 583 004d 45000000 		.4byte	0x45
 584 0051 03       		.uleb128 0x3
 585 0052 02       		.byte	0x2
 586 0053 05       		.byte	0x5
 587 0054 AF040000 		.4byte	.LASF3
 588 0058 03       		.uleb128 0x3
 589 0059 02       		.byte	0x2
 590 005a 07       		.byte	0x7
 591 005b 51030000 		.4byte	.LASF4
 592 005f 05       		.uleb128 0x5
 593 0060 58000000 		.4byte	0x58
 594 0064 03       		.uleb128 0x3
 595 0065 04       		.byte	0x4
 596 0066 05       		.byte	0x5
 597 0067 2A020000 		.4byte	.LASF5
 598 006b 03       		.uleb128 0x3
 599 006c 04       		.byte	0x4
 600 006d 07       		.byte	0x7
 601 006e 2D030000 		.4byte	.LASF6
 602 0072 03       		.uleb128 0x3
 603 0073 08       		.byte	0x8
 604 0074 05       		.byte	0x5
 605 0075 D7010000 		.4byte	.LASF7
 606 0079 03       		.uleb128 0x3
 607 007a 08       		.byte	0x8
 608 007b 07       		.byte	0x7
 609 007c 94010000 		.4byte	.LASF8
 610 0080 04       		.uleb128 0x4
 611 0081 9B030000 		.4byte	.LASF10
 612 0085 03       		.byte	0x3
 613 0086 22       		.byte	0x22
 614 0087 8B000000 		.4byte	0x8b
 615 008b 06       		.uleb128 0x6
 616 008c 04       		.byte	0x4
 617 008d 91000000 		.4byte	0x91
 618 0091 07       		.uleb128 0x7
 619 0092 78050000 		.4byte	.LASF117
 620 0096 04       		.uleb128 0x4
 621 0097 33040000 		.4byte	.LASF11
 622 009b 04       		.byte	0x4
 623 009c 2C       		.byte	0x2c
ARM GAS  /tmp/ccUSLiGn.s 			page 12


 624 009d 64000000 		.4byte	0x64
 625 00a1 04       		.uleb128 0x4
 626 00a2 99050000 		.4byte	.LASF12
 627 00a6 04       		.byte	0x4
 628 00a7 72       		.byte	0x72
 629 00a8 64000000 		.4byte	0x64
 630 00ac 08       		.uleb128 0x8
 631 00ad A3030000 		.4byte	.LASF13
 632 00b1 05       		.byte	0x5
 633 00b2 6501     		.2byte	0x165
 634 00b4 2C000000 		.4byte	0x2c
 635 00b8 09       		.uleb128 0x9
 636 00b9 04       		.byte	0x4
 637 00ba 04       		.byte	0x4
 638 00bb A6       		.byte	0xa6
 639 00bc D7000000 		.4byte	0xd7
 640 00c0 0A       		.uleb128 0xa
 641 00c1 8E030000 		.4byte	.LASF14
 642 00c5 04       		.byte	0x4
 643 00c6 A8       		.byte	0xa8
 644 00c7 AC000000 		.4byte	0xac
 645 00cb 0A       		.uleb128 0xa
 646 00cc 09030000 		.4byte	.LASF15
 647 00d0 04       		.byte	0x4
 648 00d1 A9       		.byte	0xa9
 649 00d2 D7000000 		.4byte	0xd7
 650 00d6 00       		.byte	0
 651 00d7 0B       		.uleb128 0xb
 652 00d8 45000000 		.4byte	0x45
 653 00dc E7000000 		.4byte	0xe7
 654 00e0 0C       		.uleb128 0xc
 655 00e1 2C000000 		.4byte	0x2c
 656 00e5 03       		.byte	0x3
 657 00e6 00       		.byte	0
 658 00e7 0D       		.uleb128 0xd
 659 00e8 08       		.byte	0x8
 660 00e9 04       		.byte	0x4
 661 00ea A3       		.byte	0xa3
 662 00eb 08010000 		.4byte	0x108
 663 00ef 0E       		.uleb128 0xe
 664 00f0 70050000 		.4byte	.LASF16
 665 00f4 04       		.byte	0x4
 666 00f5 A5       		.byte	0xa5
 667 00f6 25000000 		.4byte	0x25
 668 00fa 00       		.byte	0
 669 00fb 0E       		.uleb128 0xe
 670 00fc 7F050000 		.4byte	.LASF17
 671 0100 04       		.byte	0x4
 672 0101 AA       		.byte	0xaa
 673 0102 B8000000 		.4byte	0xb8
 674 0106 04       		.byte	0x4
 675 0107 00       		.byte	0
 676 0108 04       		.uleb128 0x4
 677 0109 D7040000 		.4byte	.LASF18
 678 010d 04       		.byte	0x4
 679 010e AB       		.byte	0xab
 680 010f E7000000 		.4byte	0xe7
ARM GAS  /tmp/ccUSLiGn.s 			page 13


 681 0113 04       		.uleb128 0x4
 682 0114 B8020000 		.4byte	.LASF19
 683 0118 04       		.byte	0x4
 684 0119 AF       		.byte	0xaf
 685 011a 80000000 		.4byte	0x80
 686 011e 0F       		.uleb128 0xf
 687 011f 04       		.byte	0x4
 688 0120 06       		.uleb128 0x6
 689 0121 04       		.byte	0x4
 690 0122 26010000 		.4byte	0x126
 691 0126 03       		.uleb128 0x3
 692 0127 01       		.byte	0x1
 693 0128 08       		.byte	0x8
 694 0129 B1050000 		.4byte	.LASF20
 695 012d 10       		.uleb128 0x10
 696 012e 26010000 		.4byte	0x126
 697 0132 04       		.uleb128 0x4
 698 0133 03060000 		.4byte	.LASF21
 699 0137 06       		.byte	0x6
 700 0138 16       		.byte	0x16
 701 0139 6B000000 		.4byte	0x6b
 702 013d 11       		.uleb128 0x11
 703 013e C9020000 		.4byte	.LASF26
 704 0142 18       		.byte	0x18
 705 0143 06       		.byte	0x6
 706 0144 2F       		.byte	0x2f
 707 0145 90010000 		.4byte	0x190
 708 0149 0E       		.uleb128 0xe
 709 014a E2050000 		.4byte	.LASF22
 710 014e 06       		.byte	0x6
 711 014f 31       		.byte	0x31
 712 0150 90010000 		.4byte	0x190
 713 0154 00       		.byte	0
 714 0155 12       		.uleb128 0x12
 715 0156 5F6B00   		.ascii	"_k\000"
 716 0159 06       		.byte	0x6
 717 015a 32       		.byte	0x32
 718 015b 25000000 		.4byte	0x25
 719 015f 04       		.byte	0x4
 720 0160 0E       		.uleb128 0xe
 721 0161 4F050000 		.4byte	.LASF23
 722 0165 06       		.byte	0x6
 723 0166 32       		.byte	0x32
 724 0167 25000000 		.4byte	0x25
 725 016b 08       		.byte	0x8
 726 016c 0E       		.uleb128 0xe
 727 016d B2020000 		.4byte	.LASF24
 728 0171 06       		.byte	0x6
 729 0172 32       		.byte	0x32
 730 0173 25000000 		.4byte	0x25
 731 0177 0C       		.byte	0xc
 732 0178 0E       		.uleb128 0xe
 733 0179 42060000 		.4byte	.LASF25
 734 017d 06       		.byte	0x6
 735 017e 32       		.byte	0x32
 736 017f 25000000 		.4byte	0x25
 737 0183 10       		.byte	0x10
ARM GAS  /tmp/ccUSLiGn.s 			page 14


 738 0184 12       		.uleb128 0x12
 739 0185 5F7800   		.ascii	"_x\000"
 740 0188 06       		.byte	0x6
 741 0189 33       		.byte	0x33
 742 018a 96010000 		.4byte	0x196
 743 018e 14       		.byte	0x14
 744 018f 00       		.byte	0
 745 0190 06       		.uleb128 0x6
 746 0191 04       		.byte	0x4
 747 0192 3D010000 		.4byte	0x13d
 748 0196 0B       		.uleb128 0xb
 749 0197 32010000 		.4byte	0x132
 750 019b A6010000 		.4byte	0x1a6
 751 019f 0C       		.uleb128 0xc
 752 01a0 2C000000 		.4byte	0x2c
 753 01a4 00       		.byte	0
 754 01a5 00       		.byte	0
 755 01a6 11       		.uleb128 0x11
 756 01a7 F0020000 		.4byte	.LASF27
 757 01ab 24       		.byte	0x24
 758 01ac 06       		.byte	0x6
 759 01ad 37       		.byte	0x37
 760 01ae 1F020000 		.4byte	0x21f
 761 01b2 0E       		.uleb128 0xe
 762 01b3 CE010000 		.4byte	.LASF28
 763 01b7 06       		.byte	0x6
 764 01b8 39       		.byte	0x39
 765 01b9 25000000 		.4byte	0x25
 766 01bd 00       		.byte	0
 767 01be 0E       		.uleb128 0xe
 768 01bf B6050000 		.4byte	.LASF29
 769 01c3 06       		.byte	0x6
 770 01c4 3A       		.byte	0x3a
 771 01c5 25000000 		.4byte	0x25
 772 01c9 04       		.byte	0x4
 773 01ca 0E       		.uleb128 0xe
 774 01cb FD010000 		.4byte	.LASF30
 775 01cf 06       		.byte	0x6
 776 01d0 3B       		.byte	0x3b
 777 01d1 25000000 		.4byte	0x25
 778 01d5 08       		.byte	0x8
 779 01d6 0E       		.uleb128 0xe
 780 01d7 CA060000 		.4byte	.LASF31
 781 01db 06       		.byte	0x6
 782 01dc 3C       		.byte	0x3c
 783 01dd 25000000 		.4byte	0x25
 784 01e1 0C       		.byte	0xc
 785 01e2 0E       		.uleb128 0xe
 786 01e3 17040000 		.4byte	.LASF32
 787 01e7 06       		.byte	0x6
 788 01e8 3D       		.byte	0x3d
 789 01e9 25000000 		.4byte	0x25
 790 01ed 10       		.byte	0x10
 791 01ee 0E       		.uleb128 0xe
 792 01ef E4030000 		.4byte	.LASF33
 793 01f3 06       		.byte	0x6
 794 01f4 3E       		.byte	0x3e
ARM GAS  /tmp/ccUSLiGn.s 			page 15


 795 01f5 25000000 		.4byte	0x25
 796 01f9 14       		.byte	0x14
 797 01fa 0E       		.uleb128 0xe
 798 01fb 47060000 		.4byte	.LASF34
 799 01ff 06       		.byte	0x6
 800 0200 3F       		.byte	0x3f
 801 0201 25000000 		.4byte	0x25
 802 0205 18       		.byte	0x18
 803 0206 0E       		.uleb128 0xe
 804 0207 B9040000 		.4byte	.LASF35
 805 020b 06       		.byte	0x6
 806 020c 40       		.byte	0x40
 807 020d 25000000 		.4byte	0x25
 808 0211 1C       		.byte	0x1c
 809 0212 0E       		.uleb128 0xe
 810 0213 82060000 		.4byte	.LASF36
 811 0217 06       		.byte	0x6
 812 0218 41       		.byte	0x41
 813 0219 25000000 		.4byte	0x25
 814 021d 20       		.byte	0x20
 815 021e 00       		.byte	0
 816 021f 13       		.uleb128 0x13
 817 0220 0C020000 		.4byte	.LASF37
 818 0224 0801     		.2byte	0x108
 819 0226 06       		.byte	0x6
 820 0227 4A       		.byte	0x4a
 821 0228 5F020000 		.4byte	0x25f
 822 022c 0E       		.uleb128 0xe
 823 022d 8C020000 		.4byte	.LASF38
 824 0231 06       		.byte	0x6
 825 0232 4B       		.byte	0x4b
 826 0233 5F020000 		.4byte	0x25f
 827 0237 00       		.byte	0
 828 0238 0E       		.uleb128 0xe
 829 0239 00000000 		.4byte	.LASF39
 830 023d 06       		.byte	0x6
 831 023e 4C       		.byte	0x4c
 832 023f 5F020000 		.4byte	0x25f
 833 0243 80       		.byte	0x80
 834 0244 14       		.uleb128 0x14
 835 0245 F5050000 		.4byte	.LASF40
 836 0249 06       		.byte	0x6
 837 024a 4E       		.byte	0x4e
 838 024b 32010000 		.4byte	0x132
 839 024f 0001     		.2byte	0x100
 840 0251 14       		.uleb128 0x14
 841 0252 3A020000 		.4byte	.LASF41
 842 0256 06       		.byte	0x6
 843 0257 51       		.byte	0x51
 844 0258 32010000 		.4byte	0x132
 845 025c 0401     		.2byte	0x104
 846 025e 00       		.byte	0
 847 025f 0B       		.uleb128 0xb
 848 0260 1E010000 		.4byte	0x11e
 849 0264 6F020000 		.4byte	0x26f
 850 0268 0C       		.uleb128 0xc
 851 0269 2C000000 		.4byte	0x2c
ARM GAS  /tmp/ccUSLiGn.s 			page 16


 852 026d 1F       		.byte	0x1f
 853 026e 00       		.byte	0
 854 026f 13       		.uleb128 0x13
 855 0270 20040000 		.4byte	.LASF42
 856 0274 9001     		.2byte	0x190
 857 0276 06       		.byte	0x6
 858 0277 5D       		.byte	0x5d
 859 0278 AD020000 		.4byte	0x2ad
 860 027c 0E       		.uleb128 0xe
 861 027d E2050000 		.4byte	.LASF22
 862 0281 06       		.byte	0x6
 863 0282 5E       		.byte	0x5e
 864 0283 AD020000 		.4byte	0x2ad
 865 0287 00       		.byte	0
 866 0288 0E       		.uleb128 0xe
 867 0289 10050000 		.4byte	.LASF43
 868 028d 06       		.byte	0x6
 869 028e 5F       		.byte	0x5f
 870 028f 25000000 		.4byte	0x25
 871 0293 04       		.byte	0x4
 872 0294 0E       		.uleb128 0xe
 873 0295 9A020000 		.4byte	.LASF44
 874 0299 06       		.byte	0x6
 875 029a 61       		.byte	0x61
 876 029b B3020000 		.4byte	0x2b3
 877 029f 08       		.byte	0x8
 878 02a0 0E       		.uleb128 0xe
 879 02a1 0C020000 		.4byte	.LASF37
 880 02a5 06       		.byte	0x6
 881 02a6 62       		.byte	0x62
 882 02a7 1F020000 		.4byte	0x21f
 883 02ab 88       		.byte	0x88
 884 02ac 00       		.byte	0
 885 02ad 06       		.uleb128 0x6
 886 02ae 04       		.byte	0x4
 887 02af 6F020000 		.4byte	0x26f
 888 02b3 0B       		.uleb128 0xb
 889 02b4 C3020000 		.4byte	0x2c3
 890 02b8 C3020000 		.4byte	0x2c3
 891 02bc 0C       		.uleb128 0xc
 892 02bd 2C000000 		.4byte	0x2c
 893 02c1 1F       		.byte	0x1f
 894 02c2 00       		.byte	0
 895 02c3 06       		.uleb128 0x6
 896 02c4 04       		.byte	0x4
 897 02c5 C9020000 		.4byte	0x2c9
 898 02c9 15       		.uleb128 0x15
 899 02ca 11       		.uleb128 0x11
 900 02cb C3040000 		.4byte	.LASF45
 901 02cf 08       		.byte	0x8
 902 02d0 06       		.byte	0x6
 903 02d1 75       		.byte	0x75
 904 02d2 EF020000 		.4byte	0x2ef
 905 02d6 0E       		.uleb128 0xe
 906 02d7 F7010000 		.4byte	.LASF46
 907 02db 06       		.byte	0x6
 908 02dc 76       		.byte	0x76
ARM GAS  /tmp/ccUSLiGn.s 			page 17


 909 02dd EF020000 		.4byte	0x2ef
 910 02e1 00       		.byte	0
 911 02e2 0E       		.uleb128 0xe
 912 02e3 16000000 		.4byte	.LASF47
 913 02e7 06       		.byte	0x6
 914 02e8 77       		.byte	0x77
 915 02e9 25000000 		.4byte	0x25
 916 02ed 04       		.byte	0x4
 917 02ee 00       		.byte	0
 918 02ef 06       		.uleb128 0x6
 919 02f0 04       		.byte	0x4
 920 02f1 45000000 		.4byte	0x45
 921 02f5 11       		.uleb128 0x11
 922 02f6 E2040000 		.4byte	.LASF48
 923 02fa 68       		.byte	0x68
 924 02fb 06       		.byte	0x6
 925 02fc B5       		.byte	0xb5
 926 02fd 1F040000 		.4byte	0x41f
 927 0301 12       		.uleb128 0x12
 928 0302 5F7000   		.ascii	"_p\000"
 929 0305 06       		.byte	0x6
 930 0306 B6       		.byte	0xb6
 931 0307 EF020000 		.4byte	0x2ef
 932 030b 00       		.byte	0
 933 030c 12       		.uleb128 0x12
 934 030d 5F7200   		.ascii	"_r\000"
 935 0310 06       		.byte	0x6
 936 0311 B7       		.byte	0xb7
 937 0312 25000000 		.4byte	0x25
 938 0316 04       		.byte	0x4
 939 0317 12       		.uleb128 0x12
 940 0318 5F7700   		.ascii	"_w\000"
 941 031b 06       		.byte	0x6
 942 031c B8       		.byte	0xb8
 943 031d 25000000 		.4byte	0x25
 944 0321 08       		.byte	0x8
 945 0322 0E       		.uleb128 0xe
 946 0323 33020000 		.4byte	.LASF49
 947 0327 06       		.byte	0x6
 948 0328 B9       		.byte	0xb9
 949 0329 51000000 		.4byte	0x51
 950 032d 0C       		.byte	0xc
 951 032e 0E       		.uleb128 0xe
 952 032f 3F030000 		.4byte	.LASF50
 953 0333 06       		.byte	0x6
 954 0334 BA       		.byte	0xba
 955 0335 51000000 		.4byte	0x51
 956 0339 0E       		.byte	0xe
 957 033a 12       		.uleb128 0x12
 958 033b 5F626600 		.ascii	"_bf\000"
 959 033f 06       		.byte	0x6
 960 0340 BB       		.byte	0xbb
 961 0341 CA020000 		.4byte	0x2ca
 962 0345 10       		.byte	0x10
 963 0346 0E       		.uleb128 0xe
 964 0347 AB010000 		.4byte	.LASF51
 965 034b 06       		.byte	0x6
ARM GAS  /tmp/ccUSLiGn.s 			page 18


 966 034c BC       		.byte	0xbc
 967 034d 25000000 		.4byte	0x25
 968 0351 18       		.byte	0x18
 969 0352 0E       		.uleb128 0xe
 970 0353 1A020000 		.4byte	.LASF52
 971 0357 06       		.byte	0x6
 972 0358 C3       		.byte	0xc3
 973 0359 1E010000 		.4byte	0x11e
 974 035d 1C       		.byte	0x1c
 975 035e 0E       		.uleb128 0xe
 976 035f E0020000 		.4byte	.LASF53
 977 0363 06       		.byte	0x6
 978 0364 C5       		.byte	0xc5
 979 0365 7A050000 		.4byte	0x57a
 980 0369 20       		.byte	0x20
 981 036a 0E       		.uleb128 0xe
 982 036b DD030000 		.4byte	.LASF54
 983 036f 06       		.byte	0x6
 984 0370 C7       		.byte	0xc7
 985 0371 A4050000 		.4byte	0x5a4
 986 0375 24       		.byte	0x24
 987 0376 0E       		.uleb128 0xe
 988 0377 87050000 		.4byte	.LASF55
 989 037b 06       		.byte	0x6
 990 037c CA       		.byte	0xca
 991 037d C8050000 		.4byte	0x5c8
 992 0381 28       		.byte	0x28
 993 0382 0E       		.uleb128 0xe
 994 0383 9C060000 		.4byte	.LASF56
 995 0387 06       		.byte	0x6
 996 0388 CB       		.byte	0xcb
 997 0389 E2050000 		.4byte	0x5e2
 998 038d 2C       		.byte	0x2c
 999 038e 12       		.uleb128 0x12
 1000 038f 5F756200 		.ascii	"_ub\000"
 1001 0393 06       		.byte	0x6
 1002 0394 CE       		.byte	0xce
 1003 0395 CA020000 		.4byte	0x2ca
 1004 0399 30       		.byte	0x30
 1005 039a 12       		.uleb128 0x12
 1006 039b 5F757000 		.ascii	"_up\000"
 1007 039f 06       		.byte	0x6
 1008 03a0 CF       		.byte	0xcf
 1009 03a1 EF020000 		.4byte	0x2ef
 1010 03a5 38       		.byte	0x38
 1011 03a6 12       		.uleb128 0x12
 1012 03a7 5F757200 		.ascii	"_ur\000"
 1013 03ab 06       		.byte	0x6
 1014 03ac D0       		.byte	0xd0
 1015 03ad 25000000 		.4byte	0x25
 1016 03b1 3C       		.byte	0x3c
 1017 03b2 0E       		.uleb128 0xe
 1018 03b3 F1010000 		.4byte	.LASF57
 1019 03b7 06       		.byte	0x6
 1020 03b8 D3       		.byte	0xd3
 1021 03b9 E8050000 		.4byte	0x5e8
 1022 03bd 40       		.byte	0x40
ARM GAS  /tmp/ccUSLiGn.s 			page 19


 1023 03be 0E       		.uleb128 0xe
 1024 03bf 74060000 		.4byte	.LASF58
 1025 03c3 06       		.byte	0x6
 1026 03c4 D4       		.byte	0xd4
 1027 03c5 F8050000 		.4byte	0x5f8
 1028 03c9 43       		.byte	0x43
 1029 03ca 12       		.uleb128 0x12
 1030 03cb 5F6C6200 		.ascii	"_lb\000"
 1031 03cf 06       		.byte	0x6
 1032 03d0 D7       		.byte	0xd7
 1033 03d1 CA020000 		.4byte	0x2ca
 1034 03d5 44       		.byte	0x44
 1035 03d6 0E       		.uleb128 0xe
 1036 03d7 49020000 		.4byte	.LASF59
 1037 03db 06       		.byte	0x6
 1038 03dc DA       		.byte	0xda
 1039 03dd 25000000 		.4byte	0x25
 1040 03e1 4C       		.byte	0x4c
 1041 03e2 0E       		.uleb128 0xe
 1042 03e3 5A020000 		.4byte	.LASF60
 1043 03e7 06       		.byte	0x6
 1044 03e8 DB       		.byte	0xdb
 1045 03e9 96000000 		.4byte	0x96
 1046 03ed 50       		.byte	0x50
 1047 03ee 0E       		.uleb128 0xe
 1048 03ef 4A000000 		.4byte	.LASF61
 1049 03f3 06       		.byte	0x6
 1050 03f4 DE       		.byte	0xde
 1051 03f5 3D040000 		.4byte	0x43d
 1052 03f9 54       		.byte	0x54
 1053 03fa 0E       		.uleb128 0xe
 1054 03fb BB030000 		.4byte	.LASF62
 1055 03ff 06       		.byte	0x6
 1056 0400 E2       		.byte	0xe2
 1057 0401 13010000 		.4byte	0x113
 1058 0405 58       		.byte	0x58
 1059 0406 0E       		.uleb128 0xe
 1060 0407 EA040000 		.4byte	.LASF63
 1061 040b 06       		.byte	0x6
 1062 040c E4       		.byte	0xe4
 1063 040d 08010000 		.4byte	0x108
 1064 0411 5C       		.byte	0x5c
 1065 0412 0E       		.uleb128 0xe
 1066 0413 C9030000 		.4byte	.LASF64
 1067 0417 06       		.byte	0x6
 1068 0418 E5       		.byte	0xe5
 1069 0419 25000000 		.4byte	0x25
 1070 041d 64       		.byte	0x64
 1071 041e 00       		.byte	0
 1072 041f 16       		.uleb128 0x16
 1073 0420 25000000 		.4byte	0x25
 1074 0424 3D040000 		.4byte	0x43d
 1075 0428 17       		.uleb128 0x17
 1076 0429 3D040000 		.4byte	0x43d
 1077 042d 17       		.uleb128 0x17
 1078 042e 1E010000 		.4byte	0x11e
 1079 0432 17       		.uleb128 0x17
ARM GAS  /tmp/ccUSLiGn.s 			page 20


 1080 0433 20010000 		.4byte	0x120
 1081 0437 17       		.uleb128 0x17
 1082 0438 25000000 		.4byte	0x25
 1083 043c 00       		.byte	0
 1084 043d 06       		.uleb128 0x6
 1085 043e 04       		.byte	0x4
 1086 043f 48040000 		.4byte	0x448
 1087 0443 10       		.uleb128 0x10
 1088 0444 3D040000 		.4byte	0x43d
 1089 0448 18       		.uleb128 0x18
 1090 0449 57050000 		.4byte	.LASF65
 1091 044d 2804     		.2byte	0x428
 1092 044f 06       		.byte	0x6
 1093 0450 6002     		.2byte	0x260
 1094 0452 7A050000 		.4byte	0x57a
 1095 0456 19       		.uleb128 0x19
 1096 0457 AA050000 		.4byte	.LASF66
 1097 045b 06       		.byte	0x6
 1098 045c 6202     		.2byte	0x262
 1099 045e 25000000 		.4byte	0x25
 1100 0462 00       		.byte	0
 1101 0463 19       		.uleb128 0x19
 1102 0464 42020000 		.4byte	.LASF67
 1103 0468 06       		.byte	0x6
 1104 0469 6702     		.2byte	0x267
 1105 046b 4F060000 		.4byte	0x64f
 1106 046f 04       		.byte	0x4
 1107 0470 19       		.uleb128 0x19
 1108 0471 1D030000 		.4byte	.LASF68
 1109 0475 06       		.byte	0x6
 1110 0476 6702     		.2byte	0x267
 1111 0478 4F060000 		.4byte	0x64f
 1112 047c 08       		.byte	0x8
 1113 047d 19       		.uleb128 0x19
 1114 047e C1020000 		.4byte	.LASF69
 1115 0482 06       		.byte	0x6
 1116 0483 6702     		.2byte	0x267
 1117 0485 4F060000 		.4byte	0x64f
 1118 0489 0C       		.byte	0xc
 1119 048a 19       		.uleb128 0x19
 1120 048b 0B050000 		.4byte	.LASF70
 1121 048f 06       		.byte	0x6
 1122 0490 6902     		.2byte	0x269
 1123 0492 25000000 		.4byte	0x25
 1124 0496 10       		.byte	0x10
 1125 0497 19       		.uleb128 0x19
 1126 0498 24000000 		.4byte	.LASF71
 1127 049c 06       		.byte	0x6
 1128 049d 6A02     		.2byte	0x26a
 1129 049f 31080000 		.4byte	0x831
 1130 04a3 14       		.byte	0x14
 1131 04a4 19       		.uleb128 0x19
 1132 04a5 F7030000 		.4byte	.LASF72
 1133 04a9 06       		.byte	0x6
 1134 04aa 6D02     		.2byte	0x26d
 1135 04ac 25000000 		.4byte	0x25
 1136 04b0 30       		.byte	0x30
ARM GAS  /tmp/ccUSLiGn.s 			page 21


 1137 04b1 19       		.uleb128 0x19
 1138 04b2 1E050000 		.4byte	.LASF73
 1139 04b6 06       		.byte	0x6
 1140 04b7 6E02     		.2byte	0x26e
 1141 04b9 46080000 		.4byte	0x846
 1142 04bd 34       		.byte	0x34
 1143 04be 19       		.uleb128 0x19
 1144 04bf 28040000 		.4byte	.LASF74
 1145 04c3 06       		.byte	0x6
 1146 04c4 7002     		.2byte	0x270
 1147 04c6 25000000 		.4byte	0x25
 1148 04ca 38       		.byte	0x38
 1149 04cb 19       		.uleb128 0x19
 1150 04cc 26050000 		.4byte	.LASF75
 1151 04d0 06       		.byte	0x6
 1152 04d1 7202     		.2byte	0x272
 1153 04d3 57080000 		.4byte	0x857
 1154 04d7 3C       		.byte	0x3c
 1155 04d8 19       		.uleb128 0x19
 1156 04d9 86030000 		.4byte	.LASF76
 1157 04dd 06       		.byte	0x6
 1158 04de 7502     		.2byte	0x275
 1159 04e0 90010000 		.4byte	0x190
 1160 04e4 40       		.byte	0x40
 1161 04e5 19       		.uleb128 0x19
 1162 04e6 E6020000 		.4byte	.LASF77
 1163 04ea 06       		.byte	0x6
 1164 04eb 7602     		.2byte	0x276
 1165 04ed 25000000 		.4byte	0x25
 1166 04f1 44       		.byte	0x44
 1167 04f2 19       		.uleb128 0x19
 1168 04f3 C5060000 		.4byte	.LASF78
 1169 04f7 06       		.byte	0x6
 1170 04f8 7702     		.2byte	0x277
 1171 04fa 90010000 		.4byte	0x190
 1172 04fe 48       		.byte	0x48
 1173 04ff 19       		.uleb128 0x19
 1174 0500 49040000 		.4byte	.LASF79
 1175 0504 06       		.byte	0x6
 1176 0505 7802     		.2byte	0x278
 1177 0507 5D080000 		.4byte	0x85d
 1178 050b 4C       		.byte	0x4c
 1179 050c 19       		.uleb128 0x19
 1180 050d 25030000 		.4byte	.LASF80
 1181 0511 06       		.byte	0x6
 1182 0512 7B02     		.2byte	0x27b
 1183 0514 25000000 		.4byte	0x25
 1184 0518 50       		.byte	0x50
 1185 0519 19       		.uleb128 0x19
 1186 051a 52020000 		.4byte	.LASF81
 1187 051e 06       		.byte	0x6
 1188 051f 7C02     		.2byte	0x27c
 1189 0521 20010000 		.4byte	0x120
 1190 0525 54       		.byte	0x54
 1191 0526 19       		.uleb128 0x19
 1192 0527 A1040000 		.4byte	.LASF82
 1193 052b 06       		.byte	0x6
ARM GAS  /tmp/ccUSLiGn.s 			page 22


 1194 052c 9F02     		.2byte	0x29f
 1195 052e 0F080000 		.4byte	0x80f
 1196 0532 58       		.byte	0x58
 1197 0533 1A       		.uleb128 0x1a
 1198 0534 20040000 		.4byte	.LASF42
 1199 0538 06       		.byte	0x6
 1200 0539 A302     		.2byte	0x2a3
 1201 053b AD020000 		.4byte	0x2ad
 1202 053f 4801     		.2byte	0x148
 1203 0541 1A       		.uleb128 0x1a
 1204 0542 64030000 		.4byte	.LASF83
 1205 0546 06       		.byte	0x6
 1206 0547 A402     		.2byte	0x2a4
 1207 0549 6F020000 		.4byte	0x26f
 1208 054d 4C01     		.2byte	0x14c
 1209 054f 1A       		.uleb128 0x1a
 1210 0550 6A060000 		.4byte	.LASF84
 1211 0554 06       		.byte	0x6
 1212 0555 A802     		.2byte	0x2a8
 1213 0557 6E080000 		.4byte	0x86e
 1214 055b DC02     		.2byte	0x2dc
 1215 055d 1A       		.uleb128 0x1a
 1216 055e 22020000 		.4byte	.LASF85
 1217 0562 06       		.byte	0x6
 1218 0563 AD02     		.2byte	0x2ad
 1219 0565 14060000 		.4byte	0x614
 1220 0569 E002     		.2byte	0x2e0
 1221 056b 1A       		.uleb128 0x1a
 1222 056c 07020000 		.4byte	.LASF86
 1223 0570 06       		.byte	0x6
 1224 0571 AF02     		.2byte	0x2af
 1225 0573 7A080000 		.4byte	0x87a
 1226 0577 EC02     		.2byte	0x2ec
 1227 0579 00       		.byte	0
 1228 057a 06       		.uleb128 0x6
 1229 057b 04       		.byte	0x4
 1230 057c 1F040000 		.4byte	0x41f
 1231 0580 16       		.uleb128 0x16
 1232 0581 25000000 		.4byte	0x25
 1233 0585 9E050000 		.4byte	0x59e
 1234 0589 17       		.uleb128 0x17
 1235 058a 3D040000 		.4byte	0x43d
 1236 058e 17       		.uleb128 0x17
 1237 058f 1E010000 		.4byte	0x11e
 1238 0593 17       		.uleb128 0x17
 1239 0594 9E050000 		.4byte	0x59e
 1240 0598 17       		.uleb128 0x17
 1241 0599 25000000 		.4byte	0x25
 1242 059d 00       		.byte	0
 1243 059e 06       		.uleb128 0x6
 1244 059f 04       		.byte	0x4
 1245 05a0 2D010000 		.4byte	0x12d
 1246 05a4 06       		.uleb128 0x6
 1247 05a5 04       		.byte	0x4
 1248 05a6 80050000 		.4byte	0x580
 1249 05aa 16       		.uleb128 0x16
 1250 05ab A1000000 		.4byte	0xa1
ARM GAS  /tmp/ccUSLiGn.s 			page 23


 1251 05af C8050000 		.4byte	0x5c8
 1252 05b3 17       		.uleb128 0x17
 1253 05b4 3D040000 		.4byte	0x43d
 1254 05b8 17       		.uleb128 0x17
 1255 05b9 1E010000 		.4byte	0x11e
 1256 05bd 17       		.uleb128 0x17
 1257 05be A1000000 		.4byte	0xa1
 1258 05c2 17       		.uleb128 0x17
 1259 05c3 25000000 		.4byte	0x25
 1260 05c7 00       		.byte	0
 1261 05c8 06       		.uleb128 0x6
 1262 05c9 04       		.byte	0x4
 1263 05ca AA050000 		.4byte	0x5aa
 1264 05ce 16       		.uleb128 0x16
 1265 05cf 25000000 		.4byte	0x25
 1266 05d3 E2050000 		.4byte	0x5e2
 1267 05d7 17       		.uleb128 0x17
 1268 05d8 3D040000 		.4byte	0x43d
 1269 05dc 17       		.uleb128 0x17
 1270 05dd 1E010000 		.4byte	0x11e
 1271 05e1 00       		.byte	0
 1272 05e2 06       		.uleb128 0x6
 1273 05e3 04       		.byte	0x4
 1274 05e4 CE050000 		.4byte	0x5ce
 1275 05e8 0B       		.uleb128 0xb
 1276 05e9 45000000 		.4byte	0x45
 1277 05ed F8050000 		.4byte	0x5f8
 1278 05f1 0C       		.uleb128 0xc
 1279 05f2 2C000000 		.4byte	0x2c
 1280 05f6 02       		.byte	0x2
 1281 05f7 00       		.byte	0
 1282 05f8 0B       		.uleb128 0xb
 1283 05f9 45000000 		.4byte	0x45
 1284 05fd 08060000 		.4byte	0x608
 1285 0601 0C       		.uleb128 0xc
 1286 0602 2C000000 		.4byte	0x2c
 1287 0606 00       		.byte	0
 1288 0607 00       		.byte	0
 1289 0608 08       		.uleb128 0x8
 1290 0609 D0040000 		.4byte	.LASF87
 1291 060d 06       		.byte	0x6
 1292 060e 1F01     		.2byte	0x11f
 1293 0610 F5020000 		.4byte	0x2f5
 1294 0614 1B       		.uleb128 0x1b
 1295 0615 51060000 		.4byte	.LASF88
 1296 0619 0C       		.byte	0xc
 1297 061a 06       		.byte	0x6
 1298 061b 2301     		.2byte	0x123
 1299 061d 49060000 		.4byte	0x649
 1300 0621 19       		.uleb128 0x19
 1301 0622 E2050000 		.4byte	.LASF22
 1302 0626 06       		.byte	0x6
 1303 0627 2501     		.2byte	0x125
 1304 0629 49060000 		.4byte	0x649
 1305 062d 00       		.byte	0
 1306 062e 19       		.uleb128 0x19
 1307 062f 45030000 		.4byte	.LASF89
ARM GAS  /tmp/ccUSLiGn.s 			page 24


 1308 0633 06       		.byte	0x6
 1309 0634 2601     		.2byte	0x126
 1310 0636 25000000 		.4byte	0x25
 1311 063a 04       		.byte	0x4
 1312 063b 19       		.uleb128 0x19
 1313 063c CA040000 		.4byte	.LASF90
 1314 0640 06       		.byte	0x6
 1315 0641 2701     		.2byte	0x127
 1316 0643 4F060000 		.4byte	0x64f
 1317 0647 08       		.byte	0x8
 1318 0648 00       		.byte	0
 1319 0649 06       		.uleb128 0x6
 1320 064a 04       		.byte	0x4
 1321 064b 14060000 		.4byte	0x614
 1322 064f 06       		.uleb128 0x6
 1323 0650 04       		.byte	0x4
 1324 0651 08060000 		.4byte	0x608
 1325 0655 1B       		.uleb128 0x1b
 1326 0656 1C000000 		.4byte	.LASF91
 1327 065a 0E       		.byte	0xe
 1328 065b 06       		.byte	0x6
 1329 065c 3F01     		.2byte	0x13f
 1330 065e 8A060000 		.4byte	0x68a
 1331 0662 19       		.uleb128 0x19
 1332 0663 6A050000 		.4byte	.LASF92
 1333 0667 06       		.byte	0x6
 1334 0668 4001     		.2byte	0x140
 1335 066a 8A060000 		.4byte	0x68a
 1336 066e 00       		.byte	0
 1337 066f 19       		.uleb128 0x19
 1338 0670 DC050000 		.4byte	.LASF93
 1339 0674 06       		.byte	0x6
 1340 0675 4101     		.2byte	0x141
 1341 0677 8A060000 		.4byte	0x68a
 1342 067b 06       		.byte	0x6
 1343 067c 19       		.uleb128 0x19
 1344 067d FE050000 		.4byte	.LASF94
 1345 0681 06       		.byte	0x6
 1346 0682 4201     		.2byte	0x142
 1347 0684 58000000 		.4byte	0x58
 1348 0688 0C       		.byte	0xc
 1349 0689 00       		.byte	0
 1350 068a 0B       		.uleb128 0xb
 1351 068b 58000000 		.4byte	0x58
 1352 068f 9A060000 		.4byte	0x69a
 1353 0693 0C       		.uleb128 0xc
 1354 0694 2C000000 		.4byte	0x2c
 1355 0698 02       		.byte	0x2
 1356 0699 00       		.byte	0
 1357 069a 1C       		.uleb128 0x1c
 1358 069b D0       		.byte	0xd0
 1359 069c 06       		.byte	0x6
 1360 069d 8002     		.2byte	0x280
 1361 069f 9B070000 		.4byte	0x79b
 1362 06a3 19       		.uleb128 0x19
 1363 06a4 35060000 		.4byte	.LASF95
 1364 06a8 06       		.byte	0x6
ARM GAS  /tmp/ccUSLiGn.s 			page 25


 1365 06a9 8202     		.2byte	0x282
 1366 06ab 2C000000 		.4byte	0x2c
 1367 06af 00       		.byte	0
 1368 06b0 19       		.uleb128 0x19
 1369 06b1 E8050000 		.4byte	.LASF96
 1370 06b5 06       		.byte	0x6
 1371 06b6 8302     		.2byte	0x283
 1372 06b8 20010000 		.4byte	0x120
 1373 06bc 04       		.byte	0x4
 1374 06bd 19       		.uleb128 0x19
 1375 06be 79030000 		.4byte	.LASF97
 1376 06c2 06       		.byte	0x6
 1377 06c3 8402     		.2byte	0x284
 1378 06c5 9B070000 		.4byte	0x79b
 1379 06c9 08       		.byte	0x8
 1380 06ca 19       		.uleb128 0x19
 1381 06cb 8D060000 		.4byte	.LASF98
 1382 06cf 06       		.byte	0x6
 1383 06d0 8502     		.2byte	0x285
 1384 06d2 A6010000 		.4byte	0x1a6
 1385 06d6 24       		.byte	0x24
 1386 06d7 19       		.uleb128 0x19
 1387 06d8 D1020000 		.4byte	.LASF99
 1388 06dc 06       		.byte	0x6
 1389 06dd 8602     		.2byte	0x286
 1390 06df 25000000 		.4byte	0x25
 1391 06e3 48       		.byte	0x48
 1392 06e4 19       		.uleb128 0x19
 1393 06e5 F3040000 		.4byte	.LASF100
 1394 06e9 06       		.byte	0x6
 1395 06ea 8702     		.2byte	0x287
 1396 06ec 79000000 		.4byte	0x79
 1397 06f0 50       		.byte	0x50
 1398 06f1 19       		.uleb128 0x19
 1399 06f2 A3060000 		.4byte	.LASF101
 1400 06f6 06       		.byte	0x6
 1401 06f7 8802     		.2byte	0x288
 1402 06f9 55060000 		.4byte	0x655
 1403 06fd 58       		.byte	0x58
 1404 06fe 19       		.uleb128 0x19
 1405 06ff FE040000 		.4byte	.LASF102
 1406 0703 06       		.byte	0x6
 1407 0704 8902     		.2byte	0x289
 1408 0706 08010000 		.4byte	0x108
 1409 070a 68       		.byte	0x68
 1410 070b 19       		.uleb128 0x19
 1411 070c B7060000 		.4byte	.LASF103
 1412 0710 06       		.byte	0x6
 1413 0711 8A02     		.2byte	0x28a
 1414 0713 08010000 		.4byte	0x108
 1415 0717 70       		.byte	0x70
 1416 0718 19       		.uleb128 0x19
 1417 0719 7B040000 		.4byte	.LASF104
 1418 071d 06       		.byte	0x6
 1419 071e 8B02     		.2byte	0x28b
 1420 0720 08010000 		.4byte	0x108
 1421 0724 78       		.byte	0x78
ARM GAS  /tmp/ccUSLiGn.s 			page 26


 1422 0725 19       		.uleb128 0x19
 1423 0726 60060000 		.4byte	.LASF105
 1424 072a 06       		.byte	0x6
 1425 072b 8C02     		.2byte	0x28c
 1426 072d AB070000 		.4byte	0x7ab
 1427 0731 80       		.byte	0x80
 1428 0732 19       		.uleb128 0x19
 1429 0733 6D030000 		.4byte	.LASF106
 1430 0737 06       		.byte	0x6
 1431 0738 8D02     		.2byte	0x28d
 1432 073a BB070000 		.4byte	0x7bb
 1433 073e 88       		.byte	0x88
 1434 073f 19       		.uleb128 0x19
 1435 0740 0B060000 		.4byte	.LASF107
 1436 0744 06       		.byte	0x6
 1437 0745 8E02     		.2byte	0x28e
 1438 0747 25000000 		.4byte	0x25
 1439 074b A0       		.byte	0xa0
 1440 074c 19       		.uleb128 0x19
 1441 074d 7E020000 		.4byte	.LASF108
 1442 0751 06       		.byte	0x6
 1443 0752 8F02     		.2byte	0x28f
 1444 0754 08010000 		.4byte	0x108
 1445 0758 A4       		.byte	0xa4
 1446 0759 19       		.uleb128 0x19
 1447 075a BF010000 		.4byte	.LASF109
 1448 075e 06       		.byte	0x6
 1449 075f 9002     		.2byte	0x290
 1450 0761 08010000 		.4byte	0x108
 1451 0765 AC       		.byte	0xac
 1452 0766 19       		.uleb128 0x19
 1453 0767 6D020000 		.4byte	.LASF110
 1454 076b 06       		.byte	0x6
 1455 076c 9102     		.2byte	0x291
 1456 076e 08010000 		.4byte	0x108
 1457 0772 B4       		.byte	0xb4
 1458 0773 19       		.uleb128 0x19
 1459 0774 74010000 		.4byte	.LASF111
 1460 0778 06       		.byte	0x6
 1461 0779 9202     		.2byte	0x292
 1462 077b 08010000 		.4byte	0x108
 1463 077f BC       		.byte	0xbc
 1464 0780 19       		.uleb128 0x19
 1465 0781 83010000 		.4byte	.LASF112
 1466 0785 06       		.byte	0x6
 1467 0786 9302     		.2byte	0x293
 1468 0788 08010000 		.4byte	0x108
 1469 078c C4       		.byte	0xc4
 1470 078d 19       		.uleb128 0x19
 1471 078e A6040000 		.4byte	.LASF113
 1472 0792 06       		.byte	0x6
 1473 0793 9402     		.2byte	0x294
 1474 0795 25000000 		.4byte	0x25
 1475 0799 CC       		.byte	0xcc
 1476 079a 00       		.byte	0
 1477 079b 0B       		.uleb128 0xb
 1478 079c 26010000 		.4byte	0x126
ARM GAS  /tmp/ccUSLiGn.s 			page 27


 1479 07a0 AB070000 		.4byte	0x7ab
 1480 07a4 0C       		.uleb128 0xc
 1481 07a5 2C000000 		.4byte	0x2c
 1482 07a9 19       		.byte	0x19
 1483 07aa 00       		.byte	0
 1484 07ab 0B       		.uleb128 0xb
 1485 07ac 26010000 		.4byte	0x126
 1486 07b0 BB070000 		.4byte	0x7bb
 1487 07b4 0C       		.uleb128 0xc
 1488 07b5 2C000000 		.4byte	0x2c
 1489 07b9 07       		.byte	0x7
 1490 07ba 00       		.byte	0
 1491 07bb 0B       		.uleb128 0xb
 1492 07bc 26010000 		.4byte	0x126
 1493 07c0 CB070000 		.4byte	0x7cb
 1494 07c4 0C       		.uleb128 0xc
 1495 07c5 2C000000 		.4byte	0x2c
 1496 07c9 17       		.byte	0x17
 1497 07ca 00       		.byte	0
 1498 07cb 1C       		.uleb128 0x1c
 1499 07cc F0       		.byte	0xf0
 1500 07cd 06       		.byte	0x6
 1501 07ce 9902     		.2byte	0x299
 1502 07d0 EF070000 		.4byte	0x7ef
 1503 07d4 19       		.uleb128 0x19
 1504 07d5 10040000 		.4byte	.LASF114
 1505 07d9 06       		.byte	0x6
 1506 07da 9C02     		.2byte	0x29c
 1507 07dc EF070000 		.4byte	0x7ef
 1508 07e0 00       		.byte	0
 1509 07e1 19       		.uleb128 0x19
 1510 07e2 57060000 		.4byte	.LASF115
 1511 07e6 06       		.byte	0x6
 1512 07e7 9D02     		.2byte	0x29d
 1513 07e9 FF070000 		.4byte	0x7ff
 1514 07ed 78       		.byte	0x78
 1515 07ee 00       		.byte	0
 1516 07ef 0B       		.uleb128 0xb
 1517 07f0 EF020000 		.4byte	0x2ef
 1518 07f4 FF070000 		.4byte	0x7ff
 1519 07f8 0C       		.uleb128 0xc
 1520 07f9 2C000000 		.4byte	0x2c
 1521 07fd 1D       		.byte	0x1d
 1522 07fe 00       		.byte	0
 1523 07ff 0B       		.uleb128 0xb
 1524 0800 2C000000 		.4byte	0x2c
 1525 0804 0F080000 		.4byte	0x80f
 1526 0808 0C       		.uleb128 0xc
 1527 0809 2C000000 		.4byte	0x2c
 1528 080d 1D       		.byte	0x1d
 1529 080e 00       		.byte	0
 1530 080f 1D       		.uleb128 0x1d
 1531 0810 F0       		.byte	0xf0
 1532 0811 06       		.byte	0x6
 1533 0812 7E02     		.2byte	0x27e
 1534 0814 31080000 		.4byte	0x831
 1535 0818 1E       		.uleb128 0x1e
ARM GAS  /tmp/ccUSLiGn.s 			page 28


 1536 0819 57050000 		.4byte	.LASF65
 1537 081d 06       		.byte	0x6
 1538 081e 9502     		.2byte	0x295
 1539 0820 9A060000 		.4byte	0x69a
 1540 0824 1E       		.uleb128 0x1e
 1541 0825 7A060000 		.4byte	.LASF116
 1542 0829 06       		.byte	0x6
 1543 082a 9E02     		.2byte	0x29e
 1544 082c CB070000 		.4byte	0x7cb
 1545 0830 00       		.byte	0
 1546 0831 0B       		.uleb128 0xb
 1547 0832 26010000 		.4byte	0x126
 1548 0836 41080000 		.4byte	0x841
 1549 083a 0C       		.uleb128 0xc
 1550 083b 2C000000 		.4byte	0x2c
 1551 083f 18       		.byte	0x18
 1552 0840 00       		.byte	0
 1553 0841 07       		.uleb128 0x7
 1554 0842 B4010000 		.4byte	.LASF118
 1555 0846 06       		.uleb128 0x6
 1556 0847 04       		.byte	0x4
 1557 0848 41080000 		.4byte	0x841
 1558 084c 1F       		.uleb128 0x1f
 1559 084d 57080000 		.4byte	0x857
 1560 0851 17       		.uleb128 0x17
 1561 0852 3D040000 		.4byte	0x43d
 1562 0856 00       		.byte	0
 1563 0857 06       		.uleb128 0x6
 1564 0858 04       		.byte	0x4
 1565 0859 4C080000 		.4byte	0x84c
 1566 085d 06       		.uleb128 0x6
 1567 085e 04       		.byte	0x4
 1568 085f 90010000 		.4byte	0x190
 1569 0863 1F       		.uleb128 0x1f
 1570 0864 6E080000 		.4byte	0x86e
 1571 0868 17       		.uleb128 0x17
 1572 0869 25000000 		.4byte	0x25
 1573 086d 00       		.byte	0
 1574 086e 06       		.uleb128 0x6
 1575 086f 04       		.byte	0x4
 1576 0870 74080000 		.4byte	0x874
 1577 0874 06       		.uleb128 0x6
 1578 0875 04       		.byte	0x4
 1579 0876 63080000 		.4byte	0x863
 1580 087a 0B       		.uleb128 0xb
 1581 087b 08060000 		.4byte	0x608
 1582 087f 8A080000 		.4byte	0x88a
 1583 0883 0C       		.uleb128 0xc
 1584 0884 2C000000 		.4byte	0x2c
 1585 0888 02       		.byte	0x2
 1586 0889 00       		.byte	0
 1587 088a 20       		.uleb128 0x20
 1588 088b 8D050000 		.4byte	.LASF119
 1589 088f 06       		.byte	0x6
 1590 0890 2E03     		.2byte	0x32e
 1591 0892 3D040000 		.4byte	0x43d
 1592 0896 20       		.uleb128 0x20
ARM GAS  /tmp/ccUSLiGn.s 			page 29


 1593 0897 18060000 		.4byte	.LASF120
 1594 089b 06       		.byte	0x6
 1595 089c 2F03     		.2byte	0x32f
 1596 089e 43040000 		.4byte	0x443
 1597 08a2 04       		.uleb128 0x4
 1598 08a3 D4050000 		.4byte	.LASF121
 1599 08a7 07       		.byte	0x7
 1600 08a8 18       		.byte	0x18
 1601 08a9 3A000000 		.4byte	0x3a
 1602 08ad 21       		.uleb128 0x21
 1603 08ae 2008     		.2byte	0x820
 1604 08b0 01       		.byte	0x1
 1605 08b1 18       		.byte	0x18
 1606 08b2 33090000 		.4byte	0x933
 1607 08b6 0E       		.uleb128 0xe
 1608 08b7 EE030000 		.4byte	.LASF122
 1609 08bb 01       		.byte	0x1
 1610 08bc 19       		.byte	0x19
 1611 08bd 4C000000 		.4byte	0x4c
 1612 08c1 00       		.byte	0
 1613 08c2 0E       		.uleb128 0xe
 1614 08c3 62020000 		.4byte	.LASF123
 1615 08c7 01       		.byte	0x1
 1616 08c8 1A       		.byte	0x1a
 1617 08c9 5F000000 		.4byte	0x5f
 1618 08cd 02       		.byte	0x2
 1619 08ce 0E       		.uleb128 0xe
 1620 08cf 0C000000 		.4byte	.LASF124
 1621 08d3 01       		.byte	0x1
 1622 08d4 1B       		.byte	0x1b
 1623 08d5 43090000 		.4byte	0x943
 1624 08d9 04       		.byte	0x4
 1625 08da 0E       		.uleb128 0xe
 1626 08db 10030000 		.4byte	.LASF125
 1627 08df 01       		.byte	0x1
 1628 08e0 1C       		.byte	0x1c
 1629 08e1 43090000 		.4byte	0x943
 1630 08e5 08       		.byte	0x8
 1631 08e6 0E       		.uleb128 0xe
 1632 08e7 3A040000 		.4byte	.LASF126
 1633 08eb 01       		.byte	0x1
 1634 08ec 1D       		.byte	0x1d
 1635 08ed 2C000000 		.4byte	0x2c
 1636 08f1 0C       		.byte	0xc
 1637 08f2 0E       		.uleb128 0xe
 1638 08f3 89040000 		.4byte	.LASF127
 1639 08f7 01       		.byte	0x1
 1640 08f8 1E       		.byte	0x1e
 1641 08f9 49090000 		.4byte	0x949
 1642 08fd 10       		.byte	0x10
 1643 08fe 14       		.uleb128 0x14
 1644 08ff 2B060000 		.4byte	.LASF128
 1645 0903 01       		.byte	0x1
 1646 0904 1F       		.byte	0x1f
 1647 0905 5A090000 		.4byte	0x95a
 1648 0909 1004     		.2byte	0x410
 1649 090b 14       		.uleb128 0x14
ARM GAS  /tmp/ccUSLiGn.s 			page 30


 1650 090c 5E050000 		.4byte	.LASF129
 1651 0910 01       		.byte	0x1
 1652 0911 20       		.byte	0x20
 1653 0912 2C000000 		.4byte	0x2c
 1654 0916 1808     		.2byte	0x818
 1655 0918 14       		.uleb128 0x14
 1656 0919 C1030000 		.4byte	.LASF130
 1657 091d 01       		.byte	0x1
 1658 091e 21       		.byte	0x21
 1659 091f 45000000 		.4byte	0x45
 1660 0923 1C08     		.2byte	0x81c
 1661 0925 14       		.uleb128 0x14
 1662 0926 A1050000 		.4byte	.LASF131
 1663 092a 01       		.byte	0x1
 1664 092b 22       		.byte	0x22
 1665 092c 45000000 		.4byte	0x45
 1666 0930 1D08     		.2byte	0x81d
 1667 0932 00       		.byte	0
 1668 0933 1F       		.uleb128 0x1f
 1669 0934 43090000 		.4byte	0x943
 1670 0938 17       		.uleb128 0x17
 1671 0939 EF020000 		.4byte	0x2ef
 1672 093d 17       		.uleb128 0x17
 1673 093e 2C000000 		.4byte	0x2c
 1674 0942 00       		.byte	0
 1675 0943 06       		.uleb128 0x6
 1676 0944 04       		.byte	0x4
 1677 0945 33090000 		.4byte	0x933
 1678 0949 0B       		.uleb128 0xb
 1679 094a 45000000 		.4byte	0x45
 1680 094e 5A090000 		.4byte	0x95a
 1681 0952 22       		.uleb128 0x22
 1682 0953 2C000000 		.4byte	0x2c
 1683 0957 FF03     		.2byte	0x3ff
 1684 0959 00       		.byte	0
 1685 095a 0B       		.uleb128 0xb
 1686 095b 45000000 		.4byte	0x45
 1687 095f 6B090000 		.4byte	0x96b
 1688 0963 22       		.uleb128 0x22
 1689 0964 2C000000 		.4byte	0x2c
 1690 0968 0504     		.2byte	0x405
 1691 096a 00       		.byte	0
 1692 096b 04       		.uleb128 0x4
 1693 096c A8060000 		.4byte	.LASF132
 1694 0970 01       		.byte	0x1
 1695 0971 23       		.byte	0x23
 1696 0972 AD080000 		.4byte	0x8ad
 1697 0976 0B       		.uleb128 0xb
 1698 0977 6B090000 		.4byte	0x96b
 1699 097b 86090000 		.4byte	0x986
 1700 097f 0C       		.uleb128 0xc
 1701 0980 2C000000 		.4byte	0x2c
 1702 0984 01       		.byte	0x1
 1703 0985 00       		.byte	0
 1704 0986 23       		.uleb128 0x23
 1705 0987 BF050000 		.4byte	.LASF137
 1706 098b 01       		.byte	0x1
ARM GAS  /tmp/ccUSLiGn.s 			page 31


 1707 098c 25       		.byte	0x25
 1708 098d 76090000 		.4byte	0x976
 1709 0991 05       		.uleb128 0x5
 1710 0992 03       		.byte	0x3
 1711 0993 00000000 		.4byte	handler_states
 1712 0997 24       		.uleb128 0x24
 1713 0998 5F040000 		.4byte	.LASF135
 1714 099c 01       		.byte	0x1
 1715 099d 57       		.byte	0x57
 1716 099e 00000000 		.4byte	.LFB3
 1717 09a2 40010000 		.4byte	.LFE3-.LFB3
 1718 09a6 01       		.uleb128 0x1
 1719 09a7 9C       		.byte	0x9c
 1720 09a8 EB090000 		.4byte	0x9eb
 1721 09ac 25       		.uleb128 0x25
 1722 09ad 73040000 		.4byte	.LASF133
 1723 09b1 01       		.byte	0x1
 1724 09b2 57       		.byte	0x57
 1725 09b3 A2080000 		.4byte	0x8a2
 1726 09b7 00000000 		.4byte	.LLST7
 1727 09bb 25       		.uleb128 0x25
 1728 09bc 53040000 		.4byte	.LASF134
 1729 09c0 01       		.byte	0x1
 1730 09c1 57       		.byte	0x57
 1731 09c2 25000000 		.4byte	0x25
 1732 09c6 9E000000 		.4byte	.LLST8
 1733 09ca 26       		.uleb128 0x26
 1734 09cb 1A010000 		.4byte	.LVL51
 1735 09cf 0C0B0000 		.4byte	0xb0c
 1736 09d3 DE090000 		.4byte	0x9de
 1737 09d7 27       		.uleb128 0x27
 1738 09d8 01       		.uleb128 0x1
 1739 09d9 50       		.byte	0x50
 1740 09da 02       		.uleb128 0x2
 1741 09db 78       		.byte	0x78
 1742 09dc 00       		.sleb128 0
 1743 09dd 00       		.byte	0
 1744 09de 28       		.uleb128 0x28
 1745 09df 34010000 		.4byte	.LVL52
 1746 09e3 27       		.uleb128 0x27
 1747 09e4 01       		.uleb128 0x1
 1748 09e5 50       		.byte	0x50
 1749 09e6 02       		.uleb128 0x2
 1750 09e7 78       		.byte	0x78
 1751 09e8 00       		.sleb128 0
 1752 09e9 00       		.byte	0
 1753 09ea 00       		.byte	0
 1754 09eb 24       		.uleb128 0x24
 1755 09ec 2F000000 		.4byte	.LASF136
 1756 09f0 01       		.byte	0x1
 1757 09f1 4D       		.byte	0x4d
 1758 09f2 00000000 		.4byte	.LFB2
 1759 09f6 40000000 		.4byte	.LFE2-.LFB2
 1760 09fa 01       		.uleb128 0x1
 1761 09fb 9C       		.byte	0x9c
 1762 09fc 140A0000 		.4byte	0xa14
 1763 0a00 29       		.uleb128 0x29
ARM GAS  /tmp/ccUSLiGn.s 			page 32


 1764 0a01 00000000 		.4byte	.Ldebug_ranges0+0
 1765 0a05 2A       		.uleb128 0x2a
 1766 0a06 6900     		.ascii	"i\000"
 1767 0a08 01       		.byte	0x1
 1768 0a09 4E       		.byte	0x4e
 1769 0a0a 25000000 		.4byte	0x25
 1770 0a0e 8F010000 		.4byte	.LLST6
 1771 0a12 00       		.byte	0
 1772 0a13 00       		.byte	0
 1773 0a14 24       		.uleb128 0x24
 1774 0a15 9F020000 		.4byte	.LASF138
 1775 0a19 01       		.byte	0x1
 1776 0a1a 2D       		.byte	0x2d
 1777 0a1b 00000000 		.4byte	.LFB1
 1778 0a1f 8C000000 		.4byte	.LFE1-.LFB1
 1779 0a23 01       		.uleb128 0x1
 1780 0a24 9C       		.byte	0x9c
 1781 0a25 CD0A0000 		.4byte	0xacd
 1782 0a29 25       		.uleb128 0x25
 1783 0a2a 4C030000 		.4byte	.LASF139
 1784 0a2e 01       		.byte	0x1
 1785 0a2f 2D       		.byte	0x2d
 1786 0a30 EF020000 		.4byte	0x2ef
 1787 0a34 DF010000 		.4byte	.LLST1
 1788 0a38 2B       		.uleb128 0x2b
 1789 0a39 6C656E00 		.ascii	"len\000"
 1790 0a3d 01       		.byte	0x1
 1791 0a3e 2D       		.byte	0x2d
 1792 0a3f 2C000000 		.4byte	0x2c
 1793 0a43 2C020000 		.4byte	.LLST2
 1794 0a47 25       		.uleb128 0x25
 1795 0a48 53040000 		.4byte	.LASF134
 1796 0a4c 01       		.byte	0x1
 1797 0a4d 2D       		.byte	0x2d
 1798 0a4e 25000000 		.4byte	0x25
 1799 0a52 84020000 		.4byte	.LLST3
 1800 0a56 2C       		.uleb128 0x2c
 1801 0a57 94020000 		.4byte	.LASF140
 1802 0a5b 01       		.byte	0x1
 1803 0a5c 32       		.byte	0x32
 1804 0a5d 25000000 		.4byte	0x25
 1805 0a61 C9020000 		.4byte	.LLST4
 1806 0a65 2A       		.uleb128 0x2a
 1807 0a66 63726300 		.ascii	"crc\000"
 1808 0a6a 01       		.byte	0x1
 1809 0a6b 40       		.byte	0x40
 1810 0a6c 58000000 		.4byte	0x58
 1811 0a70 31030000 		.4byte	.LLST5
 1812 0a74 26       		.uleb128 0x26
 1813 0a75 48000000 		.4byte	.LVL9
 1814 0a79 170B0000 		.4byte	0xb17
 1815 0a7d 970A0000 		.4byte	0xa97
 1816 0a81 27       		.uleb128 0x27
 1817 0a82 01       		.uleb128 0x1
 1818 0a83 50       		.byte	0x50
 1819 0a84 05       		.uleb128 0x5
 1820 0a85 79       		.byte	0x79
ARM GAS  /tmp/ccUSLiGn.s 			page 33


 1821 0a86 00       		.sleb128 0
 1822 0a87 77       		.byte	0x77
 1823 0a88 00       		.sleb128 0
 1824 0a89 22       		.byte	0x22
 1825 0a8a 27       		.uleb128 0x27
 1826 0a8b 01       		.uleb128 0x1
 1827 0a8c 51       		.byte	0x51
 1828 0a8d 02       		.uleb128 0x2
 1829 0a8e 78       		.byte	0x78
 1830 0a8f 00       		.sleb128 0
 1831 0a90 27       		.uleb128 0x27
 1832 0a91 01       		.uleb128 0x1
 1833 0a92 52       		.byte	0x52
 1834 0a93 02       		.uleb128 0x2
 1835 0a94 75       		.byte	0x75
 1836 0a95 00       		.sleb128 0
 1837 0a96 00       		.byte	0
 1838 0a97 26       		.uleb128 0x26
 1839 0a98 50000000 		.4byte	.LVL10
 1840 0a9c 0C0B0000 		.4byte	0xb0c
 1841 0aa0 B10A0000 		.4byte	0xab1
 1842 0aa4 27       		.uleb128 0x27
 1843 0aa5 01       		.uleb128 0x1
 1844 0aa6 50       		.byte	0x50
 1845 0aa7 02       		.uleb128 0x2
 1846 0aa8 78       		.byte	0x78
 1847 0aa9 00       		.sleb128 0
 1848 0aaa 27       		.uleb128 0x27
 1849 0aab 01       		.uleb128 0x1
 1850 0aac 51       		.byte	0x51
 1851 0aad 02       		.uleb128 0x2
 1852 0aae 75       		.byte	0x75
 1853 0aaf 00       		.sleb128 0
 1854 0ab0 00       		.byte	0
 1855 0ab1 2D       		.uleb128 0x2d
 1856 0ab2 74000000 		.4byte	.LVL16
 1857 0ab6 27       		.uleb128 0x27
 1858 0ab7 01       		.uleb128 0x1
 1859 0ab8 50       		.byte	0x50
 1860 0ab9 11       		.uleb128 0x11
 1861 0aba F3       		.byte	0xf3
 1862 0abb 01       		.uleb128 0x1
 1863 0abc 52       		.byte	0x52
 1864 0abd 36       		.byte	0x36
 1865 0abe 24       		.byte	0x24
 1866 0abf F3       		.byte	0xf3
 1867 0ac0 01       		.uleb128 0x1
 1868 0ac1 52       		.byte	0x52
 1869 0ac2 22       		.byte	0x22
 1870 0ac3 35       		.byte	0x35
 1871 0ac4 24       		.byte	0x24
 1872 0ac5 03       		.byte	0x3
 1873 0ac6 10040000 		.4byte	handler_states+1040
 1874 0aca 22       		.byte	0x22
 1875 0acb 00       		.byte	0
 1876 0acc 00       		.byte	0
 1877 0acd 24       		.uleb128 0x24
ARM GAS  /tmp/ccUSLiGn.s 			page 34


 1878 0ace D1030000 		.4byte	.LASF141
 1879 0ad2 01       		.byte	0x1
 1880 0ad3 27       		.byte	0x27
 1881 0ad4 00000000 		.4byte	.LFB0
 1882 0ad8 14000000 		.4byte	.LFE0-.LFB0
 1883 0adc 01       		.uleb128 0x1
 1884 0add 9C       		.byte	0x9c
 1885 0ade 0C0B0000 		.4byte	0xb0c
 1886 0ae2 2E       		.uleb128 0x2e
 1887 0ae3 D4060000 		.4byte	.LASF142
 1888 0ae7 01       		.byte	0x1
 1889 0ae8 27       		.byte	0x27
 1890 0ae9 43090000 		.4byte	0x943
 1891 0aed 01       		.uleb128 0x1
 1892 0aee 50       		.byte	0x50
 1893 0aef 2E       		.uleb128 0x2e
 1894 0af0 F5020000 		.4byte	.LASF143
 1895 0af4 01       		.byte	0x1
 1896 0af5 28       		.byte	0x28
 1897 0af6 43090000 		.4byte	0x943
 1898 0afa 01       		.uleb128 0x1
 1899 0afb 51       		.byte	0x51
 1900 0afc 25       		.uleb128 0x25
 1901 0afd 53040000 		.4byte	.LASF134
 1902 0b01 01       		.byte	0x1
 1903 0b02 28       		.byte	0x28
 1904 0b03 25000000 		.4byte	0x25
 1905 0b07 44030000 		.4byte	.LLST0
 1906 0b0b 00       		.byte	0
 1907 0b0c 2F       		.uleb128 0x2f
 1908 0b0d CE050000 		.4byte	.LASF147
 1909 0b11 CE050000 		.4byte	.LASF147
 1910 0b15 08       		.byte	0x8
 1911 0b16 1A       		.byte	0x1a
 1912 0b17 30       		.uleb128 0x30
 1913 0b18 94030000 		.4byte	.LASF148
 1914 0b1c AA030000 		.4byte	.LASF149
 1915 0b20 09       		.byte	0x9
 1916 0b21 00       		.byte	0
 1917 0b22 94030000 		.4byte	.LASF148
 1918 0b26 00       		.byte	0
 1919              		.section	.debug_abbrev,"",%progbits
 1920              	.Ldebug_abbrev0:
 1921 0000 01       		.uleb128 0x1
 1922 0001 11       		.uleb128 0x11
 1923 0002 01       		.byte	0x1
 1924 0003 25       		.uleb128 0x25
 1925 0004 0E       		.uleb128 0xe
 1926 0005 13       		.uleb128 0x13
 1927 0006 0B       		.uleb128 0xb
 1928 0007 03       		.uleb128 0x3
 1929 0008 0E       		.uleb128 0xe
 1930 0009 1B       		.uleb128 0x1b
 1931 000a 0E       		.uleb128 0xe
 1932 000b 55       		.uleb128 0x55
 1933 000c 17       		.uleb128 0x17
 1934 000d 11       		.uleb128 0x11
ARM GAS  /tmp/ccUSLiGn.s 			page 35


 1935 000e 01       		.uleb128 0x1
 1936 000f 10       		.uleb128 0x10
 1937 0010 17       		.uleb128 0x17
 1938 0011 00       		.byte	0
 1939 0012 00       		.byte	0
 1940 0013 02       		.uleb128 0x2
 1941 0014 24       		.uleb128 0x24
 1942 0015 00       		.byte	0
 1943 0016 0B       		.uleb128 0xb
 1944 0017 0B       		.uleb128 0xb
 1945 0018 3E       		.uleb128 0x3e
 1946 0019 0B       		.uleb128 0xb
 1947 001a 03       		.uleb128 0x3
 1948 001b 08       		.uleb128 0x8
 1949 001c 00       		.byte	0
 1950 001d 00       		.byte	0
 1951 001e 03       		.uleb128 0x3
 1952 001f 24       		.uleb128 0x24
 1953 0020 00       		.byte	0
 1954 0021 0B       		.uleb128 0xb
 1955 0022 0B       		.uleb128 0xb
 1956 0023 3E       		.uleb128 0x3e
 1957 0024 0B       		.uleb128 0xb
 1958 0025 03       		.uleb128 0x3
 1959 0026 0E       		.uleb128 0xe
 1960 0027 00       		.byte	0
 1961 0028 00       		.byte	0
 1962 0029 04       		.uleb128 0x4
 1963 002a 16       		.uleb128 0x16
 1964 002b 00       		.byte	0
 1965 002c 03       		.uleb128 0x3
 1966 002d 0E       		.uleb128 0xe
 1967 002e 3A       		.uleb128 0x3a
 1968 002f 0B       		.uleb128 0xb
 1969 0030 3B       		.uleb128 0x3b
 1970 0031 0B       		.uleb128 0xb
 1971 0032 49       		.uleb128 0x49
 1972 0033 13       		.uleb128 0x13
 1973 0034 00       		.byte	0
 1974 0035 00       		.byte	0
 1975 0036 05       		.uleb128 0x5
 1976 0037 35       		.uleb128 0x35
 1977 0038 00       		.byte	0
 1978 0039 49       		.uleb128 0x49
 1979 003a 13       		.uleb128 0x13
 1980 003b 00       		.byte	0
 1981 003c 00       		.byte	0
 1982 003d 06       		.uleb128 0x6
 1983 003e 0F       		.uleb128 0xf
 1984 003f 00       		.byte	0
 1985 0040 0B       		.uleb128 0xb
 1986 0041 0B       		.uleb128 0xb
 1987 0042 49       		.uleb128 0x49
 1988 0043 13       		.uleb128 0x13
 1989 0044 00       		.byte	0
 1990 0045 00       		.byte	0
 1991 0046 07       		.uleb128 0x7
ARM GAS  /tmp/ccUSLiGn.s 			page 36


 1992 0047 13       		.uleb128 0x13
 1993 0048 00       		.byte	0
 1994 0049 03       		.uleb128 0x3
 1995 004a 0E       		.uleb128 0xe
 1996 004b 3C       		.uleb128 0x3c
 1997 004c 19       		.uleb128 0x19
 1998 004d 00       		.byte	0
 1999 004e 00       		.byte	0
 2000 004f 08       		.uleb128 0x8
 2001 0050 16       		.uleb128 0x16
 2002 0051 00       		.byte	0
 2003 0052 03       		.uleb128 0x3
 2004 0053 0E       		.uleb128 0xe
 2005 0054 3A       		.uleb128 0x3a
 2006 0055 0B       		.uleb128 0xb
 2007 0056 3B       		.uleb128 0x3b
 2008 0057 05       		.uleb128 0x5
 2009 0058 49       		.uleb128 0x49
 2010 0059 13       		.uleb128 0x13
 2011 005a 00       		.byte	0
 2012 005b 00       		.byte	0
 2013 005c 09       		.uleb128 0x9
 2014 005d 17       		.uleb128 0x17
 2015 005e 01       		.byte	0x1
 2016 005f 0B       		.uleb128 0xb
 2017 0060 0B       		.uleb128 0xb
 2018 0061 3A       		.uleb128 0x3a
 2019 0062 0B       		.uleb128 0xb
 2020 0063 3B       		.uleb128 0x3b
 2021 0064 0B       		.uleb128 0xb
 2022 0065 01       		.uleb128 0x1
 2023 0066 13       		.uleb128 0x13
 2024 0067 00       		.byte	0
 2025 0068 00       		.byte	0
 2026 0069 0A       		.uleb128 0xa
 2027 006a 0D       		.uleb128 0xd
 2028 006b 00       		.byte	0
 2029 006c 03       		.uleb128 0x3
 2030 006d 0E       		.uleb128 0xe
 2031 006e 3A       		.uleb128 0x3a
 2032 006f 0B       		.uleb128 0xb
 2033 0070 3B       		.uleb128 0x3b
 2034 0071 0B       		.uleb128 0xb
 2035 0072 49       		.uleb128 0x49
 2036 0073 13       		.uleb128 0x13
 2037 0074 00       		.byte	0
 2038 0075 00       		.byte	0
 2039 0076 0B       		.uleb128 0xb
 2040 0077 01       		.uleb128 0x1
 2041 0078 01       		.byte	0x1
 2042 0079 49       		.uleb128 0x49
 2043 007a 13       		.uleb128 0x13
 2044 007b 01       		.uleb128 0x1
 2045 007c 13       		.uleb128 0x13
 2046 007d 00       		.byte	0
 2047 007e 00       		.byte	0
 2048 007f 0C       		.uleb128 0xc
ARM GAS  /tmp/ccUSLiGn.s 			page 37


 2049 0080 21       		.uleb128 0x21
 2050 0081 00       		.byte	0
 2051 0082 49       		.uleb128 0x49
 2052 0083 13       		.uleb128 0x13
 2053 0084 2F       		.uleb128 0x2f
 2054 0085 0B       		.uleb128 0xb
 2055 0086 00       		.byte	0
 2056 0087 00       		.byte	0
 2057 0088 0D       		.uleb128 0xd
 2058 0089 13       		.uleb128 0x13
 2059 008a 01       		.byte	0x1
 2060 008b 0B       		.uleb128 0xb
 2061 008c 0B       		.uleb128 0xb
 2062 008d 3A       		.uleb128 0x3a
 2063 008e 0B       		.uleb128 0xb
 2064 008f 3B       		.uleb128 0x3b
 2065 0090 0B       		.uleb128 0xb
 2066 0091 01       		.uleb128 0x1
 2067 0092 13       		.uleb128 0x13
 2068 0093 00       		.byte	0
 2069 0094 00       		.byte	0
 2070 0095 0E       		.uleb128 0xe
 2071 0096 0D       		.uleb128 0xd
 2072 0097 00       		.byte	0
 2073 0098 03       		.uleb128 0x3
 2074 0099 0E       		.uleb128 0xe
 2075 009a 3A       		.uleb128 0x3a
 2076 009b 0B       		.uleb128 0xb
 2077 009c 3B       		.uleb128 0x3b
 2078 009d 0B       		.uleb128 0xb
 2079 009e 49       		.uleb128 0x49
 2080 009f 13       		.uleb128 0x13
 2081 00a0 38       		.uleb128 0x38
 2082 00a1 0B       		.uleb128 0xb
 2083 00a2 00       		.byte	0
 2084 00a3 00       		.byte	0
 2085 00a4 0F       		.uleb128 0xf
 2086 00a5 0F       		.uleb128 0xf
 2087 00a6 00       		.byte	0
 2088 00a7 0B       		.uleb128 0xb
 2089 00a8 0B       		.uleb128 0xb
 2090 00a9 00       		.byte	0
 2091 00aa 00       		.byte	0
 2092 00ab 10       		.uleb128 0x10
 2093 00ac 26       		.uleb128 0x26
 2094 00ad 00       		.byte	0
 2095 00ae 49       		.uleb128 0x49
 2096 00af 13       		.uleb128 0x13
 2097 00b0 00       		.byte	0
 2098 00b1 00       		.byte	0
 2099 00b2 11       		.uleb128 0x11
 2100 00b3 13       		.uleb128 0x13
 2101 00b4 01       		.byte	0x1
 2102 00b5 03       		.uleb128 0x3
 2103 00b6 0E       		.uleb128 0xe
 2104 00b7 0B       		.uleb128 0xb
 2105 00b8 0B       		.uleb128 0xb
ARM GAS  /tmp/ccUSLiGn.s 			page 38


 2106 00b9 3A       		.uleb128 0x3a
 2107 00ba 0B       		.uleb128 0xb
 2108 00bb 3B       		.uleb128 0x3b
 2109 00bc 0B       		.uleb128 0xb
 2110 00bd 01       		.uleb128 0x1
 2111 00be 13       		.uleb128 0x13
 2112 00bf 00       		.byte	0
 2113 00c0 00       		.byte	0
 2114 00c1 12       		.uleb128 0x12
 2115 00c2 0D       		.uleb128 0xd
 2116 00c3 00       		.byte	0
 2117 00c4 03       		.uleb128 0x3
 2118 00c5 08       		.uleb128 0x8
 2119 00c6 3A       		.uleb128 0x3a
 2120 00c7 0B       		.uleb128 0xb
 2121 00c8 3B       		.uleb128 0x3b
 2122 00c9 0B       		.uleb128 0xb
 2123 00ca 49       		.uleb128 0x49
 2124 00cb 13       		.uleb128 0x13
 2125 00cc 38       		.uleb128 0x38
 2126 00cd 0B       		.uleb128 0xb
 2127 00ce 00       		.byte	0
 2128 00cf 00       		.byte	0
 2129 00d0 13       		.uleb128 0x13
 2130 00d1 13       		.uleb128 0x13
 2131 00d2 01       		.byte	0x1
 2132 00d3 03       		.uleb128 0x3
 2133 00d4 0E       		.uleb128 0xe
 2134 00d5 0B       		.uleb128 0xb
 2135 00d6 05       		.uleb128 0x5
 2136 00d7 3A       		.uleb128 0x3a
 2137 00d8 0B       		.uleb128 0xb
 2138 00d9 3B       		.uleb128 0x3b
 2139 00da 0B       		.uleb128 0xb
 2140 00db 01       		.uleb128 0x1
 2141 00dc 13       		.uleb128 0x13
 2142 00dd 00       		.byte	0
 2143 00de 00       		.byte	0
 2144 00df 14       		.uleb128 0x14
 2145 00e0 0D       		.uleb128 0xd
 2146 00e1 00       		.byte	0
 2147 00e2 03       		.uleb128 0x3
 2148 00e3 0E       		.uleb128 0xe
 2149 00e4 3A       		.uleb128 0x3a
 2150 00e5 0B       		.uleb128 0xb
 2151 00e6 3B       		.uleb128 0x3b
 2152 00e7 0B       		.uleb128 0xb
 2153 00e8 49       		.uleb128 0x49
 2154 00e9 13       		.uleb128 0x13
 2155 00ea 38       		.uleb128 0x38
 2156 00eb 05       		.uleb128 0x5
 2157 00ec 00       		.byte	0
 2158 00ed 00       		.byte	0
 2159 00ee 15       		.uleb128 0x15
 2160 00ef 15       		.uleb128 0x15
 2161 00f0 00       		.byte	0
 2162 00f1 27       		.uleb128 0x27
ARM GAS  /tmp/ccUSLiGn.s 			page 39


 2163 00f2 19       		.uleb128 0x19
 2164 00f3 00       		.byte	0
 2165 00f4 00       		.byte	0
 2166 00f5 16       		.uleb128 0x16
 2167 00f6 15       		.uleb128 0x15
 2168 00f7 01       		.byte	0x1
 2169 00f8 27       		.uleb128 0x27
 2170 00f9 19       		.uleb128 0x19
 2171 00fa 49       		.uleb128 0x49
 2172 00fb 13       		.uleb128 0x13
 2173 00fc 01       		.uleb128 0x1
 2174 00fd 13       		.uleb128 0x13
 2175 00fe 00       		.byte	0
 2176 00ff 00       		.byte	0
 2177 0100 17       		.uleb128 0x17
 2178 0101 05       		.uleb128 0x5
 2179 0102 00       		.byte	0
 2180 0103 49       		.uleb128 0x49
 2181 0104 13       		.uleb128 0x13
 2182 0105 00       		.byte	0
 2183 0106 00       		.byte	0
 2184 0107 18       		.uleb128 0x18
 2185 0108 13       		.uleb128 0x13
 2186 0109 01       		.byte	0x1
 2187 010a 03       		.uleb128 0x3
 2188 010b 0E       		.uleb128 0xe
 2189 010c 0B       		.uleb128 0xb
 2190 010d 05       		.uleb128 0x5
 2191 010e 3A       		.uleb128 0x3a
 2192 010f 0B       		.uleb128 0xb
 2193 0110 3B       		.uleb128 0x3b
 2194 0111 05       		.uleb128 0x5
 2195 0112 01       		.uleb128 0x1
 2196 0113 13       		.uleb128 0x13
 2197 0114 00       		.byte	0
 2198 0115 00       		.byte	0
 2199 0116 19       		.uleb128 0x19
 2200 0117 0D       		.uleb128 0xd
 2201 0118 00       		.byte	0
 2202 0119 03       		.uleb128 0x3
 2203 011a 0E       		.uleb128 0xe
 2204 011b 3A       		.uleb128 0x3a
 2205 011c 0B       		.uleb128 0xb
 2206 011d 3B       		.uleb128 0x3b
 2207 011e 05       		.uleb128 0x5
 2208 011f 49       		.uleb128 0x49
 2209 0120 13       		.uleb128 0x13
 2210 0121 38       		.uleb128 0x38
 2211 0122 0B       		.uleb128 0xb
 2212 0123 00       		.byte	0
 2213 0124 00       		.byte	0
 2214 0125 1A       		.uleb128 0x1a
 2215 0126 0D       		.uleb128 0xd
 2216 0127 00       		.byte	0
 2217 0128 03       		.uleb128 0x3
 2218 0129 0E       		.uleb128 0xe
 2219 012a 3A       		.uleb128 0x3a
ARM GAS  /tmp/ccUSLiGn.s 			page 40


 2220 012b 0B       		.uleb128 0xb
 2221 012c 3B       		.uleb128 0x3b
 2222 012d 05       		.uleb128 0x5
 2223 012e 49       		.uleb128 0x49
 2224 012f 13       		.uleb128 0x13
 2225 0130 38       		.uleb128 0x38
 2226 0131 05       		.uleb128 0x5
 2227 0132 00       		.byte	0
 2228 0133 00       		.byte	0
 2229 0134 1B       		.uleb128 0x1b
 2230 0135 13       		.uleb128 0x13
 2231 0136 01       		.byte	0x1
 2232 0137 03       		.uleb128 0x3
 2233 0138 0E       		.uleb128 0xe
 2234 0139 0B       		.uleb128 0xb
 2235 013a 0B       		.uleb128 0xb
 2236 013b 3A       		.uleb128 0x3a
 2237 013c 0B       		.uleb128 0xb
 2238 013d 3B       		.uleb128 0x3b
 2239 013e 05       		.uleb128 0x5
 2240 013f 01       		.uleb128 0x1
 2241 0140 13       		.uleb128 0x13
 2242 0141 00       		.byte	0
 2243 0142 00       		.byte	0
 2244 0143 1C       		.uleb128 0x1c
 2245 0144 13       		.uleb128 0x13
 2246 0145 01       		.byte	0x1
 2247 0146 0B       		.uleb128 0xb
 2248 0147 0B       		.uleb128 0xb
 2249 0148 3A       		.uleb128 0x3a
 2250 0149 0B       		.uleb128 0xb
 2251 014a 3B       		.uleb128 0x3b
 2252 014b 05       		.uleb128 0x5
 2253 014c 01       		.uleb128 0x1
 2254 014d 13       		.uleb128 0x13
 2255 014e 00       		.byte	0
 2256 014f 00       		.byte	0
 2257 0150 1D       		.uleb128 0x1d
 2258 0151 17       		.uleb128 0x17
 2259 0152 01       		.byte	0x1
 2260 0153 0B       		.uleb128 0xb
 2261 0154 0B       		.uleb128 0xb
 2262 0155 3A       		.uleb128 0x3a
 2263 0156 0B       		.uleb128 0xb
 2264 0157 3B       		.uleb128 0x3b
 2265 0158 05       		.uleb128 0x5
 2266 0159 01       		.uleb128 0x1
 2267 015a 13       		.uleb128 0x13
 2268 015b 00       		.byte	0
 2269 015c 00       		.byte	0
 2270 015d 1E       		.uleb128 0x1e
 2271 015e 0D       		.uleb128 0xd
 2272 015f 00       		.byte	0
 2273 0160 03       		.uleb128 0x3
 2274 0161 0E       		.uleb128 0xe
 2275 0162 3A       		.uleb128 0x3a
 2276 0163 0B       		.uleb128 0xb
ARM GAS  /tmp/ccUSLiGn.s 			page 41


 2277 0164 3B       		.uleb128 0x3b
 2278 0165 05       		.uleb128 0x5
 2279 0166 49       		.uleb128 0x49
 2280 0167 13       		.uleb128 0x13
 2281 0168 00       		.byte	0
 2282 0169 00       		.byte	0
 2283 016a 1F       		.uleb128 0x1f
 2284 016b 15       		.uleb128 0x15
 2285 016c 01       		.byte	0x1
 2286 016d 27       		.uleb128 0x27
 2287 016e 19       		.uleb128 0x19
 2288 016f 01       		.uleb128 0x1
 2289 0170 13       		.uleb128 0x13
 2290 0171 00       		.byte	0
 2291 0172 00       		.byte	0
 2292 0173 20       		.uleb128 0x20
 2293 0174 34       		.uleb128 0x34
 2294 0175 00       		.byte	0
 2295 0176 03       		.uleb128 0x3
 2296 0177 0E       		.uleb128 0xe
 2297 0178 3A       		.uleb128 0x3a
 2298 0179 0B       		.uleb128 0xb
 2299 017a 3B       		.uleb128 0x3b
 2300 017b 05       		.uleb128 0x5
 2301 017c 49       		.uleb128 0x49
 2302 017d 13       		.uleb128 0x13
 2303 017e 3F       		.uleb128 0x3f
 2304 017f 19       		.uleb128 0x19
 2305 0180 3C       		.uleb128 0x3c
 2306 0181 19       		.uleb128 0x19
 2307 0182 00       		.byte	0
 2308 0183 00       		.byte	0
 2309 0184 21       		.uleb128 0x21
 2310 0185 13       		.uleb128 0x13
 2311 0186 01       		.byte	0x1
 2312 0187 0B       		.uleb128 0xb
 2313 0188 05       		.uleb128 0x5
 2314 0189 3A       		.uleb128 0x3a
 2315 018a 0B       		.uleb128 0xb
 2316 018b 3B       		.uleb128 0x3b
 2317 018c 0B       		.uleb128 0xb
 2318 018d 01       		.uleb128 0x1
 2319 018e 13       		.uleb128 0x13
 2320 018f 00       		.byte	0
 2321 0190 00       		.byte	0
 2322 0191 22       		.uleb128 0x22
 2323 0192 21       		.uleb128 0x21
 2324 0193 00       		.byte	0
 2325 0194 49       		.uleb128 0x49
 2326 0195 13       		.uleb128 0x13
 2327 0196 2F       		.uleb128 0x2f
 2328 0197 05       		.uleb128 0x5
 2329 0198 00       		.byte	0
 2330 0199 00       		.byte	0
 2331 019a 23       		.uleb128 0x23
 2332 019b 34       		.uleb128 0x34
 2333 019c 00       		.byte	0
ARM GAS  /tmp/ccUSLiGn.s 			page 42


 2334 019d 03       		.uleb128 0x3
 2335 019e 0E       		.uleb128 0xe
 2336 019f 3A       		.uleb128 0x3a
 2337 01a0 0B       		.uleb128 0xb
 2338 01a1 3B       		.uleb128 0x3b
 2339 01a2 0B       		.uleb128 0xb
 2340 01a3 49       		.uleb128 0x49
 2341 01a4 13       		.uleb128 0x13
 2342 01a5 02       		.uleb128 0x2
 2343 01a6 18       		.uleb128 0x18
 2344 01a7 00       		.byte	0
 2345 01a8 00       		.byte	0
 2346 01a9 24       		.uleb128 0x24
 2347 01aa 2E       		.uleb128 0x2e
 2348 01ab 01       		.byte	0x1
 2349 01ac 3F       		.uleb128 0x3f
 2350 01ad 19       		.uleb128 0x19
 2351 01ae 03       		.uleb128 0x3
 2352 01af 0E       		.uleb128 0xe
 2353 01b0 3A       		.uleb128 0x3a
 2354 01b1 0B       		.uleb128 0xb
 2355 01b2 3B       		.uleb128 0x3b
 2356 01b3 0B       		.uleb128 0xb
 2357 01b4 27       		.uleb128 0x27
 2358 01b5 19       		.uleb128 0x19
 2359 01b6 11       		.uleb128 0x11
 2360 01b7 01       		.uleb128 0x1
 2361 01b8 12       		.uleb128 0x12
 2362 01b9 06       		.uleb128 0x6
 2363 01ba 40       		.uleb128 0x40
 2364 01bb 18       		.uleb128 0x18
 2365 01bc 9742     		.uleb128 0x2117
 2366 01be 19       		.uleb128 0x19
 2367 01bf 01       		.uleb128 0x1
 2368 01c0 13       		.uleb128 0x13
 2369 01c1 00       		.byte	0
 2370 01c2 00       		.byte	0
 2371 01c3 25       		.uleb128 0x25
 2372 01c4 05       		.uleb128 0x5
 2373 01c5 00       		.byte	0
 2374 01c6 03       		.uleb128 0x3
 2375 01c7 0E       		.uleb128 0xe
 2376 01c8 3A       		.uleb128 0x3a
 2377 01c9 0B       		.uleb128 0xb
 2378 01ca 3B       		.uleb128 0x3b
 2379 01cb 0B       		.uleb128 0xb
 2380 01cc 49       		.uleb128 0x49
 2381 01cd 13       		.uleb128 0x13
 2382 01ce 02       		.uleb128 0x2
 2383 01cf 17       		.uleb128 0x17
 2384 01d0 00       		.byte	0
 2385 01d1 00       		.byte	0
 2386 01d2 26       		.uleb128 0x26
 2387 01d3 898201   		.uleb128 0x4109
 2388 01d6 01       		.byte	0x1
 2389 01d7 11       		.uleb128 0x11
 2390 01d8 01       		.uleb128 0x1
ARM GAS  /tmp/ccUSLiGn.s 			page 43


 2391 01d9 31       		.uleb128 0x31
 2392 01da 13       		.uleb128 0x13
 2393 01db 01       		.uleb128 0x1
 2394 01dc 13       		.uleb128 0x13
 2395 01dd 00       		.byte	0
 2396 01de 00       		.byte	0
 2397 01df 27       		.uleb128 0x27
 2398 01e0 8A8201   		.uleb128 0x410a
 2399 01e3 00       		.byte	0
 2400 01e4 02       		.uleb128 0x2
 2401 01e5 18       		.uleb128 0x18
 2402 01e6 9142     		.uleb128 0x2111
 2403 01e8 18       		.uleb128 0x18
 2404 01e9 00       		.byte	0
 2405 01ea 00       		.byte	0
 2406 01eb 28       		.uleb128 0x28
 2407 01ec 898201   		.uleb128 0x4109
 2408 01ef 01       		.byte	0x1
 2409 01f0 11       		.uleb128 0x11
 2410 01f1 01       		.uleb128 0x1
 2411 01f2 00       		.byte	0
 2412 01f3 00       		.byte	0
 2413 01f4 29       		.uleb128 0x29
 2414 01f5 0B       		.uleb128 0xb
 2415 01f6 01       		.byte	0x1
 2416 01f7 55       		.uleb128 0x55
 2417 01f8 17       		.uleb128 0x17
 2418 01f9 00       		.byte	0
 2419 01fa 00       		.byte	0
 2420 01fb 2A       		.uleb128 0x2a
 2421 01fc 34       		.uleb128 0x34
 2422 01fd 00       		.byte	0
 2423 01fe 03       		.uleb128 0x3
 2424 01ff 08       		.uleb128 0x8
 2425 0200 3A       		.uleb128 0x3a
 2426 0201 0B       		.uleb128 0xb
 2427 0202 3B       		.uleb128 0x3b
 2428 0203 0B       		.uleb128 0xb
 2429 0204 49       		.uleb128 0x49
 2430 0205 13       		.uleb128 0x13
 2431 0206 02       		.uleb128 0x2
 2432 0207 17       		.uleb128 0x17
 2433 0208 00       		.byte	0
 2434 0209 00       		.byte	0
 2435 020a 2B       		.uleb128 0x2b
 2436 020b 05       		.uleb128 0x5
 2437 020c 00       		.byte	0
 2438 020d 03       		.uleb128 0x3
 2439 020e 08       		.uleb128 0x8
 2440 020f 3A       		.uleb128 0x3a
 2441 0210 0B       		.uleb128 0xb
 2442 0211 3B       		.uleb128 0x3b
 2443 0212 0B       		.uleb128 0xb
 2444 0213 49       		.uleb128 0x49
 2445 0214 13       		.uleb128 0x13
 2446 0215 02       		.uleb128 0x2
 2447 0216 17       		.uleb128 0x17
ARM GAS  /tmp/ccUSLiGn.s 			page 44


 2448 0217 00       		.byte	0
 2449 0218 00       		.byte	0
 2450 0219 2C       		.uleb128 0x2c
 2451 021a 34       		.uleb128 0x34
 2452 021b 00       		.byte	0
 2453 021c 03       		.uleb128 0x3
 2454 021d 0E       		.uleb128 0xe
 2455 021e 3A       		.uleb128 0x3a
 2456 021f 0B       		.uleb128 0xb
 2457 0220 3B       		.uleb128 0x3b
 2458 0221 0B       		.uleb128 0xb
 2459 0222 49       		.uleb128 0x49
 2460 0223 13       		.uleb128 0x13
 2461 0224 02       		.uleb128 0x2
 2462 0225 17       		.uleb128 0x17
 2463 0226 00       		.byte	0
 2464 0227 00       		.byte	0
 2465 0228 2D       		.uleb128 0x2d
 2466 0229 898201   		.uleb128 0x4109
 2467 022c 01       		.byte	0x1
 2468 022d 11       		.uleb128 0x11
 2469 022e 01       		.uleb128 0x1
 2470 022f 9542     		.uleb128 0x2115
 2471 0231 19       		.uleb128 0x19
 2472 0232 00       		.byte	0
 2473 0233 00       		.byte	0
 2474 0234 2E       		.uleb128 0x2e
 2475 0235 05       		.uleb128 0x5
 2476 0236 00       		.byte	0
 2477 0237 03       		.uleb128 0x3
 2478 0238 0E       		.uleb128 0xe
 2479 0239 3A       		.uleb128 0x3a
 2480 023a 0B       		.uleb128 0xb
 2481 023b 3B       		.uleb128 0x3b
 2482 023c 0B       		.uleb128 0xb
 2483 023d 49       		.uleb128 0x49
 2484 023e 13       		.uleb128 0x13
 2485 023f 02       		.uleb128 0x2
 2486 0240 18       		.uleb128 0x18
 2487 0241 00       		.byte	0
 2488 0242 00       		.byte	0
 2489 0243 2F       		.uleb128 0x2f
 2490 0244 2E       		.uleb128 0x2e
 2491 0245 00       		.byte	0
 2492 0246 3F       		.uleb128 0x3f
 2493 0247 19       		.uleb128 0x19
 2494 0248 3C       		.uleb128 0x3c
 2495 0249 19       		.uleb128 0x19
 2496 024a 6E       		.uleb128 0x6e
 2497 024b 0E       		.uleb128 0xe
 2498 024c 03       		.uleb128 0x3
 2499 024d 0E       		.uleb128 0xe
 2500 024e 3A       		.uleb128 0x3a
 2501 024f 0B       		.uleb128 0xb
 2502 0250 3B       		.uleb128 0x3b
 2503 0251 0B       		.uleb128 0xb
 2504 0252 00       		.byte	0
ARM GAS  /tmp/ccUSLiGn.s 			page 45


 2505 0253 00       		.byte	0
 2506 0254 30       		.uleb128 0x30
 2507 0255 2E       		.uleb128 0x2e
 2508 0256 00       		.byte	0
 2509 0257 3F       		.uleb128 0x3f
 2510 0258 19       		.uleb128 0x19
 2511 0259 3C       		.uleb128 0x3c
 2512 025a 19       		.uleb128 0x19
 2513 025b 6E       		.uleb128 0x6e
 2514 025c 0E       		.uleb128 0xe
 2515 025d 03       		.uleb128 0x3
 2516 025e 0E       		.uleb128 0xe
 2517 025f 3A       		.uleb128 0x3a
 2518 0260 0B       		.uleb128 0xb
 2519 0261 3B       		.uleb128 0x3b
 2520 0262 0B       		.uleb128 0xb
 2521 0263 6E       		.uleb128 0x6e
 2522 0264 0E       		.uleb128 0xe
 2523 0265 00       		.byte	0
 2524 0266 00       		.byte	0
 2525 0267 00       		.byte	0
 2526              		.section	.debug_loc,"",%progbits
 2527              	.Ldebug_loc0:
 2528              	.LLST7:
 2529 0000 00000000 		.4byte	.LVL26
 2530 0004 24000000 		.4byte	.LVL27
 2531 0008 0100     		.2byte	0x1
 2532 000a 50       		.byte	0x50
 2533 000b 24000000 		.4byte	.LVL27
 2534 000f 30000000 		.4byte	.LVL29
 2535 0013 0400     		.2byte	0x4
 2536 0015 F3       		.byte	0xf3
 2537 0016 01       		.uleb128 0x1
 2538 0017 50       		.byte	0x50
 2539 0018 9F       		.byte	0x9f
 2540 0019 30000000 		.4byte	.LVL29
 2541 001d 3E000000 		.4byte	.LVL31
 2542 0021 0100     		.2byte	0x1
 2543 0023 50       		.byte	0x50
 2544 0024 3E000000 		.4byte	.LVL31
 2545 0028 46000000 		.4byte	.LVL32
 2546 002c 0400     		.2byte	0x4
 2547 002e F3       		.byte	0xf3
 2548 002f 01       		.uleb128 0x1
 2549 0030 50       		.byte	0x50
 2550 0031 9F       		.byte	0x9f
 2551 0032 46000000 		.4byte	.LVL32
 2552 0036 56000000 		.4byte	.LVL34
 2553 003a 0100     		.2byte	0x1
 2554 003c 50       		.byte	0x50
 2555 003d 56000000 		.4byte	.LVL34
 2556 0041 62000000 		.4byte	.LVL35
 2557 0045 0400     		.2byte	0x4
 2558 0047 F3       		.byte	0xf3
 2559 0048 01       		.uleb128 0x1
 2560 0049 50       		.byte	0x50
 2561 004a 9F       		.byte	0x9f
ARM GAS  /tmp/ccUSLiGn.s 			page 46


 2562 004b 62000000 		.4byte	.LVL35
 2563 004f 6C000000 		.4byte	.LVL37
 2564 0053 0100     		.2byte	0x1
 2565 0055 50       		.byte	0x50
 2566 0056 6C000000 		.4byte	.LVL37
 2567 005a 88000000 		.4byte	.LVL38
 2568 005e 0400     		.2byte	0x4
 2569 0060 F3       		.byte	0xf3
 2570 0061 01       		.uleb128 0x1
 2571 0062 50       		.byte	0x50
 2572 0063 9F       		.byte	0x9f
 2573 0064 88000000 		.4byte	.LVL38
 2574 0068 E8000000 		.4byte	.LVL46
 2575 006c 0100     		.2byte	0x1
 2576 006e 50       		.byte	0x50
 2577 006f E8000000 		.4byte	.LVL46
 2578 0073 FA000000 		.4byte	.LVL47
 2579 0077 0400     		.2byte	0x4
 2580 0079 F3       		.byte	0xf3
 2581 007a 01       		.uleb128 0x1
 2582 007b 50       		.byte	0x50
 2583 007c 9F       		.byte	0x9f
 2584 007d FA000000 		.4byte	.LVL47
 2585 0081 12010000 		.4byte	.LVL49
 2586 0085 0100     		.2byte	0x1
 2587 0087 50       		.byte	0x50
 2588 0088 12010000 		.4byte	.LVL49
 2589 008c 40010000 		.4byte	.LFE3
 2590 0090 0400     		.2byte	0x4
 2591 0092 F3       		.byte	0xf3
 2592 0093 01       		.uleb128 0x1
 2593 0094 50       		.byte	0x50
 2594 0095 9F       		.byte	0x9f
 2595 0096 00000000 		.4byte	0
 2596 009a 00000000 		.4byte	0
 2597              	.LLST8:
 2598 009e 00000000 		.4byte	.LVL26
 2599 00a2 24000000 		.4byte	.LVL27
 2600 00a6 0100     		.2byte	0x1
 2601 00a8 51       		.byte	0x51
 2602 00a9 24000000 		.4byte	.LVL27
 2603 00ad 26000000 		.4byte	.LVL28
 2604 00b1 0100     		.2byte	0x1
 2605 00b3 54       		.byte	0x54
 2606 00b4 26000000 		.4byte	.LVL28
 2607 00b8 30000000 		.4byte	.LVL29
 2608 00bc 0400     		.2byte	0x4
 2609 00be F3       		.byte	0xf3
 2610 00bf 01       		.uleb128 0x1
 2611 00c0 51       		.byte	0x51
 2612 00c1 9F       		.byte	0x9f
 2613 00c2 30000000 		.4byte	.LVL29
 2614 00c6 32000000 		.4byte	.LVL30
 2615 00ca 0100     		.2byte	0x1
 2616 00cc 51       		.byte	0x51
 2617 00cd 32000000 		.4byte	.LVL30
 2618 00d1 46000000 		.4byte	.LVL32
ARM GAS  /tmp/ccUSLiGn.s 			page 47


 2619 00d5 0400     		.2byte	0x4
 2620 00d7 F3       		.byte	0xf3
 2621 00d8 01       		.uleb128 0x1
 2622 00d9 51       		.byte	0x51
 2623 00da 9F       		.byte	0x9f
 2624 00db 46000000 		.4byte	.LVL32
 2625 00df 48000000 		.4byte	.LVL33
 2626 00e3 0100     		.2byte	0x1
 2627 00e5 51       		.byte	0x51
 2628 00e6 48000000 		.4byte	.LVL33
 2629 00ea 62000000 		.4byte	.LVL35
 2630 00ee 0400     		.2byte	0x4
 2631 00f0 F3       		.byte	0xf3
 2632 00f1 01       		.uleb128 0x1
 2633 00f2 51       		.byte	0x51
 2634 00f3 9F       		.byte	0x9f
 2635 00f4 62000000 		.4byte	.LVL35
 2636 00f8 64000000 		.4byte	.LVL36
 2637 00fc 0100     		.2byte	0x1
 2638 00fe 51       		.byte	0x51
 2639 00ff 64000000 		.4byte	.LVL36
 2640 0103 88000000 		.4byte	.LVL38
 2641 0107 0400     		.2byte	0x4
 2642 0109 F3       		.byte	0xf3
 2643 010a 01       		.uleb128 0x1
 2644 010b 51       		.byte	0x51
 2645 010c 9F       		.byte	0x9f
 2646 010d 88000000 		.4byte	.LVL38
 2647 0111 B0000000 		.4byte	.LVL39
 2648 0115 0100     		.2byte	0x1
 2649 0117 51       		.byte	0x51
 2650 0118 B0000000 		.4byte	.LVL39
 2651 011c BE000000 		.4byte	.LVL40
 2652 0120 0400     		.2byte	0x4
 2653 0122 F3       		.byte	0xf3
 2654 0123 01       		.uleb128 0x1
 2655 0124 51       		.byte	0x51
 2656 0125 9F       		.byte	0x9f
 2657 0126 BE000000 		.4byte	.LVL40
 2658 012a C0000000 		.4byte	.LVL41
 2659 012e 0100     		.2byte	0x1
 2660 0130 51       		.byte	0x51
 2661 0131 C0000000 		.4byte	.LVL41
 2662 0135 CC000000 		.4byte	.LVL42
 2663 0139 0400     		.2byte	0x4
 2664 013b F3       		.byte	0xf3
 2665 013c 01       		.uleb128 0x1
 2666 013d 51       		.byte	0x51
 2667 013e 9F       		.byte	0x9f
 2668 013f CC000000 		.4byte	.LVL42
 2669 0143 CE000000 		.4byte	.LVL43
 2670 0147 0100     		.2byte	0x1
 2671 0149 51       		.byte	0x51
 2672 014a CE000000 		.4byte	.LVL43
 2673 014e DA000000 		.4byte	.LVL44
 2674 0152 0400     		.2byte	0x4
 2675 0154 F3       		.byte	0xf3
ARM GAS  /tmp/ccUSLiGn.s 			page 48


 2676 0155 01       		.uleb128 0x1
 2677 0156 51       		.byte	0x51
 2678 0157 9F       		.byte	0x9f
 2679 0158 DA000000 		.4byte	.LVL44
 2680 015c DC000000 		.4byte	.LVL45
 2681 0160 0100     		.2byte	0x1
 2682 0162 51       		.byte	0x51
 2683 0163 DC000000 		.4byte	.LVL45
 2684 0167 02010000 		.4byte	.LVL48
 2685 016b 0400     		.2byte	0x4
 2686 016d F3       		.byte	0xf3
 2687 016e 01       		.uleb128 0x1
 2688 016f 51       		.byte	0x51
 2689 0170 9F       		.byte	0x9f
 2690 0171 02010000 		.4byte	.LVL48
 2691 0175 16010000 		.4byte	.LVL50
 2692 0179 0100     		.2byte	0x1
 2693 017b 51       		.byte	0x51
 2694 017c 16010000 		.4byte	.LVL50
 2695 0180 40010000 		.4byte	.LFE3
 2696 0184 0100     		.2byte	0x1
 2697 0186 54       		.byte	0x54
 2698 0187 00000000 		.4byte	0
 2699 018b 00000000 		.4byte	0
 2700              	.LLST6:
 2701 018f 00000000 		.4byte	.LVL20
 2702 0193 08000000 		.4byte	.LVL21
 2703 0197 0200     		.2byte	0x2
 2704 0199 30       		.byte	0x30
 2705 019a 9F       		.byte	0x9f
 2706 019b 08000000 		.4byte	.LVL21
 2707 019f 1E000000 		.4byte	.LVL22
 2708 01a3 0200     		.2byte	0x2
 2709 01a5 31       		.byte	0x31
 2710 01a6 9F       		.byte	0x9f
 2711 01a7 1E000000 		.4byte	.LVL22
 2712 01ab 20000000 		.4byte	.LVL23
 2713 01af 0200     		.2byte	0x2
 2714 01b1 32       		.byte	0x32
 2715 01b2 9F       		.byte	0x9f
 2716 01b3 20000000 		.4byte	.LVL23
 2717 01b7 26000000 		.4byte	.LVL24
 2718 01bb 0200     		.2byte	0x2
 2719 01bd 31       		.byte	0x31
 2720 01be 9F       		.byte	0x9f
 2721 01bf 26000000 		.4byte	.LVL24
 2722 01c3 2E000000 		.4byte	.LVL25
 2723 01c7 0200     		.2byte	0x2
 2724 01c9 30       		.byte	0x30
 2725 01ca 9F       		.byte	0x9f
 2726 01cb 2E000000 		.4byte	.LVL25
 2727 01cf 40000000 		.4byte	.LFE2
 2728 01d3 0200     		.2byte	0x2
 2729 01d5 31       		.byte	0x31
 2730 01d6 9F       		.byte	0x9f
 2731 01d7 00000000 		.4byte	0
 2732 01db 00000000 		.4byte	0
ARM GAS  /tmp/ccUSLiGn.s 			page 49


 2733              	.LLST1:
 2734 01df 00000000 		.4byte	.LVL2
 2735 01e3 42000000 		.4byte	.LVL7
 2736 01e7 0100     		.2byte	0x1
 2737 01e9 50       		.byte	0x50
 2738 01ea 42000000 		.4byte	.LVL7
 2739 01ee 72000000 		.4byte	.LVL15
 2740 01f2 0100     		.2byte	0x1
 2741 01f4 58       		.byte	0x58
 2742 01f5 72000000 		.4byte	.LVL15
 2743 01f9 74000000 		.4byte	.LVL16
 2744 01fd 0400     		.2byte	0x4
 2745 01ff F3       		.byte	0xf3
 2746 0200 01       		.uleb128 0x1
 2747 0201 50       		.byte	0x50
 2748 0202 9F       		.byte	0x9f
 2749 0203 74000000 		.4byte	.LVL16
 2750 0207 80000000 		.4byte	.LVL18
 2751 020b 0100     		.2byte	0x1
 2752 020d 50       		.byte	0x50
 2753 020e 80000000 		.4byte	.LVL18
 2754 0212 84000000 		.4byte	.LVL19
 2755 0216 0100     		.2byte	0x1
 2756 0218 58       		.byte	0x58
 2757 0219 84000000 		.4byte	.LVL19
 2758 021d 8C000000 		.4byte	.LFE1
 2759 0221 0100     		.2byte	0x1
 2760 0223 50       		.byte	0x50
 2761 0224 00000000 		.4byte	0
 2762 0228 00000000 		.4byte	0
 2763              	.LLST2:
 2764 022c 00000000 		.4byte	.LVL2
 2765 0230 44000000 		.4byte	.LVL8
 2766 0234 0100     		.2byte	0x1
 2767 0236 51       		.byte	0x51
 2768 0237 44000000 		.4byte	.LVL8
 2769 023b 47000000 		.4byte	.LVL9-1
 2770 023f 0100     		.2byte	0x1
 2771 0241 52       		.byte	0x52
 2772 0242 47000000 		.4byte	.LVL9-1
 2773 0246 72000000 		.4byte	.LVL15
 2774 024a 0100     		.2byte	0x1
 2775 024c 55       		.byte	0x55
 2776 024d 72000000 		.4byte	.LVL15
 2777 0251 74000000 		.4byte	.LVL16
 2778 0255 0400     		.2byte	0x4
 2779 0257 F3       		.byte	0xf3
 2780 0258 01       		.uleb128 0x1
 2781 0259 51       		.byte	0x51
 2782 025a 9F       		.byte	0x9f
 2783 025b 74000000 		.4byte	.LVL16
 2784 025f 80000000 		.4byte	.LVL18
 2785 0263 0100     		.2byte	0x1
 2786 0265 51       		.byte	0x51
 2787 0266 80000000 		.4byte	.LVL18
 2788 026a 84000000 		.4byte	.LVL19
 2789 026e 0100     		.2byte	0x1
ARM GAS  /tmp/ccUSLiGn.s 			page 50


 2790 0270 55       		.byte	0x55
 2791 0271 84000000 		.4byte	.LVL19
 2792 0275 8C000000 		.4byte	.LFE1
 2793 0279 0100     		.2byte	0x1
 2794 027b 51       		.byte	0x51
 2795 027c 00000000 		.4byte	0
 2796 0280 00000000 		.4byte	0
 2797              	.LLST3:
 2798 0284 00000000 		.4byte	.LVL2
 2799 0288 3C000000 		.4byte	.LVL6
 2800 028c 0100     		.2byte	0x1
 2801 028e 52       		.byte	0x52
 2802 028f 3C000000 		.4byte	.LVL6
 2803 0293 74000000 		.4byte	.LVL16
 2804 0297 0400     		.2byte	0x4
 2805 0299 F3       		.byte	0xf3
 2806 029a 01       		.uleb128 0x1
 2807 029b 52       		.byte	0x52
 2808 029c 9F       		.byte	0x9f
 2809 029d 74000000 		.4byte	.LVL16
 2810 02a1 80000000 		.4byte	.LVL18
 2811 02a5 0100     		.2byte	0x1
 2812 02a7 52       		.byte	0x52
 2813 02a8 80000000 		.4byte	.LVL18
 2814 02ac 84000000 		.4byte	.LVL19
 2815 02b0 0400     		.2byte	0x4
 2816 02b2 F3       		.byte	0xf3
 2817 02b3 01       		.uleb128 0x1
 2818 02b4 52       		.byte	0x52
 2819 02b5 9F       		.byte	0x9f
 2820 02b6 84000000 		.4byte	.LVL19
 2821 02ba 8C000000 		.4byte	.LFE1
 2822 02be 0100     		.2byte	0x1
 2823 02c0 52       		.byte	0x52
 2824 02c1 00000000 		.4byte	0
 2825 02c5 00000000 		.4byte	0
 2826              	.LLST4:
 2827 02c9 06000000 		.4byte	.LVL3
 2828 02cd 1E000000 		.4byte	.LVL4
 2829 02d1 0200     		.2byte	0x2
 2830 02d3 30       		.byte	0x30
 2831 02d4 9F       		.byte	0x9f
 2832 02d5 1E000000 		.4byte	.LVL4
 2833 02d9 2E000000 		.4byte	.LVL5
 2834 02dd 0200     		.2byte	0x2
 2835 02df 31       		.byte	0x31
 2836 02e0 9F       		.byte	0x9f
 2837 02e1 54000000 		.4byte	.LVL11
 2838 02e5 64000000 		.4byte	.LVL13
 2839 02e9 0300     		.2byte	0x3
 2840 02eb 71       		.byte	0x71
 2841 02ec 01       		.sleb128 1
 2842 02ed 9F       		.byte	0x9f
 2843 02ee 64000000 		.4byte	.LVL13
 2844 02f2 66000000 		.4byte	.LVL14
 2845 02f6 0300     		.2byte	0x3
 2846 02f8 71       		.byte	0x71
ARM GAS  /tmp/ccUSLiGn.s 			page 51


 2847 02f9 02       		.sleb128 2
 2848 02fa 9F       		.byte	0x9f
 2849 02fb 66000000 		.4byte	.LVL14
 2850 02ff 73000000 		.4byte	.LVL16-1
 2851 0303 0100     		.2byte	0x1
 2852 0305 51       		.byte	0x51
 2853 0306 74000000 		.4byte	.LVL16
 2854 030a 7E000000 		.4byte	.LVL17
 2855 030e 0200     		.2byte	0x2
 2856 0310 31       		.byte	0x31
 2857 0311 9F       		.byte	0x9f
 2858 0312 7E000000 		.4byte	.LVL17
 2859 0316 80000000 		.4byte	.LVL18
 2860 031a 0200     		.2byte	0x2
 2861 031c 32       		.byte	0x32
 2862 031d 9F       		.byte	0x9f
 2863 031e 80000000 		.4byte	.LVL18
 2864 0322 84000000 		.4byte	.LVL19
 2865 0326 0100     		.2byte	0x1
 2866 0328 51       		.byte	0x51
 2867 0329 00000000 		.4byte	0
 2868 032d 00000000 		.4byte	0
 2869              	.LLST5:
 2870 0331 54000000 		.4byte	.LVL11
 2871 0335 60000000 		.4byte	.LVL12
 2872 0339 0100     		.2byte	0x1
 2873 033b 50       		.byte	0x50
 2874 033c 00000000 		.4byte	0
 2875 0340 00000000 		.4byte	0
 2876              	.LLST0:
 2877 0344 00000000 		.4byte	.LVL0
 2878 0348 06000000 		.4byte	.LVL1
 2879 034c 0100     		.2byte	0x1
 2880 034e 52       		.byte	0x52
 2881 034f 06000000 		.4byte	.LVL1
 2882 0353 14000000 		.4byte	.LFE0
 2883 0357 0400     		.2byte	0x4
 2884 0359 F3       		.byte	0xf3
 2885 035a 01       		.uleb128 0x1
 2886 035b 52       		.byte	0x52
 2887 035c 9F       		.byte	0x9f
 2888 035d 00000000 		.4byte	0
 2889 0361 00000000 		.4byte	0
 2890              		.section	.debug_aranges,"",%progbits
 2891 0000 34000000 		.4byte	0x34
 2892 0004 0200     		.2byte	0x2
 2893 0006 00000000 		.4byte	.Ldebug_info0
 2894 000a 04       		.byte	0x4
 2895 000b 00       		.byte	0
 2896 000c 0000     		.2byte	0
 2897 000e 0000     		.2byte	0
 2898 0010 00000000 		.4byte	.LFB0
 2899 0014 14000000 		.4byte	.LFE0-.LFB0
 2900 0018 00000000 		.4byte	.LFB1
 2901 001c 8C000000 		.4byte	.LFE1-.LFB1
 2902 0020 00000000 		.4byte	.LFB2
 2903 0024 40000000 		.4byte	.LFE2-.LFB2
ARM GAS  /tmp/ccUSLiGn.s 			page 52


 2904 0028 00000000 		.4byte	.LFB3
 2905 002c 40010000 		.4byte	.LFE3-.LFB3
 2906 0030 00000000 		.4byte	0
 2907 0034 00000000 		.4byte	0
 2908              		.section	.debug_ranges,"",%progbits
 2909              	.Ldebug_ranges0:
 2910 0000 00000000 		.4byte	.LBB2
 2911 0004 1E000000 		.4byte	.LBE2
 2912 0008 20000000 		.4byte	.LBB3
 2913 000c 40000000 		.4byte	.LBE3
 2914 0010 00000000 		.4byte	0
 2915 0014 00000000 		.4byte	0
 2916 0018 00000000 		.4byte	.LFB0
 2917 001c 14000000 		.4byte	.LFE0
 2918 0020 00000000 		.4byte	.LFB1
 2919 0024 8C000000 		.4byte	.LFE1
 2920 0028 00000000 		.4byte	.LFB2
 2921 002c 40000000 		.4byte	.LFE2
 2922 0030 00000000 		.4byte	.LFB3
 2923 0034 40010000 		.4byte	.LFE3
 2924 0038 00000000 		.4byte	0
 2925 003c 00000000 		.4byte	0
 2926              		.section	.debug_line,"",%progbits
 2927              	.Ldebug_line0:
 2928 0000 B6010000 		.section	.debug_str,"MS",%progbits,1
 2928      0200EF00 
 2928      00000201 
 2928      FB0E0D00 
 2928      01010101 
 2929              	.LASF39:
 2930 0000 5F64736F 		.ascii	"_dso_handle\000"
 2930      5F68616E 
 2930      646C6500 
 2931              	.LASF124:
 2932 000c 73656E64 		.ascii	"send_func\000"
 2932      5F66756E 
 2932      6300
 2933              	.LASF47:
 2934 0016 5F73697A 		.ascii	"_size\000"
 2934      6500
 2935              	.LASF91:
 2936 001c 5F72616E 		.ascii	"_rand48\000"
 2936      64343800 
 2937              	.LASF71:
 2938 0024 5F656D65 		.ascii	"_emergency\000"
 2938      7267656E 
 2938      637900
 2939              	.LASF136:
 2940 002f 7061636B 		.ascii	"packet_timerfunc\000"
 2940      65745F74 
 2940      696D6572 
 2940      66756E63 
 2940      00
 2941              	.LASF9:
 2942 0040 5F5F7569 		.ascii	"__uint8_t\000"
 2942      6E74385F 
 2942      7400
ARM GAS  /tmp/ccUSLiGn.s 			page 53


 2943              	.LASF61:
 2944 004a 5F646174 		.ascii	"_data\000"
 2944      6100
 2945              	.LASF144:
 2946 0050 474E5520 		.ascii	"GNU C99 7.3.1 20180622 (release) [ARM/embedded-7-br"
 2946      43393920 
 2946      372E332E 
 2946      31203230 
 2946      31383036 
 2947 0083 616E6368 		.ascii	"anch revision 261907] -mcpu=cortex-m4 -mfloat-abi=h"
 2947      20726576 
 2947      6973696F 
 2947      6E203236 
 2947      31393037 
 2948 00b6 61726420 		.ascii	"ard -mfpu=fpv4-sp-d16 -mno-thumb-interwork -mthumb "
 2948      2D6D6670 
 2948      753D6670 
 2948      76342D73 
 2948      702D6431 
 2949 00e9 2D676764 		.ascii	"-ggdb -O2 -std=gnu99 -fomit-frame-pointer -falign-f"
 2949      62202D4F 
 2949      32202D73 
 2949      74643D67 
 2949      6E753939 
 2950 011c 756E6374 		.ascii	"unctions=16 -ffunction-sections -fdata-sections -fn"
 2950      696F6E73 
 2950      3D313620 
 2950      2D666675 
 2950      6E637469 
 2951 014f 6F2D636F 		.ascii	"o-common -fsingle-precision-constant\000"
 2951      6D6D6F6E 
 2951      202D6673 
 2951      696E676C 
 2951      652D7072 
 2952              	.LASF111:
 2953 0174 5F776372 		.ascii	"_wcrtomb_state\000"
 2953      746F6D62 
 2953      5F737461 
 2953      746500
 2954              	.LASF112:
 2955 0183 5F776373 		.ascii	"_wcsrtombs_state\000"
 2955      72746F6D 
 2955      62735F73 
 2955      74617465 
 2955      00
 2956              	.LASF8:
 2957 0194 6C6F6E67 		.ascii	"long long unsigned int\000"
 2957      206C6F6E 
 2957      6720756E 
 2957      7369676E 
 2957      65642069 
 2958              	.LASF51:
 2959 01ab 5F6C6266 		.ascii	"_lbfsize\000"
 2959      73697A65 
 2959      00
 2960              	.LASF118:
 2961 01b4 5F5F6C6F 		.ascii	"__locale_t\000"
ARM GAS  /tmp/ccUSLiGn.s 			page 54


 2961      63616C65 
 2961      5F7400
 2962              	.LASF109:
 2963 01bf 5F6D6272 		.ascii	"_mbrtowc_state\000"
 2963      746F7763 
 2963      5F737461 
 2963      746500
 2964              	.LASF28:
 2965 01ce 5F5F746D 		.ascii	"__tm_sec\000"
 2965      5F736563 
 2965      00
 2966              	.LASF7:
 2967 01d7 6C6F6E67 		.ascii	"long long int\000"
 2967      206C6F6E 
 2967      6720696E 
 2967      7400
 2968              	.LASF1:
 2969 01e5 7369676E 		.ascii	"signed char\000"
 2969      65642063 
 2969      68617200 
 2970              	.LASF57:
 2971 01f1 5F756275 		.ascii	"_ubuf\000"
 2971      6600
 2972              	.LASF46:
 2973 01f7 5F626173 		.ascii	"_base\000"
 2973      6500
 2974              	.LASF30:
 2975 01fd 5F5F746D 		.ascii	"__tm_hour\000"
 2975      5F686F75 
 2975      7200
 2976              	.LASF86:
 2977 0207 5F5F7366 		.ascii	"__sf\000"
 2977      00
 2978              	.LASF37:
 2979 020c 5F6F6E5F 		.ascii	"_on_exit_args\000"
 2979      65786974 
 2979      5F617267 
 2979      7300
 2980              	.LASF52:
 2981 021a 5F636F6F 		.ascii	"_cookie\000"
 2981      6B696500 
 2982              	.LASF85:
 2983 0222 5F5F7367 		.ascii	"__sglue\000"
 2983      6C756500 
 2984              	.LASF5:
 2985 022a 6C6F6E67 		.ascii	"long int\000"
 2985      20696E74 
 2985      00
 2986              	.LASF49:
 2987 0233 5F666C61 		.ascii	"_flags\000"
 2987      677300
 2988              	.LASF41:
 2989 023a 5F69735F 		.ascii	"_is_cxa\000"
 2989      63786100 
 2990              	.LASF67:
 2991 0242 5F737464 		.ascii	"_stdin\000"
 2991      696E00
ARM GAS  /tmp/ccUSLiGn.s 			page 55


 2992              	.LASF59:
 2993 0249 5F626C6B 		.ascii	"_blksize\000"
 2993      73697A65 
 2993      00
 2994              	.LASF81:
 2995 0252 5F637674 		.ascii	"_cvtbuf\000"
 2995      62756600 
 2996              	.LASF60:
 2997 025a 5F6F6666 		.ascii	"_offset\000"
 2997      73657400 
 2998              	.LASF123:
 2999 0262 72785F74 		.ascii	"rx_timeout\000"
 2999      696D656F 
 2999      757400
 3000              	.LASF110:
 3001 026d 5F6D6273 		.ascii	"_mbsrtowcs_state\000"
 3001      72746F77 
 3001      63735F73 
 3001      74617465 
 3001      00
 3002              	.LASF108:
 3003 027e 5F6D6272 		.ascii	"_mbrlen_state\000"
 3003      6C656E5F 
 3003      73746174 
 3003      6500
 3004              	.LASF38:
 3005 028c 5F666E61 		.ascii	"_fnargs\000"
 3005      72677300 
 3006              	.LASF140:
 3007 0294 625F696E 		.ascii	"b_ind\000"
 3007      6400
 3008              	.LASF44:
 3009 029a 5F666E73 		.ascii	"_fns\000"
 3009      00
 3010              	.LASF138:
 3011 029f 7061636B 		.ascii	"packet_send_packet\000"
 3011      65745F73 
 3011      656E645F 
 3011      7061636B 
 3011      657400
 3012              	.LASF24:
 3013 02b2 5F736967 		.ascii	"_sign\000"
 3013      6E00
 3014              	.LASF19:
 3015 02b8 5F666C6F 		.ascii	"_flock_t\000"
 3015      636B5F74 
 3015      00
 3016              	.LASF69:
 3017 02c1 5F737464 		.ascii	"_stderr\000"
 3017      65727200 
 3018              	.LASF26:
 3019 02c9 5F426967 		.ascii	"_Bigint\000"
 3019      696E7400 
 3020              	.LASF99:
 3021 02d1 5F67616D 		.ascii	"_gamma_signgam\000"
 3021      6D615F73 
 3021      69676E67 
ARM GAS  /tmp/ccUSLiGn.s 			page 56


 3021      616D00
 3022              	.LASF53:
 3023 02e0 5F726561 		.ascii	"_read\000"
 3023      6400
 3024              	.LASF77:
 3025 02e6 5F726573 		.ascii	"_result_k\000"
 3025      756C745F 
 3025      6B00
 3026              	.LASF27:
 3027 02f0 5F5F746D 		.ascii	"__tm\000"
 3027      00
 3028              	.LASF143:
 3029 02f5 705F6675 		.ascii	"p_func\000"
 3029      6E6300
 3030              	.LASF0:
 3031 02fc 756E7369 		.ascii	"unsigned int\000"
 3031      676E6564 
 3031      20696E74 
 3031      00
 3032              	.LASF15:
 3033 0309 5F5F7763 		.ascii	"__wchb\000"
 3033      686200
 3034              	.LASF125:
 3035 0310 70726F63 		.ascii	"process_func\000"
 3035      6573735F 
 3035      66756E63 
 3035      00
 3036              	.LASF68:
 3037 031d 5F737464 		.ascii	"_stdout\000"
 3037      6F757400 
 3038              	.LASF80:
 3039 0325 5F637674 		.ascii	"_cvtlen\000"
 3039      6C656E00 
 3040              	.LASF6:
 3041 032d 6C6F6E67 		.ascii	"long unsigned int\000"
 3041      20756E73 
 3041      69676E65 
 3041      6420696E 
 3041      7400
 3042              	.LASF50:
 3043 033f 5F66696C 		.ascii	"_file\000"
 3043      6500
 3044              	.LASF89:
 3045 0345 5F6E696F 		.ascii	"_niobs\000"
 3045      627300
 3046              	.LASF139:
 3047 034c 64617461 		.ascii	"data\000"
 3047      00
 3048              	.LASF4:
 3049 0351 73686F72 		.ascii	"short unsigned int\000"
 3049      7420756E 
 3049      7369676E 
 3049      65642069 
 3049      6E7400
 3050              	.LASF83:
 3051 0364 5F617465 		.ascii	"_atexit0\000"
 3051      78697430 
ARM GAS  /tmp/ccUSLiGn.s 			page 57


 3051      00
 3052              	.LASF106:
 3053 036d 5F736967 		.ascii	"_signal_buf\000"
 3053      6E616C5F 
 3053      62756600 
 3054              	.LASF97:
 3055 0379 5F617363 		.ascii	"_asctime_buf\000"
 3055      74696D65 
 3055      5F627566 
 3055      00
 3056              	.LASF76:
 3057 0386 5F726573 		.ascii	"_result\000"
 3057      756C7400 
 3058              	.LASF14:
 3059 038e 5F5F7763 		.ascii	"__wch\000"
 3059      6800
 3060              	.LASF148:
 3061 0394 6D656D63 		.ascii	"memcpy\000"
 3061      707900
 3062              	.LASF10:
 3063 039b 5F4C4F43 		.ascii	"_LOCK_T\000"
 3063      4B5F5400 
 3064              	.LASF13:
 3065 03a3 77696E74 		.ascii	"wint_t\000"
 3065      5F7400
 3066              	.LASF149:
 3067 03aa 5F5F6275 		.ascii	"__builtin_memcpy\000"
 3067      696C7469 
 3067      6E5F6D65 
 3067      6D637079 
 3067      00
 3068              	.LASF62:
 3069 03bb 5F6C6F63 		.ascii	"_lock\000"
 3069      6B00
 3070              	.LASF130:
 3071 03c1 6372635F 		.ascii	"crc_low\000"
 3071      6C6F7700 
 3072              	.LASF64:
 3073 03c9 5F666C61 		.ascii	"_flags2\000"
 3073      67733200 
 3074              	.LASF141:
 3075 03d1 7061636B 		.ascii	"packet_init\000"
 3075      65745F69 
 3075      6E697400 
 3076              	.LASF54:
 3077 03dd 5F777269 		.ascii	"_write\000"
 3077      746500
 3078              	.LASF33:
 3079 03e4 5F5F746D 		.ascii	"__tm_year\000"
 3079      5F796561 
 3079      7200
 3080              	.LASF122:
 3081 03ee 72785F73 		.ascii	"rx_state\000"
 3081      74617465 
 3081      00
 3082              	.LASF72:
 3083 03f7 5F756E73 		.ascii	"_unspecified_locale_info\000"
ARM GAS  /tmp/ccUSLiGn.s 			page 58


 3083      70656369 
 3083      66696564 
 3083      5F6C6F63 
 3083      616C655F 
 3084              	.LASF114:
 3085 0410 5F6E6578 		.ascii	"_nextf\000"
 3085      746600
 3086              	.LASF32:
 3087 0417 5F5F746D 		.ascii	"__tm_mon\000"
 3087      5F6D6F6E 
 3087      00
 3088              	.LASF42:
 3089 0420 5F617465 		.ascii	"_atexit\000"
 3089      78697400 
 3090              	.LASF74:
 3091 0428 5F5F7364 		.ascii	"__sdidinit\000"
 3091      6964696E 
 3091      697400
 3092              	.LASF11:
 3093 0433 5F6F6666 		.ascii	"_off_t\000"
 3093      5F7400
 3094              	.LASF126:
 3095 043a 7061796C 		.ascii	"payload_length\000"
 3095      6F61645F 
 3095      6C656E67 
 3095      746800
 3096              	.LASF79:
 3097 0449 5F667265 		.ascii	"_freelist\000"
 3097      656C6973 
 3097      7400
 3098              	.LASF134:
 3099 0453 68616E64 		.ascii	"handler_num\000"
 3099      6C65725F 
 3099      6E756D00 
 3100              	.LASF135:
 3101 045f 7061636B 		.ascii	"packet_process_byte\000"
 3101      65745F70 
 3101      726F6365 
 3101      73735F62 
 3101      79746500 
 3102              	.LASF133:
 3103 0473 72785F64 		.ascii	"rx_data\000"
 3103      61746100 
 3104              	.LASF104:
 3105 047b 5F776374 		.ascii	"_wctomb_state\000"
 3105      6F6D625F 
 3105      73746174 
 3105      6500
 3106              	.LASF127:
 3107 0489 72785F62 		.ascii	"rx_buffer\000"
 3107      75666665 
 3107      7200
 3108              	.LASF2:
 3109 0493 756E7369 		.ascii	"unsigned char\000"
 3109      676E6564 
 3109      20636861 
 3109      7200
ARM GAS  /tmp/ccUSLiGn.s 			page 59


 3110              	.LASF82:
 3111 04a1 5F6E6577 		.ascii	"_new\000"
 3111      00
 3112              	.LASF113:
 3113 04a6 5F685F65 		.ascii	"_h_errno\000"
 3113      72726E6F 
 3113      00
 3114              	.LASF3:
 3115 04af 73686F72 		.ascii	"short int\000"
 3115      7420696E 
 3115      7400
 3116              	.LASF35:
 3117 04b9 5F5F746D 		.ascii	"__tm_yday\000"
 3117      5F796461 
 3117      7900
 3118              	.LASF45:
 3119 04c3 5F5F7362 		.ascii	"__sbuf\000"
 3119      756600
 3120              	.LASF90:
 3121 04ca 5F696F62 		.ascii	"_iobs\000"
 3121      7300
 3122              	.LASF87:
 3123 04d0 5F5F4649 		.ascii	"__FILE\000"
 3123      4C4500
 3124              	.LASF18:
 3125 04d7 5F6D6273 		.ascii	"_mbstate_t\000"
 3125      74617465 
 3125      5F7400
 3126              	.LASF48:
 3127 04e2 5F5F7346 		.ascii	"__sFILE\000"
 3127      494C4500 
 3128              	.LASF63:
 3129 04ea 5F6D6273 		.ascii	"_mbstate\000"
 3129      74617465 
 3129      00
 3130              	.LASF100:
 3131 04f3 5F72616E 		.ascii	"_rand_next\000"
 3131      645F6E65 
 3131      787400
 3132              	.LASF102:
 3133 04fe 5F6D626C 		.ascii	"_mblen_state\000"
 3133      656E5F73 
 3133      74617465 
 3133      00
 3134              	.LASF70:
 3135 050b 5F696E63 		.ascii	"_inc\000"
 3135      00
 3136              	.LASF43:
 3137 0510 5F696E64 		.ascii	"_ind\000"
 3137      00
 3138              	.LASF145:
 3139 0515 7061636B 		.ascii	"packet.c\000"
 3139      65742E63 
 3139      00
 3140              	.LASF73:
 3141 051e 5F6C6F63 		.ascii	"_locale\000"
 3141      616C6500 
ARM GAS  /tmp/ccUSLiGn.s 			page 60


 3142              	.LASF75:
 3143 0526 5F5F636C 		.ascii	"__cleanup\000"
 3143      65616E75 
 3143      7000
 3144              	.LASF146:
 3145 0530 2F686F6D 		.ascii	"/home/renan/BLDC/bldc-firmware\000"
 3145      652F7265 
 3145      6E616E2F 
 3145      424C4443 
 3145      2F626C64 
 3146              	.LASF23:
 3147 054f 5F6D6178 		.ascii	"_maxwds\000"
 3147      77647300 
 3148              	.LASF65:
 3149 0557 5F726565 		.ascii	"_reent\000"
 3149      6E7400
 3150              	.LASF129:
 3151 055e 72785F64 		.ascii	"rx_data_ptr\000"
 3151      6174615F 
 3151      70747200 
 3152              	.LASF92:
 3153 056a 5F736565 		.ascii	"_seed\000"
 3153      6400
 3154              	.LASF16:
 3155 0570 5F5F636F 		.ascii	"__count\000"
 3155      756E7400 
 3156              	.LASF117:
 3157 0578 5F5F6C6F 		.ascii	"__lock\000"
 3157      636B00
 3158              	.LASF17:
 3159 057f 5F5F7661 		.ascii	"__value\000"
 3159      6C756500 
 3160              	.LASF55:
 3161 0587 5F736565 		.ascii	"_seek\000"
 3161      6B00
 3162              	.LASF119:
 3163 058d 5F696D70 		.ascii	"_impure_ptr\000"
 3163      7572655F 
 3163      70747200 
 3164              	.LASF12:
 3165 0599 5F66706F 		.ascii	"_fpos_t\000"
 3165      735F7400 
 3166              	.LASF131:
 3167 05a1 6372635F 		.ascii	"crc_high\000"
 3167      68696768 
 3167      00
 3168              	.LASF66:
 3169 05aa 5F657272 		.ascii	"_errno\000"
 3169      6E6F00
 3170              	.LASF20:
 3171 05b1 63686172 		.ascii	"char\000"
 3171      00
 3172              	.LASF29:
 3173 05b6 5F5F746D 		.ascii	"__tm_min\000"
 3173      5F6D696E 
 3173      00
 3174              	.LASF137:
ARM GAS  /tmp/ccUSLiGn.s 			page 61


 3175 05bf 68616E64 		.ascii	"handler_states\000"
 3175      6C65725F 
 3175      73746174 
 3175      657300
 3176              	.LASF147:
 3177 05ce 63726331 		.ascii	"crc16\000"
 3177      3600
 3178              	.LASF121:
 3179 05d4 75696E74 		.ascii	"uint8_t\000"
 3179      385F7400 
 3180              	.LASF93:
 3181 05dc 5F6D756C 		.ascii	"_mult\000"
 3181      7400
 3182              	.LASF22:
 3183 05e2 5F6E6578 		.ascii	"_next\000"
 3183      7400
 3184              	.LASF96:
 3185 05e8 5F737472 		.ascii	"_strtok_last\000"
 3185      746F6B5F 
 3185      6C617374 
 3185      00
 3186              	.LASF40:
 3187 05f5 5F666E74 		.ascii	"_fntypes\000"
 3187      79706573 
 3187      00
 3188              	.LASF94:
 3189 05fe 5F616464 		.ascii	"_add\000"
 3189      00
 3190              	.LASF21:
 3191 0603 5F5F554C 		.ascii	"__ULong\000"
 3191      6F6E6700 
 3192              	.LASF107:
 3193 060b 5F676574 		.ascii	"_getdate_err\000"
 3193      64617465 
 3193      5F657272 
 3193      00
 3194              	.LASF120:
 3195 0618 5F676C6F 		.ascii	"_global_impure_ptr\000"
 3195      62616C5F 
 3195      696D7075 
 3195      72655F70 
 3195      747200
 3196              	.LASF128:
 3197 062b 74785F62 		.ascii	"tx_buffer\000"
 3197      75666665 
 3197      7200
 3198              	.LASF95:
 3199 0635 5F756E75 		.ascii	"_unused_rand\000"
 3199      7365645F 
 3199      72616E64 
 3199      00
 3200              	.LASF25:
 3201 0642 5F776473 		.ascii	"_wds\000"
 3201      00
 3202              	.LASF34:
 3203 0647 5F5F746D 		.ascii	"__tm_wday\000"
 3203      5F776461 
ARM GAS  /tmp/ccUSLiGn.s 			page 62


 3203      7900
 3204              	.LASF88:
 3205 0651 5F676C75 		.ascii	"_glue\000"
 3205      6500
 3206              	.LASF115:
 3207 0657 5F6E6D61 		.ascii	"_nmalloc\000"
 3207      6C6C6F63 
 3207      00
 3208              	.LASF105:
 3209 0660 5F6C3634 		.ascii	"_l64a_buf\000"
 3209      615F6275 
 3209      6600
 3210              	.LASF84:
 3211 066a 5F736967 		.ascii	"_sig_func\000"
 3211      5F66756E 
 3211      6300
 3212              	.LASF58:
 3213 0674 5F6E6275 		.ascii	"_nbuf\000"
 3213      6600
 3214              	.LASF116:
 3215 067a 5F756E75 		.ascii	"_unused\000"
 3215      73656400 
 3216              	.LASF36:
 3217 0682 5F5F746D 		.ascii	"__tm_isdst\000"
 3217      5F697364 
 3217      737400
 3218              	.LASF98:
 3219 068d 5F6C6F63 		.ascii	"_localtime_buf\000"
 3219      616C7469 
 3219      6D655F62 
 3219      756600
 3220              	.LASF56:
 3221 069c 5F636C6F 		.ascii	"_close\000"
 3221      736500
 3222              	.LASF101:
 3223 06a3 5F723438 		.ascii	"_r48\000"
 3223      00
 3224              	.LASF132:
 3225 06a8 5041434B 		.ascii	"PACKET_STATE_t\000"
 3225      45545F53 
 3225      54415445 
 3225      5F7400
 3226              	.LASF103:
 3227 06b7 5F6D6274 		.ascii	"_mbtowc_state\000"
 3227      6F77635F 
 3227      73746174 
 3227      6500
 3228              	.LASF78:
 3229 06c5 5F703573 		.ascii	"_p5s\000"
 3229      00
 3230              	.LASF31:
 3231 06ca 5F5F746D 		.ascii	"__tm_mday\000"
 3231      5F6D6461 
 3231      7900
 3232              	.LASF142:
 3233 06d4 735F6675 		.ascii	"s_func\000"
 3233      6E6300
ARM GAS  /tmp/ccUSLiGn.s 			page 63


 3234              		.ident	"GCC: (GNU Tools for Arm Embedded Processors 7-2018-q3-update) 7.3.1 20180622 (release) [AR
ARM GAS  /tmp/ccUSLiGn.s 			page 64


DEFINED SYMBOLS
                            *ABS*:0000000000000000 packet.c
     /tmp/ccUSLiGn.s:18     .text.packet_init:0000000000000000 $t
     /tmp/ccUSLiGn.s:26     .text.packet_init:0000000000000000 packet_init
     /tmp/ccUSLiGn.s:47     .text.packet_init:0000000000000010 $d
     /tmp/ccUSLiGn.s:535    .bss.handler_states:0000000000000000 handler_states
     /tmp/ccUSLiGn.s:52     .text.packet_send_packet:0000000000000000 $t
     /tmp/ccUSLiGn.s:60     .text.packet_send_packet:0000000000000000 packet_send_packet
     /tmp/ccUSLiGn.s:197    .text.packet_send_packet:0000000000000088 $d
     /tmp/ccUSLiGn.s:202    .text.packet_timerfunc:0000000000000000 $t
     /tmp/ccUSLiGn.s:210    .text.packet_timerfunc:0000000000000000 packet_timerfunc
     /tmp/ccUSLiGn.s:264    .text.packet_timerfunc:000000000000003c $d
     /tmp/ccUSLiGn.s:270    .text.packet_process_byte:0000000000000000 $t
     /tmp/ccUSLiGn.s:278    .text.packet_process_byte:0000000000000000 packet_process_byte
     /tmp/ccUSLiGn.s:305    .text.packet_process_byte:0000000000000016 $d
     /tmp/ccUSLiGn.s:526    .text.packet_process_byte:0000000000000138 $d
     /tmp/ccUSLiGn.s:532    .bss.handler_states:0000000000000000 $d
     /tmp/ccUSLiGn.s:312    .text.packet_process_byte:000000000000001d $d
     /tmp/ccUSLiGn.s:312    .text.packet_process_byte:000000000000001e $t

UNDEFINED SYMBOLS
memcpy
crc16
