ARM GAS  /tmp/ccUSLiGn.s 			page 1


   1              		.cpu cortex-m4
   2              		.eabi_attribute 27, 1
   3              		.eabi_attribute 28, 1
   4              		.eabi_attribute 20, 1
   5              		.eabi_attribute 21, 1
   6              		.eabi_attribute 23, 3
   7              		.eabi_attribute 24, 1
   8              		.eabi_attribute 25, 1
   9              		.eabi_attribute 26, 1
  10              		.eabi_attribute 30, 2
  11              		.eabi_attribute 34, 1
  12              		.eabi_attribute 18, 4
  13              		.file	"packet.c"
  14              		.text
  15              	.Ltext0:
  16              		.cfi_sections	.debug_frame
  17              		.section	.text.packet_init,"ax",%progbits
  18              		.align	1
  19              		.p2align 4,,15
  20              		.global	packet_init
  21              		.syntax unified
  22              		.thumb
  23              		.thumb_func
  24              		.fpu fpv4-sp-d16
  25              		.type	packet_init, %function
  26              	packet_init:
  27              	.LFB0:
  28              		.file 1 "packet.c"
  29              		.loc 1 40 0
  30              		.cfi_startproc
  31              		@ args = 0, pretend = 0, frame = 0
  32              		@ frame_needed = 0, uses_anonymous_args = 0
  33              		@ link register save eliminated.
  34              	.LVL0:
  35              		.loc 1 41 0
  36 0000 034B     		ldr	r3, .L3
  37 0002 02EB8212 		add	r2, r2, r2, lsl #6
  38              	.LVL1:
  39 0006 03EB4212 		add	r2, r3, r2, lsl #5
  40              		.loc 1 42 0
  41 000a C2E90101 		strd	r0, r1, [r2, #4]
  42              		.loc 1 43 0
  43 000e 7047     		bx	lr
  44              	.L4:
  45              		.align	2
  46              	.L3:
  47 0010 00000000 		.word	handler_states
  48              		.cfi_endproc
  49              	.LFE0:
  50              		.size	packet_init, .-packet_init
  51              		.section	.text.packet_send_packet,"ax",%progbits
  52              		.align	1
  53              		.p2align 4,,15
  54              		.global	packet_send_packet
  55              		.syntax unified
  56              		.thumb
  57              		.thumb_func
ARM GAS  /tmp/ccUSLiGn.s 			page 2


  58              		.fpu fpv4-sp-d16
  59              		.type	packet_send_packet, %function
  60              	packet_send_packet:
  61              	.LFB1:
  62              		.loc 1 45 0
  63              		.cfi_startproc
  64              		@ args = 0, pretend = 0, frame = 0
  65              		@ frame_needed = 0, uses_anonymous_args = 0
  66              	.LVL2:
  67              		.loc 1 46 0
  68 0000 B1F5806F 		cmp	r1, #1024
  69 0004 3ED8     		bhi	.L15
  70              	.LVL3:
  71              		.loc 1 45 0
  72 0006 2DE9F047 		push	{r4, r5, r6, r7, r8, r9, r10, lr}
  73              		.cfi_def_cfa_offset 32
  74              		.cfi_offset 4, -32
  75              		.cfi_offset 5, -28
  76              		.cfi_offset 6, -24
  77              		.cfi_offset 7, -20
  78              		.cfi_offset 8, -16
  79              		.cfi_offset 9, -12
  80              		.cfi_offset 10, -8
  81              		.cfi_offset 14, -4
  82              		.loc 1 53 0
  83 000a 9301     		lsls	r3, r2, #6
  84 000c 1E4E     		ldr	r6, .L19
  85 000e 9C18     		adds	r4, r3, r2
  86              		.loc 1 52 0
  87 0010 B1F5807F 		cmp	r1, #256
  88 0014 5FFA81FC 		uxtb	ip, r1
  89              		.loc 1 53 0
  90 0018 06EB4414 		add	r4, r6, r4, lsl #5
  91              		.loc 1 52 0
  92 001c 2AD9     		bls	.L18
  93              	.LVL4:
  94              		.loc 1 57 0
  95 001e 0D0A     		lsrs	r5, r1, #8
  96              		.loc 1 56 0
  97 0020 0327     		movs	r7, #3
  98              		.loc 1 58 0
  99 0022 84F812C4 		strb	ip, [r4, #1042]
 100              		.loc 1 57 0
 101 0026 84F81154 		strb	r5, [r4, #1041]
 102              		.loc 1 56 0
 103 002a 84F81074 		strb	r7, [r4, #1040]
 104              	.LVL5:
 105              	.L9:
 106              		.loc 1 61 0
 107 002e 9C18     		adds	r4, r3, r2
 108 0030 6401     		lsls	r4, r4, #5
 109 0032 04F58269 		add	r9, r4, #1040
 110 0036 8046     		mov	r8, r0
 111 0038 B144     		add	r9, r9, r6
 112 003a 0A46     		mov	r2, r1
 113              	.LVL6:
 114 003c 0D46     		mov	r5, r1
ARM GAS  /tmp/ccUSLiGn.s 			page 3


 115 003e 09EB0700 		add	r0, r9, r7
 116              	.LVL7:
 117 0042 4146     		mov	r1, r8
 118              	.LVL8:
 119 0044 FFF7FEFF 		bl	memcpy
 120              	.LVL9:
 121              		.loc 1 64 0
 122 0048 2946     		mov	r1, r5
 123 004a 4046     		mov	r0, r8
 124 004c FFF7FEFF 		bl	crc16
 125              	.LVL10:
 126              		.loc 1 65 0
 127 0050 3444     		add	r4, r4, r6
 128              		.loc 1 62 0
 129 0052 E919     		adds	r1, r5, r7
 130              	.LVL11:
 131              		.loc 1 65 0
 132 0054 6318     		adds	r3, r4, r1
 133              		.loc 1 69 0
 134 0056 6268     		ldr	r2, [r4, #4]
 135              		.loc 1 66 0
 136 0058 83F81104 		strb	r0, [r3, #1041]
 137              		.loc 1 67 0
 138 005c 0324     		movs	r4, #3
 139              		.loc 1 65 0
 140 005e 000A     		lsrs	r0, r0, #8
 141              	.LVL12:
 142 0060 83F81004 		strb	r0, [r3, #1040]
 143              	.LVL13:
 144              		.loc 1 67 0
 145 0064 2144     		add	r1, r1, r4
 146              	.LVL14:
 147 0066 83F81244 		strb	r4, [r3, #1042]
 148              		.loc 1 69 0
 149 006a 4AB1     		cbz	r2, .L5
 150              		.loc 1 70 0
 151 006c 4846     		mov	r0, r9
 152              		.loc 1 72 0
 153 006e BDE8F047 		pop	{r4, r5, r6, r7, r8, r9, r10, lr}
 154              		.cfi_remember_state
 155              		.cfi_restore 14
 156              		.cfi_restore 10
 157              		.cfi_restore 9
 158              		.cfi_restore 8
 159              		.cfi_restore 7
 160              		.cfi_restore 6
 161              		.cfi_restore 5
 162              		.cfi_restore 4
 163              		.cfi_def_cfa_offset 0
 164              	.LVL15:
 165              		.loc 1 70 0
 166 0072 1047     		bx	r2	@ indirect register sibling call
 167              	.LVL16:
 168              	.L18:
 169              		.cfi_restore_state
 170              		.loc 1 53 0
 171 0074 0227     		movs	r7, #2
ARM GAS  /tmp/ccUSLiGn.s 			page 4


 172              		.loc 1 54 0
 173 0076 84F811C4 		strb	ip, [r4, #1041]
 174              		.loc 1 53 0
 175 007a 84F81074 		strb	r7, [r4, #1040]
 176              	.LVL17:
 177 007e D6E7     		b	.L9
 178              	.LVL18:
 179              	.L5:
 180              		.loc 1 72 0
 181 0080 BDE8F087 		pop	{r4, r5, r6, r7, r8, r9, r10, pc}
 182              	.LVL19:
 183              	.L15:
 184              		.cfi_def_cfa_offset 0
 185              		.cfi_restore 4
 186              		.cfi_restore 5
 187              		.cfi_restore 6
 188              		.cfi_restore 7
 189              		.cfi_restore 8
 190              		.cfi_restore 9
 191              		.cfi_restore 10
 192              		.cfi_restore 14
 193 0084 7047     		bx	lr
 194              	.L20:
 195 0086 00BF     		.align	2
 196              	.L19:
 197 0088 00000000 		.word	handler_states
 198              		.cfi_endproc
 199              	.LFE1:
 200              		.size	packet_send_packet, .-packet_send_packet
 201              		.section	.text.packet_timerfunc,"ax",%progbits
 202              		.align	1
 203              		.p2align 4,,15
 204              		.global	packet_timerfunc
 205              		.syntax unified
 206              		.thumb
 207              		.thumb_func
 208              		.fpu fpv4-sp-d16
 209              		.type	packet_timerfunc, %function
 210              	packet_timerfunc:
 211              	.LFB2:
 212              		.loc 1 77 0
 213              		.cfi_startproc
 214              		@ args = 0, pretend = 0, frame = 0
 215              		@ frame_needed = 0, uses_anonymous_args = 0
 216              		@ link register save eliminated.
 217              	.LVL20:
 218              	.LBB2:
 219              		.loc 1 79 0
 220 0000 0E4B     		ldr	r3, .L27
 221 0002 5A88     		ldrh	r2, [r3, #2]
 222 0004 92B2     		uxth	r2, r2
 223 0006 72B9     		cbnz	r2, .L22
 224              	.LVL21:
 225              		.loc 1 82 0
 226 0008 1A70     		strb	r2, [r3]
 227              		.loc 1 79 0
 228 000a B3F82228 		ldrh	r2, [r3, #2082]
ARM GAS  /tmp/ccUSLiGn.s 			page 5


 229 000e 92B2     		uxth	r2, r2
 230 0010 32B1     		cbz	r2, .L26
 231              	.L24:
 232              		.loc 1 80 0
 233 0012 B3F82228 		ldrh	r2, [r3, #2082]
 234 0016 013A     		subs	r2, r2, #1
 235 0018 92B2     		uxth	r2, r2
 236 001a A3F82228 		strh	r2, [r3, #2082]	@ movhi
 237              	.LVL22:
 238              	.LBE2:
 239              		.loc 1 85 0
 240 001e 7047     		bx	lr
 241              	.LVL23:
 242              	.L26:
 243              	.LBB3:
 244              		.loc 1 82 0
 245 0020 83F82028 		strb	r2, [r3, #2080]
 246 0024 7047     		bx	lr
 247              	.LVL24:
 248              	.L22:
 249              		.loc 1 80 0
 250 0026 5A88     		ldrh	r2, [r3, #2]
 251 0028 013A     		subs	r2, r2, #1
 252 002a 92B2     		uxth	r2, r2
 253 002c 5A80     		strh	r2, [r3, #2]	@ movhi
 254              	.LVL25:
 255              		.loc 1 79 0
 256 002e B3F82228 		ldrh	r2, [r3, #2082]
 257 0032 92B2     		uxth	r2, r2
 258 0034 002A     		cmp	r2, #0
 259 0036 ECD1     		bne	.L24
 260 0038 F2E7     		b	.L26
 261              	.L28:
 262 003a 00BF     		.align	2
 263              	.L27:
 264 003c 00000000 		.word	handler_states
 265              	.LBE3:
 266              		.cfi_endproc
 267              	.LFE2:
 268              		.size	packet_timerfunc, .-packet_timerfunc
 269              		.section	.text.packet_process_byte,"ax",%progbits
 270              		.align	1
 271              		.p2align 4,,15
 272              		.global	packet_process_byte
 273              		.syntax unified
 274              		.thumb
 275              		.thumb_func
 276              		.fpu fpv4-sp-d16
 277              		.type	packet_process_byte, %function
 278              	packet_process_byte:
 279              	.LFB3:
 280              		.loc 1 87 0
 281              		.cfi_startproc
 282              		@ args = 0, pretend = 0, frame = 0
 283              		@ frame_needed = 0, uses_anonymous_args = 0
 284              	.LVL26:
 285 0000 2DE9F843 		push	{r3, r4, r5, r6, r7, r8, r9, lr}
ARM GAS  /tmp/ccUSLiGn.s 			page 6


 286              		.cfi_def_cfa_offset 32
 287              		.cfi_offset 3, -32
 288              		.cfi_offset 4, -28
 289              		.cfi_offset 5, -24
 290              		.cfi_offset 6, -20
 291              		.cfi_offset 7, -16
 292              		.cfi_offset 8, -12
 293              		.cfi_offset 9, -8
 294              		.cfi_offset 14, -4
 295              		.loc 1 88 0
 296 0004 8E01     		lsls	r6, r1, #6
 297 0006 7318     		adds	r3, r6, r1
 298 0008 5B01     		lsls	r3, r3, #5
 299 000a 4B4D     		ldr	r5, .L57
 300 000c EB5C     		ldrb	r3, [r5, r3]	@ zero_extendqisi2
 301 000e 062B     		cmp	r3, #6
 302 0010 63D8     		bhi	.L30
 303 0012 DFE803F0 		tbb	[pc, r3]
 304              	.L32:
 305 0016 0D       		.byte	(.L31-.L32)/2
 306 0017 18       		.byte	(.L33-.L32)/2
 307 0018 26       		.byte	(.L34-.L32)/2
 308 0019 39       		.byte	(.L35-.L32)/2
 309 001a 54       		.byte	(.L36-.L32)/2
 310 001b 5B       		.byte	(.L37-.L32)/2
 311 001c 04       		.byte	(.L38-.L32)/2
 312 001d 00       		.p2align 1
 313              	.L38:
 314              		.loc 1 145 0
 315 001e 0328     		cmp	r0, #3
 316 0020 0C46     		mov	r4, r1
 317 0022 6ED0     		beq	.L54
 318              	.LVL27:
 319              	.L45:
 320              		.loc 1 156 0
 321 0024 3444     		add	r4, r4, r6
 322              	.LVL28:
 323 0026 6401     		lsls	r4, r4, #5
 324 0028 0023     		movs	r3, #0
 325 002a 2B55     		strb	r3, [r5, r4]
 326              	.L29:
 327              		.loc 1 163 0
 328 002c BDE8F883 		pop	{r3, r4, r5, r6, r7, r8, r9, pc}
 329              	.LVL29:
 330              	.L31:
 331              		.loc 1 92 0
 332 0030 3144     		add	r1, r1, r6
 333              	.LVL30:
 334              		.loc 1 90 0
 335 0032 0228     		cmp	r0, #2
 336              		.loc 1 92 0
 337 0034 4FEA4111 		lsl	r1, r1, #5
 338              		.loc 1 90 0
 339 0038 52D0     		beq	.L55
 340              		.loc 1 96 0
 341 003a 0328     		cmp	r0, #3
 342 003c 5DD0     		beq	.L56
ARM GAS  /tmp/ccUSLiGn.s 			page 7


 343              	.LVL31:
 344              	.L52:
 345              		.loc 1 160 0
 346 003e 0023     		movs	r3, #0
 347 0040 6B54     		strb	r3, [r5, r1]
 348              		.loc 1 163 0
 349 0042 BDE8F883 		pop	{r3, r4, r5, r6, r7, r8, r9, pc}
 350              	.LVL32:
 351              	.L33:
 352              		.loc 1 108 0
 353 0046 3144     		add	r1, r1, r6
 354              	.LVL33:
 355 0048 4901     		lsls	r1, r1, #5
 356 004a 6A18     		adds	r2, r5, r1
 357              		.loc 1 109 0
 358 004c 6B5C     		ldrb	r3, [r5, r1]	@ zero_extendqisi2
 359 004e 0133     		adds	r3, r3, #1
 360 0050 DBB2     		uxtb	r3, r3
 361 0052 6B54     		strb	r3, [r5, r1]
 362              		.loc 1 108 0
 363 0054 0002     		lsls	r0, r0, #8
 364              	.LVL34:
 365              		.loc 1 110 0
 366 0056 4FF47A74 		mov	r4, #1000
 367              		.loc 1 108 0
 368 005a D060     		str	r0, [r2, #12]
 369              		.loc 1 110 0
 370 005c 5480     		strh	r4, [r2, #2]	@ movhi
 371              		.loc 1 163 0
 372 005e BDE8F883 		pop	{r3, r4, r5, r6, r7, r8, r9, pc}
 373              	.LVL35:
 374              	.L34:
 375              		.loc 1 114 0
 376 0062 3144     		add	r1, r1, r6
 377              	.LVL36:
 378 0064 4901     		lsls	r1, r1, #5
 379 0066 6A18     		adds	r2, r5, r1
 380 0068 D368     		ldr	r3, [r2, #12]
 381 006a 1843     		orrs	r0, r0, r3
 382              	.LVL37:
 383              		.loc 1 115 0
 384 006c 431E     		subs	r3, r0, #1
 385 006e B3F5806F 		cmp	r3, #1024
 386              		.loc 1 114 0
 387 0072 D060     		str	r0, [r2, #12]
 388              		.loc 1 115 0
 389 0074 E3D2     		bcs	.L52
 390              		.loc 1 117 0
 391 0076 6B5C     		ldrb	r3, [r5, r1]	@ zero_extendqisi2
 392              	.L53:
 393              		.loc 1 140 0
 394 0078 0133     		adds	r3, r3, #1
 395 007a DBB2     		uxtb	r3, r3
 396 007c 6B54     		strb	r3, [r5, r1]
 397              		.loc 1 141 0
 398 007e 4FF47A70 		mov	r0, #1000
 399 0082 5080     		strh	r0, [r2, #2]	@ movhi
ARM GAS  /tmp/ccUSLiGn.s 			page 8


 400              		.loc 1 163 0
 401 0084 BDE8F883 		pop	{r3, r4, r5, r6, r7, r8, r9, pc}
 402              	.LVL38:
 403              	.L35:
 404              		.loc 1 125 0
 405 0088 7418     		adds	r4, r6, r1
 406 008a 6401     		lsls	r4, r4, #5
 407 008c 2A19     		adds	r2, r5, r4
 408 008e D2F81838 		ldr	r3, [r2, #2072]
 409              		.loc 1 126 0
 410 0092 D768     		ldr	r7, [r2, #12]
 411              		.loc 1 125 0
 412 0094 02EB030C 		add	ip, r2, r3
 413 0098 0133     		adds	r3, r3, #1
 414              		.loc 1 126 0
 415 009a BB42     		cmp	r3, r7
 416              		.loc 1 125 0
 417 009c 8CF81000 		strb	r0, [ip, #16]
 418 00a0 C2F81838 		str	r3, [r2, #2072]
 419              		.loc 1 126 0
 420 00a4 03D1     		bne	.L43
 421              		.loc 1 127 0
 422 00a6 2B5D     		ldrb	r3, [r5, r4]	@ zero_extendqisi2
 423 00a8 0133     		adds	r3, r3, #1
 424 00aa DBB2     		uxtb	r3, r3
 425 00ac 2B55     		strb	r3, [r5, r4]
 426              	.L43:
 427              		.loc 1 129 0
 428 00ae 3144     		add	r1, r1, r6
 429              	.LVL39:
 430 00b0 05EB4115 		add	r5, r5, r1, lsl #5
 431 00b4 4FF47A73 		mov	r3, #1000
 432 00b8 6B80     		strh	r3, [r5, #2]	@ movhi
 433              		.loc 1 163 0
 434 00ba BDE8F883 		pop	{r3, r4, r5, r6, r7, r8, r9, pc}
 435              	.LVL40:
 436              	.L36:
 437              		.loc 1 133 0
 438 00be 3144     		add	r1, r1, r6
 439              	.LVL41:
 440 00c0 4901     		lsls	r1, r1, #5
 441 00c2 6A18     		adds	r2, r5, r1
 442              		.loc 1 134 0
 443 00c4 6B5C     		ldrb	r3, [r5, r1]	@ zero_extendqisi2
 444              		.loc 1 133 0
 445 00c6 82F81D08 		strb	r0, [r2, #2077]
 446 00ca D5E7     		b	.L53
 447              	.LVL42:
 448              	.L37:
 449              		.loc 1 139 0
 450 00cc 3144     		add	r1, r1, r6
 451              	.LVL43:
 452 00ce 4901     		lsls	r1, r1, #5
 453 00d0 6A18     		adds	r2, r5, r1
 454              		.loc 1 140 0
 455 00d2 6B5C     		ldrb	r3, [r5, r1]	@ zero_extendqisi2
 456              		.loc 1 139 0
ARM GAS  /tmp/ccUSLiGn.s 			page 9


 457 00d4 82F81C08 		strb	r0, [r2, #2076]
 458 00d8 CEE7     		b	.L53
 459              	.LVL44:
 460              	.L30:
 461              		.loc 1 160 0
 462 00da 3144     		add	r1, r1, r6
 463              	.LVL45:
 464 00dc 4901     		lsls	r1, r1, #5
 465 00de AEE7     		b	.L52
 466              	.L55:
 467              		.loc 1 92 0
 468 00e0 6B5C     		ldrb	r3, [r5, r1]	@ zero_extendqisi2
 469 00e2 6A18     		adds	r2, r5, r1
 470 00e4 0233     		adds	r3, r3, #2
 471              	.L51:
 472              		.loc 1 100 0
 473 00e6 0020     		movs	r0, #0
 474              	.LVL46:
 475              		.loc 1 98 0
 476 00e8 DBB2     		uxtb	r3, r3
 477              		.loc 1 99 0
 478 00ea 4FF47A74 		mov	r4, #1000
 479              		.loc 1 98 0
 480 00ee 6B54     		strb	r3, [r5, r1]
 481              		.loc 1 100 0
 482 00f0 C2F81808 		str	r0, [r2, #2072]
 483              		.loc 1 99 0
 484 00f4 5480     		strh	r4, [r2, #2]	@ movhi
 485              		.loc 1 101 0
 486 00f6 D060     		str	r0, [r2, #12]
 487 00f8 98E7     		b	.L29
 488              	.LVL47:
 489              	.L56:
 490              		.loc 1 98 0
 491 00fa 6B5C     		ldrb	r3, [r5, r1]	@ zero_extendqisi2
 492 00fc 6A18     		adds	r2, r5, r1
 493 00fe 0133     		adds	r3, r3, #1
 494 0100 F1E7     		b	.L51
 495              	.LVL48:
 496              	.L54:
 497 0102 7718     		adds	r7, r6, r1
 498 0104 7F01     		lsls	r7, r7, #5
 499              		.loc 1 146 0
 500 0106 07F11008 		add	r8, r7, #16
 501 010a 05EB0709 		add	r9, r5, r7
 502 010e A844     		add	r8, r8, r5
 503 0110 4046     		mov	r0, r8
 504              	.LVL49:
 505 0112 D9F80C10 		ldr	r1, [r9, #12]
 506              	.LVL50:
 507 0116 FFF7FEFF 		bl	crc16
 508              	.LVL51:
 509 011a 084B     		ldr	r3, .L57+4
 510 011c DB5B     		ldrh	r3, [r3, r7]
 511 011e 8342     		cmp	r3, r0
 512 0120 80D1     		bne	.L45
 513              		.loc 1 150 0
ARM GAS  /tmp/ccUSLiGn.s 			page 10


 514 0122 D9F80830 		ldr	r3, [r9, #8]
 515 0126 002B     		cmp	r3, #0
 516 0128 3FF47CAF 		beq	.L45
 517              		.loc 1 151 0
 518 012c D9F80C10 		ldr	r1, [r9, #12]
 519 0130 4046     		mov	r0, r8
 520 0132 9847     		blx	r3
 521              	.LVL52:
 522 0134 76E7     		b	.L45
 523              	.L58:
 524 0136 00BF     		.align	2
 525              	.L57:
 526 0138 00000000 		.word	handler_states
 527 013c 1C080000 		.word	handler_states+2076
 528              		.cfi_endproc
 529              	.LFE3:
 530              		.size	packet_process_byte, .-packet_process_byte
 531              		.section	.bss.handler_states,"aw",%nobits
 532              		.align	2
 533              		.type	handler_states, %object
 534              		.size	handler_states, 4160
 535              	handler_states:
 536 0000 00000000 		.space	4160
 536      00000000 
 536      00000000 
 536      00000000 
 536      00000000 
 537              		.text
 538              	.Letext0:
 539              		.file 2 "/usr/arm-none-eabi/include/machine/_default_types.h"
 540              		.file 3 "/usr/arm-none-eabi/include/sys/lock.h"
 541              		.file 4 "/usr/arm-none-eabi/include/sys/_types.h"
 542              		.file 5 "/usr/lib/gcc/arm-none-eabi/7.3.1/include/stddef.h"
 543              		.file 6 "/usr/arm-none-eabi/include/sys/reent.h"
 544              		.file 7 "/usr/arm-none-eabi/include/sys/_stdint.h"
 545              		.file 8 "crc.h"
 546              		.file 9 "<built-in>"