ARM GAS  /tmp/ccJgkGhr.s 			page 1


   1              		.cpu cortex-m4
   2              		.eabi_attribute 27, 1
   3              		.eabi_attribute 28, 1
   4              		.eabi_attribute 20, 1
   5              		.eabi_attribute 21, 1
   6              		.eabi_attribute 23, 3
   7              		.eabi_attribute 24, 1
   8              		.eabi_attribute 25, 1
   9              		.eabi_attribute 26, 1
  10              		.eabi_attribute 30, 2
  11              		.eabi_attribute 34, 1
  12              		.eabi_attribute 18, 4
  13              		.file	"serial_usb.c"
  14              		.text
  15              	.Ltext0:
  16              		.cfi_sections	.debug_frame
  17              		.section	.text.onotify,"ax",%progbits
  18              		.align	1
  19              		.p2align 4,,15
  20              		.syntax unified
  21              		.thumb
  22              		.thumb_func
  23              		.fpu fpv4-sp-d16
  24              		.type	onotify, %function
  25              	onotify:
  26              	.LFB265:
  27              		.file 1 "ChibiOS_3.0.2/os/hal/src/serial_usb.c"
  28              		.loc 1 144 0
  29              		.cfi_startproc
  30              		@ args = 0, pretend = 0, frame = 0
  31              		@ frame_needed = 0, uses_anonymous_args = 0
  32              	.LVL0:
  33 0000 10B5     		push	{r4, lr}
  34              		.cfi_def_cfa_offset 8
  35              		.cfi_offset 4, -8
  36              		.cfi_offset 14, -4
  37              		.loc 1 146 0
  38 0002 046A     		ldr	r4, [r0, #32]
  39              	.LVL1:
  40              		.loc 1 150 0
  41 0004 D4F85422 		ldr	r2, [r4, #596]
  42 0008 1368     		ldr	r3, [r2]
  43 000a 1978     		ldrb	r1, [r3]	@ zero_extendqisi2
  44 000c 0429     		cmp	r1, #4
  45 000e 00D0     		beq	.L8
  46              	.LVL2:
  47              	.L1:
  48              		.loc 1 169 0
  49 0010 10BD     		pop	{r4, pc}
  50              	.LVL3:
  51              	.L8:
  52              		.loc 1 150 0 discriminator 1
  53 0012 217A     		ldrb	r1, [r4, #8]	@ zero_extendqisi2
  54 0014 0229     		cmp	r1, #2
  55 0016 FBD1     		bne	.L1
  56              		.loc 1 157 0
  57 0018 1179     		ldrb	r1, [r2, #4]	@ zero_extendqisi2
ARM GAS  /tmp/ccJgkGhr.s 			page 2


  58 001a 1A89     		ldrh	r2, [r3, #8]
  59 001c 0123     		movs	r3, #1
  60 001e 8B40     		lsls	r3, r3, r1
  61 0020 1A40     		ands	r2, r3, r2
  62 0022 F5D1     		bne	.L1
  63              	.LBB200:
  64              	.LBB201:
  65              		.file 2 "ChibiOS_3.0.2/os/rt/include/chqueues.h"
  66              		.loc 2 357 0
  67 0024 D4E90F03 		ldrd	r0, r3, [r4, #60]
  68              	.LVL4:
  69 0028 A16B     		ldr	r1, [r4, #56]
  70 002a 1B1A     		subs	r3, r3, r0
  71              	.LBE201:
  72              	.LBE200:
  73              		.loc 1 158 0
  74 002c 5B1A     		subs	r3, r3, r1
  75 002e EFD0     		beq	.L1
  76              	.LVL5:
  77              	.LBB202:
  78              	.LBB203:
  79              	.LBB204:
  80              	.LBB205:
  81              	.LBB206:
  82              	.LBB207:
  83              		.file 3 "ChibiOS_3.0.2/os/ext/CMSIS/include/core_cmFunc.h"
  84              		.loc 3 546 0
  85              		.syntax unified
  86              	@ 546 "ChibiOS_3.0.2/os/ext/CMSIS/include/core_cmFunc.h" 1
  87 0030 82F31188 		MSR basepri, r2
  88              	@ 0 "" 2
  89              	.LVL6:
  90              		.thumb
  91              		.syntax unified
  92              	.LBE207:
  93              	.LBE206:
  94              	.LBE205:
  95              	.LBE204:
  96              	.LBE203:
  97              	.LBE202:
  98              		.loc 1 161 0
  99 0034 D4F85422 		ldr	r2, [r4, #596]
 100 0038 1179     		ldrb	r1, [r2, #4]	@ zero_extendqisi2
 101 003a 1068     		ldr	r0, [r2]
 102 003c 04F13002 		add	r2, r4, #48
 103 0040 FFF7FEFF 		bl	usbPrepareQueuedTransmit
 104              	.LVL7:
 105              	.LBB208:
 106              	.LBB209:
 107              	.LBB210:
 108              	.LBB211:
 109              	.LBB212:
 110              		.loc 3 546 0
 111 0044 2023     		movs	r3, #32
 112              		.syntax unified
 113              	@ 546 "ChibiOS_3.0.2/os/ext/CMSIS/include/core_cmFunc.h" 1
 114 0046 83F31188 		MSR basepri, r3
ARM GAS  /tmp/ccJgkGhr.s 			page 3


 115              	@ 0 "" 2
 116              	.LVL8:
 117              		.thumb
 118              		.syntax unified
 119              	.LBE212:
 120              	.LBE211:
 121              	.LBE210:
 122              	.LBE209:
 123              	.LBE208:
 124              		.loc 1 166 0
 125 004a D4F85432 		ldr	r3, [r4, #596]
 126              		.loc 1 169 0
 127 004e BDE81040 		pop	{r4, lr}
 128              		.cfi_restore 14
 129              		.cfi_restore 4
 130              		.cfi_def_cfa_offset 0
 131              	.LVL9:
 132              		.loc 1 166 0
 133 0052 1979     		ldrb	r1, [r3, #4]	@ zero_extendqisi2
 134 0054 1868     		ldr	r0, [r3]
 135 0056 FFF7FEBF 		b	usbStartTransmitI
 136              	.LVL10:
 137              		.cfi_endproc
 138              	.LFE265:
 139              		.size	onotify, .-onotify
 140 005a 00BF     		.section	.text.inotify,"ax",%progbits
 141              		.align	1
 142              		.p2align 4,,15
 143              		.syntax unified
 144              		.thumb
 145              		.thumb_func
 146              		.fpu fpv4-sp-d16
 147              		.type	inotify, %function
 148              	inotify:
 149              	.LFB264:
 150              		.loc 1 109 0
 151              		.cfi_startproc
 152              		@ args = 0, pretend = 0, frame = 0
 153              		@ frame_needed = 0, uses_anonymous_args = 0
 154              	.LVL11:
 155 0000 38B5     		push	{r3, r4, r5, lr}
 156              		.cfi_def_cfa_offset 16
 157              		.cfi_offset 3, -16
 158              		.cfi_offset 4, -12
 159              		.cfi_offset 5, -8
 160              		.cfi_offset 14, -4
 161              		.loc 1 111 0
 162 0002 046A     		ldr	r4, [r0, #32]
 163              	.LVL12:
 164              		.loc 1 115 0
 165 0004 D4F85422 		ldr	r2, [r4, #596]
 166 0008 1368     		ldr	r3, [r2]
 167 000a 1978     		ldrb	r1, [r3]	@ zero_extendqisi2
 168 000c 0429     		cmp	r1, #4
 169 000e 00D0     		beq	.L12
 170              	.LVL13:
 171              	.L9:
ARM GAS  /tmp/ccJgkGhr.s 			page 4


 172              		.loc 1 137 0
 173 0010 38BD     		pop	{r3, r4, r5, pc}
 174              	.LVL14:
 175              	.L12:
 176              		.loc 1 115 0 discriminator 1
 177 0012 217A     		ldrb	r1, [r4, #8]	@ zero_extendqisi2
 178 0014 0229     		cmp	r1, #2
 179 0016 FBD1     		bne	.L9
 180              		.loc 1 123 0
 181 0018 5079     		ldrb	r0, [r2, #5]	@ zero_extendqisi2
 182              	.LVL15:
 183              		.loc 1 124 0
 184 001a 5989     		ldrh	r1, [r3, #10]
 185 001c 0122     		movs	r2, #1
 186 001e 8240     		lsls	r2, r2, r0
 187 0020 0A40     		ands	r2, r2, r1
 188 0022 F5D1     		bne	.L9
 189              		.loc 1 123 0
 190 0024 03EB8003 		add	r3, r3, r0, lsl #2
 191              	.LVL16:
 192              	.LBB213:
 193              	.LBB214:
 194              		.loc 2 290 0
 195 0028 A169     		ldr	r1, [r4, #24]
 196 002a E069     		ldr	r0, [r4, #28]
 197              	.LVL17:
 198              	.LBE214:
 199              	.LBE213:
 200              		.loc 1 123 0
 201 002c DB68     		ldr	r3, [r3, #12]
 202              	.LBB217:
 203              	.LBB215:
 204              		.loc 2 290 0
 205 002e 6569     		ldr	r5, [r4, #20]
 206              	.LBE215:
 207              	.LBE217:
 208              		.loc 1 123 0
 209 0030 5B8A     		ldrh	r3, [r3, #18]
 210              	.LVL18:
 211              	.LBB218:
 212              	.LBB216:
 213              		.loc 2 290 0
 214 0032 411A     		subs	r1, r0, r1
 215 0034 491B     		subs	r1, r1, r5
 216              	.LVL19:
 217              	.LBE216:
 218              	.LBE218:
 219              		.loc 1 125 0
 220 0036 8B42     		cmp	r3, r1
 221 0038 EAD8     		bhi	.L9
 222              	.LVL20:
 223              	.LBB219:
 224              	.LBB220:
 225              	.LBB221:
 226              	.LBB222:
 227              	.LBB223:
 228              	.LBB224:
ARM GAS  /tmp/ccJgkGhr.s 			page 5


 229              		.loc 3 546 0
 230              		.syntax unified
 231              	@ 546 "ChibiOS_3.0.2/os/ext/CMSIS/include/core_cmFunc.h" 1
 232 003a 82F31188 		MSR basepri, r2
 233              	@ 0 "" 2
 234              	.LVL21:
 235              		.thumb
 236              		.syntax unified
 237              	.LBE224:
 238              	.LBE223:
 239              	.LBE222:
 240              	.LBE221:
 241              	.LBE220:
 242              	.LBE219:
 243              		.loc 1 128 0
 244 003e B1FBF3F1 		udiv	r1, r1, r3
 245              	.LVL22:
 246              		.loc 1 129 0
 247 0042 D4F85422 		ldr	r2, [r4, #596]
 248 0046 03FB01F3 		mul	r3, r3, r1
 249              	.LVL23:
 250 004a 1068     		ldr	r0, [r2]
 251 004c 5179     		ldrb	r1, [r2, #5]	@ zero_extendqisi2
 252 004e 04F10C02 		add	r2, r4, #12
 253 0052 FFF7FEFF 		bl	usbPrepareQueuedReceive
 254              	.LVL24:
 255              	.LBB225:
 256              	.LBB226:
 257              	.LBB227:
 258              	.LBB228:
 259              	.LBB229:
 260              		.loc 3 546 0
 261 0056 2023     		movs	r3, #32
 262              		.syntax unified
 263              	@ 546 "ChibiOS_3.0.2/os/ext/CMSIS/include/core_cmFunc.h" 1
 264 0058 83F31188 		MSR basepri, r3
 265              	@ 0 "" 2
 266              	.LVL25:
 267              		.thumb
 268              		.syntax unified
 269              	.LBE229:
 270              	.LBE228:
 271              	.LBE227:
 272              	.LBE226:
 273              	.LBE225:
 274              		.loc 1 134 0
 275 005c D4F85432 		ldr	r3, [r4, #596]
 276 0060 5979     		ldrb	r1, [r3, #5]	@ zero_extendqisi2
 277 0062 1868     		ldr	r0, [r3]
 278              		.loc 1 137 0
 279 0064 BDE83840 		pop	{r3, r4, r5, lr}
 280              		.cfi_restore 14
 281              		.cfi_restore 5
 282              		.cfi_restore 4
 283              		.cfi_restore 3
 284              		.cfi_def_cfa_offset 0
 285              	.LVL26:
ARM GAS  /tmp/ccJgkGhr.s 			page 6


 286              		.loc 1 134 0
 287 0068 FFF7FEBF 		b	usbStartReceiveI
 288              	.LVL27:
 289              		.cfi_endproc
 290              	.LFE264:
 291              		.size	inotify, .-inotify
 292              		.section	.text.readt,"ax",%progbits
 293              		.align	1
 294              		.p2align 4,,15
 295              		.syntax unified
 296              		.thumb
 297              		.thumb_func
 298              		.fpu fpv4-sp-d16
 299              		.type	readt, %function
 300              	readt:
 301              	.LFB263:
 302              		.loc 1 94 0
 303              		.cfi_startproc
 304              		@ args = 0, pretend = 0, frame = 0
 305              		@ frame_needed = 0, uses_anonymous_args = 0
 306              		@ link register save eliminated.
 307              	.LVL28:
 308              		.loc 1 96 0
 309 0000 0C30     		adds	r0, r0, #12
 310              	.LVL29:
 311 0002 FFF7FEBF 		b	chIQReadTimeout
 312              	.LVL30:
 313              		.cfi_endproc
 314              	.LFE263:
 315              		.size	readt, .-readt
 316 0006 00BF     		.section	.text.read,"ax",%progbits
 317              		.align	1
 318              		.p2align 4,,15
 319              		.syntax unified
 320              		.thumb
 321              		.thumb_func
 322              		.fpu fpv4-sp-d16
 323              		.type	read, %function
 324              	read:
 325              	.LFB257:
 326              		.loc 1 63 0
 327              		.cfi_startproc
 328              		@ args = 0, pretend = 0, frame = 0
 329              		@ frame_needed = 0, uses_anonymous_args = 0
 330              		@ link register save eliminated.
 331              	.LVL31:
 332              		.loc 1 65 0
 333 0000 0C30     		adds	r0, r0, #12
 334              	.LVL32:
 335 0002 4FF0FF33 		mov	r3, #-1
 336 0006 FFF7FEBF 		b	chIQReadTimeout
 337              	.LVL33:
 338              		.cfi_endproc
 339              	.LFE257:
 340              		.size	read, .-read
 341 000a 00BF     		.section	.text.writet,"ax",%progbits
 342              		.align	1
ARM GAS  /tmp/ccJgkGhr.s 			page 7


 343              		.p2align 4,,15
 344              		.syntax unified
 345              		.thumb
 346              		.thumb_func
 347              		.fpu fpv4-sp-d16
 348              		.type	writet, %function
 349              	writet:
 350              	.LFB262:
 351              		.loc 1 89 0
 352              		.cfi_startproc
 353              		@ args = 0, pretend = 0, frame = 0
 354              		@ frame_needed = 0, uses_anonymous_args = 0
 355              		@ link register save eliminated.
 356              	.LVL34:
 357              		.loc 1 91 0
 358 0000 3030     		adds	r0, r0, #48
 359              	.LVL35:
 360 0002 FFF7FEBF 		b	chOQWriteTimeout
 361              	.LVL36:
 362              		.cfi_endproc
 363              	.LFE262:
 364              		.size	writet, .-writet
 365 0006 00BF     		.section	.text.write,"ax",%progbits
 366              		.align	1
 367              		.p2align 4,,15
 368              		.syntax unified
 369              		.thumb
 370              		.thumb_func
 371              		.fpu fpv4-sp-d16
 372              		.type	write, %function
 373              	write:
 374              	.LFB256:
 375              		.loc 1 57 0
 376              		.cfi_startproc
 377              		@ args = 0, pretend = 0, frame = 0
 378              		@ frame_needed = 0, uses_anonymous_args = 0
 379              		@ link register save eliminated.
 380              	.LVL37:
 381              		.loc 1 59 0
 382 0000 3030     		adds	r0, r0, #48
 383              	.LVL38:
 384 0002 4FF0FF33 		mov	r3, #-1
 385 0006 FFF7FEBF 		b	chOQWriteTimeout
 386              	.LVL39:
 387              		.cfi_endproc
 388              	.LFE256:
 389              		.size	write, .-write
 390 000a 00BF     		.section	.text.gett,"ax",%progbits
 391              		.align	1
 392              		.p2align 4,,15
 393              		.syntax unified
 394              		.thumb
 395              		.thumb_func
 396              		.fpu fpv4-sp-d16
 397              		.type	gett, %function
 398              	gett:
 399              	.LFB261:
ARM GAS  /tmp/ccJgkGhr.s 			page 8


 400              		.loc 1 84 0
 401              		.cfi_startproc
 402              		@ args = 0, pretend = 0, frame = 0
 403              		@ frame_needed = 0, uses_anonymous_args = 0
 404              		@ link register save eliminated.
 405              	.LVL40:
 406              		.loc 1 86 0
 407 0000 0C30     		adds	r0, r0, #12
 408              	.LVL41:
 409 0002 FFF7FEBF 		b	chIQGetTimeout
 410              	.LVL42:
 411              		.cfi_endproc
 412              	.LFE261:
 413              		.size	gett, .-gett
 414 0006 00BF     		.section	.text.get,"ax",%progbits
 415              		.align	1
 416              		.p2align 4,,15
 417              		.syntax unified
 418              		.thumb
 419              		.thumb_func
 420              		.fpu fpv4-sp-d16
 421              		.type	get, %function
 422              	get:
 423              	.LFB259:
 424              		.loc 1 74 0
 425              		.cfi_startproc
 426              		@ args = 0, pretend = 0, frame = 0
 427              		@ frame_needed = 0, uses_anonymous_args = 0
 428              		@ link register save eliminated.
 429              	.LVL43:
 430              		.loc 1 76 0
 431 0000 0C30     		adds	r0, r0, #12
 432              	.LVL44:
 433 0002 4FF0FF31 		mov	r1, #-1
 434 0006 FFF7FEBF 		b	chIQGetTimeout
 435              	.LVL45:
 436              		.cfi_endproc
 437              	.LFE259:
 438              		.size	get, .-get
 439 000a 00BF     		.section	.text.putt,"ax",%progbits
 440              		.align	1
 441              		.p2align 4,,15
 442              		.syntax unified
 443              		.thumb
 444              		.thumb_func
 445              		.fpu fpv4-sp-d16
 446              		.type	putt, %function
 447              	putt:
 448              	.LFB260:
 449              		.loc 1 79 0
 450              		.cfi_startproc
 451              		@ args = 0, pretend = 0, frame = 0
 452              		@ frame_needed = 0, uses_anonymous_args = 0
 453              		@ link register save eliminated.
 454              	.LVL46:
 455              		.loc 1 81 0
 456 0000 3030     		adds	r0, r0, #48
ARM GAS  /tmp/ccJgkGhr.s 			page 9


 457              	.LVL47:
 458 0002 FFF7FEBF 		b	chOQPutTimeout
 459              	.LVL48:
 460              		.cfi_endproc
 461              	.LFE260:
 462              		.size	putt, .-putt
 463 0006 00BF     		.section	.text.put,"ax",%progbits
 464              		.align	1
 465              		.p2align 4,,15
 466              		.syntax unified
 467              		.thumb
 468              		.thumb_func
 469              		.fpu fpv4-sp-d16
 470              		.type	put, %function
 471              	put:
 472              	.LFB258:
 473              		.loc 1 69 0
 474              		.cfi_startproc
 475              		@ args = 0, pretend = 0, frame = 0
 476              		@ frame_needed = 0, uses_anonymous_args = 0
 477              		@ link register save eliminated.
 478              	.LVL49:
 479              		.loc 1 71 0
 480 0000 3030     		adds	r0, r0, #48
 481              	.LVL50:
 482 0002 4FF0FF32 		mov	r2, #-1
 483 0006 FFF7FEBF 		b	chOQPutTimeout
 484              	.LVL51:
 485              		.cfi_endproc
 486              	.LFE258:
 487              		.size	put, .-put
 488 000a 00BF     		.section	.text.sduInit,"ax",%progbits
 489              		.align	1
 490              		.p2align 4,,15
 491              		.global	sduInit
 492              		.syntax unified
 493              		.thumb
 494              		.thumb_func
 495              		.fpu fpv4-sp-d16
 496              		.type	sduInit, %function
 497              	sduInit:
 498              	.LFB266:
 499              		.loc 1 182 0
 500              		.cfi_startproc
 501              		@ args = 0, pretend = 0, frame = 0
 502              		@ frame_needed = 0, uses_anonymous_args = 0
 503              		@ link register save eliminated.
 504              		.loc 1 183 0
 505 0000 7047     		bx	lr
 506              		.cfi_endproc
 507              	.LFE266:
 508              		.size	sduInit, .-sduInit
 509 0002 00BF     		.section	.text.sduObjectInit,"ax",%progbits
 510              		.align	1
 511              		.p2align 4,,15
 512              		.global	sduObjectInit
 513              		.syntax unified
ARM GAS  /tmp/ccJgkGhr.s 			page 10


 514              		.thumb
 515              		.thumb_func
 516              		.fpu fpv4-sp-d16
 517              		.type	sduObjectInit, %function
 518              	sduObjectInit:
 519              	.LFB267:
 520              		.loc 1 194 0
 521              		.cfi_startproc
 522              		@ args = 0, pretend = 0, frame = 0
 523              		@ frame_needed = 0, uses_anonymous_args = 0
 524              	.LVL52:
 525 0000 10B5     		push	{r4, lr}
 526              		.cfi_def_cfa_offset 8
 527              		.cfi_offset 4, -8
 528              		.cfi_offset 14, -4
 529              		.loc 1 196 0
 530 0002 0346     		mov	r3, r0
 531 0004 0E4A     		ldr	r2, .L24
 532 0006 43F8042B 		str	r2, [r3], #4
 533              	.LVL53:
 534              		.loc 1 194 0
 535 000a 82B0     		sub	sp, sp, #8
 536              		.cfi_def_cfa_offset 16
 537              		.loc 1 198 0
 538 000c 0122     		movs	r2, #1
 539              		.loc 1 194 0
 540 000e 0446     		mov	r4, r0
 541              		.loc 1 199 0
 542 0010 0090     		str	r0, [sp]
 543 0012 00F15401 		add	r1, r0, #84
 544              	.LBB230:
 545              	.LBB231:
 546              	.LBB232:
 547              		.file 4 "ChibiOS_3.0.2/os/rt/include/chevents.h"
 548              		.loc 4 172 0
 549 0016 4360     		str	r3, [r0, #4]
 550              	.LVL54:
 551              	.LBE232:
 552              	.LBE231:
 553              	.LBE230:
 554              		.loc 1 198 0
 555 0018 0272     		strb	r2, [r0, #8]
 556              		.loc 1 199 0
 557 001a 0A4B     		ldr	r3, .L24+4
 558 001c 0C30     		adds	r0, r0, #12
 559              	.LVL55:
 560 001e 4FF48072 		mov	r2, #256
 561 0022 FFF7FEFF 		bl	chIQObjectInit
 562              	.LVL56:
 563              		.loc 1 200 0
 564 0026 0094     		str	r4, [sp]
 565 0028 04F5AA71 		add	r1, r4, #340
 566 002c 04F13000 		add	r0, r4, #48
 567 0030 054B     		ldr	r3, .L24+8
 568 0032 4FF48072 		mov	r2, #256
 569 0036 FFF7FEFF 		bl	chOQObjectInit
 570              	.LVL57:
ARM GAS  /tmp/ccJgkGhr.s 			page 11


 571              		.loc 1 201 0
 572 003a 02B0     		add	sp, sp, #8
 573              		.cfi_def_cfa_offset 8
 574              		@ sp needed
 575 003c 10BD     		pop	{r4, pc}
 576              	.LVL58:
 577              	.L25:
 578 003e 00BF     		.align	2
 579              	.L24:
 580 0040 00000000 		.word	.LANCHOR0
 581 0044 00000000 		.word	inotify
 582 0048 00000000 		.word	onotify
 583              		.cfi_endproc
 584              	.LFE267:
 585              		.size	sduObjectInit, .-sduObjectInit
 586              		.section	.text.sduStart,"ax",%progbits
 587              		.align	1
 588              		.p2align 4,,15
 589              		.global	sduStart
 590              		.syntax unified
 591              		.thumb
 592              		.thumb_func
 593              		.fpu fpv4-sp-d16
 594              		.type	sduStart, %function
 595              	sduStart:
 596              	.LFB268:
 597              		.loc 1 211 0
 598              		.cfi_startproc
 599              		@ args = 0, pretend = 0, frame = 0
 600              		@ frame_needed = 0, uses_anonymous_args = 0
 601              		@ link register save eliminated.
 602              	.LVL59:
 603              		.loc 1 212 0
 604 0000 0B68     		ldr	r3, [r1]
 605              	.LVL60:
 606              	.LBB233:
 607              	.LBB234:
 608              	.LBB235:
 609              	.LBB236:
 610              	.LBB237:
 611              		.loc 3 546 0
 612 0002 2022     		movs	r2, #32
 613              		.syntax unified
 614              	@ 546 "ChibiOS_3.0.2/os/ext/CMSIS/include/core_cmFunc.h" 1
 615 0004 82F31188 		MSR basepri, r2
 616              	@ 0 "" 2
 617              	.LVL61:
 618              		.thumb
 619              		.syntax unified
 620              	.LBE237:
 621              	.LBE236:
 622              	.LBE235:
 623              	.LBE234:
 624              	.LBE233:
 625              		.loc 1 219 0
 626 0008 0A79     		ldrb	r2, [r1, #4]	@ zero_extendqisi2
 627 000a 03EB8202 		add	r2, r3, r2, lsl #2
ARM GAS  /tmp/ccJgkGhr.s 			page 12


 628 000e 9061     		str	r0, [r2, #24]
 629              		.loc 1 220 0
 630 0010 4A79     		ldrb	r2, [r1, #5]	@ zero_extendqisi2
 631 0012 0932     		adds	r2, r2, #9
 632 0014 43F82200 		str	r0, [r3, r2, lsl #2]
 633              		.loc 1 221 0
 634 0018 8A79     		ldrb	r2, [r1, #6]	@ zero_extendqisi2
 635 001a 12B1     		cbz	r2, .L27
 636              		.loc 1 222 0
 637 001c 03EB8203 		add	r3, r3, r2, lsl #2
 638              	.LVL62:
 639 0020 9861     		str	r0, [r3, #24]
 640              	.L27:
 641              		.loc 1 225 0
 642 0022 0223     		movs	r3, #2
 643 0024 0372     		strb	r3, [r0, #8]
 644              	.LVL63:
 645              		.loc 1 224 0
 646 0026 C0F85412 		str	r1, [r0, #596]
 647              	.LBB238:
 648              	.LBB239:
 649              	.LBB240:
 650              	.LBB241:
 651              	.LBB242:
 652              	.LBB243:
 653              		.loc 3 546 0
 654 002a 0023     		movs	r3, #0
 655              		.syntax unified
 656              	@ 546 "ChibiOS_3.0.2/os/ext/CMSIS/include/core_cmFunc.h" 1
 657 002c 83F31188 		MSR basepri, r3
 658              	@ 0 "" 2
 659              	.LVL64:
 660              		.thumb
 661              		.syntax unified
 662              	.LBE243:
 663              	.LBE242:
 664              	.LBE241:
 665              	.LBE240:
 666              	.LBE239:
 667              	.LBE238:
 668              		.loc 1 227 0
 669 0030 7047     		bx	lr
 670              		.cfi_endproc
 671              	.LFE268:
 672              		.size	sduStart, .-sduStart
 673 0032 00BF     		.section	.text.sduStop,"ax",%progbits
 674              		.align	1
 675              		.p2align 4,,15
 676              		.global	sduStop
 677              		.syntax unified
 678              		.thumb
 679              		.thumb_func
 680              		.fpu fpv4-sp-d16
 681              		.type	sduStop, %function
 682              	sduStop:
 683              	.LFB269:
 684              		.loc 1 238 0
ARM GAS  /tmp/ccJgkGhr.s 			page 13


 685              		.cfi_startproc
 686              		@ args = 0, pretend = 0, frame = 0
 687              		@ frame_needed = 0, uses_anonymous_args = 0
 688              	.LVL65:
 689              		.loc 1 239 0
 690 0000 D0F85422 		ldr	r2, [r0, #596]
 691              		.loc 1 238 0
 692 0004 10B5     		push	{r4, lr}
 693              		.cfi_def_cfa_offset 8
 694              		.cfi_offset 4, -8
 695              		.cfi_offset 14, -4
 696              	.LBB244:
 697              	.LBB245:
 698              	.LBB246:
 699              	.LBB247:
 700              	.LBB248:
 701              		.loc 3 546 0
 702 0006 2023     		movs	r3, #32
 703              	.LBE248:
 704              	.LBE247:
 705              	.LBE246:
 706              	.LBE245:
 707              	.LBE244:
 708              		.loc 1 238 0
 709 0008 0446     		mov	r4, r0
 710              		.loc 1 239 0
 711 000a 1268     		ldr	r2, [r2]
 712              	.LVL66:
 713              	.LBB253:
 714              	.LBB252:
 715              	.LBB251:
 716              	.LBB250:
 717              	.LBB249:
 718              		.loc 3 546 0
 719              		.syntax unified
 720              	@ 546 "ChibiOS_3.0.2/os/ext/CMSIS/include/core_cmFunc.h" 1
 721 000c 83F31188 		MSR basepri, r3
 722              	@ 0 "" 2
 723              	.LVL67:
 724              		.thumb
 725              		.syntax unified
 726              	.LBE249:
 727              	.LBE250:
 728              	.LBE251:
 729              	.LBE252:
 730              	.LBE253:
 731              		.loc 1 248 0
 732 0010 D0F85412 		ldr	r1, [r0, #596]
 733 0014 0B79     		ldrb	r3, [r1, #4]	@ zero_extendqisi2
 734 0016 0533     		adds	r3, r3, #5
 735 0018 02EB8303 		add	r3, r2, r3, lsl #2
 736 001c 0020     		movs	r0, #0
 737              	.LVL68:
 738 001e 5860     		str	r0, [r3, #4]
 739              		.loc 1 249 0
 740 0020 4B79     		ldrb	r3, [r1, #5]	@ zero_extendqisi2
 741 0022 0933     		adds	r3, r3, #9
ARM GAS  /tmp/ccJgkGhr.s 			page 14


 742 0024 42F82300 		str	r0, [r2, r3, lsl #2]
 743              		.loc 1 250 0
 744 0028 8B79     		ldrb	r3, [r1, #6]	@ zero_extendqisi2
 745 002a 1BB1     		cbz	r3, .L32
 746              		.loc 1 251 0
 747 002c 0533     		adds	r3, r3, #5
 748 002e 02EB8302 		add	r2, r2, r3, lsl #2
 749              	.LVL69:
 750 0032 5060     		str	r0, [r2, #4]
 751              	.L32:
 752              		.loc 1 253 0
 753 0034 0123     		movs	r3, #1
 754 0036 2372     		strb	r3, [r4, #8]
 755              	.LVL70:
 756              	.LBB254:
 757              	.LBB255:
 758              		.file 5 "ChibiOS_3.0.2/os/hal/osal/rt/osal.h"
 759              		.loc 5 844 0
 760 0038 0221     		movs	r1, #2
 761 003a 201D     		adds	r0, r4, #4
 762              	.LVL71:
 763 003c FFF7FEFF 		bl	chEvtBroadcastFlagsI
 764              	.LVL72:
 765              	.LBE255:
 766              	.LBE254:
 767              		.loc 1 257 0
 768 0040 04F10C00 		add	r0, r4, #12
 769 0044 FFF7FEFF 		bl	chIQResetI
 770              	.LVL73:
 771              		.loc 1 258 0
 772 0048 04F13000 		add	r0, r4, #48
 773 004c FFF7FEFF 		bl	chIQResetI
 774              	.LVL74:
 775              	.LBB256:
 776              	.LBB257:
 777              		.loc 5 600 0
 778 0050 FFF7FEFF 		bl	chSchRescheduleS
 779              	.LVL75:
 780              	.LBE257:
 781              	.LBE256:
 782              	.LBB258:
 783              	.LBB259:
 784              	.LBB260:
 785              	.LBB261:
 786              	.LBB262:
 787              	.LBB263:
 788              		.loc 3 546 0
 789 0054 0023     		movs	r3, #0
 790              		.syntax unified
 791              	@ 546 "ChibiOS_3.0.2/os/ext/CMSIS/include/core_cmFunc.h" 1
 792 0056 83F31188 		MSR basepri, r3
 793              	@ 0 "" 2
 794              	.LVL76:
 795              		.thumb
 796              		.syntax unified
 797              	.LBE263:
 798              	.LBE262:
ARM GAS  /tmp/ccJgkGhr.s 			page 15


 799              	.LBE261:
 800              	.LBE260:
 801              	.LBE259:
 802              	.LBE258:
 803              		.loc 1 261 0
 804 005a 10BD     		pop	{r4, pc}
 805              		.cfi_endproc
 806              	.LFE269:
 807              		.size	sduStop, .-sduStop
 808              		.section	.text.sduConfigureHookI,"ax",%progbits
 809              		.align	1
 810              		.p2align 4,,15
 811              		.global	sduConfigureHookI
 812              		.syntax unified
 813              		.thumb
 814              		.thumb_func
 815              		.fpu fpv4-sp-d16
 816              		.type	sduConfigureHookI, %function
 817              	sduConfigureHookI:
 818              	.LFB270:
 819              		.loc 1 270 0
 820              		.cfi_startproc
 821              		@ args = 0, pretend = 0, frame = 0
 822              		@ frame_needed = 0, uses_anonymous_args = 0
 823              	.LVL77:
 824 0000 70B5     		push	{r4, r5, r6, lr}
 825              		.cfi_def_cfa_offset 16
 826              		.cfi_offset 4, -16
 827              		.cfi_offset 5, -12
 828              		.cfi_offset 6, -8
 829              		.cfi_offset 14, -4
 830              		.loc 1 271 0
 831 0002 D0F85432 		ldr	r3, [r0, #596]
 832              		.loc 1 273 0
 833 0006 00F10C06 		add	r6, r0, #12
 834              		.loc 1 270 0
 835 000a 0446     		mov	r4, r0
 836              		.loc 1 273 0
 837 000c 3046     		mov	r0, r6
 838              	.LVL78:
 839              		.loc 1 271 0
 840 000e 1D68     		ldr	r5, [r3]
 841              	.LVL79:
 842              		.loc 1 273 0
 843 0010 FFF7FEFF 		bl	chIQResetI
 844              	.LVL80:
 845              		.loc 1 274 0
 846 0014 04F13000 		add	r0, r4, #48
 847 0018 FFF7FEFF 		bl	chOQResetI
 848              	.LVL81:
 849              	.LBB264:
 850              	.LBB265:
 851              		.loc 5 844 0
 852 001c 201D     		adds	r0, r4, #4
 853              	.LVL82:
 854 001e 0121     		movs	r1, #1
 855 0020 FFF7FEFF 		bl	chEvtBroadcastFlagsI
ARM GAS  /tmp/ccJgkGhr.s 			page 16


 856              	.LVL83:
 857              	.LBE265:
 858              	.LBE264:
 859              		.loc 1 278 0
 860 0024 D4F85432 		ldr	r3, [r4, #596]
 861 0028 5979     		ldrb	r1, [r3, #5]	@ zero_extendqisi2
 862              		.loc 1 279 0
 863 002a 05EB8103 		add	r3, r5, r1, lsl #2
 864              		.loc 1 278 0
 865 002e 2846     		mov	r0, r5
 866              		.loc 1 279 0
 867 0030 DB68     		ldr	r3, [r3, #12]
 868              		.loc 1 278 0
 869 0032 3246     		mov	r2, r6
 870 0034 5B8A     		ldrh	r3, [r3, #18]
 871 0036 FFF7FEFF 		bl	usbPrepareQueuedReceive
 872              	.LVL84:
 873              		.loc 1 280 0
 874 003a D4F85432 		ldr	r3, [r4, #596]
 875 003e 2846     		mov	r0, r5
 876 0040 5979     		ldrb	r1, [r3, #5]	@ zero_extendqisi2
 877              		.loc 1 281 0
 878 0042 BDE87040 		pop	{r4, r5, r6, lr}
 879              		.cfi_restore 14
 880              		.cfi_restore 6
 881              		.cfi_restore 5
 882              		.cfi_restore 4
 883              		.cfi_def_cfa_offset 0
 884              	.LVL85:
 885              		.loc 1 280 0
 886 0046 FFF7FEBF 		b	usbStartReceiveI
 887              	.LVL86:
 888              		.cfi_endproc
 889              	.LFE270:
 890              		.size	sduConfigureHookI, .-sduConfigureHookI
 891 004a 00BF     		.section	.text.sduRequestsHook,"ax",%progbits
 892              		.align	1
 893              		.p2align 4,,15
 894              		.global	sduRequestsHook
 895              		.syntax unified
 896              		.thumb
 897              		.thumb_func
 898              		.fpu fpv4-sp-d16
 899              		.type	sduRequestsHook, %function
 900              	sduRequestsHook:
 901              	.LFB271:
 902              		.loc 1 298 0
 903              		.cfi_startproc
 904              		@ args = 0, pretend = 0, frame = 0
 905              		@ frame_needed = 0, uses_anonymous_args = 0
 906              		@ link register save eliminated.
 907              	.LVL87:
 908              		.loc 1 300 0
 909 0000 90F84430 		ldrb	r3, [r0, #68]	@ zero_extendqisi2
 910 0004 03F06003 		and	r3, r3, #96
 911 0008 202B     		cmp	r3, #32
 912 000a 01D0     		beq	.L45
ARM GAS  /tmp/ccJgkGhr.s 			page 17


 913              	.L44:
 914              		.loc 1 313 0
 915 000c 0020     		movs	r0, #0
 916              	.LVL88:
 917              		.loc 1 317 0
 918 000e 7047     		bx	lr
 919              	.LVL89:
 920              	.L45:
 921              		.loc 1 301 0
 922 0010 90F84530 		ldrb	r3, [r0, #69]	@ zero_extendqisi2
 923 0014 202B     		cmp	r3, #32
 924 0016 F9D3     		bcc	.L44
 925 0018 212B     		cmp	r3, #33
 926 001a 07D8     		bhi	.L46
 927              		.loc 1 303 0
 928 001c 074B     		ldr	r3, .L47
 929 001e 8363     		str	r3, [r0, #56]
 930 0020 0722     		movs	r2, #7
 931 0022 0023     		movs	r3, #0
 932 0024 C0E90F23 		strd	r2, r3, [r0, #60]
 933              		.loc 1 304 0
 934 0028 0120     		movs	r0, #1
 935              	.LVL90:
 936 002a 7047     		bx	lr
 937              	.LVL91:
 938              	.L46:
 939              		.loc 1 301 0
 940 002c 222B     		cmp	r3, #34
 941 002e EDD1     		bne	.L44
 942              		.loc 1 310 0
 943 0030 0023     		movs	r3, #0
 944 0032 C0E90E33 		strd	r3, r3, [r0, #56]
 945 0036 0364     		str	r3, [r0, #64]
 946              		.loc 1 311 0
 947 0038 0120     		movs	r0, #1
 948              	.LVL92:
 949 003a 7047     		bx	lr
 950              	.L48:
 951              		.align	2
 952              	.L47:
 953 003c 00000000 		.word	.LANCHOR1
 954              		.cfi_endproc
 955              	.LFE271:
 956              		.size	sduRequestsHook, .-sduRequestsHook
 957              		.section	.text.sduDataTransmitted,"ax",%progbits
 958              		.align	1
 959              		.p2align 4,,15
 960              		.global	sduDataTransmitted
 961              		.syntax unified
 962              		.thumb
 963              		.thumb_func
 964              		.fpu fpv4-sp-d16
 965              		.type	sduDataTransmitted, %function
 966              	sduDataTransmitted:
 967              	.LFB272:
 968              		.loc 1 327 0
 969              		.cfi_startproc
ARM GAS  /tmp/ccJgkGhr.s 			page 18


 970              		@ args = 0, pretend = 0, frame = 0
 971              		@ frame_needed = 0, uses_anonymous_args = 0
 972              	.LVL93:
 973 0000 F8B5     		push	{r3, r4, r5, r6, r7, lr}
 974              		.cfi_def_cfa_offset 24
 975              		.cfi_offset 3, -24
 976              		.cfi_offset 4, -20
 977              		.cfi_offset 5, -16
 978              		.cfi_offset 6, -12
 979              		.cfi_offset 7, -8
 980              		.cfi_offset 14, -4
 981              		.loc 1 329 0
 982 0002 00EB8103 		add	r3, r0, r1, lsl #2
 983 0006 9C69     		ldr	r4, [r3, #24]
 984              	.LVL94:
 985              		.loc 1 331 0
 986 0008 4CB3     		cbz	r4, .L49
 987              	.LVL95:
 988 000a 0E46     		mov	r6, r1
 989 000c 0546     		mov	r5, r0
 990              	.LBB266:
 991              	.LBB267:
 992              	.LBB268:
 993              	.LBB269:
 994              	.LBB270:
 995              	.LBB271:
 996              		.loc 3 546 0
 997 000e 2027     		movs	r7, #32
 998              		.syntax unified
 999              	@ 546 "ChibiOS_3.0.2/os/ext/CMSIS/include/core_cmFunc.h" 1
 1000 0010 87F31188 		MSR basepri, r7
 1001              	@ 0 "" 2
 1002              	.LVL96:
 1003              		.thumb
 1004              		.syntax unified
 1005              	.LBE271:
 1006              	.LBE270:
 1007              	.LBE269:
 1008              	.LBE268:
 1009              	.LBE267:
 1010              	.LBE266:
 1011              	.LBB272:
 1012              	.LBB273:
 1013              		.loc 5 844 0
 1014 0014 0821     		movs	r1, #8
 1015              	.LVL97:
 1016 0016 201D     		adds	r0, r4, #4
 1017              	.LVL98:
 1018 0018 FFF7FEFF 		bl	chEvtBroadcastFlagsI
 1019              	.LVL99:
 1020              	.LBE273:
 1021              	.LBE272:
 1022              	.LBB274:
 1023              	.LBB275:
 1024              		.loc 2 357 0
 1025 001c D4E90F13 		ldrd	r1, r3, [r4, #60]
 1026 0020 A26B     		ldr	r2, [r4, #56]
ARM GAS  /tmp/ccJgkGhr.s 			page 19


 1027 0022 5B1A     		subs	r3, r3, r1
 1028              	.LBE275:
 1029              	.LBE274:
 1030              		.loc 1 339 0
 1031 0024 9B1A     		subs	r3, r3, r2
 1032 0026 1BD1     		bne	.L61
 1033              		.loc 1 349 0
 1034 0028 05EB8603 		add	r3, r5, r6, lsl #2
 1035 002c DB68     		ldr	r3, [r3, #12]
 1036 002e 5A69     		ldr	r2, [r3, #20]
 1037 0030 5268     		ldr	r2, [r2, #4]
 1038 0032 8AB1     		cbz	r2, .L52
 1039              		.loc 1 351 0 discriminator 1
 1040 0034 1B8A     		ldrh	r3, [r3, #16]
 1041 0036 013B     		subs	r3, r3, #1
 1042              		.loc 1 349 0 discriminator 1
 1043 0038 1340     		ands	r3, r3, r2
 1044 003a 0DD1     		bne	.L52
 1045              	.LVL100:
 1046              	.LBB276:
 1047              	.LBB277:
 1048              	.LBB278:
 1049              	.LBB279:
 1050              	.LBB280:
 1051              	.LBB281:
 1052              		.loc 3 546 0
 1053              		.syntax unified
 1054              	@ 546 "ChibiOS_3.0.2/os/ext/CMSIS/include/core_cmFunc.h" 1
 1055 003c 83F31188 		MSR basepri, r3
 1056              	@ 0 "" 2
 1057              	.LVL101:
 1058              		.thumb
 1059              		.syntax unified
 1060              	.L60:
 1061              	.LBE281:
 1062              	.LBE280:
 1063              	.LBE279:
 1064              	.LBE278:
 1065              	.LBE277:
 1066              	.LBE276:
 1067              		.loc 1 358 0
 1068 0040 04F13002 		add	r2, r4, #48
 1069 0044 3146     		mov	r1, r6
 1070 0046 2846     		mov	r0, r5
 1071 0048 FFF7FEFF 		bl	usbPrepareQueuedTransmit
 1072              	.LVL102:
 1073              	.LBB282:
 1074              	.LBB283:
 1075              	.LBB284:
 1076              	.LBB285:
 1077              	.LBB286:
 1078              	.LBB287:
 1079              		.loc 3 546 0
 1080              		.syntax unified
 1081              	@ 546 "ChibiOS_3.0.2/os/ext/CMSIS/include/core_cmFunc.h" 1
 1082 004c 87F31188 		MSR basepri, r7
 1083              	@ 0 "" 2
ARM GAS  /tmp/ccJgkGhr.s 			page 20


 1084              	.LVL103:
 1085              		.thumb
 1086              		.syntax unified
 1087              	.LBE287:
 1088              	.LBE286:
 1089              	.LBE285:
 1090              	.LBE284:
 1091              	.LBE283:
 1092              	.LBE282:
 1093              		.loc 1 361 0
 1094 0050 3146     		mov	r1, r6
 1095 0052 2846     		mov	r0, r5
 1096 0054 FFF7FEFF 		bl	usbStartTransmitI
 1097              	.LVL104:
 1098              	.L52:
 1099              	.LBB288:
 1100              	.LBB289:
 1101              	.LBB290:
 1102              	.LBB291:
 1103              	.LBB292:
 1104              	.LBB293:
 1105              		.loc 3 546 0
 1106 0058 0023     		movs	r3, #0
 1107              		.syntax unified
 1108              	@ 546 "ChibiOS_3.0.2/os/ext/CMSIS/include/core_cmFunc.h" 1
 1109 005a 83F31188 		MSR basepri, r3
 1110              	@ 0 "" 2
 1111              	.LVL105:
 1112              		.thumb
 1113              		.syntax unified
 1114              	.L49:
 1115              	.LBE293:
 1116              	.LBE292:
 1117              	.LBE291:
 1118              	.LBE290:
 1119              	.LBE289:
 1120              	.LBE288:
 1121              		.loc 1 366 0
 1122 005e F8BD     		pop	{r3, r4, r5, r6, r7, pc}
 1123              	.LVL106:
 1124              	.L61:
 1125              	.LBB294:
 1126              	.LBB295:
 1127              	.LBB296:
 1128              	.LBB297:
 1129              	.LBB298:
 1130              	.LBB299:
 1131              		.loc 3 546 0
 1132 0060 0022     		movs	r2, #0
 1133              		.syntax unified
 1134              	@ 546 "ChibiOS_3.0.2/os/ext/CMSIS/include/core_cmFunc.h" 1
 1135 0062 82F31188 		MSR basepri, r2
 1136              	@ 0 "" 2
 1137              	.LVL107:
 1138              		.thumb
 1139              		.syntax unified
 1140 0066 EBE7     		b	.L60
ARM GAS  /tmp/ccJgkGhr.s 			page 21


 1141              	.LBE299:
 1142              	.LBE298:
 1143              	.LBE297:
 1144              	.LBE296:
 1145              	.LBE295:
 1146              	.LBE294:
 1147              		.cfi_endproc
 1148              	.LFE272:
 1149              		.size	sduDataTransmitted, .-sduDataTransmitted
 1150              		.section	.text.sduDataReceived,"ax",%progbits
 1151              		.align	1
 1152              		.p2align 4,,15
 1153              		.global	sduDataReceived
 1154              		.syntax unified
 1155              		.thumb
 1156              		.thumb_func
 1157              		.fpu fpv4-sp-d16
 1158              		.type	sduDataReceived, %function
 1159              	sduDataReceived:
 1160              	.LFB273:
 1161              		.loc 1 376 0
 1162              		.cfi_startproc
 1163              		@ args = 0, pretend = 0, frame = 0
 1164              		@ frame_needed = 0, uses_anonymous_args = 0
 1165              	.LVL108:
 1166              		.loc 1 378 0
 1167 0000 01F10903 		add	r3, r1, #9
 1168              		.loc 1 376 0
 1169 0004 2DE9F041 		push	{r4, r5, r6, r7, r8, lr}
 1170              		.cfi_def_cfa_offset 24
 1171              		.cfi_offset 4, -24
 1172              		.cfi_offset 5, -20
 1173              		.cfi_offset 6, -16
 1174              		.cfi_offset 7, -12
 1175              		.cfi_offset 8, -8
 1176              		.cfi_offset 14, -4
 1177              		.loc 1 378 0
 1178 0008 50F82340 		ldr	r4, [r0, r3, lsl #2]
 1179              	.LVL109:
 1180              		.loc 1 380 0
 1181 000c BCB1     		cbz	r4, .L62
 1182              	.LVL110:
 1183 000e 0746     		mov	r7, r0
 1184 0010 0E46     		mov	r6, r1
 1185              	.LBB300:
 1186              	.LBB301:
 1187              	.LBB302:
 1188              	.LBB303:
 1189              	.LBB304:
 1190              	.LBB305:
 1191              		.loc 3 546 0
 1192 0012 4FF02008 		mov	r8, #32
 1193              		.syntax unified
 1194              	@ 546 "ChibiOS_3.0.2/os/ext/CMSIS/include/core_cmFunc.h" 1
 1195 0016 88F31188 		MSR basepri, r8
 1196              	@ 0 "" 2
 1197              	.LVL111:
ARM GAS  /tmp/ccJgkGhr.s 			page 22


 1198              		.thumb
 1199              		.syntax unified
 1200              	.LBE305:
 1201              	.LBE304:
 1202              	.LBE303:
 1203              	.LBE302:
 1204              	.LBE301:
 1205              	.LBE300:
 1206              	.LBB306:
 1207              	.LBB307:
 1208              		.loc 5 844 0
 1209 001a 0421     		movs	r1, #4
 1210              	.LVL112:
 1211 001c 6018     		adds	r0, r4, r1
 1212              	.LVL113:
 1213 001e FFF7FEFF 		bl	chEvtBroadcastFlagsI
 1214              	.LVL114:
 1215              	.LBE307:
 1216              	.LBE306:
 1217              		.loc 1 389 0
 1218 0022 07EB8603 		add	r3, r7, r6, lsl #2
 1219              	.LBB308:
 1220              	.LBB309:
 1221              		.loc 2 290 0
 1222 0026 E569     		ldr	r5, [r4, #28]
 1223              	.LBE309:
 1224              	.LBE308:
 1225              		.loc 1 389 0
 1226 0028 D968     		ldr	r1, [r3, #12]
 1227              	.LBB312:
 1228              	.LBB310:
 1229              		.loc 2 290 0
 1230 002a A269     		ldr	r2, [r4, #24]
 1231 002c 6369     		ldr	r3, [r4, #20]
 1232              	.LBE310:
 1233              	.LBE312:
 1234              		.loc 1 389 0
 1235 002e 498A     		ldrh	r1, [r1, #18]
 1236              	.LVL115:
 1237              	.LBB313:
 1238              	.LBB311:
 1239              		.loc 2 290 0
 1240 0030 AA1A     		subs	r2, r5, r2
 1241 0032 D21A     		subs	r2, r2, r3
 1242              	.LVL116:
 1243              	.LBE311:
 1244              	.LBE313:
 1245              		.loc 1 390 0
 1246 0034 9142     		cmp	r1, r2
 1247 0036 04D9     		bls	.L69
 1248              	.LVL117:
 1249              	.L64:
 1250              	.LBB314:
 1251              	.LBB315:
 1252              	.LBB316:
 1253              	.LBB317:
 1254              	.LBB318:
ARM GAS  /tmp/ccJgkGhr.s 			page 23


 1255              	.LBB319:
 1256              		.loc 3 546 0
 1257 0038 0023     		movs	r3, #0
 1258              		.syntax unified
 1259              	@ 546 "ChibiOS_3.0.2/os/ext/CMSIS/include/core_cmFunc.h" 1
 1260 003a 83F31188 		MSR basepri, r3
 1261              	@ 0 "" 2
 1262              	.LVL118:
 1263              		.thumb
 1264              		.syntax unified
 1265              	.L62:
 1266              	.LBE319:
 1267              	.LBE318:
 1268              	.LBE317:
 1269              	.LBE316:
 1270              	.LBE315:
 1271              	.LBE314:
 1272              		.loc 1 402 0
 1273 003e BDE8F081 		pop	{r4, r5, r6, r7, r8, pc}
 1274              	.LVL119:
 1275              	.L69:
 1276              	.LBB320:
 1277              	.LBB321:
 1278              	.LBB322:
 1279              	.LBB323:
 1280              	.LBB324:
 1281              	.LBB325:
 1282              		.loc 3 546 0
 1283 0042 0023     		movs	r3, #0
 1284              		.syntax unified
 1285              	@ 546 "ChibiOS_3.0.2/os/ext/CMSIS/include/core_cmFunc.h" 1
 1286 0044 83F31188 		MSR basepri, r3
 1287              	@ 0 "" 2
 1288              	.LVL120:
 1289              		.thumb
 1290              		.syntax unified
 1291              	.LBE325:
 1292              	.LBE324:
 1293              	.LBE323:
 1294              	.LBE322:
 1295              	.LBE321:
 1296              	.LBE320:
 1297              		.loc 1 395 0
 1298 0048 B2FBF1F3 		udiv	r3, r2, r1
 1299              		.loc 1 396 0
 1300 004c 3846     		mov	r0, r7
 1301 004e 01FB03F3 		mul	r3, r1, r3
 1302              	.LVL121:
 1303 0052 04F10C02 		add	r2, r4, #12
 1304 0056 3146     		mov	r1, r6
 1305              	.LVL122:
 1306 0058 FFF7FEFF 		bl	usbPrepareQueuedReceive
 1307              	.LVL123:
 1308              	.LBB326:
 1309              	.LBB327:
 1310              	.LBB328:
 1311              	.LBB329:
ARM GAS  /tmp/ccJgkGhr.s 			page 24


 1312              	.LBB330:
 1313              	.LBB331:
 1314              		.loc 3 546 0
 1315              		.syntax unified
 1316              	@ 546 "ChibiOS_3.0.2/os/ext/CMSIS/include/core_cmFunc.h" 1
 1317 005c 88F31188 		MSR basepri, r8
 1318              	@ 0 "" 2
 1319              	.LVL124:
 1320              		.thumb
 1321              		.syntax unified
 1322              	.LBE331:
 1323              	.LBE330:
 1324              	.LBE329:
 1325              	.LBE328:
 1326              	.LBE327:
 1327              	.LBE326:
 1328              		.loc 1 399 0
 1329 0060 3146     		mov	r1, r6
 1330 0062 3846     		mov	r0, r7
 1331 0064 FFF7FEFF 		bl	usbStartReceiveI
 1332              	.LVL125:
 1333 0068 E6E7     		b	.L64
 1334              		.cfi_endproc
 1335              	.LFE273:
 1336              		.size	sduDataReceived, .-sduDataReceived
 1337 006a 00BF     		.section	.text.sduInterruptTransmitted,"ax",%progbits
 1338              		.align	1
 1339              		.p2align 4,,15
 1340              		.global	sduInterruptTransmitted
 1341              		.syntax unified
 1342              		.thumb
 1343              		.thumb_func
 1344              		.fpu fpv4-sp-d16
 1345              		.type	sduInterruptTransmitted, %function
 1346              	sduInterruptTransmitted:
 1347              	.LFB274:
 1348              		.loc 1 412 0
 1349              		.cfi_startproc
 1350              		@ args = 0, pretend = 0, frame = 0
 1351              		@ frame_needed = 0, uses_anonymous_args = 0
 1352              		@ link register save eliminated.
 1353              	.LVL126:
 1354              		.loc 1 416 0
 1355 0000 7047     		bx	lr
 1356              		.cfi_endproc
 1357              	.LFE274:
 1358              		.size	sduInterruptTransmitted, .-sduInterruptTransmitted
 1359 0002 00BF     		.section	.data.linecoding,"aw",%progbits
 1360              		.align	2
 1361              		.set	.LANCHOR1,. + 0
 1362              		.type	linecoding, %object
 1363              		.size	linecoding, 7
 1364              	linecoding:
 1365 0000 00       		.byte	0
 1366 0001 96       		.byte	-106
 1367 0002 00       		.byte	0
 1368 0003 00       		.byte	0
ARM GAS  /tmp/ccJgkGhr.s 			page 25


 1369 0004 00       		.byte	0
 1370 0005 00       		.byte	0
 1371 0006 08       		.byte	8
 1372              		.section	.rodata.vmt,"a",%progbits
 1373              		.align	2
 1374              		.set	.LANCHOR0,. + 0
 1375              		.type	vmt, %object
 1376              		.size	vmt, 32
 1377              	vmt:
 1378 0000 00000000 		.word	write
 1379 0004 00000000 		.word	read
 1380 0008 00000000 		.word	put
 1381 000c 00000000 		.word	get
 1382 0010 00000000 		.word	putt
 1383 0014 00000000 		.word	gett
 1384 0018 00000000 		.word	writet
 1385 001c 00000000 		.word	readt
 1386              		.text
 1387              	.Letext0:
 1388              		.file 6 "/usr/lib/gcc/arm-none-eabi/7.3.1/include/stddef.h"
 1389              		.file 7 "/usr/arm-none-eabi/include/machine/_default_types.h"
 1390              		.file 8 "/usr/arm-none-eabi/include/sys/_stdint.h"
 1391              		.file 9 "ChibiOS_3.0.2/os/rt/ports/ARMCMx/compilers/GCC/chtypes.h"
 1392              		.file 10 "ChibiOS_3.0.2/os/rt/include/chsystypes.h"
 1393              		.file 11 "ChibiOS_3.0.2/os/rt/include/chschd.h"
 1394              		.file 12 "ChibiOS_3.0.2/os/ext/CMSIS/include/core_cm4.h"
 1395              		.file 13 "ChibiOS_3.0.2/os/ext/CMSIS/ST/system_stm32f4xx.h"
 1396              		.file 14 "ChibiOS_3.0.2/os/ext/CMSIS/ST/stm32f407xx.h"
 1397              		.file 15 "ChibiOS_3.0.2/os/rt/ports/ARMCMx/chcore.h"
 1398              		.file 16 "ChibiOS_3.0.2/os/rt/ports/ARMCMx/chcore_v7m.h"
 1399              		.file 17 "ChibiOS_3.0.2/os/rt/include/chtm.h"
 1400              		.file 18 "ChibiOS_3.0.2/os/rt/include/chsem.h"
 1401              		.file 19 "ChibiOS_3.0.2/os/rt/include/chmtx.h"
 1402              		.file 20 "ChibiOS_3.0.2/os/rt/include/chregistry.h"
 1403              		.file 21 "./conf_general.h"
 1404              		.file 22 "ChibiOS_3.0.2/os/hal/ports/STM32/STM32F4xx/stm32_dma.h"
 1405              		.file 23 "ChibiOS_3.0.2/os/hal/ports/STM32/LLD/GPIOv2/pal_lld.h"
 1406              		.file 24 "ChibiOS_3.0.2/os/hal/include/can.h"
 1407              		.file 25 "ChibiOS_3.0.2/os/hal/ports/STM32/LLD/can_lld.h"
 1408              		.file 26 "ChibiOS_3.0.2/os/hal/include/i2c.h"
 1409              		.file 27 "ChibiOS_3.0.2/os/hal/ports/STM32/LLD/I2Cv1/i2c_lld.h"
 1410              		.file 28 "ChibiOS_3.0.2/os/hal/include/icu.h"
 1411              		.file 29 "ChibiOS_3.0.2/os/hal/ports/STM32/LLD/TIMv1/icu_lld.h"
 1412              		.file 30 "ChibiOS_3.0.2/os/hal/ports/STM32/LLD/TIMv1/stm32_tim.h"
 1413              		.file 31 "ChibiOS_3.0.2/os/hal/include/spi.h"
 1414              		.file 32 "ChibiOS_3.0.2/os/hal/ports/STM32/LLD/SPIv1/spi_lld.h"
 1415              		.file 33 "ChibiOS_3.0.2/os/hal/include/uart.h"
 1416              		.file 34 "ChibiOS_3.0.2/os/hal/ports/STM32/LLD/USARTv1/uart_lld.h"
 1417              		.file 35 "ChibiOS_3.0.2/os/hal/include/usb.h"
 1418              		.file 36 "ChibiOS_3.0.2/os/hal/ports/STM32/LLD/OTGv1/usb_lld.h"
 1419              		.file 37 "ChibiOS_3.0.2/os/hal/ports/STM32/LLD/OTGv1/stm32_otg.h"
 1420              		.file 38 "ChibiOS_3.0.2/os/hal/include/serial_usb.h"
 1421              		.file 39 "ChibiOS_3.0.2/os/rt/include/chsys.h"