ARM GAS  /tmp/ccQjvlre.s 			page 1


   1              		.cpu cortex-m4
   2              		.eabi_attribute 27, 1
   3              		.eabi_attribute 28, 1
   4              		.eabi_attribute 20, 1
   5              		.eabi_attribute 21, 1
   6              		.eabi_attribute 23, 3
   7              		.eabi_attribute 24, 1
   8              		.eabi_attribute 25, 1
   9              		.eabi_attribute 26, 1
  10              		.eabi_attribute 30, 2
  11              		.eabi_attribute 34, 1
  12              		.eabi_attribute 18, 4
  13              		.file	"servo_dec.c"
  14              		.text
  15              	.Ltext0:
  16              		.cfi_sections	.debug_frame
  17              		.section	.text.icuperiodcb,"ax",%progbits
  18              		.align	1
  19              		.p2align 4,,15
  20              		.syntax unified
  21              		.thumb
  22              		.thumb_func
  23              		.fpu fpv4-sp-d16
  24              		.type	icuperiodcb, %function
  25              	icuperiodcb:
  26              	.LFB257:
  27              		.file 1 "servo_dec.c"
  28              		.loc 1 89 0
  29              		.cfi_startproc
  30              		@ args = 0, pretend = 0, frame = 0
  31              		@ frame_needed = 0, uses_anonymous_args = 0
  32              		@ link register save eliminated.
  33              	.LVL0:
  34              		.loc 1 91 0
  35 0000 7047     		bx	lr
  36              		.cfi_endproc
  37              	.LFE257:
  38              		.size	icuperiodcb, .-icuperiodcb
  39 0002 00BF     		.section	.text.icuwidthcb,"ax",%progbits
  40              		.align	1
  41              		.p2align 4,,15
  42              		.syntax unified
  43              		.thumb
  44              		.thumb_func
  45              		.fpu fpv4-sp-d16
  46              		.type	icuwidthcb, %function
  47              	icuwidthcb:
  48              	.LFB256:
  49              		.loc 1 45 0
  50              		.cfi_startproc
  51              		@ args = 0, pretend = 0, frame = 0
  52              		@ frame_needed = 0, uses_anonymous_args = 0
  53              	.LVL1:
  54              		.loc 1 46 0
  55 0000 0369     		ldr	r3, [r0, #16]
  56 0002 DFED406A 		vldr.32	s13, .L28
  57 0006 1B68     		ldr	r3, [r3]
ARM GAS  /tmp/ccQjvlre.s 			page 2


  58 0008 3F49     		ldr	r1, .L28+4
  59              		.loc 1 47 0
  60 000a 404A     		ldr	r2, .L28+8
  61              		.loc 1 48 0
  62 000c 4048     		ldr	r0, .L28+12
  63              	.LVL2:
  64              		.loc 1 46 0
  65 000e 0133     		adds	r3, r3, #1
  66 0010 07EE903A 		vmov	s15, r3	@ int
  67 0014 F8EE677A 		vcvt.f32.u32	s15, s15
  68 0018 87EEA67A 		vdiv.f32	s14, s15, s13
  69 001c 81ED007A 		vstr.32	s14, [r1]
  70              		.loc 1 47 0
  71 0020 D1ED007A 		vldr.32	s15, [r1]
  72 0024 92ED006A 		vldr.32	s12, [r2]
  73              		.loc 1 48 0
  74 0028 90ED007A 		vldr.32	s14, [r0]
  75 002c D2ED006A 		vldr.32	s13, [r2]
  76              		.loc 1 47 0
  77 0030 77EEC67A 		vsub.f32	s15, s15, s12
  78              	.LVL3:
  79              		.loc 1 48 0
  80 0034 37EE667A 		vsub.f32	s14, s14, s13
  81              	.LVL4:
  82              		.loc 1 50 0
  83 0038 F4EEC77A 		vcmpe.f32	s15, s14
  84 003c F1EE10FA 		vmrs	APSR_nzcv, FPSCR
  85 0040 30DD     		ble	.L22
  86              		.loc 1 51 0
  87 0042 DFED346A 		vldr.32	s13, .L28+16
  88 0046 67EE266A 		vmul.f32	s13, s14, s13
  89 004a F4EEE76A 		vcmpe.f32	s13, s15
  90 004e F1EE10FA 		vmrs	APSR_nzcv, FPSCR
  91 0052 3CDD     		ble	.L26
  92              		.loc 1 52 0
  93 0054 F0EE477A 		vmov.f32	s15, s14
  94              	.LVL5:
  95              	.L6:
  96              		.loc 1 66 0
  97 0058 F5EEC07A 		vcmpe.f32	s15, #0
  98 005c F1EE10FA 		vmrs	APSR_nzcv, FPSCR
  99 0060 4EDB     		blt	.L24
 100 0062 77EEA77A 		vadd.f32	s15, s15, s15
 101              	.LVL6:
 102              	.L9:
 103              		.loc 1 45 0
 104 0066 70B5     		push	{r4, r5, r6, lr}
 105              		.cfi_def_cfa_offset 16
 106              		.cfi_offset 4, -16
 107              		.cfi_offset 5, -12
 108              		.cfi_offset 6, -8
 109              		.cfi_offset 14, -4
 110              		.loc 1 67 0
 111 0068 2B4B     		ldr	r3, .L28+20
 112 006a 77EEC77A 		vsub.f32	s15, s15, s14
 113 006e 1B78     		ldrb	r3, [r3]	@ zero_extendqisi2
 114              		.loc 1 45 0
ARM GAS  /tmp/ccQjvlre.s 			page 3


 115 0070 2DED028B 		vpush.64	{d8}
 116              		.cfi_def_cfa_offset 24
 117              		.cfi_offset 80, -24
 118              		.cfi_offset 81, -20
 119 0074 87EE878A 		vdiv.f32	s16, s15, s14
 120              		.loc 1 67 0
 121 0078 53BB     		cbnz	r3, .L27
 122              		.loc 1 78 0
 123 007a 284B     		ldr	r3, .L28+24
 124 007c 83ED008A 		vstr.32	s16, [r3]
 125              	.LVL7:
 126              	.L13:
 127              	.LBB46:
 128              	.LBB47:
 129              	.LBB48:
 130              	.LBB49:
 131              	.LBB50:
 132              	.LBB51:
 133              		.file 2 "ChibiOS_3.0.2/os/ext/CMSIS/include/core_cmFunc.h"
 134              		.loc 2 546 0
 135 0080 2023     		movs	r3, #32
 136              		.syntax unified
 137              	@ 546 "ChibiOS_3.0.2/os/ext/CMSIS/include/core_cmFunc.h" 1
 138 0082 83F31188 		MSR basepri, r3
 139              	@ 0 "" 2
 140              	.LVL8:
 141              		.thumb
 142              		.syntax unified
 143              	.LBE51:
 144              	.LBE50:
 145              	.LBE49:
 146              	.LBE48:
 147              	.LBB52:
 148              	.LBB53:
 149              		.file 3 "ChibiOS_3.0.2/os/rt/include/chvt.h"
 150              		.loc 3 231 0
 151 0086 264A     		ldr	r2, .L28+28
 152              	.LBE53:
 153              	.LBE52:
 154              	.LBB55:
 155              	.LBB56:
 156              	.LBB57:
 157              	.LBB58:
 158              	.LBB59:
 159              		.loc 2 546 0
 160 0088 0023     		movs	r3, #0
 161              	.LBE59:
 162              	.LBE58:
 163              	.LBE57:
 164              	.LBE56:
 165              	.LBE55:
 166              	.LBB64:
 167              	.LBB54:
 168              		.loc 3 231 0
 169 008a 916A     		ldr	r1, [r2, #40]
 170              	.LVL9:
 171              	.LBE54:
ARM GAS  /tmp/ccQjvlre.s 			page 4


 172              	.LBE64:
 173              	.LBB65:
 174              	.LBB63:
 175              	.LBB62:
 176              	.LBB61:
 177              	.LBB60:
 178              		.loc 2 546 0
 179              		.syntax unified
 180              	@ 546 "ChibiOS_3.0.2/os/ext/CMSIS/include/core_cmFunc.h" 1
 181 008c 83F31188 		MSR basepri, r3
 182              	@ 0 "" 2
 183              	.LVL10:
 184              		.thumb
 185              		.syntax unified
 186              	.LBE60:
 187              	.LBE61:
 188              	.LBE62:
 189              	.LBE63:
 190              	.LBE65:
 191              	.LBE47:
 192              	.LBE46:
 193              		.loc 1 83 0
 194 0090 244B     		ldr	r3, .L28+32
 195              		.loc 1 81 0
 196 0092 254A     		ldr	r2, .L28+36
 197              		.loc 1 83 0
 198 0094 1B68     		ldr	r3, [r3]
 199              		.loc 1 81 0
 200 0096 1160     		str	r1, [r2]
 201              		.loc 1 83 0
 202 0098 63B3     		cbz	r3, .L3
 203              		.loc 1 87 0
 204 009a BDEC028B 		vldm	sp!, {d8}
 205              		.cfi_restore 80
 206              		.cfi_restore 81
 207              		.cfi_def_cfa_offset 16
 208 009e BDE87040 		pop	{r4, r5, r6, lr}
 209              		.cfi_restore 14
 210              		.cfi_restore 6
 211              		.cfi_restore 5
 212              		.cfi_restore 4
 213              		.cfi_def_cfa_offset 0
 214              		.loc 1 84 0
 215 00a2 1847     		bx	r3	@ indirect register sibling call
 216              	.LVL11:
 217              	.L22:
 218              		.loc 1 57 0
 219 00a4 F5EEC07A 		vcmpe.f32	s15, #0
 220 00a8 F1EE10FA 		vmrs	APSR_nzcv, FPSCR
 221 00ac D4D5     		bpl	.L6
 222              		.loc 1 58 0
 223 00ae 92ED006A 		vldr.32	s12, [r2]
 224 00b2 DFED1E5A 		vldr.32	s11, .L28+40
 225 00b6 D2ED006A 		vldr.32	s13, [r2]
 226 00ba 76EE277A 		vadd.f32	s15, s12, s15
 227              	.LVL12:
 228 00be 66EEA56A 		vmul.f32	s13, s13, s11
ARM GAS  /tmp/ccQjvlre.s 			page 5


 229 00c2 F4EEE67A 		vcmpe.f32	s15, s13
 230 00c6 F1EE10FA 		vmrs	APSR_nzcv, FPSCR
 231 00ca 16DC     		bgt	.L15
 232 00cc 7047     		bx	lr
 233              	.LVL13:
 234              	.L26:
 235 00ce 7047     		bx	lr
 236              	.LVL14:
 237              	.L27:
 238              		.cfi_def_cfa_offset 24
 239              		.cfi_offset 4, -16
 240              		.cfi_offset 5, -12
 241              		.cfi_offset 6, -8
 242              		.cfi_offset 14, -4
 243              		.cfi_offset 80, -24
 244              		.cfi_offset 81, -20
 245              	.LBB66:
 246              		.loc 1 71 0
 247 00d0 174C     		ldr	r4, .L28+44
 248 00d2 184D     		ldr	r5, .L28+48
 249 00d4 D4ED000A 		vldr.32	s1, [r4]
 250 00d8 95ED001A 		vldr.32	s2, [r5]
 251 00dc B0EE480A 		vmov.f32	s0, s16
 252 00e0 FFF7FEFF 		bl	utils_middle_of_3
 253              	.LVL15:
 254              		.loc 1 76 0
 255 00e4 0D4B     		ldr	r3, .L28+24
 256              		.loc 1 73 0
 257 00e6 2268     		ldr	r2, [r4]	@ float
 258 00e8 2A60     		str	r2, [r5]	@ float
 259              		.loc 1 74 0
 260 00ea 84ED008A 		vstr.32	s16, [r4]
 261              		.loc 1 76 0
 262 00ee 83ED000A 		vstr.32	s0, [r3]
 263              	.LBE66:
 264 00f2 C5E7     		b	.L13
 265              	.LVL16:
 266              	.L3:
 267              		.loc 1 87 0
 268 00f4 BDEC028B 		vldm	sp!, {d8}
 269              		.cfi_restore 80
 270              		.cfi_restore 81
 271              		.cfi_def_cfa_offset 16
 272 00f8 70BD     		pop	{r4, r5, r6, pc}
 273              	.LVL17:
 274              	.L15:
 275              		.cfi_def_cfa_offset 0
 276              		.cfi_restore 4
 277              		.cfi_restore 5
 278              		.cfi_restore 6
 279              		.cfi_restore 14
 280 00fa DFED0F7A 		vldr.32	s15, .L28+52
 281 00fe B2E7     		b	.L9
 282              	.LVL18:
 283              	.L24:
 284 0100 7047     		bx	lr
 285              	.L29:
ARM GAS  /tmp/ccQjvlre.s 			page 6


 286 0102 00BF     		.align	2
 287              	.L28:
 288 0104 00007A44 		.word	1148846080
 289 0108 00000000 		.word	.LANCHOR0
 290 010c 00000000 		.word	.LANCHOR1
 291 0110 00000000 		.word	.LANCHOR2
 292 0114 9A99993F 		.word	1067030938
 293 0118 00000000 		.word	.LANCHOR3
 294 011c 00000000 		.word	.LANCHOR6
 295 0120 00000000 		.word	ch
 296 0124 00000000 		.word	.LANCHOR8
 297 0128 00000000 		.word	.LANCHOR7
 298 012c CDCC4C3F 		.word	1061997773
 299 0130 00000000 		.word	.LANCHOR5
 300 0134 00000000 		.word	.LANCHOR4
 301 0138 00000000 		.word	0
 302              		.cfi_endproc
 303              	.LFE256:
 304              		.size	icuwidthcb, .-icuwidthcb
 305              		.section	.text.servodec_init,"ax",%progbits
 306              		.align	1
 307              		.p2align 4,,15
 308              		.global	servodec_init
 309              		.syntax unified
 310              		.thumb
 311              		.thumb_func
 312              		.fpu fpv4-sp-d16
 313              		.type	servodec_init, %function
 314              	servodec_init:
 315              	.LFB258:
 316              		.loc 1 110 0
 317              		.cfi_startproc
 318              		@ args = 0, pretend = 0, frame = 0
 319              		@ frame_needed = 0, uses_anonymous_args = 0
 320              	.LVL19:
 321 0000 38B5     		push	{r3, r4, r5, lr}
 322              		.cfi_def_cfa_offset 16
 323              		.cfi_offset 3, -16
 324              		.cfi_offset 4, -12
 325              		.cfi_offset 5, -8
 326              		.cfi_offset 14, -4
 327              		.loc 1 111 0
 328 0002 0E4C     		ldr	r4, .L32
 329 0004 0E49     		ldr	r1, .L32+4
 330              		.loc 1 110 0
 331 0006 0546     		mov	r5, r0
 332              		.loc 1 111 0
 333 0008 2046     		mov	r0, r4
 334              	.LVL20:
 335 000a FFF7FEFF 		bl	icuStart
 336              	.LVL21:
 337              		.loc 1 112 0
 338 000e 4FF48172 		mov	r2, #258
 339 0012 2021     		movs	r1, #32
 340 0014 0B48     		ldr	r0, .L32+8
 341 0016 FFF7FEFF 		bl	_pal_lld_setgroupmode
 342              	.LVL22:
ARM GAS  /tmp/ccQjvlre.s 			page 7


 343              		.loc 1 113 0
 344 001a 2046     		mov	r0, r4
 345 001c FFF7FEFF 		bl	icuStartCapture
 346              	.LVL23:
 347              		.loc 1 114 0
 348 0020 2046     		mov	r0, r4
 349 0022 FFF7FEFF 		bl	icuEnableNotifications
 350              	.LVL24:
 351              		.loc 1 122 0
 352 0026 0849     		ldr	r1, .L32+12
 353              	.LBB67:
 354              		.loc 1 117 0
 355 0028 084C     		ldr	r4, .L32+16
 356              		.loc 1 118 0
 357 002a 0948     		ldr	r0, .L32+20
 358              	.LBE67:
 359              		.loc 1 124 0
 360 002c 094A     		ldr	r2, .L32+24
 361              		.loc 1 122 0
 362 002e 0D60     		str	r5, [r1]
 363              	.LBB68:
 364              		.loc 1 117 0
 365 0030 0023     		movs	r3, #0
 366              	.LBE68:
 367              		.loc 1 124 0
 368 0032 0121     		movs	r1, #1
 369              	.LBB69:
 370              		.loc 1 117 0
 371 0034 2360     		str	r3, [r4]	@ float
 372              		.loc 1 118 0
 373 0036 0360     		str	r3, [r0]	@ float
 374              	.LVL25:
 375              	.LBE69:
 376              		.loc 1 124 0
 377 0038 1170     		strb	r1, [r2]
 378              		.loc 1 125 0
 379 003a 38BD     		pop	{r3, r4, r5, pc}
 380              	.LVL26:
 381              	.L33:
 382              		.align	2
 383              	.L32:
 384 003c 00000000 		.word	ICUD3
 385 0040 00000000 		.word	.LANCHOR9
 386 0044 00040240 		.word	1073873920
 387 0048 00000000 		.word	.LANCHOR8
 388 004c 00000000 		.word	.LANCHOR6
 389 0050 00000000 		.word	.LANCHOR0
 390 0054 00000000 		.word	.LANCHOR10
 391              		.cfi_endproc
 392              	.LFE258:
 393              		.size	servodec_init, .-servodec_init
 394              		.section	.text.servodec_stop,"ax",%progbits
 395              		.align	1
 396              		.p2align 4,,15
 397              		.global	servodec_stop
 398              		.syntax unified
 399              		.thumb
ARM GAS  /tmp/ccQjvlre.s 			page 8


 400              		.thumb_func
 401              		.fpu fpv4-sp-d16
 402              		.type	servodec_stop, %function
 403              	servodec_stop:
 404              	.LFB259:
 405              		.loc 1 130 0
 406              		.cfi_startproc
 407              		@ args = 0, pretend = 0, frame = 0
 408              		@ frame_needed = 0, uses_anonymous_args = 0
 409 0000 38B5     		push	{r3, r4, r5, lr}
 410              		.cfi_def_cfa_offset 16
 411              		.cfi_offset 3, -16
 412              		.cfi_offset 4, -12
 413              		.cfi_offset 5, -8
 414              		.cfi_offset 14, -4
 415              		.loc 1 131 0
 416 0002 0D4C     		ldr	r4, .L40
 417 0004 2378     		ldrb	r3, [r4]	@ zero_extendqisi2
 418 0006 A3B1     		cbz	r3, .L35
 419              		.loc 1 132 0
 420 0008 0C48     		ldr	r0, .L40+4
 421 000a FFF7FEFF 		bl	icuStop
 422              	.LVL27:
 423              		.loc 1 133 0
 424 000e 0022     		movs	r2, #0
 425 0010 2021     		movs	r1, #32
 426 0012 0B48     		ldr	r0, .L40+8
 427 0014 FFF7FEFF 		bl	_pal_lld_setgroupmode
 428              	.LVL28:
 429              		.loc 1 134 0
 430 0018 0A4B     		ldr	r3, .L40+12
 431              		.loc 1 135 0
 432 001a 0B48     		ldr	r0, .L40+16
 433              		.loc 1 136 0
 434 001c 0B4A     		ldr	r2, .L40+20
 435              		.loc 1 137 0
 436 001e 0C49     		ldr	r1, .L40+24
 437              		.loc 1 134 0
 438 0020 4FF07E55 		mov	r5, #1065353216
 439 0024 1D60     		str	r5, [r3]	@ float
 440              		.loc 1 136 0
 441 0026 0023     		movs	r3, #0
 442              		.loc 1 135 0
 443 0028 4FF08045 		mov	r5, #1073741824
 444 002c 0560     		str	r5, [r0]	@ float
 445              		.loc 1 137 0
 446 002e 0B60     		str	r3, [r1]
 447              		.loc 1 136 0
 448 0030 1370     		strb	r3, [r2]
 449              	.L35:
 450              		.loc 1 140 0
 451 0032 0023     		movs	r3, #0
 452 0034 2370     		strb	r3, [r4]
 453              		.loc 1 141 0
 454 0036 38BD     		pop	{r3, r4, r5, pc}
 455              	.L41:
 456              		.align	2
ARM GAS  /tmp/ccQjvlre.s 			page 9


 457              	.L40:
 458 0038 00000000 		.word	.LANCHOR10
 459 003c 00000000 		.word	ICUD3
 460 0040 00040240 		.word	1073873920
 461 0044 00000000 		.word	.LANCHOR1
 462 0048 00000000 		.word	.LANCHOR2
 463 004c 00000000 		.word	.LANCHOR3
 464 0050 00000000 		.word	.LANCHOR8
 465              		.cfi_endproc
 466              	.LFE259:
 467              		.size	servodec_stop, .-servodec_stop
 468              		.section	.text.servodec_set_pulse_options,"ax",%progbits
 469              		.align	1
 470              		.p2align 4,,15
 471              		.global	servodec_set_pulse_options
 472              		.syntax unified
 473              		.thumb
 474              		.thumb_func
 475              		.fpu fpv4-sp-d16
 476              		.type	servodec_set_pulse_options, %function
 477              	servodec_set_pulse_options:
 478              	.LFB260:
 479              		.loc 1 152 0
 480              		.cfi_startproc
 481              		@ args = 0, pretend = 0, frame = 0
 482              		@ frame_needed = 0, uses_anonymous_args = 0
 483              		@ link register save eliminated.
 484              	.LVL29:
 485              		.loc 1 153 0
 486 0000 0449     		ldr	r1, .L43
 487              		.loc 1 154 0
 488 0002 054A     		ldr	r2, .L43+4
 489              		.loc 1 155 0
 490 0004 054B     		ldr	r3, .L43+8
 491              		.loc 1 153 0
 492 0006 81ED000A 		vstr.32	s0, [r1]
 493              		.loc 1 154 0
 494 000a C2ED000A 		vstr.32	s1, [r2]
 495              		.loc 1 155 0
 496 000e 1870     		strb	r0, [r3]
 497              		.loc 1 156 0
 498 0010 7047     		bx	lr
 499              	.L44:
 500 0012 00BF     		.align	2
 501              	.L43:
 502 0014 00000000 		.word	.LANCHOR1
 503 0018 00000000 		.word	.LANCHOR2
 504 001c 00000000 		.word	.LANCHOR3
 505              		.cfi_endproc
 506              	.LFE260:
 507              		.size	servodec_set_pulse_options, .-servodec_set_pulse_options
 508              		.section	.text.servodec_get_servo,"ax",%progbits
 509              		.align	1
 510              		.p2align 4,,15
 511              		.global	servodec_get_servo
 512              		.syntax unified
 513              		.thumb
ARM GAS  /tmp/ccQjvlre.s 			page 10


 514              		.thumb_func
 515              		.fpu fpv4-sp-d16
 516              		.type	servodec_get_servo, %function
 517              	servodec_get_servo:
 518              	.LFB261:
 519              		.loc 1 167 0
 520              		.cfi_startproc
 521              		@ args = 0, pretend = 0, frame = 0
 522              		@ frame_needed = 0, uses_anonymous_args = 0
 523              		@ link register save eliminated.
 524              	.LVL30:
 525              		.loc 1 168 0
 526 0000 0028     		cmp	r0, #0
 527              		.loc 1 169 0
 528 0002 DDBF     		ittte	le
 529 0004 034B     		ldrle	r3, .L48
 530 0006 03EB8000 		addle	r0, r3, r0, lsl #2
 531              	.LVL31:
 532 000a 90ED000A 		vldrle.32	s0, [r0]
 533              		.loc 1 171 0
 534 000e 9FED020A 		vldrgt.32	s0, .L48+4
 535              		.loc 1 173 0
 536 0012 7047     		bx	lr
 537              	.L49:
 538              		.align	2
 539              	.L48:
 540 0014 00000000 		.word	.LANCHOR6
 541 0018 00000000 		.word	0
 542              		.cfi_endproc
 543              	.LFE261:
 544              		.size	servodec_get_servo, .-servodec_get_servo
 545              		.section	.text.servodec_get_time_since_update,"ax",%progbits
 546              		.align	1
 547              		.p2align 4,,15
 548              		.global	servodec_get_time_since_update
 549              		.syntax unified
 550              		.thumb
 551              		.thumb_func
 552              		.fpu fpv4-sp-d16
 553              		.type	servodec_get_time_since_update, %function
 554              	servodec_get_time_since_update:
 555              	.LFB262:
 556              		.loc 1 182 0
 557              		.cfi_startproc
 558              		@ args = 0, pretend = 0, frame = 0
 559              		@ frame_needed = 0, uses_anonymous_args = 0
 560              		@ link register save eliminated.
 561              	.LBB70:
 562              	.LBB71:
 563              	.LBB72:
 564              	.LBB73:
 565              		.loc 3 231 0
 566 0000 044B     		ldr	r3, .L51
 567              	.LBE73:
 568              	.LBE72:
 569              	.LBE71:
 570              	.LBE70:
ARM GAS  /tmp/ccQjvlre.s 			page 11


 571              		.loc 1 183 0
 572 0002 054A     		ldr	r2, .L51+4
 573 0004 1268     		ldr	r2, [r2]
 574              	.LVL32:
 575              	.LBB78:
 576              	.LBB76:
 577              	.LBB75:
 578              	.LBB74:
 579              		.loc 3 231 0
 580 0006 986A     		ldr	r0, [r3, #40]
 581              	.LVL33:
 582              	.LBE74:
 583              	.LBE75:
 584              	.LBE76:
 585              	.LBE78:
 586              		.loc 1 183 0
 587 0008 044B     		ldr	r3, .L51+8
 588              	.LBB79:
 589              	.LBB77:
 590              		.loc 3 267 0
 591 000a 801A     		subs	r0, r0, r2
 592              	.LBE77:
 593              	.LBE79:
 594              		.loc 1 183 0
 595 000c A3FB0030 		umull	r3, r0, r3, r0
 596              		.loc 1 184 0
 597 0010 C008     		lsrs	r0, r0, #3
 598 0012 7047     		bx	lr
 599              	.L52:
 600              		.align	2
 601              	.L51:
 602 0014 00000000 		.word	ch
 603 0018 00000000 		.word	.LANCHOR7
 604 001c CDCCCCCC 		.word	-858993459
 605              		.cfi_endproc
 606              	.LFE262:
 607              		.size	servodec_get_time_since_update, .-servodec_get_time_since_update
 608              		.section	.text.servodec_get_last_pulse_len,"ax",%progbits
 609              		.align	1
 610              		.p2align 4,,15
 611              		.global	servodec_get_last_pulse_len
 612              		.syntax unified
 613              		.thumb
 614              		.thumb_func
 615              		.fpu fpv4-sp-d16
 616              		.type	servodec_get_last_pulse_len, %function
 617              	servodec_get_last_pulse_len:
 618              	.LFB263:
 619              		.loc 1 195 0
 620              		.cfi_startproc
 621              		@ args = 0, pretend = 0, frame = 0
 622              		@ frame_needed = 0, uses_anonymous_args = 0
 623              		@ link register save eliminated.
 624              	.LVL34:
 625              		.loc 1 196 0
 626 0000 0028     		cmp	r0, #0
 627              		.loc 1 197 0
ARM GAS  /tmp/ccQjvlre.s 			page 12


 628 0002 DDBF     		ittte	le
 629 0004 034B     		ldrle	r3, .L56
 630 0006 03EB8000 		addle	r0, r3, r0, lsl #2
 631              	.LVL35:
 632 000a 90ED000A 		vldrle.32	s0, [r0]
 633              		.loc 1 199 0
 634 000e 9FED020A 		vldrgt.32	s0, .L56+4
 635              		.loc 1 201 0
 636 0012 7047     		bx	lr
 637              	.L57:
 638              		.align	2
 639              	.L56:
 640 0014 00000000 		.word	.LANCHOR0
 641 0018 00000000 		.word	0
 642              		.cfi_endproc
 643              	.LFE263:
 644              		.size	servodec_get_last_pulse_len, .-servodec_get_last_pulse_len
 645              		.section	.bss.done_func,"aw",%nobits
 646              		.align	2
 647              		.set	.LANCHOR8,. + 0
 648              		.type	done_func, %object
 649              		.size	done_func, 4
 650              	done_func:
 651 0000 00000000 		.space	4
 652              		.section	.bss.is_running,"aw",%nobits
 653              		.set	.LANCHOR10,. + 0
 654              		.type	is_running, %object
 655              		.size	is_running, 1
 656              	is_running:
 657 0000 00       		.space	1
 658              		.section	.bss.last_len_received,"aw",%nobits
 659              		.align	2
 660              		.set	.LANCHOR0,. + 0
 661              		.type	last_len_received, %object
 662              		.size	last_len_received, 4
 663              	last_len_received:
 664 0000 00000000 		.space	4
 665              		.section	.bss.last_update_time,"aw",%nobits
 666              		.align	2
 667              		.set	.LANCHOR7,. + 0
 668              		.type	last_update_time, %object
 669              		.size	last_update_time, 4
 670              	last_update_time:
 671 0000 00000000 		.space	4
 672              		.section	.bss.servo_pos,"aw",%nobits
 673              		.align	2
 674              		.set	.LANCHOR6,. + 0
 675              		.type	servo_pos, %object
 676              		.size	servo_pos, 4
 677              	servo_pos:
 678 0000 00000000 		.space	4
 679              		.section	.bss.use_median_filter,"aw",%nobits
 680              		.set	.LANCHOR3,. + 0
 681              		.type	use_median_filter, %object
 682              		.size	use_median_filter, 1
 683              	use_median_filter:
 684 0000 00       		.space	1
ARM GAS  /tmp/ccQjvlre.s 			page 13


 685              		.section	.data.c1.10540,"aw",%progbits
 686              		.align	2
 687              		.set	.LANCHOR5,. + 0
 688              		.type	c1.10540, %object
 689              		.size	c1.10540, 4
 690              	c1.10540:
 691 0000 0000003F 		.word	1056964608
 692              		.section	.data.c2.10541,"aw",%progbits
 693              		.align	2
 694              		.set	.LANCHOR4,. + 0
 695              		.type	c2.10541, %object
 696              		.size	c2.10541, 4
 697              	c2.10541:
 698 0000 0000003F 		.word	1056964608
 699              		.section	.data.icucfg,"aw",%progbits
 700              		.align	2
 701              		.set	.LANCHOR9,. + 0
 702              		.type	icucfg, %object
 703              		.size	icucfg, 28
 704              	icucfg:
 705 0000 00       		.byte	0
 706 0001 000000   		.space	3
 707 0004 40420F00 		.word	1000000
 708 0008 00000000 		.word	icuwidthcb
 709 000c 00000000 		.word	icuperiodcb
 710 0010 00000000 		.word	0
 711 0014 01       		.byte	1
 712 0015 000000   		.space	3
 713 0018 00000000 		.word	0
 714              		.section	.data.pulse_end,"aw",%progbits
 715              		.align	2
 716              		.set	.LANCHOR2,. + 0
 717              		.type	pulse_end, %object
 718              		.size	pulse_end, 4
 719              	pulse_end:
 720 0000 00000040 		.word	1073741824
 721              		.section	.data.pulse_start,"aw",%progbits
 722              		.align	2
 723              		.set	.LANCHOR1,. + 0
 724              		.type	pulse_start, %object
 725              		.size	pulse_start, 4
 726              	pulse_start:
 727 0000 0000803F 		.word	1065353216
 728              		.text
 729              	.Letext0:
 730              		.file 4 "/usr/arm-none-eabi/include/machine/_default_types.h"
 731              		.file 5 "/usr/arm-none-eabi/include/sys/_stdint.h"
 732              		.file 6 "/usr/lib/gcc/arm-none-eabi/7.3.1/include/stddef.h"
 733              		.file 7 "ChibiOS_3.0.2/os/rt/ports/ARMCMx/compilers/GCC/chtypes.h"
 734              		.file 8 "ChibiOS_3.0.2/os/rt/include/chsystypes.h"
 735              		.file 9 "ChibiOS_3.0.2/os/rt/include/chschd.h"
 736              		.file 10 "ChibiOS_3.0.2/os/ext/CMSIS/include/core_cm4.h"
 737              		.file 11 "ChibiOS_3.0.2/os/ext/CMSIS/ST/system_stm32f4xx.h"
 738              		.file 12 "ChibiOS_3.0.2/os/ext/CMSIS/ST/stm32f407xx.h"
 739              		.file 13 "ChibiOS_3.0.2/os/rt/ports/ARMCMx/chcore.h"
 740              		.file 14 "ChibiOS_3.0.2/os/rt/ports/ARMCMx/chcore_v7m.h"
 741              		.file 15 "ChibiOS_3.0.2/os/rt/include/chtm.h"
ARM GAS  /tmp/ccQjvlre.s 			page 14


 742              		.file 16 "ChibiOS_3.0.2/os/rt/include/chsem.h"
 743              		.file 17 "ChibiOS_3.0.2/os/rt/include/chmtx.h"
 744              		.file 18 "ChibiOS_3.0.2/os/rt/include/chregistry.h"
 745              		.file 19 "ChibiOS_3.0.2/os/rt/include/chevents.h"
 746              		.file 20 "ChibiOS_3.0.2/os/rt/include/chqueues.h"
 747              		.file 21 "./conf_general.h"
 748              		.file 22 "ChibiOS_3.0.2/os/hal/ports/STM32/STM32F4xx/stm32_dma.h"
 749              		.file 23 "ChibiOS_3.0.2/os/hal/ports/STM32/LLD/GPIOv2/pal_lld.h"
 750              		.file 24 "ChibiOS_3.0.2/os/hal/include/can.h"
 751              		.file 25 "ChibiOS_3.0.2/os/hal/ports/STM32/LLD/can_lld.h"
 752              		.file 26 "ChibiOS_3.0.2/os/hal/include/i2c.h"
 753              		.file 27 "ChibiOS_3.0.2/os/hal/ports/STM32/LLD/I2Cv1/i2c_lld.h"
 754              		.file 28 "ChibiOS_3.0.2/os/hal/include/icu.h"
 755              		.file 29 "ChibiOS_3.0.2/os/hal/ports/STM32/LLD/TIMv1/icu_lld.h"
 756              		.file 30 "ChibiOS_3.0.2/os/hal/ports/STM32/LLD/TIMv1/stm32_tim.h"
 757              		.file 31 "ChibiOS_3.0.2/os/hal/include/spi.h"
 758              		.file 32 "ChibiOS_3.0.2/os/hal/ports/STM32/LLD/SPIv1/spi_lld.h"
 759              		.file 33 "ChibiOS_3.0.2/os/hal/include/uart.h"
 760              		.file 34 "ChibiOS_3.0.2/os/hal/ports/STM32/LLD/USARTv1/uart_lld.h"
 761              		.file 35 "ChibiOS_3.0.2/os/hal/include/usb.h"
 762              		.file 36 "ChibiOS_3.0.2/os/hal/ports/STM32/LLD/OTGv1/usb_lld.h"
 763              		.file 37 "ChibiOS_3.0.2/os/hal/ports/STM32/LLD/OTGv1/stm32_otg.h"
 764              		.file 38 "ChibiOS_3.0.2/os/rt/include/chsys.h"
 765              		.file 39 "utils.h"