ARM GAS  /tmp/ccAsNSVy.s 			page 1


   1              		.cpu cortex-m4
   2              		.eabi_attribute 27, 1
   3              		.eabi_attribute 28, 1
   4              		.eabi_attribute 20, 1
   5              		.eabi_attribute 21, 1
   6              		.eabi_attribute 23, 3
   7              		.eabi_attribute 24, 1
   8              		.eabi_attribute 25, 1
   9              		.eabi_attribute 26, 1
  10              		.eabi_attribute 30, 2
  11              		.eabi_attribute 34, 1
  12              		.eabi_attribute 18, 4
  13              		.file	"spi.c"
  14              		.text
  15              	.Ltext0:
  16              		.cfi_sections	.debug_frame
  17              		.section	.text.spiInit,"ax",%progbits
  18              		.align	1
  19              		.p2align 4,,15
  20              		.global	spiInit
  21              		.syntax unified
  22              		.thumb
  23              		.thumb_func
  24              		.fpu fpv4-sp-d16
  25              		.type	spiInit, %function
  26              	spiInit:
  27              	.LFB256:
  28              		.file 1 "ChibiOS_3.0.2/os/hal/src/spi.c"
  29              		.loc 1 56 0
  30              		.cfi_startproc
  31              		@ args = 0, pretend = 0, frame = 0
  32              		@ frame_needed = 0, uses_anonymous_args = 0
  33              		@ link register save eliminated.
  34              		.loc 1 58 0
  35 0000 FFF7FEBF 		b	spi_lld_init
  36              	.LVL0:
  37              		.cfi_endproc
  38              	.LFE256:
  39              		.size	spiInit, .-spiInit
  40              		.section	.text.spiObjectInit,"ax",%progbits
  41              		.align	1
  42              		.p2align 4,,15
  43              		.global	spiObjectInit
  44              		.syntax unified
  45              		.thumb
  46              		.thumb_func
  47              		.fpu fpv4-sp-d16
  48              		.type	spiObjectInit, %function
  49              	spiObjectInit:
  50              	.LFB257:
  51              		.loc 1 68 0
  52              		.cfi_startproc
  53              		@ args = 0, pretend = 0, frame = 0
  54              		@ frame_needed = 0, uses_anonymous_args = 0
  55              		@ link register save eliminated.
  56              	.LVL1:
  57              		.loc 1 70 0
ARM GAS  /tmp/ccAsNSVy.s 			page 2


  58 0000 0122     		movs	r2, #1
  59              		.loc 1 71 0
  60 0002 0023     		movs	r3, #0
  61              		.loc 1 70 0
  62 0004 0270     		strb	r2, [r0]
  63              		.loc 1 73 0
  64 0006 C0E90133 		strd	r3, r3, [r0, #4]
  65              	.LVL2:
  66              	.LBB194:
  67              	.LBB195:
  68              		.file 2 "ChibiOS_3.0.2/os/hal/osal/rt/osal.h"
  69              		.loc 2 887 0
  70 000a 0C30     		adds	r0, r0, #12
  71              	.LVL3:
  72 000c FFF7FEBF 		b	chMtxObjectInit
  73              	.LVL4:
  74              	.LBE195:
  75              	.LBE194:
  76              		.cfi_endproc
  77              	.LFE257:
  78              		.size	spiObjectInit, .-spiObjectInit
  79              		.section	.text.spiStart,"ax",%progbits
  80              		.align	1
  81              		.p2align 4,,15
  82              		.global	spiStart
  83              		.syntax unified
  84              		.thumb
  85              		.thumb_func
  86              		.fpu fpv4-sp-d16
  87              		.type	spiStart, %function
  88              	spiStart:
  89              	.LFB258:
  90              		.loc 1 91 0
  91              		.cfi_startproc
  92              		@ args = 0, pretend = 0, frame = 0
  93              		@ frame_needed = 0, uses_anonymous_args = 0
  94              	.LVL5:
  95 0000 10B5     		push	{r4, lr}
  96              		.cfi_def_cfa_offset 8
  97              		.cfi_offset 4, -8
  98              		.cfi_offset 14, -4
  99              	.LBB196:
 100              	.LBB197:
 101              	.LBB198:
 102              	.LBB199:
 103              	.LBB200:
 104              		.file 3 "ChibiOS_3.0.2/os/ext/CMSIS/include/core_cmFunc.h"
 105              		.loc 3 546 0
 106 0002 2023     		movs	r3, #32
 107              	.LBE200:
 108              	.LBE199:
 109              	.LBE198:
 110              	.LBE197:
 111              	.LBE196:
 112              		.loc 1 91 0
 113 0004 0446     		mov	r4, r0
 114              	.LBB205:
ARM GAS  /tmp/ccAsNSVy.s 			page 3


 115              	.LBB204:
 116              	.LBB203:
 117              	.LBB202:
 118              	.LBB201:
 119              		.loc 3 546 0
 120              		.syntax unified
 121              	@ 546 "ChibiOS_3.0.2/os/ext/CMSIS/include/core_cmFunc.h" 1
 122 0006 83F31188 		MSR basepri, r3
 123              	@ 0 "" 2
 124              	.LVL6:
 125              		.thumb
 126              		.syntax unified
 127              	.LBE201:
 128              	.LBE202:
 129              	.LBE203:
 130              	.LBE204:
 131              	.LBE205:
 132              		.loc 1 98 0
 133 000a 4160     		str	r1, [r0, #4]
 134              		.loc 1 99 0
 135 000c FFF7FEFF 		bl	spi_lld_start
 136              	.LVL7:
 137              		.loc 1 100 0
 138 0010 0223     		movs	r3, #2
 139 0012 2370     		strb	r3, [r4]
 140              	.LVL8:
 141              	.LBB206:
 142              	.LBB207:
 143              	.LBB208:
 144              	.LBB209:
 145              	.LBB210:
 146              	.LBB211:
 147              		.loc 3 546 0
 148 0014 0023     		movs	r3, #0
 149              		.syntax unified
 150              	@ 546 "ChibiOS_3.0.2/os/ext/CMSIS/include/core_cmFunc.h" 1
 151 0016 83F31188 		MSR basepri, r3
 152              	@ 0 "" 2
 153              	.LVL9:
 154              		.thumb
 155              		.syntax unified
 156              	.LBE211:
 157              	.LBE210:
 158              	.LBE209:
 159              	.LBE208:
 160              	.LBE207:
 161              	.LBE206:
 162              		.loc 1 102 0
 163 001a 10BD     		pop	{r4, pc}
 164              		.cfi_endproc
 165              	.LFE258:
 166              		.size	spiStart, .-spiStart
 167              		.section	.text.spiStop,"ax",%progbits
 168              		.align	1
 169              		.p2align 4,,15
 170              		.global	spiStop
 171              		.syntax unified
ARM GAS  /tmp/ccAsNSVy.s 			page 4


 172              		.thumb
 173              		.thumb_func
 174              		.fpu fpv4-sp-d16
 175              		.type	spiStop, %function
 176              	spiStop:
 177              	.LFB259:
 178              		.loc 1 113 0
 179              		.cfi_startproc
 180              		@ args = 0, pretend = 0, frame = 0
 181              		@ frame_needed = 0, uses_anonymous_args = 0
 182              	.LVL10:
 183 0000 10B5     		push	{r4, lr}
 184              		.cfi_def_cfa_offset 8
 185              		.cfi_offset 4, -8
 186              		.cfi_offset 14, -4
 187              	.LBB212:
 188              	.LBB213:
 189              	.LBB214:
 190              	.LBB215:
 191              	.LBB216:
 192              		.loc 3 546 0
 193 0002 2023     		movs	r3, #32
 194              	.LBE216:
 195              	.LBE215:
 196              	.LBE214:
 197              	.LBE213:
 198              	.LBE212:
 199              		.loc 1 113 0
 200 0004 0446     		mov	r4, r0
 201              	.LBB221:
 202              	.LBB220:
 203              	.LBB219:
 204              	.LBB218:
 205              	.LBB217:
 206              		.loc 3 546 0
 207              		.syntax unified
 208              	@ 546 "ChibiOS_3.0.2/os/ext/CMSIS/include/core_cmFunc.h" 1
 209 0006 83F31188 		MSR basepri, r3
 210              	@ 0 "" 2
 211              	.LVL11:
 212              		.thumb
 213              		.syntax unified
 214              	.LBE217:
 215              	.LBE218:
 216              	.LBE219:
 217              	.LBE220:
 218              	.LBE221:
 219              		.loc 1 120 0
 220 000a FFF7FEFF 		bl	spi_lld_stop
 221              	.LVL12:
 222              		.loc 1 121 0
 223 000e 0123     		movs	r3, #1
 224 0010 2370     		strb	r3, [r4]
 225              	.LVL13:
 226              	.LBB222:
 227              	.LBB223:
 228              	.LBB224:
ARM GAS  /tmp/ccAsNSVy.s 			page 5


 229              	.LBB225:
 230              	.LBB226:
 231              	.LBB227:
 232              		.loc 3 546 0
 233 0012 0023     		movs	r3, #0
 234              		.syntax unified
 235              	@ 546 "ChibiOS_3.0.2/os/ext/CMSIS/include/core_cmFunc.h" 1
 236 0014 83F31188 		MSR basepri, r3
 237              	@ 0 "" 2
 238              	.LVL14:
 239              		.thumb
 240              		.syntax unified
 241              	.LBE227:
 242              	.LBE226:
 243              	.LBE225:
 244              	.LBE224:
 245              	.LBE223:
 246              	.LBE222:
 247              		.loc 1 123 0
 248 0018 10BD     		pop	{r4, pc}
 249              		.cfi_endproc
 250              	.LFE259:
 251              		.size	spiStop, .-spiStop
 252 001a 00BF     		.section	.text.spiSelect,"ax",%progbits
 253              		.align	1
 254              		.p2align 4,,15
 255              		.global	spiSelect
 256              		.syntax unified
 257              		.thumb
 258              		.thumb_func
 259              		.fpu fpv4-sp-d16
 260              		.type	spiSelect, %function
 261              	spiSelect:
 262              	.LFB260:
 263              		.loc 1 132 0
 264              		.cfi_startproc
 265              		@ args = 0, pretend = 0, frame = 0
 266              		@ frame_needed = 0, uses_anonymous_args = 0
 267              	.LVL15:
 268 0000 08B5     		push	{r3, lr}
 269              		.cfi_def_cfa_offset 8
 270              		.cfi_offset 3, -8
 271              		.cfi_offset 14, -4
 272              	.LBB228:
 273              	.LBB229:
 274              	.LBB230:
 275              	.LBB231:
 276              	.LBB232:
 277              		.loc 3 546 0
 278 0002 2023     		movs	r3, #32
 279              		.syntax unified
 280              	@ 546 "ChibiOS_3.0.2/os/ext/CMSIS/include/core_cmFunc.h" 1
 281 0004 83F31188 		MSR basepri, r3
 282              	@ 0 "" 2
 283              	.LVL16:
 284              		.thumb
 285              		.syntax unified
ARM GAS  /tmp/ccAsNSVy.s 			page 6


 286              	.LBE232:
 287              	.LBE231:
 288              	.LBE230:
 289              	.LBE229:
 290              	.LBE228:
 291              		.loc 1 138 0
 292 0008 FFF7FEFF 		bl	spi_lld_select
 293              	.LVL17:
 294              	.LBB233:
 295              	.LBB234:
 296              	.LBB235:
 297              	.LBB236:
 298              	.LBB237:
 299              	.LBB238:
 300              		.loc 3 546 0
 301 000c 0023     		movs	r3, #0
 302              		.syntax unified
 303              	@ 546 "ChibiOS_3.0.2/os/ext/CMSIS/include/core_cmFunc.h" 1
 304 000e 83F31188 		MSR basepri, r3
 305              	@ 0 "" 2
 306              	.LVL18:
 307              		.thumb
 308              		.syntax unified
 309              	.LBE238:
 310              	.LBE237:
 311              	.LBE236:
 312              	.LBE235:
 313              	.LBE234:
 314              	.LBE233:
 315              		.loc 1 140 0
 316 0012 08BD     		pop	{r3, pc}
 317              		.cfi_endproc
 318              	.LFE260:
 319              		.size	spiSelect, .-spiSelect
 320              		.section	.text.spiUnselect,"ax",%progbits
 321              		.align	1
 322              		.p2align 4,,15
 323              		.global	spiUnselect
 324              		.syntax unified
 325              		.thumb
 326              		.thumb_func
 327              		.fpu fpv4-sp-d16
 328              		.type	spiUnselect, %function
 329              	spiUnselect:
 330              	.LFB261:
 331              		.loc 1 150 0
 332              		.cfi_startproc
 333              		@ args = 0, pretend = 0, frame = 0
 334              		@ frame_needed = 0, uses_anonymous_args = 0
 335              	.LVL19:
 336 0000 08B5     		push	{r3, lr}
 337              		.cfi_def_cfa_offset 8
 338              		.cfi_offset 3, -8
 339              		.cfi_offset 14, -4
 340              	.LBB239:
 341              	.LBB240:
 342              	.LBB241:
ARM GAS  /tmp/ccAsNSVy.s 			page 7


 343              	.LBB242:
 344              	.LBB243:
 345              		.loc 3 546 0
 346 0002 2023     		movs	r3, #32
 347              		.syntax unified
 348              	@ 546 "ChibiOS_3.0.2/os/ext/CMSIS/include/core_cmFunc.h" 1
 349 0004 83F31188 		MSR basepri, r3
 350              	@ 0 "" 2
 351              	.LVL20:
 352              		.thumb
 353              		.syntax unified
 354              	.LBE243:
 355              	.LBE242:
 356              	.LBE241:
 357              	.LBE240:
 358              	.LBE239:
 359              		.loc 1 156 0
 360 0008 FFF7FEFF 		bl	spi_lld_unselect
 361              	.LVL21:
 362              	.LBB244:
 363              	.LBB245:
 364              	.LBB246:
 365              	.LBB247:
 366              	.LBB248:
 367              	.LBB249:
 368              		.loc 3 546 0
 369 000c 0023     		movs	r3, #0
 370              		.syntax unified
 371              	@ 546 "ChibiOS_3.0.2/os/ext/CMSIS/include/core_cmFunc.h" 1
 372 000e 83F31188 		MSR basepri, r3
 373              	@ 0 "" 2
 374              	.LVL22:
 375              		.thumb
 376              		.syntax unified
 377              	.LBE249:
 378              	.LBE248:
 379              	.LBE247:
 380              	.LBE246:
 381              	.LBE245:
 382              	.LBE244:
 383              		.loc 1 158 0
 384 0012 08BD     		pop	{r3, pc}
 385              		.cfi_endproc
 386              	.LFE261:
 387              		.size	spiUnselect, .-spiUnselect
 388              		.section	.text.spiStartIgnore,"ax",%progbits
 389              		.align	1
 390              		.p2align 4,,15
 391              		.global	spiStartIgnore
 392              		.syntax unified
 393              		.thumb
 394              		.thumb_func
 395              		.fpu fpv4-sp-d16
 396              		.type	spiStartIgnore, %function
 397              	spiStartIgnore:
 398              	.LFB262:
 399              		.loc 1 173 0
ARM GAS  /tmp/ccAsNSVy.s 			page 8


 400              		.cfi_startproc
 401              		@ args = 0, pretend = 0, frame = 0
 402              		@ frame_needed = 0, uses_anonymous_args = 0
 403              	.LVL23:
 404 0000 08B5     		push	{r3, lr}
 405              		.cfi_def_cfa_offset 8
 406              		.cfi_offset 3, -8
 407              		.cfi_offset 14, -4
 408              	.LBB250:
 409              	.LBB251:
 410              	.LBB252:
 411              	.LBB253:
 412              	.LBB254:
 413              		.loc 3 546 0
 414 0002 2022     		movs	r2, #32
 415              		.syntax unified
 416              	@ 546 "ChibiOS_3.0.2/os/ext/CMSIS/include/core_cmFunc.h" 1
 417 0004 82F31188 		MSR basepri, r2
 418              	@ 0 "" 2
 419              	.LVL24:
 420              		.thumb
 421              		.syntax unified
 422              	.LBE254:
 423              	.LBE253:
 424              	.LBE252:
 425              	.LBE251:
 426              	.LBE250:
 427              		.loc 1 179 0
 428 0008 0322     		movs	r2, #3
 429 000a 0270     		strb	r2, [r0]
 430 000c FFF7FEFF 		bl	spi_lld_ignore
 431              	.LVL25:
 432              	.LBB255:
 433              	.LBB256:
 434              	.LBB257:
 435              	.LBB258:
 436              	.LBB259:
 437              	.LBB260:
 438              		.loc 3 546 0
 439 0010 0023     		movs	r3, #0
 440              		.syntax unified
 441              	@ 546 "ChibiOS_3.0.2/os/ext/CMSIS/include/core_cmFunc.h" 1
 442 0012 83F31188 		MSR basepri, r3
 443              	@ 0 "" 2
 444              	.LVL26:
 445              		.thumb
 446              		.syntax unified
 447              	.LBE260:
 448              	.LBE259:
 449              	.LBE258:
 450              	.LBE257:
 451              	.LBE256:
 452              	.LBE255:
 453              		.loc 1 181 0
 454 0016 08BD     		pop	{r3, pc}
 455              		.cfi_endproc
 456              	.LFE262:
ARM GAS  /tmp/ccAsNSVy.s 			page 9


 457              		.size	spiStartIgnore, .-spiStartIgnore
 458              		.section	.text.spiStartExchange,"ax",%progbits
 459              		.align	1
 460              		.p2align 4,,15
 461              		.global	spiStartExchange
 462              		.syntax unified
 463              		.thumb
 464              		.thumb_func
 465              		.fpu fpv4-sp-d16
 466              		.type	spiStartExchange, %function
 467              	spiStartExchange:
 468              	.LFB263:
 469              		.loc 1 201 0
 470              		.cfi_startproc
 471              		@ args = 0, pretend = 0, frame = 0
 472              		@ frame_needed = 0, uses_anonymous_args = 0
 473              	.LVL27:
 474 0000 38B5     		push	{r3, r4, r5, lr}
 475              		.cfi_def_cfa_offset 16
 476              		.cfi_offset 3, -16
 477              		.cfi_offset 4, -12
 478              		.cfi_offset 5, -8
 479              		.cfi_offset 14, -4
 480              	.LBB261:
 481              	.LBB262:
 482              	.LBB263:
 483              	.LBB264:
 484              	.LBB265:
 485              		.loc 3 546 0
 486 0002 2025     		movs	r5, #32
 487              		.syntax unified
 488              	@ 546 "ChibiOS_3.0.2/os/ext/CMSIS/include/core_cmFunc.h" 1
 489 0004 85F31188 		MSR basepri, r5
 490              	@ 0 "" 2
 491              	.LVL28:
 492              		.thumb
 493              		.syntax unified
 494              	.LBE265:
 495              	.LBE264:
 496              	.LBE263:
 497              	.LBE262:
 498              	.LBE261:
 499              		.loc 1 208 0
 500 0008 0325     		movs	r5, #3
 501 000a 0570     		strb	r5, [r0]
 502 000c FFF7FEFF 		bl	spi_lld_exchange
 503              	.LVL29:
 504              	.LBB266:
 505              	.LBB267:
 506              	.LBB268:
 507              	.LBB269:
 508              	.LBB270:
 509              	.LBB271:
 510              		.loc 3 546 0
 511 0010 0023     		movs	r3, #0
 512              		.syntax unified
 513              	@ 546 "ChibiOS_3.0.2/os/ext/CMSIS/include/core_cmFunc.h" 1
ARM GAS  /tmp/ccAsNSVy.s 			page 10


 514 0012 83F31188 		MSR basepri, r3
 515              	@ 0 "" 2
 516              	.LVL30:
 517              		.thumb
 518              		.syntax unified
 519              	.LBE271:
 520              	.LBE270:
 521              	.LBE269:
 522              	.LBE268:
 523              	.LBE267:
 524              	.LBE266:
 525              		.loc 1 210 0
 526 0016 38BD     		pop	{r3, r4, r5, pc}
 527              		.cfi_endproc
 528              	.LFE263:
 529              		.size	spiStartExchange, .-spiStartExchange
 530              		.section	.text.spiStartSend,"ax",%progbits
 531              		.align	1
 532              		.p2align 4,,15
 533              		.global	spiStartSend
 534              		.syntax unified
 535              		.thumb
 536              		.thumb_func
 537              		.fpu fpv4-sp-d16
 538              		.type	spiStartSend, %function
 539              	spiStartSend:
 540              	.LFB264:
 541              		.loc 1 227 0
 542              		.cfi_startproc
 543              		@ args = 0, pretend = 0, frame = 0
 544              		@ frame_needed = 0, uses_anonymous_args = 0
 545              	.LVL31:
 546 0000 10B5     		push	{r4, lr}
 547              		.cfi_def_cfa_offset 8
 548              		.cfi_offset 4, -8
 549              		.cfi_offset 14, -4
 550              	.LBB272:
 551              	.LBB273:
 552              	.LBB274:
 553              	.LBB275:
 554              	.LBB276:
 555              		.loc 3 546 0
 556 0002 2024     		movs	r4, #32
 557              		.syntax unified
 558              	@ 546 "ChibiOS_3.0.2/os/ext/CMSIS/include/core_cmFunc.h" 1
 559 0004 84F31188 		MSR basepri, r4
 560              	@ 0 "" 2
 561              	.LVL32:
 562              		.thumb
 563              		.syntax unified
 564              	.LBE276:
 565              	.LBE275:
 566              	.LBE274:
 567              	.LBE273:
 568              	.LBE272:
 569              		.loc 1 233 0
 570 0008 0324     		movs	r4, #3
ARM GAS  /tmp/ccAsNSVy.s 			page 11


 571 000a 0470     		strb	r4, [r0]
 572 000c FFF7FEFF 		bl	spi_lld_send
 573              	.LVL33:
 574              	.LBB277:
 575              	.LBB278:
 576              	.LBB279:
 577              	.LBB280:
 578              	.LBB281:
 579              	.LBB282:
 580              		.loc 3 546 0
 581 0010 0023     		movs	r3, #0
 582              		.syntax unified
 583              	@ 546 "ChibiOS_3.0.2/os/ext/CMSIS/include/core_cmFunc.h" 1
 584 0012 83F31188 		MSR basepri, r3
 585              	@ 0 "" 2
 586              	.LVL34:
 587              		.thumb
 588              		.syntax unified
 589              	.LBE282:
 590              	.LBE281:
 591              	.LBE280:
 592              	.LBE279:
 593              	.LBE278:
 594              	.LBE277:
 595              		.loc 1 235 0
 596 0016 10BD     		pop	{r4, pc}
 597              		.cfi_endproc
 598              	.LFE264:
 599              		.size	spiStartSend, .-spiStartSend
 600              		.section	.text.spiStartReceive,"ax",%progbits
 601              		.align	1
 602              		.p2align 4,,15
 603              		.global	spiStartReceive
 604              		.syntax unified
 605              		.thumb
 606              		.thumb_func
 607              		.fpu fpv4-sp-d16
 608              		.type	spiStartReceive, %function
 609              	spiStartReceive:
 610              	.LFB265:
 611              		.loc 1 252 0
 612              		.cfi_startproc
 613              		@ args = 0, pretend = 0, frame = 0
 614              		@ frame_needed = 0, uses_anonymous_args = 0
 615              	.LVL35:
 616 0000 10B5     		push	{r4, lr}
 617              		.cfi_def_cfa_offset 8
 618              		.cfi_offset 4, -8
 619              		.cfi_offset 14, -4
 620              	.LBB283:
 621              	.LBB284:
 622              	.LBB285:
 623              	.LBB286:
 624              	.LBB287:
 625              		.loc 3 546 0
 626 0002 2024     		movs	r4, #32
 627              		.syntax unified
ARM GAS  /tmp/ccAsNSVy.s 			page 12


 628              	@ 546 "ChibiOS_3.0.2/os/ext/CMSIS/include/core_cmFunc.h" 1
 629 0004 84F31188 		MSR basepri, r4
 630              	@ 0 "" 2
 631              	.LVL36:
 632              		.thumb
 633              		.syntax unified
 634              	.LBE287:
 635              	.LBE286:
 636              	.LBE285:
 637              	.LBE284:
 638              	.LBE283:
 639              		.loc 1 258 0
 640 0008 0324     		movs	r4, #3
 641 000a 0470     		strb	r4, [r0]
 642 000c FFF7FEFF 		bl	spi_lld_receive
 643              	.LVL37:
 644              	.LBB288:
 645              	.LBB289:
 646              	.LBB290:
 647              	.LBB291:
 648              	.LBB292:
 649              	.LBB293:
 650              		.loc 3 546 0
 651 0010 0023     		movs	r3, #0
 652              		.syntax unified
 653              	@ 546 "ChibiOS_3.0.2/os/ext/CMSIS/include/core_cmFunc.h" 1
 654 0012 83F31188 		MSR basepri, r3
 655              	@ 0 "" 2
 656              	.LVL38:
 657              		.thumb
 658              		.syntax unified
 659              	.LBE293:
 660              	.LBE292:
 661              	.LBE291:
 662              	.LBE290:
 663              	.LBE289:
 664              	.LBE288:
 665              		.loc 1 260 0
 666 0016 10BD     		pop	{r4, pc}
 667              		.cfi_endproc
 668              	.LFE265:
 669              		.size	spiStartReceive, .-spiStartReceive
 670              		.section	.text.spiIgnore,"ax",%progbits
 671              		.align	1
 672              		.p2align 4,,15
 673              		.global	spiIgnore
 674              		.syntax unified
 675              		.thumb
 676              		.thumb_func
 677              		.fpu fpv4-sp-d16
 678              		.type	spiIgnore, %function
 679              	spiIgnore:
 680              	.LFB266:
 681              		.loc 1 277 0
 682              		.cfi_startproc
 683              		@ args = 0, pretend = 0, frame = 0
 684              		@ frame_needed = 0, uses_anonymous_args = 0
ARM GAS  /tmp/ccAsNSVy.s 			page 13


 685              	.LVL39:
 686 0000 10B5     		push	{r4, lr}
 687              		.cfi_def_cfa_offset 8
 688              		.cfi_offset 4, -8
 689              		.cfi_offset 14, -4
 690              	.LBB294:
 691              	.LBB295:
 692              	.LBB296:
 693              	.LBB297:
 694              	.LBB298:
 695              		.loc 3 546 0
 696 0002 2023     		movs	r3, #32
 697              	.LBE298:
 698              	.LBE297:
 699              	.LBE296:
 700              	.LBE295:
 701              	.LBE294:
 702              		.loc 1 277 0
 703 0004 0446     		mov	r4, r0
 704              	.LBB303:
 705              	.LBB302:
 706              	.LBB301:
 707              	.LBB300:
 708              	.LBB299:
 709              		.loc 3 546 0
 710              		.syntax unified
 711              	@ 546 "ChibiOS_3.0.2/os/ext/CMSIS/include/core_cmFunc.h" 1
 712 0006 83F31188 		MSR basepri, r3
 713              	@ 0 "" 2
 714              	.LVL40:
 715              		.thumb
 716              		.syntax unified
 717              	.LBE299:
 718              	.LBE300:
 719              	.LBE301:
 720              	.LBE302:
 721              	.LBE303:
 722              		.loc 1 284 0
 723 000a 0323     		movs	r3, #3
 724 000c 04F8083B 		strb	r3, [r4], #8
 725 0010 FFF7FEFF 		bl	spi_lld_ignore
 726              	.LVL41:
 727              	.LBB304:
 728              	.LBB305:
 729              		.loc 2 688 0
 730 0014 2046     		mov	r0, r4
 731 0016 FFF7FEFF 		bl	chThdSuspendS
 732              	.LVL42:
 733              	.LBE305:
 734              	.LBE304:
 735              	.LBB306:
 736              	.LBB307:
 737              	.LBB308:
 738              	.LBB309:
 739              	.LBB310:
 740              	.LBB311:
 741              		.loc 3 546 0
ARM GAS  /tmp/ccAsNSVy.s 			page 14


 742 001a 0023     		movs	r3, #0
 743              		.syntax unified
 744              	@ 546 "ChibiOS_3.0.2/os/ext/CMSIS/include/core_cmFunc.h" 1
 745 001c 83F31188 		MSR basepri, r3
 746              	@ 0 "" 2
 747              	.LVL43:
 748              		.thumb
 749              		.syntax unified
 750              	.LBE311:
 751              	.LBE310:
 752              	.LBE309:
 753              	.LBE308:
 754              	.LBE307:
 755              	.LBE306:
 756              		.loc 1 287 0
 757 0020 10BD     		pop	{r4, pc}
 758              		.cfi_endproc
 759              	.LFE266:
 760              		.size	spiIgnore, .-spiIgnore
 761 0022 00BF     		.section	.text.spiExchange,"ax",%progbits
 762              		.align	1
 763              		.p2align 4,,15
 764              		.global	spiExchange
 765              		.syntax unified
 766              		.thumb
 767              		.thumb_func
 768              		.fpu fpv4-sp-d16
 769              		.type	spiExchange, %function
 770              	spiExchange:
 771              	.LFB267:
 772              		.loc 1 308 0
 773              		.cfi_startproc
 774              		@ args = 0, pretend = 0, frame = 0
 775              		@ frame_needed = 0, uses_anonymous_args = 0
 776              	.LVL44:
 777 0000 38B5     		push	{r3, r4, r5, lr}
 778              		.cfi_def_cfa_offset 16
 779              		.cfi_offset 3, -16
 780              		.cfi_offset 4, -12
 781              		.cfi_offset 5, -8
 782              		.cfi_offset 14, -4
 783              		.loc 1 308 0
 784 0002 0446     		mov	r4, r0
 785              	.LBB312:
 786              	.LBB313:
 787              	.LBB314:
 788              	.LBB315:
 789              	.LBB316:
 790              		.loc 3 546 0
 791 0004 2025     		movs	r5, #32
 792              		.syntax unified
 793              	@ 546 "ChibiOS_3.0.2/os/ext/CMSIS/include/core_cmFunc.h" 1
 794 0006 85F31188 		MSR basepri, r5
 795              	@ 0 "" 2
 796              	.LVL45:
 797              		.thumb
 798              		.syntax unified
ARM GAS  /tmp/ccAsNSVy.s 			page 15


 799              	.LBE316:
 800              	.LBE315:
 801              	.LBE314:
 802              	.LBE313:
 803              	.LBE312:
 804              		.loc 1 316 0
 805 000a 0325     		movs	r5, #3
 806 000c 04F8085B 		strb	r5, [r4], #8
 807 0010 FFF7FEFF 		bl	spi_lld_exchange
 808              	.LVL46:
 809              	.LBB317:
 810              	.LBB318:
 811              		.loc 2 688 0
 812 0014 2046     		mov	r0, r4
 813 0016 FFF7FEFF 		bl	chThdSuspendS
 814              	.LVL47:
 815              	.LBE318:
 816              	.LBE317:
 817              	.LBB319:
 818              	.LBB320:
 819              	.LBB321:
 820              	.LBB322:
 821              	.LBB323:
 822              	.LBB324:
 823              		.loc 3 546 0
 824 001a 0023     		movs	r3, #0
 825              		.syntax unified
 826              	@ 546 "ChibiOS_3.0.2/os/ext/CMSIS/include/core_cmFunc.h" 1
 827 001c 83F31188 		MSR basepri, r3
 828              	@ 0 "" 2
 829              	.LVL48:
 830              		.thumb
 831              		.syntax unified
 832              	.LBE324:
 833              	.LBE323:
 834              	.LBE322:
 835              	.LBE321:
 836              	.LBE320:
 837              	.LBE319:
 838              		.loc 1 319 0
 839 0020 38BD     		pop	{r3, r4, r5, pc}
 840              		.cfi_endproc
 841              	.LFE267:
 842              		.size	spiExchange, .-spiExchange
 843 0022 00BF     		.section	.text.spiSend,"ax",%progbits
 844              		.align	1
 845              		.p2align 4,,15
 846              		.global	spiSend
 847              		.syntax unified
 848              		.thumb
 849              		.thumb_func
 850              		.fpu fpv4-sp-d16
 851              		.type	spiSend, %function
 852              	spiSend:
 853              	.LFB268:
 854              		.loc 1 337 0
 855              		.cfi_startproc
ARM GAS  /tmp/ccAsNSVy.s 			page 16


 856              		@ args = 0, pretend = 0, frame = 0
 857              		@ frame_needed = 0, uses_anonymous_args = 0
 858              	.LVL49:
 859 0000 10B5     		push	{r4, lr}
 860              		.cfi_def_cfa_offset 8
 861              		.cfi_offset 4, -8
 862              		.cfi_offset 14, -4
 863              	.LBB325:
 864              	.LBB326:
 865              	.LBB327:
 866              	.LBB328:
 867              	.LBB329:
 868              		.loc 3 546 0
 869 0002 2023     		movs	r3, #32
 870              	.LBE329:
 871              	.LBE328:
 872              	.LBE327:
 873              	.LBE326:
 874              	.LBE325:
 875              		.loc 1 337 0
 876 0004 0446     		mov	r4, r0
 877              	.LBB334:
 878              	.LBB333:
 879              	.LBB332:
 880              	.LBB331:
 881              	.LBB330:
 882              		.loc 3 546 0
 883              		.syntax unified
 884              	@ 546 "ChibiOS_3.0.2/os/ext/CMSIS/include/core_cmFunc.h" 1
 885 0006 83F31188 		MSR basepri, r3
 886              	@ 0 "" 2
 887              	.LVL50:
 888              		.thumb
 889              		.syntax unified
 890              	.LBE330:
 891              	.LBE331:
 892              	.LBE332:
 893              	.LBE333:
 894              	.LBE334:
 895              		.loc 1 344 0
 896 000a 0323     		movs	r3, #3
 897 000c 04F8083B 		strb	r3, [r4], #8
 898 0010 FFF7FEFF 		bl	spi_lld_send
 899              	.LVL51:
 900              	.LBB335:
 901              	.LBB336:
 902              		.loc 2 688 0
 903 0014 2046     		mov	r0, r4
 904 0016 FFF7FEFF 		bl	chThdSuspendS
 905              	.LVL52:
 906              	.LBE336:
 907              	.LBE335:
 908              	.LBB337:
 909              	.LBB338:
 910              	.LBB339:
 911              	.LBB340:
 912              	.LBB341:
ARM GAS  /tmp/ccAsNSVy.s 			page 17


 913              	.LBB342:
 914              		.loc 3 546 0
 915 001a 0023     		movs	r3, #0
 916              		.syntax unified
 917              	@ 546 "ChibiOS_3.0.2/os/ext/CMSIS/include/core_cmFunc.h" 1
 918 001c 83F31188 		MSR basepri, r3
 919              	@ 0 "" 2
 920              	.LVL53:
 921              		.thumb
 922              		.syntax unified
 923              	.LBE342:
 924              	.LBE341:
 925              	.LBE340:
 926              	.LBE339:
 927              	.LBE338:
 928              	.LBE337:
 929              		.loc 1 347 0
 930 0020 10BD     		pop	{r4, pc}
 931              		.cfi_endproc
 932              	.LFE268:
 933              		.size	spiSend, .-spiSend
 934 0022 00BF     		.section	.text.spiReceive,"ax",%progbits
 935              		.align	1
 936              		.p2align 4,,15
 937              		.global	spiReceive
 938              		.syntax unified
 939              		.thumb
 940              		.thumb_func
 941              		.fpu fpv4-sp-d16
 942              		.type	spiReceive, %function
 943              	spiReceive:
 944              	.LFB269:
 945              		.loc 1 365 0
 946              		.cfi_startproc
 947              		@ args = 0, pretend = 0, frame = 0
 948              		@ frame_needed = 0, uses_anonymous_args = 0
 949              	.LVL54:
 950 0000 10B5     		push	{r4, lr}
 951              		.cfi_def_cfa_offset 8
 952              		.cfi_offset 4, -8
 953              		.cfi_offset 14, -4
 954              	.LBB343:
 955              	.LBB344:
 956              	.LBB345:
 957              	.LBB346:
 958              	.LBB347:
 959              		.loc 3 546 0
 960 0002 2023     		movs	r3, #32
 961              	.LBE347:
 962              	.LBE346:
 963              	.LBE345:
 964              	.LBE344:
 965              	.LBE343:
 966              		.loc 1 365 0
 967 0004 0446     		mov	r4, r0
 968              	.LBB352:
 969              	.LBB351:
ARM GAS  /tmp/ccAsNSVy.s 			page 18


 970              	.LBB350:
 971              	.LBB349:
 972              	.LBB348:
 973              		.loc 3 546 0
 974              		.syntax unified
 975              	@ 546 "ChibiOS_3.0.2/os/ext/CMSIS/include/core_cmFunc.h" 1
 976 0006 83F31188 		MSR basepri, r3
 977              	@ 0 "" 2
 978              	.LVL55:
 979              		.thumb
 980              		.syntax unified
 981              	.LBE348:
 982              	.LBE349:
 983              	.LBE350:
 984              	.LBE351:
 985              	.LBE352:
 986              		.loc 1 372 0
 987 000a 0323     		movs	r3, #3
 988 000c 04F8083B 		strb	r3, [r4], #8
 989 0010 FFF7FEFF 		bl	spi_lld_receive
 990              	.LVL56:
 991              	.LBB353:
 992              	.LBB354:
 993              		.loc 2 688 0
 994 0014 2046     		mov	r0, r4
 995 0016 FFF7FEFF 		bl	chThdSuspendS
 996              	.LVL57:
 997              	.LBE354:
 998              	.LBE353:
 999              	.LBB355:
 1000              	.LBB356:
 1001              	.LBB357:
 1002              	.LBB358:
 1003              	.LBB359:
 1004              	.LBB360:
 1005              		.loc 3 546 0
 1006 001a 0023     		movs	r3, #0
 1007              		.syntax unified
 1008              	@ 546 "ChibiOS_3.0.2/os/ext/CMSIS/include/core_cmFunc.h" 1
 1009 001c 83F31188 		MSR basepri, r3
 1010              	@ 0 "" 2
 1011              	.LVL58:
 1012              		.thumb
 1013              		.syntax unified
 1014              	.LBE360:
 1015              	.LBE359:
 1016              	.LBE358:
 1017              	.LBE357:
 1018              	.LBE356:
 1019              	.LBE355:
 1020              		.loc 1 375 0
 1021 0020 10BD     		pop	{r4, pc}
 1022              		.cfi_endproc
 1023              	.LFE269:
 1024              		.size	spiReceive, .-spiReceive
 1025 0022 00BF     		.section	.text.spiAcquireBus,"ax",%progbits
 1026              		.align	1
ARM GAS  /tmp/ccAsNSVy.s 			page 19


 1027              		.p2align 4,,15
 1028              		.global	spiAcquireBus
 1029              		.syntax unified
 1030              		.thumb
 1031              		.thumb_func
 1032              		.fpu fpv4-sp-d16
 1033              		.type	spiAcquireBus, %function
 1034              	spiAcquireBus:
 1035              	.LFB270:
 1036              		.loc 1 390 0
 1037              		.cfi_startproc
 1038              		@ args = 0, pretend = 0, frame = 0
 1039              		@ frame_needed = 0, uses_anonymous_args = 0
 1040              		@ link register save eliminated.
 1041              	.LVL59:
 1042              	.LBB361:
 1043              	.LBB362:
 1044              		.loc 2 907 0
 1045 0000 0C30     		adds	r0, r0, #12
 1046              	.LVL60:
 1047 0002 FFF7FEBF 		b	chMtxLock
 1048              	.LVL61:
 1049              	.LBE362:
 1050              	.LBE361:
 1051              		.cfi_endproc
 1052              	.LFE270:
 1053              		.size	spiAcquireBus, .-spiAcquireBus
 1054 0006 00BF     		.section	.text.spiReleaseBus,"ax",%progbits
 1055              		.align	1
 1056              		.p2align 4,,15
 1057              		.global	spiReleaseBus
 1058              		.syntax unified
 1059              		.thumb
 1060              		.thumb_func
 1061              		.fpu fpv4-sp-d16
 1062              		.type	spiReleaseBus, %function
 1063              	spiReleaseBus:
 1064              	.LFB271:
 1065              		.loc 1 406 0
 1066              		.cfi_startproc
 1067              		@ args = 0, pretend = 0, frame = 0
 1068              		@ frame_needed = 0, uses_anonymous_args = 0
 1069              		@ link register save eliminated.
 1070              	.LVL62:
 1071              	.LBB363:
 1072              	.LBB364:
 1073              		.loc 2 931 0
 1074 0000 0C30     		adds	r0, r0, #12
 1075              	.LVL63:
 1076 0002 FFF7FEBF 		b	chMtxUnlock
 1077              	.LVL64:
 1078              	.LBE364:
 1079              	.LBE363:
 1080              		.cfi_endproc
 1081              	.LFE271:
 1082              		.size	spiReleaseBus, .-spiReleaseBus
 1083 0006 00BF     		.text
ARM GAS  /tmp/ccAsNSVy.s 			page 20


 1084              	.Letext0:
 1085              		.file 4 "/usr/lib/gcc/arm-none-eabi/7.3.1/include/stddef.h"
 1086              		.file 5 "/usr/arm-none-eabi/include/machine/_default_types.h"
 1087              		.file 6 "/usr/arm-none-eabi/include/sys/_stdint.h"
 1088              		.file 7 "ChibiOS_3.0.2/os/rt/ports/ARMCMx/compilers/GCC/chtypes.h"
 1089              		.file 8 "ChibiOS_3.0.2/os/rt/include/chsystypes.h"
 1090              		.file 9 "ChibiOS_3.0.2/os/rt/include/chschd.h"
 1091              		.file 10 "ChibiOS_3.0.2/os/ext/CMSIS/include/core_cm4.h"
 1092              		.file 11 "ChibiOS_3.0.2/os/ext/CMSIS/ST/system_stm32f4xx.h"
 1093              		.file 12 "ChibiOS_3.0.2/os/ext/CMSIS/ST/stm32f407xx.h"
 1094              		.file 13 "ChibiOS_3.0.2/os/rt/ports/ARMCMx/chcore.h"
 1095              		.file 14 "ChibiOS_3.0.2/os/rt/ports/ARMCMx/chcore_v7m.h"
 1096              		.file 15 "ChibiOS_3.0.2/os/rt/include/chtm.h"
 1097              		.file 16 "ChibiOS_3.0.2/os/rt/include/chsem.h"
 1098              		.file 17 "ChibiOS_3.0.2/os/rt/include/chmtx.h"
 1099              		.file 18 "ChibiOS_3.0.2/os/rt/include/chregistry.h"
 1100              		.file 19 "ChibiOS_3.0.2/os/rt/include/chevents.h"
 1101              		.file 20 "ChibiOS_3.0.2/os/rt/include/chqueues.h"
 1102              		.file 21 "./conf_general.h"
 1103              		.file 22 "ChibiOS_3.0.2/os/hal/ports/STM32/STM32F4xx/stm32_dma.h"
 1104              		.file 23 "ChibiOS_3.0.2/os/hal/ports/STM32/LLD/GPIOv2/pal_lld.h"
 1105              		.file 24 "ChibiOS_3.0.2/os/hal/include/can.h"
 1106              		.file 25 "ChibiOS_3.0.2/os/hal/ports/STM32/LLD/can_lld.h"
 1107              		.file 26 "ChibiOS_3.0.2/os/hal/include/i2c.h"
 1108              		.file 27 "ChibiOS_3.0.2/os/hal/ports/STM32/LLD/I2Cv1/i2c_lld.h"
 1109              		.file 28 "ChibiOS_3.0.2/os/hal/include/icu.h"
 1110              		.file 29 "ChibiOS_3.0.2/os/hal/ports/STM32/LLD/TIMv1/icu_lld.h"
 1111              		.file 30 "ChibiOS_3.0.2/os/hal/ports/STM32/LLD/TIMv1/stm32_tim.h"
 1112              		.file 31 "ChibiOS_3.0.2/os/hal/include/spi.h"
 1113              		.file 32 "ChibiOS_3.0.2/os/hal/ports/STM32/LLD/SPIv1/spi_lld.h"
 1114              		.file 33 "ChibiOS_3.0.2/os/hal/include/uart.h"
 1115              		.file 34 "ChibiOS_3.0.2/os/hal/ports/STM32/LLD/USARTv1/uart_lld.h"
 1116              		.file 35 "ChibiOS_3.0.2/os/hal/include/usb.h"
 1117              		.file 36 "ChibiOS_3.0.2/os/hal/ports/STM32/LLD/OTGv1/usb_lld.h"
 1118              		.file 37 "ChibiOS_3.0.2/os/hal/ports/STM32/LLD/OTGv1/stm32_otg.h"
 1119              		.file 38 "ChibiOS_3.0.2/os/rt/include/chsys.h"
 1120              		.file 39 "ChibiOS_3.0.2/os/rt/include/chthreads.h"