ARM GAS  /tmp/cciDCA9n.s 			page 1


   1              		.cpu cortex-m4
   2              		.eabi_attribute 27, 1
   3              		.eabi_attribute 28, 1
   4              		.eabi_attribute 20, 1
   5              		.eabi_attribute 21, 1
   6              		.eabi_attribute 23, 3
   7              		.eabi_attribute 24, 1
   8              		.eabi_attribute 25, 1
   9              		.eabi_attribute 26, 1
  10              		.eabi_attribute 30, 2
  11              		.eabi_attribute 34, 1
  12              		.eabi_attribute 18, 4
  13              		.file	"terminal.c"
  14              		.text
  15              	.Ltext0:
  16              		.cfi_sections	.debug_frame
  17              		.global	__aeabi_f2d
  18              		.section	.text.terminal_process_string,"ax",%progbits
  19              		.align	1
  20              		.p2align 4,,15
  21              		.global	terminal_process_string
  22              		.syntax unified
  23              		.thumb
  24              		.thumb_func
  25              		.fpu fpv4-sp-d16
  26              		.type	terminal_process_string, %function
  27              	terminal_process_string:
  28              	.LFB259:
  29              		.file 1 "terminal.c"
  30              		.loc 1 58 0
  31              		.cfi_startproc
  32              		@ args = 0, pretend = 0, frame = 312
  33              		@ frame_needed = 0, uses_anonymous_args = 0
  34              	.LVL0:
  35 0000 2DE9F047 		push	{r4, r5, r6, r7, r8, r9, r10, lr}
  36              		.cfi_def_cfa_offset 32
  37              		.cfi_offset 4, -32
  38              		.cfi_offset 5, -28
  39              		.cfi_offset 6, -24
  40              		.cfi_offset 7, -20
  41              		.cfi_offset 8, -16
  42              		.cfi_offset 9, -12
  43              		.cfi_offset 10, -8
  44              		.cfi_offset 14, -4
  45 0004 2DED088B 		vpush.64	{d8, d9, d10, d11}
  46              		.cfi_def_cfa_offset 64
  47              		.cfi_offset 80, -64
  48              		.cfi_offset 81, -60
  49              		.cfi_offset 82, -56
  50              		.cfi_offset 83, -52
  51              		.cfi_offset 84, -48
  52              		.cfi_offset 85, -44
  53              		.cfi_offset 86, -40
  54              		.cfi_offset 87, -36
  55              		.loc 1 63 0
  56 0008 8F49     		ldr	r1, .L161
  57              		.loc 1 58 0
ARM GAS  /tmp/cciDCA9n.s 			page 2


  58 000a D8B0     		sub	sp, sp, #352
  59              		.cfi_def_cfa_offset 416
  60              		.loc 1 63 0
  61 000c FFF7FEFF 		bl	strtok
  62              	.LVL1:
  63              		.loc 1 64 0
  64 0010 0028     		cmp	r0, #0
  65 0012 5BD0     		beq	.L133
  66 0014 0346     		mov	r3, r0
  67              		.loc 1 66 0
  68 0016 8C4E     		ldr	r6, .L161
  69 0018 18AD     		add	r5, sp, #96
  70              		.loc 1 60 0
  71 001a 0024     		movs	r4, #0
  72 001c 01E0     		b	.L5
  73              	.LVL2:
  74              	.L134:
  75              		.loc 1 64 0 discriminator 1
  76 001e 402C     		cmp	r4, #64
  77 0020 09D0     		beq	.L4
  78              	.LVL3:
  79              	.L5:
  80              		.loc 1 65 0
  81 0022 45F8043B 		str	r3, [r5], #4
  82              		.loc 1 66 0
  83 0026 3146     		mov	r1, r6
  84 0028 0020     		movs	r0, #0
  85              	.LVL4:
  86 002a FFF7FEFF 		bl	strtok
  87              	.LVL5:
  88              		.loc 1 65 0
  89 002e 0134     		adds	r4, r4, #1
  90              	.LVL6:
  91              		.loc 1 64 0
  92 0030 0346     		mov	r3, r0
  93 0032 0028     		cmp	r0, #0
  94 0034 F3D1     		bne	.L134
  95              	.L4:
  96              		.loc 1 76 0
  97 0036 FFF7FEFF 		bl	mc_interface_get_configuration
  98              	.LVL7:
  99 003a 4FF4C272 		mov	r2, #388
 100 003e 0146     		mov	r1, r0
 101 0040 8248     		ldr	r0, .L161+4
 102 0042 FFF7FEFF 		bl	memcpy
 103              	.LVL8:
 104              		.loc 1 77 0
 105 0046 8149     		ldr	r1, .L161+4
 106 0048 8148     		ldr	r0, .L161+8
 107 004a 4FF4C272 		mov	r2, #388
 108 004e FFF7FEFF 		bl	memcpy
 109              	.LVL9:
 110              		.loc 1 79 0
 111 0052 189D     		ldr	r5, [sp, #96]
 112 0054 7F49     		ldr	r1, .L161+12
 113 0056 2846     		mov	r0, r5
 114 0058 FFF7FEFF 		bl	strcmp
ARM GAS  /tmp/cciDCA9n.s 			page 3


 115              	.LVL10:
 116 005c 0028     		cmp	r0, #0
 117 005e 3DD0     		beq	.L135
 118              		.loc 1 81 0
 119 0060 7D49     		ldr	r1, .L161+16
 120 0062 2846     		mov	r0, r5
 121 0064 FFF7FEFF 		bl	strcmp
 122              	.LVL11:
 123 0068 0028     		cmp	r0, #0
 124 006a 69D0     		beq	.L136
 125              		.loc 1 84 0
 126 006c 7B49     		ldr	r1, .L161+20
 127 006e 2846     		mov	r0, r5
 128 0070 FFF7FEFF 		bl	strcmp
 129              	.LVL12:
 130 0074 0028     		cmp	r0, #0
 131 0076 39D0     		beq	.L137
 132              		.loc 1 88 0
 133 0078 7949     		ldr	r1, .L161+24
 134 007a 2846     		mov	r0, r5
 135 007c FFF7FEFF 		bl	strcmp
 136              	.LVL13:
 137 0080 0028     		cmp	r0, #0
 138 0082 69D0     		beq	.L138
 139              		.loc 1 90 0
 140 0084 7749     		ldr	r1, .L161+28
 141 0086 2846     		mov	r0, r5
 142 0088 FFF7FEFF 		bl	strcmp
 143              	.LVL14:
 144 008c 0028     		cmp	r0, #0
 145 008e 78D0     		beq	.L139
 146              		.loc 1 96 0
 147 0090 7549     		ldr	r1, .L161+32
 148 0092 2846     		mov	r0, r5
 149 0094 FFF7FEFF 		bl	strcmp
 150              	.LVL15:
 151 0098 0028     		cmp	r0, #0
 152 009a 00F08580 		beq	.L140
 153              		.loc 1 110 0
 154 009e 7349     		ldr	r1, .L161+36
 155 00a0 2846     		mov	r0, r5
 156 00a2 FFF7FEFF 		bl	strcmp
 157              	.LVL16:
 158 00a6 0028     		cmp	r0, #0
 159 00a8 62D0     		beq	.L141
 160              		.loc 1 112 0
 161 00aa 7149     		ldr	r1, .L161+40
 162 00ac 2846     		mov	r0, r5
 163 00ae FFF7FEFF 		bl	strcmp
 164              	.LVL17:
 165 00b2 0646     		mov	r6, r0
 166 00b4 0028     		cmp	r0, #0
 167 00b6 40F09D80 		bne	.L15
 168              		.loc 1 113 0
 169 00ba 6E4F     		ldr	r7, .L161+44
 170 00bc 3B68     		ldr	r3, [r7]
 171 00be 002B     		cmp	r3, #0
ARM GAS  /tmp/cciDCA9n.s 			page 4


 172 00c0 40F00C81 		bne	.L16
 173              		.loc 1 114 0
 174 00c4 6C48     		ldr	r0, .L161+48
 175 00c6 FFF7FEFF 		bl	commands_printf
 176              	.LVL18:
 177 00ca 02E0     		b	.L1
 178              	.LVL19:
 179              	.L133:
 180              		.loc 1 70 0
 181 00cc 6B48     		ldr	r0, .L161+52
 182              	.LVL20:
 183 00ce FFF7FEFF 		bl	commands_printf
 184              	.LVL21:
 185              	.L1:
 186              		.loc 1 537 0
 187 00d2 58B0     		add	sp, sp, #352
 188              		.cfi_remember_state
 189              		.cfi_def_cfa_offset 64
 190              		@ sp needed
 191 00d4 BDEC088B 		vldm	sp!, {d8-d11}
 192              		.cfi_restore 86
 193              		.cfi_restore 87
 194              		.cfi_restore 84
 195              		.cfi_restore 85
 196              		.cfi_restore 82
 197              		.cfi_restore 83
 198              		.cfi_restore 80
 199              		.cfi_restore 81
 200              		.cfi_def_cfa_offset 32
 201 00d8 BDE8F087 		pop	{r4, r5, r6, r7, r8, r9, r10, pc}
 202              	.LVL22:
 203              	.L135:
 204              		.cfi_restore_state
 205              		.loc 1 80 0
 206 00dc 6848     		ldr	r0, .L161+56
 207 00de FFF7FEFF 		bl	commands_printf
 208              	.LVL23:
 209              		.loc 1 537 0
 210 00e2 58B0     		add	sp, sp, #352
 211              		.cfi_remember_state
 212              		.cfi_def_cfa_offset 64
 213              		@ sp needed
 214 00e4 BDEC088B 		vldm	sp!, {d8-d11}
 215              		.cfi_restore 86
 216              		.cfi_restore 87
 217              		.cfi_restore 84
 218              		.cfi_restore 85
 219              		.cfi_restore 82
 220              		.cfi_restore 83
 221              		.cfi_restore 80
 222              		.cfi_restore 81
 223              		.cfi_def_cfa_offset 32
 224 00e8 BDE8F087 		pop	{r4, r5, r6, r7, r8, r9, r10, pc}
 225              	.LVL24:
 226              	.L137:
 227              		.cfi_restore_state
 228              		.loc 1 85 0
ARM GAS  /tmp/cciDCA9n.s 			page 5


 229 00ec FFF7FEFF 		bl	mcpwm_get_last_adc_isr_duration
 230              	.LVL25:
 231 00f0 9FED648A 		vldr.32	s16, .L161+60
 232 00f4 60EE087A 		vmul.f32	s15, s0, s16
 233 00f8 17EE900A 		vmov	r0, s15
 234 00fc FFF7FEFF 		bl	__aeabi_f2d
 235              	.LVL26:
 236 0100 0246     		mov	r2, r0
 237 0102 0B46     		mov	r3, r1
 238 0104 6048     		ldr	r0, .L161+64
 239 0106 FFF7FEFF 		bl	commands_printf
 240              	.LVL27:
 241              		.loc 1 86 0
 242 010a FFF7FEFF 		bl	mc_interface_get_last_inj_adc_isr_duration
 243              	.LVL28:
 244 010e 60EE087A 		vmul.f32	s15, s0, s16
 245 0112 17EE900A 		vmov	r0, s15
 246 0116 FFF7FEFF 		bl	__aeabi_f2d
 247              	.LVL29:
 248 011a 0246     		mov	r2, r0
 249 011c 0B46     		mov	r3, r1
 250 011e 5B48     		ldr	r0, .L161+68
 251 0120 FFF7FEFF 		bl	commands_printf
 252              	.LVL30:
 253              		.loc 1 87 0
 254 0124 FFF7FEFF 		bl	mc_interface_get_last_sample_adc_isr_duration
 255              	.LVL31:
 256 0128 60EE087A 		vmul.f32	s15, s0, s16
 257 012c 17EE900A 		vmov	r0, s15
 258 0130 FFF7FEFF 		bl	__aeabi_f2d
 259              	.LVL32:
 260 0134 0246     		mov	r2, r0
 261 0136 0B46     		mov	r3, r1
 262 0138 5548     		ldr	r0, .L161+72
 263 013a FFF7FEFF 		bl	commands_printf
 264              	.LVL33:
 265 013e C8E7     		b	.L1
 266              	.L136:
 267              		.loc 1 82 0
 268 0140 9FED540A 		vldr.32	s0, .L161+76
 269 0144 FFF7FEFF 		bl	mc_interface_set_duty
 270              	.LVL34:
 271              		.loc 1 83 0
 272 0148 5348     		ldr	r0, .L161+80
 273 014a FFF7FEFF 		bl	commands_printf
 274              	.LVL35:
 275              		.loc 1 537 0
 276 014e 58B0     		add	sp, sp, #352
 277              		.cfi_remember_state
 278              		.cfi_def_cfa_offset 64
 279              		@ sp needed
 280 0150 BDEC088B 		vldm	sp!, {d8-d11}
 281              		.cfi_restore 86
 282              		.cfi_restore 87
 283              		.cfi_restore 84
 284              		.cfi_restore 85
 285              		.cfi_restore 82
ARM GAS  /tmp/cciDCA9n.s 			page 6


 286              		.cfi_restore 83
 287              		.cfi_restore 80
 288              		.cfi_restore 81
 289              		.cfi_def_cfa_offset 32
 290 0154 BDE8F087 		pop	{r4, r5, r6, r7, r8, r9, r10, pc}
 291              	.LVL36:
 292              	.L138:
 293              		.cfi_restore_state
 294              		.loc 1 89 0
 295 0158 FFF7FEFF 		bl	mcpwm_get_kv_filtered
 296              	.LVL37:
 297 015c 10EE100A 		vmov	r0, s0
 298 0160 FFF7FEFF 		bl	__aeabi_f2d
 299              	.LVL38:
 300 0164 0246     		mov	r2, r0
 301 0166 0B46     		mov	r3, r1
 302 0168 4C48     		ldr	r0, .L161+84
 303 016a FFF7FEFF 		bl	commands_printf
 304              	.LVL39:
 305 016e B0E7     		b	.L1
 306              	.L141:
 307              		.loc 1 111 0
 308 0170 FFF7FEFF 		bl	mc_interface_get_fault
 309              	.LVL40:
 310 0174 FFF7FEFF 		bl	mc_interface_fault_to_string
 311              	.LVL41:
 312 0178 0146     		mov	r1, r0
 313 017a 4948     		ldr	r0, .L161+88
 314 017c FFF7FEFF 		bl	commands_printf
 315              	.LVL42:
 316 0180 A7E7     		b	.L1
 317              	.L139:
 318              	.LBB59:
 319              		.loc 1 92 0
 320 0182 11A9     		add	r1, sp, #68
 321 0184 FFF7FEFF 		bl	chHeapStatus
 322              	.LVL43:
 323 0188 0446     		mov	r4, r0
 324              	.LVL44:
 325              		.loc 1 93 0
 326 018a FFF7FEFF 		bl	chCoreGetStatusX
 327              	.LVL45:
 328 018e 0146     		mov	r1, r0
 329 0190 4448     		ldr	r0, .L161+92
 330 0192 FFF7FEFF 		bl	commands_printf
 331              	.LVL46:
 332              		.loc 1 94 0
 333 0196 2146     		mov	r1, r4
 334 0198 4348     		ldr	r0, .L161+96
 335 019a FFF7FEFF 		bl	commands_printf
 336              	.LVL47:
 337              		.loc 1 95 0
 338 019e 1199     		ldr	r1, [sp, #68]
 339 01a0 4248     		ldr	r0, .L161+100
 340 01a2 FFF7FEFF 		bl	commands_printf
 341              	.LVL48:
 342              	.LBE59:
ARM GAS  /tmp/cciDCA9n.s 			page 7


 343 01a6 94E7     		b	.L1
 344              	.LVL49:
 345              	.L140:
 346              	.LBB60:
 347              		.loc 1 99 0
 348 01a8 4148     		ldr	r0, .L161+104
 349 01aa 424E     		ldr	r6, .L161+108
 350              		.loc 1 103 0
 351 01ac 424D     		ldr	r5, .L161+112
 352              		.loc 1 99 0
 353 01ae FFF7FEFF 		bl	commands_printf
 354              	.LVL50:
 355              		.loc 1 100 0
 356 01b2 4248     		ldr	r0, .L161+116
 357 01b4 FFF7FEFF 		bl	commands_printf
 358              	.LVL51:
 359              		.loc 1 101 0
 360 01b8 FFF7FEFF 		bl	chRegFirstThread
 361              	.LVL52:
 362 01bc 0446     		mov	r4, r0
 363              	.LVL53:
 364              	.L13:
 365              		.loc 1 106 0 discriminator 1
 366 01be 216A     		ldr	r1, [r4, #32]
 367              		.loc 1 103 0 discriminator 1
 368 01c0 D4E90232 		ldrd	r3, r2, [r4, #8]
 369 01c4 0391     		str	r1, [sp, #12]
 370 01c6 A169     		ldr	r1, [r4, #24]
 371 01c8 0291     		str	r1, [sp, #8]
 372              		.loc 1 106 0 discriminator 1
 373 01ca 217F     		ldrb	r1, [r4, #28]	@ zero_extendqisi2
 374              		.loc 1 103 0 discriminator 1
 375 01cc 56F82110 		ldr	r1, [r6, r1, lsl #2]
 376 01d0 0191     		str	r1, [sp, #4]
 377              		.loc 1 105 0 discriminator 1
 378 01d2 A17F     		ldrb	r1, [r4, #30]	@ zero_extendqisi2
 379 01d4 0139     		subs	r1, r1, #1
 380              		.loc 1 103 0 discriminator 1
 381 01d6 0091     		str	r1, [sp]
 382 01d8 2846     		mov	r0, r5
 383              	.LVL54:
 384 01da 2146     		mov	r1, r4
 385 01dc FFF7FEFF 		bl	commands_printf
 386              	.LVL55:
 387              		.loc 1 107 0 discriminator 1
 388 01e0 2046     		mov	r0, r4
 389 01e2 FFF7FEFF 		bl	chRegNextThread
 390              	.LVL56:
 391              		.loc 1 108 0 discriminator 1
 392 01e6 0446     		mov	r4, r0
 393 01e8 0028     		cmp	r0, #0
 394 01ea E8D1     		bne	.L13
 395              		.loc 1 109 0
 396 01ec 3448     		ldr	r0, .L161+120
 397              	.LVL57:
 398 01ee FFF7FEFF 		bl	commands_printf
 399              	.LVL58:
ARM GAS  /tmp/cciDCA9n.s 			page 8


 400              	.LBE60:
 401 01f2 6EE7     		b	.L1
 402              	.LVL59:
 403              	.L15:
 404              		.loc 1 144 0
 405 01f4 3349     		ldr	r1, .L161+124
 406 01f6 2846     		mov	r0, r5
 407 01f8 FFF7FEFF 		bl	strcmp
 408              	.LVL60:
 409 01fc 0028     		cmp	r0, #0
 410 01fe 00F0E680 		beq	.L142
 411              		.loc 1 146 0
 412 0202 3149     		ldr	r1, .L161+128
 413 0204 2846     		mov	r0, r5
 414 0206 FFF7FEFF 		bl	strcmp
 415              	.LVL61:
 416 020a 0028     		cmp	r0, #0
 417 020c 00F0EB80 		beq	.L143
 418              		.loc 1 148 0
 419 0210 2E49     		ldr	r1, .L161+132
 420 0212 2846     		mov	r0, r5
 421 0214 FFF7FEFF 		bl	strcmp
 422              	.LVL62:
 423 0218 0028     		cmp	r0, #0
 424 021a 00F0EB80 		beq	.L144
 425              		.loc 1 173 0
 426 021e 2C49     		ldr	r1, .L161+136
 427 0220 2846     		mov	r0, r5
 428 0222 FFF7FEFF 		bl	strcmp
 429              	.LVL63:
 430 0226 0028     		cmp	r0, #0
 431 0228 00F02E81 		beq	.L145
 432              		.loc 1 175 0
 433 022c 2949     		ldr	r1, .L161+140
 434 022e 2846     		mov	r0, r5
 435 0230 FFF7FEFF 		bl	strcmp
 436              	.LVL64:
 437 0234 0028     		cmp	r0, #0
 438 0236 40F08581 		bne	.L23
 439              		.loc 1 177 0
 440 023a 042C     		cmp	r4, #4
 441 023c 00F03C81 		beq	.L146
 442              		.loc 1 219 0
 443 0240 2548     		ldr	r0, .L161+144
 444 0242 FFF7FEFF 		bl	commands_printf
 445              	.LVL65:
 446 0246 44E7     		b	.L1
 447              	.L162:
 448              		.align	2
 449              	.L161:
 450 0248 18000000 		.word	.LC4
 451 024c 00000000 		.word	.LANCHOR0
 452 0250 00000000 		.word	.LANCHOR1
 453 0254 34000000 		.word	.LC6
 454 0258 44000000 		.word	.LC8
 455 025c 5C000000 		.word	.LC10
 456 0260 E0000000 		.word	.LC14
ARM GAS  /tmp/cciDCA9n.s 			page 9


 457 0264 04010000 		.word	.LC16
 458 0268 5C010000 		.word	.LC20
 459 026c 0C020000 		.word	.LC25
 460 0270 18020000 		.word	.LC27
 461 0274 00000000 		.word	.LANCHOR3
 462 0278 20020000 		.word	.LC28
 463 027c 1C000000 		.word	.LC5
 464 0280 3C000000 		.word	.LC7
 465 0284 00007A44 		.word	1148846080
 466 0288 70000000 		.word	.LC11
 467 028c 90000000 		.word	.LC12
 468 0290 B8000000 		.word	.LC13
 469 0294 00000000 		.word	0
 470 0298 4C000000 		.word	.LC9
 471 029c E4000000 		.word	.LC15
 472 02a0 14020000 		.word	.LC26
 473 02a4 08010000 		.word	.LC17
 474 02a8 24010000 		.word	.LC18
 475 02ac 3C010000 		.word	.LC19
 476 02b0 64010000 		.word	.LC21
 477 02b4 00000000 		.word	.LANCHOR2
 478 02b8 E4010000 		.word	.LC23
 479 02bc A4010000 		.word	.LC22
 480 02c0 08020000 		.word	.LC24
 481 02c4 C8030000 		.word	.LC44
 482 02c8 E8030000 		.word	.LC46
 483 02cc 08040000 		.word	.LC48
 484 02d0 C0040000 		.word	.LC60
 485 02d4 E0040000 		.word	.LC62
 486 02d8 38060000 		.word	.LC73
 487              	.L16:
 488              		.loc 1 116 0
 489 02dc BD48     		ldr	r0, .L163
 490 02de FFF7FEFF 		bl	commands_printf
 491              	.LVL66:
 492              	.LBB61:
 493              		.loc 1 117 0
 494 02e2 3B68     		ldr	r3, [r7]
 495 02e4 002B     		cmp	r3, #0
 496 02e6 7FF7F4AE 		ble	.L1
 497 02ea BB4D     		ldr	r5, .L163+4
 498              		.loc 1 118 0
 499 02ec DFF8A0A3 		ldr	r10, .L163+188
 500              		.loc 1 119 0
 501 02f0 DFF8A093 		ldr	r9, .L163+192
 502              		.loc 1 120 0
 503 02f4 DFF8A083 		ldr	r8, .L163+196
 504              	.LVL67:
 505              	.L17:
 506              		.loc 1 118 0 discriminator 3
 507 02f8 C6EBC603 		rsb	r3, r6, r6, lsl #3
 508 02fc 05EBC304 		add	r4, r5, r3, lsl #3
 509 0300 15F83300 		ldrb	r0, [r5, r3, lsl #3]	@ zero_extendqisi2
 510 0304 FFF7FEFF 		bl	mc_interface_fault_to_string
 511              	.LVL68:
 512 0308 0146     		mov	r1, r0
 513 030a 5046     		mov	r0, r10
ARM GAS  /tmp/cciDCA9n.s 			page 10


 514 030c FFF7FEFF 		bl	commands_printf
 515              	.LVL69:
 516              		.loc 1 119 0 discriminator 3
 517 0310 6068     		ldr	r0, [r4, #4]	@ float
 518 0312 FFF7FEFF 		bl	__aeabi_f2d
 519              	.LVL70:
 520 0316 0246     		mov	r2, r0
 521 0318 0B46     		mov	r3, r1
 522 031a 4846     		mov	r0, r9
 523 031c FFF7FEFF 		bl	commands_printf
 524              	.LVL71:
 525              		.loc 1 120 0 discriminator 3
 526 0320 A068     		ldr	r0, [r4, #8]	@ float
 527 0322 FFF7FEFF 		bl	__aeabi_f2d
 528              	.LVL72:
 529 0326 0246     		mov	r2, r0
 530 0328 0B46     		mov	r3, r1
 531 032a 4046     		mov	r0, r8
 532 032c FFF7FEFF 		bl	commands_printf
 533              	.LVL73:
 534              		.loc 1 121 0 discriminator 3
 535 0330 E068     		ldr	r0, [r4, #12]	@ float
 536 0332 FFF7FEFF 		bl	__aeabi_f2d
 537              	.LVL74:
 538 0336 0246     		mov	r2, r0
 539 0338 0B46     		mov	r3, r1
 540 033a A848     		ldr	r0, .L163+8
 541 033c FFF7FEFF 		bl	commands_printf
 542              	.LVL75:
 543              		.loc 1 122 0 discriminator 3
 544 0340 2069     		ldr	r0, [r4, #16]	@ float
 545 0342 FFF7FEFF 		bl	__aeabi_f2d
 546              	.LVL76:
 547 0346 0246     		mov	r2, r0
 548 0348 0B46     		mov	r3, r1
 549 034a A548     		ldr	r0, .L163+12
 550 034c FFF7FEFF 		bl	commands_printf
 551              	.LVL77:
 552              		.loc 1 123 0 discriminator 3
 553 0350 6069     		ldr	r0, [r4, #20]	@ float
 554 0352 FFF7FEFF 		bl	__aeabi_f2d
 555              	.LVL78:
 556 0356 0246     		mov	r2, r0
 557 0358 0B46     		mov	r3, r1
 558 035a A248     		ldr	r0, .L163+16
 559 035c FFF7FEFF 		bl	commands_printf
 560              	.LVL79:
 561              		.loc 1 124 0 discriminator 3
 562 0360 A169     		ldr	r1, [r4, #24]
 563 0362 A148     		ldr	r0, .L163+20
 564 0364 FFF7FEFF 		bl	commands_printf
 565              	.LVL80:
 566              		.loc 1 125 0 discriminator 3
 567 0368 E169     		ldr	r1, [r4, #28]
 568 036a A048     		ldr	r0, .L163+24
 569 036c FFF7FEFF 		bl	commands_printf
 570              	.LVL81:
ARM GAS  /tmp/cciDCA9n.s 			page 11


 571              		.loc 1 126 0 discriminator 3
 572 0370 D4ED0A7A 		vldr.32	s15, [r4, #40]	@ int
 573 0374 94ED047A 		vldr.32	s14, [r4, #16]
 574 0378 9D48     		ldr	r0, .L163+28
 575 037a F8EEE77A 		vcvt.f32.s32	s15, s15
 576              		.loc 1 117 0 discriminator 3
 577 037e 0136     		adds	r6, r6, #1
 578              	.LVL82:
 579              		.loc 1 126 0 discriminator 3
 580 0380 67EE877A 		vmul.f32	s15, s15, s14
 581 0384 FDEEE77A 		vcvt.s32.f32	s15, s15
 582 0388 17EE901A 		vmov	r1, s15	@ int
 583 038c FFF7FEFF 		bl	commands_printf
 584              	.LVL83:
 585              		.loc 1 127 0 discriminator 3
 586 0390 216A     		ldr	r1, [r4, #32]
 587 0392 9848     		ldr	r0, .L163+32
 588 0394 FFF7FEFF 		bl	commands_printf
 589              	.LVL84:
 590              		.loc 1 128 0 discriminator 3
 591 0398 616A     		ldr	r1, [r4, #36]
 592 039a 9748     		ldr	r0, .L163+36
 593 039c FFF7FEFF 		bl	commands_printf
 594              	.LVL85:
 595              		.loc 1 129 0 discriminator 3
 596 03a0 A16A     		ldr	r1, [r4, #40]
 597 03a2 9648     		ldr	r0, .L163+40
 598 03a4 FFF7FEFF 		bl	commands_printf
 599              	.LVL86:
 600              		.loc 1 130 0 discriminator 3
 601 03a8 E16A     		ldr	r1, [r4, #44]
 602 03aa 9548     		ldr	r0, .L163+44
 603 03ac FFF7FEFF 		bl	commands_printf
 604              	.LVL87:
 605              		.loc 1 131 0 discriminator 3
 606 03b0 206B     		ldr	r0, [r4, #48]	@ float
 607 03b2 FFF7FEFF 		bl	__aeabi_f2d
 608              	.LVL88:
 609 03b6 0246     		mov	r2, r0
 610 03b8 0B46     		mov	r3, r1
 611 03ba 9248     		ldr	r0, .L163+48
 612 03bc FFF7FEFF 		bl	commands_printf
 613              	.LVL89:
 614              		.loc 1 141 0 discriminator 3
 615 03c0 9148     		ldr	r0, .L163+52
 616 03c2 FFF7FEFF 		bl	commands_printf
 617              	.LVL90:
 618              		.loc 1 117 0 discriminator 3
 619 03c6 3B68     		ldr	r3, [r7]
 620 03c8 B342     		cmp	r3, r6
 621 03ca 95DC     		bgt	.L17
 622 03cc 81E6     		b	.L1
 623              	.LVL91:
 624              	.L142:
 625              	.LBE61:
 626              		.loc 1 145 0
 627 03ce FFF7FEFF 		bl	mc_interface_get_rpm
ARM GAS  /tmp/cciDCA9n.s 			page 12


 628              	.LVL92:
 629 03d2 10EE100A 		vmov	r0, s0
 630 03d6 FFF7FEFF 		bl	__aeabi_f2d
 631              	.LVL93:
 632 03da 0246     		mov	r2, r0
 633 03dc 0B46     		mov	r3, r1
 634 03de 8B48     		ldr	r0, .L163+56
 635 03e0 FFF7FEFF 		bl	commands_printf
 636              	.LVL94:
 637 03e4 75E6     		b	.L1
 638              	.L143:
 639              		.loc 1 147 0
 640 03e6 FFF7FEFF 		bl	mc_interface_get_tachometer_value
 641              	.LVL95:
 642 03ea 0146     		mov	r1, r0
 643 03ec 8848     		ldr	r0, .L163+60
 644 03ee FFF7FEFF 		bl	commands_printf
 645              	.LVL96:
 646 03f2 6EE6     		b	.L1
 647              	.L144:
 648              	.LVL97:
 649              	.LBB62:
 650              	.LBB63:
 651              	.LBB64:
 652              	.LBB65:
 653              	.LBB66:
 654              		.file 2 "ChibiOS_3.0.2/os/ext/CMSIS/include/core_cmFunc.h"
 655              		.loc 2 546 0
 656 03f4 2023     		movs	r3, #32
 657              		.syntax unified
 658              	@ 546 "ChibiOS_3.0.2/os/ext/CMSIS/include/core_cmFunc.h" 1
 659 03f6 83F31188 		MSR basepri, r3
 660              	@ 0 "" 2
 661              	.LVL98:
 662              		.thumb
 663              		.syntax unified
 664              	.LBE66:
 665              	.LBE65:
 666              	.LBE64:
 667              	.LBE63:
 668              		.loc 1 150 0
 669 03fa 864B     		ldr	r3, .L163+64
 670              		.loc 1 151 0
 671 03fc 864A     		ldr	r2, .L163+68
 672              		.loc 1 150 0
 673 03fe 596A     		ldr	r1, [r3, #36]
 674 0400 0E91     		str	r1, [sp, #56]
 675              		.loc 1 151 0
 676 0402 516A     		ldr	r1, [r2, #36]
 677 0404 0F91     		str	r1, [sp, #60]
 678              		.loc 1 152 0
 679 0406 1968     		ldr	r1, [r3]
 680 0408 C1F30011 		ubfx	r1, r1, #4, #1
 681 040c 1091     		str	r1, [sp, #64]
 682              		.loc 1 153 0
 683 040e 1168     		ldr	r1, [r2]
 684 0410 C1F30011 		ubfx	r1, r1, #4, #1
ARM GAS  /tmp/cciDCA9n.s 			page 13


 685 0414 1191     		str	r1, [sp, #68]
 686              	.LVL99:
 687              	.LBB67:
 688              	.LBB68:
 689              	.LBB69:
 690              	.LBB70:
 691              	.LBB71:
 692              		.loc 2 546 0
 693              		.syntax unified
 694              	@ 546 "ChibiOS_3.0.2/os/ext/CMSIS/include/core_cmFunc.h" 1
 695 0416 80F31188 		MSR basepri, r0
 696              	@ 0 "" 2
 697              	.LVL100:
 698              		.thumb
 699              		.syntax unified
 700              	.LBE71:
 701              	.LBE70:
 702              	.LBE69:
 703              	.LBE68:
 704              	.LBE67:
 705              		.loc 1 162 0
 706 041a 8048     		ldr	r0, .L163+72
 707              		.loc 1 155 0
 708 041c D3F834A0 		ldr	r10, [r3, #52]
 709              	.LVL101:
 710              		.loc 1 156 0
 711 0420 D3F83890 		ldr	r9, [r3, #56]
 712              	.LVL102:
 713              		.loc 1 157 0
 714 0424 D3F83C80 		ldr	r8, [r3, #60]
 715              	.LVL103:
 716              		.loc 1 158 0
 717 0428 DF6A     		ldr	r7, [r3, #44]
 718              	.LVL104:
 719              		.loc 1 159 0
 720 042a 566B     		ldr	r6, [r2, #52]
 721              	.LVL105:
 722              		.loc 1 160 0
 723 042c 1D6C     		ldr	r5, [r3, #64]
 724              	.LVL106:
 725              		.loc 1 161 0
 726 042e 946B     		ldr	r4, [r2, #56]
 727              	.LVL107:
 728              		.loc 1 162 0
 729 0430 0E99     		ldr	r1, [sp, #56]
 730 0432 FFF7FEFF 		bl	commands_printf
 731              	.LVL108:
 732              		.loc 1 163 0
 733 0436 0F99     		ldr	r1, [sp, #60]
 734 0438 7948     		ldr	r0, .L163+76
 735 043a FFF7FEFF 		bl	commands_printf
 736              	.LVL109:
 737              		.loc 1 164 0
 738 043e 5146     		mov	r1, r10
 739 0440 7848     		ldr	r0, .L163+80
 740 0442 FFF7FEFF 		bl	commands_printf
 741              	.LVL110:
ARM GAS  /tmp/cciDCA9n.s 			page 14


 742              		.loc 1 165 0
 743 0446 4946     		mov	r1, r9
 744 0448 7748     		ldr	r0, .L163+84
 745 044a FFF7FEFF 		bl	commands_printf
 746              	.LVL111:
 747              		.loc 1 166 0
 748 044e 4146     		mov	r1, r8
 749 0450 7648     		ldr	r0, .L163+88
 750 0452 FFF7FEFF 		bl	commands_printf
 751              	.LVL112:
 752              		.loc 1 167 0
 753 0456 3946     		mov	r1, r7
 754 0458 7548     		ldr	r0, .L163+92
 755 045a FFF7FEFF 		bl	commands_printf
 756              	.LVL113:
 757              		.loc 1 168 0
 758 045e 1099     		ldr	r1, [sp, #64]
 759 0460 7448     		ldr	r0, .L163+96
 760 0462 FFF7FEFF 		bl	commands_printf
 761              	.LVL114:
 762              		.loc 1 169 0
 763 0466 1199     		ldr	r1, [sp, #68]
 764 0468 7348     		ldr	r0, .L163+100
 765 046a FFF7FEFF 		bl	commands_printf
 766              	.LVL115:
 767              		.loc 1 170 0
 768 046e 3146     		mov	r1, r6
 769 0470 7248     		ldr	r0, .L163+104
 770 0472 FFF7FEFF 		bl	commands_printf
 771              	.LVL116:
 772              		.loc 1 171 0
 773 0476 2946     		mov	r1, r5
 774 0478 7148     		ldr	r0, .L163+108
 775 047a FFF7FEFF 		bl	commands_printf
 776              	.LVL117:
 777              		.loc 1 172 0
 778 047e 2146     		mov	r1, r4
 779 0480 7048     		ldr	r0, .L163+112
 780 0482 FFF7FEFF 		bl	commands_printf
 781              	.LVL118:
 782              	.LBE62:
 783 0486 24E6     		b	.L1
 784              	.LVL119:
 785              	.L145:
 786              		.loc 1 174 0
 787 0488 6F4B     		ldr	r3, .L163+116
 788 048a DFED706A 		vldr.32	s13, .L163+120
 789 048e 1B8A     		ldrh	r3, [r3, #16]
 790 0490 9FED6F7A 		vldr.32	s14, .L163+124
 791 0494 07EE903A 		vmov	s15, r3	@ int
 792 0498 F8EE677A 		vcvt.f32.u32	s15, s15
 793 049c 67EEA67A 		vmul.f32	s15, s15, s13
 794 04a0 67EE877A 		vmul.f32	s15, s15, s14
 795 04a4 17EE900A 		vmov	r0, s15
 796 04a8 FFF7FEFF 		bl	__aeabi_f2d
 797              	.LVL120:
 798 04ac 0246     		mov	r2, r0
ARM GAS  /tmp/cciDCA9n.s 			page 15


 799 04ae 0B46     		mov	r3, r1
 800 04b0 6848     		ldr	r0, .L163+128
 801 04b2 FFF7FEFF 		bl	commands_printf
 802              	.LVL121:
 803 04b6 0CE6     		b	.L1
 804              	.L146:
 805              	.LBB72:
 806              		.loc 1 178 0
 807 04b8 674B     		ldr	r3, .L163+132
 808              		.loc 1 181 0
 809 04ba 6849     		ldr	r1, .L163+136
 810 04bc 1998     		ldr	r0, [sp, #100]
 811              		.loc 1 178 0
 812 04be 0B93     		str	r3, [sp, #44]	@ float
 813              		.loc 1 181 0
 814 04c0 0BAA     		add	r2, sp, #44
 815              		.loc 1 179 0
 816 04c2 0C93     		str	r3, [sp, #48]	@ float
 817              		.loc 1 180 0
 818 04c4 0D93     		str	r3, [sp, #52]	@ float
 819              		.loc 1 181 0
 820 04c6 FFF7FEFF 		bl	sscanf
 821              	.LVL122:
 822              		.loc 1 182 0
 823 04ca 0CAA     		add	r2, sp, #48
 824 04cc 6349     		ldr	r1, .L163+136
 825 04ce 1A98     		ldr	r0, [sp, #104]
 826 04d0 FFF7FEFF 		bl	sscanf
 827              	.LVL123:
 828              		.loc 1 183 0
 829 04d4 0DAA     		add	r2, sp, #52
 830 04d6 1B98     		ldr	r0, [sp, #108]
 831 04d8 6049     		ldr	r1, .L163+136
 832 04da FFF7FEFF 		bl	sscanf
 833              	.LVL124:
 834              		.loc 1 185 0
 835 04de 9DED0B0A 		vldr.32	s0, [sp, #44]
 836 04e2 B5EEC00A 		vcmpe.f32	s0, #0
 837 04e6 F1EE10FA 		vmrs	APSR_nzcv, FPSCR
 838 04ea 27DD     		ble	.L81
 839              		.loc 1 185 0 is_stmt 0 discriminator 1
 840 04ec 5C4B     		ldr	r3, .L163+140
 841 04ee D3ED017A 		vldr.32	s15, [r3, #4]
 842 04f2 B4EEE70A 		vcmpe.f32	s0, s15
 843 04f6 F1EE10FA 		vmrs	APSR_nzcv, FPSCR
 844 04fa 1FD5     		bpl	.L81
 845              		.loc 1 186 0 is_stmt 1 discriminator 2
 846 04fc DDED0C0A 		vldr.32	s1, [sp, #48]
 847              		.loc 1 185 0 discriminator 2
 848 0500 F2EE047A 		vmov.f32	s15, #1.0e+1
 849 0504 F4EEE70A 		vcmpe.f32	s1, s15
 850 0508 F1EE10FA 		vmrs	APSR_nzcv, FPSCR
 851 050c 16DD     		ble	.L81
 852              		.loc 1 186 0
 853 050e DFED557A 		vldr.32	s15, .L163+144
 854 0512 F4EEE70A 		vcmpe.f32	s1, s15
 855 0516 F1EE10FA 		vmrs	APSR_nzcv, FPSCR
ARM GAS  /tmp/cciDCA9n.s 			page 16


 856 051a 0FD5     		bpl	.L81
 857              		.loc 1 187 0 discriminator 1
 858 051c 9DED0D1A 		vldr.32	s2, [sp, #52]
 859              		.loc 1 186 0 discriminator 1
 860 0520 DFED517A 		vldr.32	s15, .L163+148
 861 0524 B4EEE71A 		vcmpe.f32	s2, s15
 862 0528 F1EE10FA 		vmrs	APSR_nzcv, FPSCR
 863 052c 06DD     		ble	.L81
 864              		.loc 1 187 0
 865 052e DFED4F7A 		vldr.32	s15, .L163+152
 866 0532 B4EEE71A 		vcmpe.f32	s2, s15
 867 0536 F1EE10FA 		vmrs	APSR_nzcv, FPSCR
 868 053a 20D4     		bmi	.L147
 869              	.LVL125:
 870              	.L81:
 871              	.LBE72:
 872              	.LBB76:
 873              		.loc 1 418 0
 874 053c 4C48     		ldr	r0, .L163+156
 875 053e FFF7FEFF 		bl	commands_printf
 876              	.LVL126:
 877 0542 C6E5     		b	.L1
 878              	.LVL127:
 879              	.L23:
 880              	.LBE76:
 881              		.loc 1 221 0
 882 0544 4B49     		ldr	r1, .L163+160
 883 0546 2846     		mov	r0, r5
 884 0548 FFF7FEFF 		bl	strcmp
 885              	.LVL128:
 886 054c 0028     		cmp	r0, #0
 887 054e 00F0D181 		beq	.L148
 888              		.loc 1 226 0
 889 0552 4949     		ldr	r1, .L163+164
 890 0554 2846     		mov	r0, r5
 891 0556 FFF7FEFF 		bl	strcmp
 892              	.LVL129:
 893 055a 0646     		mov	r6, r0
 894 055c 0028     		cmp	r0, #0
 895 055e 00F06F81 		beq	.L149
 896              		.loc 1 240 0
 897 0562 4649     		ldr	r1, .L163+168
 898 0564 2846     		mov	r0, r5
 899 0566 FFF7FEFF 		bl	strcmp
 900              	.LVL130:
 901 056a 0028     		cmp	r0, #0
 902 056c 40F0E680 		bne	.L43
 903              		.loc 1 241 0
 904 0570 022C     		cmp	r4, #2
 905 0572 00F09380 		beq	.L150
 906              	.L44:
 907              		.loc 1 269 0
 908 0576 4248     		ldr	r0, .L163+172
 909 0578 FFF7FEFF 		bl	commands_printf
 910              	.LVL131:
 911 057c A9E5     		b	.L1
 912              	.L147:
ARM GAS  /tmp/cciDCA9n.s 			page 17


 913              	.LBB77:
 914              	.LBB73:
 915              		.loc 1 193 0
 916 057e 10AB     		add	r3, sp, #64
 917 0580 11AA     		add	r2, sp, #68
 918 0582 0FA9     		add	r1, sp, #60
 919 0584 0EA8     		add	r0, sp, #56
 920 0586 FFF7FEFF 		bl	conf_general_detect_motor_param
 921              	.LVL132:
 922 058a 0028     		cmp	r0, #0
 923 058c 00F08682 		beq	.L32
 924              		.loc 1 194 0
 925 0590 0E98     		ldr	r0, [sp, #56]	@ float
 926 0592 FFF7FEFF 		bl	__aeabi_f2d
 927              	.LVL133:
 928 0596 0246     		mov	r2, r0
 929 0598 0B46     		mov	r3, r1
 930 059a 3A48     		ldr	r0, .L163+176
 931 059c FFF7FEFF 		bl	commands_printf
 932              	.LVL134:
 933              		.loc 1 195 0
 934 05a0 0F98     		ldr	r0, [sp, #60]	@ float
 935 05a2 FFF7FEFF 		bl	__aeabi_f2d
 936              	.LVL135:
 937 05a6 0246     		mov	r2, r0
 938 05a8 0B46     		mov	r3, r1
 939 05aa 3748     		ldr	r0, .L163+180
 940 05ac FFF7FEFF 		bl	commands_printf
 941              	.LVL136:
 942              		.loc 1 197 0
 943 05b0 109B     		ldr	r3, [sp, #64]
 944 05b2 002B     		cmp	r3, #0
 945 05b4 00F05582 		beq	.L151
 946              		.loc 1 202 0
 947 05b8 591C     		adds	r1, r3, #1
 948 05ba 00F07482 		beq	.L152
 949              		.loc 1 207 0
 950 05be 9A1C     		adds	r2, r3, #2
 951 05c0 00F04A82 		beq	.L153
 952              		.loc 1 209 0
 953 05c4 0333     		adds	r3, r3, #3
 954 05c6 7FF484AD 		bne	.L1
 955              		.loc 1 210 0
 956 05ca 3048     		ldr	r0, .L163+184
 957 05cc FFF7FEFF 		bl	commands_printf
 958              	.LVL137:
 959 05d0 7FE5     		b	.L1
 960              	.L164:
 961 05d2 00BF     		.align	2
 962              	.L163:
 963 05d4 44020000 		.word	.LC29
 964 05d8 00000000 		.word	.LANCHOR4
 965 05dc C0020000 		.word	.LC33
 966 05e0 D8020000 		.word	.LC34
 967 05e4 F0020000 		.word	.LC35
 968 05e8 08030000 		.word	.LC36
 969 05ec 20030000 		.word	.LC37
ARM GAS  /tmp/cciDCA9n.s 			page 18


 970 05f0 38030000 		.word	.LC38
 971 05f4 50030000 		.word	.LC39
 972 05f8 68030000 		.word	.LC40
 973 05fc 80030000 		.word	.LC41
 974 0600 98030000 		.word	.LC42
 975 0604 B0030000 		.word	.LC43
 976 0608 18000000 		.word	.LC4
 977 060c CC030000 		.word	.LC45
 978 0610 F0030000 		.word	.LC47
 979 0614 00000140 		.word	1073807360
 980 0618 00040140 		.word	1073808384
 981 061c 0C040000 		.word	.LC49
 982 0620 1C040000 		.word	.LC50
 983 0624 2C040000 		.word	.LC51
 984 0628 3C040000 		.word	.LC52
 985 062c 4C040000 		.word	.LC53
 986 0630 5C040000 		.word	.LC54
 987 0634 64040000 		.word	.LC55
 988 0638 70040000 		.word	.LC56
 989 063c 7C040000 		.word	.LC57
 990 0640 90040000 		.word	.LC58
 991 0644 A8040000 		.word	.LC59
 992 0648 00000000 		.word	ADC_Value
 993 064c 6740533A 		.word	978534503
 994 0650 74D19541 		.word	1100337524
 995 0654 C8040000 		.word	.LC61
 996 0658 000080BF 		.word	-1082130432
 997 065c F0040000 		.word	.LC63
 998 0660 00000000 		.word	.LANCHOR0
 999 0664 00803B45 		.word	1161527296
 1000 0668 0AD7A33C 		.word	1017370378
 1001 066c CDCC4C3F 		.word	1061997773
 1002 0670 20060000 		.word	.LC72
 1003 0674 60060000 		.word	.LC74
 1004 0678 BC060000 		.word	.LC78
 1005 067c 98070000 		.word	.LC86
 1006 0680 F4070000 		.word	.LC91
 1007 0684 F4040000 		.word	.LC64
 1008 0688 14050000 		.word	.LC65
 1009 068c B8050000 		.word	.LC70
 1010 0690 78020000 		.word	.LC30
 1011 0694 90020000 		.word	.LC31
 1012 0698 A8020000 		.word	.LC32
 1013              	.L150:
 1014              	.LBE73:
 1015              	.LBE77:
 1016              	.LBB78:
 1017              		.loc 1 242 0
 1018 069c A44B     		ldr	r3, .L165
 1019              		.loc 1 243 0
 1020 069e 1998     		ldr	r0, [sp, #100]
 1021 06a0 A449     		ldr	r1, .L165+4
 1022              		.loc 1 242 0
 1023 06a2 0F93     		str	r3, [sp, #60]	@ float
 1024              		.loc 1 243 0
 1025 06a4 0FAA     		add	r2, sp, #60
 1026 06a6 FFF7FEFF 		bl	sscanf
ARM GAS  /tmp/cciDCA9n.s 			page 19


 1027              	.LVL138:
 1028              		.loc 1 245 0
 1029 06aa DDED0F7A 		vldr.32	s15, [sp, #60]
 1030 06ae F5EEC07A 		vcmpe.f32	s15, #0
 1031 06b2 F1EE10FA 		vmrs	APSR_nzcv, FPSCR
 1032 06b6 7FF741AF 		ble	.L81
 1033              		.loc 1 245 0 is_stmt 0 discriminator 1
 1034 06ba 9F4C     		ldr	r4, .L165+8
 1035              	.LVL139:
 1036 06bc 94ED017A 		vldr.32	s14, [r4, #4]
 1037 06c0 F4EEC77A 		vcmpe.f32	s15, s14
 1038 06c4 F1EE10FA 		vmrs	APSR_nzcv, FPSCR
 1039 06c8 3FF638AF 		bhi	.L81
 1040              		.loc 1 246 0 is_stmt 1
 1041 06cc FFF7FEFF 		bl	encoder_is_configured
 1042              	.LVL140:
 1043 06d0 0028     		cmp	r0, #0
 1044 06d2 6DD0     		beq	.L48
 1045              	.LBB79:
 1046              		.loc 1 248 0
 1047 06d4 0223     		movs	r3, #2
 1048              		.loc 1 249 0
 1049 06d6 2046     		mov	r0, r4
 1050              		.loc 1 247 0
 1051 06d8 A678     		ldrb	r6, [r4, #2]	@ zero_extendqisi2
 1052              	.LVL141:
 1053              		.loc 1 248 0
 1054 06da A370     		strb	r3, [r4, #2]
 1055              		.loc 1 251 0
 1056 06dc 0025     		movs	r5, #0
 1057              		.loc 1 249 0
 1058 06de FFF7FEFF 		bl	mc_interface_set_configuration
 1059              	.LVL142:
 1060              		.loc 1 253 0
 1061 06e2 0027     		movs	r7, #0
 1062              		.loc 1 254 0
 1063 06e4 9DED0F0A 		vldr.32	s0, [sp, #60]
 1064              		.loc 1 251 0
 1065 06e8 1095     		str	r5, [sp, #64]	@ float
 1066              		.loc 1 254 0
 1067 06ea 11AA     		add	r2, sp, #68
 1068 06ec 0EAB     		add	r3, sp, #56
 1069 06ee 10A9     		add	r1, sp, #64
 1070 06f0 0120     		movs	r0, #1
 1071              		.loc 1 252 0
 1072 06f2 1195     		str	r5, [sp, #68]	@ float
 1073              		.loc 1 253 0
 1074 06f4 8DF83870 		strb	r7, [sp, #56]
 1075              		.loc 1 254 0
 1076 06f8 FFF7FEFF 		bl	mcpwm_foc_encoder_detect
 1077              	.LVL143:
 1078              		.loc 1 257 0
 1079 06fc 2046     		mov	r0, r4
 1080              		.loc 1 256 0
 1081 06fe A670     		strb	r6, [r4, #2]
 1082              		.loc 1 257 0
 1083 0700 FFF7FEFF 		bl	mc_interface_set_configuration
ARM GAS  /tmp/cciDCA9n.s 			page 20


 1084              	.LVL144:
 1085              		.loc 1 259 0
 1086 0704 1098     		ldr	r0, [sp, #64]	@ float
 1087 0706 FFF7FEFF 		bl	__aeabi_f2d
 1088              	.LVL145:
 1089 070a 0246     		mov	r2, r0
 1090 070c 0B46     		mov	r3, r1
 1091 070e 8B48     		ldr	r0, .L165+12
 1092 0710 FFF7FEFF 		bl	commands_printf
 1093              	.LVL146:
 1094              		.loc 1 260 0
 1095 0714 1198     		ldr	r0, [sp, #68]	@ float
 1096 0716 FFF7FEFF 		bl	__aeabi_f2d
 1097              	.LVL147:
 1098 071a 0246     		mov	r2, r0
 1099 071c 0B46     		mov	r3, r1
 1100 071e 8848     		ldr	r0, .L165+16
 1101 0720 FFF7FEFF 		bl	commands_printf
 1102              	.LVL148:
 1103              		.loc 1 261 0
 1104 0724 9DF83810 		ldrb	r1, [sp, #56]	@ zero_extendqisi2
 1105 0728 864A     		ldr	r2, .L165+20
 1106 072a 874B     		ldr	r3, .L165+24
 1107 072c 8748     		ldr	r0, .L165+28
 1108 072e B942     		cmp	r1, r7
 1109 0730 0CBF     		ite	eq
 1110 0732 1146     		moveq	r1, r2
 1111 0734 1946     		movne	r1, r3
 1112 0736 FFF7FEFF 		bl	commands_printf
 1113              	.LVL149:
 1114              	.LBE79:
 1115 073a CAE4     		b	.L1
 1116              	.LVL150:
 1117              	.L43:
 1118              	.LBE78:
 1119              		.loc 1 271 0
 1120 073c 8449     		ldr	r1, .L165+32
 1121 073e 2846     		mov	r0, r5
 1122 0740 FFF7FEFF 		bl	strcmp
 1123              	.LVL151:
 1124 0744 0028     		cmp	r0, #0
 1125 0746 37D1     		bne	.L51
 1126              		.loc 1 272 0
 1127 0748 022C     		cmp	r4, #2
 1128 074a 7FF414AF 		bne	.L44
 1129              	.LBB80:
 1130              		.loc 1 273 0
 1131 074e 11AD     		add	r5, sp, #68
 1132 0750 774B     		ldr	r3, .L165
 1133              		.loc 1 274 0
 1134 0752 1998     		ldr	r0, [sp, #100]
 1135 0754 7749     		ldr	r1, .L165+4
 1136              		.loc 1 273 0
 1137 0756 1193     		str	r3, [sp, #68]	@ float
 1138              		.loc 1 274 0
 1139 0758 2A46     		mov	r2, r5
 1140 075a FFF7FEFF 		bl	sscanf
ARM GAS  /tmp/cciDCA9n.s 			page 21


 1141              	.LVL152:
 1142              		.loc 1 276 0
 1143 075e D5ED007A 		vldr.32	s15, [r5]
 1144 0762 F5EEC07A 		vcmpe.f32	s15, #0
 1145 0766 F1EE10FA 		vmrs	APSR_nzcv, FPSCR
 1146 076a 7FF7E7AE 		ble	.L81
 1147              		.loc 1 276 0 is_stmt 0 discriminator 1
 1148 076e 724C     		ldr	r4, .L165+8
 1149              	.LVL153:
 1150 0770 94ED017A 		vldr.32	s14, [r4, #4]
 1151 0774 F4EEC77A 		vcmpe.f32	s15, s14
 1152 0778 F1EE10FA 		vmrs	APSR_nzcv, FPSCR
 1153 077c 3FF6DEAE 		bhi	.L81
 1154              		.loc 1 277 0 is_stmt 1
 1155 0780 0223     		movs	r3, #2
 1156              		.loc 1 278 0
 1157 0782 2046     		mov	r0, r4
 1158              		.loc 1 277 0
 1159 0784 A370     		strb	r3, [r4, #2]
 1160              		.loc 1 278 0
 1161 0786 FFF7FEFF 		bl	mc_interface_set_configuration
 1162              	.LVL154:
 1163              		.loc 1 280 0
 1164 078a 4FF4FA60 		mov	r0, #2000
 1165 078e 95ED000A 		vldr.32	s0, [r5]
 1166 0792 FFF7FEFF 		bl	mcpwm_foc_measure_resistance
 1167              	.LVL155:
 1168 0796 10EE100A 		vmov	r0, s0
 1169 079a FFF7FEFF 		bl	__aeabi_f2d
 1170              	.LVL156:
 1171 079e 0246     		mov	r2, r0
 1172 07a0 0B46     		mov	r3, r1
 1173 07a2 6C48     		ldr	r0, .L165+36
 1174 07a4 FFF7FEFF 		bl	commands_printf
 1175              	.LVL157:
 1176              		.loc 1 282 0
 1177 07a8 6B48     		ldr	r0, .L165+40
 1178 07aa FFF7FEFF 		bl	mc_interface_set_configuration
 1179              	.LVL158:
 1180 07ae 90E4     		b	.L1
 1181              	.L48:
 1182              	.LBE80:
 1183              	.LBB81:
 1184              		.loc 1 263 0
 1185 07b0 6A48     		ldr	r0, .L165+44
 1186 07b2 FFF7FEFF 		bl	commands_printf
 1187              	.LVL159:
 1188 07b6 8CE4     		b	.L1
 1189              	.LVL160:
 1190              	.L51:
 1191              	.LBE81:
 1192              		.loc 1 289 0
 1193 07b8 6949     		ldr	r1, .L165+48
 1194 07ba 2846     		mov	r0, r5
 1195 07bc FFF7FEFF 		bl	strcmp
 1196              	.LVL161:
 1197 07c0 0028     		cmp	r0, #0
ARM GAS  /tmp/cciDCA9n.s 			page 22


 1198 07c2 40F0EF80 		bne	.L56
 1199              		.loc 1 290 0
 1200 07c6 022C     		cmp	r4, #2
 1201 07c8 7FF4D5AE 		bne	.L44
 1202              	.LBB82:
 1203              		.loc 1 291 0
 1204 07cc 584B     		ldr	r3, .L165
 1205              		.loc 1 292 0
 1206 07ce 1998     		ldr	r0, [sp, #100]
 1207 07d0 5849     		ldr	r1, .L165+4
 1208              		.loc 1 291 0
 1209 07d2 1093     		str	r3, [sp, #64]	@ float
 1210              		.loc 1 292 0
 1211 07d4 10AA     		add	r2, sp, #64
 1212 07d6 FFF7FEFF 		bl	sscanf
 1213              	.LVL162:
 1214              		.loc 1 294 0
 1215 07da DDED107A 		vldr.32	s15, [sp, #64]
 1216 07de F5EEC07A 		vcmpe.f32	s15, #0
 1217 07e2 F1EE10FA 		vmrs	APSR_nzcv, FPSCR
 1218 07e6 7FF7A9AE 		ble	.L81
 1219              		.loc 1 294 0 is_stmt 0 discriminator 1
 1220 07ea 9FED5E7A 		vldr.32	s14, .L165+52
 1221 07ee F4EEC77A 		vcmpe.f32	s15, s14
 1222 07f2 F1EE10FA 		vmrs	APSR_nzcv, FPSCR
 1223 07f6 7FF5A1AE 		bpl	.L81
 1224              	.LBB83:
 1225              		.loc 1 295 0 is_stmt 1
 1226 07fa 4F4B     		ldr	r3, .L165+8
 1227              		.loc 1 296 0
 1228 07fc 5A4A     		ldr	r2, .L165+56
 1229 07fe C3F8AC20 		str	r2, [r3, #172]	@ float
 1230              		.loc 1 297 0
 1231 0802 1846     		mov	r0, r3
 1232              		.loc 1 295 0
 1233 0804 0221     		movs	r1, #2
 1234 0806 9970     		strb	r1, [r3, #2]
 1235              		.loc 1 297 0
 1236 0808 FFF7FEFF 		bl	mc_interface_set_configuration
 1237              	.LVL163:
 1238              		.loc 1 300 0
 1239 080c 11A9     		add	r1, sp, #68
 1240 080e C820     		movs	r0, #200
 1241 0810 9DED100A 		vldr.32	s0, [sp, #64]
 1242 0814 FFF7FEFF 		bl	mcpwm_foc_measure_inductance
 1243              	.LVL164:
 1244              		.loc 1 301 0
 1245 0818 10EE100A 		vmov	r0, s0
 1246 081c FFF7FEFF 		bl	__aeabi_f2d
 1247              	.LVL165:
 1248 0820 0446     		mov	r4, r0
 1249              	.LVL166:
 1250 0822 1198     		ldr	r0, [sp, #68]	@ float
 1251 0824 0D46     		mov	r5, r1
 1252 0826 FFF7FEFF 		bl	__aeabi_f2d
 1253              	.LVL167:
 1254 082a 2246     		mov	r2, r4
ARM GAS  /tmp/cciDCA9n.s 			page 23


 1255 082c CDE90001 		strd	r0, [sp]
 1256 0830 2B46     		mov	r3, r5
 1257 0832 4E48     		ldr	r0, .L165+60
 1258 0834 FFF7FEFF 		bl	commands_printf
 1259              	.LVL168:
 1260              		.loc 1 303 0
 1261 0838 4748     		ldr	r0, .L165+40
 1262 083a FFF7FEFF 		bl	mc_interface_set_configuration
 1263              	.LVL169:
 1264              	.LBE83:
 1265              		.loc 1 294 0
 1266 083e 48E4     		b	.L1
 1267              	.LVL170:
 1268              	.L149:
 1269              	.LBE82:
 1270              		.loc 1 227 0
 1271 0840 4B48     		ldr	r0, .L165+64
 1272              	.LBB84:
 1273              	.LBB85:
 1274              	.LBB86:
 1275              	.LBB87:
 1276              	.LBB88:
 1277              	.LBB89:
 1278              		.file 3 "ChibiOS_3.0.2/os/rt/include/chvt.h"
 1279              		.loc 3 231 0
 1280 0842 4C4D     		ldr	r5, .L165+68
 1281              	.LBE89:
 1282              	.LBE88:
 1283              	.LBE87:
 1284              	.LBE86:
 1285              		.loc 1 231 0
 1286 0844 9FED4C8A 		vldr.32	s16, .L165+72
 1287              		.loc 1 232 0
 1288 0848 4C4F     		ldr	r7, .L165+76
 1289              	.LBE85:
 1290              	.LBE84:
 1291              		.loc 1 227 0
 1292 084a FFF7FEFF 		bl	commands_printf
 1293              	.LVL171:
 1294 084e 02E0     		b	.L42
 1295              	.LVL172:
 1296              	.L40:
 1297              	.LBB102:
 1298              		.loc 1 228 0 discriminator 2
 1299 0850 0A2E     		cmp	r6, #10
 1300 0852 3FF43EAC 		beq	.L1
 1301              	.LVL173:
 1302              	.L42:
 1303              	.LBB100:
 1304              		.loc 1 229 0
 1305 0856 3046     		mov	r0, r6
 1306 0858 FFF7FEFF 		bl	comm_can_get_status_msg_index
 1307              	.LVL174:
 1308              		.loc 1 231 0
 1309 085c 0168     		ldr	r1, [r0]
 1310 085e 0029     		cmp	r1, #0
 1311              		.loc 1 229 0
ARM GAS  /tmp/cciDCA9n.s 			page 24


 1312 0860 0446     		mov	r4, r0
 1313              	.LVL175:
 1314              		.loc 1 231 0
 1315 0862 B7EE007A 		vmov.f32	s14, #1.0e+0
 1316              	.LBE100:
 1317              		.loc 1 228 0
 1318 0866 06F10106 		add	r6, r6, #1
 1319              	.LVL176:
 1320              	.LBB101:
 1321              		.loc 1 231 0
 1322 086a F1DB     		blt	.L40
 1323              	.LBB93:
 1324              	.LBB92:
 1325              	.LBB91:
 1326              	.LBB90:
 1327              		.loc 3 231 0 discriminator 1
 1328 086c AB6A     		ldr	r3, [r5, #40]
 1329              	.LVL177:
 1330              	.LBE90:
 1331              	.LBE91:
 1332              		.loc 3 267 0 discriminator 1
 1333 086e 4268     		ldr	r2, [r0, #4]
 1334 0870 9B1A     		subs	r3, r3, r2
 1335              	.LBE92:
 1336              	.LBE93:
 1337              		.loc 1 231 0 discriminator 1
 1338 0872 07EE903A 		vmov	s15, r3	@ int
 1339 0876 F8EE677A 		vcvt.f32.u32	s15, s15
 1340 087a C7EE886A 		vdiv.f32	s13, s15, s16
 1341 087e F4EEC76A 		vcmpe.f32	s13, s14
 1342 0882 F1EE10FA 		vmrs	APSR_nzcv, FPSCR
 1343 0886 E3D5     		bpl	.L40
 1344              		.loc 1 232 0
 1345 0888 3846     		mov	r0, r7
 1346              	.LVL178:
 1347 088a FFF7FEFF 		bl	commands_printf
 1348              	.LVL179:
 1349              		.loc 1 233 0
 1350 088e 6168     		ldr	r1, [r4, #4]
 1351 0890 3B48     		ldr	r0, .L165+80
 1352 0892 FFF7FEFF 		bl	commands_printf
 1353              	.LVL180:
 1354              	.LBB94:
 1355              	.LBB95:
 1356              		.loc 3 267 0
 1357 0896 6268     		ldr	r2, [r4, #4]
 1358              	.LBB96:
 1359              	.LBB97:
 1360              		.loc 3 231 0
 1361 0898 AB6A     		ldr	r3, [r5, #40]
 1362              	.LVL181:
 1363              	.LBE97:
 1364              	.LBE96:
 1365              	.LBE95:
 1366              	.LBE94:
 1367              		.loc 1 234 0
 1368 089a 9FED3A7A 		vldr.32	s14, .L165+84
ARM GAS  /tmp/cciDCA9n.s 			page 25


 1369              	.LBB99:
 1370              	.LBB98:
 1371              		.loc 3 267 0
 1372 089e 9B1A     		subs	r3, r3, r2
 1373              	.LBE98:
 1374              	.LBE99:
 1375              		.loc 1 234 0
 1376 08a0 07EE903A 		vmov	s15, r3	@ int
 1377 08a4 F8EE677A 		vcvt.f32.u32	s15, s15
 1378 08a8 C7EE886A 		vdiv.f32	s13, s15, s16
 1379 08ac 66EE877A 		vmul.f32	s15, s13, s14
 1380 08b0 17EE900A 		vmov	r0, s15
 1381 08b4 FFF7FEFF 		bl	__aeabi_f2d
 1382              	.LVL182:
 1383 08b8 0246     		mov	r2, r0
 1384 08ba 0B46     		mov	r3, r1
 1385 08bc 3248     		ldr	r0, .L165+88
 1386 08be FFF7FEFF 		bl	commands_printf
 1387              	.LVL183:
 1388              		.loc 1 235 0
 1389 08c2 A068     		ldr	r0, [r4, #8]	@ float
 1390 08c4 FFF7FEFF 		bl	__aeabi_f2d
 1391              	.LVL184:
 1392 08c8 0246     		mov	r2, r0
 1393 08ca 0B46     		mov	r3, r1
 1394 08cc 2F48     		ldr	r0, .L165+92
 1395 08ce FFF7FEFF 		bl	commands_printf
 1396              	.LVL185:
 1397              		.loc 1 236 0
 1398 08d2 E068     		ldr	r0, [r4, #12]	@ float
 1399 08d4 FFF7FEFF 		bl	__aeabi_f2d
 1400              	.LVL186:
 1401 08d8 0246     		mov	r2, r0
 1402 08da 0B46     		mov	r3, r1
 1403 08dc 2C48     		ldr	r0, .L165+96
 1404 08de FFF7FEFF 		bl	commands_printf
 1405              	.LVL187:
 1406              		.loc 1 237 0
 1407 08e2 2069     		ldr	r0, [r4, #16]	@ float
 1408 08e4 FFF7FEFF 		bl	__aeabi_f2d
 1409              	.LVL188:
 1410 08e8 0246     		mov	r2, r0
 1411 08ea 0B46     		mov	r3, r1
 1412 08ec 2948     		ldr	r0, .L165+100
 1413 08ee FFF7FEFF 		bl	commands_printf
 1414              	.LVL189:
 1415 08f2 ADE7     		b	.L40
 1416              	.LVL190:
 1417              	.L148:
 1418              	.LBE101:
 1419              	.LBE102:
 1420              	.LBB103:
 1421              		.loc 1 222 0 discriminator 7
 1422 08f4 11A8     		add	r0, sp, #68
 1423 08f6 FFF7FEFF 		bl	mcpwm_get_rpm_dep
 1424              	.LVL191:
 1425              		.loc 1 223 0 discriminator 7
ARM GAS  /tmp/cciDCA9n.s 			page 26


 1426 08fa 1198     		ldr	r0, [sp, #68]	@ float
 1427 08fc FFF7FEFF 		bl	__aeabi_f2d
 1428              	.LVL192:
 1429 0900 0246     		mov	r2, r0
 1430 0902 0B46     		mov	r3, r1
 1431 0904 2448     		ldr	r0, .L165+104
 1432 0906 FFF7FEFF 		bl	commands_printf
 1433              	.LVL193:
 1434              		.loc 1 224 0 discriminator 7
 1435 090a 1298     		ldr	r0, [sp, #72]	@ float
 1436 090c FFF7FEFF 		bl	__aeabi_f2d
 1437              	.LVL194:
 1438 0910 0246     		mov	r2, r0
 1439 0912 0B46     		mov	r3, r1
 1440 0914 2148     		ldr	r0, .L165+108
 1441 0916 FFF7FEFF 		bl	commands_printf
 1442              	.LVL195:
 1443              		.loc 1 225 0 discriminator 7
 1444 091a 1398     		ldr	r0, [sp, #76]	@ float
 1445 091c FFF7FEFF 		bl	__aeabi_f2d
 1446              	.LVL196:
 1447 0920 0246     		mov	r2, r0
 1448 0922 0B46     		mov	r3, r1
 1449 0924 1E48     		ldr	r0, .L165+112
 1450 0926 FFF7FEFF 		bl	commands_printf
 1451              	.LVL197:
 1452              	.LBE103:
 1453 092a FFF7D2BB 		b	.L1
 1454              	.L166:
 1455 092e 00BF     		.align	2
 1456              	.L165:
 1457 0930 000080BF 		.word	-1082130432
 1458 0934 F0040000 		.word	.LC63
 1459 0938 00000000 		.word	.LANCHOR0
 1460 093c AC070000 		.word	.LC87
 1461 0940 BC070000 		.word	.LC88
 1462 0944 08000000 		.word	.LC1
 1463 0948 00000000 		.word	.LC0
 1464 094c CC070000 		.word	.LC89
 1465 0950 1C080000 		.word	.LC92
 1466 0954 28080000 		.word	.LC93
 1467 0958 00000000 		.word	.LANCHOR1
 1468 095c DC070000 		.word	.LC90
 1469 0960 40080000 		.word	.LC94
 1470 0964 6666663F 		.word	1063675494
 1471 0968 00803B45 		.word	1161527296
 1472 096c 4C080000 		.word	.LC95
 1473 0970 C8060000 		.word	.LC79
 1474 0974 00000000 		.word	ch
 1475 0978 00401C46 		.word	1176256512
 1476 097c F8060000 		.word	.LC80
 1477 0980 10070000 		.word	.LC81
 1478 0984 00007A44 		.word	1148846080
 1479 0988 28070000 		.word	.LC82
 1480 098c 44070000 		.word	.LC83
 1481 0990 60070000 		.word	.LC84
 1482 0994 7C070000 		.word	.LC85
ARM GAS  /tmp/cciDCA9n.s 			page 27


 1483 0998 68060000 		.word	.LC75
 1484 099c 80060000 		.word	.LC76
 1485 09a0 A0060000 		.word	.LC77
 1486              	.L56:
 1487              		.loc 1 310 0
 1488 09a4 C149     		ldr	r1, .L167
 1489 09a6 2846     		mov	r0, r5
 1490 09a8 FFF7FEFF 		bl	strcmp
 1491              	.LVL198:
 1492 09ac 0028     		cmp	r0, #0
 1493 09ae 7CD1     		bne	.L61
 1494              		.loc 1 311 0
 1495 09b0 052C     		cmp	r4, #5
 1496 09b2 7FF4E0AD 		bne	.L44
 1497              	.LBB104:
 1498              		.loc 1 312 0
 1499 09b6 BE4B     		ldr	r3, .L167+4
 1500              		.loc 1 316 0
 1501 09b8 BE49     		ldr	r1, .L167+8
 1502 09ba 1998     		ldr	r0, [sp, #100]
 1503              		.loc 1 312 0
 1504 09bc 0D93     		str	r3, [sp, #52]	@ float
 1505              		.loc 1 316 0
 1506 09be 0DAA     		add	r2, sp, #52
 1507              		.loc 1 313 0
 1508 09c0 0E93     		str	r3, [sp, #56]	@ float
 1509              		.loc 1 314 0
 1510 09c2 0F93     		str	r3, [sp, #60]	@ float
 1511              		.loc 1 315 0
 1512 09c4 1093     		str	r3, [sp, #64]	@ float
 1513              		.loc 1 316 0
 1514 09c6 FFF7FEFF 		bl	sscanf
 1515              	.LVL199:
 1516              		.loc 1 317 0
 1517 09ca 0EAA     		add	r2, sp, #56
 1518 09cc B949     		ldr	r1, .L167+8
 1519 09ce 1A98     		ldr	r0, [sp, #104]
 1520 09d0 FFF7FEFF 		bl	sscanf
 1521              	.LVL200:
 1522              		.loc 1 318 0
 1523 09d4 0FAA     		add	r2, sp, #60
 1524 09d6 B749     		ldr	r1, .L167+8
 1525 09d8 1B98     		ldr	r0, [sp, #108]
 1526 09da FFF7FEFF 		bl	sscanf
 1527              	.LVL201:
 1528              		.loc 1 319 0
 1529 09de 10AA     		add	r2, sp, #64
 1530 09e0 1C98     		ldr	r0, [sp, #112]
 1531 09e2 B449     		ldr	r1, .L167+8
 1532 09e4 FFF7FEFF 		bl	sscanf
 1533              	.LVL202:
 1534              		.loc 1 321 0
 1535 09e8 9DED0D0A 		vldr.32	s0, [sp, #52]
 1536 09ec B5EEC00A 		vcmpe.f32	s0, #0
 1537 09f0 F1EE10FA 		vmrs	APSR_nzcv, FPSCR
 1538 09f4 7FF7A2AD 		ble	.L81
 1539              		.loc 1 321 0 is_stmt 0 discriminator 1
ARM GAS  /tmp/cciDCA9n.s 			page 28


 1540 09f8 AF4B     		ldr	r3, .L167+12
 1541 09fa D3ED017A 		vldr.32	s15, [r3, #4]
 1542 09fe B4EEE70A 		vcmpe.f32	s0, s15
 1543 0a02 F1EE10FA 		vmrs	APSR_nzcv, FPSCR
 1544 0a06 3FF699AD 		bhi	.L81
 1545              		.loc 1 321 0 discriminator 2
 1546 0a0a 9DED0F1A 		vldr.32	s2, [sp, #60]
 1547 0a0e B5EEC01A 		vcmpe.f32	s2, #0
 1548 0a12 F1EE10FA 		vmrs	APSR_nzcv, FPSCR
 1549 0a16 7FF791AD 		ble	.L81
 1550              		.loc 1 321 0 discriminator 3
 1551 0a1a DDED0E0A 		vldr.32	s1, [sp, #56]
 1552 0a1e DFEDA77A 		vldr.32	s15, .L167+16
 1553 0a22 F4EEE70A 		vcmpe.f32	s1, s15
 1554 0a26 F1EE10FA 		vmrs	APSR_nzcv, FPSCR
 1555 0a2a 7FF787AD 		ble	.L81
 1556              		.loc 1 321 0 discriminator 4
 1557 0a2e DDED101A 		vldr.32	s3, [sp, #64]
 1558 0a32 F5EEC01A 		vcmpe.f32	s3, #0
 1559 0a36 F1EE10FA 		vmrs	APSR_nzcv, FPSCR
 1560 0a3a FFF67FAD 		blt	.L81
 1561              	.LBB105:
 1562              		.loc 1 323 0 is_stmt 1
 1563 0a3e 11A8     		add	r0, sp, #68
 1564 0a40 FFF7FEFF 		bl	conf_general_measure_flux_linkage
 1565              	.LVL203:
 1566              		.loc 1 324 0
 1567 0a44 1198     		ldr	r0, [sp, #68]	@ float
 1568              	.LVL204:
 1569              	.L131:
 1570              	.LBE105:
 1571              	.LBE104:
 1572              	.LBB106:
 1573              	.LBB107:
 1574              		.loc 1 387 0
 1575 0a46 FFF7FEFF 		bl	__aeabi_f2d
 1576              	.LVL205:
 1577 0a4a 0246     		mov	r2, r0
 1578 0a4c 0B46     		mov	r3, r1
 1579 0a4e 9C48     		ldr	r0, .L167+20
 1580 0a50 FFF7FEFF 		bl	commands_printf
 1581              	.LVL206:
 1582              	.LBE107:
 1583 0a54 FFF73DBB 		b	.L1
 1584              	.LVL207:
 1585              	.L153:
 1586              	.LBE106:
 1587              	.LBB113:
 1588              	.LBB74:
 1589              		.loc 1 208 0
 1590 0a58 9A48     		ldr	r0, .L167+24
 1591 0a5a FFF7FEFF 		bl	commands_printf
 1592              	.LVL208:
 1593 0a5e FFF738BB 		b	.L1
 1594              	.L151:
 1595              		.loc 1 198 0
 1596 0a62 9948     		ldr	r0, .L167+28
ARM GAS  /tmp/cciDCA9n.s 			page 29


 1597              	.L130:
 1598              		.loc 1 203 0
 1599 0a64 FFF7FEFF 		bl	commands_printf
 1600              	.LVL209:
 1601              		.loc 1 204 0
 1602 0a68 9DF94B40 		ldrsb	r4, [sp, #75]
 1603              	.LVL210:
 1604 0a6c 9DF94A00 		ldrsb	r0, [sp, #74]
 1605 0a70 0494     		str	r4, [sp, #16]
 1606 0a72 9DF94950 		ldrsb	r5, [sp, #73]
 1607 0a76 9DF94840 		ldrsb	r4, [sp, #72]
 1608 0a7a 0390     		str	r0, [sp, #12]
 1609 0a7c 9DF94700 		ldrsb	r0, [sp, #71]
 1610 0a80 0090     		str	r0, [sp]
 1611 0a82 9DF94630 		ldrsb	r3, [sp, #70]
 1612 0a86 9DF94520 		ldrsb	r2, [sp, #69]
 1613 0a8a 9DF94410 		ldrsb	r1, [sp, #68]
 1614 0a8e 8F48     		ldr	r0, .L167+32
 1615 0a90 CDE90145 		strd	r4, r5, [sp, #4]
 1616 0a94 FFF7FEFF 		bl	commands_printf
 1617              	.LVL211:
 1618 0a98 FFF71BBB 		b	.L1
 1619              	.LVL212:
 1620              	.L32:
 1621              		.loc 1 213 0
 1622 0a9c 8C48     		ldr	r0, .L167+36
 1623 0a9e FFF7FEFF 		bl	commands_printf
 1624              	.LVL213:
 1625              	.LBE74:
 1626              		.loc 1 187 0
 1627 0aa2 FFF716BB 		b	.L1
 1628              	.L152:
 1629              	.LBB75:
 1630              		.loc 1 203 0
 1631 0aa6 8B48     		ldr	r0, .L167+40
 1632 0aa8 DCE7     		b	.L130
 1633              	.L61:
 1634              	.LBE75:
 1635              	.LBE113:
 1636              		.loc 1 331 0
 1637 0aaa 8B49     		ldr	r1, .L167+44
 1638 0aac 2846     		mov	r0, r5
 1639 0aae FFF7FEFF 		bl	strcmp
 1640              	.LVL214:
 1641 0ab2 0028     		cmp	r0, #0
 1642 0ab4 00F08380 		beq	.L154
 1643              		.loc 1 342 0
 1644 0ab8 8849     		ldr	r1, .L167+48
 1645 0aba 2846     		mov	r0, r5
 1646 0abc FFF7FEFF 		bl	strcmp
 1647              	.LVL215:
 1648 0ac0 0646     		mov	r6, r0
 1649 0ac2 0028     		cmp	r0, #0
 1650 0ac4 40F09D80 		bne	.L70
 1651              		.loc 1 343 0
 1652 0ac8 022C     		cmp	r4, #2
 1653 0aca 7FF454AD 		bne	.L44
ARM GAS  /tmp/cciDCA9n.s 			page 30


 1654              	.LBB114:
 1655              		.loc 1 344 0
 1656 0ace 11AD     		add	r5, sp, #68
 1657 0ad0 774B     		ldr	r3, .L167+4
 1658              		.loc 1 345 0
 1659 0ad2 1998     		ldr	r0, [sp, #100]
 1660 0ad4 7749     		ldr	r1, .L167+8
 1661              		.loc 1 344 0
 1662 0ad6 2B60     		str	r3, [r5]	@ float
 1663              		.loc 1 345 0
 1664 0ad8 2A46     		mov	r2, r5
 1665 0ada FFF7FEFF 		bl	sscanf
 1666              	.LVL216:
 1667              		.loc 1 347 0
 1668 0ade D5ED007A 		vldr.32	s15, [r5]
 1669 0ae2 F5EEC07A 		vcmpe.f32	s15, #0
 1670 0ae6 F1EE10FA 		vmrs	APSR_nzcv, FPSCR
 1671 0aea 7FF727AD 		ble	.L81
 1672              	.LBB112:
 1673              		.loc 1 348 0
 1674 0aee 724F     		ldr	r7, .L167+12
 1675              	.LBB108:
 1676              		.loc 1 359 0
 1677 0af0 9FED7B8A 		vldr.32	s16, .L167+52
 1678              	.LBE108:
 1679              		.loc 1 348 0
 1680 0af4 BC70     		strb	r4, [r7, #2]
 1681              		.loc 1 349 0
 1682 0af6 3846     		mov	r0, r7
 1683 0af8 FFF7FEFF 		bl	mc_interface_set_configuration
 1684              	.LVL217:
 1685              		.loc 1 350 0
 1686 0afc 97ED319A 		vldr.32	s18, [r7, #196]
 1687 0b00 F7EE087A 		vmov.f32	s15, #1.5e+0
 1688 0b04 29EE279A 		vmul.f32	s18, s18, s15
 1689              	.LVL218:
 1690              		.loc 1 353 0
 1691 0b08 FFF7FEFF 		bl	timeout_get_timeout_msec
 1692              	.LVL219:
 1693 0b0c 0746     		mov	r7, r0
 1694              	.LVL220:
 1695              		.loc 1 354 0
 1696 0b0e FFF7FEFF 		bl	timeout_get_brake_current
 1697              	.LVL221:
 1698 0b12 F0EE40AA 		vmov.f32	s21, s0
 1699              	.LVL222:
 1700              		.loc 1 355 0
 1701 0b16 FFF7FEFF 		bl	timeout_reset
 1702              	.LVL223:
 1703              		.loc 1 356 0
 1704 0b1a 9FED720A 		vldr.32	s0, .L167+56
 1705 0b1e 4EF66020 		movw	r0, #60000
 1706 0b22 FFF7FEFF 		bl	timeout_configure
 1707              	.LVL224:
 1708              	.L73:
 1709              	.LBB109:
 1710              		.loc 1 359 0 discriminator 3
ARM GAS  /tmp/cciDCA9n.s 			page 31


 1711 0b26 07EE906A 		vmov	s15, r6	@ int
 1712 0b2a B8EEE77A 		vcvt.f32.s32	s14, s15
 1713 0b2e D5ED007A 		vldr.32	s15, [r5]
 1714 0b32 87EE080A 		vdiv.f32	s0, s14, s16
 1715              		.loc 1 358 0 discriminator 3
 1716 0b36 0136     		adds	r6, r6, #1
 1717              	.LVL225:
 1718              		.loc 1 359 0 discriminator 3
 1719 0b38 20EE270A 		vmul.f32	s0, s0, s15
 1720 0b3c FFF7FEFF 		bl	mc_interface_set_duty
 1721              	.LVL226:
 1722              		.loc 1 360 0 discriminator 3
 1723 0b40 C820     		movs	r0, #200
 1724 0b42 FFF7FEFF 		bl	chThdSleep
 1725              	.LVL227:
 1726              		.loc 1 358 0 discriminator 3
 1727 0b46 642E     		cmp	r6, #100
 1728 0b48 EDD1     		bne	.L73
 1729              	.LBE109:
 1730              		.loc 1 366 0
 1731 0b4a 9FED668A 		vldr.32	s16, .L167+56
 1732              	.LBB110:
 1733 0b4e 4FF47A74 		mov	r4, #1000
 1734              	.LVL228:
 1735              	.LBE110:
 1736              		.loc 1 365 0
 1737 0b52 F0EE488A 		vmov.f32	s17, s16
 1738              		.loc 1 364 0
 1739 0b56 F0EE489A 		vmov.f32	s19, s16
 1740              		.loc 1 363 0
 1741 0b5a B0EE48AA 		vmov.f32	s20, s16
 1742              	.LBB111:
 1743              		.loc 1 371 0
 1744 0b5e B7EE00BA 		vmov.f32	s22, #1.0e+0
 1745              	.L74:
 1746              	.LVL229:
 1747              		.loc 1 368 0 discriminator 3
 1748 0b62 FFF7FEFF 		bl	mcpwm_foc_get_vq
 1749              	.LVL230:
 1750 0b66 3AEE00AA 		vadd.f32	s20, s20, s0
 1751              	.LVL231:
 1752              		.loc 1 369 0 discriminator 3
 1753 0b6a FFF7FEFF 		bl	mc_interface_get_rpm
 1754              	.LVL232:
 1755 0b6e 79EE809A 		vadd.f32	s19, s19, s0
 1756              	.LVL233:
 1757              		.loc 1 370 0 discriminator 3
 1758 0b72 FFF7FEFF 		bl	mc_interface_get_tot_current_directional
 1759              	.LVL234:
 1760              		.loc 1 372 0 discriminator 3
 1761 0b76 0A20     		movs	r0, #10
 1762              		.loc 1 370 0 discriminator 3
 1763 0b78 38EE008A 		vadd.f32	s16, s16, s0
 1764              	.LVL235:
 1765              		.loc 1 372 0 discriminator 3
 1766 0b7c FFF7FEFF 		bl	chThdSleep
 1767              	.LVL236:
ARM GAS  /tmp/cciDCA9n.s 			page 32


 1768              		.loc 1 367 0 discriminator 3
 1769 0b80 013C     		subs	r4, r4, #1
 1770              	.LVL237:
 1771              		.loc 1 371 0 discriminator 3
 1772 0b82 78EE8B8A 		vadd.f32	s17, s17, s22
 1773              	.LVL238:
 1774              		.loc 1 367 0 discriminator 3
 1775 0b86 ECD1     		bne	.L74
 1776              	.LBE111:
 1777              		.loc 1 375 0
 1778 0b88 FFF7FEFF 		bl	mc_interface_release_motor
 1779              	.LVL239:
 1780              		.loc 1 376 0
 1781 0b8c 5648     		ldr	r0, .L167+60
 1782 0b8e FFF7FEFF 		bl	mc_interface_set_configuration
 1783              	.LVL240:
 1784              		.loc 1 379 0
 1785 0b92 3846     		mov	r0, r7
 1786 0b94 B0EE6A0A 		vmov.f32	s0, s21
 1787 0b98 FFF7FEFF 		bl	timeout_configure
 1788              	.LVL241:
 1789              		.loc 1 383 0
 1790 0b9c C8EE286A 		vdiv.f32	s13, s16, s17
 1791              	.LVL242:
 1792              		.loc 1 381 0
 1793 0ba0 8AEE287A 		vdiv.f32	s14, s20, s17
 1794              	.LVL243:
 1795              		.loc 1 382 0
 1796 0ba4 C9EEA87A 		vdiv.f32	s15, s19, s17
 1797              	.LVL244:
 1798              		.loc 1 385 0
 1799 0ba8 A9EE667A 		vfms.f32	s14, s18, s13
 1800              	.LVL245:
 1801 0bac DFED4F6A 		vldr.32	s13, .L167+64
 1802              	.LVL246:
 1803 0bb0 67EEA67A 		vmul.f32	s15, s15, s13
 1804              	.LVL247:
 1805              		.loc 1 387 0
 1806 0bb4 C7EE277A 		vdiv.f32	s15, s14, s15
 1807 0bb8 17EE900A 		vmov	r0, s15
 1808 0bbc 43E7     		b	.L131
 1809              	.LVL248:
 1810              	.L154:
 1811              	.LBE112:
 1812              	.LBE114:
 1813              	.LBB115:
 1814              		.loc 1 332 0 discriminator 21
 1815 0bbe 3E4B     		ldr	r3, .L167+12
 1816 0bc0 0222     		movs	r2, #2
 1817              		.loc 1 333 0 discriminator 21
 1818 0bc2 1846     		mov	r0, r3
 1819              		.loc 1 332 0 discriminator 21
 1820 0bc4 9A70     		strb	r2, [r3, #2]
 1821              		.loc 1 333 0 discriminator 21
 1822 0bc6 FFF7FEFF 		bl	mc_interface_set_configuration
 1823              	.LVL249:
 1824              		.loc 1 335 0 discriminator 21
ARM GAS  /tmp/cciDCA9n.s 			page 33


 1825 0bca 0023     		movs	r3, #0
 1826              		.loc 1 337 0 discriminator 21
 1827 0bcc 11A9     		add	r1, sp, #68
 1828 0bce 10A8     		add	r0, sp, #64
 1829              		.loc 1 335 0 discriminator 21
 1830 0bd0 1093     		str	r3, [sp, #64]	@ float
 1831              		.loc 1 336 0 discriminator 21
 1832 0bd2 1193     		str	r3, [sp, #68]	@ float
 1833              		.loc 1 337 0 discriminator 21
 1834 0bd4 FFF7FEFF 		bl	mcpwm_foc_measure_res_ind
 1835              	.LVL250:
 1836              		.loc 1 338 0 discriminator 21
 1837 0bd8 1098     		ldr	r0, [sp, #64]	@ float
 1838 0bda FFF7FEFF 		bl	__aeabi_f2d
 1839              	.LVL251:
 1840 0bde 0246     		mov	r2, r0
 1841 0be0 0B46     		mov	r3, r1
 1842 0be2 4348     		ldr	r0, .L167+68
 1843 0be4 FFF7FEFF 		bl	commands_printf
 1844              	.LVL252:
 1845              		.loc 1 339 0 discriminator 21
 1846 0be8 1198     		ldr	r0, [sp, #68]	@ float
 1847 0bea FFF7FEFF 		bl	__aeabi_f2d
 1848              	.LVL253:
 1849 0bee 0246     		mov	r2, r0
 1850 0bf0 0B46     		mov	r3, r1
 1851 0bf2 4048     		ldr	r0, .L167+72
 1852 0bf4 FFF7FEFF 		bl	commands_printf
 1853              	.LVL254:
 1854              		.loc 1 341 0 discriminator 21
 1855 0bf8 3B48     		ldr	r0, .L167+60
 1856 0bfa FFF7FEFF 		bl	mc_interface_set_configuration
 1857              	.LVL255:
 1858              	.LBE115:
 1859 0bfe FFF768BA 		b	.L1
 1860              	.L70:
 1861              		.loc 1 394 0
 1862 0c02 3D49     		ldr	r1, .L167+76
 1863 0c04 2846     		mov	r0, r5
 1864 0c06 FFF7FEFF 		bl	strcmp
 1865              	.LVL256:
 1866 0c0a 0028     		cmp	r0, #0
 1867 0c0c 00F0BF80 		beq	.L155
 1868              		.loc 1 397 0
 1869 0c10 3A49     		ldr	r1, .L167+80
 1870 0c12 2846     		mov	r0, r5
 1871 0c14 FFF7FEFF 		bl	strcmp
 1872              	.LVL257:
 1873 0c18 0028     		cmp	r0, #0
 1874 0c1a 7BD0     		beq	.L156
 1875              		.loc 1 408 0
 1876 0c1c 3849     		ldr	r1, .L167+84
 1877 0c1e 2846     		mov	r0, r5
 1878 0c20 FFF7FEFF 		bl	strcmp
 1879              	.LVL258:
 1880 0c24 38BB     		cbnz	r0, .L79
 1881              		.loc 1 409 0
ARM GAS  /tmp/cciDCA9n.s 			page 34


 1882 0c26 032C     		cmp	r4, #3
 1883 0c28 04D0     		beq	.L157
 1884              		.loc 1 421 0
 1885 0c2a 3648     		ldr	r0, .L167+88
 1886 0c2c FFF7FEFF 		bl	commands_printf
 1887              	.LVL259:
 1888 0c30 FFF74FBA 		b	.L1
 1889              	.L157:
 1890              	.LBB116:
 1891              		.loc 1 410 0
 1892 0c34 1E4B     		ldr	r3, .L167+4
 1893              		.loc 1 412 0
 1894 0c36 1F49     		ldr	r1, .L167+8
 1895 0c38 1998     		ldr	r0, [sp, #100]
 1896              		.loc 1 410 0
 1897 0c3a 1093     		str	r3, [sp, #64]	@ float
 1898              		.loc 1 412 0
 1899 0c3c 10AA     		add	r2, sp, #64
 1900              		.loc 1 411 0
 1901 0c3e 1193     		str	r3, [sp, #68]	@ float
 1902              		.loc 1 412 0
 1903 0c40 FFF7FEFF 		bl	sscanf
 1904              	.LVL260:
 1905              		.loc 1 413 0
 1906 0c44 11AA     		add	r2, sp, #68
 1907 0c46 1A98     		ldr	r0, [sp, #104]
 1908 0c48 1A49     		ldr	r1, .L167+8
 1909 0c4a FFF7FEFF 		bl	sscanf
 1910              	.LVL261:
 1911              		.loc 1 415 0
 1912 0c4e 9DED100A 		vldr.32	s0, [sp, #64]
 1913 0c52 B5EEC00A 		vcmpe.f32	s0, #0
 1914 0c56 F1EE10FA 		vmrs	APSR_nzcv, FPSCR
 1915 0c5a FFF66FAC 		blt	.L81
 1916              		.loc 1 415 0 is_stmt 0 discriminator 1
 1917 0c5e DDED110A 		vldr.32	s1, [sp, #68]
 1918 0c62 F5EEC00A 		vcmpe.f32	s1, #0
 1919 0c66 F1EE10FA 		vmrs	APSR_nzcv, FPSCR
 1920 0c6a FFF667AC 		blt	.L81
 1921              		.loc 1 416 0 is_stmt 1
 1922 0c6e FFF7FEFF 		bl	mcpwm_foc_set_openloop
 1923              	.LVL262:
 1924 0c72 FFF72EBA 		b	.L1
 1925              	.L79:
 1926              	.LBE116:
 1927              		.loc 1 426 0
 1928 0c76 2449     		ldr	r1, .L167+92
 1929 0c78 2846     		mov	r0, r5
 1930 0c7a FFF7FEFF 		bl	strcmp
 1931              	.LVL263:
 1932 0c7e 0646     		mov	r6, r0
 1933 0c80 0028     		cmp	r0, #0
 1934 0c82 00F09880 		beq	.L85
 1935              	.LBB117:
 1936              	.LBB118:
 1937              		.loc 1 524 0
 1938 0c86 214B     		ldr	r3, .L167+96
ARM GAS  /tmp/cciDCA9n.s 			page 35


 1939              		.loc 1 525 0
 1940 0c88 214E     		ldr	r6, .L167+100
 1941              		.loc 1 524 0
 1942 0c8a D3F80090 		ldr	r9, [r3]
 1943 0c8e 0027     		movs	r7, #0
 1944              	.L86:
 1945              	.LVL264:
 1946              		.loc 1 524 0 is_stmt 0 discriminator 1
 1947 0c90 B945     		cmp	r9, r7
 1948              		.loc 1 525 0 is_stmt 1 discriminator 1
 1949 0c92 4FEA0718 		lsl	r8, r7, #4
 1950 0c96 2846     		mov	r0, r5
 1951              		.loc 1 524 0 discriminator 1
 1952 0c98 40F38780 		ble	.L158
 1953              		.loc 1 525 0
 1954 0c9c 58F80610 		ldr	r1, [r8, r6]
 1955 0ca0 FFF7FEFF 		bl	strcmp
 1956              	.LVL265:
 1957 0ca4 0028     		cmp	r0, #0
 1958 0ca6 79D0     		beq	.L159
 1959              		.loc 1 524 0 discriminator 2
 1960 0ca8 0137     		adds	r7, r7, #1
 1961              	.LVL266:
 1962 0caa F1E7     		b	.L86
 1963              	.L168:
 1964              		.align	2
 1965              	.L167:
 1966 0cac 74080000 		.word	.LC96
 1967 0cb0 000080BF 		.word	-1082130432
 1968 0cb4 F0040000 		.word	.LC63
 1969 0cb8 00000000 		.word	.LANCHOR0
 1970 0cbc 0AD7A33C 		.word	1017370378
 1971 0cc0 84080000 		.word	.LC97
 1972 0cc4 88050000 		.word	.LC69
 1973 0cc8 2C050000 		.word	.LC66
 1974 0ccc 48050000 		.word	.LC67
 1975 0cd0 E8050000 		.word	.LC71
 1976 0cd4 68050000 		.word	.LC68
 1977 0cd8 98080000 		.word	.LC98
 1978 0cdc E0080000 		.word	.LC101
 1979 0ce0 0000C842 		.word	1120403456
 1980 0ce4 00000000 		.word	0
 1981 0ce8 00000000 		.word	.LANCHOR1
 1982 0cec 5077D63D 		.word	1037465424
 1983 0cf0 A8080000 		.word	.LC99
 1984 0cf4 C0080000 		.word	.LC100
 1985 0cf8 F4080000 		.word	.LC102
 1986 0cfc 00090000 		.word	.LC103
 1987 0d00 8C090000 		.word	.LC109
 1988 0d04 9C090000 		.word	.LC110
 1989 0d08 C4090000 		.word	.LC111
 1990 0d0c 00000000 		.word	.LANCHOR5
 1991 0d10 00000000 		.word	.LANCHOR6
 1992              	.LVL267:
 1993              	.L156:
 1994              	.LBE118:
 1995              	.LBE117:
ARM GAS  /tmp/cciDCA9n.s 			page 36


 1996              		.loc 1 398 0
 1997 0d14 2722     		movs	r2, #39
 1998 0d16 0321     		movs	r1, #3
 1999 0d18 8F48     		ldr	r0, .L169
 2000 0d1a FFF7FEFF 		bl	commands_printf
 2001              	.LVL268:
 2002              		.loc 1 400 0
 2003 0d1e 8F49     		ldr	r1, .L169+4
 2004 0d20 8F48     		ldr	r0, .L169+8
 2005 0d22 FFF7FEFF 		bl	commands_printf
 2006              	.LVL269:
 2007              		.loc 1 405 0
 2008 0d26 8F48     		ldr	r0, .L169+12
 2009              		.loc 1 403 0
 2010 0d28 8F4B     		ldr	r3, .L169+16
 2011 0d2a 904A     		ldr	r2, .L169+20
 2012 0d2c 9049     		ldr	r1, .L169+24
 2013              		.loc 1 402 0
 2014 0d2e 0478     		ldrb	r4, [r0]	@ zero_extendqisi2
 2015              	.LVL270:
 2016 0d30 1B78     		ldrb	r3, [r3]	@ zero_extendqisi2
 2017 0d32 1278     		ldrb	r2, [r2]	@ zero_extendqisi2
 2018 0d34 0978     		ldrb	r1, [r1]	@ zero_extendqisi2
 2019 0d36 0894     		str	r4, [sp, #32]
 2020 0d38 10F8014C 		ldrb	r4, [r0, #-1]	@ zero_extendqisi2
 2021 0d3c 0794     		str	r4, [sp, #28]
 2022 0d3e 10F8024C 		ldrb	r4, [r0, #-2]	@ zero_extendqisi2
 2023 0d42 0694     		str	r4, [sp, #24]
 2024 0d44 10F8034C 		ldrb	r4, [r0, #-3]	@ zero_extendqisi2
 2025 0d48 0594     		str	r4, [sp, #20]
 2026 0d4a 10F8044C 		ldrb	r4, [r0, #-4]	@ zero_extendqisi2
 2027 0d4e 0494     		str	r4, [sp, #16]
 2028 0d50 10F8054C 		ldrb	r4, [r0, #-5]	@ zero_extendqisi2
 2029 0d54 0394     		str	r4, [sp, #12]
 2030 0d56 10F8064C 		ldrb	r4, [r0, #-6]	@ zero_extendqisi2
 2031 0d5a 0294     		str	r4, [sp, #8]
 2032 0d5c 10F8074C 		ldrb	r4, [r0, #-7]	@ zero_extendqisi2
 2033 0d60 0194     		str	r4, [sp, #4]
 2034              		.loc 1 403 0
 2035 0d62 0838     		subs	r0, r0, #8
 2036              		.loc 1 402 0
 2037 0d64 0078     		ldrb	r0, [r0]	@ zero_extendqisi2
 2038 0d66 0090     		str	r0, [sp]
 2039 0d68 8248     		ldr	r0, .L169+28
 2040 0d6a FFF7FEFF 		bl	commands_printf
 2041              	.LVL271:
 2042              		.loc 1 406 0
 2043 0d6e 824B     		ldr	r3, .L169+32
 2044 0d70 824A     		ldr	r2, .L169+36
 2045 0d72 1978     		ldrb	r1, [r3]	@ zero_extendqisi2
 2046 0d74 824B     		ldr	r3, .L169+40
 2047 0d76 8348     		ldr	r0, .L169+44
 2048 0d78 0029     		cmp	r1, #0
 2049 0d7a 0CBF     		ite	eq
 2050 0d7c 1146     		moveq	r1, r2
 2051 0d7e 1946     		movne	r1, r3
 2052 0d80 FFF7FEFF 		bl	commands_printf
ARM GAS  /tmp/cciDCA9n.s 			page 37


 2053              	.LVL272:
 2054              		.loc 1 407 0
 2055 0d84 8048     		ldr	r0, .L169+48
 2056 0d86 FFF7FEFF 		bl	commands_printf
 2057              	.LVL273:
 2058 0d8a FFF7A2B9 		b	.L1
 2059              	.LVL274:
 2060              	.L155:
 2061              		.loc 1 395 0
 2062 0d8e FFF7FEFF 		bl	mcpwm_foc_print_state
 2063              	.LVL275:
 2064              		.loc 1 396 0
 2065 0d92 7D48     		ldr	r0, .L169+48
 2066 0d94 FFF7FEFF 		bl	commands_printf
 2067              	.LVL276:
 2068 0d98 FFF79BB9 		b	.L1
 2069              	.LVL277:
 2070              	.L159:
 2071              	.LBB120:
 2072              	.LBB119:
 2073              		.loc 1 526 0
 2074 0d9c 4644     		add	r6, r6, r8
 2075 0d9e 18A9     		add	r1, sp, #96
 2076 0da0 F368     		ldr	r3, [r6, #12]
 2077 0da2 2046     		mov	r0, r4
 2078 0da4 9847     		blx	r3
 2079              	.LVL278:
 2080 0da6 FFF794B9 		b	.L1
 2081              	.LVL279:
 2082              	.L158:
 2083              	.LBE119:
 2084              		.loc 1 533 0
 2085 0daa 2946     		mov	r1, r5
 2086 0dac 7748     		ldr	r0, .L169+52
 2087 0dae FFF7FEFF 		bl	commands_printf
 2088              	.LVL280:
 2089 0db2 FFF78EB9 		b	.L1
 2090              	.LVL281:
 2091              	.L85:
 2092              	.LBE120:
 2093              		.loc 1 427 0
 2094 0db6 7648     		ldr	r0, .L169+56
 2095 0db8 764C     		ldr	r4, .L169+60
 2096              	.LVL282:
 2097 0dba DFF8BC92 		ldr	r9, .L169+288
 2098              	.LBB121:
 2099              		.loc 1 509 0
 2100 0dbe DFF8BC82 		ldr	r8, .L169+292
 2101              		.loc 1 517 0
 2102 0dc2 754F     		ldr	r7, .L169+64
 2103              		.loc 1 515 0
 2104 0dc4 754D     		ldr	r5, .L169+68
 2105              	.LBE121:
 2106              		.loc 1 427 0
 2107 0dc6 FFF7FEFF 		bl	commands_printf
 2108              	.LVL283:
 2109              		.loc 1 428 0
ARM GAS  /tmp/cciDCA9n.s 			page 38


 2110 0dca 7548     		ldr	r0, .L169+72
 2111 0dcc FFF7FEFF 		bl	commands_printf
 2112              	.LVL284:
 2113              		.loc 1 429 0
 2114 0dd0 7448     		ldr	r0, .L169+76
 2115 0dd2 FFF7FEFF 		bl	commands_printf
 2116              	.LVL285:
 2117              		.loc 1 431 0
 2118 0dd6 7448     		ldr	r0, .L169+80
 2119 0dd8 FFF7FEFF 		bl	commands_printf
 2120              	.LVL286:
 2121              		.loc 1 432 0
 2122 0ddc 7348     		ldr	r0, .L169+84
 2123 0dde FFF7FEFF 		bl	commands_printf
 2124              	.LVL287:
 2125              		.loc 1 434 0
 2126 0de2 7348     		ldr	r0, .L169+88
 2127 0de4 FFF7FEFF 		bl	commands_printf
 2128              	.LVL288:
 2129              		.loc 1 435 0
 2130 0de8 7248     		ldr	r0, .L169+92
 2131 0dea FFF7FEFF 		bl	commands_printf
 2132              	.LVL289:
 2133              		.loc 1 437 0
 2134 0dee 7248     		ldr	r0, .L169+96
 2135 0df0 FFF7FEFF 		bl	commands_printf
 2136              	.LVL290:
 2137              		.loc 1 438 0
 2138 0df4 7148     		ldr	r0, .L169+100
 2139 0df6 FFF7FEFF 		bl	commands_printf
 2140              	.LVL291:
 2141              		.loc 1 440 0
 2142 0dfa 7148     		ldr	r0, .L169+104
 2143 0dfc FFF7FEFF 		bl	commands_printf
 2144              	.LVL292:
 2145              		.loc 1 441 0
 2146 0e00 7048     		ldr	r0, .L169+108
 2147 0e02 FFF7FEFF 		bl	commands_printf
 2148              	.LVL293:
 2149              		.loc 1 443 0
 2150 0e06 7048     		ldr	r0, .L169+112
 2151 0e08 FFF7FEFF 		bl	commands_printf
 2152              	.LVL294:
 2153              		.loc 1 444 0
 2154 0e0c 6F48     		ldr	r0, .L169+116
 2155 0e0e FFF7FEFF 		bl	commands_printf
 2156              	.LVL295:
 2157              		.loc 1 446 0
 2158 0e12 6F48     		ldr	r0, .L169+120
 2159 0e14 FFF7FEFF 		bl	commands_printf
 2160              	.LVL296:
 2161              		.loc 1 447 0
 2162 0e18 6E48     		ldr	r0, .L169+124
 2163 0e1a FFF7FEFF 		bl	commands_printf
 2164              	.LVL297:
 2165              		.loc 1 449 0
 2166 0e1e 6E48     		ldr	r0, .L169+128
ARM GAS  /tmp/cciDCA9n.s 			page 39


 2167 0e20 FFF7FEFF 		bl	commands_printf
 2168              	.LVL298:
 2169              		.loc 1 450 0
 2170 0e24 6D48     		ldr	r0, .L169+132
 2171 0e26 FFF7FEFF 		bl	commands_printf
 2172              	.LVL299:
 2173              		.loc 1 452 0
 2174 0e2a 6D48     		ldr	r0, .L169+136
 2175 0e2c FFF7FEFF 		bl	commands_printf
 2176              	.LVL300:
 2177              		.loc 1 453 0
 2178 0e30 6C48     		ldr	r0, .L169+140
 2179 0e32 FFF7FEFF 		bl	commands_printf
 2180              	.LVL301:
 2181              		.loc 1 455 0
 2182 0e36 6C48     		ldr	r0, .L169+144
 2183 0e38 FFF7FEFF 		bl	commands_printf
 2184              	.LVL302:
 2185              		.loc 1 456 0
 2186 0e3c 6B48     		ldr	r0, .L169+148
 2187 0e3e FFF7FEFF 		bl	commands_printf
 2188              	.LVL303:
 2189              		.loc 1 458 0
 2190 0e42 6B48     		ldr	r0, .L169+152
 2191 0e44 FFF7FEFF 		bl	commands_printf
 2192              	.LVL304:
 2193              		.loc 1 459 0
 2194 0e48 6A48     		ldr	r0, .L169+156
 2195 0e4a FFF7FEFF 		bl	commands_printf
 2196              	.LVL305:
 2197              		.loc 1 461 0
 2198 0e4e 6A48     		ldr	r0, .L169+160
 2199 0e50 FFF7FEFF 		bl	commands_printf
 2200              	.LVL306:
 2201              		.loc 1 462 0
 2202 0e54 6948     		ldr	r0, .L169+164
 2203 0e56 FFF7FEFF 		bl	commands_printf
 2204              	.LVL307:
 2205              		.loc 1 464 0
 2206 0e5a 6948     		ldr	r0, .L169+168
 2207 0e5c FFF7FEFF 		bl	commands_printf
 2208              	.LVL308:
 2209              		.loc 1 465 0
 2210 0e60 6848     		ldr	r0, .L169+172
 2211 0e62 FFF7FEFF 		bl	commands_printf
 2212              	.LVL309:
 2213              		.loc 1 467 0
 2214 0e66 6848     		ldr	r0, .L169+176
 2215 0e68 FFF7FEFF 		bl	commands_printf
 2216              	.LVL310:
 2217              		.loc 1 468 0
 2218 0e6c 6748     		ldr	r0, .L169+180
 2219 0e6e FFF7FEFF 		bl	commands_printf
 2220              	.LVL311:
 2221              		.loc 1 469 0
 2222 0e72 6748     		ldr	r0, .L169+184
 2223 0e74 FFF7FEFF 		bl	commands_printf
ARM GAS  /tmp/cciDCA9n.s 			page 40


 2224              	.LVL312:
 2225              		.loc 1 470 0
 2226 0e78 6648     		ldr	r0, .L169+188
 2227 0e7a FFF7FEFF 		bl	commands_printf
 2228              	.LVL313:
 2229              		.loc 1 472 0
 2230 0e7e 6648     		ldr	r0, .L169+192
 2231 0e80 FFF7FEFF 		bl	commands_printf
 2232              	.LVL314:
 2233              		.loc 1 473 0
 2234 0e84 6548     		ldr	r0, .L169+196
 2235 0e86 FFF7FEFF 		bl	commands_printf
 2236              	.LVL315:
 2237              		.loc 1 475 0
 2238 0e8a 6548     		ldr	r0, .L169+200
 2239 0e8c FFF7FEFF 		bl	commands_printf
 2240              	.LVL316:
 2241              		.loc 1 476 0
 2242 0e90 6448     		ldr	r0, .L169+204
 2243 0e92 FFF7FEFF 		bl	commands_printf
 2244              	.LVL317:
 2245              		.loc 1 478 0
 2246 0e96 6448     		ldr	r0, .L169+208
 2247 0e98 FFF7FEFF 		bl	commands_printf
 2248              	.LVL318:
 2249              		.loc 1 479 0
 2250 0e9c 6348     		ldr	r0, .L169+212
 2251 0e9e FFF7FEFF 		bl	commands_printf
 2252              	.LVL319:
 2253              		.loc 1 481 0
 2254 0ea2 6348     		ldr	r0, .L169+216
 2255 0ea4 FFF7FEFF 		bl	commands_printf
 2256              	.LVL320:
 2257              		.loc 1 482 0
 2258 0ea8 6248     		ldr	r0, .L169+220
 2259 0eaa FFF7FEFF 		bl	commands_printf
 2260              	.LVL321:
 2261              		.loc 1 484 0
 2262 0eae 6248     		ldr	r0, .L169+224
 2263 0eb0 FFF7FEFF 		bl	commands_printf
 2264              	.LVL322:
 2265              		.loc 1 485 0
 2266 0eb4 6148     		ldr	r0, .L169+228
 2267 0eb6 FFF7FEFF 		bl	commands_printf
 2268              	.LVL323:
 2269              		.loc 1 487 0
 2270 0eba 6148     		ldr	r0, .L169+232
 2271 0ebc FFF7FEFF 		bl	commands_printf
 2272              	.LVL324:
 2273              		.loc 1 488 0
 2274 0ec0 6048     		ldr	r0, .L169+236
 2275 0ec2 FFF7FEFF 		bl	commands_printf
 2276              	.LVL325:
 2277              		.loc 1 489 0
 2278 0ec6 6048     		ldr	r0, .L169+240
 2279 0ec8 FFF7FEFF 		bl	commands_printf
 2280              	.LVL326:
ARM GAS  /tmp/cciDCA9n.s 			page 41


 2281              		.loc 1 490 0
 2282 0ecc 5F48     		ldr	r0, .L169+244
 2283 0ece FFF7FEFF 		bl	commands_printf
 2284              	.LVL327:
 2285              		.loc 1 492 0
 2286 0ed2 5F48     		ldr	r0, .L169+248
 2287 0ed4 FFF7FEFF 		bl	commands_printf
 2288              	.LVL328:
 2289              		.loc 1 493 0
 2290 0ed8 5E48     		ldr	r0, .L169+252
 2291 0eda FFF7FEFF 		bl	commands_printf
 2292              	.LVL329:
 2293              		.loc 1 495 0
 2294 0ede 5E48     		ldr	r0, .L169+256
 2295 0ee0 FFF7FEFF 		bl	commands_printf
 2296              	.LVL330:
 2297              		.loc 1 496 0
 2298 0ee4 5D48     		ldr	r0, .L169+260
 2299 0ee6 FFF7FEFF 		bl	commands_printf
 2300              	.LVL331:
 2301              		.loc 1 498 0
 2302 0eea 5D48     		ldr	r0, .L169+264
 2303 0eec FFF7FEFF 		bl	commands_printf
 2304              	.LVL332:
 2305              		.loc 1 499 0
 2306 0ef0 5C48     		ldr	r0, .L169+268
 2307 0ef2 FFF7FEFF 		bl	commands_printf
 2308              	.LVL333:
 2309              		.loc 1 501 0
 2310 0ef6 5C48     		ldr	r0, .L169+272
 2311 0ef8 FFF7FEFF 		bl	commands_printf
 2312              	.LVL334:
 2313              		.loc 1 502 0
 2314 0efc 5B48     		ldr	r0, .L169+276
 2315 0efe FFF7FEFF 		bl	commands_printf
 2316              	.LVL335:
 2317              		.loc 1 504 0
 2318 0f02 5B48     		ldr	r0, .L169+280
 2319 0f04 FFF7FEFF 		bl	commands_printf
 2320              	.LVL336:
 2321              		.loc 1 505 0
 2322 0f08 5A48     		ldr	r0, .L169+284
 2323 0f0a FFF7FEFF 		bl	commands_printf
 2324              	.LVL337:
 2325              	.L87:
 2326              	.LBB122:
 2327              		.loc 1 507 0 discriminator 1
 2328 0f0e D9F80030 		ldr	r3, [r9]
 2329 0f12 B342     		cmp	r3, r6
 2330              		.loc 1 509 0 discriminator 1
 2331 0f14 4046     		mov	r0, r8
 2332              		.loc 1 507 0 discriminator 1
 2333 0f16 12DD     		ble	.L160
 2334              		.loc 1 508 0
 2335 0f18 D4F808C0 		ldr	ip, [r4, #8]
 2336 0f1c 2368     		ldr	r3, [r4]
 2337              		.loc 1 509 0
ARM GAS  /tmp/cciDCA9n.s 			page 42


 2338 0f1e 6246     		mov	r2, ip
 2339 0f20 1946     		mov	r1, r3
 2340              		.loc 1 508 0
 2341 0f22 BCF1000F 		cmp	ip, #0
 2342 0f26 13D0     		beq	.L88
 2343              		.loc 1 509 0
 2344 0f28 FFF7FEFF 		bl	commands_printf
 2345              	.LVL338:
 2346              	.L89:
 2347              		.loc 1 514 0
 2348 0f2c 6368     		ldr	r3, [r4, #4]
 2349              		.loc 1 515 0
 2350 0f2e 2846     		mov	r0, r5
 2351 0f30 1946     		mov	r1, r3
 2352              		.loc 1 514 0
 2353 0f32 4BB1     		cbz	r3, .L90
 2354              		.loc 1 515 0
 2355 0f34 FFF7FEFF 		bl	commands_printf
 2356              	.LVL339:
 2357              	.L91:
 2358              		.loc 1 507 0 discriminator 2
 2359 0f38 0136     		adds	r6, r6, #1
 2360              	.LVL340:
 2361 0f3a 1034     		adds	r4, r4, #16
 2362 0f3c E7E7     		b	.L87
 2363              	.L160:
 2364              	.LBE122:
 2365              		.loc 1 521 0
 2366 0f3e 1248     		ldr	r0, .L169+48
 2367 0f40 FFF7FEFF 		bl	commands_printf
 2368              	.LVL341:
 2369 0f44 FFF7C5B8 		b	.L1
 2370              	.L90:
 2371              	.LBB123:
 2372              		.loc 1 517 0
 2373 0f48 3846     		mov	r0, r7
 2374 0f4a FFF7FEFF 		bl	commands_printf
 2375              	.LVL342:
 2376 0f4e F3E7     		b	.L91
 2377              	.L88:
 2378              		.loc 1 511 0
 2379 0f50 1846     		mov	r0, r3
 2380 0f52 FFF7FEFF 		bl	commands_printf
 2381              	.LVL343:
 2382 0f56 E9E7     		b	.L89
 2383              	.L170:
 2384              		.align	2
 2385              	.L169:
 2386 0f58 0C090000 		.word	.LC104
 2387 0f5c 1C090000 		.word	.LC105
 2388 0f60 20090000 		.word	.LC106
 2389 0f64 1B7AFF1F 		.word	536836635
 2390 0f68 127AFF1F 		.word	536836626
 2391 0f6c 117AFF1F 		.word	536836625
 2392 0f70 107AFF1F 		.word	536836624
 2393 0f74 30090000 		.word	.LC107
 2394 0f78 00000000 		.word	conf_general_permanent_nrf_found
ARM GAS  /tmp/cciDCA9n.s 			page 43


 2395 0f7c 14000000 		.word	.LC3
 2396 0f80 10000000 		.word	.LC2
 2397 0f84 74090000 		.word	.LC108
 2398 0f88 18000000 		.word	.LC4
 2399 0f8c 4C100000 		.word	.LC152
 2400 0f90 CC090000 		.word	.LC112
 2401 0f94 00000000 		.word	.LANCHOR6
 2402 0f98 1C100000 		.word	.LC151
 2403 0f9c 14100000 		.word	.LC150
 2404 0fa0 C4090000 		.word	.LC111
 2405 0fa4 E0090000 		.word	.LC113
 2406 0fa8 34000000 		.word	.LC6
 2407 0fac F4090000 		.word	.LC114
 2408 0fb0 44000000 		.word	.LC8
 2409 0fb4 200A0000 		.word	.LC115
 2410 0fb8 5C000000 		.word	.LC10
 2411 0fbc 340A0000 		.word	.LC116
 2412 0fc0 E0000000 		.word	.LC14
 2413 0fc4 640A0000 		.word	.LC117
 2414 0fc8 04010000 		.word	.LC16
 2415 0fcc 880A0000 		.word	.LC118
 2416 0fd0 5C010000 		.word	.LC20
 2417 0fd4 9C0A0000 		.word	.LC119
 2418 0fd8 0C020000 		.word	.LC25
 2419 0fdc B00A0000 		.word	.LC120
 2420 0fe0 18020000 		.word	.LC27
 2421 0fe4 D00A0000 		.word	.LC121
 2422 0fe8 C8030000 		.word	.LC44
 2423 0fec 140B0000 		.word	.LC122
 2424 0ff0 E8030000 		.word	.LC46
 2425 0ff4 380B0000 		.word	.LC123
 2426 0ff8 08040000 		.word	.LC48
 2427 0ffc 540B0000 		.word	.LC124
 2428 1000 C0040000 		.word	.LC60
 2429 1004 740B0000 		.word	.LC125
 2430 1008 900B0000 		.word	.LC126
 2431 100c BC0B0000 		.word	.LC127
 2432 1010 000C0000 		.word	.LC128
 2433 1014 3C0C0000 		.word	.LC129
 2434 1018 60060000 		.word	.LC74
 2435 101c 640C0000 		.word	.LC130
 2436 1020 BC060000 		.word	.LC78
 2437 1024 840C0000 		.word	.LC131
 2438 1028 C00C0000 		.word	.LC132
 2439 102c E00C0000 		.word	.LC133
 2440 1030 240D0000 		.word	.LC134
 2441 1034 3C0D0000 		.word	.LC135
 2442 1038 7C0D0000 		.word	.LC136
 2443 103c 900D0000 		.word	.LC137
 2444 1040 E40D0000 		.word	.LC138
 2445 1044 1C0E0000 		.word	.LC139
 2446 1048 5C0E0000 		.word	.LC140
 2447 104c 880E0000 		.word	.LC141
 2448 1050 98080000 		.word	.LC98
 2449 1054 C00E0000 		.word	.LC142
 2450 1058 180F0000 		.word	.LC143
 2451 105c 340F0000 		.word	.LC144
ARM GAS  /tmp/cciDCA9n.s 			page 44


 2452 1060 F4080000 		.word	.LC102
 2453 1064 6C0F0000 		.word	.LC145
 2454 1068 00090000 		.word	.LC103
 2455 106c 900F0000 		.word	.LC146
 2456 1070 BC0F0000 		.word	.LC147
 2457 1074 DC0F0000 		.word	.LC148
 2458 1078 00000000 		.word	.LANCHOR5
 2459 107c 0C100000 		.word	.LC149
 2460              	.LBE123:
 2461              		.cfi_endproc
 2462              	.LFE259:
 2463              		.size	terminal_process_string, .-terminal_process_string
 2464              		.section	.text.terminal_add_fault_data,"ax",%progbits
 2465              		.align	1
 2466              		.p2align 4,,15
 2467              		.global	terminal_add_fault_data
 2468              		.syntax unified
 2469              		.thumb
 2470              		.thumb_func
 2471              		.fpu fpv4-sp-d16
 2472              		.type	terminal_add_fault_data, %function
 2473              	terminal_add_fault_data:
 2474              	.LFB260:
 2475              		.loc 1 539 0
 2476              		.cfi_startproc
 2477              		@ args = 0, pretend = 0, frame = 0
 2478              		@ frame_needed = 0, uses_anonymous_args = 0
 2479              		@ link register save eliminated.
 2480              	.LVL344:
 2481 0000 F0B4     		push	{r4, r5, r6, r7}
 2482              		.cfi_def_cfa_offset 16
 2483              		.cfi_offset 4, -16
 2484              		.cfi_offset 5, -12
 2485              		.cfi_offset 6, -8
 2486              		.cfi_offset 7, -4
 2487              		.loc 1 540 0
 2488 0002 0E4F     		ldr	r7, .L174
 2489 0004 0E4C     		ldr	r4, .L174+4
 2490 0006 3E68     		ldr	r6, [r7]
 2491 0008 0546     		mov	r5, r0
 2492 000a 0FCD     		ldmia	r5!, {r0, r1, r2, r3}
 2493              	.LVL345:
 2494 000c 06F1010C 		add	ip, r6, #1
 2495 0010 C6EBC606 		rsb	r6, r6, r6, lsl #3
 2496 0014 04EBC604 		add	r4, r4, r6, lsl #3
 2497 0018 C7F800C0 		str	ip, [r7]
 2498 001c 0FC4     		stmia	r4!, {r0, r1, r2, r3}
 2499 001e 0FCD     		ldmia	r5!, {r0, r1, r2, r3}
 2500              	.LVL346:
 2501 0020 0FC4     		stmia	r4!, {r0, r1, r2, r3}
 2502 0022 0FCD     		ldmia	r5!, {r0, r1, r2, r3}
 2503              	.LVL347:
 2504 0024 0FC4     		stmia	r4!, {r0, r1, r2, r3}
 2505 0026 95E80300 		ldm	r5, {r0, r1}
 2506 002a 84E80300 		stm	r4, {r0, r1}
 2507              		.loc 1 541 0
 2508 002e 3B68     		ldr	r3, [r7]
ARM GAS  /tmp/cciDCA9n.s 			page 45


 2509 0030 182B     		cmp	r3, #24
 2510              		.loc 1 542 0
 2511 0032 C4BF     		itt	gt
 2512 0034 0023     		movgt	r3, #0
 2513 0036 3B60     		strgt	r3, [r7]
 2514              		.loc 1 544 0
 2515 0038 F0BC     		pop	{r4, r5, r6, r7}
 2516              		.cfi_restore 7
 2517              		.cfi_restore 6
 2518              		.cfi_restore 5
 2519              		.cfi_restore 4
 2520              		.cfi_def_cfa_offset 0
 2521              	.LVL348:
 2522 003a 7047     		bx	lr
 2523              	.L175:
 2524              		.align	2
 2525              	.L174:
 2526 003c 00000000 		.word	.LANCHOR3
 2527 0040 00000000 		.word	.LANCHOR4
 2528              		.cfi_endproc
 2529              	.LFE260:
 2530              		.size	terminal_add_fault_data, .-terminal_add_fault_data
 2531              		.section	.text.terminal_register_command_callback,"ax",%progbits
 2532              		.align	1
 2533              		.p2align 4,,15
 2534              		.global	terminal_register_command_callback
 2535              		.syntax unified
 2536              		.thumb
 2537              		.thumb_func
 2538              		.fpu fpv4-sp-d16
 2539              		.type	terminal_register_command_callback, %function
 2540              	terminal_register_command_callback:
 2541              	.LFB261:
 2542              		.loc 1 567 0
 2543              		.cfi_startproc
 2544              		@ args = 0, pretend = 0, frame = 0
 2545              		@ frame_needed = 0, uses_anonymous_args = 0
 2546              	.LVL349:
 2547 0000 2DE9F84F 		push	{r3, r4, r5, r6, r7, r8, r9, r10, fp, lr}
 2548              		.cfi_def_cfa_offset 40
 2549              		.cfi_offset 3, -40
 2550              		.cfi_offset 4, -36
 2551              		.cfi_offset 5, -32
 2552              		.cfi_offset 6, -28
 2553              		.cfi_offset 7, -24
 2554              		.cfi_offset 8, -20
 2555              		.cfi_offset 9, -16
 2556              		.cfi_offset 10, -12
 2557              		.cfi_offset 11, -8
 2558              		.cfi_offset 14, -4
 2559              		.loc 1 569 0
 2560 0004 DFF87880 		ldr	r8, .L191+4
 2561              	.LBB124:
 2562              		.loc 1 573 0
 2563 0008 1C4E     		ldr	r6, .L191
 2564              	.LBE124:
 2565              		.loc 1 569 0
ARM GAS  /tmp/cciDCA9n.s 			page 46


 2566 000a D8F80070 		ldr	r7, [r8]
 2567              	.LVL350:
 2568              	.LBB125:
 2569              		.loc 1 571 0
 2570 000e 002F     		cmp	r7, #0
 2571              	.LBE125:
 2572              		.loc 1 567 0
 2573 0010 0546     		mov	r5, r0
 2574 0012 8B46     		mov	fp, r1
 2575 0014 9246     		mov	r10, r2
 2576 0016 9946     		mov	r9, r3
 2577              	.LBB126:
 2578              		.loc 1 571 0
 2579 0018 1ADD     		ble	.L177
 2580              		.loc 1 573 0
 2581 001a 3068     		ldr	r0, [r6]
 2582              	.LVL351:
 2583 001c 8542     		cmp	r5, r0
 2584 001e 2AD0     		beq	.L183
 2585              		.loc 1 571 0
 2586 0020 0024     		movs	r4, #0
 2587 0022 07E0     		b	.L179
 2588              	.LVL352:
 2589              	.L188:
 2590              		.loc 1 571 0 is_stmt 0 discriminator 2
 2591 0024 0134     		adds	r4, r4, #1
 2592              	.LVL353:
 2593 0026 A742     		cmp	r7, r4
 2594              		.loc 1 573 0 is_stmt 1 discriminator 2
 2595 0028 4FEA0413 		lsl	r3, r4, #4
 2596              		.loc 1 571 0 discriminator 2
 2597 002c 10D0     		beq	.L177
 2598              		.loc 1 573 0
 2599 002e F058     		ldr	r0, [r6, r3]
 2600 0030 A842     		cmp	r0, r5
 2601 0032 05D0     		beq	.L178
 2602              	.LVL354:
 2603              	.L179:
 2604              		.loc 1 579 0
 2605 0034 2946     		mov	r1, r5
 2606 0036 FFF7FEFF 		bl	strcmp
 2607              	.LVL355:
 2608 003a 0028     		cmp	r0, #0
 2609 003c F2D1     		bne	.L188
 2610 003e 2301     		lsls	r3, r4, #4
 2611              	.LVL356:
 2612              	.L178:
 2613              	.LBE126:
 2614              		.loc 1 585 0
 2615 0040 F218     		adds	r2, r6, r3
 2616 0042 F550     		str	r5, [r6, r3]
 2617              		.loc 1 587 0
 2618 0044 C2E901BA 		strd	fp, r10, [r2, #4]
 2619              		.loc 1 588 0
 2620 0048 C2F80C90 		str	r9, [r2, #12]
 2621              		.loc 1 596 0
 2622 004c BDE8F88F 		pop	{r3, r4, r5, r6, r7, r8, r9, r10, fp, pc}
ARM GAS  /tmp/cciDCA9n.s 			page 47


 2623              	.LVL357:
 2624              	.L177:
 2625              		.loc 1 585 0
 2626 0050 3A01     		lsls	r2, r7, #4
 2627 0052 B318     		adds	r3, r6, r2
 2628              		.loc 1 591 0
 2629 0054 0137     		adds	r7, r7, #1
 2630              	.LVL358:
 2631              		.loc 1 592 0
 2632 0056 272F     		cmp	r7, #39
 2633              		.loc 1 585 0
 2634 0058 B550     		str	r5, [r6, r2]
 2635              		.loc 1 587 0
 2636 005a C3E901BA 		strd	fp, r10, [r3, #4]
 2637              		.loc 1 588 0
 2638 005e C3F80C90 		str	r9, [r3, #12]
 2639              		.loc 1 592 0
 2640 0062 04DD     		ble	.L190
 2641              		.loc 1 593 0
 2642 0064 0023     		movs	r3, #0
 2643 0066 C8F80030 		str	r3, [r8]
 2644              		.loc 1 596 0
 2645 006a BDE8F88F 		pop	{r3, r4, r5, r6, r7, r8, r9, r10, fp, pc}
 2646              	.LVL359:
 2647              	.L190:
 2648              		.loc 1 591 0
 2649 006e C8F80070 		str	r7, [r8]
 2650              		.loc 1 596 0
 2651 0072 BDE8F88F 		pop	{r3, r4, r5, r6, r7, r8, r9, r10, fp, pc}
 2652              	.LVL360:
 2653              	.L183:
 2654 0076 0023     		movs	r3, #0
 2655              	.LVL361:
 2656 0078 E2E7     		b	.L178
 2657              	.L192:
 2658 007a 00BF     		.align	2
 2659              	.L191:
 2660 007c 00000000 		.word	.LANCHOR6
 2661 0080 00000000 		.word	.LANCHOR5
 2662              		.cfi_endproc
 2663              	.LFE261:
 2664              		.size	terminal_register_command_callback, .-terminal_register_command_callback
 2665              		.section	.bss.callback_write,"aw",%nobits
 2666              		.align	2
 2667              		.set	.LANCHOR5,. + 0
 2668              		.type	callback_write, %object
 2669              		.size	callback_write, 4
 2670              	callback_write:
 2671 0000 00000000 		.space	4
 2672              		.section	.bss.callbacks,"aw",%nobits
 2673              		.align	2
 2674              		.set	.LANCHOR6,. + 0
 2675              		.type	callbacks, %object
 2676              		.size	callbacks, 640
 2677              	callbacks:
 2678 0000 00000000 		.space	640
 2678      00000000 
ARM GAS  /tmp/cciDCA9n.s 			page 48


 2678      00000000 
 2678      00000000 
 2678      00000000 
 2679              		.section	.bss.fault_vec,"aw",%nobits
 2680              		.align	2
 2681              		.set	.LANCHOR4,. + 0
 2682              		.type	fault_vec, %object
 2683              		.size	fault_vec, 1400
 2684              	fault_vec:
 2685 0000 00000000 		.space	1400
 2685      00000000 
 2685      00000000 
 2685      00000000 
 2685      00000000 
 2686              		.section	.bss.fault_vec_write,"aw",%nobits
 2687              		.align	2
 2688              		.set	.LANCHOR3,. + 0
 2689              		.type	fault_vec_write, %object
 2690              		.size	fault_vec_write, 4
 2691              	fault_vec_write:
 2692 0000 00000000 		.space	4
 2693              		.section	.bss.mcconf.12844,"aw",%nobits
 2694              		.align	2
 2695              		.set	.LANCHOR0,. + 0
 2696              		.type	mcconf.12844, %object
 2697              		.size	mcconf.12844, 388
 2698              	mcconf.12844:
 2699 0000 00000000 		.space	388
 2699      00000000 
 2699      00000000 
 2699      00000000 
 2699      00000000 
 2700              		.section	.bss.mcconf_old.12845,"aw",%nobits
 2701              		.align	2
 2702              		.set	.LANCHOR1,. + 0
 2703              		.type	mcconf_old.12845, %object
 2704              		.size	mcconf_old.12845, 388
 2705              	mcconf_old.12845:
 2706 0000 00000000 		.space	388
 2706      00000000 
 2706      00000000 
 2706      00000000 
 2706      00000000 
 2707              		.section	.rodata.states.12849,"a",%progbits
 2708              		.align	2
 2709              		.set	.LANCHOR2,. + 0
 2710              		.type	states.12849, %object
 2711              		.size	states.12849, 64
 2712              	states.12849:
 2713 0000 00000000 		.word	.LC153
 2714 0004 08000000 		.word	.LC154
 2715 0008 10000000 		.word	.LC155
 2716 000c 18000000 		.word	.LC156
 2717 0010 24000000 		.word	.LC157
 2718 0014 2C000000 		.word	.LC158
 2719 0018 34000000 		.word	.LC159
 2720 001c 3C000000 		.word	.LC160
ARM GAS  /tmp/cciDCA9n.s 			page 49


 2721 0020 44000000 		.word	.LC161
 2722 0024 50000000 		.word	.LC162
 2723 0028 58000000 		.word	.LC163
 2724 002c 60000000 		.word	.LC164
 2725 0030 6C000000 		.word	.LC165
 2726 0034 74000000 		.word	.LC166
 2727 0038 7C000000 		.word	.LC167
 2728 003c 84000000 		.word	.LC168
 2729              		.section	.rodata.str1.4,"aMS",%progbits,1
 2730              		.align	2
 2731              	.LC153:
 2732 0000 52454144 		.ascii	"READY\000"
 2732      5900
 2733 0006 0000     		.space	2
 2734              	.LC154:
 2735 0008 43555252 		.ascii	"CURRENT\000"
 2735      454E5400 
 2736              	.LC155:
 2737 0010 57545354 		.ascii	"WTSTART\000"
 2737      41525400 
 2738              	.LC156:
 2739 0018 53555350 		.ascii	"SUSPENDED\000"
 2739      454E4445 
 2739      4400
 2740 0022 0000     		.space	2
 2741              	.LC157:
 2742 0024 51554555 		.ascii	"QUEUED\000"
 2742      454400
 2743 002b 00       		.space	1
 2744              	.LC158:
 2745 002c 57545345 		.ascii	"WTSEM\000"
 2745      4D00
 2746 0032 0000     		.space	2
 2747              	.LC159:
 2748 0034 57544D54 		.ascii	"WTMTX\000"
 2748      5800
 2749 003a 0000     		.space	2
 2750              	.LC160:
 2751 003c 5754434F 		.ascii	"WTCOND\000"
 2751      4E4400
 2752 0043 00       		.space	1
 2753              	.LC161:
 2754 0044 534C4545 		.ascii	"SLEEPING\000"
 2754      50494E47 
 2754      00
 2755 004d 000000   		.space	3
 2756              	.LC162:
 2757 0050 57544558 		.ascii	"WTEXIT\000"
 2757      495400
 2758 0057 00       		.space	1
 2759              	.LC163:
 2760 0058 57544F52 		.ascii	"WTOREVT\000"
 2760      45565400 
 2761              	.LC164:
 2762 0060 5754414E 		.ascii	"WTANDEVT\000"
 2762      44455654 
 2762      00
ARM GAS  /tmp/cciDCA9n.s 			page 50


 2763 0069 000000   		.space	3
 2764              	.LC165:
 2765 006c 534E444D 		.ascii	"SNDMSGQ\000"
 2765      53475100 
 2766              	.LC166:
 2767 0074 534E444D 		.ascii	"SNDMSG\000"
 2767      534700
 2768 007b 00       		.space	1
 2769              	.LC167:
 2770 007c 57544D53 		.ascii	"WTMSG\000"
 2770      4700
 2771 0082 0000     		.space	2
 2772              	.LC168:
 2773 0084 46494E41 		.ascii	"FINAL\000"
 2773      4C00
 2774              		.section	.rodata.terminal_process_string.str1.4,"aMS",%progbits,1
 2775              		.align	2
 2776              	.LC0:
 2777 0000 74727565 		.ascii	"true\000"
 2777      00
 2778 0005 000000   		.space	3
 2779              	.LC1:
 2780 0008 66616C73 		.ascii	"false\000"
 2780      6500
 2781 000e 0000     		.space	2
 2782              	.LC2:
 2783 0010 59657300 		.ascii	"Yes\000"
 2784              	.LC3:
 2785 0014 4E6F00   		.ascii	"No\000"
 2786 0017 00       		.space	1
 2787              	.LC4:
 2788 0018 2000     		.ascii	" \000"
 2789 001a 0000     		.space	2
 2790              	.LC5:
 2791 001c 4E6F2063 		.ascii	"No command received\012\000"
 2791      6F6D6D61 
 2791      6E642072 
 2791      65636569 
 2791      7665640A 
 2792 0031 000000   		.space	3
 2793              	.LC6:
 2794 0034 70696E67 		.ascii	"ping\000"
 2794      00
 2795 0039 000000   		.space	3
 2796              	.LC7:
 2797 003c 706F6E67 		.ascii	"pong\012\000"
 2797      0A00
 2798 0042 0000     		.space	2
 2799              	.LC8:
 2800 0044 73746F70 		.ascii	"stop\000"
 2800      00
 2801 0049 000000   		.space	3
 2802              	.LC9:
 2803 004c 4D6F746F 		.ascii	"Motor stopped\012\000"
 2803      72207374 
 2803      6F707065 
 2803      640A00
ARM GAS  /tmp/cciDCA9n.s 			page 51


 2804 005b 00       		.space	1
 2805              	.LC10:
 2806 005c 6C617374 		.ascii	"last_adc_duration\000"
 2806      5F616463 
 2806      5F647572 
 2806      6174696F 
 2806      6E00
 2807 006e 0000     		.space	2
 2808              	.LC11:
 2809 0070 4C617465 		.ascii	"Latest ADC duration: %.4f ms\000"
 2809      73742041 
 2809      44432064 
 2809      75726174 
 2809      696F6E3A 
 2810 008d 000000   		.space	3
 2811              	.LC12:
 2812 0090 4C617465 		.ascii	"Latest injected ADC duration: %.4f ms\000"
 2812      73742069 
 2812      6E6A6563 
 2812      74656420 
 2812      41444320 
 2813 00b6 0000     		.space	2
 2814              	.LC13:
 2815 00b8 4C617465 		.ascii	"Latest sample ADC duration: %.4f ms\012\000"
 2815      73742073 
 2815      616D706C 
 2815      65204144 
 2815      43206475 
 2816 00dd 000000   		.space	3
 2817              	.LC14:
 2818 00e0 6B7600   		.ascii	"kv\000"
 2819 00e3 00       		.space	1
 2820              	.LC15:
 2821 00e4 43616C63 		.ascii	"Calculated KV: %.2f rpm/volt\012\000"
 2821      756C6174 
 2821      6564204B 
 2821      563A2025 
 2821      2E326620 
 2822 0102 0000     		.space	2
 2823              	.LC16:
 2824 0104 6D656D00 		.ascii	"mem\000"
 2825              	.LC17:
 2826 0108 636F7265 		.ascii	"core free memory : %u bytes\000"
 2826      20667265 
 2826      65206D65 
 2826      6D6F7279 
 2826      203A2025 
 2827              	.LC18:
 2828 0124 68656170 		.ascii	"heap fragments   : %u\000"
 2828      20667261 
 2828      676D656E 
 2828      74732020 
 2828      203A2025 
 2829 013a 0000     		.space	2
 2830              	.LC19:
 2831 013c 68656170 		.ascii	"heap free total  : %u bytes\012\000"
 2831      20667265 
ARM GAS  /tmp/cciDCA9n.s 			page 52


 2831      6520746F 
 2831      74616C20 
 2831      203A2025 
 2832 0159 000000   		.space	3
 2833              	.LC20:
 2834 015c 74687265 		.ascii	"threads\000"
 2834      61647300 
 2835              	.LC21:
 2836 0164 20202020 		.ascii	"    addr    stack prio refs     state           nam"
 2836      61646472 
 2836      20202020 
 2836      73746163 
 2836      6B207072 
 2837 0197 65207469 		.ascii	"e time    \000"
 2837      6D652020 
 2837      202000
 2838 01a2 0000     		.space	2
 2839              	.LC22:
 2840 01a4 2D2D2D2D 		.ascii	"---------------------------------------------------"
 2840      2D2D2D2D 
 2840      2D2D2D2D 
 2840      2D2D2D2D 
 2840      2D2D2D2D 
 2841 01d7 2D2D2D2D 		.ascii	"----------\000"
 2841      2D2D2D2D 
 2841      2D2D00
 2842 01e2 0000     		.space	2
 2843              	.LC23:
 2844 01e4 252E386C 		.ascii	"%.8lx %.8lx %4lu %4lu %9s %14s %lu\000"
 2844      7820252E 
 2844      386C7820 
 2844      25346C75 
 2844      2025346C 
 2845 0207 00       		.space	1
 2846              	.LC24:
 2847 0208 00       		.ascii	"\000"
 2848 0209 000000   		.space	3
 2849              	.LC25:
 2850 020c 6661756C 		.ascii	"fault\000"
 2850      7400
 2851 0212 0000     		.space	2
 2852              	.LC26:
 2853 0214 25730A00 		.ascii	"%s\012\000"
 2854              	.LC27:
 2855 0218 6661756C 		.ascii	"faults\000"
 2855      747300
 2856 021f 00       		.space	1
 2857              	.LC28:
 2858 0220 4E6F2066 		.ascii	"No faults registered since startup\012\000"
 2858      61756C74 
 2858      73207265 
 2858      67697374 
 2858      65726564 
 2859              	.LC29:
 2860 0244 54686520 		.ascii	"The following faults were registered since start:\012"
 2860      666F6C6C 
 2860      6F77696E 
ARM GAS  /tmp/cciDCA9n.s 			page 53


 2860      67206661 
 2860      756C7473 
 2861 0276 00       		.ascii	"\000"
 2862 0277 00       		.space	1
 2863              	.LC30:
 2864 0278 4661756C 		.ascii	"Fault            : %s\000"
 2864      74202020 
 2864      20202020 
 2864      20202020 
 2864      203A2025 
 2865 028e 0000     		.space	2
 2866              	.LC31:
 2867 0290 43757272 		.ascii	"Current          : %.1f\000"
 2867      656E7420 
 2867      20202020 
 2867      20202020 
 2867      203A2025 
 2868              	.LC32:
 2869 02a8 43757272 		.ascii	"Current filtered : %.1f\000"
 2869      656E7420 
 2869      66696C74 
 2869      65726564 
 2869      203A2025 
 2870              	.LC33:
 2871 02c0 566F6C74 		.ascii	"Voltage          : %.2f\000"
 2871      61676520 
 2871      20202020 
 2871      20202020 
 2871      203A2025 
 2872              	.LC34:
 2873 02d8 44757479 		.ascii	"Duty             : %.3f\000"
 2873      20202020 
 2873      20202020 
 2873      20202020 
 2873      203A2025 
 2874              	.LC35:
 2875 02f0 52504D20 		.ascii	"RPM              : %.1f\000"
 2875      20202020 
 2875      20202020 
 2875      20202020 
 2875      203A2025 
 2876              	.LC36:
 2877 0308 54616368 		.ascii	"Tacho            : %d\000"
 2877      6F202020 
 2877      20202020 
 2877      20202020 
 2877      203A2025 
 2878 031e 0000     		.space	2
 2879              	.LC37:
 2880 0320 4379636C 		.ascii	"Cycles running   : %d\000"
 2880      65732072 
 2880      756E6E69 
 2880      6E672020 
 2880      203A2025 
 2881 0336 0000     		.space	2
 2882              	.LC38:
 2883 0338 54494D20 		.ascii	"TIM duty         : %d\000"
ARM GAS  /tmp/cciDCA9n.s 			page 54


 2883      64757479 
 2883      20202020 
 2883      20202020 
 2883      203A2025 
 2884 034e 0000     		.space	2
 2885              	.LC39:
 2886 0350 54494D20 		.ascii	"TIM val samp     : %d\000"
 2886      76616C20 
 2886      73616D70 
 2886      20202020 
 2886      203A2025 
 2887 0366 0000     		.space	2
 2888              	.LC40:
 2889 0368 54494D20 		.ascii	"TIM current samp : %d\000"
 2889      63757272 
 2889      656E7420 
 2889      73616D70 
 2889      203A2025 
 2890 037e 0000     		.space	2
 2891              	.LC41:
 2892 0380 54494D20 		.ascii	"TIM top          : %d\000"
 2892      746F7020 
 2892      20202020 
 2892      20202020 
 2892      203A2025 
 2893 0396 0000     		.space	2
 2894              	.LC42:
 2895 0398 436F6D6D 		.ascii	"Comm step        : %d\000"
 2895      20737465 
 2895      70202020 
 2895      20202020 
 2895      203A2025 
 2896 03ae 0000     		.space	2
 2897              	.LC43:
 2898 03b0 54656D70 		.ascii	"Temperature      : %.2f\000"
 2898      65726174 
 2898      75726520 
 2898      20202020 
 2898      203A2025 
 2899              	.LC44:
 2900 03c8 72706D00 		.ascii	"rpm\000"
 2901              	.LC45:
 2902 03cc 456C6563 		.ascii	"Electrical RPM: %.2f rpm\012\000"
 2902      74726963 
 2902      616C2052 
 2902      504D3A20 
 2902      252E3266 
 2903 03e6 0000     		.space	2
 2904              	.LC46:
 2905 03e8 74616368 		.ascii	"tacho\000"
 2905      6F00
 2906 03ee 0000     		.space	2
 2907              	.LC47:
 2908 03f0 54616368 		.ascii	"Tachometer counts: %i\012\000"
 2908      6F6D6574 
 2908      65722063 
 2908      6F756E74 
ARM GAS  /tmp/cciDCA9n.s 			page 55


 2908      733A2025 
 2909 0407 00       		.space	1
 2910              	.LC48:
 2911 0408 74696D00 		.ascii	"tim\000"
 2912              	.LC49:
 2913 040c 54696D31 		.ascii	"Tim1 CNT: %i\000"
 2913      20434E54 
 2913      3A202569 
 2913      00
 2914 0419 000000   		.space	3
 2915              	.LC50:
 2916 041c 54696D38 		.ascii	"Tim8 CNT: %u\000"
 2916      20434E54 
 2916      3A202575 
 2916      00
 2917 0429 000000   		.space	3
 2918              	.LC51:
 2919 042c 44757479 		.ascii	"Duty cycle1: %u\000"
 2919      20637963 
 2919      6C65313A 
 2919      20257500 
 2920              	.LC52:
 2921 043c 44757479 		.ascii	"Duty cycle2: %u\000"
 2921      20637963 
 2921      6C65323A 
 2921      20257500 
 2922              	.LC53:
 2923 044c 44757479 		.ascii	"Duty cycle3: %u\000"
 2923      20637963 
 2923      6C65333A 
 2923      20257500 
 2924              	.LC54:
 2925 045c 546F703A 		.ascii	"Top: %u\000"
 2925      20257500 
 2926              	.LC55:
 2927 0464 44697231 		.ascii	"Dir1: %u\000"
 2927      3A202575 
 2927      00
 2928 046d 000000   		.space	3
 2929              	.LC56:
 2930 0470 44697238 		.ascii	"Dir8: %u\000"
 2930      3A202575 
 2930      00
 2931 0479 000000   		.space	3
 2932              	.LC57:
 2933 047c 566F6C74 		.ascii	"Voltage sample: %u\000"
 2933      61676520 
 2933      73616D70 
 2933      6C653A20 
 2933      257500
 2934 048f 00       		.space	1
 2935              	.LC58:
 2936 0490 43757272 		.ascii	"Current 1 sample: %u\000"
 2936      656E7420 
 2936      31207361 
 2936      6D706C65 
 2936      3A202575 
ARM GAS  /tmp/cciDCA9n.s 			page 56


 2937 04a5 000000   		.space	3
 2938              	.LC59:
 2939 04a8 43757272 		.ascii	"Current 2 sample: %u\012\000"
 2939      656E7420 
 2939      32207361 
 2939      6D706C65 
 2939      3A202575 
 2940 04be 0000     		.space	2
 2941              	.LC60:
 2942 04c0 766F6C74 		.ascii	"volt\000"
 2942      00
 2943 04c5 000000   		.space	3
 2944              	.LC61:
 2945 04c8 496E7075 		.ascii	"Input voltage: %.2f\012\000"
 2945      7420766F 
 2945      6C746167 
 2945      653A2025 
 2945      2E32660A 
 2946 04dd 000000   		.space	3
 2947              	.LC62:
 2948 04e0 70617261 		.ascii	"param_detect\000"
 2948      6D5F6465 
 2948      74656374 
 2948      00
 2949 04ed 000000   		.space	3
 2950              	.LC63:
 2951 04f0 256600   		.ascii	"%f\000"
 2952 04f3 00       		.space	1
 2953              	.LC64:
 2954 04f4 4379636C 		.ascii	"Cycle integrator limit: %.2f\000"
 2954      6520696E 
 2954      74656772 
 2954      61746F72 
 2954      206C696D 
 2955 0511 000000   		.space	3
 2956              	.LC65:
 2957 0514 436F7570 		.ascii	"Coupling factor: %.2f\000"
 2957      6C696E67 
 2957      20666163 
 2957      746F723A 
 2957      20252E32 
 2958 052a 0000     		.space	2
 2959              	.LC66:
 2960 052c 44657465 		.ascii	"Detected hall sensor table:\000"
 2960      63746564 
 2960      2068616C 
 2960      6C207365 
 2960      6E736F72 
 2961              	.LC67:
 2962 0548 25692C20 		.ascii	"%i, %i, %i, %i, %i, %i, %i, %i\012\000"
 2962      25692C20 
 2962      25692C20 
 2962      25692C20 
 2962      25692C20 
 2963              	.LC68:
 2964 0568 48616C6C 		.ascii	"Hall sensor detection failed:\000"
 2964      2073656E 
ARM GAS  /tmp/cciDCA9n.s 			page 57


 2964      736F7220 
 2964      64657465 
 2964      6374696F 
 2965 0586 0000     		.space	2
 2966              	.LC69:
 2967 0588 57533238 		.ascii	"WS2811 enabled. Hall sensors cannot be used.\012\000"
 2967      31312065 
 2967      6E61626C 
 2967      65642E20 
 2967      48616C6C 
 2968 05b6 0000     		.space	2
 2969              	.LC70:
 2970 05b8 456E636F 		.ascii	"Encoder enabled. Hall sensors cannot be used.\012\000"
 2970      64657220 
 2970      656E6162 
 2970      6C65642E 
 2970      2048616C 
 2971 05e7 00       		.space	1
 2972              	.LC71:
 2973 05e8 44657465 		.ascii	"Detection failed. Try again with different paramete"
 2973      6374696F 
 2973      6E206661 
 2973      696C6564 
 2973      2E205472 
 2974 061b 72732E0A 		.ascii	"rs.\012\000"
 2974      00
 2975              	.LC72:
 2976 0620 496E7661 		.ascii	"Invalid argument(s).\012\000"
 2976      6C696420 
 2976      61726775 
 2976      6D656E74 
 2976      2873292E 
 2977 0636 0000     		.space	2
 2978              	.LC73:
 2979 0638 54686973 		.ascii	"This command requires three arguments.\012\000"
 2979      20636F6D 
 2979      6D616E64 
 2979      20726571 
 2979      75697265 
 2980              	.LC74:
 2981 0660 72706D5F 		.ascii	"rpm_dep\000"
 2981      64657000 
 2982              	.LC75:
 2983 0668 4379636C 		.ascii	"Cycle int limit: %.2f\000"
 2983      6520696E 
 2983      74206C69 
 2983      6D69743A 
 2983      20252E32 
 2984 067e 0000     		.space	2
 2985              	.LC76:
 2986 0680 4379636C 		.ascii	"Cycle int limit running: %.2f\000"
 2986      6520696E 
 2986      74206C69 
 2986      6D697420 
 2986      72756E6E 
 2987 069e 0000     		.space	2
 2988              	.LC77:
ARM GAS  /tmp/cciDCA9n.s 			page 58


 2989 06a0 4379636C 		.ascii	"Cycle int limit max: %.2f\012\000"
 2989      6520696E 
 2989      74206C69 
 2989      6D697420 
 2989      6D61783A 
 2990 06bb 00       		.space	1
 2991              	.LC78:
 2992 06bc 63616E5F 		.ascii	"can_devs\000"
 2992      64657673 
 2992      00
 2993 06c5 000000   		.space	3
 2994              	.LC79:
 2995 06c8 43414E20 		.ascii	"CAN devices seen on the bus the past second:\012\000"
 2995      64657669 
 2995      63657320 
 2995      7365656E 
 2995      206F6E20 
 2996 06f6 0000     		.space	2
 2997              	.LC80:
 2998 06f8 49442020 		.ascii	"ID                 : %i\000"
 2998      20202020 
 2998      20202020 
 2998      20202020 
 2998      2020203A 
 2999              	.LC81:
 3000 0710 52582054 		.ascii	"RX Time            : %i\000"
 3000      696D6520 
 3000      20202020 
 3000      20202020 
 3000      2020203A 
 3001              	.LC82:
 3002 0728 41676520 		.ascii	"Age (milliseconds) : %.2f\000"
 3002      286D696C 
 3002      6C697365 
 3002      636F6E64 
 3002      7329203A 
 3003 0742 0000     		.space	2
 3004              	.LC83:
 3005 0744 52504D20 		.ascii	"RPM                : %.2f\000"
 3005      20202020 
 3005      20202020 
 3005      20202020 
 3005      2020203A 
 3006 075e 0000     		.space	2
 3007              	.LC84:
 3008 0760 43757272 		.ascii	"Current            : %.2f\000"
 3008      656E7420 
 3008      20202020 
 3008      20202020 
 3008      2020203A 
 3009 077a 0000     		.space	2
 3010              	.LC85:
 3011 077c 44757479 		.ascii	"Duty               : %.2f\012\000"
 3011      20202020 
 3011      20202020 
 3011      20202020 
 3011      2020203A 
ARM GAS  /tmp/cciDCA9n.s 			page 59


 3012 0797 00       		.space	1
 3013              	.LC86:
 3014 0798 666F635F 		.ascii	"foc_encoder_detect\000"
 3014      656E636F 
 3014      6465725F 
 3014      64657465 
 3014      637400
 3015 07ab 00       		.space	1
 3016              	.LC87:
 3017 07ac 4F666673 		.ascii	"Offset   : %.2f\000"
 3017      65742020 
 3017      203A2025 
 3017      2E326600 
 3018              	.LC88:
 3019 07bc 52617469 		.ascii	"Ratio    : %.2f\000"
 3019      6F202020 
 3019      203A2025 
 3019      2E326600 
 3020              	.LC89:
 3021 07cc 496E7665 		.ascii	"Inverted : %s\012\000"
 3021      72746564 
 3021      203A2025 
 3021      730A00
 3022 07db 00       		.space	1
 3023              	.LC90:
 3024 07dc 456E636F 		.ascii	"Encoder not enabled.\012\000"
 3024      64657220 
 3024      6E6F7420 
 3024      656E6162 
 3024      6C65642E 
 3025 07f2 0000     		.space	2
 3026              	.LC91:
 3027 07f4 54686973 		.ascii	"This command requires one argument.\012\000"
 3027      20636F6D 
 3027      6D616E64 
 3027      20726571 
 3027      75697265 
 3028 0819 000000   		.space	3
 3029              	.LC92:
 3030 081c 6D656173 		.ascii	"measure_res\000"
 3030      7572655F 
 3030      72657300 
 3031              	.LC93:
 3032 0828 52657369 		.ascii	"Resistance: %.6f ohm\012\000"
 3032      7374616E 
 3032      63653A20 
 3032      252E3666 
 3032      206F686D 
 3033 083e 0000     		.space	2
 3034              	.LC94:
 3035 0840 6D656173 		.ascii	"measure_ind\000"
 3035      7572655F 
 3035      696E6400 
 3036              	.LC95:
 3037 084c 496E6475 		.ascii	"Inductance: %.2f microhenry (%.2f A)\012\000"
 3037      6374616E 
 3037      63653A20 
ARM GAS  /tmp/cciDCA9n.s 			page 60


 3037      252E3266 
 3037      206D6963 
 3038 0872 0000     		.space	2
 3039              	.LC96:
 3040 0874 6D656173 		.ascii	"measure_linkage\000"
 3040      7572655F 
 3040      6C696E6B 
 3040      61676500 
 3041              	.LC97:
 3042 0884 466C7578 		.ascii	"Flux linkage: %.7f\012\000"
 3042      206C696E 
 3042      6B616765 
 3042      3A20252E 
 3042      37660A00 
 3043              	.LC98:
 3044 0898 6D656173 		.ascii	"measure_res_ind\000"
 3044      7572655F 
 3044      7265735F 
 3044      696E6400 
 3045              	.LC99:
 3046 08a8 52657369 		.ascii	"Resistance: %.6f ohm\000"
 3046      7374616E 
 3046      63653A20 
 3046      252E3666 
 3046      206F686D 
 3047 08bd 000000   		.space	3
 3048              	.LC100:
 3049 08c0 496E6475 		.ascii	"Inductance: %.2f microhenry\012\000"
 3049      6374616E 
 3049      63653A20 
 3049      252E3266 
 3049      206D6963 
 3050 08dd 000000   		.space	3
 3051              	.LC101:
 3052 08e0 6D656173 		.ascii	"measure_linkage_foc\000"
 3052      7572655F 
 3052      6C696E6B 
 3052      6167655F 
 3052      666F6300 
 3053              	.LC102:
 3054 08f4 666F635F 		.ascii	"foc_state\000"
 3054      73746174 
 3054      6500
 3055 08fe 0000     		.space	2
 3056              	.LC103:
 3057 0900 68775F73 		.ascii	"hw_status\000"
 3057      74617475 
 3057      7300
 3058 090a 0000     		.space	2
 3059              	.LC104:
 3060 090c 4669726D 		.ascii	"Firmware: %d.%d\000"
 3060      77617265 
 3060      3A202564 
 3060      2E256400 
 3061              	.LC105:
 3062 091c 34313000 		.ascii	"410\000"
 3063              	.LC106:
ARM GAS  /tmp/cciDCA9n.s 			page 61


 3064 0920 48617264 		.ascii	"Hardware: %s\000"
 3064      77617265 
 3064      3A202573 
 3064      00
 3065 092d 000000   		.space	3
 3066              	.LC107:
 3067 0930 55554944 		.ascii	"UUID: %02X %02X %02X %02X %02X %02X %02X %02X %02X "
 3067      3A202530 
 3067      32582025 
 3067      30325820 
 3067      25303258 
 3068 0963 25303258 		.ascii	"%02X %02X %02X\000"
 3068      20253032 
 3068      58202530 
 3068      325800
 3069 0972 0000     		.space	2
 3070              	.LC108:
 3071 0974 5065726D 		.ascii	"Permanent NRF found: %s\000"
 3071      616E656E 
 3071      74204E52 
 3071      4620666F 
 3071      756E643A 
 3072              	.LC109:
 3073 098c 666F635F 		.ascii	"foc_openloop\000"
 3073      6F70656E 
 3073      6C6F6F70 
 3073      00
 3074 0999 000000   		.space	3
 3075              	.LC110:
 3076 099c 54686973 		.ascii	"This command requires two arguments.\012\000"
 3076      20636F6D 
 3076      6D616E64 
 3076      20726571 
 3076      75697265 
 3077 09c2 0000     		.space	2
 3078              	.LC111:
 3079 09c4 68656C70 		.ascii	"help\000"
 3079      00
 3080 09c9 000000   		.space	3
 3081              	.LC112:
 3082 09cc 56616C69 		.ascii	"Valid commands are:\000"
 3082      6420636F 
 3082      6D6D616E 
 3082      64732061 
 3082      72653A00 
 3083              	.LC113:
 3084 09e0 20205368 		.ascii	"  Show this help\000"
 3084      6F772074 
 3084      68697320 
 3084      68656C70 
 3084      00
 3085 09f1 000000   		.space	3
 3086              	.LC114:
 3087 09f4 20205072 		.ascii	"  Print pong here to see if the reply works\000"
 3087      696E7420 
 3087      706F6E67 
 3087      20686572 
ARM GAS  /tmp/cciDCA9n.s 			page 62


 3087      6520746F 
 3088              	.LC115:
 3089 0a20 20205374 		.ascii	"  Stop the motor\000"
 3089      6F702074 
 3089      6865206D 
 3089      6F746F72 
 3089      00
 3090 0a31 000000   		.space	3
 3091              	.LC116:
 3092 0a34 20205468 		.ascii	"  The time the latest ADC interrupt consumed\000"
 3092      65207469 
 3092      6D652074 
 3092      6865206C 
 3092      61746573 
 3093 0a61 000000   		.space	3
 3094              	.LC117:
 3095 0a64 20205468 		.ascii	"  The calculated kv of the motor\000"
 3095      65206361 
 3095      6C63756C 
 3095      61746564 
 3095      206B7620 
 3096 0a85 000000   		.space	3
 3097              	.LC118:
 3098 0a88 20205368 		.ascii	"  Show memory usage\000"
 3098      6F77206D 
 3098      656D6F72 
 3098      79207573 
 3098      61676500 
 3099              	.LC119:
 3100 0a9c 20204C69 		.ascii	"  List all threads\000"
 3100      73742061 
 3100      6C6C2074 
 3100      68726561 
 3100      647300
 3101 0aaf 00       		.space	1
 3102              	.LC120:
 3103 0ab0 20205072 		.ascii	"  Prints the current fault code\000"
 3103      696E7473 
 3103      20746865 
 3103      20637572 
 3103      72656E74 
 3104              	.LC121:
 3105 0ad0 20205072 		.ascii	"  Prints all stored fault codes and conditions when"
 3105      696E7473 
 3105      20616C6C 
 3105      2073746F 
 3105      72656420 
 3106 0b03 20746865 		.ascii	" they arrived\000"
 3106      79206172 
 3106      72697665 
 3106      6400
 3107 0b11 000000   		.space	3
 3108              	.LC122:
 3109 0b14 20205072 		.ascii	"  Prints the current electrical RPM\000"
 3109      696E7473 
 3109      20746865 
 3109      20637572 
ARM GAS  /tmp/cciDCA9n.s 			page 63


 3109      72656E74 
 3110              	.LC123:
 3111 0b38 20205072 		.ascii	"  Prints tachometer value\000"
 3111      696E7473 
 3111      20746163 
 3111      686F6D65 
 3111      74657220 
 3112 0b52 0000     		.space	2
 3113              	.LC124:
 3114 0b54 20205072 		.ascii	"  Prints tim1 and tim8 settings\000"
 3114      696E7473 
 3114      2074696D 
 3114      3120616E 
 3114      64207469 
 3115              	.LC125:
 3116 0b74 20205072 		.ascii	"  Prints different voltages\000"
 3116      696E7473 
 3116      20646966 
 3116      66657265 
 3116      6E742076 
 3117              	.LC126:
 3118 0b90 70617261 		.ascii	"param_detect [current] [min_rpm] [low_duty]\000"
 3118      6D5F6465 
 3118      74656374 
 3118      205B6375 
 3118      7272656E 
 3119              	.LC127:
 3120 0bbc 20205370 		.ascii	"  Spin up the motor in COMM_MODE_DELAY and compute "
 3120      696E2075 
 3120      70207468 
 3120      65206D6F 
 3120      746F7220 
 3121 0bef 69747320 		.ascii	"its parameters.\000"
 3121      70617261 
 3121      6D657465 
 3121      72732E00 
 3122 0bff 00       		.space	1
 3123              	.LC128:
 3124 0c00 20205468 		.ascii	"  This test should be performed without load on the"
 3124      69732074 
 3124      65737420 
 3124      73686F75 
 3124      6C642062 
 3125 0c33 206D6F74 		.ascii	" motor.\000"
 3125      6F722E00 
 3126 0c3b 00       		.space	1
 3127              	.LC129:
 3128 0c3c 20204578 		.ascii	"  Example: param_detect 5.0 600 0.06\000"
 3128      616D706C 
 3128      653A2070 
 3128      6172616D 
 3128      5F646574 
 3129 0c61 000000   		.space	3
 3130              	.LC130:
 3131 0c64 20205072 		.ascii	"  Prints some rpm-dep values\000"
 3131      696E7473 
 3131      20736F6D 
ARM GAS  /tmp/cciDCA9n.s 			page 64


 3131      65207270 
 3131      6D2D6465 
 3132 0c81 000000   		.space	3
 3133              	.LC131:
 3134 0c84 20205072 		.ascii	"  Prints all CAN devices seen on the bus the past s"
 3134      696E7473 
 3134      20616C6C 
 3134      2043414E 
 3134      20646576 
 3135 0cb7 65636F6E 		.ascii	"econd\000"
 3135      6400
 3136 0cbd 000000   		.space	3
 3137              	.LC132:
 3138 0cc0 666F635F 		.ascii	"foc_encoder_detect [current]\000"
 3138      656E636F 
 3138      6465725F 
 3138      64657465 
 3138      6374205B 
 3139 0cdd 000000   		.space	3
 3140              	.LC133:
 3141 0ce0 20205275 		.ascii	"  Run the motor at 1Hz on open loop and compute enc"
 3141      6E207468 
 3141      65206D6F 
 3141      746F7220 
 3141      61742031 
 3142 0d13 6F646572 		.ascii	"oder settings\000"
 3142      20736574 
 3142      74696E67 
 3142      7300
 3143 0d21 000000   		.space	3
 3144              	.LC134:
 3145 0d24 6D656173 		.ascii	"measure_res [current]\000"
 3145      7572655F 
 3145      72657320 
 3145      5B637572 
 3145      72656E74 
 3146 0d3a 0000     		.space	2
 3147              	.LC135:
 3148 0d3c 20204C6F 		.ascii	"  Lock the motor with a current and calculate its r"
 3148      636B2074 
 3148      6865206D 
 3148      6F746F72 
 3148      20776974 
 3149 0d6f 65736973 		.ascii	"esistance\000"
 3149      74616E63 
 3149      6500
 3150 0d79 000000   		.space	3
 3151              	.LC136:
 3152 0d7c 6D656173 		.ascii	"measure_ind [duty]\000"
 3152      7572655F 
 3152      696E6420 
 3152      5B647574 
 3152      795D00
 3153 0d8f 00       		.space	1
 3154              	.LC137:
 3155 0d90 20205365 		.ascii	"  Send short voltage pulses, measure the current an"
 3155      6E642073 
ARM GAS  /tmp/cciDCA9n.s 			page 65


 3155      686F7274 
 3155      20766F6C 
 3155      74616765 
 3156 0dc3 64206361 		.ascii	"d calculate the motor inductance\000"
 3156      6C63756C 
 3156      61746520 
 3156      74686520 
 3156      6D6F746F 
 3157              	.LC138:
 3158 0de4 6D656173 		.ascii	"measure_linkage [current] [duty] [min_rpm] [motor_r"
 3158      7572655F 
 3158      6C696E6B 
 3158      61676520 
 3158      5B637572 
 3159 0e17 65735D00 		.ascii	"es]\000"
 3160 0e1b 00       		.space	1
 3161              	.LC139:
 3162 0e1c 20205275 		.ascii	"  Run the motor in BLDC delay mode and measure the "
 3162      6E207468 
 3162      65206D6F 
 3162      746F7220 
 3162      696E2042 
 3163 0e4f 666C7578 		.ascii	"flux linkage\000"
 3163      206C696E 
 3163      6B616765 
 3163      00
 3164              	.LC140:
 3165 0e5c 20206578 		.ascii	"  example measure_linkage 5 0.5 700 0.076\000"
 3165      616D706C 
 3165      65206D65 
 3165      61737572 
 3165      655F6C69 
 3166 0e86 0000     		.space	2
 3167              	.LC141:
 3168 0e88 20207469 		.ascii	"  tip: measure the resistance with measure_res firs"
 3168      703A206D 
 3168      65617375 
 3168      72652074 
 3168      68652072 
 3169 0ebb 7400     		.ascii	"t\000"
 3170 0ebd 000000   		.space	3
 3171              	.LC142:
 3172 0ec0 20204D65 		.ascii	"  Measure the motor resistance and inductance with "
 3172      61737572 
 3172      65207468 
 3172      65206D6F 
 3172      746F7220 
 3173 0ef3 616E2069 		.ascii	"an incremental adaptive algorithm.\000"
 3173      6E637265 
 3173      6D656E74 
 3173      616C2061 
 3173      64617074 
 3174 0f16 0000     		.space	2
 3175              	.LC143:
 3176 0f18 6D656173 		.ascii	"measure_linkage_foc [duty]\000"
 3176      7572655F 
 3176      6C696E6B 
ARM GAS  /tmp/cciDCA9n.s 			page 66


 3176      6167655F 
 3176      666F6320 
 3177 0f33 00       		.space	1
 3178              	.LC144:
 3179 0f34 20205275 		.ascii	"  Run the motor with FOC and measure the flux linka"
 3179      6E207468 
 3179      65206D6F 
 3179      746F7220 
 3179      77697468 
 3180 0f67 67652E00 		.ascii	"ge.\000"
 3181 0f6b 00       		.space	1
 3182              	.LC145:
 3183 0f6c 20205072 		.ascii	"  Print some FOC state variables.\000"
 3183      696E7420 
 3183      736F6D65 
 3183      20464F43 
 3183      20737461 
 3184 0f8e 0000     		.space	2
 3185              	.LC146:
 3186 0f90 20205072 		.ascii	"  Print some hardware status information.\000"
 3186      696E7420 
 3186      736F6D65 
 3186      20686172 
 3186      64776172 
 3187 0fba 0000     		.space	2
 3188              	.LC147:
 3189 0fbc 666F635F 		.ascii	"foc_openloop [current] [erpm]\000"
 3189      6F70656E 
 3189      6C6F6F70 
 3189      205B6375 
 3189      7272656E 
 3190 0fda 0000     		.space	2
 3191              	.LC148:
 3192 0fdc 20204372 		.ascii	"  Create an open loop rotating current vector.\000"
 3192      65617465 
 3192      20616E20 
 3192      6F70656E 
 3192      206C6F6F 
 3193 100b 00       		.space	1
 3194              	.LC149:
 3195 100c 25732025 		.ascii	"%s %s\000"
 3195      7300
 3196 1012 0000     		.space	2
 3197              	.LC150:
 3198 1014 20202573 		.ascii	"  %s\000"
 3198      00
 3199 1019 000000   		.space	3
 3200              	.LC151:
 3201 101c 20205468 		.ascii	"  There is no help available for this command.\000"
 3201      65726520 
 3201      6973206E 
 3201      6F206865 
 3201      6C702061 
 3202 104b 00       		.space	1
 3203              	.LC152:
 3204 104c 496E7661 		.ascii	"Invalid command: %s\012type help to list all availa"
 3204      6C696420 
ARM GAS  /tmp/cciDCA9n.s 			page 67


 3204      636F6D6D 
 3204      616E643A 
 3204      2025730A 
 3205 107c 626C6520 		.ascii	"ble commands\012\000"
 3205      636F6D6D 
 3205      616E6473 
 3205      0A00
 3206              		.text
 3207              	.Letext0:
 3208              		.file 4 "/usr/lib/gcc/arm-none-eabi/7.3.1/include/stddef.h"
 3209              		.file 5 "/usr/arm-none-eabi/include/machine/_default_types.h"
 3210              		.file 6 "/usr/arm-none-eabi/include/sys/_stdint.h"
 3211              		.file 7 "ChibiOS_3.0.2/os/rt/ports/ARMCMx/compilers/GCC/chtypes.h"
 3212              		.file 8 "ChibiOS_3.0.2/os/rt/include/chsystypes.h"
 3213              		.file 9 "ChibiOS_3.0.2/os/rt/include/chschd.h"
 3214              		.file 10 "ChibiOS_3.0.2/os/ext/CMSIS/include/core_cm4.h"
 3215              		.file 11 "ChibiOS_3.0.2/os/ext/CMSIS/ST/system_stm32f4xx.h"
 3216              		.file 12 "ChibiOS_3.0.2/os/ext/CMSIS/ST/stm32f407xx.h"
 3217              		.file 13 "ChibiOS_3.0.2/os/rt/ports/ARMCMx/chcore.h"
 3218              		.file 14 "ChibiOS_3.0.2/os/rt/ports/ARMCMx/chcore_v7m.h"
 3219              		.file 15 "ChibiOS_3.0.2/os/rt/include/chtm.h"
 3220              		.file 16 "ChibiOS_3.0.2/os/rt/include/chsem.h"
 3221              		.file 17 "ChibiOS_3.0.2/os/rt/include/chmtx.h"
 3222              		.file 18 "ChibiOS_3.0.2/os/rt/include/chregistry.h"
 3223              		.file 19 "ChibiOS_3.0.2/os/rt/include/chevents.h"
 3224              		.file 20 "ChibiOS_3.0.2/os/rt/include/chqueues.h"
 3225              		.file 21 "./datatypes.h"
 3226              		.file 22 "./conf_general.h"
 3227              		.file 23 "ChibiOS_3.0.2/os/hal/ports/STM32/STM32F4xx/stm32_dma.h"
 3228              		.file 24 "ChibiOS_3.0.2/os/hal/ports/STM32/LLD/GPIOv2/pal_lld.h"
 3229              		.file 25 "ChibiOS_3.0.2/os/hal/include/can.h"
 3230              		.file 26 "ChibiOS_3.0.2/os/hal/ports/STM32/LLD/can_lld.h"
 3231              		.file 27 "ChibiOS_3.0.2/os/hal/include/i2c.h"
 3232              		.file 28 "ChibiOS_3.0.2/os/hal/ports/STM32/LLD/I2Cv1/i2c_lld.h"
 3233              		.file 29 "ChibiOS_3.0.2/os/hal/include/icu.h"
 3234              		.file 30 "ChibiOS_3.0.2/os/hal/ports/STM32/LLD/TIMv1/icu_lld.h"
 3235              		.file 31 "ChibiOS_3.0.2/os/hal/ports/STM32/LLD/TIMv1/stm32_tim.h"
 3236              		.file 32 "ChibiOS_3.0.2/os/hal/include/spi.h"
 3237              		.file 33 "ChibiOS_3.0.2/os/hal/ports/STM32/LLD/SPIv1/spi_lld.h"
 3238              		.file 34 "ChibiOS_3.0.2/os/hal/include/uart.h"
 3239              		.file 35 "ChibiOS_3.0.2/os/hal/ports/STM32/LLD/USARTv1/uart_lld.h"
 3240              		.file 36 "ChibiOS_3.0.2/os/hal/include/usb.h"
 3241              		.file 37 "ChibiOS_3.0.2/os/hal/ports/STM32/LLD/OTGv1/usb_lld.h"
 3242              		.file 38 "ChibiOS_3.0.2/os/hal/ports/STM32/LLD/OTGv1/stm32_otg.h"
 3243              		.file 39 "mcpwm.h"
 3244              		.file 40 "mc_interface.h"
 3245              		.file 41 "/usr/arm-none-eabi/include/sys/lock.h"
 3246              		.file 42 "/usr/arm-none-eabi/include/sys/_types.h"
 3247              		.file 43 "/usr/arm-none-eabi/include/sys/reent.h"
 3248              		.file 44 "/usr/arm-none-eabi/include/math.h"
 3249              		.file 45 "ChibiOS_3.0.2/os/rt/include/chsys.h"
 3250              		.file 46 "/usr/arm-none-eabi/include/string.h"
 3251              		.file 47 "ChibiOS_3.0.2/os/rt/include/chheap.h"
 3252              		.file 48 "ChibiOS_3.0.2/os/rt/include/chmemcore.h"
 3253              		.file 49 "commands.h"
 3254              		.file 50 "/usr/arm-none-eabi/include/stdio.h"
 3255              		.file 51 "comm_can.h"
ARM GAS  /tmp/cciDCA9n.s 			page 68


 3256              		.file 52 "mcpwm_foc.h"
 3257              		.file 53 "encoder.h"
 3258              		.file 54 "ChibiOS_3.0.2/os/rt/include/chthreads.h"
 3259              		.file 55 "timeout.h"
 3260              		.file 56 "<built-in>"