ARM GAS  /tmp/ccSOQyUc.s 			page 1


   1              		.cpu cortex-m4
   2              		.eabi_attribute 27, 1
   3              		.eabi_attribute 28, 1
   4              		.eabi_attribute 20, 1
   5              		.eabi_attribute 21, 1
   6              		.eabi_attribute 23, 3
   7              		.eabi_attribute 24, 1
   8              		.eabi_attribute 25, 1
   9              		.eabi_attribute 26, 1
  10              		.eabi_attribute 30, 2
  11              		.eabi_attribute 34, 1
  12              		.eabi_attribute 18, 4
  13              		.file	"timeout.c"
  14              		.text
  15              	.Ltext0:
  16              		.cfi_sections	.debug_frame
  17              		.section	.text.timeout_thread,"ax",%progbits
  18              		.align	1
  19              		.p2align 4,,15
  20              		.syntax unified
  21              		.thumb
  22              		.thumb_func
  23              		.fpu fpv4-sp-d16
  24              		.type	timeout_thread, %function
  25              	timeout_thread:
  26              	.LFB225:
  27              		.file 1 "timeout.c"
  28              		.loc 1 63 0
  29              		.cfi_startproc
  30              		@ Volatile: function does not return.
  31              		@ args = 0, pretend = 0, frame = 0
  32              		@ frame_needed = 0, uses_anonymous_args = 0
  33              	.LVL0:
  34 0000 2DE98848 		push	{r3, r7, fp, lr}
  35              		.cfi_def_cfa_offset 16
  36              		.cfi_offset 3, -16
  37              		.cfi_offset 7, -12
  38              		.cfi_offset 11, -8
  39              		.cfi_offset 14, -4
  40              	.LBB47:
  41              	.LBB48:
  42              		.file 2 "ChibiOS_3.0.2/os/rt/include/chregistry.h"
  43              		.loc 2 135 0
  44 0004 164F     		ldr	r7, .L11
  45 0006 174A     		ldr	r2, .L11+4
  46 0008 BB69     		ldr	r3, [r7, #24]
  47 000a 174C     		ldr	r4, .L11+8
  48 000c DFF860A0 		ldr	r10, .L11+16
  49 0010 DFF860B0 		ldr	fp, .L11+20
  50 0014 154D     		ldr	r5, .L11+12
  51              	.LBE48:
  52              	.LBE47:
  53              		.loc 1 69 0
  54 0016 DFF86090 		ldr	r9, .L11+24
  55              	.LBB50:
  56              	.LBB49:
  57              		.loc 2 135 0
ARM GAS  /tmp/ccSOQyUc.s 			page 2


  58 001a 9A61     		str	r2, [r3, #24]
  59              	.LBE49:
  60              	.LBE50:
  61              		.loc 1 74 0
  62 001c 0026     		movs	r6, #0
  63              		.loc 1 69 0
  64 001e 42F21078 		movw	r8, #10000
  65              	.LVL1:
  66              	.L4:
  67 0022 2368     		ldr	r3, [r4]
  68 0024 6BB1     		cbz	r3, .L2
  69              		.loc 1 69 0 is_stmt 0 discriminator 1
  70 0026 DAF80010 		ldr	r1, [r10]
  71              	.LVL2:
  72              	.LBB51:
  73              	.LBB52:
  74              	.LBB53:
  75              	.LBB54:
  76              		.file 3 "ChibiOS_3.0.2/os/rt/include/chvt.h"
  77              		.loc 3 231 0 is_stmt 1 discriminator 1
  78 002a BA6A     		ldr	r2, [r7, #40]
  79              	.LVL3:
  80              	.LBE54:
  81              	.LBE53:
  82              	.LBE52:
  83              	.LBE51:
  84              		.loc 1 69 0 discriminator 1
  85 002c 2368     		ldr	r3, [r4]
  86 002e 08FB03F3 		mul	r3, r8, r3
  87 0032 03F2E733 		addw	r3, r3, #999
  88              	.LBB56:
  89              	.LBB55:
  90              		.loc 3 267 0 discriminator 1
  91 0036 521A     		subs	r2, r2, r1
  92              	.LBE55:
  93              	.LBE56:
  94              		.loc 1 69 0 discriminator 1
  95 0038 A9FB0313 		umull	r1, r3, r9, r3
  96 003c B2EB931F 		cmp	r2, r3, lsr #6
  97 0040 04D8     		bhi	.L10
  98              	.L2:
  99              		.loc 1 74 0
 100 0042 2E70     		strb	r6, [r5]
 101              	.L3:
 102              		.loc 1 77 0
 103 0044 6420     		movs	r0, #100
 104 0046 FFF7FEFF 		bl	chThdSleep
 105              	.LVL4:
 106              		.loc 1 69 0
 107 004a EAE7     		b	.L4
 108              	.L10:
 109              		.loc 1 70 0
 110 004c FFF7FEFF 		bl	mc_interface_unlock
 111              	.LVL5:
 112              		.loc 1 71 0
 113 0050 9BED000A 		vldr.32	s0, [fp]
 114 0054 FFF7FEFF 		bl	mc_interface_set_brake_current
ARM GAS  /tmp/ccSOQyUc.s 			page 3


 115              	.LVL6:
 116              		.loc 1 72 0
 117 0058 0123     		movs	r3, #1
 118 005a 2B70     		strb	r3, [r5]
 119 005c F2E7     		b	.L3
 120              	.L12:
 121 005e 00BF     		.align	2
 122              	.L11:
 123 0060 00000000 		.word	ch
 124 0064 00000000 		.word	.LC0
 125 0068 00000000 		.word	.LANCHOR0
 126 006c 00000000 		.word	.LANCHOR3
 127 0070 00000000 		.word	.LANCHOR1
 128 0074 00000000 		.word	.LANCHOR2
 129 0078 D34D6210 		.word	274877907
 130              		.cfi_endproc
 131              	.LFE225:
 132              		.size	timeout_thread, .-timeout_thread
 133              		.section	.text.timeout_init,"ax",%progbits
 134              		.align	1
 135              		.p2align 4,,15
 136              		.global	timeout_init
 137              		.syntax unified
 138              		.thumb
 139              		.thumb_func
 140              		.fpu fpv4-sp-d16
 141              		.type	timeout_init, %function
 142              	timeout_init:
 143              	.LFB219:
 144              		.loc 1 33 0
 145              		.cfi_startproc
 146              		@ args = 0, pretend = 0, frame = 0
 147              		@ frame_needed = 0, uses_anonymous_args = 0
 148 0000 70B5     		push	{r4, r5, r6, lr}
 149              		.cfi_def_cfa_offset 16
 150              		.cfi_offset 4, -16
 151              		.cfi_offset 5, -12
 152              		.cfi_offset 6, -8
 153              		.cfi_offset 14, -4
 154              		.loc 1 34 0
 155 0002 0B4C     		ldr	r4, .L15
 156              		.loc 1 35 0
 157 0004 0B4A     		ldr	r2, .L15+4
 158              		.loc 1 36 0
 159 0006 0C49     		ldr	r1, .L15+8
 160              		.loc 1 37 0
 161 0008 0C4D     		ldr	r5, .L15+12
 162              		.loc 1 39 0
 163 000a 0D4B     		ldr	r3, .L15+16
 164              		.loc 1 33 0
 165 000c 82B0     		sub	sp, sp, #8
 166              		.cfi_def_cfa_offset 24
 167              		.loc 1 34 0
 168 000e 4FF47A76 		mov	r6, #1000
 169 0012 2660     		str	r6, [r4]
 170              		.loc 1 36 0
 171 0014 0020     		movs	r0, #0
ARM GAS  /tmp/ccSOQyUc.s 			page 4


 172              		.loc 1 35 0
 173 0016 0024     		movs	r4, #0
 174              		.loc 1 39 0
 175 0018 0094     		str	r4, [sp]
 176              		.loc 1 35 0
 177 001a 1460     		str	r4, [r2]
 178              		.loc 1 36 0
 179 001c 0860     		str	r0, [r1]	@ float
 180              		.loc 1 39 0
 181 001e 4022     		movs	r2, #64
 182 0020 4FF46671 		mov	r1, #920
 183 0024 0748     		ldr	r0, .L15+20
 184              		.loc 1 37 0
 185 0026 2C70     		strb	r4, [r5]
 186              		.loc 1 39 0
 187 0028 FFF7FEFF 		bl	chThdCreateStatic
 188              	.LVL7:
 189              		.loc 1 40 0
 190 002c 02B0     		add	sp, sp, #8
 191              		.cfi_def_cfa_offset 16
 192              		@ sp needed
 193 002e 70BD     		pop	{r4, r5, r6, pc}
 194              	.L16:
 195              		.align	2
 196              	.L15:
 197 0030 00000000 		.word	.LANCHOR0
 198 0034 00000000 		.word	.LANCHOR1
 199 0038 00000000 		.word	.LANCHOR2
 200 003c 00000000 		.word	.LANCHOR3
 201 0040 00000000 		.word	timeout_thread
 202 0044 00000000 		.word	.LANCHOR4
 203              		.cfi_endproc
 204              	.LFE219:
 205              		.size	timeout_init, .-timeout_init
 206              		.section	.text.timeout_configure,"ax",%progbits
 207              		.align	1
 208              		.p2align 4,,15
 209              		.global	timeout_configure
 210              		.syntax unified
 211              		.thumb
 212              		.thumb_func
 213              		.fpu fpv4-sp-d16
 214              		.type	timeout_configure, %function
 215              	timeout_configure:
 216              	.LFB220:
 217              		.loc 1 42 0
 218              		.cfi_startproc
 219              		@ args = 0, pretend = 0, frame = 0
 220              		@ frame_needed = 0, uses_anonymous_args = 0
 221              		@ link register save eliminated.
 222              	.LVL8:
 223              		.loc 1 43 0
 224 0000 024A     		ldr	r2, .L18
 225              		.loc 1 44 0
 226 0002 034B     		ldr	r3, .L18+4
 227              		.loc 1 43 0
 228 0004 1060     		str	r0, [r2]
ARM GAS  /tmp/ccSOQyUc.s 			page 5


 229              		.loc 1 44 0
 230 0006 83ED000A 		vstr.32	s0, [r3]
 231              		.loc 1 45 0
 232 000a 7047     		bx	lr
 233              	.L19:
 234              		.align	2
 235              	.L18:
 236 000c 00000000 		.word	.LANCHOR0
 237 0010 00000000 		.word	.LANCHOR2
 238              		.cfi_endproc
 239              	.LFE220:
 240              		.size	timeout_configure, .-timeout_configure
 241              		.section	.text.timeout_reset,"ax",%progbits
 242              		.align	1
 243              		.p2align 4,,15
 244              		.global	timeout_reset
 245              		.syntax unified
 246              		.thumb
 247              		.thumb_func
 248              		.fpu fpv4-sp-d16
 249              		.type	timeout_reset, %function
 250              	timeout_reset:
 251              	.LFB221:
 252              		.loc 1 47 0
 253              		.cfi_startproc
 254              		@ args = 0, pretend = 0, frame = 0
 255              		@ frame_needed = 0, uses_anonymous_args = 0
 256              		@ link register save eliminated.
 257              	.LVL9:
 258              	.LBB57:
 259              	.LBB58:
 260              	.LBB59:
 261              	.LBB60:
 262              	.LBB61:
 263              	.LBB62:
 264              		.file 4 "ChibiOS_3.0.2/os/ext/CMSIS/include/core_cmFunc.h"
 265              		.loc 4 546 0
 266 0000 2023     		movs	r3, #32
 267              		.syntax unified
 268              	@ 546 "ChibiOS_3.0.2/os/ext/CMSIS/include/core_cmFunc.h" 1
 269 0002 83F31188 		MSR basepri, r3
 270              	@ 0 "" 2
 271              	.LVL10:
 272              		.thumb
 273              		.syntax unified
 274              	.LBE62:
 275              	.LBE61:
 276              	.LBE60:
 277              	.LBE59:
 278              	.LBB63:
 279              	.LBB64:
 280              		.loc 3 231 0
 281 0006 044A     		ldr	r2, .L21
 282              	.LBE64:
 283              	.LBE63:
 284              	.LBB66:
 285              	.LBB67:
ARM GAS  /tmp/ccSOQyUc.s 			page 6


 286              	.LBB68:
 287              	.LBB69:
 288              	.LBB70:
 289              		.loc 4 546 0
 290 0008 0023     		movs	r3, #0
 291              	.LBE70:
 292              	.LBE69:
 293              	.LBE68:
 294              	.LBE67:
 295              	.LBE66:
 296              	.LBB75:
 297              	.LBB65:
 298              		.loc 3 231 0
 299 000a 926A     		ldr	r2, [r2, #40]
 300              	.LVL11:
 301              	.LBE65:
 302              	.LBE75:
 303              	.LBB76:
 304              	.LBB74:
 305              	.LBB73:
 306              	.LBB72:
 307              	.LBB71:
 308              		.loc 4 546 0
 309              		.syntax unified
 310              	@ 546 "ChibiOS_3.0.2/os/ext/CMSIS/include/core_cmFunc.h" 1
 311 000c 83F31188 		MSR basepri, r3
 312              	@ 0 "" 2
 313              	.LVL12:
 314              		.thumb
 315              		.syntax unified
 316              	.LBE71:
 317              	.LBE72:
 318              	.LBE73:
 319              	.LBE74:
 320              	.LBE76:
 321              	.LBE58:
 322              	.LBE57:
 323              		.loc 1 48 0
 324 0010 024B     		ldr	r3, .L21+4
 325 0012 1A60     		str	r2, [r3]
 326              		.loc 1 49 0
 327 0014 7047     		bx	lr
 328              	.L22:
 329 0016 00BF     		.align	2
 330              	.L21:
 331 0018 00000000 		.word	ch
 332 001c 00000000 		.word	.LANCHOR1
 333              		.cfi_endproc
 334              	.LFE221:
 335              		.size	timeout_reset, .-timeout_reset
 336              		.section	.text.timeout_has_timeout,"ax",%progbits
 337              		.align	1
 338              		.p2align 4,,15
 339              		.global	timeout_has_timeout
 340              		.syntax unified
 341              		.thumb
 342              		.thumb_func
ARM GAS  /tmp/ccSOQyUc.s 			page 7


 343              		.fpu fpv4-sp-d16
 344              		.type	timeout_has_timeout, %function
 345              	timeout_has_timeout:
 346              	.LFB222:
 347              		.loc 1 51 0
 348              		.cfi_startproc
 349              		@ args = 0, pretend = 0, frame = 0
 350              		@ frame_needed = 0, uses_anonymous_args = 0
 351              		@ link register save eliminated.
 352              		.loc 1 52 0
 353 0000 014B     		ldr	r3, .L24
 354 0002 1878     		ldrb	r0, [r3]	@ zero_extendqisi2
 355              		.loc 1 53 0
 356 0004 7047     		bx	lr
 357              	.L25:
 358 0006 00BF     		.align	2
 359              	.L24:
 360 0008 00000000 		.word	.LANCHOR3
 361              		.cfi_endproc
 362              	.LFE222:
 363              		.size	timeout_has_timeout, .-timeout_has_timeout
 364              		.section	.text.timeout_get_timeout_msec,"ax",%progbits
 365              		.align	1
 366              		.p2align 4,,15
 367              		.global	timeout_get_timeout_msec
 368              		.syntax unified
 369              		.thumb
 370              		.thumb_func
 371              		.fpu fpv4-sp-d16
 372              		.type	timeout_get_timeout_msec, %function
 373              	timeout_get_timeout_msec:
 374              	.LFB223:
 375              		.loc 1 55 0
 376              		.cfi_startproc
 377              		@ args = 0, pretend = 0, frame = 0
 378              		@ frame_needed = 0, uses_anonymous_args = 0
 379              		@ link register save eliminated.
 380              		.loc 1 56 0
 381 0000 014B     		ldr	r3, .L27
 382 0002 1868     		ldr	r0, [r3]
 383              		.loc 1 57 0
 384 0004 7047     		bx	lr
 385              	.L28:
 386 0006 00BF     		.align	2
 387              	.L27:
 388 0008 00000000 		.word	.LANCHOR0
 389              		.cfi_endproc
 390              	.LFE223:
 391              		.size	timeout_get_timeout_msec, .-timeout_get_timeout_msec
 392              		.section	.text.timeout_get_brake_current,"ax",%progbits
 393              		.align	1
 394              		.p2align 4,,15
 395              		.global	timeout_get_brake_current
 396              		.syntax unified
 397              		.thumb
 398              		.thumb_func
 399              		.fpu fpv4-sp-d16
ARM GAS  /tmp/ccSOQyUc.s 			page 8


 400              		.type	timeout_get_brake_current, %function
 401              	timeout_get_brake_current:
 402              	.LFB224:
 403              		.loc 1 59 0
 404              		.cfi_startproc
 405              		@ args = 0, pretend = 0, frame = 0
 406              		@ frame_needed = 0, uses_anonymous_args = 0
 407              		@ link register save eliminated.
 408              		.loc 1 60 0
 409 0000 014B     		ldr	r3, .L30
 410 0002 93ED000A 		vldr.32	s0, [r3]
 411              		.loc 1 61 0
 412 0006 7047     		bx	lr
 413              	.L31:
 414              		.align	2
 415              	.L30:
 416 0008 00000000 		.word	.LANCHOR2
 417              		.cfi_endproc
 418              	.LFE224:
 419              		.size	timeout_get_brake_current, .-timeout_get_brake_current
 420              		.section	.bss.has_timeout,"aw",%nobits
 421              		.set	.LANCHOR3,. + 0
 422              		.type	has_timeout, %object
 423              		.size	has_timeout, 1
 424              	has_timeout:
 425 0000 00       		.space	1
 426              		.section	.bss.last_update_time,"aw",%nobits
 427              		.align	2
 428              		.set	.LANCHOR1,. + 0
 429              		.type	last_update_time, %object
 430              		.size	last_update_time, 4
 431              	last_update_time:
 432 0000 00000000 		.space	4
 433              		.section	.bss.timeout_brake_current,"aw",%nobits
 434              		.align	2
 435              		.set	.LANCHOR2,. + 0
 436              		.type	timeout_brake_current, %object
 437              		.size	timeout_brake_current, 4
 438              	timeout_brake_current:
 439 0000 00000000 		.space	4
 440              		.section	.bss.timeout_msec,"aw",%nobits
 441              		.align	2
 442              		.set	.LANCHOR0,. + 0
 443              		.type	timeout_msec, %object
 444              		.size	timeout_msec, 4
 445              	timeout_msec:
 446 0000 00000000 		.space	4
 447              		.section	.bss.timeout_thread_wa,"aw",%nobits
 448              		.align	3
 449              		.set	.LANCHOR4,. + 0
 450              		.type	timeout_thread_wa, %object
 451              		.size	timeout_thread_wa, 920
 452              	timeout_thread_wa:
 453 0000 00000000 		.space	920
 453      00000000 
 453      00000000 
 453      00000000 
ARM GAS  /tmp/ccSOQyUc.s 			page 9


 453      00000000 
 454              		.section	.rodata.timeout_thread.str1.4,"aMS",%progbits,1
 455              		.align	2
 456              	.LC0:
 457 0000 54696D65 		.ascii	"Timeout\000"
 457      6F757400 
 458              		.text
 459              	.Letext0:
 460              		.file 5 "/usr/lib/gcc/arm-none-eabi/7.3.1/include/stddef.h"
 461              		.file 6 "/usr/arm-none-eabi/include/machine/_default_types.h"
 462              		.file 7 "/usr/arm-none-eabi/include/sys/_stdint.h"
 463              		.file 8 "ChibiOS_3.0.2/os/rt/ports/ARMCMx/compilers/GCC/chtypes.h"
 464              		.file 9 "ChibiOS_3.0.2/os/rt/include/chsystypes.h"
 465              		.file 10 "ChibiOS_3.0.2/os/rt/include/chschd.h"
 466              		.file 11 "ChibiOS_3.0.2/os/ext/CMSIS/include/core_cm4.h"
 467              		.file 12 "ChibiOS_3.0.2/os/ext/CMSIS/ST/system_stm32f4xx.h"
 468              		.file 13 "ChibiOS_3.0.2/os/rt/ports/ARMCMx/chcore.h"
 469              		.file 14 "ChibiOS_3.0.2/os/rt/ports/ARMCMx/chcore_v7m.h"
 470              		.file 15 "ChibiOS_3.0.2/os/rt/include/chtm.h"
 471              		.file 16 "ChibiOS_3.0.2/os/rt/include/chsem.h"
 472              		.file 17 "ChibiOS_3.0.2/os/rt/include/chmtx.h"
 473              		.file 18 "conf_general.h"
 474              		.file 19 "mc_interface.h"
 475              		.file 20 "ChibiOS_3.0.2/os/rt/include/chsys.h"
 476              		.file 21 "ChibiOS_3.0.2/os/rt/include/chthreads.h"
 477              		.section	.debug_info,"",%progbits
 478              	.Ldebug_info0:
 479 0000 100C0000 		.4byte	0xc10
 480 0004 0400     		.2byte	0x4
 481 0006 00000000 		.4byte	.Ldebug_abbrev0
 482 000a 04       		.byte	0x4
 483 000b 01       		.uleb128 0x1
 484 000c 64000000 		.4byte	.LASF163
 485 0010 0C       		.byte	0xc
 486 0011 2B070000 		.4byte	.LASF164
 487 0015 B4060000 		.4byte	.LASF165
 488 0019 60000000 		.4byte	.Ldebug_ranges0+0x60
 489 001d 00000000 		.4byte	0
 490 0021 00000000 		.4byte	.Ldebug_line0
 491 0025 02       		.uleb128 0x2
 492 0026 04       		.byte	0x4
 493 0027 05       		.byte	0x5
 494 0028 696E7400 		.ascii	"int\000"
 495 002c 03       		.uleb128 0x3
 496 002d 25000000 		.4byte	0x25
 497 0031 04       		.uleb128 0x4
 498 0032 1A000000 		.4byte	.LASF2
 499 0036 05       		.byte	0x5
 500 0037 D8       		.byte	0xd8
 501 0038 3C000000 		.4byte	0x3c
 502 003c 05       		.uleb128 0x5
 503 003d 04       		.byte	0x4
 504 003e 07       		.byte	0x7
 505 003f 7F030000 		.4byte	.LASF0
 506 0043 05       		.uleb128 0x5
 507 0044 01       		.byte	0x1
 508 0045 06       		.byte	0x6
ARM GAS  /tmp/ccSOQyUc.s 			page 10


 509 0046 28020000 		.4byte	.LASF1
 510 004a 04       		.uleb128 0x4
 511 004b 31000000 		.4byte	.LASF3
 512 004f 06       		.byte	0x6
 513 0050 2B       		.byte	0x2b
 514 0051 55000000 		.4byte	0x55
 515 0055 05       		.uleb128 0x5
 516 0056 01       		.byte	0x1
 517 0057 08       		.byte	0x8
 518 0058 F5050000 		.4byte	.LASF4
 519 005c 05       		.uleb128 0x5
 520 005d 02       		.byte	0x2
 521 005e 05       		.byte	0x5
 522 005f 1C060000 		.4byte	.LASF5
 523 0063 04       		.uleb128 0x4
 524 0064 53070000 		.4byte	.LASF6
 525 0068 06       		.byte	0x6
 526 0069 39       		.byte	0x39
 527 006a 6E000000 		.4byte	0x6e
 528 006e 05       		.uleb128 0x5
 529 006f 02       		.byte	0x2
 530 0070 07       		.byte	0x7
 531 0071 04040000 		.4byte	.LASF7
 532 0075 04       		.uleb128 0x4
 533 0076 94040000 		.4byte	.LASF8
 534 007a 06       		.byte	0x6
 535 007b 4D       		.byte	0x4d
 536 007c 80000000 		.4byte	0x80
 537 0080 05       		.uleb128 0x5
 538 0081 04       		.byte	0x4
 539 0082 05       		.byte	0x5
 540 0083 9B020000 		.4byte	.LASF9
 541 0087 04       		.uleb128 0x4
 542 0088 A0070000 		.4byte	.LASF10
 543 008c 06       		.byte	0x6
 544 008d 4F       		.byte	0x4f
 545 008e 92000000 		.4byte	0x92
 546 0092 05       		.uleb128 0x5
 547 0093 04       		.byte	0x4
 548 0094 07       		.byte	0x7
 549 0095 35070000 		.4byte	.LASF11
 550 0099 05       		.uleb128 0x5
 551 009a 08       		.byte	0x8
 552 009b 05       		.byte	0x5
 553 009c 43030000 		.4byte	.LASF12
 554 00a0 04       		.uleb128 0x4
 555 00a1 7E050000 		.4byte	.LASF13
 556 00a5 06       		.byte	0x6
 557 00a6 69       		.byte	0x69
 558 00a7 AB000000 		.4byte	0xab
 559 00ab 05       		.uleb128 0x5
 560 00ac 08       		.byte	0x8
 561 00ad 07       		.byte	0x7
 562 00ae 92010000 		.4byte	.LASF14
 563 00b2 04       		.uleb128 0x4
 564 00b3 11080000 		.4byte	.LASF15
 565 00b7 07       		.byte	0x7
ARM GAS  /tmp/ccSOQyUc.s 			page 11


 566 00b8 18       		.byte	0x18
 567 00b9 4A000000 		.4byte	0x4a
 568 00bd 04       		.uleb128 0x4
 569 00be 94030000 		.4byte	.LASF16
 570 00c2 07       		.byte	0x7
 571 00c3 24       		.byte	0x24
 572 00c4 63000000 		.4byte	0x63
 573 00c8 03       		.uleb128 0x3
 574 00c9 BD000000 		.4byte	0xbd
 575 00cd 04       		.uleb128 0x4
 576 00ce ED050000 		.4byte	.LASF17
 577 00d2 07       		.byte	0x7
 578 00d3 2C       		.byte	0x2c
 579 00d4 75000000 		.4byte	0x75
 580 00d8 03       		.uleb128 0x3
 581 00d9 CD000000 		.4byte	0xcd
 582 00dd 04       		.uleb128 0x4
 583 00de F6060000 		.4byte	.LASF18
 584 00e2 07       		.byte	0x7
 585 00e3 30       		.byte	0x30
 586 00e4 87000000 		.4byte	0x87
 587 00e8 04       		.uleb128 0x4
 588 00e9 28000000 		.4byte	.LASF19
 589 00ed 07       		.byte	0x7
 590 00ee 3C       		.byte	0x3c
 591 00ef A0000000 		.4byte	0xa0
 592 00f3 04       		.uleb128 0x4
 593 00f4 E8040000 		.4byte	.LASF20
 594 00f8 08       		.byte	0x8
 595 00f9 45       		.byte	0x45
 596 00fa DD000000 		.4byte	0xdd
 597 00fe 04       		.uleb128 0x4
 598 00ff 61060000 		.4byte	.LASF21
 599 0103 08       		.byte	0x8
 600 0104 48       		.byte	0x48
 601 0105 B2000000 		.4byte	0xb2
 602 0109 04       		.uleb128 0x4
 603 010a B6020000 		.4byte	.LASF22
 604 010e 08       		.byte	0x8
 605 010f 49       		.byte	0x49
 606 0110 B2000000 		.4byte	0xb2
 607 0114 04       		.uleb128 0x4
 608 0115 8F050000 		.4byte	.LASF23
 609 0119 08       		.byte	0x8
 610 011a 4A       		.byte	0x4a
 611 011b B2000000 		.4byte	0xb2
 612 011f 04       		.uleb128 0x4
 613 0120 74020000 		.4byte	.LASF24
 614 0124 08       		.byte	0x8
 615 0125 4B       		.byte	0x4b
 616 0126 B2000000 		.4byte	0xb2
 617 012a 04       		.uleb128 0x4
 618 012b B9050000 		.4byte	.LASF25
 619 012f 08       		.byte	0x8
 620 0130 4C       		.byte	0x4c
 621 0131 DD000000 		.4byte	0xdd
 622 0135 04       		.uleb128 0x4
ARM GAS  /tmp/ccSOQyUc.s 			page 12


 623 0136 42040000 		.4byte	.LASF26
 624 013a 08       		.byte	0x8
 625 013b 4D       		.byte	0x4d
 626 013c CD000000 		.4byte	0xcd
 627 0140 04       		.uleb128 0x4
 628 0141 88040000 		.4byte	.LASF27
 629 0145 08       		.byte	0x8
 630 0146 4F       		.byte	0x4f
 631 0147 DD000000 		.4byte	0xdd
 632 014b 04       		.uleb128 0x4
 633 014c 66030000 		.4byte	.LASF28
 634 0150 08       		.byte	0x8
 635 0151 51       		.byte	0x51
 636 0152 CD000000 		.4byte	0xcd
 637 0156 04       		.uleb128 0x4
 638 0157 82070000 		.4byte	.LASF29
 639 015b 09       		.byte	0x9
 640 015c 33       		.byte	0x33
 641 015d DD000000 		.4byte	0xdd
 642 0161 03       		.uleb128 0x3
 643 0162 56010000 		.4byte	0x156
 644 0166 04       		.uleb128 0x4
 645 0167 5E070000 		.4byte	.LASF30
 646 016b 09       		.byte	0x9
 647 016c 3F       		.byte	0x3f
 648 016d 71010000 		.4byte	0x171
 649 0171 06       		.uleb128 0x6
 650 0172 38040000 		.4byte	.LASF52
 651 0176 48       		.byte	0x48
 652 0177 0A       		.byte	0xa
 653 0178 C2       		.byte	0xc2
 654 0179 76020000 		.4byte	0x276
 655 017d 07       		.uleb128 0x7
 656 017e 5A060000 		.4byte	.LASF31
 657 0182 0A       		.byte	0xa
 658 0183 C3       		.byte	0xc3
 659 0184 81020000 		.4byte	0x281
 660 0188 00       		.byte	0
 661 0189 07       		.uleb128 0x7
 662 018a B2050000 		.4byte	.LASF32
 663 018e 0A       		.byte	0xa
 664 018f C5       		.byte	0xc5
 665 0190 81020000 		.4byte	0x281
 666 0194 04       		.byte	0x4
 667 0195 07       		.uleb128 0x7
 668 0196 FF010000 		.4byte	.LASF33
 669 019a 0A       		.byte	0xa
 670 019b C7       		.byte	0xc7
 671 019c 2A010000 		.4byte	0x12a
 672 01a0 08       		.byte	0x8
 673 01a1 07       		.uleb128 0x7
 674 01a2 37050000 		.4byte	.LASF34
 675 01a6 0A       		.byte	0xa
 676 01a7 C8       		.byte	0xc8
 677 01a8 C1040000 		.4byte	0x4c1
 678 01ac 0C       		.byte	0xc
 679 01ad 07       		.uleb128 0x7
ARM GAS  /tmp/ccSOQyUc.s 			page 13


 680 01ae DF020000 		.4byte	.LASF35
 681 01b2 0A       		.byte	0xa
 682 01b3 CA       		.byte	0xca
 683 01b4 81020000 		.4byte	0x281
 684 01b8 10       		.byte	0x10
 685 01b9 07       		.uleb128 0x7
 686 01ba 29050000 		.4byte	.LASF36
 687 01be 0A       		.byte	0xa
 688 01bf CB       		.byte	0xcb
 689 01c0 81020000 		.4byte	0x281
 690 01c4 14       		.byte	0x14
 691 01c5 07       		.uleb128 0x7
 692 01c6 60080000 		.4byte	.LASF37
 693 01ca 0A       		.byte	0xa
 694 01cb D2       		.byte	0xd2
 695 01cc 06070000 		.4byte	0x706
 696 01d0 18       		.byte	0x18
 697 01d1 07       		.uleb128 0x7
 698 01d2 26060000 		.4byte	.LASF38
 699 01d6 0A       		.byte	0xa
 700 01d7 DD       		.byte	0xdd
 701 01d8 09010000 		.4byte	0x109
 702 01dc 1C       		.byte	0x1c
 703 01dd 07       		.uleb128 0x7
 704 01de 78060000 		.4byte	.LASF39
 705 01e2 0A       		.byte	0xa
 706 01e3 E1       		.byte	0xe1
 707 01e4 FE000000 		.4byte	0xfe
 708 01e8 1D       		.byte	0x1d
 709 01e9 07       		.uleb128 0x7
 710 01ea 04080000 		.4byte	.LASF40
 711 01ee 0A       		.byte	0xa
 712 01ef E6       		.byte	0xe6
 713 01f0 14010000 		.4byte	0x114
 714 01f4 1E       		.byte	0x1e
 715 01f5 07       		.uleb128 0x7
 716 01f6 2E060000 		.4byte	.LASF41
 717 01fa 0A       		.byte	0xa
 718 01fb EC       		.byte	0xec
 719 01fc 1F010000 		.4byte	0x11f
 720 0200 1F       		.byte	0x1f
 721 0201 07       		.uleb128 0x7
 722 0202 AD030000 		.4byte	.LASF42
 723 0206 0A       		.byte	0xa
 724 0207 F3       		.byte	0xf3
 725 0208 61010000 		.4byte	0x161
 726 020c 20       		.byte	0x20
 727 020d 08       		.uleb128 0x8
 728 020e 705F7500 		.ascii	"p_u\000"
 729 0212 0A       		.byte	0xa
 730 0213 3101     		.2byte	0x131
 731 0215 41060000 		.4byte	0x641
 732 0219 24       		.byte	0x24
 733 021a 09       		.uleb128 0x9
 734 021b DE040000 		.4byte	.LASF43
 735 021f 0A       		.byte	0xa
 736 0220 3601     		.2byte	0x136
ARM GAS  /tmp/ccSOQyUc.s 			page 14


 737 0222 87020000 		.4byte	0x287
 738 0226 28       		.byte	0x28
 739 0227 09       		.uleb128 0x9
 740 0228 C4030000 		.4byte	.LASF44
 741 022c 0A       		.byte	0xa
 742 022d 3C01     		.2byte	0x13c
 743 022f AB020000 		.4byte	0x2ab
 744 0233 2C       		.byte	0x2c
 745 0234 09       		.uleb128 0x9
 746 0235 D2070000 		.4byte	.LASF45
 747 0239 0A       		.byte	0xa
 748 023a 4001     		.2byte	0x140
 749 023c 35010000 		.4byte	0x135
 750 0240 34       		.byte	0x34
 751 0241 09       		.uleb128 0x9
 752 0242 E0060000 		.4byte	.LASF46
 753 0246 0A       		.byte	0xa
 754 0247 4601     		.2byte	0x146
 755 0249 40010000 		.4byte	0x140
 756 024d 38       		.byte	0x38
 757 024e 09       		.uleb128 0x9
 758 024f 12060000 		.4byte	.LASF47
 759 0253 0A       		.byte	0xa
 760 0254 4D01     		.2byte	0x14d
 761 0256 00070000 		.4byte	0x700
 762 025a 3C       		.byte	0x3c
 763 025b 09       		.uleb128 0x9
 764 025c 8C070000 		.4byte	.LASF48
 765 0260 0A       		.byte	0xa
 766 0261 5101     		.2byte	0x151
 767 0263 2A010000 		.4byte	0x12a
 768 0267 40       		.byte	0x40
 769 0268 09       		.uleb128 0x9
 770 0269 51020000 		.4byte	.LASF49
 771 026d 0A       		.byte	0xa
 772 026e 5801     		.2byte	0x158
 773 0270 5E030000 		.4byte	0x35e
 774 0274 44       		.byte	0x44
 775 0275 00       		.byte	0
 776 0276 04       		.uleb128 0x4
 777 0277 38080000 		.4byte	.LASF50
 778 027b 09       		.byte	0x9
 779 027c 44       		.byte	0x44
 780 027d 81020000 		.4byte	0x281
 781 0281 0A       		.uleb128 0xa
 782 0282 04       		.byte	0x4
 783 0283 66010000 		.4byte	0x166
 784 0287 04       		.uleb128 0x4
 785 0288 BB040000 		.4byte	.LASF51
 786 028c 09       		.byte	0x9
 787 028d 49       		.byte	0x49
 788 028e 92020000 		.4byte	0x292
 789 0292 06       		.uleb128 0x6
 790 0293 13070000 		.4byte	.LASF53
 791 0297 04       		.byte	0x4
 792 0298 0A       		.byte	0xa
 793 0299 B0       		.byte	0xb0
ARM GAS  /tmp/ccSOQyUc.s 			page 15


 794 029a AB020000 		.4byte	0x2ab
 795 029e 07       		.uleb128 0x7
 796 029f 5A060000 		.4byte	.LASF31
 797 02a3 0A       		.byte	0xa
 798 02a4 B1       		.byte	0xb1
 799 02a5 81020000 		.4byte	0x281
 800 02a9 00       		.byte	0
 801 02aa 00       		.byte	0
 802 02ab 04       		.uleb128 0x4
 803 02ac 93060000 		.4byte	.LASF54
 804 02b0 09       		.byte	0x9
 805 02b1 50       		.byte	0x50
 806 02b2 B6020000 		.4byte	0x2b6
 807 02b6 06       		.uleb128 0x6
 808 02b7 EE010000 		.4byte	.LASF55
 809 02bb 08       		.byte	0x8
 810 02bc 0A       		.byte	0xa
 811 02bd B7       		.byte	0xb7
 812 02be DB020000 		.4byte	0x2db
 813 02c2 07       		.uleb128 0x7
 814 02c3 5A060000 		.4byte	.LASF31
 815 02c7 0A       		.byte	0xa
 816 02c8 B8       		.byte	0xb8
 817 02c9 81020000 		.4byte	0x281
 818 02cd 00       		.byte	0
 819 02ce 07       		.uleb128 0x7
 820 02cf B2050000 		.4byte	.LASF32
 821 02d3 0A       		.byte	0xa
 822 02d4 B9       		.byte	0xb9
 823 02d5 81020000 		.4byte	0x281
 824 02d9 04       		.byte	0x4
 825 02da 00       		.byte	0
 826 02db 04       		.uleb128 0x4
 827 02dc 0D000000 		.4byte	.LASF56
 828 02e0 09       		.byte	0x9
 829 02e1 57       		.byte	0x57
 830 02e2 E6020000 		.4byte	0x2e6
 831 02e6 0B       		.uleb128 0xb
 832 02e7 7A040000 		.4byte	.LASF57
 833 02eb 1C       		.byte	0x1c
 834 02ec 0A       		.byte	0xa
 835 02ed 9001     		.2byte	0x190
 836 02ef 42030000 		.4byte	0x342
 837 02f3 09       		.uleb128 0x9
 838 02f4 0B070000 		.4byte	.LASF58
 839 02f8 0A       		.byte	0xa
 840 02f9 9101     		.2byte	0x191
 841 02fb AB020000 		.4byte	0x2ab
 842 02ff 00       		.byte	0
 843 0300 09       		.uleb128 0x9
 844 0301 4C060000 		.4byte	.LASF59
 845 0305 0A       		.byte	0xa
 846 0306 9201     		.2byte	0x192
 847 0308 2A010000 		.4byte	0x12a
 848 030c 08       		.byte	0x8
 849 030d 09       		.uleb128 0x9
 850 030e 31050000 		.4byte	.LASF60
ARM GAS  /tmp/ccSOQyUc.s 			page 16


 851 0312 0A       		.byte	0xa
 852 0313 9401     		.2byte	0x194
 853 0315 C1040000 		.4byte	0x4c1
 854 0319 0C       		.byte	0xc
 855 031a 09       		.uleb128 0x9
 856 031b EF020000 		.4byte	.LASF61
 857 031f 0A       		.byte	0xa
 858 0320 9701     		.2byte	0x197
 859 0322 81020000 		.4byte	0x281
 860 0326 10       		.byte	0x10
 861 0327 09       		.uleb128 0x9
 862 0328 6A050000 		.4byte	.LASF62
 863 032c 0A       		.byte	0xa
 864 032d 9801     		.2byte	0x198
 865 032f 81020000 		.4byte	0x281
 866 0333 14       		.byte	0x14
 867 0334 09       		.uleb128 0x9
 868 0335 60050000 		.4byte	.LASF63
 869 0339 0A       		.byte	0xa
 870 033a 9B01     		.2byte	0x19b
 871 033c 81020000 		.4byte	0x281
 872 0340 18       		.byte	0x18
 873 0341 00       		.byte	0
 874 0342 04       		.uleb128 0x4
 875 0343 97070000 		.4byte	.LASF64
 876 0347 09       		.byte	0x9
 877 0348 5C       		.byte	0x5c
 878 0349 4D030000 		.4byte	0x34d
 879 034d 0A       		.uleb128 0xa
 880 034e 04       		.byte	0x4
 881 034f 53030000 		.4byte	0x353
 882 0353 0C       		.uleb128 0xc
 883 0354 5E030000 		.4byte	0x35e
 884 0358 0D       		.uleb128 0xd
 885 0359 5E030000 		.4byte	0x35e
 886 035d 00       		.byte	0
 887 035e 0E       		.uleb128 0xe
 888 035f 04       		.byte	0x4
 889 0360 04       		.uleb128 0x4
 890 0361 A2050000 		.4byte	.LASF65
 891 0365 09       		.byte	0x9
 892 0366 61       		.byte	0x61
 893 0367 6B030000 		.4byte	0x36b
 894 036b 0B       		.uleb128 0xb
 895 036c A3060000 		.4byte	.LASF66
 896 0370 14       		.byte	0x14
 897 0371 0A       		.byte	0xa
 898 0372 6B01     		.2byte	0x16b
 899 0374 BA030000 		.4byte	0x3ba
 900 0378 09       		.uleb128 0x9
 901 0379 8C030000 		.4byte	.LASF67
 902 037d 0A       		.byte	0xa
 903 037e 6C01     		.2byte	0x16c
 904 0380 1D070000 		.4byte	0x71d
 905 0384 00       		.byte	0
 906 0385 09       		.uleb128 0x9
 907 0386 3B030000 		.4byte	.LASF68
ARM GAS  /tmp/ccSOQyUc.s 			page 17


 908 038a 0A       		.byte	0xa
 909 038b 6D01     		.2byte	0x16d
 910 038d 1D070000 		.4byte	0x71d
 911 0391 04       		.byte	0x4
 912 0392 09       		.uleb128 0x9
 913 0393 BB030000 		.4byte	.LASF69
 914 0397 0A       		.byte	0xa
 915 0398 6E01     		.2byte	0x16e
 916 039a 56010000 		.4byte	0x156
 917 039e 08       		.byte	0x8
 918 039f 09       		.uleb128 0x9
 919 03a0 B8080000 		.4byte	.LASF70
 920 03a4 0A       		.byte	0xa
 921 03a5 6F01     		.2byte	0x16f
 922 03a7 42030000 		.4byte	0x342
 923 03ab 0C       		.byte	0xc
 924 03ac 09       		.uleb128 0x9
 925 03ad E9070000 		.4byte	.LASF71
 926 03b1 0A       		.byte	0xa
 927 03b2 7101     		.2byte	0x171
 928 03b4 5E030000 		.4byte	0x35e
 929 03b8 10       		.byte	0x10
 930 03b9 00       		.byte	0
 931 03ba 04       		.uleb128 0x4
 932 03bb CB010000 		.4byte	.LASF72
 933 03bf 09       		.byte	0x9
 934 03c0 66       		.byte	0x66
 935 03c1 C5030000 		.4byte	0x3c5
 936 03c5 0B       		.uleb128 0xb
 937 03c6 F0040000 		.4byte	.LASF73
 938 03ca 10       		.byte	0x10
 939 03cb 0A       		.byte	0xa
 940 03cc 7B01     		.2byte	0x17b
 941 03ce 07040000 		.4byte	0x407
 942 03d2 09       		.uleb128 0x9
 943 03d3 8C030000 		.4byte	.LASF67
 944 03d7 0A       		.byte	0xa
 945 03d8 7C01     		.2byte	0x17c
 946 03da 1D070000 		.4byte	0x71d
 947 03de 00       		.byte	0
 948 03df 09       		.uleb128 0x9
 949 03e0 3B030000 		.4byte	.LASF68
 950 03e4 0A       		.byte	0xa
 951 03e5 7E01     		.2byte	0x17e
 952 03e7 1D070000 		.4byte	0x71d
 953 03eb 04       		.byte	0x4
 954 03ec 09       		.uleb128 0x9
 955 03ed BB030000 		.4byte	.LASF69
 956 03f1 0A       		.byte	0xa
 957 03f2 8001     		.2byte	0x180
 958 03f4 56010000 		.4byte	0x156
 959 03f8 08       		.byte	0x8
 960 03f9 09       		.uleb128 0x9
 961 03fa 67080000 		.4byte	.LASF74
 962 03fe 0A       		.byte	0xa
 963 03ff 8201     		.2byte	0x182
 964 0401 61010000 		.4byte	0x161
ARM GAS  /tmp/ccSOQyUc.s 			page 18


 965 0405 0C       		.byte	0xc
 966 0406 00       		.byte	0
 967 0407 04       		.uleb128 0x4
 968 0408 47000000 		.4byte	.LASF75
 969 040c 09       		.byte	0x9
 970 040d 6B       		.byte	0x6b
 971 040e 12040000 		.4byte	0x412
 972 0412 0B       		.uleb128 0xb
 973 0413 D7050000 		.4byte	.LASF76
 974 0417 04       		.byte	0x4
 975 0418 0A       		.byte	0xa
 976 0419 A201     		.2byte	0x1a2
 977 041b 2D040000 		.4byte	0x42d
 978 041f 09       		.uleb128 0x9
 979 0420 B9070000 		.4byte	.LASF77
 980 0424 0A       		.byte	0xa
 981 0425 AA01     		.2byte	0x1aa
 982 0427 0C070000 		.4byte	0x70c
 983 042b 00       		.byte	0
 984 042c 00       		.byte	0
 985 042d 04       		.uleb128 0x4
 986 042e 5A040000 		.4byte	.LASF78
 987 0432 09       		.byte	0x9
 988 0433 70       		.byte	0x70
 989 0434 38040000 		.4byte	0x438
 990 0438 0F       		.uleb128 0xf
 991 0439 91020000 		.4byte	.LASF79
 992 043d 5802     		.2byte	0x258
 993 043f 0A       		.byte	0xa
 994 0440 C201     		.2byte	0x1c2
 995 0442 94040000 		.4byte	0x494
 996 0446 09       		.uleb128 0x9
 997 0447 0B080000 		.4byte	.LASF80
 998 044b 0A       		.byte	0xa
 999 044c C601     		.2byte	0x1c6
 1000 044e DB020000 		.4byte	0x2db
 1001 0452 00       		.byte	0
 1002 0453 09       		.uleb128 0x9
 1003 0454 61020000 		.4byte	.LASF81
 1004 0458 0A       		.byte	0xa
 1005 0459 CA01     		.2byte	0x1ca
 1006 045b BA030000 		.4byte	0x3ba
 1007 045f 1C       		.byte	0x1c
 1008 0460 08       		.uleb128 0x8
 1009 0461 64626700 		.ascii	"dbg\000"
 1010 0465 0A       		.byte	0xa
 1011 0466 CE01     		.2byte	0x1ce
 1012 0468 07040000 		.4byte	0x407
 1013 046c 2C       		.byte	0x2c
 1014 046d 09       		.uleb128 0x9
 1015 046e C0010000 		.4byte	.LASF82
 1016 0472 0A       		.byte	0xa
 1017 0473 D201     		.2byte	0x1d2
 1018 0475 66010000 		.4byte	0x166
 1019 0479 30       		.byte	0x30
 1020 047a 08       		.uleb128 0x8
 1021 047b 746D00   		.ascii	"tm\000"
ARM GAS  /tmp/ccSOQyUc.s 			page 19


 1022 047e 0A       		.byte	0xa
 1023 047f D701     		.2byte	0x1d7
 1024 0481 36060000 		.4byte	0x636
 1025 0485 78       		.byte	0x78
 1026 0486 09       		.uleb128 0x9
 1027 0487 57030000 		.4byte	.LASF83
 1028 048b 0A       		.byte	0xa
 1029 048c E301     		.2byte	0x1e3
 1030 048e 23070000 		.4byte	0x723
 1031 0492 80       		.byte	0x80
 1032 0493 00       		.byte	0
 1033 0494 10       		.uleb128 0x10
 1034 0495 E1010000 		.4byte	.LASF84
 1035 0499 0B       		.byte	0xb
 1036 049a A706     		.2byte	0x6a7
 1037 049c D8000000 		.4byte	0xd8
 1038 04a0 11       		.uleb128 0x11
 1039 04a1 9D030000 		.4byte	.LASF85
 1040 04a5 0C       		.byte	0xc
 1041 04a6 4C       		.byte	0x4c
 1042 04a7 DD000000 		.4byte	0xdd
 1043 04ab 04       		.uleb128 0x4
 1044 04ac F7020000 		.4byte	.LASF86
 1045 04b0 0D       		.byte	0xd
 1046 04b1 65       		.byte	0x65
 1047 04b2 5E030000 		.4byte	0x35e
 1048 04b6 04       		.uleb128 0x4
 1049 04b7 9E040000 		.4byte	.LASF87
 1050 04bb 0D       		.byte	0xd
 1051 04bc 6D       		.byte	0x6d
 1052 04bd E8000000 		.4byte	0xe8
 1053 04c1 06       		.uleb128 0x6
 1054 04c2 CA070000 		.4byte	.LASF88
 1055 04c6 04       		.byte	0x4
 1056 04c7 0D       		.byte	0xd
 1057 04c8 89       		.byte	0x89
 1058 04c9 DA040000 		.4byte	0x4da
 1059 04cd 12       		.uleb128 0x12
 1060 04ce 72313300 		.ascii	"r13\000"
 1061 04d2 0D       		.byte	0xd
 1062 04d3 8A       		.byte	0x8a
 1063 04d4 1B060000 		.4byte	0x61b
 1064 04d8 00       		.byte	0
 1065 04d9 00       		.byte	0
 1066 04da 06       		.uleb128 0x6
 1067 04db 3B000000 		.4byte	.LASF89
 1068 04df 64       		.byte	0x64
 1069 04e0 0E       		.byte	0xe
 1070 04e1 F4       		.byte	0xf4
 1071 04e2 1B060000 		.4byte	0x61b
 1072 04e6 12       		.uleb128 0x12
 1073 04e7 73313600 		.ascii	"s16\000"
 1074 04eb 0E       		.byte	0xe
 1075 04ec F6       		.byte	0xf6
 1076 04ed AB040000 		.4byte	0x4ab
 1077 04f1 00       		.byte	0
 1078 04f2 12       		.uleb128 0x12
ARM GAS  /tmp/ccSOQyUc.s 			page 20


 1079 04f3 73313700 		.ascii	"s17\000"
 1080 04f7 0E       		.byte	0xe
 1081 04f8 F7       		.byte	0xf7
 1082 04f9 AB040000 		.4byte	0x4ab
 1083 04fd 04       		.byte	0x4
 1084 04fe 12       		.uleb128 0x12
 1085 04ff 73313800 		.ascii	"s18\000"
 1086 0503 0E       		.byte	0xe
 1087 0504 F8       		.byte	0xf8
 1088 0505 AB040000 		.4byte	0x4ab
 1089 0509 08       		.byte	0x8
 1090 050a 12       		.uleb128 0x12
 1091 050b 73313900 		.ascii	"s19\000"
 1092 050f 0E       		.byte	0xe
 1093 0510 F9       		.byte	0xf9
 1094 0511 AB040000 		.4byte	0x4ab
 1095 0515 0C       		.byte	0xc
 1096 0516 12       		.uleb128 0x12
 1097 0517 73323000 		.ascii	"s20\000"
 1098 051b 0E       		.byte	0xe
 1099 051c FA       		.byte	0xfa
 1100 051d AB040000 		.4byte	0x4ab
 1101 0521 10       		.byte	0x10
 1102 0522 12       		.uleb128 0x12
 1103 0523 73323100 		.ascii	"s21\000"
 1104 0527 0E       		.byte	0xe
 1105 0528 FB       		.byte	0xfb
 1106 0529 AB040000 		.4byte	0x4ab
 1107 052d 14       		.byte	0x14
 1108 052e 12       		.uleb128 0x12
 1109 052f 73323200 		.ascii	"s22\000"
 1110 0533 0E       		.byte	0xe
 1111 0534 FC       		.byte	0xfc
 1112 0535 AB040000 		.4byte	0x4ab
 1113 0539 18       		.byte	0x18
 1114 053a 12       		.uleb128 0x12
 1115 053b 73323300 		.ascii	"s23\000"
 1116 053f 0E       		.byte	0xe
 1117 0540 FD       		.byte	0xfd
 1118 0541 AB040000 		.4byte	0x4ab
 1119 0545 1C       		.byte	0x1c
 1120 0546 12       		.uleb128 0x12
 1121 0547 73323400 		.ascii	"s24\000"
 1122 054b 0E       		.byte	0xe
 1123 054c FE       		.byte	0xfe
 1124 054d AB040000 		.4byte	0x4ab
 1125 0551 20       		.byte	0x20
 1126 0552 12       		.uleb128 0x12
 1127 0553 73323500 		.ascii	"s25\000"
 1128 0557 0E       		.byte	0xe
 1129 0558 FF       		.byte	0xff
 1130 0559 AB040000 		.4byte	0x4ab
 1131 055d 24       		.byte	0x24
 1132 055e 08       		.uleb128 0x8
 1133 055f 73323600 		.ascii	"s26\000"
 1134 0563 0E       		.byte	0xe
 1135 0564 0001     		.2byte	0x100
ARM GAS  /tmp/ccSOQyUc.s 			page 21


 1136 0566 AB040000 		.4byte	0x4ab
 1137 056a 28       		.byte	0x28
 1138 056b 08       		.uleb128 0x8
 1139 056c 73323700 		.ascii	"s27\000"
 1140 0570 0E       		.byte	0xe
 1141 0571 0101     		.2byte	0x101
 1142 0573 AB040000 		.4byte	0x4ab
 1143 0577 2C       		.byte	0x2c
 1144 0578 08       		.uleb128 0x8
 1145 0579 73323800 		.ascii	"s28\000"
 1146 057d 0E       		.byte	0xe
 1147 057e 0201     		.2byte	0x102
 1148 0580 AB040000 		.4byte	0x4ab
 1149 0584 30       		.byte	0x30
 1150 0585 08       		.uleb128 0x8
 1151 0586 73323900 		.ascii	"s29\000"
 1152 058a 0E       		.byte	0xe
 1153 058b 0301     		.2byte	0x103
 1154 058d AB040000 		.4byte	0x4ab
 1155 0591 34       		.byte	0x34
 1156 0592 08       		.uleb128 0x8
 1157 0593 73333000 		.ascii	"s30\000"
 1158 0597 0E       		.byte	0xe
 1159 0598 0401     		.2byte	0x104
 1160 059a AB040000 		.4byte	0x4ab
 1161 059e 38       		.byte	0x38
 1162 059f 08       		.uleb128 0x8
 1163 05a0 73333100 		.ascii	"s31\000"
 1164 05a4 0E       		.byte	0xe
 1165 05a5 0501     		.2byte	0x105
 1166 05a7 AB040000 		.4byte	0x4ab
 1167 05ab 3C       		.byte	0x3c
 1168 05ac 08       		.uleb128 0x8
 1169 05ad 723400   		.ascii	"r4\000"
 1170 05b0 0E       		.byte	0xe
 1171 05b1 0701     		.2byte	0x107
 1172 05b3 AB040000 		.4byte	0x4ab
 1173 05b7 40       		.byte	0x40
 1174 05b8 08       		.uleb128 0x8
 1175 05b9 723500   		.ascii	"r5\000"
 1176 05bc 0E       		.byte	0xe
 1177 05bd 0801     		.2byte	0x108
 1178 05bf AB040000 		.4byte	0x4ab
 1179 05c3 44       		.byte	0x44
 1180 05c4 08       		.uleb128 0x8
 1181 05c5 723600   		.ascii	"r6\000"
 1182 05c8 0E       		.byte	0xe
 1183 05c9 0901     		.2byte	0x109
 1184 05cb AB040000 		.4byte	0x4ab
 1185 05cf 48       		.byte	0x48
 1186 05d0 08       		.uleb128 0x8
 1187 05d1 723700   		.ascii	"r7\000"
 1188 05d4 0E       		.byte	0xe
 1189 05d5 0A01     		.2byte	0x10a
 1190 05d7 AB040000 		.4byte	0x4ab
 1191 05db 4C       		.byte	0x4c
 1192 05dc 08       		.uleb128 0x8
ARM GAS  /tmp/ccSOQyUc.s 			page 22


 1193 05dd 723800   		.ascii	"r8\000"
 1194 05e0 0E       		.byte	0xe
 1195 05e1 0B01     		.2byte	0x10b
 1196 05e3 AB040000 		.4byte	0x4ab
 1197 05e7 50       		.byte	0x50
 1198 05e8 08       		.uleb128 0x8
 1199 05e9 723900   		.ascii	"r9\000"
 1200 05ec 0E       		.byte	0xe
 1201 05ed 0C01     		.2byte	0x10c
 1202 05ef AB040000 		.4byte	0x4ab
 1203 05f3 54       		.byte	0x54
 1204 05f4 08       		.uleb128 0x8
 1205 05f5 72313000 		.ascii	"r10\000"
 1206 05f9 0E       		.byte	0xe
 1207 05fa 0D01     		.2byte	0x10d
 1208 05fc AB040000 		.4byte	0x4ab
 1209 0600 58       		.byte	0x58
 1210 0601 08       		.uleb128 0x8
 1211 0602 72313100 		.ascii	"r11\000"
 1212 0606 0E       		.byte	0xe
 1213 0607 0E01     		.2byte	0x10e
 1214 0609 AB040000 		.4byte	0x4ab
 1215 060d 5C       		.byte	0x5c
 1216 060e 08       		.uleb128 0x8
 1217 060f 6C7200   		.ascii	"lr\000"
 1218 0612 0E       		.byte	0xe
 1219 0613 0F01     		.2byte	0x10f
 1220 0615 AB040000 		.4byte	0x4ab
 1221 0619 60       		.byte	0x60
 1222 061a 00       		.byte	0
 1223 061b 0A       		.uleb128 0xa
 1224 061c 04       		.byte	0x4
 1225 061d DA040000 		.4byte	0x4da
 1226 0621 13       		.uleb128 0x13
 1227 0622 04       		.byte	0x4
 1228 0623 0F       		.byte	0xf
 1229 0624 38       		.byte	0x38
 1230 0625 36060000 		.4byte	0x636
 1231 0629 07       		.uleb128 0x7
 1232 062a C3070000 		.4byte	.LASF90
 1233 062e 0F       		.byte	0xf
 1234 062f 3C       		.byte	0x3c
 1235 0630 F3000000 		.4byte	0xf3
 1236 0634 00       		.byte	0
 1237 0635 00       		.byte	0
 1238 0636 04       		.uleb128 0x4
 1239 0637 3D050000 		.4byte	.LASF91
 1240 063b 0F       		.byte	0xf
 1241 063c 3D       		.byte	0x3d
 1242 063d 21060000 		.4byte	0x621
 1243 0641 14       		.uleb128 0x14
 1244 0642 04       		.byte	0x4
 1245 0643 0A       		.byte	0xa
 1246 0644 FA       		.byte	0xfa
 1247 0645 9E060000 		.4byte	0x69e
 1248 0649 15       		.uleb128 0x15
 1249 064a 21000000 		.4byte	.LASF92
ARM GAS  /tmp/ccSOQyUc.s 			page 23


 1250 064e 0A       		.byte	0xa
 1251 064f 0101     		.2byte	0x101
 1252 0651 35010000 		.4byte	0x135
 1253 0655 15       		.uleb128 0x15
 1254 0656 B7010000 		.4byte	.LASF93
 1255 065a 0A       		.byte	0xa
 1256 065b 0801     		.2byte	0x108
 1257 065d 35010000 		.4byte	0x135
 1258 0661 15       		.uleb128 0x15
 1259 0662 4B080000 		.4byte	.LASF94
 1260 0666 0A       		.byte	0xa
 1261 0667 0F01     		.2byte	0x10f
 1262 0669 5E030000 		.4byte	0x35e
 1263 066d 15       		.uleb128 0x15
 1264 066e 8B020000 		.4byte	.LASF95
 1265 0672 0A       		.byte	0xa
 1266 0673 1601     		.2byte	0x116
 1267 0675 9E060000 		.4byte	0x69e
 1268 0679 15       		.uleb128 0x15
 1269 067a B4030000 		.4byte	.LASF96
 1270 067e 0A       		.byte	0xa
 1271 067f 1E01     		.2byte	0x11e
 1272 0681 C9060000 		.4byte	0x6c9
 1273 0685 15       		.uleb128 0x15
 1274 0686 4C070000 		.4byte	.LASF97
 1275 068a 0A       		.byte	0xa
 1276 068b 2701     		.2byte	0x127
 1277 068d 00070000 		.4byte	0x700
 1278 0691 15       		.uleb128 0x15
 1279 0692 53060000 		.4byte	.LASF98
 1280 0696 0A       		.byte	0xa
 1281 0697 2F01     		.2byte	0x12f
 1282 0699 40010000 		.4byte	0x140
 1283 069d 00       		.byte	0
 1284 069e 0A       		.uleb128 0xa
 1285 069f 04       		.byte	0x4
 1286 06a0 76020000 		.4byte	0x276
 1287 06a4 06       		.uleb128 0x6
 1288 06a5 D3060000 		.4byte	.LASF99
 1289 06a9 0C       		.byte	0xc
 1290 06aa 10       		.byte	0x10
 1291 06ab 34       		.byte	0x34
 1292 06ac C9060000 		.4byte	0x6c9
 1293 06b0 07       		.uleb128 0x7
 1294 06b1 E7020000 		.4byte	.LASF100
 1295 06b5 10       		.byte	0x10
 1296 06b6 35       		.byte	0x35
 1297 06b7 AB020000 		.4byte	0x2ab
 1298 06bb 00       		.byte	0
 1299 06bc 07       		.uleb128 0x7
 1300 06bd E5030000 		.4byte	.LASF101
 1301 06c1 10       		.byte	0x10
 1302 06c2 37       		.byte	0x37
 1303 06c3 4B010000 		.4byte	0x14b
 1304 06c7 08       		.byte	0x8
 1305 06c8 00       		.byte	0
 1306 06c9 0A       		.uleb128 0xa
ARM GAS  /tmp/ccSOQyUc.s 			page 24


 1307 06ca 04       		.byte	0x4
 1308 06cb A4060000 		.4byte	0x6a4
 1309 06cf 06       		.uleb128 0x6
 1310 06d0 FB070000 		.4byte	.LASF102
 1311 06d4 10       		.byte	0x10
 1312 06d5 11       		.byte	0x11
 1313 06d6 39       		.byte	0x39
 1314 06d7 00070000 		.4byte	0x700
 1315 06db 07       		.uleb128 0x7
 1316 06dc 59020000 		.4byte	.LASF103
 1317 06e0 11       		.byte	0x11
 1318 06e1 3A       		.byte	0x3a
 1319 06e2 AB020000 		.4byte	0x2ab
 1320 06e6 00       		.byte	0
 1321 06e7 07       		.uleb128 0x7
 1322 06e8 A2080000 		.4byte	.LASF104
 1323 06ec 11       		.byte	0x11
 1324 06ed 3C       		.byte	0x3c
 1325 06ee 81020000 		.4byte	0x281
 1326 06f2 08       		.byte	0x8
 1327 06f3 07       		.uleb128 0x7
 1328 06f4 7B070000 		.4byte	.LASF105
 1329 06f8 11       		.byte	0x11
 1330 06f9 3E       		.byte	0x3e
 1331 06fa 55080000 		.4byte	0x855
 1332 06fe 0C       		.byte	0xc
 1333 06ff 00       		.byte	0
 1334 0700 0A       		.uleb128 0xa
 1335 0701 04       		.byte	0x4
 1336 0702 CF060000 		.4byte	0x6cf
 1337 0706 0A       		.uleb128 0xa
 1338 0707 04       		.byte	0x4
 1339 0708 18070000 		.4byte	0x718
 1340 070c 03       		.uleb128 0x3
 1341 070d 06070000 		.4byte	0x706
 1342 0711 05       		.uleb128 0x5
 1343 0712 01       		.byte	0x1
 1344 0713 08       		.byte	0x8
 1345 0714 47070000 		.4byte	.LASF106
 1346 0718 16       		.uleb128 0x16
 1347 0719 11070000 		.4byte	0x711
 1348 071d 0A       		.uleb128 0xa
 1349 071e 04       		.byte	0x4
 1350 071f 60030000 		.4byte	0x360
 1351 0723 17       		.uleb128 0x17
 1352 0724 B6040000 		.4byte	0x4b6
 1353 0728 33070000 		.4byte	0x733
 1354 072c 18       		.uleb128 0x18
 1355 072d 3C000000 		.4byte	0x3c
 1356 0731 3A       		.byte	0x3a
 1357 0732 00       		.byte	0
 1358 0733 19       		.uleb128 0x19
 1359 0734 636800   		.ascii	"ch\000"
 1360 0737 0A       		.byte	0xa
 1361 0738 0902     		.2byte	0x209
 1362 073a 2D040000 		.4byte	0x42d
 1363 073e 13       		.uleb128 0x13
ARM GAS  /tmp/ccSOQyUc.s 			page 25


 1364 073f 16       		.byte	0x16
 1365 0740 02       		.byte	0x2
 1366 0741 34       		.byte	0x34
 1367 0742 1F080000 		.4byte	0x81f
 1368 0746 07       		.uleb128 0x7
 1369 0747 AA080000 		.4byte	.LASF107
 1370 074b 02       		.byte	0x2
 1371 074c 35       		.byte	0x35
 1372 074d 1F080000 		.4byte	0x81f
 1373 0751 00       		.byte	0
 1374 0752 07       		.uleb128 0x7
 1375 0753 CA040000 		.4byte	.LASF108
 1376 0757 02       		.byte	0x2
 1377 0758 36       		.byte	0x36
 1378 0759 B2000000 		.4byte	0xb2
 1379 075d 04       		.byte	0x4
 1380 075e 07       		.uleb128 0x7
 1381 075f 23070000 		.4byte	.LASF109
 1382 0763 02       		.byte	0x2
 1383 0764 37       		.byte	0x37
 1384 0765 B2000000 		.4byte	0xb2
 1385 0769 05       		.byte	0x5
 1386 076a 07       		.uleb128 0x7
 1387 076b 7E080000 		.4byte	.LASF110
 1388 076f 02       		.byte	0x2
 1389 0770 38       		.byte	0x38
 1390 0771 BD000000 		.4byte	0xbd
 1391 0775 06       		.byte	0x6
 1392 0776 07       		.uleb128 0x7
 1393 0777 97050000 		.4byte	.LASF111
 1394 077b 02       		.byte	0x2
 1395 077c 39       		.byte	0x39
 1396 077d B2000000 		.4byte	0xb2
 1397 0781 08       		.byte	0x8
 1398 0782 07       		.uleb128 0x7
 1399 0783 07050000 		.4byte	.LASF112
 1400 0787 02       		.byte	0x2
 1401 0788 3A       		.byte	0x3a
 1402 0789 B2000000 		.4byte	0xb2
 1403 078d 09       		.byte	0x9
 1404 078e 07       		.uleb128 0x7
 1405 078f A9010000 		.4byte	.LASF113
 1406 0793 02       		.byte	0x2
 1407 0794 3B       		.byte	0x3b
 1408 0795 B2000000 		.4byte	0xb2
 1409 0799 0A       		.byte	0xa
 1410 079a 07       		.uleb128 0x7
 1411 079b FF060000 		.4byte	.LASF114
 1412 079f 02       		.byte	0x2
 1413 07a0 3C       		.byte	0x3c
 1414 07a1 B2000000 		.4byte	0xb2
 1415 07a5 0B       		.byte	0xb
 1416 07a6 07       		.uleb128 0x7
 1417 07a7 F0070000 		.4byte	.LASF115
 1418 07ab 02       		.byte	0x2
 1419 07ac 3D       		.byte	0x3d
 1420 07ad B2000000 		.4byte	0xb2
ARM GAS  /tmp/ccSOQyUc.s 			page 26


 1421 07b1 0C       		.byte	0xc
 1422 07b2 07       		.uleb128 0x7
 1423 07b3 1B020000 		.4byte	.LASF116
 1424 07b7 02       		.byte	0x2
 1425 07b8 3E       		.byte	0x3e
 1426 07b9 B2000000 		.4byte	0xb2
 1427 07bd 0D       		.byte	0xd
 1428 07be 07       		.uleb128 0x7
 1429 07bf 00000000 		.4byte	.LASF117
 1430 07c3 02       		.byte	0x2
 1431 07c4 3F       		.byte	0x3f
 1432 07c5 B2000000 		.4byte	0xb2
 1433 07c9 0E       		.byte	0xe
 1434 07ca 07       		.uleb128 0x7
 1435 07cb 1D050000 		.4byte	.LASF118
 1436 07cf 02       		.byte	0x2
 1437 07d0 40       		.byte	0x40
 1438 07d1 B2000000 		.4byte	0xb2
 1439 07d5 0F       		.byte	0xf
 1440 07d6 07       		.uleb128 0x7
 1441 07d7 34020000 		.4byte	.LASF119
 1442 07db 02       		.byte	0x2
 1443 07dc 41       		.byte	0x41
 1444 07dd B2000000 		.4byte	0xb2
 1445 07e1 10       		.byte	0x10
 1446 07e2 07       		.uleb128 0x7
 1447 07e3 06020000 		.4byte	.LASF120
 1448 07e7 02       		.byte	0x2
 1449 07e8 43       		.byte	0x43
 1450 07e9 B2000000 		.4byte	0xb2
 1451 07ed 11       		.byte	0x11
 1452 07ee 07       		.uleb128 0x7
 1453 07ef 44020000 		.4byte	.LASF121
 1454 07f3 02       		.byte	0x2
 1455 07f4 44       		.byte	0x44
 1456 07f5 B2000000 		.4byte	0xb2
 1457 07f9 12       		.byte	0x12
 1458 07fa 07       		.uleb128 0x7
 1459 07fb D2040000 		.4byte	.LASF122
 1460 07ff 02       		.byte	0x2
 1461 0800 45       		.byte	0x45
 1462 0801 B2000000 		.4byte	0xb2
 1463 0805 13       		.byte	0x13
 1464 0806 07       		.uleb128 0x7
 1465 0807 69060000 		.4byte	.LASF123
 1466 080b 02       		.byte	0x2
 1467 080c 46       		.byte	0x46
 1468 080d B2000000 		.4byte	0xb2
 1469 0811 14       		.byte	0x14
 1470 0812 07       		.uleb128 0x7
 1471 0813 66040000 		.4byte	.LASF124
 1472 0817 02       		.byte	0x2
 1473 0818 48       		.byte	0x48
 1474 0819 B2000000 		.4byte	0xb2
 1475 081d 15       		.byte	0x15
 1476 081e 00       		.byte	0
 1477 081f 17       		.uleb128 0x17
ARM GAS  /tmp/ccSOQyUc.s 			page 27


 1478 0820 11070000 		.4byte	0x711
 1479 0824 2F080000 		.4byte	0x82f
 1480 0828 18       		.uleb128 0x18
 1481 0829 3C000000 		.4byte	0x3c
 1482 082d 03       		.byte	0x3
 1483 082e 00       		.byte	0
 1484 082f 04       		.uleb128 0x4
 1485 0830 D5020000 		.4byte	.LASF125
 1486 0834 02       		.byte	0x2
 1487 0835 49       		.byte	0x49
 1488 0836 3E070000 		.4byte	0x73e
 1489 083a 16       		.uleb128 0x16
 1490 083b 2F080000 		.4byte	0x82f
 1491 083f 11       		.uleb128 0x11
 1492 0840 CF030000 		.4byte	.LASF126
 1493 0844 02       		.byte	0x2
 1494 0845 6E       		.byte	0x6e
 1495 0846 3A080000 		.4byte	0x83a
 1496 084a 04       		.uleb128 0x4
 1497 084b 13020000 		.4byte	.LASF127
 1498 084f 11       		.byte	0x11
 1499 0850 34       		.byte	0x34
 1500 0851 CF060000 		.4byte	0x6cf
 1501 0855 0A       		.uleb128 0xa
 1502 0856 04       		.byte	0x4
 1503 0857 4A080000 		.4byte	0x84a
 1504 085b 05       		.uleb128 0x5
 1505 085c 04       		.byte	0x4
 1506 085d 04       		.byte	0x4
 1507 085e 89050000 		.4byte	.LASF128
 1508 0862 03       		.uleb128 0x3
 1509 0863 5B080000 		.4byte	0x85b
 1510 0867 05       		.uleb128 0x5
 1511 0868 01       		.byte	0x1
 1512 0869 02       		.byte	0x2
 1513 086a E7050000 		.4byte	.LASF129
 1514 086e 03       		.uleb128 0x3
 1515 086f 67080000 		.4byte	0x867
 1516 0873 11       		.uleb128 0x11
 1517 0874 17040000 		.4byte	.LASF130
 1518 0878 12       		.byte	0x12
 1519 0879 A7       		.byte	0xa7
 1520 087a 67080000 		.4byte	0x867
 1521 087e 17       		.uleb128 0x17
 1522 087f C8000000 		.4byte	0xc8
 1523 0883 89080000 		.4byte	0x889
 1524 0887 1A       		.uleb128 0x1a
 1525 0888 00       		.byte	0
 1526 0889 03       		.uleb128 0x3
 1527 088a 7E080000 		.4byte	0x87e
 1528 088e 11       		.uleb128 0x11
 1529 088f 13050000 		.4byte	.LASF131
 1530 0893 13       		.byte	0x13
 1531 0894 56       		.byte	0x56
 1532 0895 89080000 		.4byte	0x889
 1533 0899 17       		.uleb128 0x17
 1534 089a 2C000000 		.4byte	0x2c
ARM GAS  /tmp/ccSOQyUc.s 			page 28


 1535 089e A4080000 		.4byte	0x8a4
 1536 08a2 1A       		.uleb128 0x1a
 1537 08a3 00       		.byte	0
 1538 08a4 03       		.uleb128 0x3
 1539 08a5 99080000 		.4byte	0x899
 1540 08a9 11       		.uleb128 0x11
 1541 08aa 0D030000 		.4byte	.LASF132
 1542 08ae 13       		.byte	0x13
 1543 08af 57       		.byte	0x57
 1544 08b0 A4080000 		.4byte	0x8a4
 1545 08b4 1B       		.uleb128 0x1b
 1546 08b5 00030000 		.4byte	.LASF133
 1547 08b9 01       		.byte	0x1
 1548 08ba 18       		.byte	0x18
 1549 08bb 61010000 		.4byte	0x161
 1550 08bf 05       		.uleb128 0x5
 1551 08c0 03       		.byte	0x3
 1552 08c1 00000000 		.4byte	timeout_msec
 1553 08c5 1B       		.uleb128 0x1b
 1554 08c6 D8070000 		.4byte	.LASF134
 1555 08ca 01       		.byte	0x1
 1556 08cb 19       		.byte	0x19
 1557 08cc 61010000 		.4byte	0x161
 1558 08d0 05       		.uleb128 0x5
 1559 08d1 03       		.byte	0x3
 1560 08d2 00000000 		.4byte	last_update_time
 1561 08d6 1B       		.uleb128 0x1b
 1562 08d7 BF020000 		.4byte	.LASF135
 1563 08db 01       		.byte	0x1
 1564 08dc 1A       		.byte	0x1a
 1565 08dd 62080000 		.4byte	0x862
 1566 08e1 05       		.uleb128 0x5
 1567 08e2 03       		.byte	0x3
 1568 08e3 00000000 		.4byte	timeout_brake_current
 1569 08e7 1B       		.uleb128 0x1b
 1570 08e8 72050000 		.4byte	.LASF136
 1571 08ec 01       		.byte	0x1
 1572 08ed 1B       		.byte	0x1b
 1573 08ee 6E080000 		.4byte	0x86e
 1574 08f2 05       		.uleb128 0x5
 1575 08f3 03       		.byte	0x3
 1576 08f4 00000000 		.4byte	has_timeout
 1577 08f8 17       		.uleb128 0x17
 1578 08f9 B6040000 		.4byte	0x4b6
 1579 08fd 08090000 		.4byte	0x908
 1580 0901 18       		.uleb128 0x18
 1581 0902 3C000000 		.4byte	0x3c
 1582 0906 72       		.byte	0x72
 1583 0907 00       		.byte	0
 1584 0908 1B       		.uleb128 0x1b
 1585 0909 48040000 		.4byte	.LASF137
 1586 090d 01       		.byte	0x1
 1587 090e 1E       		.byte	0x1e
 1588 090f F8080000 		.4byte	0x8f8
 1589 0913 05       		.uleb128 0x5
 1590 0914 03       		.byte	0x3
 1591 0915 00000000 		.4byte	timeout_thread_wa
ARM GAS  /tmp/ccSOQyUc.s 			page 29


 1592 0919 1C       		.uleb128 0x1c
 1593 091a 03060000 		.4byte	.LASF166
 1594 091e 01       		.byte	0x1
 1595 091f 3F       		.byte	0x3f
 1596 0920 00000000 		.4byte	.LFB225
 1597 0924 7C000000 		.4byte	.LFE225-.LFB225
 1598 0928 01       		.uleb128 0x1
 1599 0929 9C       		.byte	0x9c
 1600 092a B1090000 		.4byte	0x9b1
 1601 092e 1D       		.uleb128 0x1d
 1602 092f 61726700 		.ascii	"arg\000"
 1603 0933 01       		.byte	0x1
 1604 0934 3F       		.byte	0x3f
 1605 0935 5E030000 		.4byte	0x35e
 1606 0939 00000000 		.4byte	.LLST0
 1607 093d 1E       		.uleb128 0x1e
 1608 093e 240B0000 		.4byte	0xb24
 1609 0942 04000000 		.4byte	.LBB47
 1610 0946 00000000 		.4byte	.Ldebug_ranges0+0
 1611 094a 01       		.byte	0x1
 1612 094b 42       		.byte	0x42
 1613 094c 5D090000 		.4byte	0x95d
 1614 0950 1F       		.uleb128 0x1f
 1615 0951 300B0000 		.4byte	0xb30
 1616 0955 06       		.uleb128 0x6
 1617 0956 03       		.byte	0x3
 1618 0957 00000000 		.4byte	.LC0
 1619 095b 9F       		.byte	0x9f
 1620 095c 00       		.byte	0
 1621 095d 1E       		.uleb128 0x1e
 1622 095e 3C0B0000 		.4byte	0xb3c
 1623 0962 2A000000 		.4byte	.LBB51
 1624 0966 18000000 		.4byte	.Ldebug_ranges0+0x18
 1625 096a 01       		.byte	0x1
 1626 096b 45       		.byte	0x45
 1627 096c 8A090000 		.4byte	0x98a
 1628 0970 20       		.uleb128 0x20
 1629 0971 4D0B0000 		.4byte	0xb4d
 1630 0975 21000000 		.4byte	.LLST1
 1631 0979 21       		.uleb128 0x21
 1632 097a 760B0000 		.4byte	0xb76
 1633 097e 2A000000 		.4byte	.LBB53
 1634 0982 02000000 		.4byte	.LBE53-.LBB53
 1635 0986 03       		.byte	0x3
 1636 0987 0B01     		.2byte	0x10b
 1637 0989 00       		.byte	0
 1638 098a 22       		.uleb128 0x22
 1639 098b 4A000000 		.4byte	.LVL4
 1640 098f E70B0000 		.4byte	0xbe7
 1641 0993 9E090000 		.4byte	0x99e
 1642 0997 23       		.uleb128 0x23
 1643 0998 01       		.uleb128 0x1
 1644 0999 50       		.byte	0x50
 1645 099a 02       		.uleb128 0x2
 1646 099b 08       		.byte	0x8
 1647 099c 64       		.byte	0x64
 1648 099d 00       		.byte	0
ARM GAS  /tmp/ccSOQyUc.s 			page 30


 1649 099e 24       		.uleb128 0x24
 1650 099f 50000000 		.4byte	.LVL5
 1651 09a3 F20B0000 		.4byte	0xbf2
 1652 09a7 24       		.uleb128 0x24
 1653 09a8 58000000 		.4byte	.LVL6
 1654 09ac FD0B0000 		.4byte	0xbfd
 1655 09b0 00       		.byte	0
 1656 09b1 25       		.uleb128 0x25
 1657 09b2 21030000 		.4byte	.LASF138
 1658 09b6 01       		.byte	0x1
 1659 09b7 3B       		.byte	0x3b
 1660 09b8 5B080000 		.4byte	0x85b
 1661 09bc 00000000 		.4byte	.LFB224
 1662 09c0 0C000000 		.4byte	.LFE224-.LFB224
 1663 09c4 01       		.uleb128 0x1
 1664 09c5 9C       		.byte	0x9c
 1665 09c6 25       		.uleb128 0x25
 1666 09c7 EB030000 		.4byte	.LASF139
 1667 09cb 01       		.byte	0x1
 1668 09cc 37       		.byte	0x37
 1669 09cd 56010000 		.4byte	0x156
 1670 09d1 00000000 		.4byte	.LFB223
 1671 09d5 0C000000 		.4byte	.LFE223-.LFB223
 1672 09d9 01       		.uleb128 0x1
 1673 09da 9C       		.byte	0x9c
 1674 09db 25       		.uleb128 0x25
 1675 09dc 67070000 		.4byte	.LASF140
 1676 09e0 01       		.byte	0x1
 1677 09e1 33       		.byte	0x33
 1678 09e2 67080000 		.4byte	0x867
 1679 09e6 00000000 		.4byte	.LFB222
 1680 09ea 0C000000 		.4byte	.LFE222-.LFB222
 1681 09ee 01       		.uleb128 0x1
 1682 09ef 9C       		.byte	0x9c
 1683 09f0 26       		.uleb128 0x26
 1684 09f1 52080000 		.4byte	.LASF141
 1685 09f5 01       		.byte	0x1
 1686 09f6 2F       		.byte	0x2f
 1687 09f7 00000000 		.4byte	.LFB221
 1688 09fb 20000000 		.4byte	.LFE221-.LFB221
 1689 09ff 01       		.uleb128 0x1
 1690 0a00 9C       		.byte	0x9c
 1691 0a01 B40A0000 		.4byte	0xab4
 1692 0a05 27       		.uleb128 0x27
 1693 0a06 5A0B0000 		.4byte	0xb5a
 1694 0a0a 00000000 		.4byte	.LBB57
 1695 0a0e 10000000 		.4byte	.LBE57-.LBB57
 1696 0a12 01       		.byte	0x1
 1697 0a13 30       		.byte	0x30
 1698 0a14 28       		.uleb128 0x28
 1699 0a15 00000000 		.4byte	.LBB58
 1700 0a19 10000000 		.4byte	.LBE58-.LBB58
 1701 0a1d 29       		.uleb128 0x29
 1702 0a1e 6A0B0000 		.4byte	0xb6a
 1703 0a22 2A       		.uleb128 0x2a
 1704 0a23 B20B0000 		.4byte	0xbb2
 1705 0a27 00000000 		.4byte	.LBB59
ARM GAS  /tmp/ccSOQyUc.s 			page 31


 1706 0a2b 06000000 		.4byte	.LBE59-.LBB59
 1707 0a2f 03       		.byte	0x3
 1708 0a30 FA       		.byte	0xfa
 1709 0a31 610A0000 		.4byte	0xa61
 1710 0a35 2B       		.uleb128 0x2b
 1711 0a36 C40B0000 		.4byte	0xbc4
 1712 0a3a 00000000 		.4byte	.LBB60
 1713 0a3e 06000000 		.4byte	.LBE60-.LBB60
 1714 0a42 14       		.byte	0x14
 1715 0a43 5C01     		.2byte	0x15c
 1716 0a45 2B       		.uleb128 0x2b
 1717 0a46 CD0B0000 		.4byte	0xbcd
 1718 0a4a 00000000 		.4byte	.LBB61
 1719 0a4e 06000000 		.4byte	.LBE61-.LBB61
 1720 0a52 0E       		.byte	0xe
 1721 0a53 BF01     		.2byte	0x1bf
 1722 0a55 20       		.uleb128 0x20
 1723 0a56 DA0B0000 		.4byte	0xbda
 1724 0a5a 34000000 		.4byte	.LLST2
 1725 0a5e 00       		.byte	0
 1726 0a5f 00       		.byte	0
 1727 0a60 00       		.byte	0
 1728 0a61 2C       		.uleb128 0x2c
 1729 0a62 760B0000 		.4byte	0xb76
 1730 0a66 06000000 		.4byte	.LBB63
 1731 0a6a 30000000 		.4byte	.Ldebug_ranges0+0x30
 1732 0a6e 03       		.byte	0x3
 1733 0a6f FB       		.byte	0xfb
 1734 0a70 2D       		.uleb128 0x2d
 1735 0a71 820B0000 		.4byte	0xb82
 1736 0a75 08000000 		.4byte	.LBB66
 1737 0a79 48000000 		.4byte	.Ldebug_ranges0+0x48
 1738 0a7d 03       		.byte	0x3
 1739 0a7e FC       		.byte	0xfc
 1740 0a7f 2E       		.uleb128 0x2e
 1741 0a80 48000000 		.4byte	.Ldebug_ranges0+0x48
 1742 0a84 2F       		.uleb128 0x2f
 1743 0a85 BB0B0000 		.4byte	0xbbb
 1744 0a89 08000000 		.4byte	.LBB68
 1745 0a8d 48000000 		.4byte	.Ldebug_ranges0+0x48
 1746 0a91 14       		.byte	0x14
 1747 0a92 7301     		.2byte	0x173
 1748 0a94 2F       		.uleb128 0x2f
 1749 0a95 CD0B0000 		.4byte	0xbcd
 1750 0a99 08000000 		.4byte	.LBB69
 1751 0a9d 48000000 		.4byte	.Ldebug_ranges0+0x48
 1752 0aa1 0E       		.byte	0xe
 1753 0aa2 CD01     		.2byte	0x1cd
 1754 0aa4 20       		.uleb128 0x20
 1755 0aa5 DA0B0000 		.4byte	0xbda
 1756 0aa9 49000000 		.4byte	.LLST3
 1757 0aad 00       		.byte	0
 1758 0aae 00       		.byte	0
 1759 0aaf 00       		.byte	0
 1760 0ab0 00       		.byte	0
 1761 0ab1 00       		.byte	0
 1762 0ab2 00       		.byte	0
ARM GAS  /tmp/ccSOQyUc.s 			page 32


 1763 0ab3 00       		.byte	0
 1764 0ab4 26       		.uleb128 0x26
 1765 0ab5 A4020000 		.4byte	.LASF142
 1766 0ab9 01       		.byte	0x1
 1767 0aba 2A       		.byte	0x2a
 1768 0abb 00000000 		.4byte	.LFB220
 1769 0abf 14000000 		.4byte	.LFE220-.LFB220
 1770 0ac3 01       		.uleb128 0x1
 1771 0ac4 9C       		.byte	0x9c
 1772 0ac5 E50A0000 		.4byte	0xae5
 1773 0ac9 30       		.uleb128 0x30
 1774 0aca D8030000 		.4byte	.LASF143
 1775 0ace 01       		.byte	0x1
 1776 0acf 2A       		.byte	0x2a
 1777 0ad0 56010000 		.4byte	0x156
 1778 0ad4 01       		.uleb128 0x1
 1779 0ad5 50       		.byte	0x50
 1780 0ad6 30       		.uleb128 0x30
 1781 0ad7 56000000 		.4byte	.LASF144
 1782 0adb 01       		.byte	0x1
 1783 0adc 2A       		.byte	0x2a
 1784 0add 5B080000 		.4byte	0x85b
 1785 0ae1 02       		.uleb128 0x2
 1786 0ae2 90       		.byte	0x90
 1787 0ae3 40       		.uleb128 0x40
 1788 0ae4 00       		.byte	0
 1789 0ae5 26       		.uleb128 0x26
 1790 0ae6 7E020000 		.4byte	.LASF145
 1791 0aea 01       		.byte	0x1
 1792 0aeb 21       		.byte	0x21
 1793 0aec 00000000 		.4byte	.LFB219
 1794 0af0 48000000 		.4byte	.LFE219-.LFB219
 1795 0af4 01       		.uleb128 0x1
 1796 0af5 9C       		.byte	0x9c
 1797 0af6 240B0000 		.4byte	0xb24
 1798 0afa 31       		.uleb128 0x31
 1799 0afb 2C000000 		.4byte	.LVL7
 1800 0aff 080C0000 		.4byte	0xc08
 1801 0b03 23       		.uleb128 0x23
 1802 0b04 01       		.uleb128 0x1
 1803 0b05 50       		.byte	0x50
 1804 0b06 05       		.uleb128 0x5
 1805 0b07 03       		.byte	0x3
 1806 0b08 00000000 		.4byte	.LANCHOR4
 1807 0b0c 23       		.uleb128 0x23
 1808 0b0d 01       		.uleb128 0x1
 1809 0b0e 51       		.byte	0x51
 1810 0b0f 03       		.uleb128 0x3
 1811 0b10 0A       		.byte	0xa
 1812 0b11 9803     		.2byte	0x398
 1813 0b13 23       		.uleb128 0x23
 1814 0b14 01       		.uleb128 0x1
 1815 0b15 52       		.byte	0x52
 1816 0b16 02       		.uleb128 0x2
 1817 0b17 08       		.byte	0x8
 1818 0b18 40       		.byte	0x40
 1819 0b19 23       		.uleb128 0x23
ARM GAS  /tmp/ccSOQyUc.s 			page 33


 1820 0b1a 01       		.uleb128 0x1
 1821 0b1b 53       		.byte	0x53
 1822 0b1c 05       		.uleb128 0x5
 1823 0b1d 03       		.byte	0x3
 1824 0b1e 00000000 		.4byte	timeout_thread
 1825 0b22 00       		.byte	0
 1826 0b23 00       		.byte	0
 1827 0b24 32       		.uleb128 0x32
 1828 0b25 8F080000 		.4byte	.LASF150
 1829 0b29 02       		.byte	0x2
 1830 0b2a 84       		.byte	0x84
 1831 0b2b 03       		.byte	0x3
 1832 0b2c 3C0B0000 		.4byte	0xb3c
 1833 0b30 33       		.uleb128 0x33
 1834 0b31 E0030000 		.4byte	.LASF146
 1835 0b35 02       		.byte	0x2
 1836 0b36 84       		.byte	0x84
 1837 0b37 06070000 		.4byte	0x706
 1838 0b3b 00       		.byte	0
 1839 0b3c 34       		.uleb128 0x34
 1840 0b3d C1050000 		.4byte	.LASF148
 1841 0b41 03       		.byte	0x3
 1842 0b42 0901     		.2byte	0x109
 1843 0b44 56010000 		.4byte	0x156
 1844 0b48 03       		.byte	0x3
 1845 0b49 5A0B0000 		.4byte	0xb5a
 1846 0b4d 35       		.uleb128 0x35
 1847 0b4e 89080000 		.4byte	.LASF147
 1848 0b52 03       		.byte	0x3
 1849 0b53 0901     		.2byte	0x109
 1850 0b55 56010000 		.4byte	0x156
 1851 0b59 00       		.byte	0
 1852 0b5a 36       		.uleb128 0x36
 1853 0b5b 4E050000 		.4byte	.LASF149
 1854 0b5f 03       		.byte	0x3
 1855 0b60 F7       		.byte	0xf7
 1856 0b61 56010000 		.4byte	0x156
 1857 0b65 03       		.byte	0x3
 1858 0b66 760B0000 		.4byte	0xb76
 1859 0b6a 37       		.uleb128 0x37
 1860 0b6b 72040000 		.4byte	.LASF152
 1861 0b6f 03       		.byte	0x3
 1862 0b70 F8       		.byte	0xf8
 1863 0b71 56010000 		.4byte	0x156
 1864 0b75 00       		.byte	0
 1865 0b76 38       		.uleb128 0x38
 1866 0b77 6C030000 		.4byte	.LASF167
 1867 0b7b 03       		.byte	0x3
 1868 0b7c E4       		.byte	0xe4
 1869 0b7d 56010000 		.4byte	0x156
 1870 0b81 03       		.byte	0x3
 1871 0b82 39       		.uleb128 0x39
 1872 0b83 72080000 		.4byte	.LASF151
 1873 0b87 14       		.byte	0x14
 1874 0b88 6601     		.2byte	0x166
 1875 0b8a 03       		.byte	0x3
 1876 0b8b 9D0B0000 		.4byte	0xb9d
ARM GAS  /tmp/ccSOQyUc.s 			page 34


 1877 0b8f 3A       		.uleb128 0x3a
 1878 0b90 80060000 		.4byte	.LASF153
 1879 0b94 AD0B0000 		.4byte	0xbad
 1880 0b98 72080000 		.4byte	.LASF151
 1881 0b9c 00       		.byte	0
 1882 0b9d 17       		.uleb128 0x17
 1883 0b9e 18070000 		.4byte	0x718
 1884 0ba2 AD0B0000 		.4byte	0xbad
 1885 0ba6 18       		.uleb128 0x18
 1886 0ba7 3C000000 		.4byte	0x3c
 1887 0bab 0B       		.byte	0xb
 1888 0bac 00       		.byte	0
 1889 0bad 16       		.uleb128 0x16
 1890 0bae 9D0B0000 		.4byte	0xb9d
 1891 0bb2 3B       		.uleb128 0x3b
 1892 0bb3 89060000 		.4byte	.LASF154
 1893 0bb7 14       		.byte	0x14
 1894 0bb8 5A01     		.2byte	0x15a
 1895 0bba 03       		.byte	0x3
 1896 0bbb 3B       		.uleb128 0x3b
 1897 0bbc 68020000 		.4byte	.LASF155
 1898 0bc0 0E       		.byte	0xe
 1899 0bc1 CA01     		.2byte	0x1ca
 1900 0bc3 03       		.byte	0x3
 1901 0bc4 3B       		.uleb128 0x3b
 1902 0bc5 88010000 		.4byte	.LASF156
 1903 0bc9 0E       		.byte	0xe
 1904 0bca BC01     		.2byte	0x1bc
 1905 0bcc 03       		.byte	0x3
 1906 0bcd 39       		.uleb128 0x39
 1907 0bce AB070000 		.4byte	.LASF157
 1908 0bd2 04       		.byte	0x4
 1909 0bd3 2002     		.2byte	0x220
 1910 0bd5 03       		.byte	0x3
 1911 0bd6 E70B0000 		.4byte	0xbe7
 1912 0bda 35       		.uleb128 0x35
 1913 0bdb 51030000 		.4byte	.LASF158
 1914 0bdf 04       		.byte	0x4
 1915 0be0 2002     		.2byte	0x220
 1916 0be2 DD000000 		.4byte	0xdd
 1917 0be6 00       		.byte	0
 1918 0be7 3C       		.uleb128 0x3c
 1919 0be8 EB060000 		.4byte	.LASF159
 1920 0bec EB060000 		.4byte	.LASF159
 1921 0bf0 15       		.byte	0x15
 1922 0bf1 96       		.byte	0x96
 1923 0bf2 3C       		.uleb128 0x3c
 1924 0bf3 38060000 		.4byte	.LASF160
 1925 0bf7 38060000 		.4byte	.LASF160
 1926 0bfb 13       		.byte	0x13
 1927 0bfc 20       		.byte	0x20
 1928 0bfd 3C       		.uleb128 0x3c
 1929 0bfe 19080000 		.4byte	.LASF161
 1930 0c02 19080000 		.4byte	.LASF161
 1931 0c06 13       		.byte	0x13
 1932 0c07 2A       		.byte	0x2a
 1933 0c08 3C       		.uleb128 0x3c
ARM GAS  /tmp/ccSOQyUc.s 			page 35


 1934 0c09 A9040000 		.4byte	.LASF162
 1935 0c0d A9040000 		.4byte	.LASF162
 1936 0c11 15       		.byte	0x15
 1937 0c12 89       		.byte	0x89
 1938 0c13 00       		.byte	0
 1939              		.section	.debug_abbrev,"",%progbits
 1940              	.Ldebug_abbrev0:
 1941 0000 01       		.uleb128 0x1
 1942 0001 11       		.uleb128 0x11
 1943 0002 01       		.byte	0x1
 1944 0003 25       		.uleb128 0x25
 1945 0004 0E       		.uleb128 0xe
 1946 0005 13       		.uleb128 0x13
 1947 0006 0B       		.uleb128 0xb
 1948 0007 03       		.uleb128 0x3
 1949 0008 0E       		.uleb128 0xe
 1950 0009 1B       		.uleb128 0x1b
 1951 000a 0E       		.uleb128 0xe
 1952 000b 55       		.uleb128 0x55
 1953 000c 17       		.uleb128 0x17
 1954 000d 11       		.uleb128 0x11
 1955 000e 01       		.uleb128 0x1
 1956 000f 10       		.uleb128 0x10
 1957 0010 17       		.uleb128 0x17
 1958 0011 00       		.byte	0
 1959 0012 00       		.byte	0
 1960 0013 02       		.uleb128 0x2
 1961 0014 24       		.uleb128 0x24
 1962 0015 00       		.byte	0
 1963 0016 0B       		.uleb128 0xb
 1964 0017 0B       		.uleb128 0xb
 1965 0018 3E       		.uleb128 0x3e
 1966 0019 0B       		.uleb128 0xb
 1967 001a 03       		.uleb128 0x3
 1968 001b 08       		.uleb128 0x8
 1969 001c 00       		.byte	0
 1970 001d 00       		.byte	0
 1971 001e 03       		.uleb128 0x3
 1972 001f 35       		.uleb128 0x35
 1973 0020 00       		.byte	0
 1974 0021 49       		.uleb128 0x49
 1975 0022 13       		.uleb128 0x13
 1976 0023 00       		.byte	0
 1977 0024 00       		.byte	0
 1978 0025 04       		.uleb128 0x4
 1979 0026 16       		.uleb128 0x16
 1980 0027 00       		.byte	0
 1981 0028 03       		.uleb128 0x3
 1982 0029 0E       		.uleb128 0xe
 1983 002a 3A       		.uleb128 0x3a
 1984 002b 0B       		.uleb128 0xb
 1985 002c 3B       		.uleb128 0x3b
 1986 002d 0B       		.uleb128 0xb
 1987 002e 49       		.uleb128 0x49
 1988 002f 13       		.uleb128 0x13
 1989 0030 00       		.byte	0
 1990 0031 00       		.byte	0
ARM GAS  /tmp/ccSOQyUc.s 			page 36


 1991 0032 05       		.uleb128 0x5
 1992 0033 24       		.uleb128 0x24
 1993 0034 00       		.byte	0
 1994 0035 0B       		.uleb128 0xb
 1995 0036 0B       		.uleb128 0xb
 1996 0037 3E       		.uleb128 0x3e
 1997 0038 0B       		.uleb128 0xb
 1998 0039 03       		.uleb128 0x3
 1999 003a 0E       		.uleb128 0xe
 2000 003b 00       		.byte	0
 2001 003c 00       		.byte	0
 2002 003d 06       		.uleb128 0x6
 2003 003e 13       		.uleb128 0x13
 2004 003f 01       		.byte	0x1
 2005 0040 03       		.uleb128 0x3
 2006 0041 0E       		.uleb128 0xe
 2007 0042 0B       		.uleb128 0xb
 2008 0043 0B       		.uleb128 0xb
 2009 0044 3A       		.uleb128 0x3a
 2010 0045 0B       		.uleb128 0xb
 2011 0046 3B       		.uleb128 0x3b
 2012 0047 0B       		.uleb128 0xb
 2013 0048 01       		.uleb128 0x1
 2014 0049 13       		.uleb128 0x13
 2015 004a 00       		.byte	0
 2016 004b 00       		.byte	0
 2017 004c 07       		.uleb128 0x7
 2018 004d 0D       		.uleb128 0xd
 2019 004e 00       		.byte	0
 2020 004f 03       		.uleb128 0x3
 2021 0050 0E       		.uleb128 0xe
 2022 0051 3A       		.uleb128 0x3a
 2023 0052 0B       		.uleb128 0xb
 2024 0053 3B       		.uleb128 0x3b
 2025 0054 0B       		.uleb128 0xb
 2026 0055 49       		.uleb128 0x49
 2027 0056 13       		.uleb128 0x13
 2028 0057 38       		.uleb128 0x38
 2029 0058 0B       		.uleb128 0xb
 2030 0059 00       		.byte	0
 2031 005a 00       		.byte	0
 2032 005b 08       		.uleb128 0x8
 2033 005c 0D       		.uleb128 0xd
 2034 005d 00       		.byte	0
 2035 005e 03       		.uleb128 0x3
 2036 005f 08       		.uleb128 0x8
 2037 0060 3A       		.uleb128 0x3a
 2038 0061 0B       		.uleb128 0xb
 2039 0062 3B       		.uleb128 0x3b
 2040 0063 05       		.uleb128 0x5
 2041 0064 49       		.uleb128 0x49
 2042 0065 13       		.uleb128 0x13
 2043 0066 38       		.uleb128 0x38
 2044 0067 0B       		.uleb128 0xb
 2045 0068 00       		.byte	0
 2046 0069 00       		.byte	0
 2047 006a 09       		.uleb128 0x9
ARM GAS  /tmp/ccSOQyUc.s 			page 37


 2048 006b 0D       		.uleb128 0xd
 2049 006c 00       		.byte	0
 2050 006d 03       		.uleb128 0x3
 2051 006e 0E       		.uleb128 0xe
 2052 006f 3A       		.uleb128 0x3a
 2053 0070 0B       		.uleb128 0xb
 2054 0071 3B       		.uleb128 0x3b
 2055 0072 05       		.uleb128 0x5
 2056 0073 49       		.uleb128 0x49
 2057 0074 13       		.uleb128 0x13
 2058 0075 38       		.uleb128 0x38
 2059 0076 0B       		.uleb128 0xb
 2060 0077 00       		.byte	0
 2061 0078 00       		.byte	0
 2062 0079 0A       		.uleb128 0xa
 2063 007a 0F       		.uleb128 0xf
 2064 007b 00       		.byte	0
 2065 007c 0B       		.uleb128 0xb
 2066 007d 0B       		.uleb128 0xb
 2067 007e 49       		.uleb128 0x49
 2068 007f 13       		.uleb128 0x13
 2069 0080 00       		.byte	0
 2070 0081 00       		.byte	0
 2071 0082 0B       		.uleb128 0xb
 2072 0083 13       		.uleb128 0x13
 2073 0084 01       		.byte	0x1
 2074 0085 03       		.uleb128 0x3
 2075 0086 0E       		.uleb128 0xe
 2076 0087 0B       		.uleb128 0xb
 2077 0088 0B       		.uleb128 0xb
 2078 0089 3A       		.uleb128 0x3a
 2079 008a 0B       		.uleb128 0xb
 2080 008b 3B       		.uleb128 0x3b
 2081 008c 05       		.uleb128 0x5
 2082 008d 01       		.uleb128 0x1
 2083 008e 13       		.uleb128 0x13
 2084 008f 00       		.byte	0
 2085 0090 00       		.byte	0
 2086 0091 0C       		.uleb128 0xc
 2087 0092 15       		.uleb128 0x15
 2088 0093 01       		.byte	0x1
 2089 0094 27       		.uleb128 0x27
 2090 0095 19       		.uleb128 0x19
 2091 0096 01       		.uleb128 0x1
 2092 0097 13       		.uleb128 0x13
 2093 0098 00       		.byte	0
 2094 0099 00       		.byte	0
 2095 009a 0D       		.uleb128 0xd
 2096 009b 05       		.uleb128 0x5
 2097 009c 00       		.byte	0
 2098 009d 49       		.uleb128 0x49
 2099 009e 13       		.uleb128 0x13
 2100 009f 00       		.byte	0
 2101 00a0 00       		.byte	0
 2102 00a1 0E       		.uleb128 0xe
 2103 00a2 0F       		.uleb128 0xf
 2104 00a3 00       		.byte	0
ARM GAS  /tmp/ccSOQyUc.s 			page 38


 2105 00a4 0B       		.uleb128 0xb
 2106 00a5 0B       		.uleb128 0xb
 2107 00a6 00       		.byte	0
 2108 00a7 00       		.byte	0
 2109 00a8 0F       		.uleb128 0xf
 2110 00a9 13       		.uleb128 0x13
 2111 00aa 01       		.byte	0x1
 2112 00ab 03       		.uleb128 0x3
 2113 00ac 0E       		.uleb128 0xe
 2114 00ad 0B       		.uleb128 0xb
 2115 00ae 05       		.uleb128 0x5
 2116 00af 3A       		.uleb128 0x3a
 2117 00b0 0B       		.uleb128 0xb
 2118 00b1 3B       		.uleb128 0x3b
 2119 00b2 05       		.uleb128 0x5
 2120 00b3 01       		.uleb128 0x1
 2121 00b4 13       		.uleb128 0x13
 2122 00b5 00       		.byte	0
 2123 00b6 00       		.byte	0
 2124 00b7 10       		.uleb128 0x10
 2125 00b8 34       		.uleb128 0x34
 2126 00b9 00       		.byte	0
 2127 00ba 03       		.uleb128 0x3
 2128 00bb 0E       		.uleb128 0xe
 2129 00bc 3A       		.uleb128 0x3a
 2130 00bd 0B       		.uleb128 0xb
 2131 00be 3B       		.uleb128 0x3b
 2132 00bf 05       		.uleb128 0x5
 2133 00c0 49       		.uleb128 0x49
 2134 00c1 13       		.uleb128 0x13
 2135 00c2 3F       		.uleb128 0x3f
 2136 00c3 19       		.uleb128 0x19
 2137 00c4 3C       		.uleb128 0x3c
 2138 00c5 19       		.uleb128 0x19
 2139 00c6 00       		.byte	0
 2140 00c7 00       		.byte	0
 2141 00c8 11       		.uleb128 0x11
 2142 00c9 34       		.uleb128 0x34
 2143 00ca 00       		.byte	0
 2144 00cb 03       		.uleb128 0x3
 2145 00cc 0E       		.uleb128 0xe
 2146 00cd 3A       		.uleb128 0x3a
 2147 00ce 0B       		.uleb128 0xb
 2148 00cf 3B       		.uleb128 0x3b
 2149 00d0 0B       		.uleb128 0xb
 2150 00d1 49       		.uleb128 0x49
 2151 00d2 13       		.uleb128 0x13
 2152 00d3 3F       		.uleb128 0x3f
 2153 00d4 19       		.uleb128 0x19
 2154 00d5 3C       		.uleb128 0x3c
 2155 00d6 19       		.uleb128 0x19
 2156 00d7 00       		.byte	0
 2157 00d8 00       		.byte	0
 2158 00d9 12       		.uleb128 0x12
 2159 00da 0D       		.uleb128 0xd
 2160 00db 00       		.byte	0
 2161 00dc 03       		.uleb128 0x3
ARM GAS  /tmp/ccSOQyUc.s 			page 39


 2162 00dd 08       		.uleb128 0x8
 2163 00de 3A       		.uleb128 0x3a
 2164 00df 0B       		.uleb128 0xb
 2165 00e0 3B       		.uleb128 0x3b
 2166 00e1 0B       		.uleb128 0xb
 2167 00e2 49       		.uleb128 0x49
 2168 00e3 13       		.uleb128 0x13
 2169 00e4 38       		.uleb128 0x38
 2170 00e5 0B       		.uleb128 0xb
 2171 00e6 00       		.byte	0
 2172 00e7 00       		.byte	0
 2173 00e8 13       		.uleb128 0x13
 2174 00e9 13       		.uleb128 0x13
 2175 00ea 01       		.byte	0x1
 2176 00eb 0B       		.uleb128 0xb
 2177 00ec 0B       		.uleb128 0xb
 2178 00ed 3A       		.uleb128 0x3a
 2179 00ee 0B       		.uleb128 0xb
 2180 00ef 3B       		.uleb128 0x3b
 2181 00f0 0B       		.uleb128 0xb
 2182 00f1 01       		.uleb128 0x1
 2183 00f2 13       		.uleb128 0x13
 2184 00f3 00       		.byte	0
 2185 00f4 00       		.byte	0
 2186 00f5 14       		.uleb128 0x14
 2187 00f6 17       		.uleb128 0x17
 2188 00f7 01       		.byte	0x1
 2189 00f8 0B       		.uleb128 0xb
 2190 00f9 0B       		.uleb128 0xb
 2191 00fa 3A       		.uleb128 0x3a
 2192 00fb 0B       		.uleb128 0xb
 2193 00fc 3B       		.uleb128 0x3b
 2194 00fd 0B       		.uleb128 0xb
 2195 00fe 01       		.uleb128 0x1
 2196 00ff 13       		.uleb128 0x13
 2197 0100 00       		.byte	0
 2198 0101 00       		.byte	0
 2199 0102 15       		.uleb128 0x15
 2200 0103 0D       		.uleb128 0xd
 2201 0104 00       		.byte	0
 2202 0105 03       		.uleb128 0x3
 2203 0106 0E       		.uleb128 0xe
 2204 0107 3A       		.uleb128 0x3a
 2205 0108 0B       		.uleb128 0xb
 2206 0109 3B       		.uleb128 0x3b
 2207 010a 05       		.uleb128 0x5
 2208 010b 49       		.uleb128 0x49
 2209 010c 13       		.uleb128 0x13
 2210 010d 00       		.byte	0
 2211 010e 00       		.byte	0
 2212 010f 16       		.uleb128 0x16
 2213 0110 26       		.uleb128 0x26
 2214 0111 00       		.byte	0
 2215 0112 49       		.uleb128 0x49
 2216 0113 13       		.uleb128 0x13
 2217 0114 00       		.byte	0
 2218 0115 00       		.byte	0
ARM GAS  /tmp/ccSOQyUc.s 			page 40


 2219 0116 17       		.uleb128 0x17
 2220 0117 01       		.uleb128 0x1
 2221 0118 01       		.byte	0x1
 2222 0119 49       		.uleb128 0x49
 2223 011a 13       		.uleb128 0x13
 2224 011b 01       		.uleb128 0x1
 2225 011c 13       		.uleb128 0x13
 2226 011d 00       		.byte	0
 2227 011e 00       		.byte	0
 2228 011f 18       		.uleb128 0x18
 2229 0120 21       		.uleb128 0x21
 2230 0121 00       		.byte	0
 2231 0122 49       		.uleb128 0x49
 2232 0123 13       		.uleb128 0x13
 2233 0124 2F       		.uleb128 0x2f
 2234 0125 0B       		.uleb128 0xb
 2235 0126 00       		.byte	0
 2236 0127 00       		.byte	0
 2237 0128 19       		.uleb128 0x19
 2238 0129 34       		.uleb128 0x34
 2239 012a 00       		.byte	0
 2240 012b 03       		.uleb128 0x3
 2241 012c 08       		.uleb128 0x8
 2242 012d 3A       		.uleb128 0x3a
 2243 012e 0B       		.uleb128 0xb
 2244 012f 3B       		.uleb128 0x3b
 2245 0130 05       		.uleb128 0x5
 2246 0131 49       		.uleb128 0x49
 2247 0132 13       		.uleb128 0x13
 2248 0133 3F       		.uleb128 0x3f
 2249 0134 19       		.uleb128 0x19
 2250 0135 3C       		.uleb128 0x3c
 2251 0136 19       		.uleb128 0x19
 2252 0137 00       		.byte	0
 2253 0138 00       		.byte	0
 2254 0139 1A       		.uleb128 0x1a
 2255 013a 21       		.uleb128 0x21
 2256 013b 00       		.byte	0
 2257 013c 00       		.byte	0
 2258 013d 00       		.byte	0
 2259 013e 1B       		.uleb128 0x1b
 2260 013f 34       		.uleb128 0x34
 2261 0140 00       		.byte	0
 2262 0141 03       		.uleb128 0x3
 2263 0142 0E       		.uleb128 0xe
 2264 0143 3A       		.uleb128 0x3a
 2265 0144 0B       		.uleb128 0xb
 2266 0145 3B       		.uleb128 0x3b
 2267 0146 0B       		.uleb128 0xb
 2268 0147 49       		.uleb128 0x49
 2269 0148 13       		.uleb128 0x13
 2270 0149 02       		.uleb128 0x2
 2271 014a 18       		.uleb128 0x18
 2272 014b 00       		.byte	0
 2273 014c 00       		.byte	0
 2274 014d 1C       		.uleb128 0x1c
 2275 014e 2E       		.uleb128 0x2e
ARM GAS  /tmp/ccSOQyUc.s 			page 41


 2276 014f 01       		.byte	0x1
 2277 0150 03       		.uleb128 0x3
 2278 0151 0E       		.uleb128 0xe
 2279 0152 3A       		.uleb128 0x3a
 2280 0153 0B       		.uleb128 0xb
 2281 0154 3B       		.uleb128 0x3b
 2282 0155 0B       		.uleb128 0xb
 2283 0156 27       		.uleb128 0x27
 2284 0157 19       		.uleb128 0x19
 2285 0158 11       		.uleb128 0x11
 2286 0159 01       		.uleb128 0x1
 2287 015a 12       		.uleb128 0x12
 2288 015b 06       		.uleb128 0x6
 2289 015c 40       		.uleb128 0x40
 2290 015d 18       		.uleb128 0x18
 2291 015e 9742     		.uleb128 0x2117
 2292 0160 19       		.uleb128 0x19
 2293 0161 01       		.uleb128 0x1
 2294 0162 13       		.uleb128 0x13
 2295 0163 00       		.byte	0
 2296 0164 00       		.byte	0
 2297 0165 1D       		.uleb128 0x1d
 2298 0166 05       		.uleb128 0x5
 2299 0167 00       		.byte	0
 2300 0168 03       		.uleb128 0x3
 2301 0169 08       		.uleb128 0x8
 2302 016a 3A       		.uleb128 0x3a
 2303 016b 0B       		.uleb128 0xb
 2304 016c 3B       		.uleb128 0x3b
 2305 016d 0B       		.uleb128 0xb
 2306 016e 49       		.uleb128 0x49
 2307 016f 13       		.uleb128 0x13
 2308 0170 02       		.uleb128 0x2
 2309 0171 17       		.uleb128 0x17
 2310 0172 00       		.byte	0
 2311 0173 00       		.byte	0
 2312 0174 1E       		.uleb128 0x1e
 2313 0175 1D       		.uleb128 0x1d
 2314 0176 01       		.byte	0x1
 2315 0177 31       		.uleb128 0x31
 2316 0178 13       		.uleb128 0x13
 2317 0179 52       		.uleb128 0x52
 2318 017a 01       		.uleb128 0x1
 2319 017b 55       		.uleb128 0x55
 2320 017c 17       		.uleb128 0x17
 2321 017d 58       		.uleb128 0x58
 2322 017e 0B       		.uleb128 0xb
 2323 017f 59       		.uleb128 0x59
 2324 0180 0B       		.uleb128 0xb
 2325 0181 01       		.uleb128 0x1
 2326 0182 13       		.uleb128 0x13
 2327 0183 00       		.byte	0
 2328 0184 00       		.byte	0
 2329 0185 1F       		.uleb128 0x1f
 2330 0186 05       		.uleb128 0x5
 2331 0187 00       		.byte	0
 2332 0188 31       		.uleb128 0x31
ARM GAS  /tmp/ccSOQyUc.s 			page 42


 2333 0189 13       		.uleb128 0x13
 2334 018a 02       		.uleb128 0x2
 2335 018b 18       		.uleb128 0x18
 2336 018c 00       		.byte	0
 2337 018d 00       		.byte	0
 2338 018e 20       		.uleb128 0x20
 2339 018f 05       		.uleb128 0x5
 2340 0190 00       		.byte	0
 2341 0191 31       		.uleb128 0x31
 2342 0192 13       		.uleb128 0x13
 2343 0193 02       		.uleb128 0x2
 2344 0194 17       		.uleb128 0x17
 2345 0195 00       		.byte	0
 2346 0196 00       		.byte	0
 2347 0197 21       		.uleb128 0x21
 2348 0198 1D       		.uleb128 0x1d
 2349 0199 00       		.byte	0
 2350 019a 31       		.uleb128 0x31
 2351 019b 13       		.uleb128 0x13
 2352 019c 11       		.uleb128 0x11
 2353 019d 01       		.uleb128 0x1
 2354 019e 12       		.uleb128 0x12
 2355 019f 06       		.uleb128 0x6
 2356 01a0 58       		.uleb128 0x58
 2357 01a1 0B       		.uleb128 0xb
 2358 01a2 59       		.uleb128 0x59
 2359 01a3 05       		.uleb128 0x5
 2360 01a4 00       		.byte	0
 2361 01a5 00       		.byte	0
 2362 01a6 22       		.uleb128 0x22
 2363 01a7 898201   		.uleb128 0x4109
 2364 01aa 01       		.byte	0x1
 2365 01ab 11       		.uleb128 0x11
 2366 01ac 01       		.uleb128 0x1
 2367 01ad 31       		.uleb128 0x31
 2368 01ae 13       		.uleb128 0x13
 2369 01af 01       		.uleb128 0x1
 2370 01b0 13       		.uleb128 0x13
 2371 01b1 00       		.byte	0
 2372 01b2 00       		.byte	0
 2373 01b3 23       		.uleb128 0x23
 2374 01b4 8A8201   		.uleb128 0x410a
 2375 01b7 00       		.byte	0
 2376 01b8 02       		.uleb128 0x2
 2377 01b9 18       		.uleb128 0x18
 2378 01ba 9142     		.uleb128 0x2111
 2379 01bc 18       		.uleb128 0x18
 2380 01bd 00       		.byte	0
 2381 01be 00       		.byte	0
 2382 01bf 24       		.uleb128 0x24
 2383 01c0 898201   		.uleb128 0x4109
 2384 01c3 00       		.byte	0
 2385 01c4 11       		.uleb128 0x11
 2386 01c5 01       		.uleb128 0x1
 2387 01c6 31       		.uleb128 0x31
 2388 01c7 13       		.uleb128 0x13
 2389 01c8 00       		.byte	0
ARM GAS  /tmp/ccSOQyUc.s 			page 43


 2390 01c9 00       		.byte	0
 2391 01ca 25       		.uleb128 0x25
 2392 01cb 2E       		.uleb128 0x2e
 2393 01cc 00       		.byte	0
 2394 01cd 3F       		.uleb128 0x3f
 2395 01ce 19       		.uleb128 0x19
 2396 01cf 03       		.uleb128 0x3
 2397 01d0 0E       		.uleb128 0xe
 2398 01d1 3A       		.uleb128 0x3a
 2399 01d2 0B       		.uleb128 0xb
 2400 01d3 3B       		.uleb128 0x3b
 2401 01d4 0B       		.uleb128 0xb
 2402 01d5 27       		.uleb128 0x27
 2403 01d6 19       		.uleb128 0x19
 2404 01d7 49       		.uleb128 0x49
 2405 01d8 13       		.uleb128 0x13
 2406 01d9 11       		.uleb128 0x11
 2407 01da 01       		.uleb128 0x1
 2408 01db 12       		.uleb128 0x12
 2409 01dc 06       		.uleb128 0x6
 2410 01dd 40       		.uleb128 0x40
 2411 01de 18       		.uleb128 0x18
 2412 01df 9742     		.uleb128 0x2117
 2413 01e1 19       		.uleb128 0x19
 2414 01e2 00       		.byte	0
 2415 01e3 00       		.byte	0
 2416 01e4 26       		.uleb128 0x26
 2417 01e5 2E       		.uleb128 0x2e
 2418 01e6 01       		.byte	0x1
 2419 01e7 3F       		.uleb128 0x3f
 2420 01e8 19       		.uleb128 0x19
 2421 01e9 03       		.uleb128 0x3
 2422 01ea 0E       		.uleb128 0xe
 2423 01eb 3A       		.uleb128 0x3a
 2424 01ec 0B       		.uleb128 0xb
 2425 01ed 3B       		.uleb128 0x3b
 2426 01ee 0B       		.uleb128 0xb
 2427 01ef 27       		.uleb128 0x27
 2428 01f0 19       		.uleb128 0x19
 2429 01f1 11       		.uleb128 0x11
 2430 01f2 01       		.uleb128 0x1
 2431 01f3 12       		.uleb128 0x12
 2432 01f4 06       		.uleb128 0x6
 2433 01f5 40       		.uleb128 0x40
 2434 01f6 18       		.uleb128 0x18
 2435 01f7 9742     		.uleb128 0x2117
 2436 01f9 19       		.uleb128 0x19
 2437 01fa 01       		.uleb128 0x1
 2438 01fb 13       		.uleb128 0x13
 2439 01fc 00       		.byte	0
 2440 01fd 00       		.byte	0
 2441 01fe 27       		.uleb128 0x27
 2442 01ff 1D       		.uleb128 0x1d
 2443 0200 01       		.byte	0x1
 2444 0201 31       		.uleb128 0x31
 2445 0202 13       		.uleb128 0x13
 2446 0203 11       		.uleb128 0x11
ARM GAS  /tmp/ccSOQyUc.s 			page 44


 2447 0204 01       		.uleb128 0x1
 2448 0205 12       		.uleb128 0x12
 2449 0206 06       		.uleb128 0x6
 2450 0207 58       		.uleb128 0x58
 2451 0208 0B       		.uleb128 0xb
 2452 0209 59       		.uleb128 0x59
 2453 020a 0B       		.uleb128 0xb
 2454 020b 00       		.byte	0
 2455 020c 00       		.byte	0
 2456 020d 28       		.uleb128 0x28
 2457 020e 0B       		.uleb128 0xb
 2458 020f 01       		.byte	0x1
 2459 0210 11       		.uleb128 0x11
 2460 0211 01       		.uleb128 0x1
 2461 0212 12       		.uleb128 0x12
 2462 0213 06       		.uleb128 0x6
 2463 0214 00       		.byte	0
 2464 0215 00       		.byte	0
 2465 0216 29       		.uleb128 0x29
 2466 0217 34       		.uleb128 0x34
 2467 0218 00       		.byte	0
 2468 0219 31       		.uleb128 0x31
 2469 021a 13       		.uleb128 0x13
 2470 021b 00       		.byte	0
 2471 021c 00       		.byte	0
 2472 021d 2A       		.uleb128 0x2a
 2473 021e 1D       		.uleb128 0x1d
 2474 021f 01       		.byte	0x1
 2475 0220 31       		.uleb128 0x31
 2476 0221 13       		.uleb128 0x13
 2477 0222 11       		.uleb128 0x11
 2478 0223 01       		.uleb128 0x1
 2479 0224 12       		.uleb128 0x12
 2480 0225 06       		.uleb128 0x6
 2481 0226 58       		.uleb128 0x58
 2482 0227 0B       		.uleb128 0xb
 2483 0228 59       		.uleb128 0x59
 2484 0229 0B       		.uleb128 0xb
 2485 022a 01       		.uleb128 0x1
 2486 022b 13       		.uleb128 0x13
 2487 022c 00       		.byte	0
 2488 022d 00       		.byte	0
 2489 022e 2B       		.uleb128 0x2b
 2490 022f 1D       		.uleb128 0x1d
 2491 0230 01       		.byte	0x1
 2492 0231 31       		.uleb128 0x31
 2493 0232 13       		.uleb128 0x13
 2494 0233 11       		.uleb128 0x11
 2495 0234 01       		.uleb128 0x1
 2496 0235 12       		.uleb128 0x12
 2497 0236 06       		.uleb128 0x6
 2498 0237 58       		.uleb128 0x58
 2499 0238 0B       		.uleb128 0xb
 2500 0239 59       		.uleb128 0x59
 2501 023a 05       		.uleb128 0x5
 2502 023b 00       		.byte	0
 2503 023c 00       		.byte	0
ARM GAS  /tmp/ccSOQyUc.s 			page 45


 2504 023d 2C       		.uleb128 0x2c
 2505 023e 1D       		.uleb128 0x1d
 2506 023f 00       		.byte	0
 2507 0240 31       		.uleb128 0x31
 2508 0241 13       		.uleb128 0x13
 2509 0242 52       		.uleb128 0x52
 2510 0243 01       		.uleb128 0x1
 2511 0244 55       		.uleb128 0x55
 2512 0245 17       		.uleb128 0x17
 2513 0246 58       		.uleb128 0x58
 2514 0247 0B       		.uleb128 0xb
 2515 0248 59       		.uleb128 0x59
 2516 0249 0B       		.uleb128 0xb
 2517 024a 00       		.byte	0
 2518 024b 00       		.byte	0
 2519 024c 2D       		.uleb128 0x2d
 2520 024d 1D       		.uleb128 0x1d
 2521 024e 01       		.byte	0x1
 2522 024f 31       		.uleb128 0x31
 2523 0250 13       		.uleb128 0x13
 2524 0251 52       		.uleb128 0x52
 2525 0252 01       		.uleb128 0x1
 2526 0253 55       		.uleb128 0x55
 2527 0254 17       		.uleb128 0x17
 2528 0255 58       		.uleb128 0x58
 2529 0256 0B       		.uleb128 0xb
 2530 0257 59       		.uleb128 0x59
 2531 0258 0B       		.uleb128 0xb
 2532 0259 00       		.byte	0
 2533 025a 00       		.byte	0
 2534 025b 2E       		.uleb128 0x2e
 2535 025c 0B       		.uleb128 0xb
 2536 025d 01       		.byte	0x1
 2537 025e 55       		.uleb128 0x55
 2538 025f 17       		.uleb128 0x17
 2539 0260 00       		.byte	0
 2540 0261 00       		.byte	0
 2541 0262 2F       		.uleb128 0x2f
 2542 0263 1D       		.uleb128 0x1d
 2543 0264 01       		.byte	0x1
 2544 0265 31       		.uleb128 0x31
 2545 0266 13       		.uleb128 0x13
 2546 0267 52       		.uleb128 0x52
 2547 0268 01       		.uleb128 0x1
 2548 0269 55       		.uleb128 0x55
 2549 026a 17       		.uleb128 0x17
 2550 026b 58       		.uleb128 0x58
 2551 026c 0B       		.uleb128 0xb
 2552 026d 59       		.uleb128 0x59
 2553 026e 05       		.uleb128 0x5
 2554 026f 00       		.byte	0
 2555 0270 00       		.byte	0
 2556 0271 30       		.uleb128 0x30
 2557 0272 05       		.uleb128 0x5
 2558 0273 00       		.byte	0
 2559 0274 03       		.uleb128 0x3
 2560 0275 0E       		.uleb128 0xe
ARM GAS  /tmp/ccSOQyUc.s 			page 46


 2561 0276 3A       		.uleb128 0x3a
 2562 0277 0B       		.uleb128 0xb
 2563 0278 3B       		.uleb128 0x3b
 2564 0279 0B       		.uleb128 0xb
 2565 027a 49       		.uleb128 0x49
 2566 027b 13       		.uleb128 0x13
 2567 027c 02       		.uleb128 0x2
 2568 027d 18       		.uleb128 0x18
 2569 027e 00       		.byte	0
 2570 027f 00       		.byte	0
 2571 0280 31       		.uleb128 0x31
 2572 0281 898201   		.uleb128 0x4109
 2573 0284 01       		.byte	0x1
 2574 0285 11       		.uleb128 0x11
 2575 0286 01       		.uleb128 0x1
 2576 0287 31       		.uleb128 0x31
 2577 0288 13       		.uleb128 0x13
 2578 0289 00       		.byte	0
 2579 028a 00       		.byte	0
 2580 028b 32       		.uleb128 0x32
 2581 028c 2E       		.uleb128 0x2e
 2582 028d 01       		.byte	0x1
 2583 028e 03       		.uleb128 0x3
 2584 028f 0E       		.uleb128 0xe
 2585 0290 3A       		.uleb128 0x3a
 2586 0291 0B       		.uleb128 0xb
 2587 0292 3B       		.uleb128 0x3b
 2588 0293 0B       		.uleb128 0xb
 2589 0294 27       		.uleb128 0x27
 2590 0295 19       		.uleb128 0x19
 2591 0296 20       		.uleb128 0x20
 2592 0297 0B       		.uleb128 0xb
 2593 0298 01       		.uleb128 0x1
 2594 0299 13       		.uleb128 0x13
 2595 029a 00       		.byte	0
 2596 029b 00       		.byte	0
 2597 029c 33       		.uleb128 0x33
 2598 029d 05       		.uleb128 0x5
 2599 029e 00       		.byte	0
 2600 029f 03       		.uleb128 0x3
 2601 02a0 0E       		.uleb128 0xe
 2602 02a1 3A       		.uleb128 0x3a
 2603 02a2 0B       		.uleb128 0xb
 2604 02a3 3B       		.uleb128 0x3b
 2605 02a4 0B       		.uleb128 0xb
 2606 02a5 49       		.uleb128 0x49
 2607 02a6 13       		.uleb128 0x13
 2608 02a7 00       		.byte	0
 2609 02a8 00       		.byte	0
 2610 02a9 34       		.uleb128 0x34
 2611 02aa 2E       		.uleb128 0x2e
 2612 02ab 01       		.byte	0x1
 2613 02ac 03       		.uleb128 0x3
 2614 02ad 0E       		.uleb128 0xe
 2615 02ae 3A       		.uleb128 0x3a
 2616 02af 0B       		.uleb128 0xb
 2617 02b0 3B       		.uleb128 0x3b
ARM GAS  /tmp/ccSOQyUc.s 			page 47


 2618 02b1 05       		.uleb128 0x5
 2619 02b2 27       		.uleb128 0x27
 2620 02b3 19       		.uleb128 0x19
 2621 02b4 49       		.uleb128 0x49
 2622 02b5 13       		.uleb128 0x13
 2623 02b6 20       		.uleb128 0x20
 2624 02b7 0B       		.uleb128 0xb
 2625 02b8 01       		.uleb128 0x1
 2626 02b9 13       		.uleb128 0x13
 2627 02ba 00       		.byte	0
 2628 02bb 00       		.byte	0
 2629 02bc 35       		.uleb128 0x35
 2630 02bd 05       		.uleb128 0x5
 2631 02be 00       		.byte	0
 2632 02bf 03       		.uleb128 0x3
 2633 02c0 0E       		.uleb128 0xe
 2634 02c1 3A       		.uleb128 0x3a
 2635 02c2 0B       		.uleb128 0xb
 2636 02c3 3B       		.uleb128 0x3b
 2637 02c4 05       		.uleb128 0x5
 2638 02c5 49       		.uleb128 0x49
 2639 02c6 13       		.uleb128 0x13
 2640 02c7 00       		.byte	0
 2641 02c8 00       		.byte	0
 2642 02c9 36       		.uleb128 0x36
 2643 02ca 2E       		.uleb128 0x2e
 2644 02cb 01       		.byte	0x1
 2645 02cc 03       		.uleb128 0x3
 2646 02cd 0E       		.uleb128 0xe
 2647 02ce 3A       		.uleb128 0x3a
 2648 02cf 0B       		.uleb128 0xb
 2649 02d0 3B       		.uleb128 0x3b
 2650 02d1 0B       		.uleb128 0xb
 2651 02d2 27       		.uleb128 0x27
 2652 02d3 19       		.uleb128 0x19
 2653 02d4 49       		.uleb128 0x49
 2654 02d5 13       		.uleb128 0x13
 2655 02d6 20       		.uleb128 0x20
 2656 02d7 0B       		.uleb128 0xb
 2657 02d8 01       		.uleb128 0x1
 2658 02d9 13       		.uleb128 0x13
 2659 02da 00       		.byte	0
 2660 02db 00       		.byte	0
 2661 02dc 37       		.uleb128 0x37
 2662 02dd 34       		.uleb128 0x34
 2663 02de 00       		.byte	0
 2664 02df 03       		.uleb128 0x3
 2665 02e0 0E       		.uleb128 0xe
 2666 02e1 3A       		.uleb128 0x3a
 2667 02e2 0B       		.uleb128 0xb
 2668 02e3 3B       		.uleb128 0x3b
 2669 02e4 0B       		.uleb128 0xb
 2670 02e5 49       		.uleb128 0x49
 2671 02e6 13       		.uleb128 0x13
 2672 02e7 00       		.byte	0
 2673 02e8 00       		.byte	0
 2674 02e9 38       		.uleb128 0x38
ARM GAS  /tmp/ccSOQyUc.s 			page 48


 2675 02ea 2E       		.uleb128 0x2e
 2676 02eb 00       		.byte	0
 2677 02ec 03       		.uleb128 0x3
 2678 02ed 0E       		.uleb128 0xe
 2679 02ee 3A       		.uleb128 0x3a
 2680 02ef 0B       		.uleb128 0xb
 2681 02f0 3B       		.uleb128 0x3b
 2682 02f1 0B       		.uleb128 0xb
 2683 02f2 27       		.uleb128 0x27
 2684 02f3 19       		.uleb128 0x19
 2685 02f4 49       		.uleb128 0x49
 2686 02f5 13       		.uleb128 0x13
 2687 02f6 20       		.uleb128 0x20
 2688 02f7 0B       		.uleb128 0xb
 2689 02f8 00       		.byte	0
 2690 02f9 00       		.byte	0
 2691 02fa 39       		.uleb128 0x39
 2692 02fb 2E       		.uleb128 0x2e
 2693 02fc 01       		.byte	0x1
 2694 02fd 03       		.uleb128 0x3
 2695 02fe 0E       		.uleb128 0xe
 2696 02ff 3A       		.uleb128 0x3a
 2697 0300 0B       		.uleb128 0xb
 2698 0301 3B       		.uleb128 0x3b
 2699 0302 05       		.uleb128 0x5
 2700 0303 27       		.uleb128 0x27
 2701 0304 19       		.uleb128 0x19
 2702 0305 20       		.uleb128 0x20
 2703 0306 0B       		.uleb128 0xb
 2704 0307 01       		.uleb128 0x1
 2705 0308 13       		.uleb128 0x13
 2706 0309 00       		.byte	0
 2707 030a 00       		.byte	0
 2708 030b 3A       		.uleb128 0x3a
 2709 030c 34       		.uleb128 0x34
 2710 030d 00       		.byte	0
 2711 030e 03       		.uleb128 0x3
 2712 030f 0E       		.uleb128 0xe
 2713 0310 49       		.uleb128 0x49
 2714 0311 13       		.uleb128 0x13
 2715 0312 34       		.uleb128 0x34
 2716 0313 19       		.uleb128 0x19
 2717 0314 1C       		.uleb128 0x1c
 2718 0315 0E       		.uleb128 0xe
 2719 0316 00       		.byte	0
 2720 0317 00       		.byte	0
 2721 0318 3B       		.uleb128 0x3b
 2722 0319 2E       		.uleb128 0x2e
 2723 031a 00       		.byte	0
 2724 031b 03       		.uleb128 0x3
 2725 031c 0E       		.uleb128 0xe
 2726 031d 3A       		.uleb128 0x3a
 2727 031e 0B       		.uleb128 0xb
 2728 031f 3B       		.uleb128 0x3b
 2729 0320 05       		.uleb128 0x5
 2730 0321 27       		.uleb128 0x27
 2731 0322 19       		.uleb128 0x19
ARM GAS  /tmp/ccSOQyUc.s 			page 49


 2732 0323 20       		.uleb128 0x20
 2733 0324 0B       		.uleb128 0xb
 2734 0325 00       		.byte	0
 2735 0326 00       		.byte	0
 2736 0327 3C       		.uleb128 0x3c
 2737 0328 2E       		.uleb128 0x2e
 2738 0329 00       		.byte	0
 2739 032a 3F       		.uleb128 0x3f
 2740 032b 19       		.uleb128 0x19
 2741 032c 3C       		.uleb128 0x3c
 2742 032d 19       		.uleb128 0x19
 2743 032e 6E       		.uleb128 0x6e
 2744 032f 0E       		.uleb128 0xe
 2745 0330 03       		.uleb128 0x3
 2746 0331 0E       		.uleb128 0xe
 2747 0332 3A       		.uleb128 0x3a
 2748 0333 0B       		.uleb128 0xb
 2749 0334 3B       		.uleb128 0x3b
 2750 0335 0B       		.uleb128 0xb
 2751 0336 00       		.byte	0
 2752 0337 00       		.byte	0
 2753 0338 00       		.byte	0
 2754              		.section	.debug_loc,"",%progbits
 2755              	.Ldebug_loc0:
 2756              	.LLST0:
 2757 0000 00000000 		.4byte	.LVL0
 2758 0004 22000000 		.4byte	.LVL1
 2759 0008 0100     		.2byte	0x1
 2760 000a 50       		.byte	0x50
 2761 000b 22000000 		.4byte	.LVL1
 2762 000f 7C000000 		.4byte	.LFE225
 2763 0013 0400     		.2byte	0x4
 2764 0015 F3       		.byte	0xf3
 2765 0016 01       		.uleb128 0x1
 2766 0017 50       		.byte	0x50
 2767 0018 9F       		.byte	0x9f
 2768 0019 00000000 		.4byte	0
 2769 001d 00000000 		.4byte	0
 2770              	.LLST1:
 2771 0021 2A000000 		.4byte	.LVL2
 2772 0025 2C000000 		.4byte	.LVL3
 2773 0029 0100     		.2byte	0x1
 2774 002b 51       		.byte	0x51
 2775 002c 00000000 		.4byte	0
 2776 0030 00000000 		.4byte	0
 2777              	.LLST2:
 2778 0034 00000000 		.4byte	.LVL9
 2779 0038 06000000 		.4byte	.LVL10
 2780 003c 0300     		.2byte	0x3
 2781 003e 08       		.byte	0x8
 2782 003f 20       		.byte	0x20
 2783 0040 9F       		.byte	0x9f
 2784 0041 00000000 		.4byte	0
 2785 0045 00000000 		.4byte	0
 2786              	.LLST3:
 2787 0049 0C000000 		.4byte	.LVL11
 2788 004d 10000000 		.4byte	.LVL12
ARM GAS  /tmp/ccSOQyUc.s 			page 50


 2789 0051 0200     		.2byte	0x2
 2790 0053 30       		.byte	0x30
 2791 0054 9F       		.byte	0x9f
 2792 0055 00000000 		.4byte	0
 2793 0059 00000000 		.4byte	0
 2794              		.section	.debug_aranges,"",%progbits
 2795 0000 4C000000 		.4byte	0x4c
 2796 0004 0200     		.2byte	0x2
 2797 0006 00000000 		.4byte	.Ldebug_info0
 2798 000a 04       		.byte	0x4
 2799 000b 00       		.byte	0
 2800 000c 0000     		.2byte	0
 2801 000e 0000     		.2byte	0
 2802 0010 00000000 		.4byte	.LFB225
 2803 0014 7C000000 		.4byte	.LFE225-.LFB225
 2804 0018 00000000 		.4byte	.LFB219
 2805 001c 48000000 		.4byte	.LFE219-.LFB219
 2806 0020 00000000 		.4byte	.LFB220
 2807 0024 14000000 		.4byte	.LFE220-.LFB220
 2808 0028 00000000 		.4byte	.LFB221
 2809 002c 20000000 		.4byte	.LFE221-.LFB221
 2810 0030 00000000 		.4byte	.LFB222
 2811 0034 0C000000 		.4byte	.LFE222-.LFB222
 2812 0038 00000000 		.4byte	.LFB223
 2813 003c 0C000000 		.4byte	.LFE223-.LFB223
 2814 0040 00000000 		.4byte	.LFB224
 2815 0044 0C000000 		.4byte	.LFE224-.LFB224
 2816 0048 00000000 		.4byte	0
 2817 004c 00000000 		.4byte	0
 2818              		.section	.debug_ranges,"",%progbits
 2819              	.Ldebug_ranges0:
 2820 0000 04000000 		.4byte	.LBB47
 2821 0004 16000000 		.4byte	.LBE47
 2822 0008 1A000000 		.4byte	.LBB50
 2823 000c 1C000000 		.4byte	.LBE50
 2824 0010 00000000 		.4byte	0
 2825 0014 00000000 		.4byte	0
 2826 0018 2A000000 		.4byte	.LBB51
 2827 001c 2C000000 		.4byte	.LBE51
 2828 0020 36000000 		.4byte	.LBB56
 2829 0024 38000000 		.4byte	.LBE56
 2830 0028 00000000 		.4byte	0
 2831 002c 00000000 		.4byte	0
 2832 0030 06000000 		.4byte	.LBB63
 2833 0034 08000000 		.4byte	.LBE63
 2834 0038 0A000000 		.4byte	.LBB75
 2835 003c 0C000000 		.4byte	.LBE75
 2836 0040 00000000 		.4byte	0
 2837 0044 00000000 		.4byte	0
 2838 0048 08000000 		.4byte	.LBB66
 2839 004c 0A000000 		.4byte	.LBE66
 2840 0050 0C000000 		.4byte	.LBB76
 2841 0054 10000000 		.4byte	.LBE76
 2842 0058 00000000 		.4byte	0
 2843 005c 00000000 		.4byte	0
 2844 0060 00000000 		.4byte	.LFB225
 2845 0064 7C000000 		.4byte	.LFE225
ARM GAS  /tmp/ccSOQyUc.s 			page 51


 2846 0068 00000000 		.4byte	.LFB219
 2847 006c 48000000 		.4byte	.LFE219
 2848 0070 00000000 		.4byte	.LFB220
 2849 0074 14000000 		.4byte	.LFE220
 2850 0078 00000000 		.4byte	.LFB221
 2851 007c 20000000 		.4byte	.LFE221
 2852 0080 00000000 		.4byte	.LFB222
 2853 0084 0C000000 		.4byte	.LFE222
 2854 0088 00000000 		.4byte	.LFB223
 2855 008c 0C000000 		.4byte	.LFE223
 2856 0090 00000000 		.4byte	.LFB224
 2857 0094 0C000000 		.4byte	.LFE224
 2858 0098 00000000 		.4byte	0
 2859 009c 00000000 		.4byte	0
 2860              		.section	.debug_line,"",%progbits
 2861              	.Ldebug_line0:
 2862 0000 57030000 		.section	.debug_str,"MS",%progbits,1
 2862      02005702 
 2862      00000201 
 2862      FB0E0D00 
 2862      01010101 
 2863              	.LASF117:
 2864 0000 63665F6F 		.ascii	"cf_off_older\000"
 2864      66665F6F 
 2864      6C646572 
 2864      00
 2865              	.LASF56:
 2866 000d 72656164 		.ascii	"ready_list_t\000"
 2866      795F6C69 
 2866      73745F74 
 2866      00
 2867              	.LASF2:
 2868 001a 73697A65 		.ascii	"size_t\000"
 2868      5F7400
 2869              	.LASF92:
 2870 0021 7264796D 		.ascii	"rdymsg\000"
 2870      736700
 2871              	.LASF19:
 2872 0028 75696E74 		.ascii	"uint64_t\000"
 2872      36345F74 
 2872      00
 2873              	.LASF3:
 2874 0031 5F5F7569 		.ascii	"__uint8_t\000"
 2874      6E74385F 
 2874      7400
 2875              	.LASF89:
 2876 003b 706F7274 		.ascii	"port_intctx\000"
 2876      5F696E74 
 2876      63747800 
 2877              	.LASF75:
 2878 0047 73797374 		.ascii	"system_debug_t\000"
 2878      656D5F64 
 2878      65627567 
 2878      5F7400
 2879              	.LASF144:
 2880 0056 6272616B 		.ascii	"brake_current\000"
 2880      655F6375 
ARM GAS  /tmp/ccSOQyUc.s 			page 52


 2880      7272656E 
 2880      7400
 2881              	.LASF163:
 2882 0064 474E5520 		.ascii	"GNU C99 7.3.1 20180622 (release) [ARM/embedded-7-br"
 2882      43393920 
 2882      372E332E 
 2882      31203230 
 2882      31383036 
 2883 0097 616E6368 		.ascii	"anch revision 261907] -mcpu=cortex-m4 -mfloat-abi=h"
 2883      20726576 
 2883      6973696F 
 2883      6E203236 
 2883      31393037 
 2884 00ca 61726420 		.ascii	"ard -mfpu=fpv4-sp-d16 -mno-thumb-interwork -mthumb "
 2884      2D6D6670 
 2884      753D6670 
 2884      76342D73 
 2884      702D6431 
 2885 00fd 2D676764 		.ascii	"-ggdb -O2 -std=gnu99 -fomit-frame-pointer -falign-f"
 2885      62202D4F 
 2885      32202D73 
 2885      74643D67 
 2885      6E753939 
 2886 0130 756E6374 		.ascii	"unctions=16 -ffunction-sections -fdata-sections -fn"
 2886      696F6E73 
 2886      3D313620 
 2886      2D666675 
 2886      6E637469 
 2887 0163 6F2D636F 		.ascii	"o-common -fsingle-precision-constant\000"
 2887      6D6D6F6E 
 2887      202D6673 
 2887      696E676C 
 2887      652D7072 
 2888              	.LASF156:
 2889 0188 706F7274 		.ascii	"port_lock\000"
 2889      5F6C6F63 
 2889      6B00
 2890              	.LASF14:
 2891 0192 6C6F6E67 		.ascii	"long long unsigned int\000"
 2891      206C6F6E 
 2891      6720756E 
 2891      7369676E 
 2891      65642069 
 2892              	.LASF113:
 2893 01a9 63685F74 		.ascii	"ch_threadsize\000"
 2893      68726561 
 2893      6473697A 
 2893      6500
 2894              	.LASF93:
 2895 01b7 65786974 		.ascii	"exitcode\000"
 2895      636F6465 
 2895      00
 2896              	.LASF82:
 2897 01c0 6D61696E 		.ascii	"mainthread\000"
 2897      74687265 
 2897      616400
 2898              	.LASF72:
ARM GAS  /tmp/ccSOQyUc.s 			page 53


 2899 01cb 76697274 		.ascii	"virtual_timers_list_t\000"
 2899      75616C5F 
 2899      74696D65 
 2899      72735F6C 
 2899      6973745F 
 2900              	.LASF84:
 2901 01e1 49544D5F 		.ascii	"ITM_RxBuffer\000"
 2901      52784275 
 2901      66666572 
 2901      00
 2902              	.LASF55:
 2903 01ee 63685F74 		.ascii	"ch_threads_queue\000"
 2903      68726561 
 2903      64735F71 
 2903      75657565 
 2903      00
 2904              	.LASF33:
 2905 01ff 705F7072 		.ascii	"p_prio\000"
 2905      696F00
 2906              	.LASF120:
 2907 0206 63665F6F 		.ascii	"cf_off_state\000"
 2907      66665F73 
 2907      74617465 
 2907      00
 2908              	.LASF127:
 2909 0213 6D757465 		.ascii	"mutex_t\000"
 2909      785F7400 
 2910              	.LASF116:
 2911 021b 63665F6F 		.ascii	"cf_off_newer\000"
 2911      66665F6E 
 2911      65776572 
 2911      00
 2912              	.LASF1:
 2913 0228 7369676E 		.ascii	"signed char\000"
 2913      65642063 
 2913      68617200 
 2914              	.LASF119:
 2915 0234 63665F6F 		.ascii	"cf_off_stklimit\000"
 2915      66665F73 
 2915      746B6C69 
 2915      6D697400 
 2916              	.LASF121:
 2917 0244 63665F6F 		.ascii	"cf_off_flags\000"
 2917      66665F66 
 2917      6C616773 
 2917      00
 2918              	.LASF49:
 2919 0251 705F6D70 		.ascii	"p_mpool\000"
 2919      6F6F6C00 
 2920              	.LASF103:
 2921 0259 6D5F7175 		.ascii	"m_queue\000"
 2921      65756500 
 2922              	.LASF81:
 2923 0261 76746C69 		.ascii	"vtlist\000"
 2923      737400
 2924              	.LASF155:
 2925 0268 706F7274 		.ascii	"port_unlock\000"
ARM GAS  /tmp/ccSOQyUc.s 			page 54


 2925      5F756E6C 
 2925      6F636B00 
 2926              	.LASF24:
 2927 0274 74736C69 		.ascii	"tslices_t\000"
 2927      6365735F 
 2927      7400
 2928              	.LASF145:
 2929 027e 74696D65 		.ascii	"timeout_init\000"
 2929      6F75745F 
 2929      696E6974 
 2929      00
 2930              	.LASF95:
 2931 028b 77747472 		.ascii	"wttrp\000"
 2931      7000
 2932              	.LASF79:
 2933 0291 63685F73 		.ascii	"ch_system\000"
 2933      79737465 
 2933      6D00
 2934              	.LASF9:
 2935 029b 6C6F6E67 		.ascii	"long int\000"
 2935      20696E74 
 2935      00
 2936              	.LASF142:
 2937 02a4 74696D65 		.ascii	"timeout_configure\000"
 2937      6F75745F 
 2937      636F6E66 
 2937      69677572 
 2937      6500
 2938              	.LASF22:
 2939 02b6 74737461 		.ascii	"tstate_t\000"
 2939      74655F74 
 2939      00
 2940              	.LASF135:
 2941 02bf 74696D65 		.ascii	"timeout_brake_current\000"
 2941      6F75745F 
 2941      6272616B 
 2941      655F6375 
 2941      7272656E 
 2942              	.LASF125:
 2943 02d5 63686465 		.ascii	"chdebug_t\000"
 2943      6275675F 
 2943      7400
 2944              	.LASF35:
 2945 02df 705F6E65 		.ascii	"p_newer\000"
 2945      77657200 
 2946              	.LASF100:
 2947 02e7 735F7175 		.ascii	"s_queue\000"
 2947      65756500 
 2948              	.LASF61:
 2949 02ef 725F6E65 		.ascii	"r_newer\000"
 2949      77657200 
 2950              	.LASF86:
 2951 02f7 72656761 		.ascii	"regarm_t\000"
 2951      726D5F74 
 2951      00
 2952              	.LASF133:
 2953 0300 74696D65 		.ascii	"timeout_msec\000"
ARM GAS  /tmp/ccSOQyUc.s 			page 55


 2953      6F75745F 
 2953      6D736563 
 2953      00
 2954              	.LASF132:
 2955 030d 4144435F 		.ascii	"ADC_curr_norm_value\000"
 2955      63757272 
 2955      5F6E6F72 
 2955      6D5F7661 
 2955      6C756500 
 2956              	.LASF138:
 2957 0321 74696D65 		.ascii	"timeout_get_brake_current\000"
 2957      6F75745F 
 2957      6765745F 
 2957      6272616B 
 2957      655F6375 
 2958              	.LASF68:
 2959 033b 76745F70 		.ascii	"vt_prev\000"
 2959      72657600 
 2960              	.LASF12:
 2961 0343 6C6F6E67 		.ascii	"long long int\000"
 2961      206C6F6E 
 2961      6720696E 
 2961      7400
 2962              	.LASF158:
 2963 0351 76616C75 		.ascii	"value\000"
 2963      6500
 2964              	.LASF83:
 2965 0357 69646C65 		.ascii	"idle_thread_wa\000"
 2965      5F746872 
 2965      6561645F 
 2965      776100
 2966              	.LASF28:
 2967 0366 636E745F 		.ascii	"cnt_t\000"
 2967      7400
 2968              	.LASF167:
 2969 036c 63685654 		.ascii	"chVTGetSystemTimeX\000"
 2969      47657453 
 2969      79737465 
 2969      6D54696D 
 2969      655800
 2970              	.LASF0:
 2971 037f 756E7369 		.ascii	"unsigned int\000"
 2971      676E6564 
 2971      20696E74 
 2971      00
 2972              	.LASF67:
 2973 038c 76745F6E 		.ascii	"vt_next\000"
 2973      65787400 
 2974              	.LASF16:
 2975 0394 75696E74 		.ascii	"uint16_t\000"
 2975      31365F74 
 2975      00
 2976              	.LASF85:
 2977 039d 53797374 		.ascii	"SystemCoreClock\000"
 2977      656D436F 
 2977      7265436C 
 2977      6F636B00 
ARM GAS  /tmp/ccSOQyUc.s 			page 56


 2978              	.LASF42:
 2979 03ad 705F7469 		.ascii	"p_time\000"
 2979      6D6500
 2980              	.LASF96:
 2981 03b4 77747365 		.ascii	"wtsemp\000"
 2981      6D7000
 2982              	.LASF69:
 2983 03bb 76745F64 		.ascii	"vt_delta\000"
 2983      656C7461 
 2983      00
 2984              	.LASF44:
 2985 03c4 705F6D73 		.ascii	"p_msgqueue\000"
 2985      67717565 
 2985      756500
 2986              	.LASF126:
 2987 03cf 63685F64 		.ascii	"ch_debug\000"
 2987      65627567 
 2987      00
 2988              	.LASF143:
 2989 03d8 74696D65 		.ascii	"timeout\000"
 2989      6F757400 
 2990              	.LASF146:
 2991 03e0 6E616D65 		.ascii	"name\000"
 2991      00
 2992              	.LASF101:
 2993 03e5 735F636E 		.ascii	"s_cnt\000"
 2993      7400
 2994              	.LASF139:
 2995 03eb 74696D65 		.ascii	"timeout_get_timeout_msec\000"
 2995      6F75745F 
 2995      6765745F 
 2995      74696D65 
 2995      6F75745F 
 2996              	.LASF7:
 2997 0404 73686F72 		.ascii	"short unsigned int\000"
 2997      7420756E 
 2997      7369676E 
 2997      65642069 
 2997      6E7400
 2998              	.LASF130:
 2999 0417 636F6E66 		.ascii	"conf_general_permanent_nrf_found\000"
 2999      5F67656E 
 2999      6572616C 
 2999      5F706572 
 2999      6D616E65 
 3000              	.LASF52:
 3001 0438 63685F74 		.ascii	"ch_thread\000"
 3001      68726561 
 3001      6400
 3002              	.LASF26:
 3003 0442 6D73675F 		.ascii	"msg_t\000"
 3003      7400
 3004              	.LASF137:
 3005 0448 74696D65 		.ascii	"timeout_thread_wa\000"
 3005      6F75745F 
 3005      74687265 
 3005      61645F77 
ARM GAS  /tmp/ccSOQyUc.s 			page 57


 3005      6100
 3006              	.LASF78:
 3007 045a 63685F73 		.ascii	"ch_system_t\000"
 3007      79737465 
 3007      6D5F7400 
 3008              	.LASF124:
 3009 0466 63665F6F 		.ascii	"cf_off_time\000"
 3009      66665F74 
 3009      696D6500 
 3010              	.LASF152:
 3011 0472 73797374 		.ascii	"systime\000"
 3011      696D6500 
 3012              	.LASF57:
 3013 047a 63685F72 		.ascii	"ch_ready_list\000"
 3013      65616479 
 3013      5F6C6973 
 3013      7400
 3014              	.LASF27:
 3015 0488 6576656E 		.ascii	"eventmask_t\000"
 3015      746D6173 
 3015      6B5F7400 
 3016              	.LASF8:
 3017 0494 5F5F696E 		.ascii	"__int32_t\000"
 3017      7433325F 
 3017      7400
 3018              	.LASF87:
 3019 049e 73746B61 		.ascii	"stkalign_t\000"
 3019      6C69676E 
 3019      5F7400
 3020              	.LASF162:
 3021 04a9 63685468 		.ascii	"chThdCreateStatic\000"
 3021      64437265 
 3021      61746553 
 3021      74617469 
 3021      6300
 3022              	.LASF51:
 3023 04bb 74687265 		.ascii	"threads_list_t\000"
 3023      6164735F 
 3023      6C697374 
 3023      5F7400
 3024              	.LASF108:
 3025 04ca 63685F7A 		.ascii	"ch_zero\000"
 3025      65726F00 
 3026              	.LASF122:
 3027 04d2 63665F6F 		.ascii	"cf_off_refs\000"
 3027      66665F72 
 3027      65667300 
 3028              	.LASF43:
 3029 04de 705F7761 		.ascii	"p_waiting\000"
 3029      6974696E 
 3029      6700
 3030              	.LASF20:
 3031 04e8 7274636E 		.ascii	"rtcnt_t\000"
 3031      745F7400 
 3032              	.LASF73:
 3033 04f0 63685F76 		.ascii	"ch_virtual_timers_list\000"
 3033      69727475 
ARM GAS  /tmp/ccSOQyUc.s 			page 58


 3033      616C5F74 
 3033      696D6572 
 3033      735F6C69 
 3034              	.LASF112:
 3035 0507 63685F74 		.ascii	"ch_timesize\000"
 3035      696D6573 
 3035      697A6500 
 3036              	.LASF131:
 3037 0513 4144435F 		.ascii	"ADC_Value\000"
 3037      56616C75 
 3037      6500
 3038              	.LASF118:
 3039 051d 63665F6F 		.ascii	"cf_off_name\000"
 3039      66665F6E 
 3039      616D6500 
 3040              	.LASF36:
 3041 0529 705F6F6C 		.ascii	"p_older\000"
 3041      64657200 
 3042              	.LASF60:
 3043 0531 725F6374 		.ascii	"r_ctx\000"
 3043      7800
 3044              	.LASF34:
 3045 0537 705F6374 		.ascii	"p_ctx\000"
 3045      7800
 3046              	.LASF91:
 3047 053d 746D5F63 		.ascii	"tm_calibration_t\000"
 3047      616C6962 
 3047      72617469 
 3047      6F6E5F74 
 3047      00
 3048              	.LASF149:
 3049 054e 63685654 		.ascii	"chVTGetSystemTime\000"
 3049      47657453 
 3049      79737465 
 3049      6D54696D 
 3049      6500
 3050              	.LASF63:
 3051 0560 725F6375 		.ascii	"r_current\000"
 3051      7272656E 
 3051      7400
 3052              	.LASF62:
 3053 056a 725F6F6C 		.ascii	"r_older\000"
 3053      64657200 
 3054              	.LASF136:
 3055 0572 6861735F 		.ascii	"has_timeout\000"
 3055      74696D65 
 3055      6F757400 
 3056              	.LASF13:
 3057 057e 5F5F7569 		.ascii	"__uint64_t\000"
 3057      6E743634 
 3057      5F7400
 3058              	.LASF128:
 3059 0589 666C6F61 		.ascii	"float\000"
 3059      7400
 3060              	.LASF23:
 3061 058f 74726566 		.ascii	"trefs_t\000"
 3061      735F7400 
ARM GAS  /tmp/ccSOQyUc.s 			page 59


 3062              	.LASF111:
 3063 0597 63685F70 		.ascii	"ch_ptrsize\000"
 3063      74727369 
 3063      7A6500
 3064              	.LASF65:
 3065 05a2 76697274 		.ascii	"virtual_timer_t\000"
 3065      75616C5F 
 3065      74696D65 
 3065      725F7400 
 3066              	.LASF32:
 3067 05b2 705F7072 		.ascii	"p_prev\000"
 3067      657600
 3068              	.LASF25:
 3069 05b9 74707269 		.ascii	"tprio_t\000"
 3069      6F5F7400 
 3070              	.LASF148:
 3071 05c1 63685654 		.ascii	"chVTTimeElapsedSinceX\000"
 3071      54696D65 
 3071      456C6170 
 3071      73656453 
 3071      696E6365 
 3072              	.LASF76:
 3073 05d7 63685F73 		.ascii	"ch_system_debug\000"
 3073      79737465 
 3073      6D5F6465 
 3073      62756700 
 3074              	.LASF129:
 3075 05e7 5F426F6F 		.ascii	"_Bool\000"
 3075      6C00
 3076              	.LASF17:
 3077 05ed 696E7433 		.ascii	"int32_t\000"
 3077      325F7400 
 3078              	.LASF4:
 3079 05f5 756E7369 		.ascii	"unsigned char\000"
 3079      676E6564 
 3079      20636861 
 3079      7200
 3080              	.LASF166:
 3081 0603 74696D65 		.ascii	"timeout_thread\000"
 3081      6F75745F 
 3081      74687265 
 3081      616400
 3082              	.LASF47:
 3083 0612 705F6D74 		.ascii	"p_mtxlist\000"
 3083      786C6973 
 3083      7400
 3084              	.LASF5:
 3085 061c 73686F72 		.ascii	"short int\000"
 3085      7420696E 
 3085      7400
 3086              	.LASF38:
 3087 0626 705F7374 		.ascii	"p_state\000"
 3087      61746500 
 3088              	.LASF41:
 3089 062e 705F7072 		.ascii	"p_preempt\000"
 3089      65656D70 
 3089      7400
ARM GAS  /tmp/ccSOQyUc.s 			page 60


 3090              	.LASF160:
 3091 0638 6D635F69 		.ascii	"mc_interface_unlock\000"
 3091      6E746572 
 3091      66616365 
 3091      5F756E6C 
 3091      6F636B00 
 3092              	.LASF59:
 3093 064c 725F7072 		.ascii	"r_prio\000"
 3093      696F00
 3094              	.LASF98:
 3095 0653 65776D61 		.ascii	"ewmask\000"
 3095      736B00
 3096              	.LASF31:
 3097 065a 705F6E65 		.ascii	"p_next\000"
 3097      787400
 3098              	.LASF21:
 3099 0661 746D6F64 		.ascii	"tmode_t\000"
 3099      655F7400 
 3100              	.LASF123:
 3101 0669 63665F6F 		.ascii	"cf_off_preempt\000"
 3101      66665F70 
 3101      7265656D 
 3101      707400
 3102              	.LASF39:
 3103 0678 705F666C 		.ascii	"p_flags\000"
 3103      61677300 
 3104              	.LASF153:
 3105 0680 5F5F6675 		.ascii	"__func__\000"
 3105      6E635F5F 
 3105      00
 3106              	.LASF154:
 3107 0689 63685379 		.ascii	"chSysLock\000"
 3107      734C6F63 
 3107      6B00
 3108              	.LASF54:
 3109 0693 74687265 		.ascii	"threads_queue_t\000"
 3109      6164735F 
 3109      71756575 
 3109      655F7400 
 3110              	.LASF66:
 3111 06a3 63685F76 		.ascii	"ch_virtual_timer\000"
 3111      69727475 
 3111      616C5F74 
 3111      696D6572 
 3111      00
 3112              	.LASF165:
 3113 06b4 2F686F6D 		.ascii	"/home/renan/BLDC/bldc-firmware\000"
 3113      652F7265 
 3113      6E616E2F 
 3113      424C4443 
 3113      2F626C64 
 3114              	.LASF99:
 3115 06d3 63685F73 		.ascii	"ch_semaphore\000"
 3115      656D6170 
 3115      686F7265 
 3115      00
 3116              	.LASF46:
ARM GAS  /tmp/ccSOQyUc.s 			page 61


 3117 06e0 705F6570 		.ascii	"p_epending\000"
 3117      656E6469 
 3117      6E6700
 3118              	.LASF159:
 3119 06eb 63685468 		.ascii	"chThdSleep\000"
 3119      64536C65 
 3119      657000
 3120              	.LASF18:
 3121 06f6 75696E74 		.ascii	"uint32_t\000"
 3121      33325F74 
 3121      00
 3122              	.LASF114:
 3123 06ff 63665F6F 		.ascii	"cf_off_prio\000"
 3123      66665F70 
 3123      72696F00 
 3124              	.LASF58:
 3125 070b 725F7175 		.ascii	"r_queue\000"
 3125      65756500 
 3126              	.LASF53:
 3127 0713 63685F74 		.ascii	"ch_threads_list\000"
 3127      68726561 
 3127      64735F6C 
 3127      69737400 
 3128              	.LASF109:
 3129 0723 63685F73 		.ascii	"ch_size\000"
 3129      697A6500 
 3130              	.LASF164:
 3131 072b 74696D65 		.ascii	"timeout.c\000"
 3131      6F75742E 
 3131      6300
 3132              	.LASF11:
 3133 0735 6C6F6E67 		.ascii	"long unsigned int\000"
 3133      20756E73 
 3133      69676E65 
 3133      6420696E 
 3133      7400
 3134              	.LASF106:
 3135 0747 63686172 		.ascii	"char\000"
 3135      00
 3136              	.LASF97:
 3137 074c 77746D74 		.ascii	"wtmtxp\000"
 3137      787000
 3138              	.LASF6:
 3139 0753 5F5F7569 		.ascii	"__uint16_t\000"
 3139      6E743136 
 3139      5F7400
 3140              	.LASF30:
 3141 075e 74687265 		.ascii	"thread_t\000"
 3141      61645F74 
 3141      00
 3142              	.LASF140:
 3143 0767 74696D65 		.ascii	"timeout_has_timeout\000"
 3143      6F75745F 
 3143      6861735F 
 3143      74696D65 
 3143      6F757400 
 3144              	.LASF105:
ARM GAS  /tmp/ccSOQyUc.s 			page 62


 3145 077b 6D5F6E65 		.ascii	"m_next\000"
 3145      787400
 3146              	.LASF29:
 3147 0782 73797374 		.ascii	"systime_t\000"
 3147      696D655F 
 3147      7400
 3148              	.LASF48:
 3149 078c 705F7265 		.ascii	"p_realprio\000"
 3149      616C7072 
 3149      696F00
 3150              	.LASF64:
 3151 0797 76746675 		.ascii	"vtfunc_t\000"
 3151      6E635F74 
 3151      00
 3152              	.LASF10:
 3153 07a0 5F5F7569 		.ascii	"__uint32_t\000"
 3153      6E743332 
 3153      5F7400
 3154              	.LASF157:
 3155 07ab 5F5F7365 		.ascii	"__set_BASEPRI\000"
 3155      745F4241 
 3155      53455052 
 3155      4900
 3156              	.LASF77:
 3157 07b9 70616E69 		.ascii	"panic_msg\000"
 3157      635F6D73 
 3157      6700
 3158              	.LASF90:
 3159 07c3 6F666673 		.ascii	"offset\000"
 3159      657400
 3160              	.LASF88:
 3161 07ca 636F6E74 		.ascii	"context\000"
 3161      65787400 
 3162              	.LASF45:
 3163 07d2 705F6D73 		.ascii	"p_msg\000"
 3163      6700
 3164              	.LASF134:
 3165 07d8 6C617374 		.ascii	"last_update_time\000"
 3165      5F757064 
 3165      6174655F 
 3165      74696D65 
 3165      00
 3166              	.LASF71:
 3167 07e9 76745F70 		.ascii	"vt_par\000"
 3167      617200
 3168              	.LASF115:
 3169 07f0 63665F6F 		.ascii	"cf_off_ctx\000"
 3169      66665F63 
 3169      747800
 3170              	.LASF102:
 3171 07fb 63685F6D 		.ascii	"ch_mutex\000"
 3171      75746578 
 3171      00
 3172              	.LASF40:
 3173 0804 705F7265 		.ascii	"p_refs\000"
 3173      667300
 3174              	.LASF80:
ARM GAS  /tmp/ccSOQyUc.s 			page 63


 3175 080b 726C6973 		.ascii	"rlist\000"
 3175      7400
 3176              	.LASF15:
 3177 0811 75696E74 		.ascii	"uint8_t\000"
 3177      385F7400 
 3178              	.LASF161:
 3179 0819 6D635F69 		.ascii	"mc_interface_set_brake_current\000"
 3179      6E746572 
 3179      66616365 
 3179      5F736574 
 3179      5F627261 
 3180              	.LASF50:
 3181 0838 74687265 		.ascii	"thread_reference_t\000"
 3181      61645F72 
 3181      65666572 
 3181      656E6365 
 3181      5F7400
 3182              	.LASF94:
 3183 084b 77746F62 		.ascii	"wtobjp\000"
 3183      6A7000
 3184              	.LASF141:
 3185 0852 74696D65 		.ascii	"timeout_reset\000"
 3185      6F75745F 
 3185      72657365 
 3185      7400
 3186              	.LASF37:
 3187 0860 705F6E61 		.ascii	"p_name\000"
 3187      6D6500
 3188              	.LASF74:
 3189 0867 76745F73 		.ascii	"vt_systime\000"
 3189      79737469 
 3189      6D6500
 3190              	.LASF151:
 3191 0872 63685379 		.ascii	"chSysUnlock\000"
 3191      73556E6C 
 3191      6F636B00 
 3192              	.LASF110:
 3193 087e 63685F76 		.ascii	"ch_version\000"
 3193      65727369 
 3193      6F6E00
 3194              	.LASF147:
 3195 0889 73746172 		.ascii	"start\000"
 3195      7400
 3196              	.LASF150:
 3197 088f 63685265 		.ascii	"chRegSetThreadName\000"
 3197      67536574 
 3197      54687265 
 3197      61644E61 
 3197      6D6500
 3198              	.LASF104:
 3199 08a2 6D5F6F77 		.ascii	"m_owner\000"
 3199      6E657200 
 3200              	.LASF107:
 3201 08aa 63685F69 		.ascii	"ch_identifier\000"
 3201      64656E74 
 3201      69666965 
 3201      7200
ARM GAS  /tmp/ccSOQyUc.s 			page 64


 3202              	.LASF70:
 3203 08b8 76745F66 		.ascii	"vt_func\000"
 3203      756E6300 
 3204              		.ident	"GCC: (GNU Tools for Arm Embedded Processors 7-2018-q3-update) 7.3.1 20180622 (release) [AR
ARM GAS  /tmp/ccSOQyUc.s 			page 65


DEFINED SYMBOLS
                            *ABS*:0000000000000000 timeout.c
     /tmp/ccSOQyUc.s:18     .text.timeout_thread:0000000000000000 $t
     /tmp/ccSOQyUc.s:25     .text.timeout_thread:0000000000000000 timeout_thread
     /tmp/ccSOQyUc.s:123    .text.timeout_thread:0000000000000060 $d
     /tmp/ccSOQyUc.s:134    .text.timeout_init:0000000000000000 $t
     /tmp/ccSOQyUc.s:142    .text.timeout_init:0000000000000000 timeout_init
     /tmp/ccSOQyUc.s:197    .text.timeout_init:0000000000000030 $d
     /tmp/ccSOQyUc.s:207    .text.timeout_configure:0000000000000000 $t
     /tmp/ccSOQyUc.s:215    .text.timeout_configure:0000000000000000 timeout_configure
     /tmp/ccSOQyUc.s:236    .text.timeout_configure:000000000000000c $d
     /tmp/ccSOQyUc.s:242    .text.timeout_reset:0000000000000000 $t
     /tmp/ccSOQyUc.s:250    .text.timeout_reset:0000000000000000 timeout_reset
     /tmp/ccSOQyUc.s:331    .text.timeout_reset:0000000000000018 $d
     /tmp/ccSOQyUc.s:337    .text.timeout_has_timeout:0000000000000000 $t
     /tmp/ccSOQyUc.s:345    .text.timeout_has_timeout:0000000000000000 timeout_has_timeout
     /tmp/ccSOQyUc.s:360    .text.timeout_has_timeout:0000000000000008 $d
     /tmp/ccSOQyUc.s:365    .text.timeout_get_timeout_msec:0000000000000000 $t
     /tmp/ccSOQyUc.s:373    .text.timeout_get_timeout_msec:0000000000000000 timeout_get_timeout_msec
     /tmp/ccSOQyUc.s:388    .text.timeout_get_timeout_msec:0000000000000008 $d
     /tmp/ccSOQyUc.s:393    .text.timeout_get_brake_current:0000000000000000 $t
     /tmp/ccSOQyUc.s:401    .text.timeout_get_brake_current:0000000000000000 timeout_get_brake_current
     /tmp/ccSOQyUc.s:416    .text.timeout_get_brake_current:0000000000000008 $d
     /tmp/ccSOQyUc.s:424    .bss.has_timeout:0000000000000000 has_timeout
     /tmp/ccSOQyUc.s:425    .bss.has_timeout:0000000000000000 $d
     /tmp/ccSOQyUc.s:427    .bss.last_update_time:0000000000000000 $d
     /tmp/ccSOQyUc.s:431    .bss.last_update_time:0000000000000000 last_update_time
     /tmp/ccSOQyUc.s:434    .bss.timeout_brake_current:0000000000000000 $d
     /tmp/ccSOQyUc.s:438    .bss.timeout_brake_current:0000000000000000 timeout_brake_current
     /tmp/ccSOQyUc.s:441    .bss.timeout_msec:0000000000000000 $d
     /tmp/ccSOQyUc.s:445    .bss.timeout_msec:0000000000000000 timeout_msec
     /tmp/ccSOQyUc.s:448    .bss.timeout_thread_wa:0000000000000000 $d
     /tmp/ccSOQyUc.s:452    .bss.timeout_thread_wa:0000000000000000 timeout_thread_wa
     /tmp/ccSOQyUc.s:455    .rodata.timeout_thread.str1.4:0000000000000000 $d

UNDEFINED SYMBOLS
chThdSleep
mc_interface_unlock
mc_interface_set_brake_current
ch
chThdCreateStatic
