ARM GAS  /tmp/ccSOQyUc.s 			page 1


   1              		.cpu cortex-m4
   2              		.eabi_attribute 27, 1
   3              		.eabi_attribute 28, 1
   4              		.eabi_attribute 20, 1
   5              		.eabi_attribute 21, 1
   6              		.eabi_attribute 23, 3
   7              		.eabi_attribute 24, 1
   8              		.eabi_attribute 25, 1
   9              		.eabi_attribute 26, 1
  10              		.eabi_attribute 30, 2
  11              		.eabi_attribute 34, 1
  12              		.eabi_attribute 18, 4
  13              		.file	"timeout.c"
  14              		.text
  15              	.Ltext0:
  16              		.cfi_sections	.debug_frame
  17              		.section	.text.timeout_thread,"ax",%progbits
  18              		.align	1
  19              		.p2align 4,,15
  20              		.syntax unified
  21              		.thumb
  22              		.thumb_func
  23              		.fpu fpv4-sp-d16
  24              		.type	timeout_thread, %function
  25              	timeout_thread:
  26              	.LFB225:
  27              		.file 1 "timeout.c"
  28              		.loc 1 63 0
  29              		.cfi_startproc
  30              		@ Volatile: function does not return.
  31              		@ args = 0, pretend = 0, frame = 0
  32              		@ frame_needed = 0, uses_anonymous_args = 0
  33              	.LVL0:
  34 0000 2DE98848 		push	{r3, r7, fp, lr}
  35              		.cfi_def_cfa_offset 16
  36              		.cfi_offset 3, -16
  37              		.cfi_offset 7, -12
  38              		.cfi_offset 11, -8
  39              		.cfi_offset 14, -4
  40              	.LBB47:
  41              	.LBB48:
  42              		.file 2 "ChibiOS_3.0.2/os/rt/include/chregistry.h"
  43              		.loc 2 135 0
  44 0004 164F     		ldr	r7, .L11
  45 0006 174A     		ldr	r2, .L11+4
  46 0008 BB69     		ldr	r3, [r7, #24]
  47 000a 174C     		ldr	r4, .L11+8
  48 000c DFF860A0 		ldr	r10, .L11+16
  49 0010 DFF860B0 		ldr	fp, .L11+20
  50 0014 154D     		ldr	r5, .L11+12
  51              	.LBE48:
  52              	.LBE47:
  53              		.loc 1 69 0
  54 0016 DFF86090 		ldr	r9, .L11+24
  55              	.LBB50:
  56              	.LBB49:
  57              		.loc 2 135 0
ARM GAS  /tmp/ccSOQyUc.s 			page 2


  58 001a 9A61     		str	r2, [r3, #24]
  59              	.LBE49:
  60              	.LBE50:
  61              		.loc 1 74 0
  62 001c 0026     		movs	r6, #0
  63              		.loc 1 69 0
  64 001e 42F21078 		movw	r8, #10000
  65              	.LVL1:
  66              	.L4:
  67 0022 2368     		ldr	r3, [r4]
  68 0024 6BB1     		cbz	r3, .L2
  69              		.loc 1 69 0 is_stmt 0 discriminator 1
  70 0026 DAF80010 		ldr	r1, [r10]
  71              	.LVL2:
  72              	.LBB51:
  73              	.LBB52:
  74              	.LBB53:
  75              	.LBB54:
  76              		.file 3 "ChibiOS_3.0.2/os/rt/include/chvt.h"
  77              		.loc 3 231 0 is_stmt 1 discriminator 1
  78 002a BA6A     		ldr	r2, [r7, #40]
  79              	.LVL3:
  80              	.LBE54:
  81              	.LBE53:
  82              	.LBE52:
  83              	.LBE51:
  84              		.loc 1 69 0 discriminator 1
  85 002c 2368     		ldr	r3, [r4]
  86 002e 08FB03F3 		mul	r3, r8, r3
  87 0032 03F2E733 		addw	r3, r3, #999
  88              	.LBB56:
  89              	.LBB55:
  90              		.loc 3 267 0 discriminator 1
  91 0036 521A     		subs	r2, r2, r1
  92              	.LBE55:
  93              	.LBE56:
  94              		.loc 1 69 0 discriminator 1
  95 0038 A9FB0313 		umull	r1, r3, r9, r3
  96 003c B2EB931F 		cmp	r2, r3, lsr #6
  97 0040 04D8     		bhi	.L10
  98              	.L2:
  99              		.loc 1 74 0
 100 0042 2E70     		strb	r6, [r5]
 101              	.L3:
 102              		.loc 1 77 0
 103 0044 6420     		movs	r0, #100
 104 0046 FFF7FEFF 		bl	chThdSleep
 105              	.LVL4:
 106              		.loc 1 69 0
 107 004a EAE7     		b	.L4
 108              	.L10:
 109              		.loc 1 70 0
 110 004c FFF7FEFF 		bl	mc_interface_unlock
 111              	.LVL5:
 112              		.loc 1 71 0
 113 0050 9BED000A 		vldr.32	s0, [fp]
 114 0054 FFF7FEFF 		bl	mc_interface_set_brake_current
ARM GAS  /tmp/ccSOQyUc.s 			page 3


 115              	.LVL6:
 116              		.loc 1 72 0
 117 0058 0123     		movs	r3, #1
 118 005a 2B70     		strb	r3, [r5]
 119 005c F2E7     		b	.L3
 120              	.L12:
 121 005e 00BF     		.align	2
 122              	.L11:
 123 0060 00000000 		.word	ch
 124 0064 00000000 		.word	.LC0
 125 0068 00000000 		.word	.LANCHOR0
 126 006c 00000000 		.word	.LANCHOR3
 127 0070 00000000 		.word	.LANCHOR1
 128 0074 00000000 		.word	.LANCHOR2
 129 0078 D34D6210 		.word	274877907
 130              		.cfi_endproc
 131              	.LFE225:
 132              		.size	timeout_thread, .-timeout_thread
 133              		.section	.text.timeout_init,"ax",%progbits
 134              		.align	1
 135              		.p2align 4,,15
 136              		.global	timeout_init
 137              		.syntax unified
 138              		.thumb
 139              		.thumb_func
 140              		.fpu fpv4-sp-d16
 141              		.type	timeout_init, %function
 142              	timeout_init:
 143              	.LFB219:
 144              		.loc 1 33 0
 145              		.cfi_startproc
 146              		@ args = 0, pretend = 0, frame = 0
 147              		@ frame_needed = 0, uses_anonymous_args = 0
 148 0000 70B5     		push	{r4, r5, r6, lr}
 149              		.cfi_def_cfa_offset 16
 150              		.cfi_offset 4, -16
 151              		.cfi_offset 5, -12
 152              		.cfi_offset 6, -8
 153              		.cfi_offset 14, -4
 154              		.loc 1 34 0
 155 0002 0B4C     		ldr	r4, .L15
 156              		.loc 1 35 0
 157 0004 0B4A     		ldr	r2, .L15+4
 158              		.loc 1 36 0
 159 0006 0C49     		ldr	r1, .L15+8
 160              		.loc 1 37 0
 161 0008 0C4D     		ldr	r5, .L15+12
 162              		.loc 1 39 0
 163 000a 0D4B     		ldr	r3, .L15+16
 164              		.loc 1 33 0
 165 000c 82B0     		sub	sp, sp, #8
 166              		.cfi_def_cfa_offset 24
 167              		.loc 1 34 0
 168 000e 4FF47A76 		mov	r6, #1000
 169 0012 2660     		str	r6, [r4]
 170              		.loc 1 36 0
 171 0014 0020     		movs	r0, #0
ARM GAS  /tmp/ccSOQyUc.s 			page 4


 172              		.loc 1 35 0
 173 0016 0024     		movs	r4, #0
 174              		.loc 1 39 0
 175 0018 0094     		str	r4, [sp]
 176              		.loc 1 35 0
 177 001a 1460     		str	r4, [r2]
 178              		.loc 1 36 0
 179 001c 0860     		str	r0, [r1]	@ float
 180              		.loc 1 39 0
 181 001e 4022     		movs	r2, #64
 182 0020 4FF46671 		mov	r1, #920
 183 0024 0748     		ldr	r0, .L15+20
 184              		.loc 1 37 0
 185 0026 2C70     		strb	r4, [r5]
 186              		.loc 1 39 0
 187 0028 FFF7FEFF 		bl	chThdCreateStatic
 188              	.LVL7:
 189              		.loc 1 40 0
 190 002c 02B0     		add	sp, sp, #8
 191              		.cfi_def_cfa_offset 16
 192              		@ sp needed
 193 002e 70BD     		pop	{r4, r5, r6, pc}
 194              	.L16:
 195              		.align	2
 196              	.L15:
 197 0030 00000000 		.word	.LANCHOR0
 198 0034 00000000 		.word	.LANCHOR1
 199 0038 00000000 		.word	.LANCHOR2
 200 003c 00000000 		.word	.LANCHOR3
 201 0040 00000000 		.word	timeout_thread
 202 0044 00000000 		.word	.LANCHOR4
 203              		.cfi_endproc
 204              	.LFE219:
 205              		.size	timeout_init, .-timeout_init
 206              		.section	.text.timeout_configure,"ax",%progbits
 207              		.align	1
 208              		.p2align 4,,15
 209              		.global	timeout_configure
 210              		.syntax unified
 211              		.thumb
 212              		.thumb_func
 213              		.fpu fpv4-sp-d16
 214              		.type	timeout_configure, %function
 215              	timeout_configure:
 216              	.LFB220:
 217              		.loc 1 42 0
 218              		.cfi_startproc
 219              		@ args = 0, pretend = 0, frame = 0
 220              		@ frame_needed = 0, uses_anonymous_args = 0
 221              		@ link register save eliminated.
 222              	.LVL8:
 223              		.loc 1 43 0
 224 0000 024A     		ldr	r2, .L18
 225              		.loc 1 44 0
 226 0002 034B     		ldr	r3, .L18+4
 227              		.loc 1 43 0
 228 0004 1060     		str	r0, [r2]
ARM GAS  /tmp/ccSOQyUc.s 			page 5


 229              		.loc 1 44 0
 230 0006 83ED000A 		vstr.32	s0, [r3]
 231              		.loc 1 45 0
 232 000a 7047     		bx	lr
 233              	.L19:
 234              		.align	2
 235              	.L18:
 236 000c 00000000 		.word	.LANCHOR0
 237 0010 00000000 		.word	.LANCHOR2
 238              		.cfi_endproc
 239              	.LFE220:
 240              		.size	timeout_configure, .-timeout_configure
 241              		.section	.text.timeout_reset,"ax",%progbits
 242              		.align	1
 243              		.p2align 4,,15
 244              		.global	timeout_reset
 245              		.syntax unified
 246              		.thumb
 247              		.thumb_func
 248              		.fpu fpv4-sp-d16
 249              		.type	timeout_reset, %function
 250              	timeout_reset:
 251              	.LFB221:
 252              		.loc 1 47 0
 253              		.cfi_startproc
 254              		@ args = 0, pretend = 0, frame = 0
 255              		@ frame_needed = 0, uses_anonymous_args = 0
 256              		@ link register save eliminated.
 257              	.LVL9:
 258              	.LBB57:
 259              	.LBB58:
 260              	.LBB59:
 261              	.LBB60:
 262              	.LBB61:
 263              	.LBB62:
 264              		.file 4 "ChibiOS_3.0.2/os/ext/CMSIS/include/core_cmFunc.h"
 265              		.loc 4 546 0
 266 0000 2023     		movs	r3, #32
 267              		.syntax unified
 268              	@ 546 "ChibiOS_3.0.2/os/ext/CMSIS/include/core_cmFunc.h" 1
 269 0002 83F31188 		MSR basepri, r3
 270              	@ 0 "" 2
 271              	.LVL10:
 272              		.thumb
 273              		.syntax unified
 274              	.LBE62:
 275              	.LBE61:
 276              	.LBE60:
 277              	.LBE59:
 278              	.LBB63:
 279              	.LBB64:
 280              		.loc 3 231 0
 281 0006 044A     		ldr	r2, .L21
 282              	.LBE64:
 283              	.LBE63:
 284              	.LBB66:
 285              	.LBB67:
ARM GAS  /tmp/ccSOQyUc.s 			page 6


 286              	.LBB68:
 287              	.LBB69:
 288              	.LBB70:
 289              		.loc 4 546 0
 290 0008 0023     		movs	r3, #0
 291              	.LBE70:
 292              	.LBE69:
 293              	.LBE68:
 294              	.LBE67:
 295              	.LBE66:
 296              	.LBB75:
 297              	.LBB65:
 298              		.loc 3 231 0
 299 000a 926A     		ldr	r2, [r2, #40]
 300              	.LVL11:
 301              	.LBE65:
 302              	.LBE75:
 303              	.LBB76:
 304              	.LBB74:
 305              	.LBB73:
 306              	.LBB72:
 307              	.LBB71:
 308              		.loc 4 546 0
 309              		.syntax unified
 310              	@ 546 "ChibiOS_3.0.2/os/ext/CMSIS/include/core_cmFunc.h" 1
 311 000c 83F31188 		MSR basepri, r3
 312              	@ 0 "" 2
 313              	.LVL12:
 314              		.thumb
 315              		.syntax unified
 316              	.LBE71:
 317              	.LBE72:
 318              	.LBE73:
 319              	.LBE74:
 320              	.LBE76:
 321              	.LBE58:
 322              	.LBE57:
 323              		.loc 1 48 0
 324 0010 024B     		ldr	r3, .L21+4
 325 0012 1A60     		str	r2, [r3]
 326              		.loc 1 49 0
 327 0014 7047     		bx	lr
 328              	.L22:
 329 0016 00BF     		.align	2
 330              	.L21:
 331 0018 00000000 		.word	ch
 332 001c 00000000 		.word	.LANCHOR1
 333              		.cfi_endproc
 334              	.LFE221:
 335              		.size	timeout_reset, .-timeout_reset
 336              		.section	.text.timeout_has_timeout,"ax",%progbits
 337              		.align	1
 338              		.p2align 4,,15
 339              		.global	timeout_has_timeout
 340              		.syntax unified
 341              		.thumb
 342              		.thumb_func
ARM GAS  /tmp/ccSOQyUc.s 			page 7


 343              		.fpu fpv4-sp-d16
 344              		.type	timeout_has_timeout, %function
 345              	timeout_has_timeout:
 346              	.LFB222:
 347              		.loc 1 51 0
 348              		.cfi_startproc
 349              		@ args = 0, pretend = 0, frame = 0
 350              		@ frame_needed = 0, uses_anonymous_args = 0
 351              		@ link register save eliminated.
 352              		.loc 1 52 0
 353 0000 014B     		ldr	r3, .L24
 354 0002 1878     		ldrb	r0, [r3]	@ zero_extendqisi2
 355              		.loc 1 53 0
 356 0004 7047     		bx	lr
 357              	.L25:
 358 0006 00BF     		.align	2
 359              	.L24:
 360 0008 00000000 		.word	.LANCHOR3
 361              		.cfi_endproc
 362              	.LFE222:
 363              		.size	timeout_has_timeout, .-timeout_has_timeout
 364              		.section	.text.timeout_get_timeout_msec,"ax",%progbits
 365              		.align	1
 366              		.p2align 4,,15
 367              		.global	timeout_get_timeout_msec
 368              		.syntax unified
 369              		.thumb
 370              		.thumb_func
 371              		.fpu fpv4-sp-d16
 372              		.type	timeout_get_timeout_msec, %function
 373              	timeout_get_timeout_msec:
 374              	.LFB223:
 375              		.loc 1 55 0
 376              		.cfi_startproc
 377              		@ args = 0, pretend = 0, frame = 0
 378              		@ frame_needed = 0, uses_anonymous_args = 0
 379              		@ link register save eliminated.
 380              		.loc 1 56 0
 381 0000 014B     		ldr	r3, .L27
 382 0002 1868     		ldr	r0, [r3]
 383              		.loc 1 57 0
 384 0004 7047     		bx	lr
 385              	.L28:
 386 0006 00BF     		.align	2
 387              	.L27:
 388 0008 00000000 		.word	.LANCHOR0
 389              		.cfi_endproc
 390              	.LFE223:
 391              		.size	timeout_get_timeout_msec, .-timeout_get_timeout_msec
 392              		.section	.text.timeout_get_brake_current,"ax",%progbits
 393              		.align	1
 394              		.p2align 4,,15
 395              		.global	timeout_get_brake_current
 396              		.syntax unified
 397              		.thumb
 398              		.thumb_func
 399              		.fpu fpv4-sp-d16
ARM GAS  /tmp/ccSOQyUc.s 			page 8


 400              		.type	timeout_get_brake_current, %function
 401              	timeout_get_brake_current:
 402              	.LFB224:
 403              		.loc 1 59 0
 404              		.cfi_startproc
 405              		@ args = 0, pretend = 0, frame = 0
 406              		@ frame_needed = 0, uses_anonymous_args = 0
 407              		@ link register save eliminated.
 408              		.loc 1 60 0
 409 0000 014B     		ldr	r3, .L30
 410 0002 93ED000A 		vldr.32	s0, [r3]
 411              		.loc 1 61 0
 412 0006 7047     		bx	lr
 413              	.L31:
 414              		.align	2
 415              	.L30:
 416 0008 00000000 		.word	.LANCHOR2
 417              		.cfi_endproc
 418              	.LFE224:
 419              		.size	timeout_get_brake_current, .-timeout_get_brake_current
 420              		.section	.bss.has_timeout,"aw",%nobits
 421              		.set	.LANCHOR3,. + 0
 422              		.type	has_timeout, %object
 423              		.size	has_timeout, 1
 424              	has_timeout:
 425 0000 00       		.space	1
 426              		.section	.bss.last_update_time,"aw",%nobits
 427              		.align	2
 428              		.set	.LANCHOR1,. + 0
 429              		.type	last_update_time, %object
 430              		.size	last_update_time, 4
 431              	last_update_time:
 432 0000 00000000 		.space	4
 433              		.section	.bss.timeout_brake_current,"aw",%nobits
 434              		.align	2
 435              		.set	.LANCHOR2,. + 0
 436              		.type	timeout_brake_current, %object
 437              		.size	timeout_brake_current, 4
 438              	timeout_brake_current:
 439 0000 00000000 		.space	4
 440              		.section	.bss.timeout_msec,"aw",%nobits
 441              		.align	2
 442              		.set	.LANCHOR0,. + 0
 443              		.type	timeout_msec, %object
 444              		.size	timeout_msec, 4
 445              	timeout_msec:
 446 0000 00000000 		.space	4
 447              		.section	.bss.timeout_thread_wa,"aw",%nobits
 448              		.align	3
 449              		.set	.LANCHOR4,. + 0
 450              		.type	timeout_thread_wa, %object
 451              		.size	timeout_thread_wa, 920
 452              	timeout_thread_wa:
 453 0000 00000000 		.space	920
 453      00000000 
 453      00000000 
 453      00000000 
ARM GAS  /tmp/ccSOQyUc.s 			page 9


 453      00000000 
 454              		.section	.rodata.timeout_thread.str1.4,"aMS",%progbits,1
 455              		.align	2
 456              	.LC0:
 457 0000 54696D65 		.ascii	"Timeout\000"
 457      6F757400 
 458              		.text
 459              	.Letext0:
 460              		.file 5 "/usr/lib/gcc/arm-none-eabi/7.3.1/include/stddef.h"
 461              		.file 6 "/usr/arm-none-eabi/include/machine/_default_types.h"
 462              		.file 7 "/usr/arm-none-eabi/include/sys/_stdint.h"
 463              		.file 8 "ChibiOS_3.0.2/os/rt/ports/ARMCMx/compilers/GCC/chtypes.h"
 464              		.file 9 "ChibiOS_3.0.2/os/rt/include/chsystypes.h"
 465              		.file 10 "ChibiOS_3.0.2/os/rt/include/chschd.h"
 466              		.file 11 "ChibiOS_3.0.2/os/ext/CMSIS/include/core_cm4.h"
 467              		.file 12 "ChibiOS_3.0.2/os/ext/CMSIS/ST/system_stm32f4xx.h"
 468              		.file 13 "ChibiOS_3.0.2/os/rt/ports/ARMCMx/chcore.h"
 469              		.file 14 "ChibiOS_3.0.2/os/rt/ports/ARMCMx/chcore_v7m.h"
 470              		.file 15 "ChibiOS_3.0.2/os/rt/include/chtm.h"
 471              		.file 16 "ChibiOS_3.0.2/os/rt/include/chsem.h"
 472              		.file 17 "ChibiOS_3.0.2/os/rt/include/chmtx.h"
 473              		.file 18 "conf_general.h"
 474              		.file 19 "mc_interface.h"
 475              		.file 20 "ChibiOS_3.0.2/os/rt/include/chsys.h"
 476              		.file 21 "ChibiOS_3.0.2/os/rt/include/chthreads.h"