ARM GAS  /tmp/cc9JOrIR.s 			page 1


   1              		.cpu cortex-m4
   2              		.eabi_attribute 27, 1
   3              		.eabi_attribute 28, 1
   4              		.eabi_attribute 20, 1
   5              		.eabi_attribute 21, 1
   6              		.eabi_attribute 23, 3
   7              		.eabi_attribute 24, 1
   8              		.eabi_attribute 25, 1
   9              		.eabi_attribute 26, 1
  10              		.eabi_attribute 30, 2
  11              		.eabi_attribute 34, 1
  12              		.eabi_attribute 18, 4
  13              		.file	"uart_lld.c"
  14              		.text
  15              	.Ltext0:
  16              		.cfi_sections	.debug_frame
  17              		.section	.text.usart_stop,"ax",%progbits
  18              		.align	1
  19              		.p2align 4,,15
  20              		.syntax unified
  21              		.thumb
  22              		.thumb_func
  23              		.fpu fpv4-sp-d16
  24              		.type	usart_stop, %function
  25              	usart_stop:
  26              	.LFB258:
  27              		.file 1 "ChibiOS_3.0.2/os/hal/ports/STM32/LLD/USARTv1/uart_lld.c"
  28              		.loc 1 180 0
  29              		.cfi_startproc
  30              		@ args = 0, pretend = 0, frame = 0
  31              		@ frame_needed = 0, uses_anonymous_args = 0
  32              		@ link register save eliminated.
  33              	.LVL0:
  34              		.loc 1 183 0
  35 0000 0169     		ldr	r1, [r0, #16]
  36 0002 0A68     		ldr	r2, [r1]
  37 0004 1368     		ldr	r3, [r2]
  38 0006 23F01F03 		bic	r3, r3, #31
  39              		.loc 1 180 0
  40 000a 30B4     		push	{r4, r5}
  41              		.cfi_def_cfa_offset 8
  42              		.cfi_offset 4, -8
  43              		.cfi_offset 5, -4
  44              		.loc 1 183 0
  45 000c 1360     		str	r3, [r2]
  46              	.L2:
  47              		.loc 1 183 0 is_stmt 0 discriminator 2
  48 000e 1368     		ldr	r3, [r2]
  49 0010 DB07     		lsls	r3, r3, #31
  50 0012 FCD4     		bmi	.L2
  51              		.loc 1 183 0 discriminator 3
  52 0014 0D7A     		ldrb	r5, [r1, #8]	@ zero_extendqisi2
  53              		.loc 1 184 0 is_stmt 1 discriminator 3
  54 0016 4469     		ldr	r4, [r0, #20]
  55              		.loc 1 183 0 discriminator 3
  56 0018 4968     		ldr	r1, [r1, #4]
  57              		.loc 1 184 0 discriminator 3
ARM GAS  /tmp/cc9JOrIR.s 			page 2


  58 001a 2268     		ldr	r2, [r4]
  59              		.loc 1 183 0 discriminator 3
  60 001c 3D23     		movs	r3, #61
  61 001e AB40     		lsls	r3, r3, r5
  62 0020 0B60     		str	r3, [r1]
  63              		.loc 1 184 0 discriminator 3
  64 0022 1368     		ldr	r3, [r2]
  65 0024 23F01F03 		bic	r3, r3, #31
  66 0028 1360     		str	r3, [r2]
  67              	.L3:
  68              		.loc 1 184 0 is_stmt 0 discriminator 2
  69 002a 1368     		ldr	r3, [r2]
  70 002c 13F00103 		ands	r3, r3, #1
  71 0030 FBD1     		bne	.L3
  72              		.loc 1 184 0 discriminator 3
  73 0032 257A     		ldrb	r5, [r4, #8]	@ zero_extendqisi2
  74              		.loc 1 187 0 is_stmt 1 discriminator 3
  75 0034 8268     		ldr	r2, [r0, #8]
  76              		.loc 1 184 0 discriminator 3
  77 0036 6068     		ldr	r0, [r4, #4]
  78              	.LVL1:
  79 0038 3D21     		movs	r1, #61
  80 003a A940     		lsls	r1, r1, r5
  81 003c 0160     		str	r1, [r0]
  82              		.loc 1 190 0 discriminator 3
  83 003e 30BC     		pop	{r4, r5}
  84              		.cfi_restore 5
  85              		.cfi_restore 4
  86              		.cfi_def_cfa_offset 0
  87              		.loc 1 187 0 discriminator 3
  88 0040 D360     		str	r3, [r2, #12]
  89              		.loc 1 188 0 discriminator 3
  90 0042 1361     		str	r3, [r2, #16]
  91              		.loc 1 189 0 discriminator 3
  92 0044 5361     		str	r3, [r2, #20]
  93              		.loc 1 190 0 discriminator 3
  94 0046 7047     		bx	lr
  95              		.cfi_endproc
  96              	.LFE258:
  97              		.size	usart_stop, .-usart_stop
  98              		.section	.text.serve_usart_irq,"ax",%progbits
  99              		.align	1
 100              		.p2align 4,,15
 101              		.syntax unified
 102              		.thumb
 103              		.thumb_func
 104              		.fpu fpv4-sp-d16
 105              		.type	serve_usart_irq, %function
 106              	serve_usart_irq:
 107              	.LFB262:
 108              		.loc 1 310 0
 109              		.cfi_startproc
 110              		@ args = 0, pretend = 0, frame = 0
 111              		@ frame_needed = 0, uses_anonymous_args = 0
 112              	.LVL2:
 113 0000 2DE9F041 		push	{r4, r5, r6, r7, r8, lr}
 114              		.cfi_def_cfa_offset 24
ARM GAS  /tmp/cc9JOrIR.s 			page 3


 115              		.cfi_offset 4, -24
 116              		.cfi_offset 5, -20
 117              		.cfi_offset 6, -16
 118              		.cfi_offset 7, -12
 119              		.cfi_offset 8, -8
 120              		.cfi_offset 14, -4
 121              		.loc 1 312 0
 122 0004 8468     		ldr	r4, [r0, #8]
 123              	.LVL3:
 124              		.loc 1 313 0
 125 0006 E768     		ldr	r7, [r4, #12]
 126              	.LVL4:
 127              		.loc 1 315 0
 128 0008 2668     		ldr	r6, [r4]
 129              	.LVL5:
 130              		.loc 1 316 0
 131 000a 6268     		ldr	r2, [r4, #4]
 132              		.loc 1 318 0
 133 000c 40F20F13 		movw	r3, #271
 134 0010 1E42     		tst	r6, r3
 135              		.loc 1 310 0
 136 0012 0546     		mov	r5, r0
 137              		.loc 1 318 0
 138 0014 1DD0     		beq	.L10
 139              		.loc 1 321 0
 140 0016 4368     		ldr	r3, [r0, #4]
 141 0018 1A69     		ldr	r2, [r3, #16]
 142              		.loc 1 320 0
 143 001a 6FF48073 		mvn	r3, #256
 144 001e 2360     		str	r3, [r4]
 145              		.loc 1 321 0
 146 0020 BAB1     		cbz	r2, .L10
 147              		.loc 1 315 0
 148 0022 B3B2     		uxth	r3, r6
 149              	.LVL6:
 150              	.LBB18:
 151              	.LBB19:
 152              		.loc 1 142 0
 153 0024 13F0080F 		tst	r3, #8
 154 0028 0CBF     		ite	eq
 155 002a 0021     		moveq	r1, #0
 156 002c 1021     		movne	r1, #16
 157              	.LVL7:
 158              		.loc 1 143 0
 159 002e D807     		lsls	r0, r3, #31
 160              	.LVL8:
 161              		.loc 1 144 0
 162 0030 48BF     		it	mi
 163 0032 41F00401 		orrmi	r1, r1, #4
 164              	.LVL9:
 165              		.loc 1 145 0
 166 0036 9807     		lsls	r0, r3, #30
 167              		.loc 1 146 0
 168 0038 48BF     		it	mi
 169 003a 41F00801 		orrmi	r1, r1, #8
 170              	.LVL10:
 171              		.loc 1 147 0
ARM GAS  /tmp/cc9JOrIR.s 			page 4


 172 003e 5807     		lsls	r0, r3, #29
 173              		.loc 1 148 0
 174 0040 48BF     		it	mi
 175 0042 41F02001 		orrmi	r1, r1, #32
 176              	.LVL11:
 177              		.loc 1 149 0
 178 0046 D805     		lsls	r0, r3, #23
 179              		.loc 1 150 0
 180 0048 48BF     		it	mi
 181 004a 41F04001 		orrmi	r1, r1, #64
 182              	.LVL12:
 183              	.LBE19:
 184              	.LBE18:
 185              		.loc 1 322 0
 186 004e 2846     		mov	r0, r5
 187 0050 9047     		blx	r2
 188              	.LVL13:
 189              	.L10:
 190              		.loc 1 325 0
 191 0052 7206     		lsls	r2, r6, #25
 192 0054 0ED5     		bpl	.L8
 193              		.loc 1 325 0 is_stmt 0 discriminator 1
 194 0056 7B06     		lsls	r3, r7, #25
 195 0058 0CD5     		bpl	.L8
 196              		.loc 1 331 0 is_stmt 1
 197 005a 6B68     		ldr	r3, [r5, #4]
 198 005c 5B68     		ldr	r3, [r3, #4]
 199              		.loc 1 328 0
 200 005e 27F04007 		bic	r7, r7, #64
 201              	.LVL14:
 202              		.loc 1 327 0
 203 0062 6FF04002 		mvn	r2, #64
 204 0066 2260     		str	r2, [r4]
 205              		.loc 1 328 0
 206 0068 E760     		str	r7, [r4, #12]
 207              		.loc 1 331 0
 208 006a 1BB1     		cbz	r3, .L8
 209              		.loc 1 332 0
 210 006c 2846     		mov	r0, r5
 211              		.loc 1 334 0
 212 006e BDE8F041 		pop	{r4, r5, r6, r7, r8, lr}
 213              		.cfi_remember_state
 214              		.cfi_restore 14
 215              		.cfi_restore 8
 216              		.cfi_restore 7
 217              		.cfi_restore 6
 218              		.cfi_restore 5
 219              		.cfi_restore 4
 220              		.cfi_def_cfa_offset 0
 221              	.LVL15:
 222              		.loc 1 332 0
 223 0072 1847     		bx	r3	@ indirect register sibling call
 224              	.LVL16:
 225              	.L8:
 226              		.cfi_restore_state
 227              		.loc 1 334 0
 228 0074 BDE8F081 		pop	{r4, r5, r6, r7, r8, pc}
ARM GAS  /tmp/cc9JOrIR.s 			page 5


 229              		.cfi_endproc
 230              	.LFE262:
 231              		.size	serve_usart_irq, .-serve_usart_irq
 232              		.section	.text.uart_lld_serve_tx_end_irq,"ax",%progbits
 233              		.align	1
 234              		.p2align 4,,15
 235              		.syntax unified
 236              		.thumb
 237              		.thumb_func
 238              		.fpu fpv4-sp-d16
 239              		.type	uart_lld_serve_tx_end_irq, %function
 240              	uart_lld_serve_tx_end_irq:
 241              	.LFB261:
 242              		.loc 1 281 0
 243              		.cfi_startproc
 244              		@ args = 0, pretend = 0, frame = 0
 245              		@ frame_needed = 0, uses_anonymous_args = 0
 246              	.LVL17:
 247              		.loc 1 285 0
 248 0000 11F00C0F 		tst	r1, #12
 249              		.loc 1 281 0
 250 0004 38B5     		push	{r3, r4, r5, lr}
 251              		.cfi_def_cfa_offset 16
 252              		.cfi_offset 3, -16
 253              		.cfi_offset 4, -12
 254              		.cfi_offset 5, -8
 255              		.cfi_offset 14, -4
 256              		.loc 1 281 0
 257 0006 0446     		mov	r4, r0
 258              		.loc 1 285 0
 259 0008 1BD1     		bne	.L57
 260              	.LVL18:
 261              	.L44:
 262              		.loc 1 292 0
 263 000a 6169     		ldr	r1, [r4, #20]
 264 000c 0A68     		ldr	r2, [r1]
 265 000e 1368     		ldr	r3, [r2]
 266 0010 23F01F03 		bic	r3, r3, #31
 267 0014 1360     		str	r3, [r2]
 268              	.L45:
 269              		.loc 1 292 0 is_stmt 0 discriminator 2
 270 0016 1368     		ldr	r3, [r2]
 271 0018 DB07     		lsls	r3, r3, #31
 272 001a FCD4     		bmi	.L45
 273              		.loc 1 296 0 is_stmt 1 discriminator 3
 274 001c 6368     		ldr	r3, [r4, #4]
 275              		.loc 1 292 0 discriminator 3
 276 001e 0D7A     		ldrb	r5, [r1, #8]	@ zero_extendqisi2
 277 0020 4868     		ldr	r0, [r1, #4]
 278              		.loc 1 296 0 discriminator 3
 279 0022 1A68     		ldr	r2, [r3]
 280              		.loc 1 292 0 discriminator 3
 281 0024 3D23     		movs	r3, #61
 282 0026 AB40     		lsls	r3, r3, r5
 283              		.loc 1 295 0 discriminator 3
 284 0028 0221     		movs	r1, #2
 285              		.loc 1 292 0 discriminator 3
ARM GAS  /tmp/cc9JOrIR.s 			page 6


 286 002a 0360     		str	r3, [r0]
 287              		.loc 1 295 0 discriminator 3
 288 002c 6170     		strb	r1, [r4, #1]
 289              		.loc 1 296 0 discriminator 3
 290 002e 2AB1     		cbz	r2, .L48
 291              		.loc 1 297 0
 292 0030 2046     		mov	r0, r4
 293 0032 9047     		blx	r2
 294              	.LVL19:
 295              		.loc 1 301 0
 296 0034 6378     		ldrb	r3, [r4, #1]	@ zero_extendqisi2
 297 0036 022B     		cmp	r3, #2
 298 0038 00D0     		beq	.L48
 299              		.loc 1 303 0
 300 003a 38BD     		pop	{r3, r4, r5, pc}
 301              	.LVL20:
 302              	.L48:
 303              		.loc 1 302 0
 304 003c 0023     		movs	r3, #0
 305 003e 6370     		strb	r3, [r4, #1]
 306              		.loc 1 303 0
 307 0040 38BD     		pop	{r3, r4, r5, pc}
 308              	.LVL21:
 309              	.L57:
 310              	.LBB20:
 311              	.LBB21:
 312              		.file 2 "ChibiOS_3.0.2/os/hal/osal/rt/osal.h"
 313              		.loc 2 462 0
 314 0042 0248     		ldr	r0, .L58
 315              	.LVL22:
 316 0044 FFF7FEFF 		bl	chSysHalt
 317              	.LVL23:
 318 0048 DFE7     		b	.L44
 319              	.L59:
 320 004a 00BF     		.align	2
 321              	.L58:
 322 004c 00000000 		.word	.LC0
 323              	.LBE21:
 324              	.LBE20:
 325              		.cfi_endproc
 326              	.LFE261:
 327              		.size	uart_lld_serve_tx_end_irq, .-uart_lld_serve_tx_end_irq
 328              		.section	.text.uart_lld_serve_rx_end_irq,"ax",%progbits
 329              		.align	1
 330              		.p2align 4,,15
 331              		.syntax unified
 332              		.thumb
 333              		.thumb_func
 334              		.fpu fpv4-sp-d16
 335              		.type	uart_lld_serve_rx_end_irq, %function
 336              	uart_lld_serve_rx_end_irq:
 337              	.LFB260:
 338              		.loc 1 241 0
 339              		.cfi_startproc
 340              		@ args = 0, pretend = 0, frame = 0
 341              		@ frame_needed = 0, uses_anonymous_args = 0
 342              	.LVL24:
ARM GAS  /tmp/cc9JOrIR.s 			page 7


 343              		.loc 1 245 0
 344 0000 11F00C0F 		tst	r1, #12
 345              		.loc 1 241 0
 346 0004 2DE9F041 		push	{r4, r5, r6, r7, r8, lr}
 347              		.cfi_def_cfa_offset 24
 348              		.cfi_offset 4, -24
 349              		.cfi_offset 5, -20
 350              		.cfi_offset 6, -16
 351              		.cfi_offset 7, -12
 352              		.cfi_offset 8, -8
 353              		.cfi_offset 14, -4
 354              		.loc 1 241 0
 355 0008 0446     		mov	r4, r0
 356              		.loc 1 245 0
 357 000a 3AD1     		bne	.L78
 358              	.LVL25:
 359              	.L61:
 360              		.loc 1 252 0
 361 000c A378     		ldrb	r3, [r4, #2]	@ zero_extendqisi2
 362 000e 6168     		ldr	r1, [r4, #4]
 363 0010 3BB9     		cbnz	r3, .L62
 364              		.loc 1 255 0
 365 0012 CB68     		ldr	r3, [r1, #12]
 366 0014 002B     		cmp	r3, #0
 367 0016 32D0     		beq	.L60
 368              		.loc 1 256 0
 369 0018 218B     		ldrh	r1, [r4, #24]
 370 001a 2046     		mov	r0, r4
 371              		.loc 1 273 0
 372 001c BDE8F041 		pop	{r4, r5, r6, r7, r8, lr}
 373              		.cfi_remember_state
 374              		.cfi_restore 14
 375              		.cfi_restore 8
 376              		.cfi_restore 7
 377              		.cfi_restore 6
 378              		.cfi_restore 5
 379              		.cfi_restore 4
 380              		.cfi_def_cfa_offset 0
 381              	.LVL26:
 382              		.loc 1 256 0
 383 0020 1847     		bx	r3	@ indirect register sibling call
 384              	.LVL27:
 385              	.L62:
 386              		.cfi_restore_state
 387              	.LBB30:
 388              	.LBB31:
 389              		.loc 1 261 0
 390 0022 2069     		ldr	r0, [r4, #16]
 391 0024 0268     		ldr	r2, [r0]
 392 0026 1368     		ldr	r3, [r2]
 393 0028 23F01F03 		bic	r3, r3, #31
 394 002c 1360     		str	r3, [r2]
 395              	.L65:
 396 002e 1368     		ldr	r3, [r2]
 397 0030 DB07     		lsls	r3, r3, #31
 398 0032 FCD4     		bmi	.L65
 399 0034 077A     		ldrb	r7, [r0, #8]	@ zero_extendqisi2
ARM GAS  /tmp/cc9JOrIR.s 			page 8


 400 0036 4668     		ldr	r6, [r0, #4]
 401              		.loc 1 263 0
 402 0038 8D68     		ldr	r5, [r1, #8]
 403              		.loc 1 261 0
 404 003a 3D23     		movs	r3, #61
 405 003c BB40     		lsls	r3, r3, r7
 406              		.loc 1 262 0
 407 003e 0220     		movs	r0, #2
 408              		.loc 1 261 0
 409 0040 3360     		str	r3, [r6]
 410              		.loc 1 262 0
 411 0042 A070     		strb	r0, [r4, #2]
 412              		.loc 1 263 0
 413 0044 3DB1     		cbz	r5, .L66
 414              		.loc 1 264 0
 415 0046 2046     		mov	r0, r4
 416 0048 A847     		blx	r5
 417              	.LVL28:
 418              		.loc 1 268 0
 419 004a A378     		ldrb	r3, [r4, #2]	@ zero_extendqisi2
 420 004c 022B     		cmp	r3, #2
 421 004e 16D1     		bne	.L60
 422 0050 2369     		ldr	r3, [r4, #16]
 423 0052 6168     		ldr	r1, [r4, #4]
 424 0054 1A68     		ldr	r2, [r3]
 425              	.L66:
 426              	.LBB32:
 427              	.LBB33:
 428              		.loc 1 164 0
 429 0056 CB68     		ldr	r3, [r1, #12]
 430              		.loc 1 170 0
 431 0058 E168     		ldr	r1, [r4, #12]
 432              		.loc 1 165 0
 433 005a 002B     		cmp	r3, #0
 434 005c 14BF     		ite	ne
 435 005e 4FF48873 		movne	r3, #272
 436 0062 4FF48073 		moveq	r3, #256
 437              		.loc 1 170 0
 438 0066 0B43     		orrs	r3, r3, r1
 439              	.LBE33:
 440              	.LBE32:
 441              		.loc 1 269 0
 442 0068 0025     		movs	r5, #0
 443              	.LBB36:
 444              	.LBB34:
 445              		.loc 1 169 0
 446 006a 0121     		movs	r1, #1
 447              		.loc 1 168 0
 448 006c 04F11800 		add	r0, r4, #24
 449              	.LBE34:
 450              	.LBE36:
 451              		.loc 1 269 0
 452 0070 A570     		strb	r5, [r4, #2]
 453              	.LVL29:
 454              	.LBB37:
 455              	.LBB35:
 456              		.loc 1 168 0
ARM GAS  /tmp/cc9JOrIR.s 			page 9


 457 0072 D060     		str	r0, [r2, #12]
 458              		.loc 1 169 0
 459 0074 5160     		str	r1, [r2, #4]
 460              		.loc 1 170 0
 461 0076 1360     		str	r3, [r2]
 462              		.loc 1 171 0
 463 0078 1368     		ldr	r3, [r2]
 464 007a 0B43     		orrs	r3, r3, r1
 465 007c 1360     		str	r3, [r2]
 466              	.LVL30:
 467              	.L60:
 468              	.LBE35:
 469              	.LBE37:
 470              	.LBE31:
 471              	.LBE30:
 472              		.loc 1 273 0
 473 007e BDE8F081 		pop	{r4, r5, r6, r7, r8, pc}
 474              	.LVL31:
 475              	.L78:
 476              	.LBB38:
 477              	.LBB39:
 478              		.loc 2 462 0
 479 0082 0248     		ldr	r0, .L79
 480              	.LVL32:
 481 0084 FFF7FEFF 		bl	chSysHalt
 482              	.LVL33:
 483 0088 C0E7     		b	.L61
 484              	.L80:
 485 008a 00BF     		.align	2
 486              	.L79:
 487 008c 00000000 		.word	.LC0
 488              	.LBE39:
 489              	.LBE38:
 490              		.cfi_endproc
 491              	.LFE260:
 492              		.size	uart_lld_serve_rx_end_irq, .-uart_lld_serve_rx_end_irq
 493              		.section	.text.VectorDC,"ax",%progbits
 494              		.align	1
 495              		.p2align 4,,15
 496              		.global	VectorDC
 497              		.syntax unified
 498              		.thumb
 499              		.thumb_func
 500              		.fpu fpv4-sp-d16
 501              		.type	VectorDC, %function
 502              	VectorDC:
 503              	.LFB263:
 504              		.loc 1 387 0
 505              		.cfi_startproc
 506              		@ args = 0, pretend = 0, frame = 0
 507              		@ frame_needed = 0, uses_anonymous_args = 0
 508 0000 08B5     		push	{r3, lr}
 509              		.cfi_def_cfa_offset 8
 510              		.cfi_offset 3, -8
 511              		.cfi_offset 14, -4
 512              		.loc 1 391 0
 513 0002 0348     		ldr	r0, .L83
ARM GAS  /tmp/cc9JOrIR.s 			page 10


 514 0004 FFF7FEFF 		bl	serve_usart_irq
 515              	.LVL34:
 516              		.loc 1 394 0
 517 0008 BDE80840 		pop	{r3, lr}
 518              		.cfi_restore 14
 519              		.cfi_restore 3
 520              		.cfi_def_cfa_offset 0
 521              		.loc 1 393 0
 522 000c FFF7FEBF 		b	_port_irq_epilogue
 523              	.LVL35:
 524              	.L84:
 525              		.align	2
 526              	.L83:
 527 0010 00000000 		.word	.LANCHOR0
 528              		.cfi_endproc
 529              	.LFE263:
 530              		.size	VectorDC, .-VectorDC
 531              		.section	.text.Vector15C,"ax",%progbits
 532              		.align	1
 533              		.p2align 4,,15
 534              		.global	Vector15C
 535              		.syntax unified
 536              		.thumb
 537              		.thumb_func
 538              		.fpu fpv4-sp-d16
 539              		.type	Vector15C, %function
 540              	Vector15C:
 541              	.LFB264:
 542              		.loc 1 444 0
 543              		.cfi_startproc
 544              		@ args = 0, pretend = 0, frame = 0
 545              		@ frame_needed = 0, uses_anonymous_args = 0
 546 0000 08B5     		push	{r3, lr}
 547              		.cfi_def_cfa_offset 8
 548              		.cfi_offset 3, -8
 549              		.cfi_offset 14, -4
 550              		.loc 1 448 0
 551 0002 0348     		ldr	r0, .L87
 552 0004 FFF7FEFF 		bl	serve_usart_irq
 553              	.LVL36:
 554              		.loc 1 451 0
 555 0008 BDE80840 		pop	{r3, lr}
 556              		.cfi_restore 14
 557              		.cfi_restore 3
 558              		.cfi_def_cfa_offset 0
 559              		.loc 1 450 0
 560 000c FFF7FEBF 		b	_port_irq_epilogue
 561              	.LVL37:
 562              	.L88:
 563              		.align	2
 564              	.L87:
 565 0010 00000000 		.word	.LANCHOR1
 566              		.cfi_endproc
 567              	.LFE264:
 568              		.size	Vector15C, .-Vector15C
 569              		.section	.text.uart_lld_init,"ax",%progbits
 570              		.align	1
ARM GAS  /tmp/cc9JOrIR.s 			page 11


 571              		.p2align 4,,15
 572              		.global	uart_lld_init
 573              		.syntax unified
 574              		.thumb
 575              		.thumb_func
 576              		.fpu fpv4-sp-d16
 577              		.type	uart_lld_init, %function
 578              	uart_lld_init:
 579              	.LFB265:
 580              		.loc 1 463 0
 581              		.cfi_startproc
 582              		@ args = 0, pretend = 0, frame = 0
 583              		@ frame_needed = 0, uses_anonymous_args = 0
 584 0000 70B5     		push	{r4, r5, r6, lr}
 585              		.cfi_def_cfa_offset 16
 586              		.cfi_offset 4, -16
 587              		.cfi_offset 5, -12
 588              		.cfi_offset 6, -8
 589              		.cfi_offset 14, -4
 590              		.loc 1 482 0
 591 0002 0C4D     		ldr	r5, .L91
 592              		.loc 1 485 0
 593 0004 0C4C     		ldr	r4, .L91+4
 594              		.loc 1 506 0
 595 0006 0D4E     		ldr	r6, .L91+8
 596              		.loc 1 482 0
 597 0008 2846     		mov	r0, r5
 598 000a FFF7FEFF 		bl	uartObjectInit
 599              	.LVL38:
 600              		.loc 1 483 0
 601 000e 0C4B     		ldr	r3, .L91+12
 602 0010 AB60     		str	r3, [r5, #8]
 603              		.loc 1 484 0
 604 0012 0622     		movs	r2, #6
 605              		.loc 1 486 0
 606 0014 04F11803 		add	r3, r4, #24
 607              		.loc 1 506 0
 608 0018 3046     		mov	r0, r6
 609              		.loc 1 485 0
 610 001a C5E90324 		strd	r2, r4, [r5, #12]
 611              		.loc 1 486 0
 612 001e 6B61     		str	r3, [r5, #20]
 613              		.loc 1 506 0
 614 0020 FFF7FEFF 		bl	uartObjectInit
 615              	.LVL39:
 616              		.loc 1 507 0
 617 0024 074B     		ldr	r3, .L91+16
 618 0026 B360     		str	r3, [r6, #8]
 619              		.loc 1 508 0
 620 0028 04F16C03 		add	r3, r4, #108
 621              		.loc 1 509 0
 622 002c A834     		adds	r4, r4, #168
 623 002e C6E90434 		strd	r3, r4, [r6, #16]
 624              		.loc 1 511 0
 625 0032 70BD     		pop	{r4, r5, r6, pc}
 626              	.L92:
 627              		.align	2
ARM GAS  /tmp/cc9JOrIR.s 			page 12


 628              	.L91:
 629 0034 00000000 		.word	.LANCHOR0
 630 0038 0C000000 		.word	_stm32_dma_streams+12
 631 003c 00000000 		.word	.LANCHOR1
 632 0040 00480040 		.word	1073760256
 633 0044 00140140 		.word	1073812480
 634              		.cfi_endproc
 635              	.LFE265:
 636              		.size	uart_lld_init, .-uart_lld_init
 637              		.section	.text.uart_lld_start,"ax",%progbits
 638              		.align	1
 639              		.p2align 4,,15
 640              		.global	uart_lld_start
 641              		.syntax unified
 642              		.thumb
 643              		.thumb_func
 644              		.fpu fpv4-sp-d16
 645              		.type	uart_lld_start, %function
 646              	uart_lld_start:
 647              	.LFB266:
 648              		.loc 1 520 0
 649              		.cfi_startproc
 650              		@ args = 0, pretend = 0, frame = 0
 651              		@ frame_needed = 0, uses_anonymous_args = 0
 652              	.LVL40:
 653 0000 F8B5     		push	{r3, r4, r5, r6, r7, lr}
 654              		.cfi_def_cfa_offset 24
 655              		.cfi_offset 3, -24
 656              		.cfi_offset 4, -20
 657              		.cfi_offset 5, -16
 658              		.cfi_offset 6, -12
 659              		.cfi_offset 7, -8
 660              		.cfi_offset 14, -4
 661              		.loc 1 522 0
 662 0002 0378     		ldrb	r3, [r0]	@ zero_extendqisi2
 663 0004 012B     		cmp	r3, #1
 664              		.loc 1 520 0
 665 0006 0446     		mov	r4, r0
 666              		.loc 1 522 0
 667 0008 40D0     		beq	.L94
 668 000a 8568     		ldr	r5, [r0, #8]
 669              	.LVL41:
 670              	.L95:
 671              		.loc 1 664 0
 672 000c 0023     		movs	r3, #0
 673 000e A370     		strb	r3, [r4, #2]
 674              		.loc 1 665 0
 675 0010 6370     		strb	r3, [r4, #1]
 676              	.LVL42:
 677              	.LBB46:
 678              	.LBB47:
 679              		.loc 1 203 0
 680 0012 2046     		mov	r0, r4
 681 0014 FFF7FEFF 		bl	usart_stop
 682              	.LVL43:
 683              		.loc 1 207 0
 684 0018 444B     		ldr	r3, .L109
ARM GAS  /tmp/cc9JOrIR.s 			page 13


 685 001a A268     		ldr	r2, [r4, #8]
 686 001c 9A42     		cmp	r2, r3
 687 001e 6368     		ldr	r3, [r4, #4]
 688 0020 08D0     		beq	.L106
 689 0022 4348     		ldr	r0, .L109+4
 690 0024 5969     		ldr	r1, [r3, #20]
 691 0026 8242     		cmp	r2, r0
 692 0028 05D0     		beq	.L100
 693              		.loc 1 213 0
 694 002a 424A     		ldr	r2, .L109+8
 695 002c B2FBF1F2 		udiv	r2, r2, r1
 696 0030 AA60     		str	r2, [r5, #8]
 697 0032 04E0     		b	.L102
 698              	.L106:
 699 0034 5969     		ldr	r1, [r3, #20]
 700              	.L100:
 701              		.loc 1 211 0
 702 0036 404A     		ldr	r2, .L109+12
 703 0038 B2FBF1F2 		udiv	r2, r2, r1
 704 003c AA60     		str	r2, [r5, #8]
 705              	.L102:
 706              	.LBB48:
 707              	.LBB49:
 708              		.loc 1 164 0
 709 003e D968     		ldr	r1, [r3, #12]
 710              	.LBE49:
 711              	.LBE48:
 712              		.loc 1 222 0
 713 0040 5E8B     		ldrh	r6, [r3, #26]
 714              		.loc 1 229 0
 715 0042 1A8B     		ldrh	r2, [r3, #24]
 716              		.loc 1 223 0
 717 0044 988B     		ldrh	r0, [r3, #28]
 718              		.loc 1 216 0
 719 0046 2B68     		ldr	r3, [r5]
 720              		.loc 1 217 0
 721 0048 6B68     		ldr	r3, [r5, #4]
 722              	.LBB55:
 723              	.LBB50:
 724              		.loc 1 170 0
 725 004a D4E90373 		ldrd	r7, r3, [r4, #12]
 726              		.loc 1 164 0
 727 004e 0029     		cmp	r1, #0
 728              	.LBE50:
 729              	.LBE55:
 730              		.loc 1 218 0
 731 0050 4FF00001 		mov	r1, #0
 732              	.LBB56:
 733              	.LBB51:
 734              		.loc 1 168 0
 735 0054 1B68     		ldr	r3, [r3]
 736              	.LBE51:
 737              	.LBE56:
 738              		.loc 1 218 0
 739 0056 2960     		str	r1, [r5]
 740              		.loc 1 223 0
 741 0058 40F0C100 		orr	r0, r0, #193
ARM GAS  /tmp/cc9JOrIR.s 			page 14


 742              		.loc 1 229 0
 743 005c 42F40452 		orr	r2, r2, #8448
 744              		.loc 1 222 0
 745 0060 46F04006 		orr	r6, r6, #64
 746              	.LBB57:
 747              	.LBB52:
 748              		.loc 1 165 0
 749 0064 14BF     		ite	ne
 750 0066 4FF48871 		movne	r1, #272
 751 006a 4FF48071 		moveq	r1, #256
 752              	.LBE52:
 753              	.LBE57:
 754              		.loc 1 222 0
 755 006e 2E61     		str	r6, [r5, #16]
 756              		.loc 1 229 0
 757 0070 42F00C02 		orr	r2, r2, #12
 758              		.loc 1 223 0
 759 0074 6861     		str	r0, [r5, #20]
 760              	.LVL44:
 761              	.LBB58:
 762              	.LBB53:
 763              		.loc 1 168 0
 764 0076 1834     		adds	r4, r4, #24
 765              	.LVL45:
 766              		.loc 1 169 0
 767 0078 0120     		movs	r0, #1
 768              		.loc 1 170 0
 769 007a 3943     		orrs	r1, r1, r7
 770              	.LBE53:
 771              	.LBE58:
 772              		.loc 1 229 0
 773 007c EA60     		str	r2, [r5, #12]
 774              	.LVL46:
 775              	.LBB59:
 776              	.LBB54:
 777              		.loc 1 168 0
 778 007e DC60     		str	r4, [r3, #12]
 779              		.loc 1 169 0
 780 0080 5860     		str	r0, [r3, #4]
 781              		.loc 1 170 0
 782 0082 1960     		str	r1, [r3]
 783              		.loc 1 171 0
 784 0084 1A68     		ldr	r2, [r3]
 785 0086 0243     		orrs	r2, r2, r0
 786 0088 1A60     		str	r2, [r3]
 787              	.LVL47:
 788              	.LBE54:
 789              	.LBE59:
 790              	.LBE47:
 791              	.LBE46:
 792              		.loc 1 667 0
 793 008a F8BD     		pop	{r3, r4, r5, r6, r7, pc}
 794              	.LVL48:
 795              	.L94:
 796              		.loc 1 564 0
 797 008c 2B4B     		ldr	r3, .L109+16
 798 008e 9842     		cmp	r0, r3
ARM GAS  /tmp/cc9JOrIR.s 			page 15


 799 0090 32D0     		beq	.L107
 800              		.loc 1 636 0
 801 0092 2B4B     		ldr	r3, .L109+20
 802 0094 9842     		cmp	r0, r3
 803 0096 15D0     		beq	.L108
 804              	.LVL49:
 805              	.L97:
 806              		.loc 1 657 0
 807 0098 6368     		ldr	r3, [r4, #4]
 808 009a 1B8B     		ldrh	r3, [r3, #24]
 809 009c 03F4A053 		and	r3, r3, #5120
 810 00a0 B3F5805F 		cmp	r3, #4096
 811 00a4 03D1     		bne	.L98
 812              		.loc 1 658 0
 813 00a6 E368     		ldr	r3, [r4, #12]
 814 00a8 43F42053 		orr	r3, r3, #10240
 815 00ac E360     		str	r3, [r4, #12]
 816              	.L98:
 817              		.loc 1 660 0
 818 00ae D4E90423 		ldrd	r2, r3, [r4, #16]
 819              		.loc 1 659 0
 820 00b2 A568     		ldr	r5, [r4, #8]
 821 00b4 1068     		ldr	r0, [r2]
 822              		.loc 1 660 0
 823 00b6 1968     		ldr	r1, [r3]
 824              		.loc 1 661 0
 825 00b8 0022     		movs	r2, #0
 826              		.loc 1 659 0
 827 00ba 2B1D     		adds	r3, r5, #4
 828 00bc 8360     		str	r3, [r0, #8]
 829              		.loc 1 660 0
 830 00be 8B60     		str	r3, [r1, #8]
 831              		.loc 1 661 0
 832 00c0 2283     		strh	r2, [r4, #24]	@ movhi
 833 00c2 A3E7     		b	.L95
 834              	.LVL50:
 835              	.L108:
 836              	.LBB60:
 837              		.loc 1 638 0
 838 00c4 0346     		mov	r3, r0
 839 00c6 1F4A     		ldr	r2, .L109+24
 840 00c8 0069     		ldr	r0, [r0, #16]
 841              	.LVL51:
 842 00ca 0C21     		movs	r1, #12
 843 00cc FFF7FEFF 		bl	dmaStreamAllocate
 844              	.LVL52:
 845              		.loc 1 643 0
 846 00d0 2346     		mov	r3, r4
 847 00d2 1D4A     		ldr	r2, .L109+28
 848 00d4 6069     		ldr	r0, [r4, #20]
 849 00d6 0C21     		movs	r1, #12
 850 00d8 FFF7FEFF 		bl	dmaStreamAllocate
 851              	.LVL53:
 852              		.loc 1 648 0
 853 00dc 1B4A     		ldr	r2, .L109+32
 854 00de 536C     		ldr	r3, [r2, #68]
 855 00e0 43F02003 		orr	r3, r3, #32
ARM GAS  /tmp/cc9JOrIR.s 			page 16


 856 00e4 5364     		str	r3, [r2, #68]
 857              		.loc 1 649 0
 858 00e6 0C21     		movs	r1, #12
 859 00e8 4720     		movs	r0, #71
 860 00ea FFF7FEFF 		bl	nvicEnableVector
 861              	.LVL54:
 862              		.loc 1 650 0
 863 00ee E368     		ldr	r3, [r4, #12]
 864 00f0 43F02063 		orr	r3, r3, #167772160
 865 00f4 E360     		str	r3, [r4, #12]
 866 00f6 CFE7     		b	.L97
 867              	.LVL55:
 868              	.L107:
 869              	.LBE60:
 870              	.LBB61:
 871              		.loc 1 566 0
 872 00f8 0346     		mov	r3, r0
 873 00fa 124A     		ldr	r2, .L109+24
 874 00fc 0069     		ldr	r0, [r0, #16]
 875              	.LVL56:
 876 00fe 0C21     		movs	r1, #12
 877 0100 FFF7FEFF 		bl	dmaStreamAllocate
 878              	.LVL57:
 879              		.loc 1 571 0
 880 0104 2346     		mov	r3, r4
 881 0106 104A     		ldr	r2, .L109+28
 882 0108 6069     		ldr	r0, [r4, #20]
 883 010a 0C21     		movs	r1, #12
 884 010c FFF7FEFF 		bl	dmaStreamAllocate
 885              	.LVL58:
 886              		.loc 1 576 0
 887 0110 0E4A     		ldr	r2, .L109+32
 888 0112 136C     		ldr	r3, [r2, #64]
 889 0114 43F48023 		orr	r3, r3, #262144
 890 0118 1364     		str	r3, [r2, #64]
 891              		.loc 1 577 0
 892 011a 0C21     		movs	r1, #12
 893 011c 2720     		movs	r0, #39
 894 011e FFF7FEFF 		bl	nvicEnableVector
 895              	.LVL59:
 896              		.loc 1 578 0
 897 0122 E368     		ldr	r3, [r4, #12]
 898 0124 43F00063 		orr	r3, r3, #134217728
 899 0128 E360     		str	r3, [r4, #12]
 900 012a B5E7     		b	.L97
 901              	.L110:
 902              		.align	2
 903              	.L109:
 904 012c 00100140 		.word	1073811456
 905 0130 00140140 		.word	1073812480
 906 0134 80DE8002 		.word	42000000
 907 0138 00BD0105 		.word	84000000
 908 013c 00000000 		.word	.LANCHOR0
 909 0140 00000000 		.word	.LANCHOR1
 910 0144 00000000 		.word	uart_lld_serve_rx_end_irq
 911 0148 00000000 		.word	uart_lld_serve_tx_end_irq
 912 014c 00380240 		.word	1073887232
ARM GAS  /tmp/cc9JOrIR.s 			page 17


 913              	.LBE61:
 914              		.cfi_endproc
 915              	.LFE266:
 916              		.size	uart_lld_start, .-uart_lld_start
 917              		.section	.text.uart_lld_stop,"ax",%progbits
 918              		.align	1
 919              		.p2align 4,,15
 920              		.global	uart_lld_stop
 921              		.syntax unified
 922              		.thumb
 923              		.thumb_func
 924              		.fpu fpv4-sp-d16
 925              		.type	uart_lld_stop, %function
 926              	uart_lld_stop:
 927              	.LFB267:
 928              		.loc 1 676 0
 929              		.cfi_startproc
 930              		@ args = 0, pretend = 0, frame = 0
 931              		@ frame_needed = 0, uses_anonymous_args = 0
 932              	.LVL60:
 933              		.loc 1 678 0
 934 0000 0278     		ldrb	r2, [r0]	@ zero_extendqisi2
 935 0002 022A     		cmp	r2, #2
 936 0004 00D0     		beq	.L120
 937 0006 7047     		bx	lr
 938              	.L120:
 939              		.loc 1 676 0
 940 0008 10B5     		push	{r4, lr}
 941              		.cfi_def_cfa_offset 8
 942              		.cfi_offset 4, -8
 943              		.cfi_offset 14, -4
 944 000a 0446     		mov	r4, r0
 945              		.loc 1 679 0
 946 000c FFF7FEFF 		bl	usart_stop
 947              	.LVL61:
 948              		.loc 1 680 0
 949 0010 2069     		ldr	r0, [r4, #16]
 950 0012 FFF7FEFF 		bl	dmaStreamRelease
 951              	.LVL62:
 952              		.loc 1 681 0
 953 0016 6069     		ldr	r0, [r4, #20]
 954 0018 FFF7FEFF 		bl	dmaStreamRelease
 955              	.LVL63:
 956              		.loc 1 700 0
 957 001c 0C4B     		ldr	r3, .L123
 958 001e 9C42     		cmp	r4, r3
 959 0020 0CD0     		beq	.L121
 960              		.loc 1 724 0
 961 0022 0C4B     		ldr	r3, .L123+4
 962 0024 9C42     		cmp	r4, r3
 963 0026 00D0     		beq	.L122
 964              		.loc 1 731 0
 965 0028 10BD     		pop	{r4, pc}
 966              	.LVL64:
 967              	.L122:
 968              		.loc 1 725 0
 969 002a 4720     		movs	r0, #71
ARM GAS  /tmp/cc9JOrIR.s 			page 18


 970 002c FFF7FEFF 		bl	nvicDisableVector
 971              	.LVL65:
 972              		.loc 1 726 0
 973 0030 094A     		ldr	r2, .L123+8
 974 0032 536C     		ldr	r3, [r2, #68]
 975 0034 23F02003 		bic	r3, r3, #32
 976 0038 5364     		str	r3, [r2, #68]
 977              		.loc 1 731 0
 978 003a 10BD     		pop	{r4, pc}
 979              	.LVL66:
 980              	.L121:
 981              		.loc 1 701 0
 982 003c 2720     		movs	r0, #39
 983 003e FFF7FEFF 		bl	nvicDisableVector
 984              	.LVL67:
 985              		.loc 1 702 0
 986 0042 054A     		ldr	r2, .L123+8
 987 0044 136C     		ldr	r3, [r2, #64]
 988 0046 23F48023 		bic	r3, r3, #262144
 989 004a 1364     		str	r3, [r2, #64]
 990              		.loc 1 731 0
 991 004c 10BD     		pop	{r4, pc}
 992              	.LVL68:
 993              	.L124:
 994 004e 00BF     		.align	2
 995              	.L123:
 996 0050 00000000 		.word	.LANCHOR0
 997 0054 00000000 		.word	.LANCHOR1
 998 0058 00380240 		.word	1073887232
 999              		.cfi_endproc
 1000              	.LFE267:
 1001              		.size	uart_lld_stop, .-uart_lld_stop
 1002              		.section	.text.uart_lld_start_send,"ax",%progbits
 1003              		.align	1
 1004              		.p2align 4,,15
 1005              		.global	uart_lld_start_send
 1006              		.syntax unified
 1007              		.thumb
 1008              		.thumb_func
 1009              		.fpu fpv4-sp-d16
 1010              		.type	uart_lld_start_send, %function
 1011              	uart_lld_start_send:
 1012              	.LFB268:
 1013              		.loc 1 744 0
 1014              		.cfi_startproc
 1015              		@ args = 0, pretend = 0, frame = 0
 1016              		@ frame_needed = 0, uses_anonymous_args = 0
 1017              		@ link register save eliminated.
 1018              	.LVL69:
 1019 0000 30B4     		push	{r4, r5}
 1020              		.cfi_def_cfa_offset 8
 1021              		.cfi_offset 4, -8
 1022              		.cfi_offset 5, -4
 1023              		.loc 1 747 0
 1024 0002 4369     		ldr	r3, [r0, #20]
 1025              		.loc 1 754 0
 1026 0004 4568     		ldr	r5, [r0, #4]
ARM GAS  /tmp/cc9JOrIR.s 			page 19


 1027              		.loc 1 749 0
 1028 0006 C468     		ldr	r4, [r0, #12]
 1029              		.loc 1 747 0
 1030 0008 1B68     		ldr	r3, [r3]
 1031              		.loc 1 754 0
 1032 000a 6D68     		ldr	r5, [r5, #4]
 1033              		.loc 1 747 0
 1034 000c DA60     		str	r2, [r3, #12]
 1035              		.loc 1 749 0
 1036 000e 44F48A64 		orr	r4, r4, #1104
 1037              		.loc 1 748 0
 1038 0012 5960     		str	r1, [r3, #4]
 1039              		.loc 1 749 0
 1040 0014 1C60     		str	r4, [r3]
 1041              		.loc 1 754 0
 1042 0016 3DB1     		cbz	r5, .L126
 1043              		.loc 1 755 0
 1044 0018 8268     		ldr	r2, [r0, #8]
 1045              	.LVL70:
 1046 001a 6FF04001 		mvn	r1, #64
 1047              	.LVL71:
 1048 001e 1160     		str	r1, [r2]
 1049              		.loc 1 756 0
 1050 0020 D168     		ldr	r1, [r2, #12]
 1051 0022 41F04001 		orr	r1, r1, #64
 1052 0026 D160     		str	r1, [r2, #12]
 1053              	.L126:
 1054              		.loc 1 760 0
 1055 0028 1A68     		ldr	r2, [r3]
 1056 002a 42F00102 		orr	r2, r2, #1
 1057 002e 1A60     		str	r2, [r3]
 1058              		.loc 1 761 0
 1059 0030 30BC     		pop	{r4, r5}
 1060              		.cfi_restore 5
 1061              		.cfi_restore 4
 1062              		.cfi_def_cfa_offset 0
 1063 0032 7047     		bx	lr
 1064              		.cfi_endproc
 1065              	.LFE268:
 1066              		.size	uart_lld_start_send, .-uart_lld_start_send
 1067              		.section	.text.uart_lld_stop_send,"ax",%progbits
 1068              		.align	1
 1069              		.p2align 4,,15
 1070              		.global	uart_lld_stop_send
 1071              		.syntax unified
 1072              		.thumb
 1073              		.thumb_func
 1074              		.fpu fpv4-sp-d16
 1075              		.type	uart_lld_stop_send, %function
 1076              	uart_lld_stop_send:
 1077              	.LFB269:
 1078              		.loc 1 774 0
 1079              		.cfi_startproc
 1080              		@ args = 0, pretend = 0, frame = 0
 1081              		@ frame_needed = 0, uses_anonymous_args = 0
 1082              		@ link register save eliminated.
 1083              	.LVL72:
ARM GAS  /tmp/cc9JOrIR.s 			page 20


 1084              		.loc 1 776 0
 1085 0000 4169     		ldr	r1, [r0, #20]
 1086 0002 0A68     		ldr	r2, [r1]
 1087 0004 1368     		ldr	r3, [r2]
 1088 0006 23F01F03 		bic	r3, r3, #31
 1089 000a 1360     		str	r3, [r2]
 1090              	.L132:
 1091              		.loc 1 776 0 is_stmt 0 discriminator 2
 1092 000c 1368     		ldr	r3, [r2]
 1093 000e DB07     		lsls	r3, r3, #31
 1094 0010 FCD4     		bmi	.L132
 1095              		.loc 1 776 0 discriminator 3
 1096 0012 087A     		ldrb	r0, [r1, #8]	@ zero_extendqisi2
 1097              	.LVL73:
 1098 0014 4968     		ldr	r1, [r1, #4]
 1099 0016 3D23     		movs	r3, #61
 1100 0018 8340     		lsls	r3, r3, r0
 1101 001a 0B60     		str	r3, [r1]
 1102              		.loc 1 778 0 is_stmt 1 discriminator 3
 1103 001c 5068     		ldr	r0, [r2, #4]
 1104              		.loc 1 779 0 discriminator 3
 1105 001e 7047     		bx	lr
 1106              		.cfi_endproc
 1107              	.LFE269:
 1108              		.size	uart_lld_stop_send, .-uart_lld_stop_send
 1109              		.section	.text.uart_lld_start_receive,"ax",%progbits
 1110              		.align	1
 1111              		.p2align 4,,15
 1112              		.global	uart_lld_start_receive
 1113              		.syntax unified
 1114              		.thumb
 1115              		.thumb_func
 1116              		.fpu fpv4-sp-d16
 1117              		.type	uart_lld_start_receive, %function
 1118              	uart_lld_start_receive:
 1119              	.LFB270:
 1120              		.loc 1 792 0
 1121              		.cfi_startproc
 1122              		@ args = 0, pretend = 0, frame = 0
 1123              		@ frame_needed = 0, uses_anonymous_args = 0
 1124              		@ link register save eliminated.
 1125              	.LVL74:
 1126 0000 70B4     		push	{r4, r5, r6}
 1127              		.cfi_def_cfa_offset 12
 1128              		.cfi_offset 4, -12
 1129              		.cfi_offset 5, -8
 1130              		.cfi_offset 6, -4
 1131              		.loc 1 795 0
 1132 0002 0569     		ldr	r5, [r0, #16]
 1133 0004 2B68     		ldr	r3, [r5]
 1134 0006 1C68     		ldr	r4, [r3]
 1135 0008 24F01F04 		bic	r4, r4, #31
 1136 000c 1C60     		str	r4, [r3]
 1137              	.L135:
 1138              		.loc 1 795 0 is_stmt 0 discriminator 2
 1139 000e 1C68     		ldr	r4, [r3]
 1140 0010 E407     		lsls	r4, r4, #31
ARM GAS  /tmp/cc9JOrIR.s 			page 21


 1141 0012 FCD4     		bmi	.L135
 1142              		.loc 1 795 0 discriminator 3
 1143 0014 2E7A     		ldrb	r6, [r5, #8]	@ zero_extendqisi2
 1144 0016 6D68     		ldr	r5, [r5, #4]
 1145 0018 3D24     		movs	r4, #61
 1146 001a B440     		lsls	r4, r4, r6
 1147 001c 2C60     		str	r4, [r5]
 1148              		.loc 1 800 0 is_stmt 1 discriminator 3
 1149 001e C068     		ldr	r0, [r0, #12]
 1150              	.LVL75:
 1151              		.loc 1 798 0 discriminator 3
 1152 0020 DA60     		str	r2, [r3, #12]
 1153              		.loc 1 800 0 discriminator 3
 1154 0022 40F48260 		orr	r0, r0, #1040
 1155              		.loc 1 799 0 discriminator 3
 1156 0026 5960     		str	r1, [r3, #4]
 1157              		.loc 1 800 0 discriminator 3
 1158 0028 1860     		str	r0, [r3]
 1159              		.loc 1 804 0 discriminator 3
 1160 002a 1A68     		ldr	r2, [r3]
 1161              	.LVL76:
 1162 002c 42F00102 		orr	r2, r2, #1
 1163 0030 1A60     		str	r2, [r3]
 1164              		.loc 1 805 0 discriminator 3
 1165 0032 70BC     		pop	{r4, r5, r6}
 1166              		.cfi_restore 6
 1167              		.cfi_restore 5
 1168              		.cfi_restore 4
 1169              		.cfi_def_cfa_offset 0
 1170 0034 7047     		bx	lr
 1171              		.cfi_endproc
 1172              	.LFE270:
 1173              		.size	uart_lld_start_receive, .-uart_lld_start_receive
 1174 0036 00BF     		.section	.text.uart_lld_stop_receive,"ax",%progbits
 1175              		.align	1
 1176              		.p2align 4,,15
 1177              		.global	uart_lld_stop_receive
 1178              		.syntax unified
 1179              		.thumb
 1180              		.thumb_func
 1181              		.fpu fpv4-sp-d16
 1182              		.type	uart_lld_stop_receive, %function
 1183              	uart_lld_stop_receive:
 1184              	.LFB271:
 1185              		.loc 1 818 0
 1186              		.cfi_startproc
 1187              		@ args = 0, pretend = 0, frame = 0
 1188              		@ frame_needed = 0, uses_anonymous_args = 0
 1189              		@ link register save eliminated.
 1190              	.LVL77:
 1191 0000 0146     		mov	r1, r0
 1192              		.loc 1 821 0
 1193 0002 0069     		ldr	r0, [r0, #16]
 1194              	.LVL78:
 1195 0004 0368     		ldr	r3, [r0]
 1196 0006 1A68     		ldr	r2, [r3]
 1197 0008 22F01F02 		bic	r2, r2, #31
ARM GAS  /tmp/cc9JOrIR.s 			page 22


 1198              		.loc 1 818 0
 1199 000c 30B4     		push	{r4, r5}
 1200              		.cfi_def_cfa_offset 8
 1201              		.cfi_offset 4, -8
 1202              		.cfi_offset 5, -4
 1203              		.loc 1 821 0
 1204 000e 1A60     		str	r2, [r3]
 1205              	.L139:
 1206              		.loc 1 821 0 is_stmt 0 discriminator 2
 1207 0010 1A68     		ldr	r2, [r3]
 1208 0012 D207     		lsls	r2, r2, #31
 1209 0014 FCD4     		bmi	.L139
 1210              	.LBB62:
 1211              	.LBB63:
 1212              		.loc 1 164 0 is_stmt 1 discriminator 3
 1213 0016 4A68     		ldr	r2, [r1, #4]
 1214              	.LBE63:
 1215              	.LBE62:
 1216              		.loc 1 821 0 discriminator 3
 1217 0018 047A     		ldrb	r4, [r0, #8]	@ zero_extendqisi2
 1218              	.LBB67:
 1219              	.LBB64:
 1220              		.loc 1 164 0 discriminator 3
 1221 001a D568     		ldr	r5, [r2, #12]
 1222              	.LBE64:
 1223              	.LBE67:
 1224              		.loc 1 821 0 discriminator 3
 1225 001c 4068     		ldr	r0, [r0, #4]
 1226 001e 3D22     		movs	r2, #61
 1227 0020 A240     		lsls	r2, r2, r4
 1228 0022 0260     		str	r2, [r0]
 1229              	.LBB68:
 1230              	.LBB65:
 1231              		.loc 1 170 0 discriminator 3
 1232 0024 CC68     		ldr	r4, [r1, #12]
 1233              	.LBE65:
 1234              	.LBE68:
 1235              		.loc 1 822 0 discriminator 3
 1236 0026 5868     		ldr	r0, [r3, #4]
 1237              	.LVL79:
 1238              	.LBB69:
 1239              	.LBB66:
 1240              		.loc 1 167 0 discriminator 3
 1241 0028 002D     		cmp	r5, #0
 1242 002a 0CBF     		ite	eq
 1243 002c 4FF48072 		moveq	r2, #256
 1244 0030 4FF48872 		movne	r2, #272
 1245              	.LVL80:
 1246              		.loc 1 170 0 discriminator 3
 1247 0034 2243     		orrs	r2, r2, r4
 1248              	.LVL81:
 1249              		.loc 1 168 0 discriminator 3
 1250 0036 1831     		adds	r1, r1, #24
 1251              	.LVL82:
 1252              		.loc 1 169 0 discriminator 3
 1253 0038 0124     		movs	r4, #1
 1254              		.loc 1 168 0 discriminator 3
ARM GAS  /tmp/cc9JOrIR.s 			page 23


 1255 003a D960     		str	r1, [r3, #12]
 1256              	.LVL83:
 1257              		.loc 1 169 0 discriminator 3
 1258 003c 5C60     		str	r4, [r3, #4]
 1259              		.loc 1 170 0 discriminator 3
 1260 003e 1A60     		str	r2, [r3]
 1261              		.loc 1 171 0 discriminator 3
 1262 0040 1A68     		ldr	r2, [r3]
 1263 0042 2243     		orrs	r2, r2, r4
 1264 0044 1A60     		str	r2, [r3]
 1265              	.LVL84:
 1266              	.LBE66:
 1267              	.LBE69:
 1268              		.loc 1 826 0 discriminator 3
 1269 0046 30BC     		pop	{r4, r5}
 1270              		.cfi_restore 5
 1271              		.cfi_restore 4
 1272              		.cfi_def_cfa_offset 0
 1273 0048 7047     		bx	lr
 1274              		.cfi_endproc
 1275              	.LFE271:
 1276              		.size	uart_lld_stop_receive, .-uart_lld_stop_receive
 1277              		.global	UARTD6
 1278              		.global	UARTD3
 1279 004a 00BF     		.section	.bss.UARTD3,"aw",%nobits
 1280              		.align	2
 1281              		.set	.LANCHOR0,. + 0
 1282              		.type	UARTD3, %object
 1283              		.size	UARTD3, 28
 1284              	UARTD3:
 1285 0000 00000000 		.space	28
 1285      00000000 
 1285      00000000 
 1285      00000000 
 1285      00000000 
 1286              		.section	.bss.UARTD6,"aw",%nobits
 1287              		.align	2
 1288              		.set	.LANCHOR1,. + 0
 1289              		.type	UARTD6, %object
 1290              		.size	UARTD6, 28
 1291              	UARTD6:
 1292 0000 00000000 		.space	28
 1292      00000000 
 1292      00000000 
 1292      00000000 
 1292      00000000 
 1293              		.section	.rodata.uart_lld_serve_tx_end_irq.str1.4,"aMS",%progbits,1
 1294              		.align	2
 1295              	.LC0:
 1296 0000 444D4120 		.ascii	"DMA failure\000"
 1296      6661696C 
 1296      75726500 
 1297              		.text
 1298              	.Letext0:
 1299              		.file 3 "/usr/lib/gcc/arm-none-eabi/7.3.1/include/stddef.h"
 1300              		.file 4 "/usr/arm-none-eabi/include/machine/_default_types.h"
 1301              		.file 5 "/usr/arm-none-eabi/include/sys/_stdint.h"
ARM GAS  /tmp/cc9JOrIR.s 			page 24


 1302              		.file 6 "ChibiOS_3.0.2/os/rt/ports/ARMCMx/compilers/GCC/chtypes.h"
 1303              		.file 7 "ChibiOS_3.0.2/os/rt/include/chsystypes.h"
 1304              		.file 8 "ChibiOS_3.0.2/os/rt/include/chschd.h"
 1305              		.file 9 "ChibiOS_3.0.2/os/ext/CMSIS/include/core_cm4.h"
 1306              		.file 10 "ChibiOS_3.0.2/os/ext/CMSIS/ST/system_stm32f4xx.h"
 1307              		.file 11 "ChibiOS_3.0.2/os/ext/CMSIS/ST/stm32f407xx.h"
 1308              		.file 12 "ChibiOS_3.0.2/os/rt/ports/ARMCMx/chcore.h"
 1309              		.file 13 "ChibiOS_3.0.2/os/rt/ports/ARMCMx/chcore_v7m.h"
 1310              		.file 14 "ChibiOS_3.0.2/os/rt/include/chtm.h"
 1311              		.file 15 "ChibiOS_3.0.2/os/rt/include/chsem.h"
 1312              		.file 16 "ChibiOS_3.0.2/os/rt/include/chmtx.h"
 1313              		.file 17 "ChibiOS_3.0.2/os/rt/include/chregistry.h"
 1314              		.file 18 "ChibiOS_3.0.2/os/rt/include/chevents.h"
 1315              		.file 19 "ChibiOS_3.0.2/os/rt/include/chqueues.h"
 1316              		.file 20 "./conf_general.h"
 1317              		.file 21 "ChibiOS_3.0.2/os/hal/ports/STM32/STM32F4xx/stm32_dma.h"
 1318              		.file 22 "ChibiOS_3.0.2/os/hal/ports/STM32/LLD/GPIOv2/pal_lld.h"
 1319              		.file 23 "ChibiOS_3.0.2/os/hal/include/can.h"
 1320              		.file 24 "ChibiOS_3.0.2/os/hal/ports/STM32/LLD/can_lld.h"
 1321              		.file 25 "ChibiOS_3.0.2/os/hal/include/i2c.h"
 1322              		.file 26 "ChibiOS_3.0.2/os/hal/ports/STM32/LLD/I2Cv1/i2c_lld.h"
 1323              		.file 27 "ChibiOS_3.0.2/os/hal/include/icu.h"
 1324              		.file 28 "ChibiOS_3.0.2/os/hal/ports/STM32/LLD/TIMv1/icu_lld.h"
 1325              		.file 29 "ChibiOS_3.0.2/os/hal/ports/STM32/LLD/TIMv1/stm32_tim.h"
 1326              		.file 30 "ChibiOS_3.0.2/os/hal/include/spi.h"
 1327              		.file 31 "ChibiOS_3.0.2/os/hal/ports/STM32/LLD/SPIv1/spi_lld.h"
 1328              		.file 32 "ChibiOS_3.0.2/os/hal/include/uart.h"
 1329              		.file 33 "ChibiOS_3.0.2/os/hal/ports/STM32/LLD/USARTv1/uart_lld.h"
 1330              		.file 34 "ChibiOS_3.0.2/os/hal/include/usb.h"
 1331              		.file 35 "ChibiOS_3.0.2/os/hal/ports/STM32/LLD/OTGv1/usb_lld.h"
 1332              		.file 36 "ChibiOS_3.0.2/os/hal/ports/STM32/LLD/OTGv1/stm32_otg.h"
 1333              		.file 37 "ChibiOS_3.0.2/os/hal/ports/common/ARMCMx/nvic.h"
 1334              		.file 38 "ChibiOS_3.0.2/os/rt/include/chsys.h"