ARM GAS  /tmp/ccJl8kHh.s 			page 1


   1              		.cpu cortex-m4
   2              		.eabi_attribute 27, 1
   3              		.eabi_attribute 28, 1
   4              		.eabi_attribute 20, 1
   5              		.eabi_attribute 21, 1
   6              		.eabi_attribute 23, 3
   7              		.eabi_attribute 24, 1
   8              		.eabi_attribute 25, 1
   9              		.eabi_attribute 26, 1
  10              		.eabi_attribute 30, 2
  11              		.eabi_attribute 34, 1
  12              		.eabi_attribute 18, 4
  13              		.file	"utils.c"
  14              		.text
  15              	.Ltext0:
  16              		.cfi_sections	.debug_frame
  17              		.section	.text.utils_step_towards,"ax",%progbits
  18              		.align	1
  19              		.p2align 4,,15
  20              		.global	utils_step_towards
  21              		.syntax unified
  22              		.thumb
  23              		.thumb_func
  24              		.fpu fpv4-sp-d16
  25              		.type	utils_step_towards, %function
  26              	utils_step_towards:
  27              	.LFB256:
  28              		.file 1 "utils.c"
  29              		.loc 1 29 0
  30              		.cfi_startproc
  31              		@ args = 0, pretend = 0, frame = 0
  32              		@ frame_needed = 0, uses_anonymous_args = 0
  33              		@ link register save eliminated.
  34              	.LVL0:
  35              		.loc 1 30 0
  36 0000 D0ED007A 		vldr.32	s15, [r0]
  37 0004 F4EEC07A 		vcmpe.f32	s15, s0
  38 0008 F1EE10FA 		vmrs	APSR_nzcv, FPSCR
  39 000c 09D5     		bpl	.L13
  40              		.loc 1 31 0
  41 000e 77EEA07A 		vadd.f32	s15, s15, s1
  42 0012 F4EEC07A 		vcmpe.f32	s15, s0
  43 0016 F1EE10FA 		vmrs	APSR_nzcv, FPSCR
  44 001a 0AD5     		bpl	.L4
  45              	.L14:
  46              		.loc 1 38 0
  47 001c C0ED007A 		vstr.32	s15, [r0]
  48              	.L1:
  49              		.loc 1 43 0
  50 0020 7047     		bx	lr
  51              	.L13:
  52              		.loc 1 36 0
  53 0022 FDDD     		ble	.L1
  54              		.loc 1 37 0
  55 0024 77EEE07A 		vsub.f32	s15, s15, s1
  56 0028 F4EEC07A 		vcmpe.f32	s15, s0
  57 002c F1EE10FA 		vmrs	APSR_nzcv, FPSCR
ARM GAS  /tmp/ccJl8kHh.s 			page 2


  58 0030 F4DC     		bgt	.L14
  59              	.L4:
  60              		.loc 1 34 0
  61 0032 80ED000A 		vstr.32	s0, [r0]
  62 0036 7047     		bx	lr
  63              		.cfi_endproc
  64              	.LFE256:
  65              		.size	utils_step_towards, .-utils_step_towards
  66              		.section	.text.utils_calc_ratio,"ax",%progbits
  67              		.align	1
  68              		.p2align 4,,15
  69              		.global	utils_calc_ratio
  70              		.syntax unified
  71              		.thumb
  72              		.thumb_func
  73              		.fpu fpv4-sp-d16
  74              		.type	utils_calc_ratio, %function
  75              	utils_calc_ratio:
  76              	.LFB257:
  77              		.loc 1 45 0
  78              		.cfi_startproc
  79              		@ args = 0, pretend = 0, frame = 0
  80              		@ frame_needed = 0, uses_anonymous_args = 0
  81              		@ link register save eliminated.
  82              	.LVL1:
  83              		.loc 1 46 0
  84 0000 31EE401A 		vsub.f32	s2, s2, s0
  85              	.LVL2:
  86 0004 30EEC00A 		vsub.f32	s0, s1, s0
  87              	.LVL3:
  88              		.loc 1 47 0
  89 0008 81EE000A 		vdiv.f32	s0, s2, s0
  90 000c 7047     		bx	lr
  91              		.cfi_endproc
  92              	.LFE257:
  93              		.size	utils_calc_ratio, .-utils_calc_ratio
  94 000e 00BF     		.section	.text.utils_norm_angle,"ax",%progbits
  95              		.align	1
  96              		.p2align 4,,15
  97              		.global	utils_norm_angle
  98              		.syntax unified
  99              		.thumb
 100              		.thumb_func
 101              		.fpu fpv4-sp-d16
 102              		.type	utils_norm_angle, %function
 103              	utils_norm_angle:
 104              	.LFB258:
 105              		.loc 1 55 0
 106              		.cfi_startproc
 107              		@ args = 0, pretend = 0, frame = 0
 108              		@ frame_needed = 0, uses_anonymous_args = 0
 109              	.LVL4:
 110 0000 10B5     		push	{r4, lr}
 111              		.cfi_def_cfa_offset 8
 112              		.cfi_offset 4, -8
 113              		.cfi_offset 14, -4
 114 0002 2DED028B 		vpush.64	{d8}
ARM GAS  /tmp/ccJl8kHh.s 			page 3


 115              		.cfi_def_cfa_offset 16
 116              		.cfi_offset 80, -16
 117              		.cfi_offset 81, -12
 118              		.loc 1 56 0
 119 0006 9FED0A8A 		vldr.32	s16, .L22
 120 000a 90ED000A 		vldr.32	s0, [r0]
 121 000e F0EE480A 		vmov.f32	s1, s16
 122              		.loc 1 55 0
 123 0012 0446     		mov	r4, r0
 124              		.loc 1 56 0
 125 0014 FFF7FEFF 		bl	fmodf
 126              	.LVL5:
 127              		.loc 1 58 0
 128 0018 B5EEC00A 		vcmpe.f32	s0, #0
 129 001c F1EE10FA 		vmrs	APSR_nzcv, FPSCR
 130              		.loc 1 59 0
 131 0020 48BF     		it	mi
 132 0022 30EE080A 		vaddmi.f32	s0, s0, s16
 133              		.loc 1 61 0
 134 0026 BDEC028B 		vldm	sp!, {d8}
 135              		.cfi_restore 80
 136              		.cfi_restore 81
 137              		.cfi_def_cfa_offset 8
 138              		.loc 1 59 0
 139 002a 84ED000A 		vstr.32	s0, [r4]
 140              		.loc 1 61 0
 141 002e 10BD     		pop	{r4, pc}
 142              	.LVL6:
 143              	.L23:
 144              		.align	2
 145              	.L22:
 146 0030 0000B443 		.word	1135869952
 147              		.cfi_endproc
 148              	.LFE258:
 149              		.size	utils_norm_angle, .-utils_norm_angle
 150              		.section	.text.utils_norm_angle_rad,"ax",%progbits
 151              		.align	1
 152              		.p2align 4,,15
 153              		.global	utils_norm_angle_rad
 154              		.syntax unified
 155              		.thumb
 156              		.thumb_func
 157              		.fpu fpv4-sp-d16
 158              		.type	utils_norm_angle_rad, %function
 159              	utils_norm_angle_rad:
 160              	.LFB259:
 161              		.loc 1 72 0
 162              		.cfi_startproc
 163              		@ args = 0, pretend = 0, frame = 0
 164              		@ frame_needed = 0, uses_anonymous_args = 0
 165              		@ link register save eliminated.
 166              	.LVL7:
 167              		.loc 1 73 0
 168 0000 D0ED007A 		vldr.32	s15, [r0]
 169 0004 9FED127A 		vldr.32	s14, .L33
 170 0008 F4EEC77A 		vcmpe.f32	s15, s14
 171 000c F1EE10FA 		vmrs	APSR_nzcv, FPSCR
ARM GAS  /tmp/ccJl8kHh.s 			page 4


 172 0010 0AD5     		bpl	.L25
 173              		.loc 1 74 0
 174 0012 DFED106A 		vldr.32	s13, .L33+4
 175              	.L27:
 176 0016 77EEA67A 		vadd.f32	s15, s15, s13
 177              		.loc 1 73 0
 178 001a F4EEC77A 		vcmpe.f32	s15, s14
 179 001e F1EE10FA 		vmrs	APSR_nzcv, FPSCR
 180 0022 F8D4     		bmi	.L27
 181 0024 C0ED007A 		vstr.32	s15, [r0]
 182              	.L25:
 183              		.loc 1 77 0
 184 0028 9FED0B7A 		vldr.32	s14, .L33+8
 185 002c F4EEC77A 		vcmpe.f32	s15, s14
 186 0030 F1EE10FA 		vmrs	APSR_nzcv, FPSCR
 187 0034 0ADD     		ble	.L24
 188              		.loc 1 78 0
 189 0036 DFED076A 		vldr.32	s13, .L33+4
 190              	.L30:
 191 003a 77EEE67A 		vsub.f32	s15, s15, s13
 192              		.loc 1 77 0
 193 003e F4EEC77A 		vcmpe.f32	s15, s14
 194 0042 F1EE10FA 		vmrs	APSR_nzcv, FPSCR
 195 0046 F8DC     		bgt	.L30
 196 0048 C0ED007A 		vstr.32	s15, [r0]
 197              	.L24:
 198              		.loc 1 80 0
 199 004c 7047     		bx	lr
 200              	.L34:
 201 004e 00BF     		.align	2
 202              	.L33:
 203 0050 DB0F49C0 		.word	3226013659
 204 0054 DB0FC940 		.word	1086918619
 205 0058 DB0F4940 		.word	1078530011
 206              		.cfi_endproc
 207              	.LFE259:
 208              		.size	utils_norm_angle_rad, .-utils_norm_angle_rad
 209              		.section	.text.utils_truncate_number,"ax",%progbits
 210              		.align	1
 211              		.p2align 4,,15
 212              		.global	utils_truncate_number
 213              		.syntax unified
 214              		.thumb
 215              		.thumb_func
 216              		.fpu fpv4-sp-d16
 217              		.type	utils_truncate_number, %function
 218              	utils_truncate_number:
 219              	.LFB260:
 220              		.loc 1 82 0
 221              		.cfi_startproc
 222              		@ args = 0, pretend = 0, frame = 0
 223              		@ frame_needed = 0, uses_anonymous_args = 0
 224              		@ link register save eliminated.
 225              	.LVL8:
 226              		.loc 1 85 0
 227 0000 D0ED007A 		vldr.32	s15, [r0]
 228 0004 F4EEE07A 		vcmpe.f32	s15, s1
ARM GAS  /tmp/ccJl8kHh.s 			page 5


 229 0008 F1EE10FA 		vmrs	APSR_nzcv, FPSCR
 230 000c 09DC     		bgt	.L45
 231              		.loc 1 88 0
 232 000e F4EEC07A 		vcmpe.f32	s15, s0
 233 0012 F1EE10FA 		vmrs	APSR_nzcv, FPSCR
 234              		.loc 1 89 0
 235 0016 46BF     		itte	mi
 236 0018 80ED000A 		vstrmi.32	s0, [r0]
 237              	.LVL9:
 238              		.loc 1 90 0
 239 001c 0120     		movmi	r0, #1
 240              	.LVL10:
 241              		.loc 1 83 0
 242 001e 0020     		movpl	r0, #0
 243              	.LVL11:
 244              		.loc 1 94 0
 245 0020 7047     		bx	lr
 246              	.LVL12:
 247              	.L45:
 248              		.loc 1 86 0
 249 0022 C0ED000A 		vstr.32	s1, [r0]
 250              	.LVL13:
 251              		.loc 1 87 0
 252 0026 0120     		movs	r0, #1
 253              	.LVL14:
 254 0028 7047     		bx	lr
 255              		.cfi_endproc
 256              	.LFE260:
 257              		.size	utils_truncate_number, .-utils_truncate_number
 258              		.section	.text.utils_truncate_number_int,"ax",%progbits
 259              		.align	1
 260              		.p2align 4,,15
 261              		.global	utils_truncate_number_int
 262              		.syntax unified
 263              		.thumb
 264              		.thumb_func
 265              		.fpu fpv4-sp-d16
 266              		.type	utils_truncate_number_int, %function
 267              	utils_truncate_number_int:
 268              	.LFB261:
 269              		.loc 1 96 0
 270              		.cfi_startproc
 271              		@ args = 0, pretend = 0, frame = 0
 272              		@ frame_needed = 0, uses_anonymous_args = 0
 273              		@ link register save eliminated.
 274              	.LVL15:
 275              		.loc 1 99 0
 276 0000 0368     		ldr	r3, [r0]
 277 0002 9342     		cmp	r3, r2
 278 0004 05DC     		bgt	.L50
 279              		.loc 1 102 0
 280 0006 8B42     		cmp	r3, r1
 281              		.loc 1 103 0
 282 0008 BABF     		itte	lt
 283 000a 0160     		strlt	r1, [r0]
 284              	.LVL16:
 285              		.loc 1 104 0
ARM GAS  /tmp/ccJl8kHh.s 			page 6


 286 000c 0120     		movlt	r0, #1
 287              	.LVL17:
 288              		.loc 1 97 0
 289 000e 0020     		movge	r0, #0
 290              	.LVL18:
 291              		.loc 1 108 0
 292 0010 7047     		bx	lr
 293              	.LVL19:
 294              	.L50:
 295              		.loc 1 100 0
 296 0012 0260     		str	r2, [r0]
 297              	.LVL20:
 298              		.loc 1 101 0
 299 0014 0120     		movs	r0, #1
 300              	.LVL21:
 301 0016 7047     		bx	lr
 302              		.cfi_endproc
 303              	.LFE261:
 304              		.size	utils_truncate_number_int, .-utils_truncate_number_int
 305              		.section	.text.utils_truncate_number_abs,"ax",%progbits
 306              		.align	1
 307              		.p2align 4,,15
 308              		.global	utils_truncate_number_abs
 309              		.syntax unified
 310              		.thumb
 311              		.thumb_func
 312              		.fpu fpv4-sp-d16
 313              		.type	utils_truncate_number_abs, %function
 314              	utils_truncate_number_abs:
 315              	.LFB262:
 316              		.loc 1 110 0
 317              		.cfi_startproc
 318              		@ args = 0, pretend = 0, frame = 0
 319              		@ frame_needed = 0, uses_anonymous_args = 0
 320              		@ link register save eliminated.
 321              	.LVL22:
 322              		.loc 1 113 0
 323 0000 D0ED007A 		vldr.32	s15, [r0]
 324 0004 F4EEC07A 		vcmpe.f32	s15, s0
 325 0008 F1EE10FA 		vmrs	APSR_nzcv, FPSCR
 326 000c 06DC     		bgt	.L61
 327              		.loc 1 116 0
 328 000e B1EE400A 		vneg.f32	s0, s0
 329              	.LVL23:
 330 0012 F4EEC07A 		vcmpe.f32	s15, s0
 331 0016 F1EE10FA 		vmrs	APSR_nzcv, FPSCR
 332 001a 03D5     		bpl	.L60
 333              	.L61:
 334              		.loc 1 117 0
 335 001c 80ED000A 		vstr.32	s0, [r0]
 336              	.LVL24:
 337              		.loc 1 118 0
 338 0020 0120     		movs	r0, #1
 339              	.LVL25:
 340 0022 7047     		bx	lr
 341              	.LVL26:
 342              	.L60:
ARM GAS  /tmp/ccJl8kHh.s 			page 7


 343              		.loc 1 111 0
 344 0024 0020     		movs	r0, #0
 345              	.LVL27:
 346              		.loc 1 122 0
 347 0026 7047     		bx	lr
 348              		.cfi_endproc
 349              	.LFE262:
 350              		.size	utils_truncate_number_abs, .-utils_truncate_number_abs
 351              		.section	.text.utils_map,"ax",%progbits
 352              		.align	1
 353              		.p2align 4,,15
 354              		.global	utils_map
 355              		.syntax unified
 356              		.thumb
 357              		.thumb_func
 358              		.fpu fpv4-sp-d16
 359              		.type	utils_map, %function
 360              	utils_map:
 361              	.LFB263:
 362              		.loc 1 124 0
 363              		.cfi_startproc
 364              		@ args = 0, pretend = 0, frame = 0
 365              		@ frame_needed = 0, uses_anonymous_args = 0
 366              		@ link register save eliminated.
 367              	.LVL28:
 368              		.loc 1 125 0
 369 0000 30EE600A 		vsub.f32	s0, s0, s1
 370              	.LVL29:
 371 0004 32EE612A 		vsub.f32	s4, s4, s3
 372              	.LVL30:
 373 0008 31EE601A 		vsub.f32	s2, s2, s1
 374              	.LVL31:
 375 000c 20EE022A 		vmul.f32	s4, s0, s4
 376 0010 82EE010A 		vdiv.f32	s0, s4, s2
 377              		.loc 1 126 0
 378 0014 30EE210A 		vadd.f32	s0, s0, s3
 379 0018 7047     		bx	lr
 380              		.cfi_endproc
 381              	.LFE263:
 382              		.size	utils_map, .-utils_map
 383 001a 00BF     		.section	.text.utils_map_int,"ax",%progbits
 384              		.align	1
 385              		.p2align 4,,15
 386              		.global	utils_map_int
 387              		.syntax unified
 388              		.thumb
 389              		.thumb_func
 390              		.fpu fpv4-sp-d16
 391              		.type	utils_map_int, %function
 392              	utils_map_int:
 393              	.LFB264:
 394              		.loc 1 128 0
 395              		.cfi_startproc
 396              		@ args = 4, pretend = 0, frame = 0
 397              		@ frame_needed = 0, uses_anonymous_args = 0
 398              		@ link register save eliminated.
 399              	.LVL32:
ARM GAS  /tmp/ccJl8kHh.s 			page 8


 400 0000 10B4     		push	{r4}
 401              		.cfi_def_cfa_offset 4
 402              		.cfi_offset 4, -4
 403              		.loc 1 128 0
 404 0002 019C     		ldr	r4, [sp, #4]
 405              		.loc 1 129 0
 406 0004 401A     		subs	r0, r0, r1
 407              	.LVL33:
 408 0006 E41A     		subs	r4, r4, r3
 409 0008 04FB00F4 		mul	r4, r4, r0
 410 000c 521A     		subs	r2, r2, r1
 411              	.LVL34:
 412 000e 94FBF2F0 		sdiv	r0, r4, r2
 413              		.loc 1 130 0
 414 0012 5DF8044B 		ldr	r4, [sp], #4
 415              		.cfi_restore 4
 416              		.cfi_def_cfa_offset 0
 417              	.LVL35:
 418 0016 1844     		add	r0, r0, r3
 419 0018 7047     		bx	lr
 420              		.cfi_endproc
 421              	.LFE264:
 422              		.size	utils_map_int, .-utils_map_int
 423              		.section	.text.utils_deadband,"ax",%progbits
 424              		.align	1
 425              		.p2align 4,,15
 426              		.global	utils_deadband
 427              		.syntax unified
 428              		.thumb
 429              		.thumb_func
 430              		.fpu fpv4-sp-d16
 431              		.type	utils_deadband, %function
 432              	utils_deadband:
 433              	.LFB265:
 434              		.loc 1 136 0
 435              		.cfi_startproc
 436              		@ args = 0, pretend = 0, frame = 0
 437              		@ frame_needed = 0, uses_anonymous_args = 0
 438              		@ link register save eliminated.
 439              	.LVL36:
 440              		.loc 1 137 0
 441 0000 90ED007A 		vldr.32	s14, [r0]
 442 0004 F0EEC77A 		vabs.f32	s15, s14
 443 0008 F4EEC07A 		vcmpe.f32	s15, s0
 444 000c F1EE10FA 		vmrs	APSR_nzcv, FPSCR
 445 0010 17D4     		bmi	.L75
 446              	.LBB24:
 447              		.loc 1 140 0
 448 0012 30EEC00A 		vsub.f32	s0, s1, s0
 449              	.LVL37:
 450 0016 F7EE007A 		vmov.f32	s15, #1.0e+0
 451 001a C0EE806A 		vdiv.f32	s13, s1, s0
 452              	.LVL38:
 453              		.loc 1 141 0
 454 001e B5EEC07A 		vcmpe.f32	s14, #0
 455 0022 77EEE67A 		vsub.f32	s15, s15, s13
 456 0026 F1EE10FA 		vmrs	APSR_nzcv, FPSCR
ARM GAS  /tmp/ccJl8kHh.s 			page 9


 457 002a 67EEA07A 		vmul.f32	s15, s15, s1
 458              		.loc 1 144 0
 459 002e D6BF     		itet	le
 460 0030 E7EE667A 		vfmsle.f32	s15, s14, s13
 461              		.loc 1 142 0
 462 0034 E7EE267A 		vfmagt.f32	s15, s14, s13
 463              		.loc 1 144 0
 464 0038 F1EE677A 		vnegle.f32	s15, s15
 465 003c C0ED007A 		vstr.32	s15, [r0]
 466              	.LBE24:
 467              		.loc 1 148 0
 468 0040 7047     		bx	lr
 469              	.LVL39:
 470              	.L75:
 471              		.loc 1 138 0
 472 0042 0023     		movs	r3, #0
 473 0044 0360     		str	r3, [r0]	@ float
 474 0046 7047     		bx	lr
 475              		.cfi_endproc
 476              	.LFE265:
 477              		.size	utils_deadband, .-utils_deadband
 478              		.section	.text.utils_angle_difference,"ax",%progbits
 479              		.align	1
 480              		.p2align 4,,15
 481              		.global	utils_angle_difference
 482              		.syntax unified
 483              		.thumb
 484              		.thumb_func
 485              		.fpu fpv4-sp-d16
 486              		.type	utils_angle_difference, %function
 487              	utils_angle_difference:
 488              	.LFB266:
 489              		.loc 1 159 0
 490              		.cfi_startproc
 491              		@ args = 0, pretend = 0, frame = 0
 492              		@ frame_needed = 0, uses_anonymous_args = 0
 493              		@ link register save eliminated.
 494              	.LVL40:
 495              		.loc 1 174 0
 496 0000 30EE600A 		vsub.f32	s0, s0, s1
 497              	.LVL41:
 498              		.loc 1 175 0
 499 0004 DFED107A 		vldr.32	s15, .L85
 500 0008 B4EEE70A 		vcmpe.f32	s0, s15
 501 000c F1EE10FA 		vmrs	APSR_nzcv, FPSCR
 502 0010 08D5     		bpl	.L77
 503 0012 9FED0E7A 		vldr.32	s14, .L85+4
 504              	.L79:
 505              		.loc 1 175 0 is_stmt 0 discriminator 2
 506 0016 30EE070A 		vadd.f32	s0, s0, s14
 507              	.LVL42:
 508 001a B4EEE70A 		vcmpe.f32	s0, s15
 509 001e F1EE10FA 		vmrs	APSR_nzcv, FPSCR
 510 0022 F8D4     		bmi	.L79
 511              	.L77:
 512              		.loc 1 176 0 is_stmt 1
 513 0024 DFED0A7A 		vldr.32	s15, .L85+8
ARM GAS  /tmp/ccJl8kHh.s 			page 10


 514 0028 B4EEE70A 		vcmpe.f32	s0, s15
 515 002c F1EE10FA 		vmrs	APSR_nzcv, FPSCR
 516 0030 08DD     		ble	.L76
 517 0032 9FED067A 		vldr.32	s14, .L85+4
 518              	.L82:
 519              		.loc 1 176 0 is_stmt 0 discriminator 2
 520 0036 30EE470A 		vsub.f32	s0, s0, s14
 521              	.LVL43:
 522 003a B4EEE70A 		vcmpe.f32	s0, s15
 523 003e F1EE10FA 		vmrs	APSR_nzcv, FPSCR
 524 0042 F8DC     		bgt	.L82
 525              	.L76:
 526              		.loc 1 178 0 is_stmt 1
 527 0044 7047     		bx	lr
 528              	.L86:
 529 0046 00BF     		.align	2
 530              	.L85:
 531 0048 000034C3 		.word	3274964992
 532 004c 0000B443 		.word	1135869952
 533 0050 00003443 		.word	1127481344
 534              		.cfi_endproc
 535              	.LFE266:
 536              		.size	utils_angle_difference, .-utils_angle_difference
 537              		.section	.text.utils_angle_difference_rad,"ax",%progbits
 538              		.align	1
 539              		.p2align 4,,15
 540              		.global	utils_angle_difference_rad
 541              		.syntax unified
 542              		.thumb
 543              		.thumb_func
 544              		.fpu fpv4-sp-d16
 545              		.type	utils_angle_difference_rad, %function
 546              	utils_angle_difference_rad:
 547              	.LFB267:
 548              		.loc 1 189 0
 549              		.cfi_startproc
 550              		@ args = 0, pretend = 0, frame = 0
 551              		@ frame_needed = 0, uses_anonymous_args = 0
 552              		@ link register save eliminated.
 553              	.LVL44:
 554              		.loc 1 190 0
 555 0000 30EE600A 		vsub.f32	s0, s0, s1
 556              	.LVL45:
 557              		.loc 1 191 0
 558 0004 DFED107A 		vldr.32	s15, .L96
 559 0008 B4EEE70A 		vcmpe.f32	s0, s15
 560 000c F1EE10FA 		vmrs	APSR_nzcv, FPSCR
 561 0010 08D5     		bpl	.L88
 562 0012 9FED0E7A 		vldr.32	s14, .L96+4
 563              	.L90:
 564              		.loc 1 191 0 is_stmt 0 discriminator 2
 565 0016 30EE070A 		vadd.f32	s0, s0, s14
 566              	.LVL46:
 567 001a B4EEE70A 		vcmpe.f32	s0, s15
 568 001e F1EE10FA 		vmrs	APSR_nzcv, FPSCR
 569 0022 F8D4     		bmi	.L90
 570              	.L88:
ARM GAS  /tmp/ccJl8kHh.s 			page 11


 571              		.loc 1 192 0 is_stmt 1
 572 0024 DFED0A7A 		vldr.32	s15, .L96+8
 573 0028 B4EEE70A 		vcmpe.f32	s0, s15
 574 002c F1EE10FA 		vmrs	APSR_nzcv, FPSCR
 575 0030 08DD     		ble	.L87
 576 0032 9FED067A 		vldr.32	s14, .L96+4
 577              	.L93:
 578              		.loc 1 192 0 is_stmt 0 discriminator 2
 579 0036 30EE470A 		vsub.f32	s0, s0, s14
 580              	.LVL47:
 581 003a B4EEE70A 		vcmpe.f32	s0, s15
 582 003e F1EE10FA 		vmrs	APSR_nzcv, FPSCR
 583 0042 F8DC     		bgt	.L93
 584              	.L87:
 585              		.loc 1 194 0 is_stmt 1
 586 0044 7047     		bx	lr
 587              	.L97:
 588 0046 00BF     		.align	2
 589              	.L96:
 590 0048 DB0F49C0 		.word	3226013659
 591 004c DB0FC940 		.word	1086918619
 592 0050 DB0F4940 		.word	1078530011
 593              		.cfi_endproc
 594              	.LFE267:
 595              		.size	utils_angle_difference_rad, .-utils_angle_difference_rad
 596              		.section	.text.utils_middle_of_3,"ax",%progbits
 597              		.align	1
 598              		.p2align 4,,15
 599              		.global	utils_middle_of_3
 600              		.syntax unified
 601              		.thumb
 602              		.thumb_func
 603              		.fpu fpv4-sp-d16
 604              		.type	utils_middle_of_3, %function
 605              	utils_middle_of_3:
 606              	.LFB269:
 607              		.loc 1 240 0
 608              		.cfi_startproc
 609              		@ args = 0, pretend = 0, frame = 0
 610              		@ frame_needed = 0, uses_anonymous_args = 0
 611              		@ link register save eliminated.
 612              	.LVL48:
 613              		.loc 1 243 0
 614 0000 B4EEE00A 		vcmpe.f32	s0, s1
 615 0004 F1EE10FA 		vmrs	APSR_nzcv, FPSCR
 616 0008 0ED8     		bhi	.L123
 617              		.loc 1 243 0 is_stmt 0 discriminator 1
 618 000a B4EEC10A 		vcmpe.f32	s0, s2
 619 000e F1EE10FA 		vmrs	APSR_nzcv, FPSCR
 620 0012 1FD8     		bhi	.L124
 621              		.loc 1 244 0 is_stmt 1
 622 0014 F4EEC10A 		vcmpe.f32	s1, s2
 623 0018 F1EE10FA 		vmrs	APSR_nzcv, FPSCR
 624 001c 8CBF     		ite	hi
 625 001e B0EE410A 		vmovhi.f32	s0, s2
 626 0022 B0EE600A 		vmovls.f32	s0, s1
 627              	.LVL49:
ARM GAS  /tmp/ccJl8kHh.s 			page 12


 628 0026 7047     		bx	lr
 629              	.LVL50:
 630              	.L123:
 631              		.loc 1 245 0
 632 0028 0CDB     		blt	.L105
 633              		.loc 1 245 0 is_stmt 0 discriminator 1
 634 002a F4EEC10A 		vcmpe.f32	s1, s2
 635 002e F1EE10FA 		vmrs	APSR_nzcv, FPSCR
 636 0032 07D8     		bhi	.L105
 637              	.L111:
 638              		.loc 1 246 0 is_stmt 1
 639 0034 B4EEC10A 		vcmpe.f32	s0, s2
 640 0038 F1EE10FA 		vmrs	APSR_nzcv, FPSCR
 641              		.loc 1 244 0
 642 003c 88BF     		it	hi
 643 003e B0EE410A 		vmovhi.f32	s0, s2
 644              	.LVL51:
 645 0042 7047     		bx	lr
 646              	.LVL52:
 647              	.L105:
 648              		.loc 1 248 0
 649 0044 B4EEE00A 		vcmpe.f32	s0, s1
 650 0048 F1EE10FA 		vmrs	APSR_nzcv, FPSCR
 651 004c 88BF     		it	hi
 652 004e B0EE600A 		vmovhi.f32	s0, s1
 653              	.LVL53:
 654 0052 7047     		bx	lr
 655              	.LVL54:
 656              	.L124:
 657              		.loc 1 245 0
 658 0054 B4EEE00A 		vcmpe.f32	s0, s1
 659 0058 F1EE10FA 		vmrs	APSR_nzcv, FPSCR
 660 005c 04DB     		blt	.L98
 661 005e F4EEC10A 		vcmpe.f32	s1, s2
 662 0062 F1EE10FA 		vmrs	APSR_nzcv, FPSCR
 663 0066 E5D9     		bls	.L111
 664              	.L98:
 665              		.loc 1 251 0
 666 0068 7047     		bx	lr
 667              		.cfi_endproc
 668              	.LFE269:
 669              		.size	utils_middle_of_3, .-utils_middle_of_3
 670 006a 00BF     		.section	.text.utils_middle_of_3_int,"ax",%progbits
 671              		.align	1
 672              		.p2align 4,,15
 673              		.global	utils_middle_of_3_int
 674              		.syntax unified
 675              		.thumb
 676              		.thumb_func
 677              		.fpu fpv4-sp-d16
 678              		.type	utils_middle_of_3_int, %function
 679              	utils_middle_of_3_int:
 680              	.LFB270:
 681              		.loc 1 268 0
 682              		.cfi_startproc
 683              		@ args = 0, pretend = 0, frame = 0
 684              		@ frame_needed = 0, uses_anonymous_args = 0
ARM GAS  /tmp/ccJl8kHh.s 			page 13


 685              		@ link register save eliminated.
 686              	.LVL55:
 687              		.loc 1 271 0
 688 0000 8842     		cmp	r0, r1
 689 0002 05DD     		ble	.L132
 690              	.L127:
 691              		.loc 1 273 0 discriminator 1
 692 0004 9142     		cmp	r1, r2
 693 0006 0BDD     		ble	.L133
 694              		.loc 1 276 0
 695 0008 8842     		cmp	r0, r1
 696 000a A8BF     		it	ge
 697 000c 0846     		movge	r0, r1
 698              	.LVL56:
 699              		.loc 1 279 0
 700 000e 7047     		bx	lr
 701              	.LVL57:
 702              	.L132:
 703              		.loc 1 271 0 discriminator 1
 704 0010 9042     		cmp	r0, r2
 705 0012 09DD     		ble	.L134
 706              		.loc 1 273 0
 707 0014 8842     		cmp	r0, r1
 708 0016 F5DA     		bge	.L127
 709              		.loc 1 276 0
 710 0018 8842     		cmp	r0, r1
 711 001a A8BF     		it	ge
 712 001c 0846     		movge	r0, r1
 713              	.LVL58:
 714              		.loc 1 279 0
 715 001e 7047     		bx	lr
 716              	.LVL59:
 717              	.L133:
 718              		.loc 1 274 0
 719 0020 9042     		cmp	r0, r2
 720 0022 A8BF     		it	ge
 721 0024 1046     		movge	r0, r2
 722              	.LVL60:
 723 0026 7047     		bx	lr
 724              	.LVL61:
 725              	.L134:
 726              		.loc 1 272 0
 727 0028 9142     		cmp	r1, r2
 728 002a A8BF     		it	ge
 729 002c 1146     		movge	r1, r2
 730              	.LVL62:
 731 002e 0846     		mov	r0, r1
 732              	.LVL63:
 733 0030 7047     		bx	lr
 734              		.cfi_endproc
 735              	.LFE270:
 736              		.size	utils_middle_of_3_int, .-utils_middle_of_3_int
 737 0032 00BF     		.section	.text.utils_fast_inv_sqrt,"ax",%progbits
 738              		.align	1
 739              		.p2align 4,,15
 740              		.global	utils_fast_inv_sqrt
 741              		.syntax unified
ARM GAS  /tmp/ccJl8kHh.s 			page 14


 742              		.thumb
 743              		.thumb_func
 744              		.fpu fpv4-sp-d16
 745              		.type	utils_fast_inv_sqrt, %function
 746              	utils_fast_inv_sqrt:
 747              	.LFB271:
 748              		.loc 1 283 0
 749              		.cfi_startproc
 750              		@ args = 0, pretend = 0, frame = 0
 751              		@ frame_needed = 0, uses_anonymous_args = 0
 752              		@ link register save eliminated.
 753              	.LVL64:
 754              		.loc 1 292 0
 755 0000 10EE102A 		vmov	r2, s0	@ int
 756              		.loc 1 291 0
 757 0004 084B     		ldr	r3, .L136
 758              		.loc 1 289 0
 759 0006 B6EE007A 		vmov.f32	s14, #5.0e-1
 760              		.loc 1 292 0
 761 000a A3EB6203 		sub	r3, r3, r2, asr #1
 762              	.LVL65:
 763 000e 07EE903A 		vmov	s15, r3	@ int
 764              		.loc 1 289 0
 765 0012 20EE077A 		vmul.f32	s14, s0, s14
 766              	.LVL66:
 767              		.loc 1 292 0
 768 0016 B7EE080A 		vmov.f32	s0, #1.5e+0
 769              	.LVL67:
 770 001a 27EE277A 		vmul.f32	s14, s14, s15
 771              	.LVL68:
 772 001e A7EEC70A 		vfms.f32	s0, s15, s14
 773              		.loc 1 294 0
 774 0022 20EE270A 		vmul.f32	s0, s0, s15
 775 0026 7047     		bx	lr
 776              	.L137:
 777              		.align	2
 778              	.L136:
 779 0028 DF59375F 		.word	1597463007
 780              		.cfi_endproc
 781              	.LFE271:
 782              		.size	utils_fast_inv_sqrt, .-utils_fast_inv_sqrt
 783              		.section	.text.utils_fast_atan2,"ax",%progbits
 784              		.align	1
 785              		.p2align 4,,15
 786              		.global	utils_fast_atan2
 787              		.syntax unified
 788              		.thumb
 789              		.thumb_func
 790              		.fpu fpv4-sp-d16
 791              		.type	utils_fast_atan2, %function
 792              	utils_fast_atan2:
 793              	.LFB272:
 794              		.loc 1 310 0
 795              		.cfi_startproc
 796              		@ args = 0, pretend = 0, frame = 0
 797              		@ frame_needed = 0, uses_anonymous_args = 0
 798              		@ link register save eliminated.
ARM GAS  /tmp/ccJl8kHh.s 			page 15


 799              	.LVL69:
 800              		.loc 1 311 0
 801 0000 9FED197A 		vldr.32	s14, .L148
 802 0004 F0EEC07A 		vabs.f32	s15, s0
 803 0008 77EE877A 		vadd.f32	s15, s15, s14
 804              	.LVL70:
 805              		.loc 1 314 0
 806 000c F5EEC00A 		vcmpe.f32	s1, #0
 807 0010 F1EE10FA 		vmrs	APSR_nzcv, FPSCR
 808              		.loc 1 310 0
 809 0014 F0EE406A 		vmov.f32	s13, s0
 810 0018 37EEA05A 		vadd.f32	s10, s15, s1
 811              		.loc 1 314 0
 812 001c 19DB     		blt	.L146
 813              	.LBB25:
 814              		.loc 1 315 0
 815 001e 70EEE77A 		vsub.f32	s15, s1, s15
 816              	.LVL71:
 817              		.loc 1 317 0
 818 0022 DFED124A 		vldr.32	s9, .L148+4
 819 0026 DFED125A 		vldr.32	s11, .L148+8
 820 002a 9FED127A 		vldr.32	s14, .L148+12
 821              	.LVL72:
 822              		.loc 1 315 0
 823 002e 87EE856A 		vdiv.f32	s12, s15, s10
 824              	.LVL73:
 825              	.L147:
 826              	.LBE25:
 827              	.LBB26:
 828              		.loc 1 320 0
 829 0032 66EE067A 		vmul.f32	s15, s12, s12
 830              	.LVL74:
 831              	.LBE26:
 832              		.loc 1 324 0
 833 0036 F5EEC06A 		vcmpe.f32	s13, #0
 834              	.LBB27:
 835              		.loc 1 321 0
 836 003a E7EEA45A 		vfma.f32	s11, s15, s9
 837              	.LBE27:
 838              		.loc 1 324 0
 839 003e F1EE10FA 		vmrs	APSR_nzcv, FPSCR
 840              	.LBB28:
 841              		.loc 1 321 0
 842 0042 A5EE867A 		vfma.f32	s14, s11, s12
 843 0046 B0EE470A 		vmov.f32	s0, s14
 844              	.LVL75:
 845              	.LBE28:
 846              		.loc 1 325 0
 847 004a 48BF     		it	mi
 848 004c B1EE470A 		vnegmi.f32	s0, s14
 849              	.LVL76:
 850              		.loc 1 329 0
 851 0050 7047     		bx	lr
 852              	.LVL77:
 853              	.L146:
 854              	.LBB29:
 855              		.loc 1 319 0
ARM GAS  /tmp/ccJl8kHh.s 			page 16


 856 0052 77EEE07A 		vsub.f32	s15, s15, s1
 857              	.LVL78:
 858              		.loc 1 321 0
 859 0056 DFED054A 		vldr.32	s9, .L148+4
 860 005a DFED055A 		vldr.32	s11, .L148+8
 861 005e 9FED067A 		vldr.32	s14, .L148+16
 862              	.LVL79:
 863              		.loc 1 319 0
 864 0062 85EE276A 		vdiv.f32	s12, s10, s15
 865 0066 E4E7     		b	.L147
 866              	.L149:
 867              		.align	2
 868              	.L148:
 869 0068 08E53C1E 		.word	507307272
 870 006c DE02493E 		.word	1044972254
 871 0070 B1507BBF 		.word	3212529841
 872 0074 DB0F493F 		.word	1061752795
 873 0078 E4CB1640 		.word	1075235812
 874              	.LBE29:
 875              		.cfi_endproc
 876              	.LFE272:
 877              		.size	utils_fast_atan2, .-utils_fast_atan2
 878              		.section	.text.utils_saturate_vector_2d,"ax",%progbits
 879              		.align	1
 880              		.p2align 4,,15
 881              		.global	utils_saturate_vector_2d
 882              		.syntax unified
 883              		.thumb
 884              		.thumb_func
 885              		.fpu fpv4-sp-d16
 886              		.type	utils_saturate_vector_2d, %function
 887              	utils_saturate_vector_2d:
 888              	.LFB273:
 889              		.loc 1 346 0
 890              		.cfi_startproc
 891              		@ args = 0, pretend = 0, frame = 8
 892              		@ frame_needed = 0, uses_anonymous_args = 0
 893              	.LVL80:
 894              		.loc 1 348 0
 895 0000 D1ED007A 		vldr.32	s15, [r1]
 896 0004 90ED007A 		vldr.32	s14, [r0]
 897              		.loc 1 346 0
 898 0008 10B5     		push	{r4, lr}
 899              		.cfi_def_cfa_offset 8
 900              		.cfi_offset 4, -8
 901              		.cfi_offset 14, -4
 902              		.loc 1 348 0
 903 000a 67EEA77A 		vmul.f32	s15, s15, s15
 904              		.loc 1 346 0
 905 000e 2DED028B 		vpush.64	{d8}
 906              		.cfi_def_cfa_offset 16
 907              		.cfi_offset 80, -16
 908              		.cfi_offset 81, -12
 909              		.loc 1 348 0
 910 0012 E7EE077A 		vfma.f32	s15, s14, s14
 911              		.loc 1 346 0
 912 0016 82B0     		sub	sp, sp, #8
ARM GAS  /tmp/ccJl8kHh.s 			page 17


 913              		.cfi_def_cfa_offset 24
 914              		.loc 1 346 0
 915 0018 0446     		mov	r4, r0
 916 001a F0EE408A 		vmov.f32	s17, s0
 917 001e F5EE407A 		vcmp.f32	s15, #0
 918 0022 F1EE10FA 		vmrs	APSR_nzcv, FPSCR
 919              		.loc 1 348 0
 920 0026 B1EEE78A 		vsqrt.f32	s16, s15
 921 002a 27D4     		bmi	.L161
 922              	.LVL81:
 923              	.L151:
 924              		.loc 1 351 0
 925 002c DFED177A 		vldr.32	s15, .L162
 926              		.loc 1 352 0
 927 0030 B4EE678A 		vcmp.f32	s16, s15
 928 0034 F1EE10FA 		vmrs	APSR_nzcv, FPSCR
 929 0038 48BF     		it	mi
 930 003a B0EE678A 		vmovmi.f32	s16, s15
 931              	.LVL82:
 932              		.loc 1 349 0
 933 003e B0EEE80A 		vabs.f32	s0, s17
 934              	.LVL83:
 935              		.loc 1 355 0
 936 0042 B4EEC08A 		vcmpe.f32	s16, s0
 937 0046 F1EE10FA 		vmrs	APSR_nzcv, FPSCR
 938 004a 12DD     		ble	.L159
 939              	.LBB30:
 940              		.loc 1 356 0
 941 004c C0EE086A 		vdiv.f32	s13, s0, s16
 942              	.LVL84:
 943              		.loc 1 359 0
 944 0050 0120     		movs	r0, #1
 945              		.loc 1 357 0
 946 0052 94ED007A 		vldr.32	s14, [r4]
 947 0056 27EE267A 		vmul.f32	s14, s14, s13
 948 005a 84ED007A 		vstr.32	s14, [r4]
 949              		.loc 1 358 0
 950 005e D1ED007A 		vldr.32	s15, [r1]
 951 0062 67EEA67A 		vmul.f32	s15, s15, s13
 952 0066 C1ED007A 		vstr.32	s15, [r1]
 953              	.LVL85:
 954              	.LBE30:
 955              		.loc 1 363 0
 956 006a 02B0     		add	sp, sp, #8
 957              		.cfi_remember_state
 958              		.cfi_def_cfa_offset 16
 959              		@ sp needed
 960 006c BDEC028B 		vldm	sp!, {d8}
 961              		.cfi_restore 80
 962              		.cfi_restore 81
 963              		.cfi_def_cfa_offset 8
 964              	.LVL86:
 965 0070 10BD     		pop	{r4, pc}
 966              	.LVL87:
 967              	.L159:
 968              		.cfi_restore_state
 969              		.loc 1 347 0
ARM GAS  /tmp/ccJl8kHh.s 			page 18


 970 0072 0020     		movs	r0, #0
 971              	.LVL88:
 972              		.loc 1 363 0
 973 0074 02B0     		add	sp, sp, #8
 974              		.cfi_remember_state
 975              		.cfi_def_cfa_offset 16
 976              		@ sp needed
 977 0076 BDEC028B 		vldm	sp!, {d8}
 978              		.cfi_restore 80
 979              		.cfi_restore 81
 980              		.cfi_def_cfa_offset 8
 981              	.LVL89:
 982 007a 10BD     		pop	{r4, pc}
 983              	.LVL90:
 984              	.L161:
 985              		.cfi_restore_state
 986              		.loc 1 348 0
 987 007c B0EE670A 		vmov.f32	s0, s15
 988              	.LVL91:
 989 0080 0191     		str	r1, [sp, #4]
 990 0082 FFF7FEFF 		bl	sqrtf
 991              	.LVL92:
 992 0086 0199     		ldr	r1, [sp, #4]
 993 0088 D0E7     		b	.L151
 994              	.L163:
 995 008a 00BF     		.align	2
 996              	.L162:
 997 008c FFE6DB2E 		.word	786163455
 998              		.cfi_endproc
 999              	.LFE273:
 1000              		.size	utils_saturate_vector_2d, .-utils_saturate_vector_2d
 1001              		.section	.text.utils_fast_sincos,"ax",%progbits
 1002              		.align	1
 1003              		.p2align 4,,15
 1004              		.global	utils_fast_sincos
 1005              		.syntax unified
 1006              		.thumb
 1007              		.thumb_func
 1008              		.fpu fpv4-sp-d16
 1009              		.type	utils_fast_sincos, %function
 1010              	utils_fast_sincos:
 1011              	.LFB274:
 1012              		.loc 1 380 0
 1013              		.cfi_startproc
 1014              		@ args = 0, pretend = 0, frame = 0
 1015              		@ frame_needed = 0, uses_anonymous_args = 0
 1016              		@ link register save eliminated.
 1017              	.LVL93:
 1018              		.loc 1 382 0
 1019 0000 DFED2C7A 		vldr.32	s15, .L186
 1020 0004 B4EEE70A 		vcmpe.f32	s0, s15
 1021 0008 F1EE10FA 		vmrs	APSR_nzcv, FPSCR
 1022 000c 08D5     		bpl	.L165
 1023              		.loc 1 383 0
 1024 000e 9FED2A7A 		vldr.32	s14, .L186+4
 1025              	.L167:
 1026 0012 30EE070A 		vadd.f32	s0, s0, s14
ARM GAS  /tmp/ccJl8kHh.s 			page 19


 1027              	.LVL94:
 1028              		.loc 1 382 0
 1029 0016 B4EEE70A 		vcmpe.f32	s0, s15
 1030 001a F1EE10FA 		vmrs	APSR_nzcv, FPSCR
 1031 001e F8D4     		bmi	.L167
 1032              	.L165:
 1033              		.loc 1 386 0
 1034 0020 DFED267A 		vldr.32	s15, .L186+8
 1035 0024 B4EEE70A 		vcmpe.f32	s0, s15
 1036 0028 F1EE10FA 		vmrs	APSR_nzcv, FPSCR
 1037 002c 08DD     		ble	.L168
 1038              		.loc 1 387 0
 1039 002e 9FED227A 		vldr.32	s14, .L186+4
 1040              	.L170:
 1041 0032 30EE470A 		vsub.f32	s0, s0, s14
 1042              	.LVL95:
 1043              		.loc 1 386 0
 1044 0036 B4EEE70A 		vcmpe.f32	s0, s15
 1045 003a F1EE10FA 		vmrs	APSR_nzcv, FPSCR
 1046 003e F8DC     		bgt	.L170
 1047              	.L168:
 1048 0040 9FED1F7A 		vldr.32	s14, .L186+12
 1049 0044 DFED1F7A 		vldr.32	s15, .L186+16
 1050 0048 20EE077A 		vmul.f32	s14, s0, s14
 1051 004c 60EE277A 		vmul.f32	s15, s0, s15
 1052 0050 27EE007A 		vmul.f32	s14, s14, s0
 1053              		.loc 1 391 0
 1054 0054 B5EEC00A 		vcmpe.f32	s0, #0
 1055 0058 F1EE10FA 		vmrs	APSR_nzcv, FPSCR
 1056              		.loc 1 392 0
 1057 005c 4CBF     		ite	mi
 1058 005e 77EE877A 		vaddmi.f32	s15, s15, s14
 1059              		.loc 1 394 0
 1060 0062 77EEC77A 		vsubpl.f32	s15, s15, s14
 1061              		.loc 1 398 0
 1062 0066 9FED187A 		vldr.32	s14, .L186+20
 1063              		.loc 1 394 0
 1064 006a C0ED007A 		vstr.32	s15, [r0]
 1065              		.loc 1 398 0
 1066 006e 30EE070A 		vadd.f32	s0, s0, s14
 1067              	.LVL96:
 1068              		.loc 1 400 0
 1069 0072 DFED127A 		vldr.32	s15, .L186+8
 1070 0076 9FED137A 		vldr.32	s14, .L186+16
 1071 007a B4EEE70A 		vcmpe.f32	s0, s15
 1072 007e F1EE10FA 		vmrs	APSR_nzcv, FPSCR
 1073              		.loc 1 401 0
 1074 0082 C4BF     		itt	gt
 1075 0084 DFED0C7A 		vldrgt.32	s15, .L186+4
 1076 0088 30EE670A 		vsubgt.f32	s0, s0, s15
 1077              	.LVL97:
 1078 008c DFED0C7A 		vldr.32	s15, .L186+12
 1079 0090 60EE277A 		vmul.f32	s15, s0, s15
 1080 0094 20EE077A 		vmul.f32	s14, s0, s14
 1081 0098 67EE807A 		vmul.f32	s15, s15, s0
 1082              		.loc 1 404 0
 1083 009c B5EEC00A 		vcmpe.f32	s0, #0
ARM GAS  /tmp/ccJl8kHh.s 			page 20


 1084 00a0 F1EE10FA 		vmrs	APSR_nzcv, FPSCR
 1085              		.loc 1 405 0
 1086 00a4 4CBF     		ite	mi
 1087 00a6 77EE277A 		vaddmi.f32	s15, s14, s15
 1088              		.loc 1 407 0
 1089 00aa 77EE677A 		vsubpl.f32	s15, s14, s15
 1090 00ae C1ED007A 		vstr.32	s15, [r1]
 1091              		.loc 1 409 0
 1092 00b2 7047     		bx	lr
 1093              	.L187:
 1094              		.align	2
 1095              	.L186:
 1096 00b4 DB0F49C0 		.word	3226013659
 1097 00b8 DB0FC940 		.word	1086918619
 1098 00bc DB0F4940 		.word	1078530011
 1099 00c0 7B81CF3E 		.word	1053786491
 1100 00c4 83F9A23F 		.word	1067645315
 1101 00c8 DB0FC93F 		.word	1070141403
 1102              		.cfi_endproc
 1103              	.LFE274:
 1104              		.size	utils_fast_sincos, .-utils_fast_sincos
 1105              		.section	.text.utils_fast_sincos_better,"ax",%progbits
 1106              		.align	1
 1107              		.p2align 4,,15
 1108              		.global	utils_fast_sincos_better
 1109              		.syntax unified
 1110              		.thumb
 1111              		.thumb_func
 1112              		.fpu fpv4-sp-d16
 1113              		.type	utils_fast_sincos_better, %function
 1114              	utils_fast_sincos_better:
 1115              	.LFB275:
 1116              		.loc 1 426 0
 1117              		.cfi_startproc
 1118              		@ args = 0, pretend = 0, frame = 0
 1119              		@ frame_needed = 0, uses_anonymous_args = 0
 1120              		@ link register save eliminated.
 1121              	.LVL98:
 1122              		.loc 1 428 0
 1123 0000 DFED3D7A 		vldr.32	s15, .L232
 1124 0004 B4EEE70A 		vcmpe.f32	s0, s15
 1125 0008 F1EE10FA 		vmrs	APSR_nzcv, FPSCR
 1126 000c 08D5     		bpl	.L189
 1127              		.loc 1 429 0
 1128 000e 9FED3B7A 		vldr.32	s14, .L232+4
 1129              	.L191:
 1130 0012 30EE070A 		vadd.f32	s0, s0, s14
 1131              	.LVL99:
 1132              		.loc 1 428 0
 1133 0016 B4EEE70A 		vcmpe.f32	s0, s15
 1134 001a F1EE10FA 		vmrs	APSR_nzcv, FPSCR
 1135 001e F8D4     		bmi	.L191
 1136              	.L189:
 1137              		.loc 1 432 0
 1138 0020 DFED377A 		vldr.32	s15, .L232+8
 1139 0024 B4EEE70A 		vcmpe.f32	s0, s15
 1140 0028 F1EE10FA 		vmrs	APSR_nzcv, FPSCR
ARM GAS  /tmp/ccJl8kHh.s 			page 21


 1141 002c 08DD     		ble	.L192
 1142              		.loc 1 433 0
 1143 002e 9FED337A 		vldr.32	s14, .L232+4
 1144              	.L194:
 1145 0032 30EE470A 		vsub.f32	s0, s0, s14
 1146              	.LVL100:
 1147              		.loc 1 432 0
 1148 0036 B4EEE70A 		vcmpe.f32	s0, s15
 1149 003a F1EE10FA 		vmrs	APSR_nzcv, FPSCR
 1150 003e F8DC     		bgt	.L194
 1151              	.L192:
 1152 0040 9FED307A 		vldr.32	s14, .L232+12
 1153 0044 DFED307A 		vldr.32	s15, .L232+16
 1154 0048 20EE077A 		vmul.f32	s14, s0, s14
 1155 004c 60EE277A 		vmul.f32	s15, s0, s15
 1156 0050 27EE007A 		vmul.f32	s14, s14, s0
 1157              		.loc 1 437 0
 1158 0054 B5EEC00A 		vcmpe.f32	s0, #0
 1159 0058 F1EE10FA 		vmrs	APSR_nzcv, FPSCR
 1160              		.loc 1 438 0
 1161 005c 4CBF     		ite	mi
 1162 005e 77EE877A 		vaddmi.f32	s15, s15, s14
 1163              		.loc 1 446 0
 1164 0062 77EEC77A 		vsubpl.f32	s15, s15, s14
 1165              		.loc 1 451 0
 1166 0066 9FED297A 		vldr.32	s14, .L232+20
 1167              		.loc 1 446 0
 1168 006a C0ED007A 		vstr.32	s15, [r0]
 1169              		.loc 1 448 0
 1170 006e F5EEC07A 		vcmpe.f32	s15, #0
 1171 0072 F1EE10FA 		vmrs	APSR_nzcv, FPSCR
 1172              		.loc 1 449 0
 1173 0076 F0EE676A 		vmov.f32	s13, s15
 1174 007a 4CBF     		ite	mi
 1175 007c D7EEE76A 		vfnmami.f32	s13, s15, s15
 1176              		.loc 1 451 0
 1177 0080 D7EEA76A 		vfnmspl.f32	s13, s15, s15
 1178 0084 E6EE877A 		vfma.f32	s15, s13, s14
 1179              		.loc 1 456 0
 1180 0088 9FED217A 		vldr.32	s14, .L232+24
 1181              		.loc 1 451 0
 1182 008c C0ED007A 		vstr.32	s15, [r0]
 1183              		.loc 1 456 0
 1184 0090 30EE070A 		vadd.f32	s0, s0, s14
 1185              	.LVL101:
 1186              		.loc 1 457 0
 1187 0094 DFED1A7A 		vldr.32	s15, .L232+8
 1188 0098 9FED1A7A 		vldr.32	s14, .L232+12
 1189 009c B4EEE70A 		vcmpe.f32	s0, s15
 1190 00a0 F1EE10FA 		vmrs	APSR_nzcv, FPSCR
 1191              		.loc 1 458 0
 1192 00a4 C4BF     		itt	gt
 1193 00a6 DFED157A 		vldrgt.32	s15, .L232+4
 1194 00aa 30EE670A 		vsubgt.f32	s0, s0, s15
 1195              	.LVL102:
 1196 00ae DFED167A 		vldr.32	s15, .L232+16
 1197 00b2 20EE077A 		vmul.f32	s14, s0, s14
ARM GAS  /tmp/ccJl8kHh.s 			page 22


 1198 00b6 60EE277A 		vmul.f32	s15, s0, s15
 1199 00ba 27EE007A 		vmul.f32	s14, s14, s0
 1200              		.loc 1 461 0
 1201 00be B5EEC00A 		vcmpe.f32	s0, #0
 1202 00c2 F1EE10FA 		vmrs	APSR_nzcv, FPSCR
 1203              		.loc 1 462 0
 1204 00c6 4CBF     		ite	mi
 1205 00c8 77EE877A 		vaddmi.f32	s15, s15, s14
 1206              		.loc 1 470 0
 1207 00cc 77EEC77A 		vsubpl.f32	s15, s15, s14
 1208              		.loc 1 475 0
 1209 00d0 9FED0E7A 		vldr.32	s14, .L232+20
 1210              		.loc 1 470 0
 1211 00d4 C1ED007A 		vstr.32	s15, [r1]
 1212              		.loc 1 472 0
 1213 00d8 F5EEC07A 		vcmpe.f32	s15, #0
 1214              		.loc 1 473 0
 1215 00dc F0EE676A 		vmov.f32	s13, s15
 1216              		.loc 1 472 0
 1217 00e0 F1EE10FA 		vmrs	APSR_nzcv, FPSCR
 1218              		.loc 1 473 0
 1219 00e4 4CBF     		ite	mi
 1220 00e6 D7EEE76A 		vfnmami.f32	s13, s15, s15
 1221              		.loc 1 475 0
 1222 00ea D7EEA76A 		vfnmspl.f32	s13, s15, s15
 1223 00ee E6EE877A 		vfma.f32	s15, s13, s14
 1224 00f2 C1ED007A 		vstr.32	s15, [r1]
 1225              		.loc 1 478 0
 1226 00f6 7047     		bx	lr
 1227              	.L233:
 1228              		.align	2
 1229              	.L232:
 1230 00f8 DB0F49C0 		.word	3226013659
 1231 00fc DB0FC940 		.word	1086918619
 1232 0100 DB0F4940 		.word	1078530011
 1233 0104 7B81CF3E 		.word	1053786491
 1234 0108 83F9A23F 		.word	1067645315
 1235 010c 6666663E 		.word	1046898278
 1236 0110 DB0FC93F 		.word	1070141403
 1237              		.cfi_endproc
 1238              	.LFE275:
 1239              		.size	utils_fast_sincos_better, .-utils_fast_sincos_better
 1240              		.section	.text.utils_avg_angles_rad_fast,"ax",%progbits
 1241              		.align	1
 1242              		.p2align 4,,15
 1243              		.global	utils_avg_angles_rad_fast
 1244              		.syntax unified
 1245              		.thumb
 1246              		.thumb_func
 1247              		.fpu fpv4-sp-d16
 1248              		.type	utils_avg_angles_rad_fast, %function
 1249              	utils_avg_angles_rad_fast:
 1250              	.LFB268:
 1251              		.loc 1 211 0
 1252              		.cfi_startproc
 1253              		@ args = 0, pretend = 0, frame = 8
 1254              		@ frame_needed = 0, uses_anonymous_args = 0
ARM GAS  /tmp/ccJl8kHh.s 			page 23


 1255              	.LVL103:
 1256 0000 10B5     		push	{r4, lr}
 1257              		.cfi_def_cfa_offset 8
 1258              		.cfi_offset 4, -8
 1259              		.cfi_offset 14, -4
 1260              	.LBB31:
 1261              		.loc 1 215 0
 1262 0002 141E     		subs	r4, r2, #0
 1263              	.LBE31:
 1264              		.loc 1 211 0
 1265 0004 82B0     		sub	sp, sp, #8
 1266              		.cfi_def_cfa_offset 16
 1267              		.loc 1 213 0
 1268 0006 DFED150A 		vldr.32	s1, .L240
 1269              	.LBB34:
 1270              		.loc 1 215 0
 1271 000a 1EDD     		ble	.L237
 1272 000c 0346     		mov	r3, r0
 1273              	.LBE34:
 1274              		.loc 1 212 0
 1275 000e B0EE606A 		vmov.f32	s12, s1
 1276 0012 00EB8404 		add	r4, r0, r4, lsl #2
 1277 0016 0A46     		mov	r2, r1
 1278              	.LVL104:
 1279              	.L236:
 1280              	.LBB35:
 1281              	.LBB32:
 1282              		.loc 1 217 0 discriminator 3
 1283 0018 B3EC010A 		vldmia.32	r3!, {s0}
 1284 001c 01A9     		add	r1, sp, #4
 1285 001e 6846     		mov	r0, sp
 1286 0020 FFF7FEFF 		bl	utils_fast_sincos_better
 1287              	.LVL105:
 1288              		.loc 1 218 0 discriminator 3
 1289 0024 DDED006A 		vldr.32	s13, [sp]
 1290 0028 F2EC017A 		vldmia.32	r2!, {s15}
 1291              		.loc 1 219 0 discriminator 3
 1292 002c 9DED017A 		vldr.32	s14, [sp, #4]
 1293              	.LBE32:
 1294              		.loc 1 215 0 discriminator 3
 1295 0030 A342     		cmp	r3, r4
 1296              	.LBB33:
 1297              		.loc 1 218 0 discriminator 3
 1298 0032 A7EEA66A 		vfma.f32	s12, s15, s13
 1299              	.LVL106:
 1300              		.loc 1 219 0 discriminator 3
 1301 0036 E7EE870A 		vfma.f32	s1, s15, s14
 1302              	.LVL107:
 1303              	.LBE33:
 1304              		.loc 1 215 0 discriminator 3
 1305 003a EDD1     		bne	.L236
 1306              	.LBE35:
 1307              		.loc 1 222 0
 1308 003c B0EE460A 		vmov.f32	s0, s12
 1309              		.loc 1 223 0
 1310 0040 02B0     		add	sp, sp, #8
 1311              		.cfi_remember_state
ARM GAS  /tmp/ccJl8kHh.s 			page 24


 1312              		.cfi_def_cfa_offset 8
 1313              		@ sp needed
 1314 0042 BDE81040 		pop	{r4, lr}
 1315              		.cfi_restore 14
 1316              		.cfi_restore 4
 1317              		.cfi_def_cfa_offset 0
 1318              		.loc 1 222 0
 1319 0046 FFF7FEBF 		b	utils_fast_atan2
 1320              	.LVL108:
 1321              	.L237:
 1322              		.cfi_restore_state
 1323              		.loc 1 212 0
 1324 004a B0EE606A 		vmov.f32	s12, s1
 1325              		.loc 1 222 0
 1326 004e B0EE460A 		vmov.f32	s0, s12
 1327              		.loc 1 223 0
 1328 0052 02B0     		add	sp, sp, #8
 1329              		.cfi_def_cfa_offset 8
 1330              		@ sp needed
 1331 0054 BDE81040 		pop	{r4, lr}
 1332              		.cfi_restore 14
 1333              		.cfi_restore 4
 1334              		.cfi_def_cfa_offset 0
 1335              		.loc 1 222 0
 1336 0058 FFF7FEBF 		b	utils_fast_atan2
 1337              	.LVL109:
 1338              	.L241:
 1339              		.align	2
 1340              	.L240:
 1341 005c 00000000 		.word	0
 1342              		.cfi_endproc
 1343              	.LFE268:
 1344              		.size	utils_avg_angles_rad_fast, .-utils_avg_angles_rad_fast
 1345              		.section	.text.utils_min_abs,"ax",%progbits
 1346              		.align	1
 1347              		.p2align 4,,15
 1348              		.global	utils_min_abs
 1349              		.syntax unified
 1350              		.thumb
 1351              		.thumb_func
 1352              		.fpu fpv4-sp-d16
 1353              		.type	utils_min_abs, %function
 1354              	utils_min_abs:
 1355              	.LFB276:
 1356              		.loc 1 492 0
 1357              		.cfi_startproc
 1358              		@ args = 0, pretend = 0, frame = 0
 1359              		@ frame_needed = 0, uses_anonymous_args = 0
 1360              		@ link register save eliminated.
 1361              	.LVL110:
 1362              		.loc 1 494 0
 1363 0000 B0EEC07A 		vabs.f32	s14, s0
 1364 0004 F0EEE07A 		vabs.f32	s15, s1
 1365 0008 B4EEE77A 		vcmpe.f32	s14, s15
 1366 000c F1EE10FA 		vmrs	APSR_nzcv, FPSCR
 1367              		.loc 1 501 0
 1368 0010 58BF     		it	pl
ARM GAS  /tmp/ccJl8kHh.s 			page 25


 1369 0012 B0EE600A 		vmovpl.f32	s0, s1
 1370              	.LVL111:
 1371 0016 7047     		bx	lr
 1372              		.cfi_endproc
 1373              	.LFE276:
 1374              		.size	utils_min_abs, .-utils_min_abs
 1375              		.section	.text.utils_max_abs,"ax",%progbits
 1376              		.align	1
 1377              		.p2align 4,,15
 1378              		.global	utils_max_abs
 1379              		.syntax unified
 1380              		.thumb
 1381              		.thumb_func
 1382              		.fpu fpv4-sp-d16
 1383              		.type	utils_max_abs, %function
 1384              	utils_max_abs:
 1385              	.LFB277:
 1386              		.loc 1 515 0
 1387              		.cfi_startproc
 1388              		@ args = 0, pretend = 0, frame = 0
 1389              		@ frame_needed = 0, uses_anonymous_args = 0
 1390              		@ link register save eliminated.
 1391              	.LVL112:
 1392              		.loc 1 517 0
 1393 0000 B0EEC07A 		vabs.f32	s14, s0
 1394 0004 F0EEE07A 		vabs.f32	s15, s1
 1395 0008 B4EEE77A 		vcmpe.f32	s14, s15
 1396 000c F1EE10FA 		vmrs	APSR_nzcv, FPSCR
 1397              		.loc 1 524 0
 1398 0010 D8BF     		it	le
 1399 0012 B0EE600A 		vmovle.f32	s0, s1
 1400              	.LVL113:
 1401 0016 7047     		bx	lr
 1402              		.cfi_endproc
 1403              	.LFE277:
 1404              		.size	utils_max_abs, .-utils_max_abs
 1405              		.section	.text.utils_byte_to_binary,"ax",%progbits
 1406              		.align	1
 1407              		.p2align 4,,15
 1408              		.global	utils_byte_to_binary
 1409              		.syntax unified
 1410              		.thumb
 1411              		.thumb_func
 1412              		.fpu fpv4-sp-d16
 1413              		.type	utils_byte_to_binary, %function
 1414              	utils_byte_to_binary:
 1415              	.LFB278:
 1416              		.loc 1 535 0
 1417              		.cfi_startproc
 1418              		@ args = 0, pretend = 0, frame = 0
 1419              		@ frame_needed = 0, uses_anonymous_args = 0
 1420              	.LVL114:
 1421 0000 2DE9F047 		push	{r4, r5, r6, r7, r8, r9, r10, lr}
 1422              		.cfi_def_cfa_offset 32
 1423              		.cfi_offset 4, -32
 1424              		.cfi_offset 5, -28
 1425              		.cfi_offset 6, -24
ARM GAS  /tmp/ccJl8kHh.s 			page 26


 1426              		.cfi_offset 7, -20
 1427              		.cfi_offset 8, -16
 1428              		.cfi_offset 9, -12
 1429              		.cfi_offset 10, -8
 1430              		.cfi_offset 14, -4
 1431              		.loc 1 536 0
 1432 0004 0023     		movs	r3, #0
 1433              		.loc 1 540 0
 1434 0006 DFF830A0 		ldr	r10, .L254
 1435 000a DFF83090 		ldr	r9, .L254+4
 1436              		.loc 1 536 0
 1437 000e 0B70     		strb	r3, [r1]
 1438              	.LVL115:
 1439              		.loc 1 535 0
 1440 0010 0E46     		mov	r6, r1
 1441 0012 8046     		mov	r8, r0
 1442              		.loc 1 536 0
 1443 0014 0825     		movs	r5, #8
 1444              		.loc 1 539 0
 1445 0016 8024     		movs	r4, #128
 1446              	.LVL116:
 1447              	.L250:
 1448              		.loc 1 540 0
 1449 0018 34EA0803 		bics	r3, r4, r8
 1450 001c 3046     		mov	r0, r6
 1451 001e 0CBF     		ite	eq
 1452 0020 5746     		moveq	r7, r10
 1453 0022 4F46     		movne	r7, r9
 1454 0024 FFF7FEFF 		bl	strlen
 1455              	.LVL117:
 1456 0028 3B88     		ldrh	r3, [r7]
 1457 002a 3352     		strh	r3, [r6, r0]	@ unaligned
 1458              		.loc 1 539 0
 1459 002c 013D     		subs	r5, r5, #1
 1460 002e 4FEA6404 		asr	r4, r4, #1
 1461              	.LVL118:
 1462 0032 F1D1     		bne	.L250
 1463              		.loc 1 542 0
 1464 0034 BDE8F087 		pop	{r4, r5, r6, r7, r8, r9, r10, pc}
 1465              	.LVL119:
 1466              	.L255:
 1467              		.align	2
 1468              	.L254:
 1469 0038 00000000 		.word	.LC0
 1470 003c 04000000 		.word	.LC1
 1471              		.cfi_endproc
 1472              	.LFE278:
 1473              		.size	utils_byte_to_binary, .-utils_byte_to_binary
 1474              		.section	.text.utils_throttle_curve,"ax",%progbits
 1475              		.align	1
 1476              		.p2align 4,,15
 1477              		.global	utils_throttle_curve
 1478              		.syntax unified
 1479              		.thumb
 1480              		.thumb_func
 1481              		.fpu fpv4-sp-d16
 1482              		.type	utils_throttle_curve, %function
ARM GAS  /tmp/ccJl8kHh.s 			page 27


 1483              	utils_throttle_curve:
 1484              	.LFB279:
 1485              		.loc 1 544 0
 1486              		.cfi_startproc
 1487              		@ args = 0, pretend = 0, frame = 8
 1488              		@ frame_needed = 0, uses_anonymous_args = 0
 1489              	.LVL120:
 1490 0000 00B5     		push	{lr}
 1491              		.cfi_def_cfa_offset 4
 1492              		.cfi_offset 14, -4
 1493              		.loc 1 547 0
 1494 0002 FFEE007A 		vmov.f32	s15, #-1.0e+0
 1495              		.loc 1 544 0
 1496 0006 2DED048B 		vpush.64	{d8, d9}
 1497              		.cfi_def_cfa_offset 20
 1498              		.cfi_offset 80, -20
 1499              		.cfi_offset 81, -16
 1500              		.cfi_offset 82, -12
 1501              		.cfi_offset 83, -8
 1502              		.loc 1 547 0
 1503 000a B4EEE70A 		vcmpe.f32	s0, s15
 1504 000e F1EE10FA 		vmrs	APSR_nzcv, FPSCR
 1505              		.loc 1 544 0
 1506 0012 83B0     		sub	sp, sp, #12
 1507              		.cfi_def_cfa_offset 32
 1508              		.loc 1 547 0
 1509 0014 2DD4     		bmi	.L270
 1510 0016 B0EE408A 		vmov.f32	s16, s0
 1511              		.loc 1 551 0
 1512 001a B7EE000A 		vmov.f32	s0, #1.0e+0
 1513              	.LVL121:
 1514 001e B4EEC08A 		vcmpe.f32	s16, s0
 1515 0022 F1EE10FA 		vmrs	APSR_nzcv, FPSCR
 1516              		.loc 1 552 0
 1517 0026 C8BF     		it	gt
 1518 0028 B0EE408A 		vmovgt.f32	s16, s0
 1519              	.LVL122:
 1520              		.loc 1 551 0
 1521 002c 40F38480 		ble	.L281
 1522              	.LVL123:
 1523              	.L257:
 1524              		.loc 1 566 0
 1525 0030 78B9     		cbnz	r0, .L259
 1526              		.loc 1 567 0
 1527 0032 F5EEC00A 		vcmpe.f32	s1, #0
 1528 0036 F1EE10FA 		vmrs	APSR_nzcv, FPSCR
 1529 003a 21DB     		blt	.L277
 1530              		.loc 1 568 0
 1531 003c F7EE008A 		vmov.f32	s17, #1.0e+0
 1532 0040 70EEA80A 		vadd.f32	s1, s1, s17
 1533              	.LVL124:
 1534 0044 38EEC00A 		vsub.f32	s0, s17, s0
 1535 0048 FFF7FEFF 		bl	powf
 1536              	.LVL125:
 1537 004c 38EEC00A 		vsub.f32	s0, s17, s0
 1538              	.LVL126:
 1539 0050 03E0     		b	.L262
ARM GAS  /tmp/ccJl8kHh.s 			page 28


 1540              	.LVL127:
 1541              	.L259:
 1542              		.loc 1 572 0
 1543 0052 0128     		cmp	r0, #1
 1544 0054 1BD0     		beq	.L282
 1545              		.loc 1 582 0
 1546 0056 0228     		cmp	r0, #2
 1547 0058 42D0     		beq	.L283
 1548              	.LVL128:
 1549              	.L262:
 1550              		.loc 1 592 0
 1551 005a B5EEC08A 		vcmpe.f32	s16, #0
 1552 005e F1EE10FA 		vmrs	APSR_nzcv, FPSCR
 1553              		.loc 1 593 0
 1554 0062 48BF     		it	mi
 1555 0064 B1EE400A 		vnegmi.f32	s0, s0
 1556              	.LVL129:
 1557              		.loc 1 597 0
 1558 0068 03B0     		add	sp, sp, #12
 1559              		.cfi_remember_state
 1560              		.cfi_def_cfa_offset 20
 1561              		@ sp needed
 1562 006a BDEC048B 		vldm	sp!, {d8-d9}
 1563              		.cfi_restore 82
 1564              		.cfi_restore 83
 1565              		.cfi_restore 80
 1566              		.cfi_restore 81
 1567              		.cfi_def_cfa_offset 4
 1568 006e 5DF804FB 		ldr	pc, [sp], #4
 1569              	.LVL130:
 1570              	.L270:
 1571              		.cfi_restore_state
 1572              		.loc 1 561 0
 1573 0072 F0EE410A 		vmov.f32	s1, s2
 1574              	.LVL131:
 1575              		.loc 1 548 0
 1576 0076 B0EE678A 		vmov.f32	s16, s15
 1577              		.loc 1 555 0
 1578 007a B7EE000A 		vmov.f32	s0, #1.0e+0
 1579              	.LVL132:
 1580 007e D7E7     		b	.L257
 1581              	.LVL133:
 1582              	.L277:
 1583              		.loc 1 570 0
 1584 0080 F7EE007A 		vmov.f32	s15, #1.0e+0
 1585 0084 77EEE00A 		vsub.f32	s1, s15, s1
 1586              	.LVL134:
 1587 0088 FFF7FEFF 		bl	powf
 1588              	.LVL135:
 1589 008c E5E7     		b	.L262
 1590              	.LVL136:
 1591              	.L282:
 1592              		.loc 1 573 0
 1593 008e DFED2F7A 		vldr.32	s15, .L284
 1594 0092 B0EEE07A 		vabs.f32	s14, s1
 1595 0096 B4EEE77A 		vcmpe.f32	s14, s15
 1596 009a F1EE10FA 		vmrs	APSR_nzcv, FPSCR
ARM GAS  /tmp/ccJl8kHh.s 			page 29


 1597 009e DCD4     		bmi	.L262
 1598              		.loc 1 576 0
 1599 00a0 F5EEC00A 		vcmpe.f32	s1, #0
 1600 00a4 F1EE10FA 		vmrs	APSR_nzcv, FPSCR
 1601 00a8 31DB     		blt	.L278
 1602              		.loc 1 577 0
 1603 00aa F7EE008A 		vmov.f32	s17, #1.0e+0
 1604 00ae 38EEC00A 		vsub.f32	s0, s17, s0
 1605 00b2 CDED010A 		vstr.32	s1, [sp, #4]	@ int
 1606 00b6 20EE200A 		vmul.f32	s0, s0, s1
 1607 00ba FFF7FEFF 		bl	expf
 1608              	.LVL137:
 1609 00be DDED010A 		vldr.32	s1, [sp, #4]	@ int
 1610 00c2 B0EE409A 		vmov.f32	s18, s0
 1611 00c6 B0EE600A 		vmov.f32	s0, s1
 1612 00ca FFF7FEFF 		bl	expf
 1613              	.LVL138:
 1614 00ce 79EE687A 		vsub.f32	s15, s18, s17
 1615 00d2 30EE687A 		vsub.f32	s14, s0, s17
 1616 00d6 87EE870A 		vdiv.f32	s0, s15, s14
 1617 00da 38EEC00A 		vsub.f32	s0, s17, s0
 1618              	.LVL139:
 1619 00de BCE7     		b	.L262
 1620              	.LVL140:
 1621              	.L283:
 1622              		.loc 1 583 0
 1623 00e0 F5EEC00A 		vcmpe.f32	s1, #0
 1624 00e4 F7EE007A 		vmov.f32	s15, #1.0e+0
 1625 00e8 F1EE10FA 		vmrs	APSR_nzcv, FPSCR
 1626 00ec 37EEC07A 		vsub.f32	s14, s15, s0
 1627 00f0 08DB     		blt	.L279
 1628              		.loc 1 584 0
 1629 00f2 F0EE676A 		vmov.f32	s13, s15
 1630 00f6 E0EE806A 		vfma.f32	s13, s1, s0
 1631 00fa 87EE260A 		vdiv.f32	s0, s14, s13
 1632 00fe 37EEC00A 		vsub.f32	s0, s15, s0
 1633              	.LVL141:
 1634 0102 AAE7     		b	.L262
 1635              	.LVL142:
 1636              	.L279:
 1637              		.loc 1 586 0
 1638 0104 E0EEC77A 		vfms.f32	s15, s1, s14
 1639 0108 80EE270A 		vdiv.f32	s0, s0, s15
 1640              	.LVL143:
 1641 010c A5E7     		b	.L262
 1642              	.LVL144:
 1643              	.L278:
 1644              		.loc 1 579 0
 1645 010e F1EE608A 		vneg.f32	s17, s1
 1646 0112 28EE800A 		vmul.f32	s0, s17, s0
 1647 0116 FFF7FEFF 		bl	expf
 1648              	.LVL145:
 1649 011a B0EE409A 		vmov.f32	s18, s0
 1650 011e B0EE680A 		vmov.f32	s0, s17
 1651 0122 FFF7FEFF 		bl	expf
 1652              	.LVL146:
 1653 0126 F7EE007A 		vmov.f32	s15, #1.0e+0
ARM GAS  /tmp/ccJl8kHh.s 			page 30


 1654 012a 30EE677A 		vsub.f32	s14, s0, s15
 1655 012e 39EE679A 		vsub.f32	s18, s18, s15
 1656 0132 89EE070A 		vdiv.f32	s0, s18, s14
 1657              	.LVL147:
 1658 0136 90E7     		b	.L262
 1659              	.LVL148:
 1660              	.L281:
 1661              		.loc 1 561 0
 1662 0138 B5EEC08A 		vcmpe.f32	s16, #0
 1663 013c F1EE10FA 		vmrs	APSR_nzcv, FPSCR
 1664 0140 B8BF     		it	lt
 1665 0142 F0EE410A 		vmovlt.f32	s1, s2
 1666              	.LVL149:
 1667              		.loc 1 555 0
 1668 0146 B0EEC80A 		vabs.f32	s0, s16
 1669              	.LVL150:
 1670 014a 71E7     		b	.L257
 1671              	.L285:
 1672              		.align	2
 1673              	.L284:
 1674 014c FFE6DB2E 		.word	786163455
 1675              		.cfi_endproc
 1676              	.LFE279:
 1677              		.size	utils_throttle_curve, .-utils_throttle_curve
 1678              		.section	.text.utils_sys_lock_cnt,"ax",%progbits
 1679              		.align	1
 1680              		.p2align 4,,15
 1681              		.global	utils_sys_lock_cnt
 1682              		.syntax unified
 1683              		.thumb
 1684              		.thumb_func
 1685              		.fpu fpv4-sp-d16
 1686              		.type	utils_sys_lock_cnt, %function
 1687              	utils_sys_lock_cnt:
 1688              	.LFB280:
 1689              		.loc 1 605 0
 1690              		.cfi_startproc
 1691              		@ args = 0, pretend = 0, frame = 0
 1692              		@ frame_needed = 0, uses_anonymous_args = 0
 1693              		@ link register save eliminated.
 1694              		.loc 1 606 0
 1695 0000 044B     		ldr	r3, .L288
 1696 0002 1A68     		ldr	r2, [r3]
 1697 0004 12B9     		cbnz	r2, .L287
 1698              	.LVL151:
 1699              	.LBB36:
 1700              	.LBB37:
 1701              	.LBB38:
 1702              	.LBB39:
 1703              		.file 2 "ChibiOS_3.0.2/os/ext/CMSIS/include/core_cmFunc.h"
 1704              		.loc 2 546 0
 1705 0006 2022     		movs	r2, #32
 1706              		.syntax unified
 1707              	@ 546 "ChibiOS_3.0.2/os/ext/CMSIS/include/core_cmFunc.h" 1
 1708 0008 82F31188 		MSR basepri, r2
 1709              	@ 0 "" 2
 1710              	.LVL152:
ARM GAS  /tmp/ccJl8kHh.s 			page 31


 1711              		.thumb
 1712              		.syntax unified
 1713              	.L287:
 1714              	.LBE39:
 1715              	.LBE38:
 1716              	.LBE37:
 1717              	.LBE36:
 1718              		.loc 1 609 0
 1719 000c 1A68     		ldr	r2, [r3]
 1720 000e 0132     		adds	r2, r2, #1
 1721 0010 1A60     		str	r2, [r3]
 1722              		.loc 1 610 0
 1723 0012 7047     		bx	lr
 1724              	.L289:
 1725              		.align	2
 1726              	.L288:
 1727 0014 00000000 		.word	.LANCHOR0
 1728              		.cfi_endproc
 1729              	.LFE280:
 1730              		.size	utils_sys_lock_cnt, .-utils_sys_lock_cnt
 1731              		.section	.text.utils_sys_unlock_cnt,"ax",%progbits
 1732              		.align	1
 1733              		.p2align 4,,15
 1734              		.global	utils_sys_unlock_cnt
 1735              		.syntax unified
 1736              		.thumb
 1737              		.thumb_func
 1738              		.fpu fpv4-sp-d16
 1739              		.type	utils_sys_unlock_cnt, %function
 1740              	utils_sys_unlock_cnt:
 1741              	.LFB281:
 1742              		.loc 1 618 0
 1743              		.cfi_startproc
 1744              		@ args = 0, pretend = 0, frame = 0
 1745              		@ frame_needed = 0, uses_anonymous_args = 0
 1746              		@ link register save eliminated.
 1747              		.loc 1 619 0
 1748 0000 054B     		ldr	r3, .L294
 1749 0002 1A68     		ldr	r2, [r3]
 1750 0004 32B1     		cbz	r2, .L290
 1751              		.loc 1 620 0
 1752 0006 1A68     		ldr	r2, [r3]
 1753 0008 013A     		subs	r2, r2, #1
 1754 000a 1A60     		str	r2, [r3]
 1755              		.loc 1 621 0
 1756 000c 1B68     		ldr	r3, [r3]
 1757 000e 0BB9     		cbnz	r3, .L290
 1758              	.LVL153:
 1759              	.LBB40:
 1760              	.LBB41:
 1761              	.LBB42:
 1762              	.LBB43:
 1763              	.LBB44:
 1764              		.loc 2 546 0
 1765              		.syntax unified
 1766              	@ 546 "ChibiOS_3.0.2/os/ext/CMSIS/include/core_cmFunc.h" 1
 1767 0010 83F31188 		MSR basepri, r3
ARM GAS  /tmp/ccJl8kHh.s 			page 32


 1768              	@ 0 "" 2
 1769              	.LVL154:
 1770              		.thumb
 1771              		.syntax unified
 1772              	.L290:
 1773              	.LBE44:
 1774              	.LBE43:
 1775              	.LBE42:
 1776              	.LBE41:
 1777              	.LBE40:
 1778              		.loc 1 625 0
 1779 0014 7047     		bx	lr
 1780              	.L295:
 1781 0016 00BF     		.align	2
 1782              	.L294:
 1783 0018 00000000 		.word	.LANCHOR0
 1784              		.cfi_endproc
 1785              	.LFE281:
 1786              		.size	utils_sys_unlock_cnt, .-utils_sys_unlock_cnt
 1787              		.section	.bss.sys_lock_cnt,"aw",%nobits
 1788              		.align	2
 1789              		.set	.LANCHOR0,. + 0
 1790              		.type	sys_lock_cnt, %object
 1791              		.size	sys_lock_cnt, 4
 1792              	sys_lock_cnt:
 1793 0000 00000000 		.space	4
 1794              		.section	.rodata.utils_byte_to_binary.str1.4,"aMS",%progbits,1
 1795              		.align	2
 1796              	.LC0:
 1797 0000 3100     		.ascii	"1\000"
 1798 0002 0000     		.space	2
 1799              	.LC1:
 1800 0004 3000     		.ascii	"0\000"
 1801              		.text
 1802              	.Letext0:
 1803              		.file 3 "/usr/lib/gcc/arm-none-eabi/7.3.1/include/stddef.h"
 1804              		.file 4 "/usr/arm-none-eabi/include/machine/_default_types.h"
 1805              		.file 5 "/usr/arm-none-eabi/include/sys/_stdint.h"
 1806              		.file 6 "ChibiOS_3.0.2/os/rt/ports/ARMCMx/compilers/GCC/chtypes.h"
 1807              		.file 7 "ChibiOS_3.0.2/os/rt/include/chsystypes.h"
 1808              		.file 8 "ChibiOS_3.0.2/os/rt/include/chschd.h"
 1809              		.file 9 "ChibiOS_3.0.2/os/ext/CMSIS/include/core_cm4.h"
 1810              		.file 10 "ChibiOS_3.0.2/os/ext/CMSIS/ST/system_stm32f4xx.h"
 1811              		.file 11 "ChibiOS_3.0.2/os/ext/CMSIS/ST/stm32f407xx.h"
 1812              		.file 12 "ChibiOS_3.0.2/os/rt/ports/ARMCMx/chcore.h"
 1813              		.file 13 "ChibiOS_3.0.2/os/rt/ports/ARMCMx/chcore_v7m.h"
 1814              		.file 14 "ChibiOS_3.0.2/os/rt/include/chtm.h"
 1815              		.file 15 "ChibiOS_3.0.2/os/rt/include/chsem.h"
 1816              		.file 16 "ChibiOS_3.0.2/os/rt/include/chmtx.h"
 1817              		.file 17 "ChibiOS_3.0.2/os/rt/include/chregistry.h"
 1818              		.file 18 "ChibiOS_3.0.2/os/rt/include/chevents.h"
 1819              		.file 19 "ChibiOS_3.0.2/os/rt/include/chqueues.h"
 1820              		.file 20 "./conf_general.h"
 1821              		.file 21 "ChibiOS_3.0.2/os/hal/ports/STM32/STM32F4xx/stm32_dma.h"
 1822              		.file 22 "ChibiOS_3.0.2/os/hal/ports/STM32/LLD/GPIOv2/pal_lld.h"
 1823              		.file 23 "ChibiOS_3.0.2/os/hal/include/can.h"
 1824              		.file 24 "ChibiOS_3.0.2/os/hal/ports/STM32/LLD/can_lld.h"
ARM GAS  /tmp/ccJl8kHh.s 			page 33


 1825              		.file 25 "ChibiOS_3.0.2/os/hal/include/i2c.h"
 1826              		.file 26 "ChibiOS_3.0.2/os/hal/ports/STM32/LLD/I2Cv1/i2c_lld.h"
 1827              		.file 27 "ChibiOS_3.0.2/os/hal/include/icu.h"
 1828              		.file 28 "ChibiOS_3.0.2/os/hal/ports/STM32/LLD/TIMv1/icu_lld.h"
 1829              		.file 29 "ChibiOS_3.0.2/os/hal/ports/STM32/LLD/TIMv1/stm32_tim.h"
 1830              		.file 30 "ChibiOS_3.0.2/os/hal/include/spi.h"
 1831              		.file 31 "ChibiOS_3.0.2/os/hal/ports/STM32/LLD/SPIv1/spi_lld.h"
 1832              		.file 32 "ChibiOS_3.0.2/os/hal/include/uart.h"
 1833              		.file 33 "ChibiOS_3.0.2/os/hal/ports/STM32/LLD/USARTv1/uart_lld.h"
 1834              		.file 34 "ChibiOS_3.0.2/os/hal/include/usb.h"
 1835              		.file 35 "ChibiOS_3.0.2/os/hal/ports/STM32/LLD/OTGv1/usb_lld.h"
 1836              		.file 36 "ChibiOS_3.0.2/os/hal/ports/STM32/LLD/OTGv1/stm32_otg.h"
 1837              		.file 37 "/usr/arm-none-eabi/include/sys/lock.h"
 1838              		.file 38 "/usr/arm-none-eabi/include/sys/_types.h"
 1839              		.file 39 "/usr/arm-none-eabi/include/sys/reent.h"
 1840              		.file 40 "/usr/arm-none-eabi/include/math.h"
 1841              		.file 41 "ChibiOS_3.0.2/os/rt/include/chsys.h"
 1842              		.file 42 "<built-in>"